
a393e724f1356b9fc6e6e088ae305bd71689850535c99ca44578ce551ba7ea1a.exe:     file format pei-i386


Disassembly of section .text:

00401000 <.text>:
	...
  401d20:	dec    eax
  401d21:	add    BYTE PTR [ebx+0x1006c00],cl
  401d27:	add    BYTE PTR [eax+eax*1],dh
  401d2a:	aas    
  401d2b:	add    BYTE PTR [ecx],dh
  401d2d:	add    bl,dh
  401d2f:	add    dh,cl
  401d31:	add    BYTE PTR [ebp+0x5500dd00],dh
  401d37:	add    BYTE PTR [ecx+0x0],al
  401d3a:	adc    DWORD PTR [eax],eax
  401d3c:	je     0x401d3e
  401d3e:	sbb    eax,0xbf003e00
  401d43:	add    BYTE PTR [esi+0x3c006300],ah
  401d49:	add    BYTE PTR [eax+eax*1+0x6a],dh
  401d4d:	add    BYTE PTR [eax+eax*1-0x56],dh
  401d51:	add    cl,bl
  401d53:	add    BYTE PTR [ebx-0x1eff4700],dl
  401d59:	add    BYTE PTR [edx+0x0],bl
  401d5c:	and    DWORD PTR [eax],eax
  401d5e:	aaa    
  401d5f:	add    bl,ah
  401d61:	add    BYTE PTR [ebx+0x0],dl
  401d64:	sub    eax,0x4200db00
  401d69:	add    al,al
  401d6b:	add    BYTE PTR [ebx-0x41ff6800],dl
  401d71:	add    BYTE PTR [ebp+0x0],cl
  401d74:	jecxz  0x401d76
  401d76:	stc    
  401d77:	add    BYTE PTR [edi],cl
  401d79:	add    BYTE PTR [edi+0x72005300],cl
  401d7f:	add    dl,ch
  401d81:	add    al,bh
  401d83:	add    BYTE PTR [esi+0x5400ff00],cl
  401d89:	add    BYTE PTR [eax+0x41005300],al
  401d8f:	add    BYTE PTR [edi+0x0],al
  401d92:	adc    al,BYTE PTR [eax]
  401d94:	or     eax,0x8f007400
  401d99:	add    BYTE PTR [edx],ch
  401d9b:	add    BYTE PTR ds:0x14009200,ah
  401da1:	add    BYTE PTR [edx+0x2800],ch
  401da7:	add    BYTE PTR [ecx+0x0],cl
  401daa:	and    eax,DWORD PTR [eax]
  401dac:	mov    es,WORD PTR [eax]
  401dae:	xchg   edx,eax
  401daf:	add    BYTE PTR [ebp+0x0],bh
  401db2:	fiadd  WORD PTR [eax]
  401db4:	das    
  401db5:	add    BYTE PTR [eax+0x0],bh
  401db8:	sub    eax,DWORD PTR [eax]
  401dba:	or     al,0x0
  401dbc:	clc    
  401dbd:	add    BYTE PTR [eax+eax*1+0x14],al
  401dc1:	add    BYTE PTR [ecx+0x0],dh
  401dc4:	mov    cl,0x0
  401dc6:	mov    dl,0x0
  401dc8:	mov    dh,0x0
  401dca:	push   ebx
  401dcb:	add    BYTE PTR [edx],cl
  401dcd:	add    BYTE PTR [esi+0x0],ah
  401dd0:	arpl   WORD PTR [eax],ax
  401dd2:	dec    edx
  401dd3:	add    BYTE PTR [ebx],bl
  401dd5:	add    dh,ah
  401dd7:	add    BYTE PTR [edx+0x0],cl
  401dda:	and    al,BYTE PTR [eax]
  401ddc:	sahf   
  401ddd:	add    al,dl
  401ddf:	add    BYTE PTR [eax+0x0],al
  401de2:	rol    BYTE PTR [eax],0x17
  401de5:	add    BYTE PTR [esi+0x0],dh
  401de8:	sub    BYTE PTR [eax],al
  401dea:	lldt   WORD PTR [eax+eax*1-0x1f]
  401def:	add    ch,al
  401df1:	add    BYTE PTR [ebx-0x43ff6e00],ah
  401df7:	add    bl,dl
  401df9:	add    BYTE PTR [eax-0x4effb100],dl
  401dff:	add    BYTE PTR [eax+eax*1+0xb90090],dl
  401e06:	ret    0xc900
  401e09:	add    BYTE PTR [eax],ch
  401e0b:	add    BYTE PTR [ebx-0x2dffd900],ah
  401e11:	add    BYTE PTR [edi],al
  401e13:	add    BYTE PTR ds:0x6800ee00,cl
  401e19:	add    al,dh
  401e1b:	add    dh,ch
  401e1d:	add    BYTE PTR [eax+0x68006300],dl
  401e23:	add    BYTE PTR [edx],dl
  401e25:	add    BYTE PTR [esi-0x7aff6100],al
  401e2b:	add    cl,dh
  401e2d:	add    BYTE PTR [ecx+0x0],ah
  401e30:	call   0x20403c35
  401e35:	add    BYTE PTR [ebx-0x4ff1900],ah
  401e3b:	add    BYTE PTR [ebp+0x4e00bd00],dl
  401e41:	add    BYTE PTR [ecx],bl
  401e43:	add    BYTE PTR [esi+0x0],dl
  401e46:	pop    eax
  401e47:	add    BYTE PTR [esi],ch
  401e49:	add    BYTE PTR [ebp-0x66000000],ah
  401e4f:	add    BYTE PTR [edi+0x19003e00],dl
  401e55:	add    BYTE PTR [eax+eax*1+0x8500bd],dh
  401e5c:	mov    al,ds:0xc700cb00
  401e61:	add    al,dl
  401e63:	add    BYTE PTR [eax],bh
  401e65:	add    BYTE PTR [eax+eax*1+0x6200f9],bl
  401e6c:	jae    0x401e6e
  401e6e:	jne    0x401e70
  401e70:	movs   DWORD PTR es:[edi],DWORD PTR ds:[esi]
  401e71:	add    al,dl
  401e73:	add    BYTE PTR [ebx+0x0],bh
  401e76:	jne    0x401e78
  401e78:	stos   DWORD PTR es:[edi],eax
  401e79:	add    BYTE PTR [ecx],ch
  401e7b:	add    BYTE PTR [eax+eax*1-0x26],ah
  401e7f:	add    BYTE PTR [ebp+0x6b008100],bh
  401e85:	add    BYTE PTR [ecx+0x0],dl
  401e88:	jl     0x401e8a
  401e8a:	rol    DWORD PTR [eax],0x6c
  401e8d:	add    BYTE PTR [edi],bl
  401e8f:	add    BYTE PTR [ebx],ch
  401e91:	add    BYTE PTR [eax+eax*1+0x8],dh
  401e95:	add    ah,ah
  401e97:	add    cl,bh
  401e99:	add    dh,dl
  401e9b:	add    BYTE PTR [edi],bl
  401e9d:	add    BYTE PTR [esi+0x0],dh
  401ea0:	fiadd  DWORD PTR [eax]
  401ea2:	sub    al,0x0
  401ea4:	pop    ss
  401ea5:	add    BYTE PTR [ecx-0x1aff3000],dh
  401eab:	add    BYTE PTR [ebp+0x0],ch
  401eae:	iret   
  401eaf:	add    BYTE PTR [ebp+0x33005000],bh
  401eb5:	add    BYTE PTR [ebx+0x69002e00],bl
  401ebb:	add    BYTE PTR [eax+eax*1-0x6d],bh
  401ebf:	add    BYTE PTR [eax],dh
  401ec1:	add    BYTE PTR [edx+0x17005200],bh
  401ec7:	add    BYTE PTR [esi+0x10000a00],bh
  401ecd:	add    BYTE PTR [edx+0x0],ch
  401ed0:	out    dx,eax
  401ed1:	add    BYTE PTR [eax+0x1d00eb00],dl
  401ed7:	add    al,ah
  401ed9:	add    ch,al
  401edb:	add    BYTE PTR [ebp+0x0],bl
  401ede:	add    eax,0x5300fc00
  401ee3:	add    bl,al
  401ee5:	add    BYTE PTR [edi+0x0],cl
  401ee8:	and    al,0x0
  401eea:	lahf   
  401eeb:	add    BYTE PTR [edi-0x71ff8400],dl
  401ef1:	add    dl,dl
  401ef3:	add    BYTE PTR [ebp-0x1dff0500],dl
  401ef9:	add    BYTE PTR [ebx],dl
  401efb:	add    BYTE PTR [ebx+0x68008800],ch
  401f01:	add    bh,cl
  401f03:	add    BYTE PTR [eax],cl
  401f05:	add    BYTE PTR [ebx-0xeff5500],ah
  401f0b:	add    BYTE PTR [eax+eax*1+0x4c0032],cl
  401f12:	mov    eax,0xb5005300
  401f17:	add    dl,dh
  401f19:	add    BYTE PTR [eax+eax*1],ch
  401f1c:	jp     0x401f1e
  401f1e:	inc    esi
  401f1f:	add    BYTE PTR [ecx+0x0],ah
  401f22:	pop    edx
  401f23:	add    BYTE PTR [ebx+0x0],cl
  401f26:	cdq    
  401f27:	add    BYTE PTR [ebp+0x0],ch
  401f2a:	xor    al,BYTE PTR [eax]
  401f2c:	add    BYTE PTR [bx+si],cl
  401f2f:	add    BYTE PTR [esi+0x7b00b300],bl
  401f35:	add    BYTE PTR [ebp+0x0],al
  401f38:	ja     0x401f3a
  401f3a:	stos   BYTE PTR es:[edi],al
  401f3b:	add    BYTE PTR [edx],ah
  401f3d:	add    bh,dl
  401f3f:	add    BYTE PTR [ebp+0x0],cl
  401f42:	fld    QWORD PTR [eax]
  401f44:	xor    al,0x0
  401f46:	inc    esi
  401f47:	add    BYTE PTR [ebx+0x0],dh
  401f4a:	ins    DWORD PTR es:[edi],dx
  401f4b:	add    ah,cl
  401f4d:	add    cl,ah
  401f4f:	add    BYTE PTR [eax+eax*1],al
  401f52:	push   eax
  401f53:	add    BYTE PTR [esi-0x5affcb00],ah
  401f59:	add    BYTE PTR ds:0xde00a000,dh
  401f5f:	add    BYTE PTR [edx+0x1d007c00],ch
  401f65:	add    dh,ch
  401f67:	add    BYTE PTR [ebp+0x0],bh
  401f6a:	and    DWORD PTR [eax],eax
  401f6c:	test   BYTE PTR [eax],0x43
  401f6f:	add    BYTE PTR [edx],ah
  401f71:	add    BYTE PTR [eax+eax*1],al
  401f74:	rol    BYTE PTR [eax],0x51
  401f77:	add    BYTE PTR [ebx+0x37000900],bl
  401f7d:	add    BYTE PTR [edi-0x7aff4f00],ch
  401f83:	add    BYTE PTR [ebp-0xff2100],dh
  401f89:	add    BYTE PTR [eax+0x71001100],ah
  401f8f:	add    BYTE PTR [edi+0x6200c600],dl
  401f95:	add    BYTE PTR [eax+eax*1],ch
  401f98:	xchg   ebx,eax
  401f99:	add    BYTE PTR [eax],bh
  401f9b:	add    BYTE PTR [edx],ah
  401f9d:	add    BYTE PTR [edi],bl
  401f9f:	add    BYTE PTR [edi+0x6e008100],dh
  401fa5:	add    al,cl
  401fa7:	add    BYTE PTR [edx+0x4000ed00],dl
  401fad:	add    BYTE PTR [ebx+0x0],bl
  401fb0:	inc    eax
  401fb1:	add    BYTE PTR [ebp+0x600cb00],cl
  401fb7:	add    BYTE PTR [edi],dh
  401fb9:	add    BYTE PTR [edi+0x6b003700],dh
  401fbf:	add    BYTE PTR ds:0xf0006100,bl
  401fc5:	add    BYTE PTR [esi],bh
  401fc7:	add    cl,ah
  401fc9:	add    BYTE PTR [eax],bl
  401fcb:	add    BYTE PTR [edx+0x6800ad00],bl
  401fd1:	add    BYTE PTR [esi],ch
  401fd3:	add    BYTE PTR [ecx+0x4e001800],ah
  401fd9:	add    BYTE PTR [esi-0x5bffa600],bh
  401fdf:	add    BYTE PTR [edi+0x6e007e00],bl
  401fe5:	add    BYTE PTR [esi+0x0],bl
  401fe8:	mov    edx,0x6b00a600
  401fed:	add    dl,ch
  401fef:	add    BYTE PTR [edx],dl
  401ff1:	add    BYTE PTR [ebp-0x3bffdd00],bh
  401ff7:	add    BYTE PTR [edi+0x0],dh
  401ffa:	arpl   WORD PTR [eax],ax
  401ffc:	rol    BYTE PTR [eax],cl
  401ffe:	mov    DWORD PTR [eax],eax
  402000:	cmp    al,0x0
  402002:	push   0x0
  402004:	mov    eax,0x41008c00
  402009:	add    BYTE PTR [ecx+0x0],cl
  40200c:	cmps   DWORD PTR ds:[esi],DWORD PTR es:[edi]
  40200d:	add    BYTE PTR [eax-0x2ffa500],dl
  402013:	add    ah,al
  402015:	add    BYTE PTR [edi+0x5500f900],bl
  40201b:	add    dl,bl
  40201d:	add    BYTE PTR [edi-0x1bfff500],ah
  402023:	add    BYTE PTR [esi+0x0],bl
  402026:	aaa    
  402027:	add    BYTE PTR [ecx],ah
  402029:	add    ch,dh
  40202b:	add    BYTE PTR [edx+0x0],bh
  40202e:	pop    ds
  40202f:	add    BYTE PTR [esi-0x38ff5b00],bh
  402035:	add    bh,dh
  402037:	add    BYTE PTR ds:0xc400b900,ah
  40203d:	add    BYTE PTR [eax+0x0],ah
  402040:	mov    eax,DWORD PTR [eax]
  402042:	pop    eax
  402043:	add    BYTE PTR [ebx+0x0],ah
  402046:	push   ds
  402047:	add    BYTE PTR [eax],cl
  402049:	add    BYTE PTR [ebp+0x0],dl
  40204c:	hlt    
  40204d:	add    BYTE PTR [edx+0x7700cd00],dh
  402053:	add    al,bl
  402055:	add    cl,ch
  402057:	add    BYTE PTR [ecx+0x3f004400],dl
  40205d:	add    BYTE PTR [ebp+0x0],ch
  402060:	rol    DWORD PTR [eax],cl
  402062:	out    0x0,al
  402064:	lahf   
  402065:	add    BYTE PTR [ebp+0x600e100],dh
  40206b:	add    ah,dh
  40206d:	add    BYTE PTR [eax+eax*1+0x31],al
  402071:	add    BYTE PTR [edi],dl
  402073:	add    BYTE PTR [eax+0x0],dh
  402076:	scas   al,BYTE PTR es:[edi]
  402077:	add    BYTE PTR [edx],dh
  402079:	add    BYTE PTR [eax+0x0],bh
  40207c:	mov    al,ds:0x79009e00
  402081:	add    BYTE PTR [edx+0x0],ch
  402084:	mov    edx,0x56007400
  402089:	add    cl,ah
  40208b:	add    BYTE PTR [edi+0x0],dl
  40208e:	mov    DWORD PTR [eax],eax
  402090:	sub    DWORD PTR [eax],eax
  402092:	ins    DWORD PTR es:[edi],dx
  402093:	add    BYTE PTR [ebp+0x5e00e300],ch
  402099:	add    ah,bh
  40209b:	add    bl,dl
  40209d:	add    dl,ch
  40209f:	add    BYTE PTR [ecx+0x0],bl
  4020a2:	rol    DWORD PTR [eax],cl
  4020a4:	add    BYTE PTR [eax],al
  4020a6:	jno    0x4020a8
  4020a8:	fiadd  WORD PTR [eax]
  4020aa:	push   eax
  4020ab:	add    BYTE PTR [edi-0x1aff1b00],bh
  4020b1:	add    BYTE PTR [eax+0x0],dh
  4020b4:	dec    esp
  4020b5:	add    dh,ch
  4020b7:	add    BYTE PTR [ecx],bh
  4020b9:	add    BYTE PTR [ebp+0x0],al
  4020bc:	push   0x35003200
  4020c1:	add    dl,ch
  4020c3:	add    bh,dl
  4020c5:	add    BYTE PTR [ecx-0x5cfff400],ch
  4020cb:	add    al,al
  4020cd:	add    BYTE PTR [eax+eax*1-0x4d],dh
  4020d1:	add    BYTE PTR [esi-0x51ffc900],ch
  4020d7:	add    al,al
  4020d9:	add    BYTE PTR [edx+0x0],bh
  4020dc:	add    BYTE PTR es:[ebx],ch
  4020df:	add    BYTE PTR [ecx],dl
  4020e1:	add    BYTE PTR [ebx+0x0],bh
  4020e4:	push   ebx
  4020e5:	add    BYTE PTR [ecx],bh
  4020e7:	add    BYTE PTR [ebp+0x48006c00],ch
  4020ed:	add    BYTE PTR [ebx+0x0],ch
  4020f0:	aas    
  4020f1:	add    ah,dh
  4020f3:	add    BYTE PTR [ebp+0x32006d00],al
  4020f9:	add    BYTE PTR [esi+0x0],cl
  4020fc:	imul   eax,DWORD PTR [eax],0x20
  4020ff:	add    BYTE PTR [eax-0x40ff1000],bh
  402105:	add    bh,dh
  402107:	add    BYTE PTR [eax+eax*1],bl
  40210a:	mov    ebp,0x2b004d00
  40210f:	add    BYTE PTR [edi+0x4b00ef00],cl
  402115:	add    BYTE PTR [edx+0x0],dh
  402118:	add    al,0x0
  40211a:	jns    0x40211c
  40211c:	cwde   
  40211d:	add    BYTE PTR [edi],dh
  40211f:	add    BYTE PTR [eax],dh
  402121:	add    BYTE PTR [ebx],ch
  402123:	add    BYTE PTR [ebp+0x0],bh
  402126:	xchg   edx,eax
  402127:	add    BYTE PTR [edx],cl
  402129:	add    BYTE PTR [esi-0x70ff9d00],dl
  40212f:	add    bh,bh
  402131:	add    BYTE PTR [edi+0xc009200],ch
  402137:	add    ah,cl
  402139:	add    BYTE PTR [edi+0x0],bl
  40213c:	jnp    0x40213e
  40213e:	movs   DWORD PTR es:[edi],DWORD PTR ds:[esi]
  40213f:	add    BYTE PTR [ecx-0x4fff8700],cl
  402145:	add    ah,cl
  402147:	add    BYTE PTR [eax+0x0],dl
  40214a:	lock add dh,dl
  40214d:	add    BYTE PTR [esi+0x0],ch
  402150:	push   0xb9002b00
  402155:	add    cl,ah
  402157:	add    bl,bl
  402159:	add    BYTE PTR [eax+eax*1],dh
  40215c:	leave  
  40215d:	add    ah,dl
  40215f:	add    bh,ch
  402161:	add    dh,dh
  402163:	add    BYTE PTR [ecx],bl
  402165:	add    BYTE PTR [eax],al
  402167:	add    BYTE PTR [esi],ah
  402169:	add    BYTE PTR [eax+eax*1],bl
  40216c:	stos   BYTE PTR es:[edi],al
  40216d:	add    cl,cl
  40216f:	add    BYTE PTR [eax+eax*1-0x21],dh
  402173:	add    BYTE PTR [eax+eax*1+0x280098],bl
  40217a:	fwait
  40217b:	add    BYTE PTR [edi+0x0],ah
  40217e:	jmp    0xb640d483
  402183:	add    BYTE PTR [eax+eax*1],ah
  402186:	pop    ebx
  402187:	add    BYTE PTR [edx+0x0],ch
  40218a:	mov    ch,0x0
  40218c:	test   DWORD PTR [eax],eax
  40218e:	rol    BYTE PTR [eax],1
  402190:	sub    eax,DWORD PTR [eax]
  402192:	ret    0x9700
  402195:	add    BYTE PTR [ebx+0xd004200],dh
  40219b:	add    bh,ch
  40219d:	add    BYTE PTR [ecx+0x0],al
  4021a0:	push   ecx
  4021a1:	add    BYTE PTR [edx-0xdffee00],ch
  4021a7:	add    BYTE PTR [eax+eax*1],dl
  4021aa:	lahf   
  4021ab:	add    BYTE PTR [edi-0x6cffd600],al
  4021b1:	add    BYTE PTR [eax+eax*1-0x54],cl
  4021b5:	add    BYTE PTR [ebp-0x3fff6300],dl
  4021bb:	add    bl,dh
  4021bd:	add    dl,bl
  4021bf:	add    bh,bh
  4021c1:	add    BYTE PTR [edi+0x0],ah
  4021c4:	add    BYTE PTR gs:[ebp+0x0],dh
  4021c8:	hlt    
  4021c9:	add    BYTE PTR [edi+0x0],bh
  4021cc:	gs add dh,dh
  4021cf:	add    BYTE PTR [esi+0x0],al
  4021d2:	pop    esp
  4021d3:	add    bl,bh
  4021d5:	add    BYTE PTR [eax+0x4c005b00],bl
  4021db:	add    BYTE PTR [edi+0x0],cl
  4021de:	push   cs
  4021df:	add    BYTE PTR [edi+0x0],cl
  4021e2:	scas   al,BYTE PTR es:[edi]
  4021e3:	add    BYTE PTR [edi+0x0],cl
  4021e6:	sub    al,BYTE PTR [eax]
  4021e8:	in     al,dx
  4021e9:	add    ah,bh
  4021eb:	add    bh,ah
  4021ed:	add    ch,al
  4021ef:	add    BYTE PTR [eax+eax*1],dh
  4021f2:	sub    DWORD PTR [eax],eax
  4021f4:	mov    BYTE PTR [eax],al
  4021f6:	inc    ebp
  4021f7:	add    BYTE PTR [eax+0x0],bh
  4021fa:	xchg   edx,eax
  4021fb:	add    BYTE PTR [ebp+0x0],dh
  4021fe:	jg     0x402200
  402200:	mov    edx,0xc0001d00
  402205:	add    bl,ah
  402207:	add    BYTE PTR [edi],cl
  402209:	add    BYTE PTR [ebp+0x0],bh
  40220c:	xchg   edx,eax
  40220d:	add    BYTE PTR [ecx-0x14ffff00],ch
  402213:	add    BYTE PTR [eax+eax*1+0x870083],bl
  40221a:	sti    
  40221b:	add    BYTE PTR [eax+eax*1-0x57],bh
  40221f:	add    bh,ch
  402221:	add    BYTE PTR [edi],bh
  402223:	add    BYTE PTR [edx+0x0],ah
  402226:	in     al,dx
  402227:	add    BYTE PTR [ebp-0x73ff5a00],dl
  40222d:	add    dh,ch
  40222f:	add    BYTE PTR [eax+eax*1+0x75],bh
  402233:	add    BYTE PTR [ebx+0x0],bl
  402236:	test   DWORD PTR [eax],0xf0004f
  40223c:	adc    al,BYTE PTR [eax]
  40223e:	int    0x0
  402240:	sub    DWORD PTR [eax],eax
  402242:	fld    QWORD PTR [eax]
  402244:	fld    QWORD PTR [eax]
  402246:	jbe    0x402248
  402248:	mov    ch,0x0
  40224a:	fiadd  DWORD PTR [eax]
  40224c:	popf   
  40224d:	add    BYTE PTR [ebx+0x31002600],dh
  402253:	add    ch,bh
  402255:	add    BYTE PTR [eax+eax*1],bh
  402258:	scas   al,BYTE PTR es:[edi]
  402259:	add    BYTE PTR [eax],cl
  40225b:	add    BYTE PTR [eax+0x27002f00],al
  402261:	add    BYTE PTR [eax+0x0],cl
  402264:	pop    ss
  402265:	add    BYTE PTR [edi],dl
  402267:	add    BYTE PTR [eax],ch
  402269:	add    BYTE PTR [esi],ah
  40226b:	add    BYTE PTR [eax+eax*1-0x72],cl
  40226f:	add    BYTE PTR [ebx+0x0],al
  402272:	xlat   BYTE PTR ds:[ebx]
  402273:	add    BYTE PTR [ebx],al
  402275:	add    BYTE PTR [ebx],bh
  402277:	add    BYTE PTR [edi+0x0],cl
  40227a:	pop    es
  40227b:	add    bh,bl
  40227d:	add    BYTE PTR [ebx],bl
  40227f:	add    BYTE PTR [ecx+0x0],dl
  402282:	cdq    
  402283:	add    BYTE PTR [eax+eax*1-0x7c],ah
  402287:	add    ch,ch
  402289:	add    BYTE PTR [esi+0x0],dh
  40228c:	les    eax,FWORD PTR [eax]
  40228e:	retf   0x6d00
  402291:	add    BYTE PTR [ecx],ch
  402293:	add    BYTE PTR [eax+eax*1-0x73],bh
  402297:	add    BYTE PTR [esi],bl
  402299:	add    BYTE PTR [esi+0x0],bh
  40229c:	hlt    
  40229d:	add    BYTE PTR [ebx+0x0],bh
  4022a0:	inc    DWORD PTR [eax]
  4022a2:	inc    BYTE PTR [eax]
  4022a4:	pop    es
  4022a5:	add    bl,dh
  4022a7:	add    BYTE PTR [ecx],dh
  4022a9:	add    BYTE PTR [eax+eax*1],bh
  4022ac:	mov    WORD PTR [eax],es
  4022ae:	hlt    
  4022af:	add    BYTE PTR [ebp+0x0],al
  4022b2:	aad    0x0
  4022b4:	xchg   ebp,eax
  4022b5:	add    BYTE PTR [ebx+0x2c00cb00],bl
  4022bb:	add    BYTE PTR [ebp-0x71ff7a00],bh
  4022c1:	add    cl,cl
  4022c3:	add    BYTE PTR [ebx],bh
  4022c5:	add    BYTE PTR [eax+eax*1+0x8e002b],dh
  4022cc:	pop    DWORD PTR [eax]
  4022ce:	ret    
  4022cf:	add    BYTE PTR [eax+eax*1+0x9b00bc],bh
  4022d6:	fld    DWORD PTR [eax]
  4022d8:	sbb    eax,0xe8001e00
  4022dd:	add    BYTE PTR [edx+0x0],ch
  4022e0:	pop    ds
  4022e1:	add    BYTE PTR [edi+0x7e00ba00],al
  4022e7:	add    dl,dh
  4022e9:	add    BYTE PTR [esi],ah
  4022eb:	add    BYTE PTR [eax+eax*1+0x500073],ch
  4022f2:	les    eax,FWORD PTR [eax]
  4022f4:	fiadd  WORD PTR [eax]
  4022f6:	aam    0x0
  4022f8:	xor    eax,0x7300be00
  4022fd:	add    dl,cl
  4022ff:	add    BYTE PTR [ebp-0x76ff7000],dh
  402305:	add    BYTE PTR [eax+0x20003700],cl
  40230b:	add    BYTE PTR [edi],dh
  40230d:	add    dl,dh
  40230f:	add    BYTE PTR [esi],al
  402311:	add    BYTE PTR [ebx+0x0],bl
  402314:	mov    edi,0x53000600
  402319:	add    BYTE PTR [ecx+0x0],dl
  40231c:	mov    al,ds:0x91001d00
  402321:	add    BYTE PTR [edx-0x1dff1900],ch
  402327:	add    BYTE PTR [eax+eax*1+0x60],bl
  40232b:	add    BYTE PTR [edi],dh
  40232d:	add    BYTE PTR [ecx-0x65ff5a00],bh
  402333:	add    ah,dh
  402335:	add    BYTE PTR [edx],dl
  402337:	add    al,cl
  402339:	add    BYTE PTR [ebx+0x0],ch
  40233c:	jae    0x40233e
  40233e:	add    BYTE PTR fs:[eax+0x0],bh
  402342:	cmps   DWORD PTR ds:[esi],DWORD PTR es:[edi]
  402343:	add    BYTE PTR [edx],ah
  402345:	add    BYTE PTR [esi-0x67ff1e00],bh
  40234b:	add    BYTE PTR [ebx],ah
  40234d:	add    BYTE PTR [ebp+0x0],ch
  402350:	xchg   edi,eax
  402351:	add    BYTE PTR [ecx-0x22ff7500],bl
  402357:	add    ch,al
  402359:	add    BYTE PTR [eax+0x0],dh
  40235c:	imul   eax,DWORD PTR [eax],0x31000e
  402362:	into   
  402363:	add    BYTE PTR [edx],bl
  402365:	add    BYTE PTR [esi],ch
  402367:	add    dh,al
  402369:	add    BYTE PTR [ecx+0x0],dl
  40236c:	ds add al,ah
  40236f:	add    BYTE PTR [edx+0x2800e900],cl
  402375:	add    BYTE PTR [eax],bh
  402377:	add    BYTE PTR [edi],dh
  402379:	add    al,cl
  40237b:	add    BYTE PTR [edx],dh
  40237d:	add    al,cl
  40237f:	add    BYTE PTR [edx+0x0],bl
  402382:	cmp    al,BYTE PTR [eax]
  402384:	jmp    0x5200:0xb100d300
  40238b:	add    bl,ch
  40238d:	add    BYTE PTR [esi-0x74ff0b00],bh
  402393:	add    cl,bl
  402395:	add    dh,bh
  402397:	add    BYTE PTR [edx],bh
  402399:	add    dh,al
  40239b:	add    BYTE PTR [eax],ch
  40239d:	add    BYTE PTR ds:0x6400cc00,dl
  4023a3:	add    BYTE PTR [eax+eax*1],ah
  4023a6:	fwait
  4023a7:	add    BYTE PTR [eax+eax*1],ch
  4023aa:	retf   
  4023ab:	add    dh,dh
  4023ad:	add    BYTE PTR [eax+eax*1+0x4a],bh
  4023b1:	add    BYTE PTR [esi],dl
  4023b3:	add    BYTE PTR [esi],dh
  4023b5:	add    BYTE PTR [ebx],al
  4023b7:	add    ch,al
  4023b9:	add    BYTE PTR [edx],dl
  4023bb:	add    BYTE PTR [esi],al
  4023bd:	add    BYTE PTR [eax+eax*1+0x7200d1],dh
  4023c4:	pop    eax
  4023c5:	add    BYTE PTR [esi+0x7c003b00],ah
  4023cb:	add    BYTE PTR [ecx+0x0],dh
  4023ce:	daa    
  4023cf:	add    BYTE PTR [eax+eax*1],dh
  4023d2:	mov    ebp,0xb8007a00
  4023d7:	add    BYTE PTR [eax],ah
  4023d9:	add    ah,dh
  4023db:	add    BYTE PTR [esi+0x0],ch
  4023de:	test   BYTE PTR [eax],al
  4023e0:	mov    es,WORD PTR [eax]
  4023e2:	mov    al,ds:0xe3009100
  4023e7:	add    BYTE PTR ds:0x8900eb00,dh
  4023ed:	add    dl,ah
  4023ef:	add    BYTE PTR [ebx-0xeff0b00],ah
  4023f5:	add    BYTE PTR [esi+0x0],dh
  4023f8:	or     al,0x0
  4023fa:	out    0x0,al
  4023fc:	dec    esp
  4023fd:	add    BYTE PTR [eax+eax*1],ch
  402400:	xor    al,0x0
  402402:	adc    BYTE PTR [eax],al
  402404:	push   edi
  402405:	add    dl,al
  402407:	add    BYTE PTR [ebp-0x7bff4e00],al
  40240d:	add    BYTE PTR [eax],dl
  40240f:	add    BYTE PTR [ecx-0x4ff2a00],bl
  402415:	add    BYTE PTR [edi+0x7e003f00],ah
  40241b:	add    BYTE PTR [ebx-0x23ffb200],ah
  402421:	add    BYTE PTR [eax+eax*1+0xa80018],ah
  402428:	pop    ecx
  402429:	add    BYTE PTR [ebx+0x0],ch
  40242c:	aaa    
  40242d:	add    BYTE PTR [edi],al
  40242f:	add    BYTE PTR [esi],ch
  402431:	add    BYTE PTR [edi],bl
  402433:	add    BYTE PTR [ecx],bh
  402435:	add    BYTE PTR [eax],dl
  402437:	add    BYTE PTR [eax+eax*1+0x9200de],bh
  40243e:	in     al,0x0
  402440:	test   eax,0x8000f00
  402445:	add    bl,cl
  402447:	add    BYTE PTR [edi],ch
  402449:	add    BYTE PTR [ecx+0x0],ah
  40244c:	xchg   DWORD PTR [eax],eax
  40244e:	mov    cl,0x0
  402450:	xor    eax,0x57008d00
  402455:	add    BYTE PTR [eax+0xb00d900],bl
  40245b:	add    BYTE PTR [edx-0x1ff4000],dh
  402461:	add    BYTE PTR [edx+0x0],dl
  402464:	dec    ecx
  402465:	add    BYTE PTR [ecx+0x0],ch
  402468:	fild   DWORD PTR [eax]
  40246a:	pop    ebx
  40246b:	add    BYTE PTR [esi-0x4cffb300],dl
  402471:	add    BYTE PTR [esi+0x0],dl
  402474:	rol    BYTE PTR [eax],1
  402476:	jl     0x402478
  402478:	rol    DWORD PTR [eax],cl
  40247a:	push   ds
  40247b:	add    BYTE PTR [edx+0x0],al
  40247e:	mov    esi,0x2800d000
  402483:	add    BYTE PTR [eax-0x22ff0300],bl
  402489:	add    BYTE PTR ds:0xa0003200,cl
  40248f:	add    BYTE PTR [ebp-0x30ff4c00],ah
  402495:	add    BYTE PTR [edi],dh
  402497:	add    BYTE PTR [ecx+0x0],bl
  40249a:	add    eax,DWORD PTR [eax]
  40249c:	push   edx
  40249d:	add    BYTE PTR [edi+0x0],ch
  4024a0:	inc    edx
  4024a1:	add    al,bl
  4024a3:	add    BYTE PTR [eax],ch
  4024a5:	add    BYTE PTR [eax],ch
  4024a7:	add    BYTE PTR [ebx-0xeff1000],ch
  4024ad:	add    BYTE PTR [esi],cl
  4024af:	add    BYTE PTR [eax+eax*1+0x5],dh
  4024b3:	add    BYTE PTR ds:0x63007c00,dh
  4024b9:	add    ah,bh
  4024bb:	add    BYTE PTR [ecx],cl
  4024bd:	add    BYTE PTR [ecx+0x0],cl
  4024c0:	xchg   esp,eax
  4024c1:	add    ch,bh
  4024c3:	add    al,ch
  4024c5:	add    dl,ch
  4024c7:	add    BYTE PTR [eax+0x33008200],bl
  4024cd:	add    dh,bl
  4024cf:	add    BYTE PTR [esi],ch
  4024d1:	add    BYTE PTR [esi+0x0],cl
  4024d4:	add    BYTE PTR ss:[eax],dl
  4024d7:	add    BYTE PTR [eax],bl
  4024d9:	add    BYTE PTR [eax+eax*1+0xd],bl
  4024dd:	add    BYTE PTR [ecx-0x5fff6a00],dh
  4024e3:	add    BYTE PTR [edi+0x700a600],ah
  4024e9:	add    BYTE PTR [edx],ah
  4024eb:	add    BYTE PTR [edi+0x1400aa00],bh
  4024f1:	add    BYTE PTR [ecx],dh
  4024f3:	add    BYTE PTR [ecx-0x22ffaf00],bl
  4024f9:	add    BYTE PTR [esi-0x64ffbf00],dl
  4024ff:	add    BYTE PTR [edx+0x0],bl
  402502:	jae    0x402504
  402504:	push   eax
  402505:	add    BYTE PTR [eax],al
  402507:	add    BYTE PTR [ebx],cl
  402509:	add    BYTE PTR [eax+eax*1+0xef000c],cl
  402510:	enter  0xd900,0x0
  402514:	mov    al,0x0
  402516:	lds    eax,FWORD PTR [eax]
  402518:	out    dx,al
  402519:	add    BYTE PTR [ecx+0x0],dl
  40251c:	dec    eax
  40251d:	add    BYTE PTR [ecx+0x78008400],ah
  402523:	add    BYTE PTR [eax+0x0],bh
  402526:	dec    edi
  402527:	add    BYTE PTR [esi-0x74ff6300],bh
  40252d:	add    BYTE PTR [edx+0x0],ch
  402530:	fiadd  DWORD PTR [eax]
  402532:	cld    
  402533:	add    BYTE PTR [esi],cl
  402535:	add    BYTE PTR [eax+eax*1+0x42],dl
  402539:	add    BYTE PTR [esi],al
  40253b:	add    bh,dl
  40253d:	add    ch,dl
  40253f:	add    BYTE PTR [ebx-0x24ffab00],ah
  402545:	add    ah,ch
  402547:	add    BYTE PTR [eax+0x0],dh
  40254a:	pop    ds
  40254b:	add    bh,dl
  40254d:	add    BYTE PTR ds:0xe100e100,bh
  402553:	add    BYTE PTR [ecx],ch
  402555:	add    BYTE PTR [eax+eax*1+0x8b00c5],al
  40255c:	inc    BYTE PTR [eax]
  40255e:	cmp    al,0x0
  402560:	mov    ah,0x0
  402562:	pop    ebp
  402563:	add    BYTE PTR [edi-0x2ffffc00],ch
  402569:	add    BYTE PTR [ebp+0x0],ah
  40256c:	mov    ebx,0xc0009900
  402571:	add    BYTE PTR [ebp+0x0],ch
  402574:	and    eax,DWORD PTR [eax]
  402576:	xchg   ecx,eax
  402577:	add    BYTE PTR [eax-0x58ffa300],al
  40257d:	add    BYTE PTR [eax-0x27ff0200],bh
  402583:	add    ch,bl
  402585:	add    BYTE PTR [ebx],al
  402587:	add    BYTE PTR [ecx],ah
  402589:	add    cl,ch
  40258b:	add    BYTE PTR [ecx],al
  40258d:	add    BYTE PTR [esi+0x0],bh
  402590:	xchg   ebp,eax
  402591:	add    dl,ah
  402593:	add    BYTE PTR ds:0x41002500,bh
  402599:	add    BYTE PTR [ebx+0x0],dh
  40259c:	mov    ds:0x83002e00,al
  4025a1:	mov    bl,0x16
  4025a3:	je     0x402583
  4025a5:	daa    
  4025a6:	and    bh,BYTE PTR [esi+edi*1]
  4025a9:	mov    ecx,0x2f2638fe
  4025ae:	xor    DWORD PTR [esi+edx*2+0x7d],ebx
  4025b2:	add    BYTE PTR [edi-0x1f7c03b5],cl
  4025b8:	loop   0x4025cc
  4025ba:	sbb    DWORD PTR [ebx],edx
  4025bc:	imul   esp,DWORD PTR [esi+0x69],0x5561ebf9
  4025c3:	mov    BYTE PTR [ebp+0x6ce1eb96],bh
  4025c9:	scas   al,BYTE PTR es:[edi]
  4025ca:	jns    0x4025b5
  4025cc:	outs   dx,BYTE PTR ds:[esi]
  4025cd:	cmps   BYTE PTR ds:[esi],BYTE PTR es:[edi]
  4025ce:	std    
  4025cf:	xchg   ecx,eax
  4025d0:	dec    edx
  4025d1:	jle    0x4025e4
  4025d3:	mov    DWORD PTR [edx+0x3e],eax
  4025d6:	inc    ecx
  4025d7:	pop    ebx
  4025d8:	pop    ebp
  4025d9:	mov    fs,ebx
  4025db:	cdq    
  4025dc:	dec    esi
  4025dd:	xchg   bh,bl
  4025df:	icebp  
  4025e0:	movs   BYTE PTR es:[edi],BYTE PTR ds:[esi]
  4025e1:	or     al,0x33
  4025e3:	test   eax,0xbca2a0a6
  4025e8:	cmps   BYTE PTR ds:[esi],BYTE PTR es:[edi]
  4025e9:	mov    eax,0x8b6b4ba
  4025ee:	popf   
  4025ef:	movs   BYTE PTR es:[edi],BYTE PTR ds:[esi]
  4025f0:	pop    ss
  4025f1:	dec    edi
  4025f2:	rcl    BYTE PTR [ecx],0xcb
  4025f5:	xor    BYTE PTR ds:0x9d02d984,al
  4025fb:	xchg   ebp,eax
  4025fc:	pop    ebp
  4025fd:	into   
  4025fe:	retf   
  4025ff:	es and al,0x21
  402602:	push   edi
  402603:	pop    edi
  402604:	imul   esp,DWORD PTR [esp+ebp*8-0x9c278ad],0xb825fdba
  40260f:	adc    ecx,edi
  402611:	es nop
  402613:	or     ecx,eax
  402615:	xor    al,0x4d
  402617:	and    edx,ebx
  402619:	or     ebp,DWORD PTR [esi+edx*1-0x92a679f]
  402620:	mov    cl,0xe9
  402622:	sub    al,0xaf
  402624:	pop    ss
  402625:	stos   DWORD PTR es:[edi],eax
  402626:	jmp    0xc07f:0x13c3083f
  40262d:	dec    ebx
  40262e:	ins    BYTE PTR es:[edi],dx
  40262f:	sub    eax,DWORD PTR [ebx+0x401d94f1]
  402635:	pop    edi
  402636:	add    edx,DWORD PTR [ecx+0x57f3a300]
  40263c:	mov    al,ds:0x70cb4c2b
  402641:	fld    QWORD PTR [edx-0x19]
  402644:	daa    
  402645:	(bad)  
  402646:	in     eax,0x3d
  402648:	xchg   edx,eax
  402649:	add    ecx,DWORD PTR [ebx-0x1]
  40264c:	test   ch,dh
  40264e:	cmp    ecx,eax
  402650:	pop    esi
  402651:	mov    edi,edx
  402653:	leave  
  402654:	or     dl,cl
  402656:	inc    ecx
  402657:	pop    ebx
  402658:	call   0x98ad08cf
  40265d:	nop
  40265e:	fwait
  40265f:	and    DWORD PTR [ebp+0x31a80033],esp
  402665:	cmps   BYTE PTR ds:[esi],BYTE PTR es:[edi]
  402666:	sub    eax,0x36814384
  40266b:	(bad)  
  40266c:	idiv   DWORD PTR ds:0x87184e37
  402672:	mov    DWORD PTR [edi-0x3865f59f],esi
  402678:	js     0x40269a
  40267a:	mov    dl,0xd4
  40267c:	fild   WORD PTR ds:0xaa737986
  402682:	je     0x402667
  402684:	in     eax,0x6b
  402686:	aaa    
  402687:	add    al,0x50
  402689:	test   edx,0x7d4b5453
  40268f:	mov    cl,0x2b
  402691:	mov    cl,dh
  402693:	(bad)  
  402694:	sti    
  402695:	push   ds
  402696:	ss mov esp,ebx
  402699:	fcomp  st(2)
  40269b:	(bad)  
  40269d:	rcl    dl,1
  40269f:	sbb    BYTE PTR [esi],ch
  4026a1:	sub    BYTE PTR [edx],ch
  4026a3:	shr    DWORD PTR [ebx],cl
  4026a5:	and    BYTE PTR [edx],ah
  4026a7:	cmp    al,0x3e
  4026a9:	cmp    BYTE PTR [edx],bh
  4026ab:	xchg   ecx,eax
  4026ac:	leave  
  4026ad:	and    al,0xbb
  4026af:	fsubr  DWORD PTR [edx]
  4026b1:	add    al,0x11
  4026b3:	or     esp,DWORD PTR [ecx+0x5e]
  4026b6:	popa   
  4026b7:	mov    cl,0x9b
  4026b9:	sbb    BYTE PTR [ebp-0x24],dl
  4026bc:	cmps   DWORD PTR ds:[esi],DWORD PTR es:[edi]
  4026bd:	fstp   TBYTE PTR [esi-0x1]
  4026c0:	jnp    0x402662
  4026c2:	jb     0x402730
  4026c4:	outs   dx,BYTE PTR ds:[esi]
  4026c5:	icebp  
  4026c6:	scas   eax,DWORD PTR es:[edi]
  4026c7:	adc    BYTE PTR [ecx],0xdd
  4026ca:	jle    0x4026d3
  4026cc:	fld    DWORD PTR [ebp+eax*1+0x6ddb62af]
  4026d3:	xlat   BYTE PTR ds:[ebx]
  4026d4:	imul   edx,ebx,0xbdef7ca5
  4026da:	pop    edx
  4026db:	out    0x64,eax
  4026dd:	jecxz  0x40274f
  4026df:	aas    
  4026e0:	or     ah,ch
  4026e2:	mov    ch,0xc2
  4026e4:	cmp    edx,esi
  4026e6:	and    cl,BYTE PTR [ebp+0x13]
  4026e9:	pop    eax
  4026ea:	dec    ebp
  4026eb:	push   es
  4026ec:	cmp    al,BYTE PTR [ecx+0x7]
  4026ef:	xor    BYTE PTR [ecx],ah
  4026f1:	in     eax,0x2a
  4026f3:	(bad)  
  4026f4:	pop    esi
  4026f5:	dec    esi
  4026f6:	iret   
  4026f7:	dec    ebx
  4026f8:	in     eax,dx
  4026f9:	out    0x42,ax
  4026fc:	fistp  WORD PTR [esi-0x21]
  4026ff:	cdq    
  402700:	inc    esi
  402701:	jnp    0x402737
  402703:	add    al,0x36
  402705:	imul   esp,edx,0x4
  402708:	js     0x402769
  40270a:	lea    esi,[esi+0x1e]
  40270d:	sti    
  40270e:	cmp    BYTE PTR [edi-0x62],bl
  402711:	xchg   ecx,eax
  402712:	mov    bl,0xce
  402714:	rol    ecx,1
  402716:	push   ebp
  402717:	xor    esi,edx
  402719:	jecxz  0x40270b
  40271b:	data16 daa 
  40271d:	fist   DWORD PTR [ecx+eax*4]
  402720:	(bad)  [ebp+0x347db772]
  402726:	sub    eax,0x4989d052
  40272b:	jbe    0x4026b8
  40272d:	fisubr WORD PTR [edi+0x1e5fa147]
  402733:	nop    DWORD PTR [edx-0x388ca1ed]
  40273a:	xchg   edi,eax
  40273b:	inc    ebx
  40273c:	test   eax,0x84773e62
  402741:	sti    
  402742:	dec    edx
  402743:	outs   dx,DWORD PTR ds:[esi]
  402744:	dec    ecx
  402745:	imul   esi,DWORD PTR ds:0xe88911ea,0xffffffff
  40274c:	aas    
  40274d:	jnp    0x402754
  40274f:	cmps   BYTE PTR ds:[esi],BYTE PTR es:[edi]
  402750:	jb     0x4027a5
  402752:	push   0xb11055b
  402757:	inc    ebp
  402758:	push   0x98e73363
  40275d:	pop    ebx
  40275e:	cwde   
  40275f:	cmp    eax,0xf4b89bb1
  402764:	xor    DWORD PTR [eax-0x7998c657],esp
  40276a:	inc    edi
  40276b:	shl    DWORD PTR [edx+0x5cddb9b7],1
  402771:	adc    eax,0x878d80a8
  402776:	std    
  402777:	push   0x2b
  402779:	mov    bh,0x96
  40277b:	fwait
  40277c:	popf   
  40277d:	fisub  DWORD PTR [eax+0x79]
  402780:	push   cs
  402781:	in     al,0xf1
  402783:	jmp    0x4027d4
  402785:	scas   al,BYTE PTR es:[edi]
  402786:	outs   dx,DWORD PTR ds:[esi]
  402787:	sbb    eax,0x6001fffa
  40278c:	les    edi,FWORD PTR [ebp+0x14]
  40278f:	enter  0xcfd5,0x25
  402793:	xchg   edx,eax
  402794:	push   ebx
  402795:	jecxz  0x402755
  402797:	jecxz  0x40277e
  402799:	push   esp
  40279a:	test   al,0x61
  40279c:	cli    
  40279d:	int3   
  40279e:	fnstenv [ebx]
  4027a0:	test   al,0xf6
  4027a2:	mov    bh,0x49
  4027a4:	and    ah,BYTE PTR [edi]
  4027a6:	sub    DWORD PTR [ebp+0x3060c50c],ebp
  4027ac:	cmp    eax,0x9bdaa837
  4027b1:	das    
  4027b2:	push   es
  4027b3:	or     ecx,DWORD PTR ds:0x46a9d06f
  4027b9:	adc    al,0x21
  4027bb:	sbb    ebp,DWORD PTR [esi-0x22]
  4027be:	lahf   
  4027bf:	xchg   ebp,eax
  4027c0:	push   0x6f
  4027c2:	jno    0x4027a4
  4027c4:	xor    al,0xed
  4027c6:	mov    WORD PTR [eax-0x7b],?
  4027c9:	jg     0x4027bf
  4027cb:	inc    edx
  4027cc:	add    ebx,DWORD PTR [ebx-0x58aaac92]
  4027d2:	sbb    cl,dl
  4027d4:	jb     0x402812
  4027d6:	dec    ecx
  4027d7:	arpl   WORD PTR [esi-0x13],sp
  4027da:	out    0x71,eax
  4027dc:	push   edx
  4027dd:	push   edi
  4027de:	pop    ecx
  4027df:	add    al,0x41
  4027e1:	mov    dh,0x2
  4027e3:	stos   DWORD PTR es:[edi],eax
  4027e4:	xor    DWORD PTR [ecx],0xc030b8ef
  4027ea:	sub    al,0xbc
  4027ec:	mov    ebp,0x4ca3ae0d
  4027f1:	aam    0xb6
  4027f3:	jns    0x4027bf
  4027f5:	xchg   esi,edi
  4027f7:	leave  
  4027f8:	sub    DWORD PTR [esp+ebp*4-0xd],esp
  4027fc:	out    dx,al
  4027fd:	into   
  4027fe:	and    ebx,DWORD PTR [ecx-0x1c]
  402801:	es icebp 
  402803:	popa   
  402804:	out    0x1e,al
  402806:	jne    0x402851
  402808:	add    dh,BYTE PTR [esi]
  40280a:	leave  
  40280b:	inc    ecx
  40280c:	cli    
  40280d:	idiv   cl
  40280f:	rcl    ebp,cl
  402811:	push   es
  402812:	pop    ebx
  402813:	adc    esi,eax
  402815:	(bad)  
  402816:	push   edi
  402817:	sub    esp,ebx
  402819:	fbstp  TBYTE PTR [edx+0x5f9ec5db]
  40281f:	mov    esp,0x7f312f34
  402824:	hlt    
  402825:	lods   eax,DWORD PTR ds:[esi]
  402826:	mov    bl,0x42
  402828:	inc    ebp
  402829:	aas    
  40282a:	scas   al,BYTE PTR es:[edi]
  40282b:	add    al,bl
  40282d:	ret    0x1338
  402830:	adc    eax,0x9991d875
  402835:	push   es
  402836:	or     DWORD PTR [ebx],esp
  402838:	mov    esp,esi
  40283a:	cmps   DWORD PTR ds:[esi],DWORD PTR es:[edi]
  40283b:	test   al,0x1c
  40283d:	pop    ss
  40283e:	sbb    esp,esp
  402840:	cmp    al,0xf5
  402842:	jmp    FWORD PTR [edx+0x6d]
  402845:	scas   eax,DWORD PTR es:[di]
  402847:	dec    edx
  402848:	or     ecx,DWORD PTR [esi]
  40284a:	cmp    BYTE PTR [ebx+0x7d],0xf0
  40284e:	inc    eax
  40284f:	fxam   
  402851:	dec    esi
  402852:	push   ecx
  402853:	dec    ebx
  402854:	dec    esi
  402855:	aad    0xcf
  402857:	in     al,dx
  402858:	fs pop edi
  40285a:	popa   
  40285b:	lods   al,BYTE PTR ds:[esi]
  40285c:	jmp    0x89f3d2bf
  402861:	cmp    edi,esi
  402863:	pushf  
  402864:	sbb    BYTE PTR [eax+0x15c5c414],ch
  40286a:	mov    dl,0xcb
  40286c:	je     0x40286a
  40286e:	fiadd  WORD PTR [edx-0x6cf9702e]
  402874:	inc    esi
  402875:	mov    BYTE PTR [edx+0x729fa6a4],cl
  40287b:	bound  esp,QWORD PTR [ebx]
  40287d:	(bad)  
  40287e:	cwde   
  40287f:	repz cmc 
  402881:	aaa    
  402882:	mov    eax,0xe9e65571
  402887:	add    ebp,DWORD PTR [ebx-0x3a]
  40288a:	xchg   DWORD PTR [esp+edi*8-0x9],esp
  40288e:	stc    
  40288f:	dec    eax
  402890:	pushf  
  402891:	push   ebp
  402892:	cmp    ecx,edx
  402894:	int    0xc7
  402896:	pop    ss
  402897:	stos   BYTE PTR es:[edi],al
  402898:	imul   ecx,DWORD PTR [edx-0x20],0xffffffdb
  40289c:	fld    QWORD PTR [edi-0x60]
  40289f:	mov    ecx,0x2b312ea1
  4028a4:	xchg   edx,eax
  4028a5:	out    dx,al
  4028a6:	scas   eax,DWORD PTR es:[edi]
  4028a7:	mov    al,0x44
  4028a9:	aas    
  4028aa:	inc    ecx
  4028ab:	mov    cl,0x4
  4028ad:	mov    ebp,0xf1512a7
  4028b2:	jle    0x402886
  4028b4:	xchg   ebx,eax
  4028b5:	jbe    0x4028bf
  4028b7:	and    esp,DWORD PTR ds:0x8da1e885
  4028bd:	push   ss
  4028be:	sbb    DWORD PTR [ebx-0x42],esi
  4028c1:	ss neg esp
  4028c4:	ins    BYTE PTR es:[edi],dx
  4028c5:	addr16 imul esp,ebp,0x7af3054c
  4028cc:	jge    0x402945
  4028ce:	call   0x510303ed
  4028d3:	dec    ebx
  4028d4:	dec    ebp
  4028d5:	lods   al,BYTE PTR ds:[esi]
  4028d6:	adc    cl,ch
  4028d8:	fstp   DWORD PTR [esi+0x61]
  4028db:	pop    ebx
  4028dc:	retf   0xdf1e
  4028df:	sub    BYTE PTR [edi+ebp*4+0x2d7411b1],dh
  4028e6:	pop    ds
  4028e7:	ret    0xbfc5
  4028ea:	add    eax,DWORD PTR [edx-0x6c47d1bd]
  4028f0:	xchg   ebp,eax
  4028f1:	nop
  4028f2:	pop    eax
  4028f3:	adc    esi,esp
  4028f5:	xchg   BYTE PTR [ecx+0x2766eca3],cl
  4028fb:	cmc    
  4028fc:	pushf  
  4028fd:	xchg   edi,eax
  4028fe:	cdq    
  4028ff:	pop    ebp
  402900:	mov    esp,0xedea4c75
  402905:	out    0x58,eax
  402907:	retf   0x5b8b
  40290a:	add    bl,bh
  40290c:	std    
  40290d:	pop    esp
  40290e:	rcr    BYTE PTR [ecx+0x32],0xce
  402912:	ror    ebx,1
  402914:	and    BYTE PTR [esi-0x201bbeb1],cl
  40291a:	loope  0x40295d
  40291c:	movs   BYTE PTR es:[edi],BYTE PTR ds:[esi]
  40291d:	pop    ebp
  40291e:	cmp    BYTE PTR [edx],dh
  402920:	xor    eax,0xb3f2a52f
  402925:	xchg   DWORD PTR [eax],ebp
  402927:	inc    ebx
  402928:	inc    ebp
  402929:	scas   eax,DWORD PTR es:[edi]
  40292a:	or     cl,al
  40292c:	sahf   
  40292d:	cmp    DWORD PTR ss:[ebx],edx
  402930:	mov    edx,esi
  402932:	xchg   edi,eax
  402933:	ins    DWORD PTR es:[edi],dx
  402934:	or     al,0x7
  402936:	or     DWORD PTR [esi+0x1a84a5ec],edx
  40293c:	sbb    eax,0xfb3a7d17
  402941:	shl    DWORD PTR [eax+0x6b],cl
  402944:	ins    DWORD PTR es:[edi],dx
  402945:	int    0x30
  402947:	or     edx,ebp
  402949:	jle    0x4028cc
  40294b:	jnp    0x40290c
  40294d:	ds (bad) 
  40294f:	mov    ecx,0x4c514f54
  402954:	adc    al,0xcd
  402956:	xchg   ebx,eax
  402957:	bound  esp,QWORD PTR [ebp+0x5f]
  40295a:	mov    ch,0x22
  40295c:	jecxz  0x402900
  40295e:	pop    eax
  40295f:	mov    bl,0xb5
  402961:	sbb    DWORD PTR [eax+0x31],edi
  402964:	stc    
  402965:	cmps   BYTE PTR ds:[esi],BYTE PTR es:[edi]
  402966:	test   eax,0x478640c3
  40296b:	or     BYTE PTR [edi+esi*4+0x155cf9b9],bh
  402972:	fisttp WORD PTR [edx+0x6af9878d]
  402978:	sub    ebp,esi
  40297a:	mov    al,ds:0x60fe9d9b
  40297f:	jns    0x4029c6
  402981:	out    dx,al
  402982:	icebp  
  402983:	jmp    0x4029c5
  402985:	scas   al,BYTE PTR es:[edi]
  402986:	outs   dx,DWORD PTR ds:[esi]
  402987:	push   esp
  402988:	add    al,0xff
  40298a:	add    DWORD PTR [ecx-0x3c],esp
  40298d:	jge    0x4029da
  40298f:	rcl    ch,cl
  402991:	iret   
  402992:	inc    ebp
  402993:	xchg   edx,eax
  402994:	push   ebx
  402995:	sbb    cl,al
  402997:	jecxz  0x40297e
  402999:	dec    edi
  40299a:	test   al,0x61
  40299c:	xor    esi,edx
  40299e:	fnstenv [ebx]
  4029a0:	stos   DWORD PTR es:[edi],eax
  4029a1:	div    BYTE PTR [edi+0x29272c80]
  4029a7:	mov    dh,0xc
  4029a9:	lds    edx,FWORD PTR [edi-0x62c8c2c6]
  4029af:	ficomp DWORD PTR [ebx+0xd0b1066]
  4029b5:	ins    DWORD PTR es:[edi],dx
  4029b6:	shr    BYTE PTR [ecx+0x1b211e7d],1
  4029bc:	push   ds
  4029bd:	ficomp WORD PTR [edi+0x716f74b0]
  4029c3:	mov    eax,0x82a7ed34
  4029c8:	test   DWORD PTR [edi-0xf],edi
  4029cb:	inc    edx
  4029cc:	add    esi,DWORD PTR [esi-0x4eaaac88]
  4029d2:	sbb    cl,dl
  4029d4:	lea    eax,[esi+0x49]
  4029d7:	arpl   dx,cx
  4029d9:	es out 0x9c,eax
  4029dc:	pop    esp
  4029dd:	push   edi
  4029de:	pop    ecx
  4029df:	push   es
  4029e0:	jl     0x402a17
  4029e2:	rep stos BYTE PTR es:[edi],al
  4029e4:	lods   eax,DWORD PTR ds:[esi]
  4029e5:	cmps   DWORD PTR ds:[esi],DWORD PTR es:[edi]
  4029e6:	jp     0xbc002c37
  4029ec:	mov    ebp,0xd919802b
  4029f1:	mov    ss,WORD PTR [ecx+0xf4efd8b]
  4029f7:	call   0x11e1c9a0
  4029fc:	fs sbb eax,0xeff5f2df
  402a02:	fs mov dl,0x73
  402a05:	cs call 0xc8a32f0e
  402a0b:	add    DWORD PTR [ebp-0xa],0x963bd3f9
  402a12:	push   edi
  402a13:	adc    al,0xcc
  402a15:	(bad)  
  402a16:	leave  
  402a17:	in     al,0xac
  402a19:	gs adc edx,ebx
  402a1c:	fst    st(7)
  402a1e:	es cli 
  402a20:	mov    ebx,0x2d2b3060
  402a25:	xchg   edi,eax
  402a26:	lock leave 
  402a28:	ja     0x402a68
  402a2a:	inc    ecx
  402a2b:	cmp    esp,DWORD PTR [ecx+0x1446bffe]
  402a31:	movups XMMWORD PTR [edi-0x2c],xmm6
  402a35:	lea    edi,ds:0x741f2522
  402a3b:	loop   0x4029e0
  402a3d:	dec    esp
  402a3e:	sbb    BYTE PTR [ebx+0x75],dh
  402a41:	aad    0x38
  402a43:	icebp  
  402a44:	mov    ds:0xf9836966,eax
  402a49:	inc    esi
  402a4a:	pop    es
  402a4b:	mov    dl,0x7c
  402a4d:	ja     0x402ac8
  402a4f:	ret    
  402a50:	sbb    al,0xd5
  402a52:	mov    DWORD PTR [edx+0x4d],ecx
  402a55:	inc    edi
  402a56:	mov    edi,0x6098eb2a
  402a5b:	pop    ebx
  402a5c:	pop    ebp
  402a5d:	retf   0x3920
  402a60:	out    dx,eax
  402a61:	scas   al,BYTE PTR es:[edi]
  402a62:	mov    cl,0xab
  402a64:	adc    DWORD PTR [esi+0x2f],ebp
  402a67:	inc    ah
  402a69:	mov    edi,0x3d8421c1
  402a6e:	cmc    
  402a6f:	xchg   edx,eax
  402a70:	xchg   ebp,eax
  402a71:	(bad)  
  402a72:	xchg   edx,eax
  402a73:	push   edx
  402a74:	adc    ecx,DWORD PTR [ecx-0x95a5c78]
  402a7a:	push   0x9996a021
  402a7f:	repz pop edi
  402a81:	mov    dh,0x77
  402a83:	out    dx,eax
  402a84:	in     al,dx
  402a85:	out    0xe9,eax
  402a87:	jbe    0x402a55
  402a89:	test   DWORD PTR [esi],eax
  402a8b:	cli    
  402a8c:	std    
  402a8d:	imul   DWORD PTR [esi-0x66]
  402a90:	pop    ebx
  402a91:	aad    0xd0
  402a93:	retf   
  402a94:	int    0x3d
  402a96:	nop
  402a97:	imul   ebp,esp,0x3fdbe1de
  402a9d:	sahf   
  402a9e:	pop    edi
  402a9f:	cmp    esi,DWORD PTR [edi+ebp*1]
  402aa2:	xor    DWORD PTR [eax+0x4232adf4],ebx
  402aa8:	inc    ebp
  402aa9:	aas    
  402aaa:	add    DWORD PTR [edx],0xffffffc3
  402aad:	inc    ecx
  402aae:	cmp    BYTE PTR [ebx],dl
  402ab0:	adc    eax,0x1891d87c
  402ab5:	push   es
  402ab6:	or     DWORD PTR [ebx],esp
  402ab8:	xchg   edx,eax
  402ab9:	out    0xa7,al
  402abb:	daa    
  402abc:	sbb    al,0x17
  402abe:	sbb    ebx,esp
  402ac0:	cmp    al,0xf5
  402ac2:	jle    0x402b2e
  402ac4:	ins    DWORD PTR es:[edi],dx
  402ac5:	addr16 int 0x4a
  402ac8:	or     ecx,DWORD PTR [ebp+0x787d7b80]
  402ace:	pop    es
  402acf:	fld    DWORD PTR [ebp-0x61b4aeb2]
  402ad5:	rcl    DWORD PTR [eax-0x4c],cl
  402ad8:	gs xor ebp,ebx
  402adb:	mov    eax,ds:0xfddfe52a
  402ae0:	mov    ah,0xaf
  402ae2:	mov    cl,0xfc
  402ae4:	cmp    DWORD PTR [esi+0x4999c3fa],ebp
  402aea:	pop    es
  402aeb:	nop
  402aec:	dec    ebx
  402aed:	cmp    eax,0x8f9592f6
  402af2:	loop   0x402b0b
  402af4:	xchg   esp,eax
  402af5:	fmul   DWORD PTR [ecx+0x72e52f77]
  402afb:	sub    DWORD PTR [ebx],esp
  402afd:	(bad)  
  402afe:	cwde   
  402aff:	repz cmc 
  402b01:	inc    eax
  402b02:	jge    0x402af6
  402b04:	ds out 0xbd,eax
  402b07:	(bad)  
  402b08:	int    0x8d
  402b0a:	xchg   DWORD PTR [esp+edi*8-0x9],edx
  402b0e:	stc    
  402b0f:	and    al,0x61
  402b11:	(bad)  
  402b12:	and    cl,bl
  402b14:	mov    eax,ds:0x73bc0f51
  402b19:	gs jecxz 0x402af6
  402b1c:	fst    st(7)
  402b1e:	sub    bh,BYTE PTR [edi-0xce7fc4]
  402b24:	mov    bh,0x6d
  402b26:	repnz scas al,BYTE PTR es:[edi]
  402b28:	inc    esi
  402b29:	aas    
  402b2a:	sbb    ebp,eax
  402b2c:	ret    
  402b2d:	sar    BYTE PTR [eax],1
  402b2f:	adc    edx,DWORD PTR ds:0xe0c14ce
  402b35:	or     BYTE PTR [edi+ebp*1+0x7c],dh
  402b39:	stos   DWORD PTR es:[edi],eax
  402b3a:	cmps   DWORD PTR ds:[esi],DWORD PTR es:[edi]
  402b3b:	mov    ah,0x1c
  402b3d:	pop    ss
  402b3e:	sbb    esp,eax
  402b40:	jne    0x402b07
  402b42:	dec    edx
  402b43:	test   DWORD PTR [esi-0x45],0x7e1e09f5
  402b4a:	cmp    DWORD PTR [ebx-0x32],0xe128cf77
  402b51:	dec    eax
  402b52:	movs   DWORD PTR es:[edi],DWORD PTR ds:[esi]
  402b53:	xlat   BYTE PTR ds:[ebx]
  402b54:	shl    eax,cl
  402b56:	dec    eax
  402b57:	arpl   WORD PTR [ebp-0x50],sp
  402b5a:	popa   
  402b5b:	mov    cl,0x2e
  402b5d:	jecxz  0x402b91
  402b5f:	pop    es
  402b60:	mov    ch,0x5
  402b62:	jle    0x402b99
  402b64:	pause  
  402b66:	lock inc edi
  402b68:	lds    esp,FWORD PTR [eax+edi*1]
  402b6b:	xchg   BYTE PTR [esi-0x696b4548],ah
  402b71:	call   0x4ebafc91
  402b76:	mov    db4,ebp
  402b79:	lahf   
  402b7a:	mov    eax,ds:0x1add64de
  402b7f:	adc    eax,0x1f7335bc
  402b84:	and    DWORD PTR [eax-0x13a470d6],ebp
  402b8a:	add    eax,0xc8248cc
  402b8f:	push   cs
  402b90:	imul   ecx,DWORD PTR [edi-0x2f],0xffffffcb
  402b94:	int    0x3d
  402b96:	mov    ecx,0xe5cc3b6f
  402b9b:	lods   al,BYTE PTR ds:[esi]
  402b9c:	push   0xb68914ea
  402ba1:	movs   DWORD PTR es:[edi],DWORD PTR ds:[esi]
  402ba2:	adc    eax,0x2d1483b7
  402ba7:	adc    al,0x88
  402ba9:	retf   0x7654
  402bac:	xchg   ebx,eax
  402bad:	mov    ecx,0x5519eaaf
  402bb2:	(bad)  
  402bb3:	cdq    
  402bb4:	data16 or dh,BYTE PTR [esp+eiz*2-0x72]
  402bb9:	and    BYTE PTR [edx],dh
  402bbb:	sbb    al,0x1e
  402bbd:	mov    ds:0xdac6805d,eax
  402bc2:	jb     0x402c2f
  402bc4:	ret    
  402bc5:	xor    ch,dh
  402bc7:	push   esp
  402bc8:	mov    ecx,0x62c10b40
  402bcd:	add    edi,DWORD PTR [edi+0x3695593c]
  402bd3:	aad    0x93
  402bd5:	sub    ch,dl
  402bd7:	fld    DWORD PTR [esi-0x15]
  402bda:	movs   DWORD PTR es:[edi],DWORD PTR ds:[esi]
  402bdb:	push   0xf2d618e3
  402be0:	idiv   BYTE PTR [ecx]
  402be2:	aaa    
  402be3:	xor    BYTE PTR [edi+eiz*4+0x4b86f7a9],ch
  402bea:	nop
  402beb:	mov    edi,0x1cc34286
  402bf0:	mov    ds:0x8fd41f92,al
  402bf5:	mov    ebx,0xd3f7a8d5
  402bfa:	imul   esp,DWORD PTR [esi],0xffffffaa
  402bfd:	call   0xeefe:0x78c51ff9
  402c04:	jnp    0x402c36
  402c06:	jmp    0x402c3f
  402c08:	adc    DWORD PTR [ecx+0x35],edx
  402c0b:	lds    ecx,FWORD PTR [eax+0x133fc04]
  402c11:	lahf   
  402c12:	pop    edx
  402c13:	fcom   st(0)
  402c15:	or     cl,cl
  402c17:	jno    0x402c83
  402c19:	fsubrp st(1),st
  402c1b:	fist   DWORD PTR [ebx-0x5d]
  402c1e:	arpl   WORD PTR [ecx+0x71bf4e12],cx
  402c24:	or     dh,BYTE PTR [edi]
  402c26:	rol    DWORD PTR [ebx-0x45],cl
  402c29:	dec    eax
  402c2a:	cmps   DWORD PTR ds:[esi],DWORD PTR es:[edi]
  402c2b:	cmp    ecx,DWORD PTR [esi-0x69]
  402c2e:	cwde   
  402c2f:	outs   dx,DWORD PTR ds:[esi]
  402c30:	mov    eax,ds:0x12ce6ff5
  402c35:	or     BYTE PTR [edx+0x65534766],bl
  402c3b:	sbb    al,0x1e
  402c3d:	sbb    BYTE PTR [ecx-0x588f898c],ch
  402c43:	ins    BYTE PTR es:[edi],dx
  402c44:	outs   dx,BYTE PTR ds:[esi]
  402c45:	push   0x8087843f
  402c4a:	cmp    BYTE PTR [esi+edi*2+0x78],0x7c
  402c4f:	push   esp
  402c50:	push   esi
  402c51:	push   eax
  402c52:	cmp    DWORD PTR [edi+0x4e],0x67641f48
  402c59:	pusha  
  402c5a:	add    BYTE PTR [eax],al
  402c5c:	mov    edx,0x96000006
  402c61:	add    DWORD PTR [ecx],0x0
	...
  403987:	add    ah,cl
  403989:	int3   
  40398a:	int3   
  40398b:	int3   
  40398c:	int3   
  40398d:	int3   
  40398e:	int3   
  40398f:	int3   
  403990:	push   ebp
  403991:	mov    ebp,esp
  403993:	sub    esp,0x1a0
  403999:	push   ebx
  40399a:	push   esi
  40399b:	push   edi
  40399c:	mov    BYTE PTR [ebp-0x141],0x68
  4039a3:	mov    DWORD PTR [ebp-0x88],0x419900
  4039ad:	mov    DWORD PTR [ebp-0x18],0xea
  4039b4:	mov    DWORD PTR [ebp-0x7c],0x10
  4039bb:	mov    DWORD PTR [ebp-0x54],0x8
  4039c2:	mov    DWORD PTR [ebp-0x14],0xa
  4039c9:	fld    DWORD PTR ds:0x419a50
  4039cf:	fstp   DWORD PTR [ebp-0x34]
  4039d2:	mov    eax,0x58
  4039d7:	mov    WORD PTR [ebp-0x84],ax
  4039de:	sub    esp,0x8
  4039e1:	fld    QWORD PTR ds:0x419a48
  4039e7:	fstp   QWORD PTR [esp]
  4039ea:	call   0x405140
  4039ef:	add    esp,0x8
  4039f2:	fstp   QWORD PTR [ebp-0x60]
  4039f5:	sub    esp,0x8
  4039f8:	fld    QWORD PTR ds:0x419a40
  4039fe:	fstp   QWORD PTR [esp]
  403a01:	call   0x405140
  403a06:	add    esp,0x8
  403a09:	fstp   QWORD PTR [ebp-0x50]
  403a0c:	fld    QWORD PTR ds:0x419a38
  403a12:	fstp   QWORD PTR [ebp-0x28]
  403a15:	push   0x0
  403a17:	lea    ecx,[ebp-0x80]
  403a1a:	push   ecx
  403a1b:	push   0x0
  403a1d:	push   0x0
  403a1f:	call   0x404b10
  403a24:	add    esp,0x10
  403a27:	mov    DWORD PTR [ebp-0x80],eax
  403a2a:	push   0x0
  403a2c:	lea    edx,[ebp-0x80]
  403a2f:	push   edx
  403a30:	push   0x30000
  403a35:	push   0x20000
  403a3a:	call   0x404b10
  403a3f:	add    esp,0x10
  403a42:	mov    DWORD PTR [ebp-0x80],eax
  403a45:	push   0x0
  403a47:	lea    eax,[ebp-0x80]
  403a4a:	push   eax
  403a4b:	push   0x30000
  403a50:	push   0x9001f
  403a55:	call   0x404b10
  403a5a:	add    esp,0x10
  403a5d:	mov    DWORD PTR [ebp-0x80],eax
  403a60:	push   0x0
  403a62:	call   0x403e30
  403a67:	add    esp,0x4
  403a6a:	push   eax
  403a6b:	call   0x4049d0
  403a70:	add    esp,0x4
  403a73:	push   0x41990c
  403a78:	call   0x40490b
  403a7d:	add    esp,0x4
  403a80:	lea    ecx,[ebp-0x78]
  403a83:	push   ecx
  403a84:	call   0x403e30
  403a89:	add    esp,0x4
  403a8c:	mov    DWORD PTR [ebp-0x44],0x0
  403a93:	jmp    0x403a9e
  403a95:	mov    edx,DWORD PTR [ebp-0x44]
  403a98:	add    edx,0x1
  403a9b:	mov    DWORD PTR [ebp-0x44],edx
  403a9e:	cmp    DWORD PTR [ebp-0x44],0x64
  403aa2:	jge    0x403ab3
  403aa4:	push   0x419938
  403aa9:	call   0x40490b
  403aae:	add    esp,0x4
  403ab1:	jmp    0x403a95
  403ab3:	lea    eax,[ebp-0x10]
  403ab6:	push   eax
  403ab7:	call   0x403e30
  403abc:	add    esp,0x4
  403abf:	mov    ecx,DWORD PTR [ebp-0x74]
  403ac2:	push   ecx
  403ac3:	mov    edx,DWORD PTR [ebp-0x78]
  403ac6:	push   edx
  403ac7:	mov    eax,DWORD PTR [ebp-0xc]
  403aca:	push   eax
  403acb:	mov    ecx,DWORD PTR [ebp-0x10]
  403ace:	push   ecx
  403acf:	call   0x403dd0
  403ad4:	add    esp,0x10
  403ad7:	fstp   QWORD PTR [ebp-0x70]
  403ada:	sub    esp,0x8
  403add:	fld    QWORD PTR [ebp-0x70]
  403ae0:	fstp   QWORD PTR [esp]
  403ae3:	push   0x419948
  403ae8:	call   0x40490b
  403aed:	add    esp,0xc
  403af0:	push   0x419968
  403af5:	call   0x40490b
  403afa:	add    esp,0x4
  403afd:	mov    DWORD PTR [ebp-0x11c],0x7c
  403b07:	jmp    0x403b18
  403b09:	mov    edx,DWORD PTR [ebp-0x11c]
  403b0f:	add    edx,0x1
  403b12:	mov    DWORD PTR [ebp-0x11c],edx
  403b18:	cmp    DWORD PTR [ebp-0x11c],0x82
  403b22:	jg     0x403b26
  403b24:	jmp    0x403b09
  403b26:	lea    eax,[ebp-0x40]
  403b29:	push   eax
  403b2a:	call   0x403e30
  403b2f:	add    esp,0x4
  403b32:	push   0x419984
  403b37:	call   0x40490b
  403b3c:	add    esp,0x4
  403b3f:	xor    ecx,ecx
  403b41:	mov    WORD PTR [ebp-0x30],cx
  403b45:	jmp    0x403b53
  403b47:	mov    dx,WORD PTR [ebp-0x30]
  403b4b:	add    dx,0x1
  403b4f:	mov    WORD PTR [ebp-0x30],dx
  403b53:	movzx  eax,WORD PTR [ebp-0x30]
  403b57:	cmp    eax,0xff
  403b5c:	jg     0x403ba6
  403b5e:	movzx  ecx,WORD PTR [ebp-0x30]
  403b62:	push   ecx
  403b63:	call   0x4048f8
  403b68:	add    esp,0x4
  403b6b:	movzx  edx,ax
  403b6e:	push   edx
  403b6f:	movzx  eax,WORD PTR [ebp-0x30]
  403b73:	push   eax
  403b74:	push   0x419994
  403b79:	call   0x40490b
  403b7e:	add    esp,0xc
  403b81:	movzx  ecx,WORD PTR [ebp-0x30]
  403b85:	push   ecx
  403b86:	call   0x404830
  403b8b:	add    esp,0x4
  403b8e:	movzx  edx,ax
  403b91:	push   edx
  403b92:	movzx  eax,WORD PTR [ebp-0x30]
  403b96:	push   eax
  403b97:	push   0x4199b0
  403b9c:	call   0x40490b
  403ba1:	add    esp,0xc
  403ba4:	jmp    0x403b47
  403ba6:	mov    DWORD PTR [ebp-0x2c],0x0
  403bad:	fldz   
  403baf:	fstp   QWORD PTR [ebp-0xb0]
  403bb5:	mov    DWORD PTR [ebp-0x148],0x0
  403bbf:	jmp    0x403bd0
  403bc1:	mov    ecx,DWORD PTR [ebp-0x148]
  403bc7:	add    ecx,0x1
  403bca:	mov    DWORD PTR [ebp-0x148],ecx
  403bd0:	mov    edx,DWORD PTR [ebp-0x148]
  403bd6:	cmp    edx,DWORD PTR ds:0x402c5c
  403bdc:	je     0x403d01
  403be2:	mov    DWORD PTR [ebp-0x158],0x29a
  403bec:	mov    DWORD PTR [ebp-0x154],0x4d
  403bf6:	lea    eax,[ebp-0x170]
  403bfc:	push   eax
  403bfd:	call   0x403e30
  403c02:	add    esp,0x4
  403c05:	lea    ecx,[ebp-0x170]
  403c0b:	push   ecx
  403c0c:	call   0x403e10
  403c11:	add    esp,0x4
  403c14:	mov    DWORD PTR [ebp-0x150],eax
  403c1a:	mov    edx,DWORD PTR [ebp-0x148]
  403c20:	add    edx,0x1
  403c23:	xor    edx,DWORD PTR ds:0x402c60
  403c29:	mov    DWORD PTR [ebp-0x18c],edx
  403c2f:	fild   DWORD PTR [ebp-0x18c]
  403c35:	fstp   QWORD PTR [ebp-0xb0]
  403c3b:	mov    eax,DWORD PTR [ebp-0x158]
  403c41:	nop
  403c42:	nop
  403c43:	mov    ebx,DWORD PTR [ebp-0x154]
  403c49:	nop
  403c4a:	nop
  403c4b:	add    eax,ebx
  403c4d:	nop
  403c4e:	nop
  403c4f:	mov    DWORD PTR [ebp-0x14c],eax
  403c55:	mov    eax,DWORD PTR [ebp-0x148]
  403c5b:	mov    cl,BYTE PTR [eax+0x4025a0]
  403c61:	mov    BYTE PTR [ebp-0x99],cl
  403c67:	mov    edx,DWORD PTR [ebp-0x150]
  403c6d:	push   edx
  403c6e:	call   0x4046a8
  403c73:	add    esp,0x4
  403c76:	push   eax
  403c77:	push   0x4199c8
  403c7c:	call   0x40490b
  403c81:	add    esp,0x8
  403c84:	movsx  eax,BYTE PTR [ebp-0x99]
  403c8b:	mov    DWORD PTR [ebp-0x190],eax
  403c91:	fild   DWORD PTR [ebp-0x190]
  403c97:	sub    esp,0x8
  403c9a:	fld1   
  403c9c:	fstp   QWORD PTR [esp]
  403c9f:	sub    esp,0x8
  403ca2:	fld    QWORD PTR [ebp-0xb0]
  403ca8:	fstp   QWORD PTR [esp]
  403cab:	fstp   QWORD PTR [ebp-0x198]
  403cb1:	call   0x404250
  403cb6:	add    esp,0x10
  403cb9:	fmul   QWORD PTR ds:0x419a20
  403cbf:	fsubr  QWORD PTR [ebp-0x198]
  403cc5:	call   0x4052f0
  403cca:	mov    ecx,DWORD PTR ds:0x43b714
  403cd0:	add    ecx,DWORD PTR [ebp-0x148]
  403cd6:	mov    BYTE PTR [ecx],al
  403cd8:	fld    DWORD PTR ds:0x419a1c
  403cde:	fstp   DWORD PTR [ebp-0x164]
  403ce4:	push   ecx
  403ce5:	fld    DWORD PTR [ebp-0x164]
  403ceb:	fstp   DWORD PTR [esp]
  403cee:	call   0x403e50
  403cf3:	add    esp,0x4
  403cf6:	fstp   DWORD PTR [ebp-0x15c]
  403cfc:	jmp    0x403bc1
  403d01:	lea    edx,[ebp-0x98]
  403d07:	push   edx
  403d08:	call   0x403e30
  403d0d:	add    esp,0x4
  403d10:	mov    DWORD PTR [ebp-0x1a0],eax
  403d16:	mov    DWORD PTR [ebp-0x19c],edx
  403d1c:	mov    eax,DWORD PTR [ebp-0x1a0]
  403d22:	and    eax,DWORD PTR [ebp-0x19c]
  403d28:	cmp    eax,0xffffffff
  403d2b:	jne    0x403d3a
  403d2d:	push   0x4199ec
  403d32:	call   0x40490b
  403d37:	add    esp,0x4
  403d3a:	lea    ecx,[ebp-0x98]
  403d40:	push   ecx
  403d41:	call   0x403df0
  403d46:	add    esp,0x4
  403d49:	push   eax
  403d4a:	push   0x419a0c
  403d4f:	call   0x40490b
  403d54:	add    esp,0x8
  403d57:	push   0x50
  403d59:	push   0x4230f0
  403d5e:	push   0x423140
  403d63:	call   0x403ee0
  403d68:	add    esp,0xc
  403d6b:	mov    DWORD PTR [ebp-0x38],0xa2c2a
  403d72:	mov    DWORD PTR [ebp-0x58],0x927bf
  403d79:	add    eax,eax
  403d7b:	push   ebx
  403d7c:	push   ebx
  403d7d:	mov    esi,DWORD PTR [ebp-0x38]
  403d80:	mov    edi,DWORD PTR [ebp-0x58]
  403d83:	mov    esi,0x3b9ac9ff
  403d88:	mov    edi,0x34fb5e38
  403d8d:	or     esi,edi
  403d8f:	add    esi,edi
  403d91:	xor    esi,edi
  403d93:	mov    ebx,DWORD PTR [ebp+0x8]
  403d96:	sub    edx,eax
  403d98:	push   ebx
  403d99:	or     esi,edi
  403d9b:	mov    esi,0x3b9ac9ff
  403da0:	mov    edi,0x34fb5e38
  403da5:	or     esi,edi
  403da7:	xor    esi,edi
  403da9:	mov    eax,ds:0x43b714
  403dae:	sub    esi,edi
  403db0:	xor    esi,edi
  403db2:	mov    esi,0x3b9ac9ff
  403db7:	mov    edi,0x34fb5e38
  403dbc:	or     esi,edi
  403dbe:	push   ebx
  403dbf:	push   ebx
  403dc0:	call   eax
  403dc2:	xor    eax,eax
  403dc4:	pop    edi
  403dc5:	pop    esi
  403dc6:	pop    ebx
  403dc7:	mov    esp,ebp
  403dc9:	pop    ebp
  403dca:	ret    0x10
  403dcd:	int3   
  403dce:	int3   
  403dcf:	int3   
  403dd0:	push   ebp
  403dd1:	mov    ebp,esp
  403dd3:	mov    eax,DWORD PTR [ebp+0x14]
  403dd6:	push   eax
  403dd7:	mov    ecx,DWORD PTR [ebp+0x10]
  403dda:	push   ecx
  403ddb:	mov    edx,DWORD PTR [ebp+0xc]
  403dde:	push   edx
  403ddf:	mov    eax,DWORD PTR [ebp+0x8]
  403de2:	push   eax
  403de3:	call   0x40542b
  403de8:	add    esp,0x10
  403deb:	pop    ebp
  403dec:	ret    
  403ded:	int3   
  403dee:	int3   
  403def:	int3   
  403df0:	push   ebp
  403df1:	mov    ebp,esp
  403df3:	mov    eax,DWORD PTR [ebp+0x8]
  403df6:	push   eax
  403df7:	call   0x40546e
  403dfc:	add    esp,0x4
  403dff:	pop    ebp
  403e00:	ret    
  403e01:	int3   
  403e02:	int3   
  403e03:	int3   
  403e04:	int3   
  403e05:	int3   
  403e06:	int3   
  403e07:	int3   
  403e08:	int3   
  403e09:	int3   
  403e0a:	int3   
  403e0b:	int3   
  403e0c:	int3   
  403e0d:	int3   
  403e0e:	int3   
  403e0f:	int3   
  403e10:	push   ebp
  403e11:	mov    ebp,esp
  403e13:	mov    eax,DWORD PTR [ebp+0x8]
  403e16:	push   eax
  403e17:	call   0x405789
  403e1c:	add    esp,0x4
  403e1f:	pop    ebp
  403e20:	ret    
  403e21:	int3   
  403e22:	int3   
  403e23:	int3   
  403e24:	int3   
  403e25:	int3   
  403e26:	int3   
  403e27:	int3   
  403e28:	int3   
  403e29:	int3   
  403e2a:	int3   
  403e2b:	int3   
  403e2c:	int3   
  403e2d:	int3   
  403e2e:	int3   
  403e2f:	int3   
  403e30:	push   ebp
  403e31:	mov    ebp,esp
  403e33:	mov    eax,DWORD PTR [ebp+0x8]
  403e36:	push   eax
  403e37:	call   0x4057b0
  403e3c:	add    esp,0x4
  403e3f:	pop    ebp
  403e40:	ret    
  403e41:	int3   
  403e42:	int3   
  403e43:	int3   
  403e44:	int3   
  403e45:	int3   
  403e46:	int3   
  403e47:	int3   
  403e48:	int3   
  403e49:	int3   
  403e4a:	int3   
  403e4b:	int3   
  403e4c:	int3   
  403e4d:	int3   
  403e4e:	int3   
  403e4f:	int3   
  403e50:	push   ebp
  403e51:	mov    ebp,esp
  403e53:	push   ecx
  403e54:	fld    DWORD PTR [ebp+0x8]
  403e57:	fstp   DWORD PTR [esp]
  403e5a:	call   0x403e70
  403e5f:	add    esp,0x4
  403e62:	pop    ebp
  403e63:	ret    
  403e64:	int3   
  403e65:	int3   
  403e66:	int3   
  403e67:	int3   
  403e68:	int3   
  403e69:	int3   
  403e6a:	int3   
  403e6b:	int3   
  403e6c:	int3   
  403e6d:	int3   
  403e6e:	int3   
  403e6f:	int3   
  403e70:	push   ebp
  403e71:	mov    ebp,esp
  403e73:	push   ecx
  403e74:	fld    DWORD PTR [ebp+0x8]
  403e77:	sub    esp,0x8
  403e7a:	fstp   QWORD PTR [esp]
  403e7d:	call   0x4053a0
  403e82:	add    esp,0x8
  403e85:	fstp   DWORD PTR [ebp-0x4]
  403e88:	fld    DWORD PTR [ebp-0x4]
  403e8b:	mov    esp,ebp
  403e8d:	pop    ebp
  403e8e:	ret    
  403e8f:	int3   
  403e90:	push   ebp
  403e91:	mov    ebp,esp
  403e93:	push   0x10
  403e95:	mov    eax,DWORD PTR [ebp+0xc]
  403e98:	push   eax
  403e99:	mov    ecx,DWORD PTR [ebp+0x8]
  403e9c:	push   ecx
  403e9d:	call   0x405801
  403ea2:	add    esp,0xc
  403ea5:	neg    eax
  403ea7:	sbb    eax,eax
  403ea9:	add    eax,0x1
  403eac:	pop    ebp
  403ead:	ret    
  403eae:	jmp    DWORD PTR ds:0x419830
  403eb4:	jmp    DWORD PTR ds:0x419838
  403eba:	jmp    DWORD PTR ds:0x419834
  403ec0:	jmp    DWORD PTR ds:0x419840
  403ec6:	jmp    DWORD PTR ds:0x41984c
  403ecc:	jmp    DWORD PTR ds:0x419850
  403ed2:	jmp    DWORD PTR ds:0x419844
  403ed8:	jmp    DWORD PTR ds:0x419848
  403ede:	int3   
  403edf:	int3   
  403ee0:	push   ebp
  403ee1:	mov    ebp,esp
  403ee3:	push   edi
  403ee4:	push   esi
  403ee5:	mov    esi,DWORD PTR [ebp+0xc]
  403ee8:	mov    ecx,DWORD PTR [ebp+0x10]
  403eeb:	mov    edi,DWORD PTR [ebp+0x8]
  403eee:	mov    eax,ecx
  403ef0:	mov    edx,ecx
  403ef2:	add    eax,esi
  403ef4:	cmp    edi,esi
  403ef6:	jbe    0x403f00
  403ef8:	cmp    edi,eax
  403efa:	jb     0x4040a4
  403f00:	cmp    ecx,0x100
  403f06:	jb     0x403f27
  403f08:	cmp    DWORD PTR ds:0x43db68,0x0
  403f0f:	je     0x403f27
  403f11:	push   edi
  403f12:	push   esi
  403f13:	and    edi,0xf
  403f16:	and    esi,0xf
  403f19:	cmp    edi,esi
  403f1b:	pop    esi
  403f1c:	pop    edi
  403f1d:	jne    0x403f27
  403f1f:	pop    esi
  403f20:	pop    edi
  403f21:	pop    ebp
  403f22:	jmp    0x4070b9
  403f27:	test   edi,0x3
  403f2d:	jne    0x403f44
  403f2f:	shr    ecx,0x2
  403f32:	and    edx,0x3
  403f35:	cmp    ecx,0x8
  403f38:	jb     0x403f64
  403f3a:	rep movs DWORD PTR es:[edi],DWORD PTR ds:[esi]
  403f3c:	jmp    DWORD PTR [edx*4+0x404054]
  403f43:	nop
  403f44:	mov    eax,edi
  403f46:	mov    edx,0x3
  403f4b:	sub    ecx,0x4
  403f4e:	jb     0x403f5c
  403f50:	and    eax,0x3
  403f53:	add    ecx,eax
  403f55:	jmp    DWORD PTR [eax*4+0x403f68]
  403f5c:	jmp    DWORD PTR [ecx*4+0x404064]
  403f63:	nop
  403f64:	jmp    DWORD PTR [ecx*4+0x403fe8]
  403f6b:	nop
  403f6c:	js     0x403fad
  403f6e:	inc    eax
  403f6f:	add    BYTE PTR [edi+edi*1+0x3fc80040],ah
  403f76:	inc    eax
  403f77:	add    BYTE PTR [ebx],ah
  403f79:	ror    DWORD PTR [edx-0x75f877fa],1
  403f7f:	inc    esi
  403f80:	add    DWORD PTR [eax+0x468a0147],ecx
  403f86:	add    al,cl
  403f88:	jmp    0x287c78f
  403f8d:	add    esi,0x3
  403f90:	add    edi,0x3
  403f93:	cmp    ecx,0x8
  403f96:	jb     0x403f64
  403f98:	rep movs DWORD PTR es:[edi],DWORD PTR ds:[esi]
  403f9a:	jmp    DWORD PTR [edx*4+0x404054]
  403fa1:	lea    ecx,[ecx+0x0]
  403fa4:	and    edx,ecx
  403fa6:	mov    al,BYTE PTR [esi]
  403fa8:	mov    BYTE PTR [edi],al
  403faa:	mov    al,BYTE PTR [esi+0x1]
  403fad:	shr    ecx,0x2
  403fb0:	mov    BYTE PTR [edi+0x1],al
  403fb3:	add    esi,0x2
  403fb6:	add    edi,0x2
  403fb9:	cmp    ecx,0x8
  403fbc:	jb     0x403f64
  403fbe:	rep movs DWORD PTR es:[edi],DWORD PTR ds:[esi]
  403fc0:	jmp    DWORD PTR [edx*4+0x404054]
  403fc7:	nop
  403fc8:	and    edx,ecx
  403fca:	mov    al,BYTE PTR [esi]
  403fcc:	mov    BYTE PTR [edi],al
  403fce:	add    esi,0x1
  403fd1:	shr    ecx,0x2
  403fd4:	add    edi,0x1
  403fd7:	cmp    ecx,0x8
  403fda:	jb     0x403f64
  403fdc:	rep movs DWORD PTR es:[edi],DWORD PTR ds:[esi]
  403fde:	jmp    DWORD PTR [edx*4+0x404054]
  403fe5:	lea    ecx,[ecx+0x0]
  403fe8:	dec    ebx
  403fe9:	inc    eax
  403fea:	inc    eax
  403feb:	add    BYTE PTR [eax],bh
  403fed:	inc    eax
  403fee:	inc    eax
  403fef:	add    BYTE PTR [eax],dh
  403ff1:	inc    eax
  403ff2:	inc    eax
  403ff3:	add    BYTE PTR [eax],ch
  403ff5:	inc    eax
  403ff6:	inc    eax
  403ff7:	add    BYTE PTR [eax],ah
  403ff9:	inc    eax
  403ffa:	inc    eax
  403ffb:	add    BYTE PTR [eax],bl
  403ffd:	inc    eax
  403ffe:	inc    eax
  403fff:	add    BYTE PTR [eax],dl
  404001:	inc    eax
  404002:	inc    eax
  404003:	add    BYTE PTR [eax],cl
  404005:	inc    eax
  404006:	inc    eax
  404007:	add    BYTE PTR [ebx-0x761b71bc],cl
  40400d:	inc    esp
  40400e:	(bad)  
  40400f:	in     al,0x8b
  404011:	inc    esp
  404012:	mov    gs,eax
  404014:	mov    DWORD PTR [edi+ecx*4-0x18],eax
  404018:	mov    eax,DWORD PTR [esi+ecx*4-0x14]
  40401c:	mov    DWORD PTR [edi+ecx*4-0x14],eax
  404020:	mov    eax,DWORD PTR [esi+ecx*4-0x10]
  404024:	mov    DWORD PTR [edi+ecx*4-0x10],eax
  404028:	mov    eax,DWORD PTR [esi+ecx*4-0xc]
  40402c:	mov    DWORD PTR [edi+ecx*4-0xc],eax
  404030:	mov    eax,DWORD PTR [esi+ecx*4-0x8]
  404034:	mov    DWORD PTR [edi+ecx*4-0x8],eax
  404038:	mov    eax,DWORD PTR [esi+ecx*4-0x4]
  40403c:	mov    DWORD PTR [edi+ecx*4-0x4],eax
  404040:	lea    eax,[ecx*4+0x0]
  404047:	add    esi,eax
  404049:	add    edi,eax
  40404b:	jmp    DWORD PTR [edx*4+0x404054]
  404052:	mov    edi,edi
  404054:	fs inc eax
  404056:	inc    eax
  404057:	add    BYTE PTR [eax+eax*2+0x40],ch
  40405b:	add    BYTE PTR [eax+0x40],bh
  40405e:	inc    eax
  40405f:	add    BYTE PTR [eax+eax*2+0x458b0040],cl
  404066:	or     BYTE PTR [esi+0x5f],bl
  404069:	leave  
  40406a:	ret    
  40406b:	nop
  40406c:	mov    al,BYTE PTR [esi]
  40406e:	mov    BYTE PTR [edi],al
  404070:	mov    eax,DWORD PTR [ebp+0x8]
  404073:	pop    esi
  404074:	pop    edi
  404075:	leave  
  404076:	ret    
  404077:	nop
  404078:	mov    al,BYTE PTR [esi]
  40407a:	mov    BYTE PTR [edi],al
  40407c:	mov    al,BYTE PTR [esi+0x1]
  40407f:	mov    BYTE PTR [edi+0x1],al
  404082:	mov    eax,DWORD PTR [ebp+0x8]
  404085:	pop    esi
  404086:	pop    edi
  404087:	leave  
  404088:	ret    
  404089:	lea    ecx,[ecx+0x0]
  40408c:	mov    al,BYTE PTR [esi]
  40408e:	mov    BYTE PTR [edi],al
  404090:	mov    al,BYTE PTR [esi+0x1]
  404093:	mov    BYTE PTR [edi+0x1],al
  404096:	mov    al,BYTE PTR [esi+0x2]
  404099:	mov    BYTE PTR [edi+0x2],al
  40409c:	mov    eax,DWORD PTR [ebp+0x8]
  40409f:	pop    esi
  4040a0:	pop    edi
  4040a1:	leave  
  4040a2:	ret    
  4040a3:	nop
  4040a4:	lea    esi,[ecx+esi*1-0x4]
  4040a8:	lea    edi,[ecx+edi*1-0x4]
  4040ac:	test   edi,0x3
  4040b2:	jne    0x4040d8
  4040b4:	shr    ecx,0x2
  4040b7:	and    edx,0x3
  4040ba:	cmp    ecx,0x8
  4040bd:	jb     0x4040cc
  4040bf:	std    
  4040c0:	rep movs DWORD PTR es:[edi],DWORD PTR ds:[esi]
  4040c2:	cld    
  4040c3:	jmp    DWORD PTR [edx*4+0x4041f0]
  4040ca:	mov    edi,edi
  4040cc:	neg    ecx
  4040ce:	jmp    DWORD PTR [ecx*4+0x4041a0]
  4040d5:	lea    ecx,[ecx+0x0]
  4040d8:	mov    eax,edi
  4040da:	mov    edx,0x3
  4040df:	cmp    ecx,0x4
  4040e2:	jb     0x4040f0
  4040e4:	and    eax,0x3
  4040e7:	sub    ecx,eax
  4040e9:	jmp    DWORD PTR [eax*4+0x4040f4]
  4040f0:	jmp    DWORD PTR [ecx*4+0x4041f0]
  4040f7:	nop
  4040f8:	add    al,0x41
  4040fa:	inc    eax
  4040fb:	add    BYTE PTR [eax],ch
  4040fd:	inc    ecx
  4040fe:	inc    eax
  4040ff:	add    BYTE PTR [eax+0x41],dl
  404102:	inc    eax
  404103:	add    BYTE PTR [edx-0x2edcfcba],cl
  404109:	mov    BYTE PTR [edi+0x3],al
  40410c:	sub    esi,0x1
  40410f:	shr    ecx,0x2
  404112:	sub    edi,0x1
  404115:	cmp    ecx,0x8
  404118:	jb     0x4040cc
  40411a:	std    
  40411b:	rep movs DWORD PTR es:[edi],DWORD PTR ds:[esi]
  40411d:	cld    
  40411e:	jmp    DWORD PTR [edx*4+0x4041f0]
  404125:	lea    ecx,[ecx+0x0]
  404128:	mov    al,BYTE PTR [esi+0x3]
  40412b:	and    edx,ecx
  40412d:	mov    BYTE PTR [edi+0x3],al
  404130:	mov    al,BYTE PTR [esi+0x2]
  404133:	shr    ecx,0x2
  404136:	mov    BYTE PTR [edi+0x2],al
  404139:	sub    esi,0x2
  40413c:	sub    edi,0x2
  40413f:	cmp    ecx,0x8
  404142:	jb     0x4040cc
  404144:	std    
  404145:	rep movs DWORD PTR es:[edi],DWORD PTR ds:[esi]
  404147:	cld    
  404148:	jmp    DWORD PTR [edx*4+0x4041f0]
  40414f:	nop
  404150:	mov    al,BYTE PTR [esi+0x3]
  404153:	and    edx,ecx
  404155:	mov    BYTE PTR [edi+0x3],al
  404158:	mov    al,BYTE PTR [esi+0x2]
  40415b:	mov    BYTE PTR [edi+0x2],al
  40415e:	mov    al,BYTE PTR [esi+0x1]
  404161:	shr    ecx,0x2
  404164:	mov    BYTE PTR [edi+0x1],al
  404167:	sub    esi,0x3
  40416a:	sub    edi,0x3
  40416d:	cmp    ecx,0x8
  404170:	jb     0x4040cc
  404176:	std    
  404177:	rep movs DWORD PTR es:[edi],DWORD PTR ds:[esi]
  404179:	cld    
  40417a:	jmp    DWORD PTR [edx*4+0x4041f0]
  404181:	lea    ecx,[ecx+0x0]
  404184:	movs   BYTE PTR es:[edi],BYTE PTR ds:[esi]
  404185:	inc    ecx
  404186:	inc    eax
  404187:	add    BYTE PTR [ecx+eax*2+0x41b40040],ch
  40418e:	inc    eax
  40418f:	add    BYTE PTR [ecx+eax*2+0x41c40040],bh
  404196:	inc    eax
  404197:	add    ah,cl
  404199:	inc    ecx
  40419a:	inc    eax
  40419b:	add    ah,dl
  40419d:	inc    ecx
  40419e:	inc    eax
  40419f:	add    bh,ah
  4041a1:	inc    ecx
  4041a2:	inc    eax
  4041a3:	add    BYTE PTR [ebx-0x76e371bc],cl
  4041a9:	inc    esp
  4041aa:	(bad)  
  4041ab:	sbb    al,0x8b
  4041ad:	inc    esp
  4041ae:	mov    ds,WORD PTR [eax]
  4041b0:	mov    DWORD PTR [edi+ecx*4+0x18],eax
  4041b4:	mov    eax,DWORD PTR [esi+ecx*4+0x14]
  4041b8:	mov    DWORD PTR [edi+ecx*4+0x14],eax
  4041bc:	mov    eax,DWORD PTR [esi+ecx*4+0x10]
  4041c0:	mov    DWORD PTR [edi+ecx*4+0x10],eax
  4041c4:	mov    eax,DWORD PTR [esi+ecx*4+0xc]
  4041c8:	mov    DWORD PTR [edi+ecx*4+0xc],eax
  4041cc:	mov    eax,DWORD PTR [esi+ecx*4+0x8]
  4041d0:	mov    DWORD PTR [edi+ecx*4+0x8],eax
  4041d4:	mov    eax,DWORD PTR [esi+ecx*4+0x4]
  4041d8:	mov    DWORD PTR [edi+ecx*4+0x4],eax
  4041dc:	lea    eax,[ecx*4+0x0]
  4041e3:	add    esi,eax
  4041e5:	add    edi,eax
  4041e7:	jmp    DWORD PTR [edx*4+0x4041f0]
  4041ee:	mov    edi,edi
  4041f0:	add    BYTE PTR [edx+0x40],al
  4041f3:	add    BYTE PTR [eax],cl
  4041f5:	inc    edx
  4041f6:	inc    eax
  4041f7:	add    BYTE PTR [eax],bl
  4041f9:	inc    edx
  4041fa:	inc    eax
  4041fb:	add    BYTE PTR [edx+eax*2],ch
  4041fe:	inc    eax
  4041ff:	add    BYTE PTR [ebx+0x5f5e0845],cl
  404205:	leave  
  404206:	ret    
  404207:	nop
  404208:	mov    al,BYTE PTR [esi+0x3]
  40420b:	mov    BYTE PTR [edi+0x3],al
  40420e:	mov    eax,DWORD PTR [ebp+0x8]
  404211:	pop    esi
  404212:	pop    edi
  404213:	leave  
  404214:	ret    
  404215:	lea    ecx,[ecx+0x0]
  404218:	mov    al,BYTE PTR [esi+0x3]
  40421b:	mov    BYTE PTR [edi+0x3],al
  40421e:	mov    al,BYTE PTR [esi+0x2]
  404221:	mov    BYTE PTR [edi+0x2],al
  404224:	mov    eax,DWORD PTR [ebp+0x8]
  404227:	pop    esi
  404228:	pop    edi
  404229:	leave  
  40422a:	ret    
  40422b:	nop
  40422c:	mov    al,BYTE PTR [esi+0x3]
  40422f:	mov    BYTE PTR [edi+0x3],al
  404232:	mov    al,BYTE PTR [esi+0x2]
  404235:	mov    BYTE PTR [edi+0x2],al
  404238:	mov    al,BYTE PTR [esi+0x1]
  40423b:	mov    BYTE PTR [edi+0x1],al
  40423e:	mov    eax,DWORD PTR [ebp+0x8]
  404241:	pop    esi
  404242:	pop    edi
  404243:	leave  
  404244:	ret    
  404245:	int3   
  404246:	int3   
  404247:	int3   
  404248:	int3   
  404249:	int3   
  40424a:	int3   
  40424b:	int3   
  40424c:	int3   
  40424d:	int3   
  40424e:	int3   
  40424f:	int3   
  404250:	cmp    DWORD PTR ds:0x43db64,0x0
  404257:	je     0x4042e4
  40425d:	sub    esp,0x8
  404260:	stmxcsr DWORD PTR [esp+0x4]
  404265:	mov    eax,DWORD PTR [esp+0x4]
  404269:	and    eax,0x1f80
  40426e:	cmp    eax,0x1f80
  404273:	jne    0x404284
  404275:	fnstcw WORD PTR [esp]
  404278:	mov    ax,WORD PTR [esp]
  40427c:	and    ax,0x7f
  404280:	cmp    ax,0x7f
  404284:	lea    esp,[esp+0x8]
  404288:	jne    0x4042e4
  40428a:	jmp    0x407289
  40428f:	nop
  404290:	cmp    DWORD PTR ds:0x43db64,0x0
  404297:	je     0x4042cb
  404299:	sub    esp,0x8
  40429c:	stmxcsr DWORD PTR [esp+0x4]
  4042a1:	mov    eax,DWORD PTR [esp+0x4]
  4042a5:	and    eax,0x1f80
  4042aa:	cmp    eax,0x1f80
  4042af:	jne    0x4042c0
  4042b1:	fnstcw WORD PTR [esp]
  4042b4:	mov    ax,WORD PTR [esp]
  4042b8:	and    ax,0x7f
  4042bc:	cmp    ax,0x7f
  4042c0:	lea    esp,[esp+0x8]
  4042c4:	jne    0x4042cb
  4042c6:	jmp    0x407270
  4042cb:	sub    esp,0x14
  4042ce:	fxch   st(1)
  4042d0:	fstp   QWORD PTR [esp]
  4042d3:	fst    QWORD PTR [esp+0x8]
  4042d7:	mov    eax,DWORD PTR [esp+0xc]
  4042db:	call   0x4042ed
  4042e0:	add    esp,0x14
  4042e3:	ret    
  4042e4:	lea    edx,[esp+0xc]
  4042e8:	call   0x408255
  4042ed:	mov    ecx,eax
  4042ef:	push   eax
  4042f0:	fstcw  WORD PTR [esp]
  4042f4:	cmp    WORD PTR [esp],0x27f
  4042fa:	je     0x404301
  4042fc:	call   0x408225
  404301:	and    ecx,0x7ff00000
  404307:	lea    edx,[esp+0x8]
  40430b:	cmp    ecx,0x7ff00000
  404311:	je     0x4043b4
  404317:	call   0x408255
  40431c:	je     0x4043b0
  404322:	test   eax,0x7ff00000
  404327:	je     0x404423
  40432d:	mov    cl,BYTE PTR [esp+0xf]
  404331:	and    cl,0x80
  404334:	jne    0x40448d
  40433a:	fyl2x  
  40433c:	call   0x408210
  404341:	cmp    cl,0x1
  404344:	jne    0x404348
  404346:	fchs   
  404348:	cmp    DWORD PTR ds:0x43bf9c,0x0
  40434f:	jne    0x4082ae
  404355:	lea    ecx,ds:0x423198
  40435b:	mov    edx,0x1d
  404360:	jmp    0x4082f9
  404365:	cmp    DWORD PTR ds:0x43bf9c,0x0
  40436c:	jne    0x4082ae
  404372:	lea    ecx,ds:0x423198
  404378:	mov    edx,0x1d
  40437d:	call   0x4081b0
  404382:	pop    edx
  404383:	ret    
  404384:	lea    edx,[esp+0x8]
  404388:	call   0x408255
  40438d:	test   BYTE PTR [esp+0x16],0x8
  404392:	jne    0x404397
  404394:	inc    ecx
  404395:	jmp    0x4043ca
  404397:	faddp  st(1),st
  404399:	mov    eax,0x1
  40439e:	jmp    0x404365
  4043a0:	test   BYTE PTR [esp+0xe],0x8
  4043a5:	jne    0x404397
  4043a7:	faddp  st(1),st
  4043a9:	mov    eax,0x7
  4043ae:	jmp    0x404365
  4043b0:	xor    ecx,ecx
  4043b2:	jmp    0x4043ca
  4043b4:	xor    ecx,ecx
  4043b6:	and    eax,0xfffff
  4043bb:	or     eax,DWORD PTR [esp+0x10]
  4043bf:	jne    0x404384
  4043c1:	lea    edx,[esp+0x8]
  4043c5:	call   0x408255
  4043ca:	mov    eax,DWORD PTR [esp+0xc]
  4043ce:	mov    edx,eax
  4043d0:	and    eax,0x7ff00000
  4043d5:	and    edx,0xfffff
  4043db:	cmp    eax,0x7ff00000
  4043e0:	jne    0x4043e8
  4043e2:	or     edx,DWORD PTR [esp+0x8]
  4043e6:	jne    0x4043a0
  4043e8:	test   ecx,ecx
  4043ea:	jne    0x4043a7
  4043ec:	sub    esp,0x74
  4043ef:	mov    ecx,esp
  4043f1:	push   ecx
  4043f2:	sub    esp,0x10
  4043f5:	fstp   QWORD PTR [esp]
  4043f8:	fstp   QWORD PTR [esp+0x8]
  4043fc:	fsave  [ecx+0x8]
  404400:	call   0x408402
  404405:	add    esp,0x10
  404408:	pop    ecx
  404409:	frstor [ecx+0x8]
  40440c:	fld    QWORD PTR [ecx]
  40440e:	add    esp,0x74
  404411:	test   eax,eax
  404413:	je     0x4082ae
  404419:	mov    eax,0x1
  40441e:	jmp    0x404365
  404423:	mov    eax,DWORD PTR [esp+0xc]
  404427:	and    eax,0xfffff
  40442c:	or     eax,DWORD PTR [esp+0x8]
  404430:	jne    0x40432d
  404436:	fstp   st(0)
  404438:	mov    eax,DWORD PTR [esp+0x14]
  40443c:	and    eax,0x7fffffff
  404441:	or     eax,DWORD PTR [esp+0x10]
  404445:	je     0x404484
  404447:	call   0x4044b2
  40444c:	mov    ch,BYTE PTR [esp+0xf]
  404450:	shr    ch,0x7
  404453:	test   DWORD PTR [esp+0x17],0x80
  40445b:	je     0x404473
  40445d:	fld    TBYTE PTR ds:0x4231c0
  404463:	test   ch,cl
  404465:	je     0x404469
  404467:	fchs   
  404469:	mov    eax,0x2
  40446e:	jmp    0x404365
  404473:	fldz   
  404475:	test   ch,cl
  404477:	je     0x4082ae
  40447d:	fchs   
  40447f:	jmp    0x4082ae
  404484:	fstp   st(0)
  404486:	fld1   
  404488:	jmp    0x4082ae
  40448d:	fld    st(1)
  40448f:	call   0x4044b2
  404494:	fchs   
  404496:	test   cl,cl
  404498:	jne    0x40433a
  40449e:	fstp   st(0)
  4044a0:	fstp   st(0)
  4044a2:	fld    TBYTE PTR ds:0x423220
  4044a8:	mov    eax,0x1
  4044ad:	jmp    0x404365
  4044b2:	fld    st(0)
  4044b4:	frndint 
  4044b6:	fcomp  st(1)
  4044b8:	mov    cl,0x0
  4044ba:	fstsw  ax
  4044bd:	sahf   
  4044be:	jne    0x4044d7
  4044c0:	fmul   QWORD PTR ds:0x423190
  4044c6:	inc    cl
  4044c8:	fld    st(0)
  4044ca:	frndint 
  4044cc:	fcompp 
  4044ce:	fstsw  ax
  4044d1:	sahf   
  4044d2:	jne    0x4044d6
  4044d4:	inc    cl
  4044d6:	ret    
  4044d7:	fstp   st(0)
  4044d9:	ret    
  4044da:	mov    edi,edi
  4044dc:	push   ebp
  4044dd:	mov    ebp,esp
  4044df:	push   ecx
  4044e0:	push   esi
  4044e1:	mov    esi,DWORD PTR [ebp+0x8]
  4044e4:	push   edi
  4044e5:	xor    edi,edi
  4044e7:	cmp    esi,edi
  4044e9:	je     0x4044f0
  4044eb:	cmp    DWORD PTR [ebp+0xc],edi
  4044ee:	ja     0x40450e
  4044f0:	call   0x4087a4
  4044f5:	push   0x16
  4044f7:	pop    esi
  4044f8:	push   edi
  4044f9:	push   edi
  4044fa:	push   edi
  4044fb:	push   edi
  4044fc:	push   edi
  4044fd:	mov    DWORD PTR [eax],esi
  4044ff:	call   0x40873c
  404504:	add    esp,0x14
  404507:	mov    eax,esi
  404509:	jmp    0x4046a4
  40450e:	cmp    DWORD PTR [ebp+0xc],0x1a
  404512:	mov    BYTE PTR [esi],0x0
  404515:	jb     0x4044f0
  404517:	mov    ecx,DWORD PTR [ebp+0x10]
  40451a:	cmp    ecx,edi
  40451c:	je     0x4044f0
  40451e:	cmp    DWORD PTR [ecx+0x14],edi
  404521:	jl     0x4044f0
  404523:	mov    edx,DWORD PTR [ecx+0x10]
  404526:	cmp    edx,edi
  404528:	jl     0x4044f0
  40452a:	cmp    edx,0xb
  40452d:	jg     0x4044f0
  40452f:	mov    eax,DWORD PTR [ecx+0x8]
  404532:	cmp    eax,edi
  404534:	jl     0x4044f0
  404536:	cmp    eax,0x17
  404539:	jg     0x4044f0
  40453b:	mov    eax,DWORD PTR [ecx+0x4]
  40453e:	cmp    eax,edi
  404540:	jl     0x4044f0
  404542:	cmp    eax,0x3b
  404545:	jg     0x4044f0
  404547:	mov    eax,DWORD PTR [ecx]
  404549:	cmp    eax,edi
  40454b:	jl     0x4044f0
  40454d:	cmp    eax,0x3b
  404550:	jg     0x4044f0
  404552:	cmp    DWORD PTR [ecx+0xc],0x1
  404556:	push   ebx
  404557:	jl     0x4045be
  404559:	mov    eax,edx
  40455b:	shl    eax,0x2
  40455e:	mov    ebx,DWORD PTR [eax+0x423320]
  404564:	sub    ebx,DWORD PTR [eax+0x42331c]
  40456a:	cmp    ebx,DWORD PTR [ecx+0xc]
  40456d:	jge    0x4045b2
  40456f:	mov    eax,DWORD PTR [ecx+0x14]
  404572:	add    eax,0x76c
  404577:	mov    edx,eax
  404579:	and    edx,0x80000003
  40457f:	mov    DWORD PTR [ebp+0x8],eax
  404582:	jns    0x404589
  404584:	dec    edx
  404585:	or     edx,0xfffffffc
  404588:	inc    edx
  404589:	jne    0x404595
  40458b:	push   0x64
  40458d:	cdq    
  40458e:	pop    ebx
  40458f:	idiv   ebx
  404591:	test   edx,edx
  404593:	jne    0x4045a4
  404595:	mov    eax,DWORD PTR [ebp+0x8]
  404598:	cdq    
  404599:	mov    ebx,0x190
  40459e:	idiv   ebx
  4045a0:	test   edx,edx
  4045a2:	jne    0x4045be
  4045a4:	mov    edx,DWORD PTR [ecx+0x10]
  4045a7:	cmp    edx,0x1
  4045aa:	jne    0x4045be
  4045ac:	cmp    DWORD PTR [ecx+0xc],0x1d
  4045b0:	jg     0x4045be
  4045b2:	mov    eax,DWORD PTR [ecx+0x18]
  4045b5:	cmp    eax,edi
  4045b7:	jl     0x4045be
  4045b9:	cmp    eax,0x6
  4045bc:	jle    0x4045dc
  4045be:	call   0x4087a4
  4045c3:	push   0x16
  4045c5:	pop    esi
  4045c6:	push   edi
  4045c7:	push   edi
  4045c8:	push   edi
  4045c9:	push   edi
  4045ca:	push   edi
  4045cb:	mov    DWORD PTR [eax],esi
  4045cd:	call   0x40873c
  4045d2:	add    esp,0x14
  4045d5:	mov    eax,esi
  4045d7:	jmp    0x4046a3
  4045dc:	imul   eax,eax,0x3
  4045df:	imul   edx,edx,0x3
  4045e2:	mov    bl,BYTE PTR [eax+edi*1+0x41d450]
  4045e9:	mov    BYTE PTR [esi],bl
  4045eb:	mov    bl,BYTE PTR [edx+edi*1+0x41d468]
  4045f2:	inc    edi
  4045f3:	mov    BYTE PTR [esi+0x4],bl
  4045f6:	inc    esi
  4045f7:	cmp    edi,0x3
  4045fa:	jl     0x4045e2
  4045fc:	mov    BYTE PTR [esi],0x20
  4045ff:	add    esi,0x4
  404602:	mov    BYTE PTR [esi],0x20
  404605:	mov    eax,DWORD PTR [ecx+0xc]
  404608:	cdq    
  404609:	push   0xa
  40460b:	pop    edi
  40460c:	idiv   edi
  40460e:	mov    bl,0x30
  404610:	inc    esi
  404611:	push   0x64
  404613:	add    al,bl
  404615:	mov    BYTE PTR [esi],al
  404617:	add    dl,bl
  404619:	inc    esi
  40461a:	mov    BYTE PTR [esi],dl
  40461c:	mov    BYTE PTR [esi+0x1],0x20
  404620:	mov    eax,DWORD PTR [ecx+0x8]
  404623:	cdq    
  404624:	idiv   edi
  404626:	add    esi,0x2
  404629:	add    al,bl
  40462b:	mov    BYTE PTR [esi],al
  40462d:	add    dl,bl
  40462f:	inc    esi
  404630:	mov    BYTE PTR [esi],dl
  404632:	mov    BYTE PTR [esi+0x1],0x3a
  404636:	mov    eax,DWORD PTR [ecx+0x4]
  404639:	cdq    
  40463a:	idiv   edi
  40463c:	add    esi,0x2
  40463f:	add    al,bl
  404641:	mov    BYTE PTR [esi],al
  404643:	add    dl,bl
  404645:	inc    esi
  404646:	mov    BYTE PTR [esi],dl
  404648:	mov    BYTE PTR [esi+0x1],0x3a
  40464c:	mov    eax,DWORD PTR [ecx]
  40464e:	cdq    
  40464f:	idiv   edi
  404651:	add    esi,0x2
  404654:	pop    edi
  404655:	push   0xa
  404657:	add    al,bl
  404659:	mov    BYTE PTR [esi],al
  40465b:	add    dl,bl
  40465d:	inc    esi
  40465e:	mov    BYTE PTR [esi],dl
  404660:	mov    BYTE PTR [esi+0x1],0x20
  404664:	mov    eax,DWORD PTR [ecx+0x14]
  404667:	cdq    
  404668:	idiv   edi
  40466a:	pop    edi
  40466b:	add    esi,0x2
  40466e:	push   0x64
  404670:	add    eax,0x13
  404673:	cdq    
  404674:	idiv   edi
  404676:	add    al,bl
  404678:	mov    BYTE PTR [esi],al
  40467a:	add    dl,bl
  40467c:	inc    esi
  40467d:	mov    BYTE PTR [esi],dl
  40467f:	mov    eax,DWORD PTR [ecx+0x14]
  404682:	cdq    
  404683:	pop    ecx
  404684:	idiv   ecx
  404686:	lea    ecx,[esi+0x1]
  404689:	push   edi
  40468a:	pop    esi
  40468b:	mov    eax,edx
  40468d:	cdq    
  40468e:	idiv   esi
  404690:	add    al,bl
  404692:	mov    BYTE PTR [ecx],al
  404694:	inc    ecx
  404695:	add    dl,bl
  404697:	mov    BYTE PTR [ecx],dl
  404699:	mov    BYTE PTR [ecx+0x1],0xa
  40469d:	mov    BYTE PTR [ecx+0x2],0x0
  4046a1:	xor    eax,eax
  4046a3:	pop    ebx
  4046a4:	pop    edi
  4046a5:	pop    esi
  4046a6:	leave  
  4046a7:	ret    
  4046a8:	mov    edi,edi
  4046aa:	push   ebp
  4046ab:	mov    ebp,esp
  4046ad:	push   esi
  4046ae:	push   edi
  4046af:	mov    edi,0x43bf7c
  4046b4:	call   0x408b6c
  4046b9:	mov    esi,eax
  4046bb:	test   esi,esi
  4046bd:	je     0x4046da
  4046bf:	cmp    DWORD PTR [esi+0x3c],0x0
  4046c3:	jne    0x4046d7
  4046c5:	push   0x1
  4046c7:	push   0x1a
  4046c9:	call   0x408832
  4046ce:	pop    ecx
  4046cf:	pop    ecx
  4046d0:	mov    DWORD PTR [esi+0x3c],eax
  4046d3:	test   eax,eax
  4046d5:	je     0x4046da
  4046d7:	mov    edi,DWORD PTR [esi+0x3c]
  4046da:	push   DWORD PTR [ebp+0x8]
  4046dd:	push   0x1a
  4046df:	push   edi
  4046e0:	call   0x4044da
  4046e5:	add    esp,0xc
  4046e8:	neg    eax
  4046ea:	sbb    eax,eax
  4046ec:	not    eax
  4046ee:	and    eax,edi
  4046f0:	pop    edi
  4046f1:	pop    esi
  4046f2:	pop    ebp
  4046f3:	ret    
  4046f4:	mov    edi,edi
  4046f6:	push   ebp
  4046f7:	mov    ebp,esp
  4046f9:	mov    eax,DWORD PTR [ebp+0x8]
  4046fc:	push   esi
  4046fd:	mov    esi,ecx
  4046ff:	mov    BYTE PTR [esi+0xc],0x0
  404703:	test   eax,eax
  404705:	jne    0x40476a
  404707:	call   0x408be5
  40470c:	mov    DWORD PTR [esi+0x8],eax
  40470f:	mov    ecx,DWORD PTR [eax+0x6c]
  404712:	mov    DWORD PTR [esi],ecx
  404714:	mov    ecx,DWORD PTR [eax+0x68]
  404717:	mov    DWORD PTR [esi+0x4],ecx
  40471a:	mov    ecx,DWORD PTR [esi]
  40471c:	cmp    ecx,DWORD PTR ds:0x423ad0
  404722:	je     0x404736
  404724:	mov    ecx,DWORD PTR ds:0x4239ec
  40472a:	test   DWORD PTR [eax+0x70],ecx
  40472d:	jne    0x404736
  40472f:	call   0x40984d
  404734:	mov    DWORD PTR [esi],eax
  404736:	mov    eax,DWORD PTR [esi+0x4]
  404739:	cmp    eax,DWORD PTR ds:0x4238f0
  40473f:	je     0x404757
  404741:	mov    eax,DWORD PTR [esi+0x8]
  404744:	mov    ecx,DWORD PTR ds:0x4239ec
  40474a:	test   DWORD PTR [eax+0x70],ecx
  40474d:	jne    0x404757
  40474f:	call   0x4090e1
  404754:	mov    DWORD PTR [esi+0x4],eax
  404757:	mov    eax,DWORD PTR [esi+0x8]
  40475a:	test   BYTE PTR [eax+0x70],0x2
  40475e:	jne    0x404774
  404760:	or     DWORD PTR [eax+0x70],0x2
  404764:	mov    BYTE PTR [esi+0xc],0x1
  404768:	jmp    0x404774
  40476a:	mov    ecx,DWORD PTR [eax]
  40476c:	mov    DWORD PTR [esi],ecx
  40476e:	mov    eax,DWORD PTR [eax+0x4]
  404771:	mov    DWORD PTR [esi+0x4],eax
  404774:	mov    eax,esi
  404776:	pop    esi
  404777:	pop    ebp
  404778:	ret    0x4
  40477b:	mov    edi,edi
  40477d:	push   ebp
  40477e:	mov    ebp,esp
  404780:	mov    eax,0xffff
  404785:	mov    ecx,eax
  404787:	sub    esp,0x14
  40478a:	cmp    WORD PTR [ebp+0x8],cx
  40478e:	je     0x40482e
  404794:	push   ebx
  404795:	push   DWORD PTR [ebp+0xc]
  404798:	lea    ecx,[ebp-0x14]
  40479b:	call   0x4046f4
  4047a0:	mov    ecx,DWORD PTR [ebp-0x14]
  4047a3:	mov    edx,DWORD PTR [ecx+0x14]
  4047a6:	xor    ebx,ebx
  4047a8:	cmp    edx,ebx
  4047aa:	jne    0x4047c0
  4047ac:	mov    eax,DWORD PTR [ebp+0x8]
  4047af:	lea    ecx,[eax-0x41]
  4047b2:	cmp    cx,0x19
  4047b6:	ja     0x4047bb
  4047b8:	add    eax,0x20
  4047bb:	movzx  eax,ax
  4047be:	jmp    0x404821
  4047c0:	push   esi
  4047c1:	mov    eax,0x100
  4047c6:	mov    esi,eax
  4047c8:	cmp    WORD PTR [ebp+0x8],si
  4047cc:	pop    esi
  4047cd:	jae    0x4047f8
  4047cf:	lea    eax,[ebp-0x14]
  4047d2:	push   eax
  4047d3:	push   0x1
  4047d5:	push   DWORD PTR [ebp+0x8]
  4047d8:	call   0x40991a
  4047dd:	add    esp,0xc
  4047e0:	test   eax,eax
  4047e2:	movzx  eax,WORD PTR [ebp+0x8]
  4047e6:	je     0x404821
  4047e8:	mov    ecx,DWORD PTR [ebp-0x14]
  4047eb:	mov    ecx,DWORD PTR [ecx+0xcc]
  4047f1:	movzx  ax,BYTE PTR [ecx+eax*1]
  4047f6:	jmp    0x4047bb
  4047f8:	push   DWORD PTR [ecx+0x4]
  4047fb:	lea    ecx,[ebp-0x4]
  4047fe:	push   0x1
  404800:	push   ecx
  404801:	push   0x1
  404803:	lea    ecx,[ebp+0x8]
  404806:	push   ecx
  404807:	push   eax
  404808:	push   edx
  404809:	lea    eax,[ebp-0x14]
  40480c:	push   eax
  40480d:	call   0x4098c3
  404812:	add    esp,0x20
  404815:	test   eax,eax
  404817:	movzx  eax,WORD PTR [ebp+0x8]
  40481b:	je     0x404821
  40481d:	movzx  eax,WORD PTR [ebp-0x4]
  404821:	cmp    BYTE PTR [ebp-0x8],bl
  404824:	je     0x40482d
  404826:	mov    ecx,DWORD PTR [ebp-0xc]
  404829:	and    DWORD PTR [ecx+0x70],0xfffffffd
  40482d:	pop    ebx
  40482e:	leave  
  40482f:	ret    
  404830:	mov    edi,edi
  404832:	push   ebp
  404833:	mov    ebp,esp
  404835:	push   0x0
  404837:	push   DWORD PTR [ebp+0x8]
  40483a:	call   0x40477b
  40483f:	pop    ecx
  404840:	pop    ecx
  404841:	pop    ebp
  404842:	ret    
  404843:	mov    edi,edi
  404845:	push   ebp
  404846:	mov    ebp,esp
  404848:	mov    eax,0xffff
  40484d:	mov    ecx,eax
  40484f:	sub    esp,0x14
  404852:	cmp    WORD PTR [ebp+0x8],cx
  404856:	je     0x4048f6
  40485c:	push   ebx
  40485d:	push   DWORD PTR [ebp+0xc]
  404860:	lea    ecx,[ebp-0x14]
  404863:	call   0x4046f4
  404868:	mov    eax,DWORD PTR [ebp-0x14]
  40486b:	mov    ecx,DWORD PTR [eax+0x14]
  40486e:	xor    ebx,ebx
  404870:	cmp    ecx,ebx
  404872:	jne    0x404888
  404874:	mov    eax,DWORD PTR [ebp+0x8]
  404877:	lea    ecx,[eax-0x61]
  40487a:	cmp    cx,0x19
  40487e:	ja     0x404883
  404880:	add    eax,0xffffffe0
  404883:	movzx  eax,ax
  404886:	jmp    0x4048e9
  404888:	mov    edx,0x100
  40488d:	cmp    WORD PTR [ebp+0x8],dx
  404891:	jae    0x4048bc
  404893:	lea    eax,[ebp-0x14]
  404896:	push   eax
  404897:	push   0x2
  404899:	push   DWORD PTR [ebp+0x8]
  40489c:	call   0x40991a
  4048a1:	add    esp,0xc
  4048a4:	test   eax,eax
  4048a6:	movzx  eax,WORD PTR [ebp+0x8]
  4048aa:	je     0x4048e9
  4048ac:	mov    ecx,DWORD PTR [ebp-0x14]
  4048af:	mov    ecx,DWORD PTR [ecx+0xd0]
  4048b5:	movzx  ax,BYTE PTR [ecx+eax*1]
  4048ba:	jmp    0x404883
  4048bc:	push   DWORD PTR [eax+0x4]
  4048bf:	lea    eax,[ebp-0x4]
  4048c2:	push   0x1
  4048c4:	push   eax
  4048c5:	push   0x1
  4048c7:	lea    eax,[ebp+0x8]
  4048ca:	push   eax
  4048cb:	push   0x200
  4048d0:	push   ecx
  4048d1:	lea    eax,[ebp-0x14]
  4048d4:	push   eax
  4048d5:	call   0x4098c3
  4048da:	add    esp,0x20
  4048dd:	test   eax,eax
  4048df:	movzx  eax,WORD PTR [ebp+0x8]
  4048e3:	je     0x4048e9
  4048e5:	movzx  eax,WORD PTR [ebp-0x4]
  4048e9:	cmp    BYTE PTR [ebp-0x8],bl
  4048ec:	je     0x4048f5
  4048ee:	mov    ecx,DWORD PTR [ebp-0xc]
  4048f1:	and    DWORD PTR [ecx+0x70],0xfffffffd
  4048f5:	pop    ebx
  4048f6:	leave  
  4048f7:	ret    
  4048f8:	mov    edi,edi
  4048fa:	push   ebp
  4048fb:	mov    ebp,esp
  4048fd:	push   0x0
  4048ff:	push   DWORD PTR [ebp+0x8]
  404902:	call   0x404843
  404907:	pop    ecx
  404908:	pop    ecx
  404909:	pop    ebp
  40490a:	ret    
  40490b:	push   0xc
  40490d:	push   0x41edb0
  404912:	call   0x40a868
  404917:	xor    eax,eax
  404919:	xor    esi,esi
  40491b:	cmp    DWORD PTR [ebp+0x8],esi
  40491e:	setne  al
  404921:	cmp    eax,esi
  404923:	jne    0x404942
  404925:	call   0x4087a4
  40492a:	mov    DWORD PTR [eax],0x16
  404930:	push   esi
  404931:	push   esi
  404932:	push   esi
  404933:	push   esi
  404934:	push   esi
  404935:	call   0x40873c
  40493a:	add    esp,0x14
  40493d:	or     eax,0xffffffff
  404940:	jmp    0x4049a1
  404942:	call   0x4099a4
  404947:	push   0x20
  404949:	pop    ebx
  40494a:	add    eax,ebx
  40494c:	push   eax
  40494d:	push   0x1
  40494f:	call   0x409abc
  404954:	pop    ecx
  404955:	pop    ecx
  404956:	mov    DWORD PTR [ebp-0x4],esi
  404959:	call   0x4099a4
  40495e:	add    eax,ebx
  404960:	push   eax
  404961:	call   0x409b59
  404966:	pop    ecx
  404967:	mov    edi,eax
  404969:	lea    eax,[ebp+0xc]
  40496c:	push   eax
  40496d:	push   esi
  40496e:	push   DWORD PTR [ebp+0x8]
  404971:	call   0x4099a4
  404976:	add    eax,ebx
  404978:	push   eax
  404979:	call   0x409ccf
  40497e:	mov    DWORD PTR [ebp-0x1c],eax
  404981:	call   0x4099a4
  404986:	add    eax,ebx
  404988:	push   eax
  404989:	push   edi
  40498a:	call   0x409bf5
  40498f:	add    esp,0x18
  404992:	mov    DWORD PTR [ebp-0x4],0xfffffffe
  404999:	call   0x4049a7
  40499e:	mov    eax,DWORD PTR [ebp-0x1c]
  4049a1:	call   0x40a8ad
  4049a6:	ret    
  4049a7:	call   0x4099a4
  4049ac:	add    eax,0x20
  4049af:	push   eax
  4049b0:	push   0x1
  4049b2:	call   0x409b2a
  4049b7:	pop    ecx
  4049b8:	pop    ecx
  4049b9:	ret    
  4049ba:	mov    eax,ds:0x423d68
  4049bf:	or     eax,0x1
  4049c2:	xor    ecx,ecx
  4049c4:	cmp    DWORD PTR ds:0x43bf98,eax
  4049ca:	sete   cl
  4049cd:	mov    eax,ecx
  4049cf:	ret    
  4049d0:	mov    edi,edi
  4049d2:	push   ebp
  4049d3:	mov    ebp,esp
  4049d5:	call   0x408be5
  4049da:	mov    ecx,DWORD PTR [ebp+0x8]
  4049dd:	mov    DWORD PTR [eax+0x14],ecx
  4049e0:	pop    ebp
  4049e1:	ret    
  4049e2:	xor    eax,eax
  4049e4:	test   bl,0x10
  4049e7:	je     0x4049ea
  4049e9:	inc    eax
  4049ea:	test   bl,0x8
  4049ed:	je     0x4049f2
  4049ef:	or     eax,0x4
  4049f2:	test   bl,0x4
  4049f5:	je     0x4049fa
  4049f7:	or     eax,0x8
  4049fa:	test   bl,0x2
  4049fd:	je     0x404a02
  4049ff:	or     eax,0x10
  404a02:	test   bl,0x1
  404a05:	je     0x404a0a
  404a07:	or     eax,0x20
  404a0a:	test   ebx,0x80000
  404a10:	je     0x404a15
  404a12:	or     eax,0x2
  404a15:	mov    ecx,ebx
  404a17:	mov    edx,0x300
  404a1c:	and    ecx,edx
  404a1e:	push   esi
  404a1f:	mov    esi,0x200
  404a24:	je     0x404a49
  404a26:	cmp    ecx,0x100
  404a2c:	je     0x404a44
  404a2e:	cmp    ecx,esi
  404a30:	je     0x404a3d
  404a32:	cmp    ecx,edx
  404a34:	jne    0x404a49
  404a36:	or     eax,0xc00
  404a3b:	jmp    0x404a49
  404a3d:	or     eax,0x800
  404a42:	jmp    0x404a49
  404a44:	or     eax,0x400
  404a49:	mov    ecx,ebx
  404a4b:	and    ecx,0x30000
  404a51:	je     0x404a5f
  404a53:	cmp    ecx,0x10000
  404a59:	jne    0x404a61
  404a5b:	or     eax,esi
  404a5d:	jmp    0x404a61
  404a5f:	or     eax,edx
  404a61:	pop    esi
  404a62:	test   ebx,0x40000
  404a68:	je     0x404a6f
  404a6a:	or     eax,0x1000
  404a6f:	ret    
  404a70:	xor    eax,eax
  404a72:	test   dl,0x10
  404a75:	je     0x404a7c
  404a77:	mov    eax,0x80
  404a7c:	push   ebx
  404a7d:	push   esi
  404a7e:	push   edi
  404a7f:	mov    ebx,0x200
  404a84:	test   dl,0x8
  404a87:	je     0x404a8b
  404a89:	or     eax,ebx
  404a8b:	test   dl,0x4
  404a8e:	je     0x404a95
  404a90:	or     eax,0x400
  404a95:	test   dl,0x2
  404a98:	je     0x404a9f
  404a9a:	or     eax,0x800
  404a9f:	test   dl,0x1
  404aa2:	je     0x404aa9
  404aa4:	or     eax,0x1000
  404aa9:	mov    edi,0x100
  404aae:	test   edx,0x80000
  404ab4:	je     0x404ab8
  404ab6:	or     eax,edi
  404ab8:	mov    ecx,edx
  404aba:	mov    esi,0x300
  404abf:	and    ecx,esi
  404ac1:	je     0x404ae2
  404ac3:	cmp    ecx,edi
  404ac5:	je     0x404add
  404ac7:	cmp    ecx,ebx
  404ac9:	je     0x404ad6
  404acb:	cmp    ecx,esi
  404acd:	jne    0x404ae2
  404acf:	or     eax,0x6000
  404ad4:	jmp    0x404ae2
  404ad6:	or     eax,0x4000
  404adb:	jmp    0x404ae2
  404add:	or     eax,0x2000
  404ae2:	mov    ecx,0x3000000
  404ae7:	pop    edi
  404ae8:	and    edx,ecx
  404aea:	pop    esi
  404aeb:	pop    ebx
  404aec:	cmp    edx,0x1000000
  404af2:	je     0x404b0a
  404af4:	cmp    edx,0x2000000
  404afa:	je     0x404b06
  404afc:	cmp    edx,ecx
  404afe:	jne    0x404b0f
  404b00:	or     eax,0x8000
  404b05:	ret    
  404b06:	or     eax,0x40
  404b09:	ret    
  404b0a:	or     eax,0x8040
  404b0f:	ret    
  404b10:	mov    edi,edi
  404b12:	push   ebp
  404b13:	mov    ebp,esp
  404b15:	mov    eax,DWORD PTR [ebp+0xc]
  404b18:	sub    esp,0x10
  404b1b:	push   ebx
  404b1c:	push   esi
  404b1d:	xor    edx,edx
  404b1f:	push   edi
  404b20:	mov    edi,0x300
  404b25:	cmp    DWORD PTR [ebp+0x10],edx
  404b28:	je     0x404c81
  404b2e:	fstcw  WORD PTR [ebp-0x8]
  404b32:	mov    ebx,DWORD PTR [ebp-0x8]
  404b35:	test   bl,0x1
  404b38:	je     0x404b3d
  404b3a:	push   0x10
  404b3c:	pop    edx
  404b3d:	test   bl,0x4
  404b40:	je     0x404b45
  404b42:	or     edx,0x8
  404b45:	test   bl,0x8
  404b48:	je     0x404b4d
  404b4a:	or     edx,0x4
  404b4d:	test   bl,0x10
  404b50:	je     0x404b55
  404b52:	or     edx,0x2
  404b55:	test   bl,0x20
  404b58:	je     0x404b5d
  404b5a:	or     edx,0x1
  404b5d:	test   bl,0x2
  404b60:	je     0x404b68
  404b62:	or     edx,0x80000
  404b68:	movzx  eax,bx
  404b6b:	mov    ecx,eax
  404b6d:	mov    esi,0xc00
  404b72:	and    ecx,esi
  404b74:	je     0x404b9c
  404b76:	cmp    ecx,0x400
  404b7c:	je     0x404b96
  404b7e:	cmp    ecx,0x800
  404b84:	je     0x404b8e
  404b86:	cmp    ecx,esi
  404b88:	jne    0x404b9c
  404b8a:	or     edx,edi
  404b8c:	jmp    0x404b9c
  404b8e:	or     edx,0x200
  404b94:	jmp    0x404b9c
  404b96:	or     edx,0x100
  404b9c:	and    eax,edi
  404b9e:	je     0x404baf
  404ba0:	cmp    eax,0x200
  404ba5:	jne    0x404bb5
  404ba7:	or     edx,0x10000
  404bad:	jmp    0x404bb5
  404baf:	or     edx,0x20000
  404bb5:	test   ebx,0x1000
  404bbb:	je     0x404bc3
  404bbd:	or     edx,0x40000
  404bc3:	mov    ebx,DWORD PTR [ebp+0xc]
  404bc6:	mov    eax,DWORD PTR [ebp+0x8]
  404bc9:	and    eax,DWORD PTR [ebp+0xc]
  404bcc:	not    ebx
  404bce:	and    ebx,edx
  404bd0:	or     ebx,eax
  404bd2:	cmp    ebx,edx
  404bd4:	je     0x404c79
  404bda:	call   0x4049e2
  404bdf:	movzx  eax,ax
  404be2:	mov    DWORD PTR [ebp-0x4],eax
  404be5:	fldcw  WORD PTR [ebp-0x4]
  404be8:	fstcw  WORD PTR [ebp-0x4]
  404bec:	mov    edx,DWORD PTR [ebp-0x4]
  404bef:	xor    ebx,ebx
  404bf1:	test   dl,0x1
  404bf4:	je     0x404bf9
  404bf6:	push   0x10
  404bf8:	pop    ebx
  404bf9:	test   dl,0x4
  404bfc:	je     0x404c01
  404bfe:	or     ebx,0x8
  404c01:	test   dl,0x8
  404c04:	je     0x404c09
  404c06:	or     ebx,0x4
  404c09:	test   dl,0x10
  404c0c:	je     0x404c11
  404c0e:	or     ebx,0x2
  404c11:	test   dl,0x20
  404c14:	je     0x404c19
  404c16:	or     ebx,0x1
  404c19:	test   dl,0x2
  404c1c:	je     0x404c24
  404c1e:	or     ebx,0x80000
  404c24:	movzx  ecx,dx
  404c27:	mov    eax,ecx
  404c29:	and    eax,esi
  404c2b:	je     0x404c51
  404c2d:	cmp    eax,0x400
  404c32:	je     0x404c4b
  404c34:	cmp    eax,0x800
  404c39:	je     0x404c43
  404c3b:	cmp    eax,esi
  404c3d:	jne    0x404c51
  404c3f:	or     ebx,edi
  404c41:	jmp    0x404c51
  404c43:	or     ebx,0x200
  404c49:	jmp    0x404c51
  404c4b:	or     ebx,0x100
  404c51:	and    ecx,edi
  404c53:	je     0x404c65
  404c55:	cmp    ecx,0x200
  404c5b:	jne    0x404c6b
  404c5d:	or     ebx,0x10000
  404c63:	jmp    0x404c6b
  404c65:	or     ebx,0x20000
  404c6b:	test   edx,0x1000
  404c71:	je     0x404c79
  404c73:	or     ebx,0x40000
  404c79:	mov    eax,DWORD PTR [ebp+0x10]
  404c7c:	mov    DWORD PTR [eax],ebx
  404c7e:	mov    eax,DWORD PTR [ebp+0xc]
  404c81:	cmp    DWORD PTR [ebp+0x14],0x0
  404c85:	je     0x404e1c
  404c8b:	xor    esi,esi
  404c8d:	cmp    DWORD PTR ds:0x43db68,esi
  404c93:	je     0x404e17
  404c99:	and    eax,0x308031f
  404c9e:	mov    DWORD PTR [ebp-0x10],eax
  404ca1:	stmxcsr DWORD PTR [ebp-0xc]
  404ca5:	mov    eax,DWORD PTR [ebp-0xc]
  404ca8:	test   al,al
  404caa:	jns    0x404caf
  404cac:	push   0x10
  404cae:	pop    esi
  404caf:	test   eax,0x200
  404cb4:	je     0x404cb9
  404cb6:	or     esi,0x8
  404cb9:	test   eax,0x400
  404cbe:	je     0x404cc3
  404cc0:	or     esi,0x4
  404cc3:	test   eax,0x800
  404cc8:	je     0x404ccd
  404cca:	or     esi,0x2
  404ccd:	test   eax,0x1000
  404cd2:	je     0x404cd7
  404cd4:	or     esi,0x1
  404cd7:	test   eax,0x100
  404cdc:	je     0x404ce4
  404cde:	or     esi,0x80000
  404ce4:	mov    ecx,eax
  404ce6:	mov    edi,0x6000
  404ceb:	and    ecx,edi
  404ced:	je     0x404d19
  404cef:	cmp    ecx,0x2000
  404cf5:	je     0x404d13
  404cf7:	cmp    ecx,0x4000
  404cfd:	je     0x404d0b
  404cff:	cmp    ecx,edi
  404d01:	jne    0x404d19
  404d03:	or     esi,0x300
  404d09:	jmp    0x404d19
  404d0b:	or     esi,0x200
  404d11:	jmp    0x404d19
  404d13:	or     esi,0x100
  404d19:	mov    ebx,0x8040
  404d1e:	and    eax,ebx
  404d20:	sub    eax,0x40
  404d23:	je     0x404d41
  404d25:	sub    eax,0x7fc0
  404d2a:	je     0x404d39
  404d2c:	sub    eax,0x40
  404d2f:	jne    0x404d47
  404d31:	or     esi,0x1000000
  404d37:	jmp    0x404d47
  404d39:	or     esi,0x3000000
  404d3f:	jmp    0x404d47
  404d41:	or     esi,0x2000000
  404d47:	mov    eax,DWORD PTR [ebp-0x10]
  404d4a:	mov    edx,eax
  404d4c:	and    eax,DWORD PTR [ebp+0x8]
  404d4f:	not    edx
  404d51:	and    edx,esi
  404d53:	or     edx,eax
  404d55:	cmp    edx,esi
  404d57:	jne    0x404d60
  404d59:	mov    eax,esi
  404d5b:	jmp    0x404e10
  404d60:	call   0x404a70
  404d65:	push   eax
  404d66:	mov    DWORD PTR [ebp+0x10],eax
  404d69:	call   0x40ab6a
  404d6e:	pop    ecx
  404d6f:	stmxcsr DWORD PTR [ebp+0x10]
  404d73:	mov    ecx,DWORD PTR [ebp+0x10]
  404d76:	xor    edx,edx
  404d78:	test   cl,cl
  404d7a:	jns    0x404d7f
  404d7c:	push   0x10
  404d7e:	pop    edx
  404d7f:	test   ecx,0x200
  404d85:	je     0x404d8a
  404d87:	or     edx,0x8
  404d8a:	test   ecx,0x400
  404d90:	je     0x404d95
  404d92:	or     edx,0x4
  404d95:	test   ecx,0x800
  404d9b:	je     0x404da0
  404d9d:	or     edx,0x2
  404da0:	test   ecx,0x1000
  404da6:	je     0x404dab
  404da8:	or     edx,0x1
  404dab:	mov    esi,0x100
  404db0:	test   esi,ecx
  404db2:	je     0x404dba
  404db4:	or     edx,0x80000
  404dba:	mov    eax,ecx
  404dbc:	and    eax,edi
  404dbe:	je     0x404de4
  404dc0:	cmp    eax,0x2000
  404dc5:	je     0x404de2
  404dc7:	cmp    eax,0x4000
  404dcc:	je     0x404dda
  404dce:	cmp    eax,edi
  404dd0:	jne    0x404de4
  404dd2:	or     edx,0x300
  404dd8:	jmp    0x404de4
  404dda:	or     edx,0x200
  404de0:	jmp    0x404de4
  404de2:	or     edx,esi
  404de4:	and    ecx,ebx
  404de6:	sub    ecx,0x40
  404de9:	je     0x404e08
  404deb:	sub    ecx,0x7fc0
  404df1:	je     0x404e00
  404df3:	sub    ecx,0x40
  404df6:	jne    0x404e0e
  404df8:	or     edx,0x1000000
  404dfe:	jmp    0x404e0e
  404e00:	or     edx,0x3000000
  404e06:	jmp    0x404e0e
  404e08:	or     edx,0x2000000
  404e0e:	mov    eax,edx
  404e10:	mov    ecx,DWORD PTR [ebp+0x14]
  404e13:	mov    DWORD PTR [ecx],eax
  404e15:	jmp    0x404e1c
  404e17:	mov    eax,DWORD PTR [ebp+0x14]
  404e1a:	mov    DWORD PTR [eax],esi
  404e1c:	pop    edi
  404e1d:	xor    eax,eax
  404e1f:	pop    esi
  404e20:	inc    eax
  404e21:	pop    ebx
  404e22:	leave  
  404e23:	ret    
  404e24:	mov    edi,edi
  404e26:	push   ebp
  404e27:	mov    ebp,esp
  404e29:	sub    esp,0x14
  404e2c:	push   ebx
  404e2d:	push   esi
  404e2e:	push   edi
  404e2f:	fstcw  WORD PTR [ebp-0x8]
  404e33:	mov    ebx,DWORD PTR [ebp-0x8]
  404e36:	xor    edx,edx
  404e38:	test   bl,0x1
  404e3b:	je     0x404e40
  404e3d:	push   0x10
  404e3f:	pop    edx
  404e40:	test   bl,0x4
  404e43:	je     0x404e48
  404e45:	or     edx,0x8
  404e48:	test   bl,0x8
  404e4b:	je     0x404e50
  404e4d:	or     edx,0x4
  404e50:	test   bl,0x10
  404e53:	je     0x404e58
  404e55:	or     edx,0x2
  404e58:	test   bl,0x20
  404e5b:	je     0x404e60
  404e5d:	or     edx,0x1
  404e60:	test   bl,0x2
  404e63:	je     0x404e6b
  404e65:	or     edx,0x80000
  404e6b:	movzx  ecx,bx
  404e6e:	mov    eax,ecx
  404e70:	mov    esi,0xc00
  404e75:	and    eax,esi
  404e77:	mov    edi,0x300
  404e7c:	je     0x404ea2
  404e7e:	cmp    eax,0x400
  404e83:	je     0x404e9c
  404e85:	cmp    eax,0x800
  404e8a:	je     0x404e94
  404e8c:	cmp    eax,esi
  404e8e:	jne    0x404ea2
  404e90:	or     edx,edi
  404e92:	jmp    0x404ea2
  404e94:	or     edx,0x200
  404e9a:	jmp    0x404ea2
  404e9c:	or     edx,0x100
  404ea2:	and    ecx,edi
  404ea4:	je     0x404eb6
  404ea6:	cmp    ecx,0x200
  404eac:	jne    0x404ebc
  404eae:	or     edx,0x10000
  404eb4:	jmp    0x404ebc
  404eb6:	or     edx,0x20000
  404ebc:	test   ebx,0x1000
  404ec2:	je     0x404eca
  404ec4:	or     edx,0x40000
  404eca:	mov    edi,DWORD PTR [ebp+0xc]
  404ecd:	mov    ecx,DWORD PTR [ebp+0x8]
  404ed0:	mov    eax,edi
  404ed2:	not    eax
  404ed4:	and    eax,edx
  404ed6:	and    ecx,edi
  404ed8:	or     eax,ecx
  404eda:	mov    DWORD PTR [ebp+0xc],eax
  404edd:	cmp    eax,edx
  404edf:	je     0x404f93
  404ee5:	mov    ebx,eax
  404ee7:	call   0x4049e2
  404eec:	movzx  eax,ax
  404eef:	mov    DWORD PTR [ebp-0x4],eax
  404ef2:	fldcw  WORD PTR [ebp-0x4]
  404ef5:	fstcw  WORD PTR [ebp-0x4]
  404ef9:	mov    ebx,DWORD PTR [ebp-0x4]
  404efc:	xor    edx,edx
  404efe:	test   bl,0x1
  404f01:	je     0x404f06
  404f03:	push   0x10
  404f05:	pop    edx
  404f06:	test   bl,0x4
  404f09:	je     0x404f0e
  404f0b:	or     edx,0x8
  404f0e:	test   bl,0x8
  404f11:	je     0x404f16
  404f13:	or     edx,0x4
  404f16:	test   bl,0x10
  404f19:	je     0x404f1e
  404f1b:	or     edx,0x2
  404f1e:	test   bl,0x20
  404f21:	je     0x404f26
  404f23:	or     edx,0x1
  404f26:	test   bl,0x2
  404f29:	je     0x404f31
  404f2b:	or     edx,0x80000
  404f31:	movzx  ecx,bx
  404f34:	mov    eax,ecx
  404f36:	and    eax,esi
  404f38:	je     0x404f62
  404f3a:	cmp    eax,0x400
  404f3f:	je     0x404f5c
  404f41:	cmp    eax,0x800
  404f46:	je     0x404f54
  404f48:	cmp    eax,esi
  404f4a:	jne    0x404f62
  404f4c:	or     edx,0x300
  404f52:	jmp    0x404f62
  404f54:	or     edx,0x200
  404f5a:	jmp    0x404f62
  404f5c:	or     edx,0x100
  404f62:	and    ecx,0x300
  404f68:	je     0x404f7a
  404f6a:	cmp    ecx,0x200
  404f70:	jne    0x404f80
  404f72:	or     edx,0x10000
  404f78:	jmp    0x404f80
  404f7a:	or     edx,0x20000
  404f80:	test   ebx,0x1000
  404f86:	je     0x404f8e
  404f88:	or     edx,0x40000
  404f8e:	mov    DWORD PTR [ebp+0xc],edx
  404f91:	mov    eax,edx
  404f93:	xor    esi,esi
  404f95:	cmp    DWORD PTR ds:0x43db68,esi
  404f9b:	je     0x40512e
  404fa1:	and    edi,0x308031f
  404fa7:	mov    DWORD PTR [ebp-0x14],edi
  404faa:	stmxcsr DWORD PTR [ebp-0x10]
  404fae:	mov    eax,DWORD PTR [ebp-0x10]
  404fb1:	test   al,al
  404fb3:	jns    0x404fb8
  404fb5:	push   0x10
  404fb7:	pop    esi
  404fb8:	test   eax,0x200
  404fbd:	je     0x404fc2
  404fbf:	or     esi,0x8
  404fc2:	test   eax,0x400
  404fc7:	je     0x404fcc
  404fc9:	or     esi,0x4
  404fcc:	test   eax,0x800
  404fd1:	je     0x404fd6
  404fd3:	or     esi,0x2
  404fd6:	test   eax,0x1000
  404fdb:	je     0x404fe0
  404fdd:	or     esi,0x1
  404fe0:	test   eax,0x100
  404fe5:	je     0x404fed
  404fe7:	or     esi,0x80000
  404fed:	mov    ecx,eax
  404fef:	mov    ebx,0x6000
  404ff4:	and    ecx,ebx
  404ff6:	je     0x405022
  404ff8:	cmp    ecx,0x2000
  404ffe:	je     0x40501c
  405000:	cmp    ecx,0x4000
  405006:	je     0x405014
  405008:	cmp    ecx,ebx
  40500a:	jne    0x405022
  40500c:	or     esi,0x300
  405012:	jmp    0x405022
  405014:	or     esi,0x200
  40501a:	jmp    0x405022
  40501c:	or     esi,0x100
  405022:	mov    edi,0x8040
  405027:	and    eax,edi
  405029:	sub    eax,0x40
  40502c:	je     0x40504a
  40502e:	sub    eax,0x7fc0
  405033:	je     0x405042
  405035:	sub    eax,0x40
  405038:	jne    0x405050
  40503a:	or     esi,0x1000000
  405040:	jmp    0x405050
  405042:	or     esi,0x3000000
  405048:	jmp    0x405050
  40504a:	or     esi,0x2000000
  405050:	mov    eax,DWORD PTR [ebp-0x14]
  405053:	mov    edx,eax
  405055:	and    eax,DWORD PTR [ebp+0x8]
  405058:	not    edx
  40505a:	and    edx,esi
  40505c:	or     edx,eax
  40505e:	cmp    edx,esi
  405060:	jne    0x405069
  405062:	mov    eax,esi
  405064:	jmp    0x405119
  405069:	call   0x404a70
  40506e:	push   eax
  40506f:	mov    DWORD PTR [ebp-0xc],eax
  405072:	call   0x40ab6a
  405077:	pop    ecx
  405078:	stmxcsr DWORD PTR [ebp-0xc]
  40507c:	mov    ecx,DWORD PTR [ebp-0xc]
  40507f:	xor    edx,edx
  405081:	test   cl,cl
  405083:	jns    0x405088
  405085:	push   0x10
  405087:	pop    edx
  405088:	test   ecx,0x200
  40508e:	je     0x405093
  405090:	or     edx,0x8
  405093:	test   ecx,0x400
  405099:	je     0x40509e
  40509b:	or     edx,0x4
  40509e:	test   ecx,0x800
  4050a4:	je     0x4050a9
  4050a6:	or     edx,0x2
  4050a9:	test   ecx,0x1000
  4050af:	je     0x4050b4
  4050b1:	or     edx,0x1
  4050b4:	mov    esi,0x100
  4050b9:	test   esi,ecx
  4050bb:	je     0x4050c3
  4050bd:	or     edx,0x80000
  4050c3:	mov    eax,ecx
  4050c5:	and    eax,ebx
  4050c7:	je     0x4050ed
  4050c9:	cmp    eax,0x2000
  4050ce:	je     0x4050eb
  4050d0:	cmp    eax,0x4000
  4050d5:	je     0x4050e3
  4050d7:	cmp    eax,ebx
  4050d9:	jne    0x4050ed
  4050db:	or     edx,0x300
  4050e1:	jmp    0x4050ed
  4050e3:	or     edx,0x200
  4050e9:	jmp    0x4050ed
  4050eb:	or     edx,esi
  4050ed:	and    ecx,edi
  4050ef:	sub    ecx,0x40
  4050f2:	je     0x405111
  4050f4:	sub    ecx,0x7fc0
  4050fa:	je     0x405109
  4050fc:	sub    ecx,0x40
  4050ff:	jne    0x405117
  405101:	or     edx,0x1000000
  405107:	jmp    0x405117
  405109:	or     edx,0x3000000
  40510f:	jmp    0x405117
  405111:	or     edx,0x2000000
  405117:	mov    eax,edx
  405119:	mov    ecx,eax
  40511b:	xor    ecx,DWORD PTR [ebp+0xc]
  40511e:	or     eax,DWORD PTR [ebp+0xc]
  405121:	test   ecx,0x8031f
  405127:	je     0x40512e
  405129:	or     eax,0x80000000
  40512e:	pop    edi
  40512f:	pop    esi
  405130:	pop    ebx
  405131:	leave  
  405132:	ret    
  405133:	int3   
  405134:	int3   
  405135:	int3   
  405136:	int3   
  405137:	int3   
  405138:	int3   
  405139:	int3   
  40513a:	int3   
  40513b:	int3   
  40513c:	int3   
  40513d:	int3   
  40513e:	int3   
  40513f:	int3   
  405140:	cmp    DWORD PTR ds:0x43db64,0x0
  405147:	je     0x40b0c9
  40514d:	sub    esp,0x8
  405150:	stmxcsr DWORD PTR [esp+0x4]
  405155:	mov    eax,DWORD PTR [esp+0x4]
  405159:	and    eax,0x1f80
  40515e:	cmp    eax,0x1f80
  405163:	jne    0x405174
  405165:	fnstcw WORD PTR [esp]
  405168:	mov    ax,WORD PTR [esp]
  40516c:	and    ax,0x7f
  405170:	cmp    ax,0x7f
  405174:	lea    esp,[esp+0x8]
  405178:	jne    0x40b0c9
  40517e:	jmp    0x405180
  405180:	movq   xmm0,QWORD PTR [esp+0x4]
  405186:	movapd xmm2,XMMWORD PTR ds:0x419a70
  40518e:	movapd xmm1,xmm0
  405192:	movapd xmm7,xmm0
  405196:	psrlq  xmm0,0x34
  40519b:	movd   eax,xmm0
  40519f:	andpd  xmm0,XMMWORD PTR ds:0x419aa0
  4051a7:	psubd  xmm2,xmm0
  4051ab:	psrlq  xmm1,xmm2
  4051af:	test   eax,0x800
  4051b4:	jne    0x405202
  4051b6:	cmp    eax,0x3ff
  4051bb:	jl     0x40523a
  4051bd:	psllq  xmm1,xmm2
  4051c1:	cmp    eax,0x432
  4051c6:	jg     0x4051d3
  4051c8:	movq   QWORD PTR [esp+0x4],xmm1
  4051ce:	fld    QWORD PTR [esp+0x4]
  4051d2:	ret    
  4051d3:	ucomisd xmm7,xmm7
  4051d7:	jnp    0x4051fd
  4051d9:	mov    edx,0x3ed
  4051de:	sub    esp,0x10
  4051e1:	mov    DWORD PTR [esp+0xc],edx
  4051e5:	mov    edx,esp
  4051e7:	add    edx,0x14
  4051ea:	mov    DWORD PTR [esp+0x8],edx
  4051ee:	mov    DWORD PTR [esp+0x4],edx
  4051f2:	mov    DWORD PTR [esp],edx
  4051f5:	call   0x40ae19
  4051fa:	add    esp,0x10
  4051fd:	fld    QWORD PTR [esp+0x4]
  405201:	ret    
  405202:	movq   xmm0,QWORD PTR [esp+0x4]
  405208:	psllq  xmm1,xmm2
  40520c:	movapd xmm3,xmm0
  405210:	cmpltpd xmm0,xmm1
  405215:	cmp    eax,0xbff
  40521a:	jl     0x40523d
  40521c:	cmp    eax,0xc32
  405221:	jg     0x4051d3
  405223:	andpd  xmm0,XMMWORD PTR ds:0x419a60
  40522b:	subsd  xmm1,xmm0
  40522f:	movq   QWORD PTR [esp+0x4],xmm1
  405235:	fld    QWORD PTR [esp+0x4]
  405239:	ret    
  40523a:	fldz   
  40523c:	ret    
  40523d:	cmpltpd xmm3,XMMWORD PTR ds:0x419a90
  405246:	orpd   xmm3,XMMWORD PTR ds:0x419a90
  40524e:	andpd  xmm3,XMMWORD PTR ds:0x419a80
  405256:	movq   QWORD PTR [esp+0x4],xmm3
  40525c:	fld    QWORD PTR [esp+0x4]
  405260:	ret    
  405261:	ret    
  405262:	mov    eax,0x40bc56
  405267:	mov    ds:0x423d90,eax
  40526c:	mov    DWORD PTR ds:0x423d94,0x40b33d
  405276:	mov    DWORD PTR ds:0x423d98,0x40b2f1
  405280:	mov    DWORD PTR ds:0x423d9c,0x40b32a
  40528a:	mov    DWORD PTR ds:0x423da0,0x40b293
  405294:	mov    ds:0x423da4,eax
  405299:	mov    DWORD PTR ds:0x423da8,0x40bbce
  4052a3:	mov    DWORD PTR ds:0x423dac,0x40b2af
  4052ad:	mov    DWORD PTR ds:0x423db0,0x40b211
  4052b7:	mov    DWORD PTR ds:0x423db4,0x40b19e
  4052c1:	ret    
  4052c2:	mov    edi,edi
  4052c4:	push   ebp
  4052c5:	mov    ebp,esp
  4052c7:	call   0x405262
  4052cc:	call   0x40bcd8
  4052d1:	cmp    DWORD PTR [ebp+0x8],0x0
  4052d5:	mov    ds:0x43bfa0,eax
  4052da:	je     0x4052e1
  4052dc:	call   0x40abdc
  4052e1:	fnclex 
  4052e3:	pop    ebp
  4052e4:	ret    
  4052e5:	int3   
  4052e6:	int3   
  4052e7:	int3   
  4052e8:	int3   
  4052e9:	int3   
  4052ea:	int3   
  4052eb:	int3   
  4052ec:	int3   
  4052ed:	int3   
  4052ee:	int3   
  4052ef:	int3   
  4052f0:	cmp    DWORD PTR ds:0x43db68,0x0
  4052f7:	je     0x405326
  4052f9:	push   ebp
  4052fa:	mov    ebp,esp
  4052fc:	sub    esp,0x8
  4052ff:	and    esp,0xfffffff8
  405302:	fstp   QWORD PTR [esp]
  405305:	cvttsd2si eax,QWORD PTR [esp]
  40530a:	leave  
  40530b:	ret    
  40530c:	cmp    DWORD PTR ds:0x43db68,0x0
  405313:	je     0x405326
  405315:	sub    esp,0x4
  405318:	fnstcw WORD PTR [esp]
  40531b:	pop    eax
  40531c:	and    ax,0x7f
  405320:	cmp    ax,0x7f
  405324:	je     0x4052f9
  405326:	push   ebp
  405327:	mov    ebp,esp
  405329:	sub    esp,0x20
  40532c:	and    esp,0xfffffff0
  40532f:	fld    st(0)
  405331:	fst    DWORD PTR [esp+0x18]
  405335:	fistp  QWORD PTR [esp+0x10]
  405339:	fild   QWORD PTR [esp+0x10]
  40533d:	mov    edx,DWORD PTR [esp+0x18]
  405341:	mov    eax,DWORD PTR [esp+0x10]
  405345:	test   eax,eax
  405347:	je     0x405385
  405349:	fsubp  st(1),st
  40534b:	test   edx,edx
  40534d:	jns    0x40536d
  40534f:	fstp   DWORD PTR [esp]
  405352:	mov    ecx,DWORD PTR [esp]
  405355:	xor    ecx,0x80000000
  40535b:	add    ecx,0x7fffffff
  405361:	adc    eax,0x0
  405364:	mov    edx,DWORD PTR [esp+0x14]
  405368:	adc    edx,0x0
  40536b:	jmp    0x405399
  40536d:	fstp   DWORD PTR [esp]
  405370:	mov    ecx,DWORD PTR [esp]
  405373:	add    ecx,0x7fffffff
  405379:	sbb    eax,0x0
  40537c:	mov    edx,DWORD PTR [esp+0x14]
  405380:	sbb    edx,0x0
  405383:	jmp    0x405399
  405385:	mov    edx,DWORD PTR [esp+0x14]
  405389:	test   edx,0x7fffffff
  40538f:	jne    0x405349
  405391:	fstp   DWORD PTR [esp+0x18]
  405395:	fstp   DWORD PTR [esp+0x18]
  405399:	leave  
  40539a:	ret    
  40539b:	int3   
  40539c:	int3   
  40539d:	int3   
  40539e:	int3   
  40539f:	int3   
  4053a0:	cmp    DWORD PTR ds:0x43db64,0x0
  4053a7:	je     0x405417
  4053a9:	sub    esp,0x8
  4053ac:	stmxcsr DWORD PTR [esp+0x4]
  4053b1:	mov    eax,DWORD PTR [esp+0x4]
  4053b5:	and    eax,0x1f80
  4053ba:	cmp    eax,0x1f80
  4053bf:	jne    0x4053d0
  4053c1:	fnstcw WORD PTR [esp]
  4053c4:	mov    ax,WORD PTR [esp]
  4053c8:	and    ax,0x7f
  4053cc:	cmp    ax,0x7f
  4053d0:	lea    esp,[esp+0x8]
  4053d4:	jne    0x405417
  4053d6:	jmp    0x40bd28
  4053db:	nop
  4053dc:	cmp    DWORD PTR ds:0x43db64,0x0
  4053e3:	je     0x405421
  4053e5:	sub    esp,0x8
  4053e8:	stmxcsr DWORD PTR [esp+0x4]
  4053ed:	mov    eax,DWORD PTR [esp+0x4]
  4053f1:	and    eax,0x1f80
  4053f6:	cmp    eax,0x1f80
  4053fb:	jne    0x40540c
  4053fd:	fnstcw WORD PTR [esp]
  405400:	mov    ax,WORD PTR [esp]
  405404:	and    ax,0x7f
  405408:	cmp    ax,0x7f
  40540c:	lea    esp,[esp+0x8]
  405410:	jne    0x405421
  405412:	jmp    0x40bd10
  405417:	mov    edx,0x4231fa
  40541c:	jmp    0x40c1e1
  405421:	mov    edx,0x4231fa
  405426:	jmp    0x40c00e
  40542b:	mov    edi,edi
  40542d:	push   ebp
  40542e:	mov    ebp,esp
  405430:	cmp    DWORD PTR [ebp+0x14],0x0
  405434:	jl     0x40545f
  405436:	jg     0x40543e
  405438:	cmp    DWORD PTR [ebp+0x10],0x0
  40543c:	jb     0x40545f
  40543e:	mov    ecx,DWORD PTR [ebp+0xc]
  405441:	test   ecx,ecx
  405443:	jl     0x40545f
  405445:	mov    eax,DWORD PTR [ebp+0x8]
  405448:	jg     0x40544e
  40544a:	test   eax,eax
  40544c:	jb     0x40545f
  40544e:	sub    eax,DWORD PTR [ebp+0x10]
  405451:	sbb    ecx,DWORD PTR [ebp+0x14]
  405454:	mov    DWORD PTR [ebp+0x10],eax
  405457:	mov    DWORD PTR [ebp+0x14],ecx
  40545a:	fild   QWORD PTR [ebp+0x10]
  40545d:	pop    ebp
  40545e:	ret    
  40545f:	call   0x4087a4
  405464:	fldz   
  405466:	mov    DWORD PTR [eax],0x16
  40546c:	pop    ebp
  40546d:	ret    
  40546e:	mov    edi,edi
  405470:	push   ebp
  405471:	mov    ebp,esp
  405473:	mov    eax,DWORD PTR [ebp+0x8]
  405476:	sub    esp,0x24
  405479:	push   esi
  40547a:	xor    esi,esi
  40547c:	cmp    eax,esi
  40547e:	jne    0x40549d
  405480:	call   0x4087a4
  405485:	push   esi
  405486:	push   esi
  405487:	push   esi
  405488:	push   esi
  405489:	push   esi
  40548a:	mov    DWORD PTR [eax],0x16
  405490:	call   0x40873c
  405495:	add    esp,0x14
  405498:	xor    eax,eax
  40549a:	pop    esi
  40549b:	leave  
  40549c:	ret    
  40549d:	cmp    DWORD PTR [eax+0x4],esi
  4054a0:	jg     0x4054b5
  4054a2:	jl     0x4054a8
  4054a4:	cmp    DWORD PTR [eax],esi
  4054a6:	jae    0x4054b5
  4054a8:	call   0x4087a4
  4054ad:	mov    DWORD PTR [eax],0x16
  4054b3:	jmp    0x405498
  4054b5:	push   eax
  4054b6:	lea    eax,[ebp-0x24]
  4054b9:	push   eax
  4054ba:	call   0x4054d1
  4054bf:	pop    ecx
  4054c0:	pop    ecx
  4054c1:	test   eax,eax
  4054c3:	jne    0x405498
  4054c5:	lea    eax,[ebp-0x24]
  4054c8:	push   eax
  4054c9:	call   0x4046a8
  4054ce:	pop    ecx
  4054cf:	jmp    0x40549a
  4054d1:	mov    edi,edi
  4054d3:	push   ebp
  4054d4:	mov    ebp,esp
  4054d6:	sub    esp,0x14
  4054d9:	push   ebx
  4054da:	xor    ebx,ebx
  4054dc:	push   esi
  4054dd:	mov    esi,DWORD PTR [ebp+0x8]
  4054e0:	mov    DWORD PTR [ebp-0x8],ebx
  4054e3:	mov    DWORD PTR [ebp-0xc],ebx
  4054e6:	mov    DWORD PTR [ebp-0x4],ebx
  4054e9:	cmp    esi,ebx
  4054eb:	jne    0x40550b
  4054ed:	call   0x4087a4
  4054f2:	push   0x16
  4054f4:	pop    esi
  4054f5:	push   ebx
  4054f6:	push   ebx
  4054f7:	push   ebx
  4054f8:	push   ebx
  4054f9:	push   ebx
  4054fa:	mov    DWORD PTR [eax],esi
  4054fc:	call   0x40873c
  405501:	add    esp,0x14
  405504:	mov    eax,esi
  405506:	jmp    0x405746
  40550b:	push   edi
  40550c:	push   0x24
  40550e:	push   0xff
  405513:	push   esi
  405514:	call   0x40cc70
  405519:	mov    edi,DWORD PTR [ebp+0xc]
  40551c:	add    esp,0xc
  40551f:	cmp    edi,ebx
  405521:	jne    0x40553c
  405523:	call   0x4087a4
  405528:	push   0x16
  40552a:	pop    esi
  40552b:	push   ebx
  40552c:	push   ebx
  40552d:	push   ebx
  40552e:	push   ebx
  40552f:	push   ebx
  405530:	mov    DWORD PTR [eax],esi
  405532:	call   0x40873c
  405537:	add    esp,0x14
  40553a:	jmp    0x405564
  40553c:	mov    eax,DWORD PTR [edi+0x4]
  40553f:	cmp    eax,ebx
  405541:	mov    ecx,DWORD PTR [edi]
  405543:	jg     0x40554b
  405545:	jl     0x40555a
  405547:	cmp    ecx,ebx
  405549:	jb     0x40555a
  40554b:	cmp    eax,0x7
  40554e:	jl     0x40556b
  405550:	jg     0x40555a
  405552:	cmp    ecx,0x93406fff
  405558:	jbe    0x40556b
  40555a:	call   0x4087a4
  40555f:	push   0x16
  405561:	pop    esi
  405562:	mov    DWORD PTR [eax],esi
  405564:	mov    eax,esi
  405566:	jmp    0x405745
  40556b:	call   0x40c998
  405570:	lea    eax,[ebp-0x8]
  405573:	push   eax
  405574:	call   0x408542
  405579:	pop    ecx
  40557a:	test   eax,eax
  40557c:	je     0x40558b
  40557e:	push   ebx
  40557f:	push   ebx
  405580:	push   ebx
  405581:	push   ebx
  405582:	push   ebx
  405583:	call   0x408614
  405588:	add    esp,0x14
  40558b:	lea    eax,[ebp-0xc]
  40558e:	push   eax
  40558f:	call   0x40857b
  405594:	pop    ecx
  405595:	test   eax,eax
  405597:	je     0x4055a6
  405599:	push   ebx
  40559a:	push   ebx
  40559b:	push   ebx
  40559c:	push   ebx
  40559d:	push   ebx
  40559e:	call   0x408614
  4055a3:	add    esp,0x14
  4055a6:	lea    eax,[ebp-0x4]
  4055a9:	push   eax
  4055aa:	call   0x4085b4
  4055af:	pop    ecx
  4055b0:	test   eax,eax
  4055b2:	je     0x4055c1
  4055b4:	push   ebx
  4055b5:	push   ebx
  4055b6:	push   ebx
  4055b7:	push   ebx
  4055b8:	push   ebx
  4055b9:	call   0x408614
  4055be:	add    esp,0x14
  4055c1:	mov    eax,DWORD PTR [ebp+0xc]
  4055c4:	mov    ecx,DWORD PTR [eax+0x4]
  4055c7:	cmp    ecx,ebx
  4055c9:	mov    edi,DWORD PTR [edi]
  4055cb:	jl     0x40563b
  4055cd:	jg     0x4055d7
  4055cf:	cmp    edi,0x3f480
  4055d5:	jbe    0x40563b
  4055d7:	mov    eax,DWORD PTR [ebp-0x4]
  4055da:	cdq    
  4055db:	sub    edi,eax
  4055dd:	lea    eax,[ebp-0x14]
  4055e0:	push   eax
  4055e1:	sbb    ecx,edx
  4055e3:	push   esi
  4055e4:	mov    DWORD PTR [ebp-0x14],edi
  4055e7:	mov    DWORD PTR [ebp-0x10],ecx
  4055ea:	call   0x40ca28
  4055ef:	pop    ecx
  4055f0:	pop    ecx
  4055f1:	cmp    eax,ebx
  4055f3:	jne    0x405745
  4055f9:	cmp    DWORD PTR [ebp-0x8],ebx
  4055fc:	je     0x405743
  405602:	push   esi
  405603:	call   0x40c9e7
  405608:	pop    ecx
  405609:	test   eax,eax
  40560b:	je     0x405743
  405611:	mov    eax,DWORD PTR [ebp-0xc]
  405614:	cdq    
  405615:	sub    DWORD PTR [ebp-0x14],eax
  405618:	lea    eax,[ebp-0x14]
  40561b:	push   eax
  40561c:	sbb    DWORD PTR [ebp-0x10],edx
  40561f:	push   esi
  405620:	call   0x40ca28
  405625:	pop    ecx
  405626:	pop    ecx
  405627:	cmp    eax,ebx
  405629:	jne    0x405745
  40562f:	mov    DWORD PTR [esi+0x20],0x1
  405636:	jmp    0x405743
  40563b:	push   eax
  40563c:	push   esi
  40563d:	call   0x40ca28
  405642:	pop    ecx
  405643:	pop    ecx
  405644:	cmp    eax,ebx
  405646:	jne    0x405745
  40564c:	cmp    DWORD PTR [ebp-0x8],ebx
  40564f:	je     0x405683
  405651:	push   esi
  405652:	call   0x40c9e7
  405657:	pop    ecx
  405658:	test   eax,eax
  40565a:	je     0x405683
  40565c:	mov    ecx,DWORD PTR [ebp-0xc]
  40565f:	mov    eax,DWORD PTR [ebp-0x4]
  405662:	add    eax,ecx
  405664:	cdq    
  405665:	mov    ecx,eax
  405667:	mov    eax,edx
  405669:	mov    DWORD PTR [ebp+0x8],eax
  40566c:	mov    eax,DWORD PTR [esi]
  40566e:	cdq    
  40566f:	mov    edi,eax
  405671:	sub    edi,ecx
  405673:	mov    ecx,DWORD PTR [ebp+0x8]
  405676:	mov    ebx,edx
  405678:	sbb    ebx,ecx
  40567a:	mov    DWORD PTR [esi+0x20],0x1
  405681:	jmp    0x405692
  405683:	mov    eax,DWORD PTR [esi]
  405685:	cdq    
  405686:	mov    edi,eax
  405688:	mov    eax,DWORD PTR [ebp-0x4]
  40568b:	mov    ebx,edx
  40568d:	cdq    
  40568e:	sub    edi,eax
  405690:	sbb    ebx,edx
  405692:	push   0x0
  405694:	push   0x3c
  405696:	push   ebx
  405697:	push   edi
  405698:	call   0x40cda0
  40569d:	mov    DWORD PTR [esi],eax
  40569f:	test   eax,eax
  4056a1:	jge    0x4056ae
  4056a3:	add    eax,0x3c
  4056a6:	add    edi,0xffffffc4
  4056a9:	mov    DWORD PTR [esi],eax
  4056ab:	adc    ebx,0xffffffff
  4056ae:	push   0x0
  4056b0:	push   0x3c
  4056b2:	push   ebx
  4056b3:	push   edi
  4056b4:	call   0x40ccf0
  4056b9:	mov    edi,eax
  4056bb:	mov    eax,DWORD PTR [esi+0x4]
  4056be:	mov    ebx,edx
  4056c0:	cdq    
  4056c1:	push   0x0
  4056c3:	add    edi,eax
  4056c5:	push   0x3c
  4056c7:	adc    ebx,edx
  4056c9:	push   ebx
  4056ca:	push   edi
  4056cb:	call   0x40cda0
  4056d0:	mov    DWORD PTR [esi+0x4],eax
  4056d3:	test   eax,eax
  4056d5:	jge    0x4056e3
  4056d7:	add    eax,0x3c
  4056da:	add    edi,0xffffffc4
  4056dd:	mov    DWORD PTR [esi+0x4],eax
  4056e0:	adc    ebx,0xffffffff
  4056e3:	push   0x0
  4056e5:	push   0x3c
  4056e7:	push   ebx
  4056e8:	push   edi
  4056e9:	call   0x40ccf0
  4056ee:	mov    edi,eax
  4056f0:	mov    eax,DWORD PTR [esi+0x8]
  4056f3:	mov    ebx,edx
  4056f5:	cdq    
  4056f6:	push   0x0
  4056f8:	add    edi,eax
  4056fa:	push   0x18
  4056fc:	adc    ebx,edx
  4056fe:	push   ebx
  4056ff:	push   edi
  405700:	call   0x40cda0
  405705:	mov    DWORD PTR [esi+0x8],eax
  405708:	test   eax,eax
  40570a:	jge    0x405718
  40570c:	add    eax,0x18
  40570f:	add    edi,0xffffffe8
  405712:	mov    DWORD PTR [esi+0x8],eax
  405715:	adc    ebx,0xffffffff
  405718:	push   0x0
  40571a:	push   0x18
  40571c:	push   ebx
  40571d:	push   edi
  40571e:	call   0x40ccf0
  405723:	mov    ecx,eax
  405725:	test   edx,edx
  405727:	jl     0x405754
  405729:	jg     0x40572f
  40572b:	test   ecx,ecx
  40572d:	jbe    0x40574a
  40572f:	mov    eax,DWORD PTR [esi+0x18]
  405732:	add    eax,ecx
  405734:	push   0x7
  405736:	cdq    
  405737:	pop    edi
  405738:	idiv   edi
  40573a:	add    DWORD PTR [esi+0xc],ecx
  40573d:	mov    DWORD PTR [esi+0x18],edx
  405740:	add    DWORD PTR [esi+0x1c],ecx
  405743:	xor    eax,eax
  405745:	pop    edi
  405746:	pop    esi
  405747:	pop    ebx
  405748:	leave  
  405749:	ret    
  40574a:	test   edx,edx
  40574c:	jg     0x405743
  40574e:	jl     0x405754
  405750:	test   ecx,ecx
  405752:	jae    0x405743
  405754:	mov    eax,DWORD PTR [esi+0x18]
  405757:	lea    eax,[ecx+eax*1+0x7]
  40575b:	cdq    
  40575c:	push   0x7
  40575e:	pop    edi
  40575f:	idiv   edi
  405761:	add    DWORD PTR [esi+0xc],ecx
  405764:	mov    eax,DWORD PTR [esi+0xc]
  405767:	mov    DWORD PTR [esi+0x18],edx
  40576a:	test   eax,eax
  40576c:	jg     0x405740
  40576e:	add    ecx,0x16d
  405774:	add    DWORD PTR [esi+0x1c],ecx
  405777:	add    eax,0x1f
  40577a:	dec    DWORD PTR [esi+0x14]
  40577d:	mov    DWORD PTR [esi+0xc],eax
  405780:	mov    DWORD PTR [esi+0x10],0xb
  405787:	jmp    0x405743
  405789:	mov    edi,edi
  40578b:	push   ebp
  40578c:	mov    ebp,esp
  40578e:	push   esi
  40578f:	call   0x40ce52
  405794:	mov    esi,eax
  405796:	test   esi,esi
  405798:	je     0x4057ad
  40579a:	push   DWORD PTR [ebp+0x8]
  40579d:	push   esi
  40579e:	call   0x4054d1
  4057a3:	neg    eax
  4057a5:	sbb    eax,eax
  4057a7:	pop    ecx
  4057a8:	not    eax
  4057aa:	pop    ecx
  4057ab:	and    eax,esi
  4057ad:	pop    esi
  4057ae:	pop    ebp
  4057af:	ret    
  4057b0:	mov    edi,edi
  4057b2:	push   ebp
  4057b3:	mov    ebp,esp
  4057b5:	push   ecx
  4057b6:	push   ecx
  4057b7:	lea    eax,[ebp-0x8]
  4057ba:	push   eax
  4057bb:	call   DWORD PTR ds:0x419488
  4057c1:	mov    eax,DWORD PTR [ebp-0x8]
  4057c4:	mov    ecx,DWORD PTR [ebp-0x4]
  4057c7:	push   0x0
  4057c9:	add    eax,0x2ac18000
  4057ce:	push   0x989680
  4057d3:	adc    ecx,0xfe624e21
  4057d9:	push   ecx
  4057da:	push   eax
  4057db:	call   0x40ce90
  4057e0:	cmp    edx,0x7
  4057e3:	jl     0x4057f3
  4057e5:	jg     0x4057ee
  4057e7:	cmp    eax,0x93406fff
  4057ec:	jbe    0x4057f3
  4057ee:	or     eax,0xffffffff
  4057f1:	mov    edx,eax
  4057f3:	mov    ecx,DWORD PTR [ebp+0x8]
  4057f6:	test   ecx,ecx
  4057f8:	je     0x4057ff
  4057fa:	mov    DWORD PTR [ecx],eax
  4057fc:	mov    DWORD PTR [ecx+0x4],edx
  4057ff:	leave  
  405800:	ret    
  405801:	mov    edi,edi
  405803:	push   ebp
  405804:	mov    ebp,esp
  405806:	push   esi
  405807:	push   edi
  405808:	mov    edi,DWORD PTR [ebp+0x10]
  40580b:	mov    eax,edi
  40580d:	sub    eax,0x0
  405810:	je     0x406dfb
  405816:	dec    eax
  405817:	je     0x406dea
  40581d:	dec    eax
  40581e:	je     0x406dbc
  405824:	dec    eax
  405825:	je     0x406d74
  40582b:	dec    eax
  40582c:	je     0x406ceb
  405832:	mov    ecx,DWORD PTR [ebp+0xc]
  405835:	mov    eax,DWORD PTR [ebp+0x8]
  405838:	push   ebx
  405839:	push   0x20
  40583b:	pop    edx
  40583c:	jmp    0x405cb3
  405841:	mov    esi,DWORD PTR [eax]
  405843:	cmp    esi,DWORD PTR [ecx]
  405845:	je     0x4058c3
  405847:	movzx  esi,BYTE PTR [eax]
  40584a:	movzx  ebx,BYTE PTR [ecx]
  40584d:	sub    esi,ebx
  40584f:	je     0x405866
  405851:	xor    ebx,ebx
  405853:	test   esi,esi
  405855:	setg   bl
  405858:	lea    ebx,[ebx+ebx*1-0x1]
  40585c:	mov    esi,ebx
  40585e:	test   esi,esi
  405860:	jne    0x405ccf
  405866:	movzx  esi,BYTE PTR [eax+0x1]
  40586a:	movzx  ebx,BYTE PTR [ecx+0x1]
  40586e:	sub    esi,ebx
  405870:	je     0x405887
  405872:	xor    ebx,ebx
  405874:	test   esi,esi
  405876:	setg   bl
  405879:	lea    ebx,[ebx+ebx*1-0x1]
  40587d:	mov    esi,ebx
  40587f:	test   esi,esi
  405881:	jne    0x405ccf
  405887:	movzx  esi,BYTE PTR [eax+0x2]
  40588b:	movzx  ebx,BYTE PTR [ecx+0x2]
  40588f:	sub    esi,ebx
  405891:	je     0x4058a8
  405893:	xor    ebx,ebx
  405895:	test   esi,esi
  405897:	setg   bl
  40589a:	lea    ebx,[ebx+ebx*1-0x1]
  40589e:	mov    esi,ebx
  4058a0:	test   esi,esi
  4058a2:	jne    0x405ccf
  4058a8:	movzx  esi,BYTE PTR [eax+0x3]
  4058ac:	movzx  ebx,BYTE PTR [ecx+0x3]
  4058b0:	sub    esi,ebx
  4058b2:	je     0x4058c5
  4058b4:	xor    ebx,ebx
  4058b6:	test   esi,esi
  4058b8:	setg   bl
  4058bb:	lea    ebx,[ebx+ebx*1-0x1]
  4058bf:	mov    esi,ebx
  4058c1:	jmp    0x4058c5
  4058c3:	xor    esi,esi
  4058c5:	test   esi,esi
  4058c7:	jne    0x405ccf
  4058cd:	mov    esi,DWORD PTR [eax+0x4]
  4058d0:	cmp    esi,DWORD PTR [ecx+0x4]
  4058d3:	je     0x405953
  4058d5:	movzx  esi,BYTE PTR [eax+0x4]
  4058d9:	movzx  ebx,BYTE PTR [ecx+0x4]
  4058dd:	sub    esi,ebx
  4058df:	je     0x4058f6
  4058e1:	xor    ebx,ebx
  4058e3:	test   esi,esi
  4058e5:	setg   bl
  4058e8:	lea    ebx,[ebx+ebx*1-0x1]
  4058ec:	mov    esi,ebx
  4058ee:	test   esi,esi
  4058f0:	jne    0x405ccf
  4058f6:	movzx  esi,BYTE PTR [eax+0x5]
  4058fa:	movzx  ebx,BYTE PTR [ecx+0x5]
  4058fe:	sub    esi,ebx
  405900:	je     0x405917
  405902:	xor    ebx,ebx
  405904:	test   esi,esi
  405906:	setg   bl
  405909:	lea    ebx,[ebx+ebx*1-0x1]
  40590d:	mov    esi,ebx
  40590f:	test   esi,esi
  405911:	jne    0x405ccf
  405917:	movzx  esi,BYTE PTR [eax+0x6]
  40591b:	movzx  ebx,BYTE PTR [ecx+0x6]
  40591f:	sub    esi,ebx
  405921:	je     0x405938
  405923:	xor    ebx,ebx
  405925:	test   esi,esi
  405927:	setg   bl
  40592a:	lea    ebx,[ebx+ebx*1-0x1]
  40592e:	mov    esi,ebx
  405930:	test   esi,esi
  405932:	jne    0x405ccf
  405938:	movzx  esi,BYTE PTR [eax+0x7]
  40593c:	movzx  ebx,BYTE PTR [ecx+0x7]
  405940:	sub    esi,ebx
  405942:	je     0x405955
  405944:	xor    ebx,ebx
  405946:	test   esi,esi
  405948:	setg   bl
  40594b:	lea    ebx,[ebx+ebx*1-0x1]
  40594f:	mov    esi,ebx
  405951:	jmp    0x405955
  405953:	xor    esi,esi
  405955:	test   esi,esi
  405957:	jne    0x405ccf
  40595d:	mov    esi,DWORD PTR [eax+0x8]
  405960:	cmp    esi,DWORD PTR [ecx+0x8]
  405963:	je     0x4059e3
  405965:	movzx  esi,BYTE PTR [eax+0x8]
  405969:	movzx  ebx,BYTE PTR [ecx+0x8]
  40596d:	sub    esi,ebx
  40596f:	je     0x405986
  405971:	xor    ebx,ebx
  405973:	test   esi,esi
  405975:	setg   bl
  405978:	lea    ebx,[ebx+ebx*1-0x1]
  40597c:	mov    esi,ebx
  40597e:	test   esi,esi
  405980:	jne    0x405ccf
  405986:	movzx  esi,BYTE PTR [eax+0x9]
  40598a:	movzx  ebx,BYTE PTR [ecx+0x9]
  40598e:	sub    esi,ebx
  405990:	je     0x4059a7
  405992:	xor    ebx,ebx
  405994:	test   esi,esi
  405996:	setg   bl
  405999:	lea    ebx,[ebx+ebx*1-0x1]
  40599d:	mov    esi,ebx
  40599f:	test   esi,esi
  4059a1:	jne    0x405ccf
  4059a7:	movzx  esi,BYTE PTR [eax+0xa]
  4059ab:	movzx  ebx,BYTE PTR [ecx+0xa]
  4059af:	sub    esi,ebx
  4059b1:	je     0x4059c8
  4059b3:	xor    ebx,ebx
  4059b5:	test   esi,esi
  4059b7:	setg   bl
  4059ba:	lea    ebx,[ebx+ebx*1-0x1]
  4059be:	mov    esi,ebx
  4059c0:	test   esi,esi
  4059c2:	jne    0x405ccf
  4059c8:	movzx  esi,BYTE PTR [eax+0xb]
  4059cc:	movzx  ebx,BYTE PTR [ecx+0xb]
  4059d0:	sub    esi,ebx
  4059d2:	je     0x4059e5
  4059d4:	xor    ebx,ebx
  4059d6:	test   esi,esi
  4059d8:	setg   bl
  4059db:	lea    ebx,[ebx+ebx*1-0x1]
  4059df:	mov    esi,ebx
  4059e1:	jmp    0x4059e5
  4059e3:	xor    esi,esi
  4059e5:	test   esi,esi
  4059e7:	jne    0x405ccf
  4059ed:	mov    esi,DWORD PTR [eax+0xc]
  4059f0:	cmp    esi,DWORD PTR [ecx+0xc]
  4059f3:	je     0x405a73
  4059f5:	movzx  esi,BYTE PTR [eax+0xc]
  4059f9:	movzx  ebx,BYTE PTR [ecx+0xc]
  4059fd:	sub    esi,ebx
  4059ff:	je     0x405a16
  405a01:	xor    ebx,ebx
  405a03:	test   esi,esi
  405a05:	setg   bl
  405a08:	lea    ebx,[ebx+ebx*1-0x1]
  405a0c:	mov    esi,ebx
  405a0e:	test   esi,esi
  405a10:	jne    0x405ccf
  405a16:	movzx  esi,BYTE PTR [eax+0xd]
  405a1a:	movzx  ebx,BYTE PTR [ecx+0xd]
  405a1e:	sub    esi,ebx
  405a20:	je     0x405a37
  405a22:	xor    ebx,ebx
  405a24:	test   esi,esi
  405a26:	setg   bl
  405a29:	lea    ebx,[ebx+ebx*1-0x1]
  405a2d:	mov    esi,ebx
  405a2f:	test   esi,esi
  405a31:	jne    0x405ccf
  405a37:	movzx  esi,BYTE PTR [eax+0xe]
  405a3b:	movzx  ebx,BYTE PTR [ecx+0xe]
  405a3f:	sub    esi,ebx
  405a41:	je     0x405a58
  405a43:	xor    ebx,ebx
  405a45:	test   esi,esi
  405a47:	setg   bl
  405a4a:	lea    ebx,[ebx+ebx*1-0x1]
  405a4e:	mov    esi,ebx
  405a50:	test   esi,esi
  405a52:	jne    0x405ccf
  405a58:	movzx  esi,BYTE PTR [eax+0xf]
  405a5c:	movzx  ebx,BYTE PTR [ecx+0xf]
  405a60:	sub    esi,ebx
  405a62:	je     0x405a75
  405a64:	xor    ebx,ebx
  405a66:	test   esi,esi
  405a68:	setg   bl
  405a6b:	lea    ebx,[ebx+ebx*1-0x1]
  405a6f:	mov    esi,ebx
  405a71:	jmp    0x405a75
  405a73:	xor    esi,esi
  405a75:	test   esi,esi
  405a77:	jne    0x405ccf
  405a7d:	mov    esi,DWORD PTR [eax+0x10]
  405a80:	cmp    esi,DWORD PTR [ecx+0x10]
  405a83:	je     0x405b03
  405a85:	movzx  ebx,BYTE PTR [ecx+0x10]
  405a89:	movzx  esi,BYTE PTR [eax+0x10]
  405a8d:	sub    esi,ebx
  405a8f:	je     0x405aa6
  405a91:	xor    ebx,ebx
  405a93:	test   esi,esi
  405a95:	setg   bl
  405a98:	lea    ebx,[ebx+ebx*1-0x1]
  405a9c:	mov    esi,ebx
  405a9e:	test   esi,esi
  405aa0:	jne    0x405ccf
  405aa6:	movzx  esi,BYTE PTR [eax+0x11]
  405aaa:	movzx  ebx,BYTE PTR [ecx+0x11]
  405aae:	sub    esi,ebx
  405ab0:	je     0x405ac7
  405ab2:	xor    ebx,ebx
  405ab4:	test   esi,esi
  405ab6:	setg   bl
  405ab9:	lea    ebx,[ebx+ebx*1-0x1]
  405abd:	mov    esi,ebx
  405abf:	test   esi,esi
  405ac1:	jne    0x405ccf
  405ac7:	movzx  esi,BYTE PTR [eax+0x12]
  405acb:	movzx  ebx,BYTE PTR [ecx+0x12]
  405acf:	sub    esi,ebx
  405ad1:	je     0x405ae8
  405ad3:	xor    ebx,ebx
  405ad5:	test   esi,esi
  405ad7:	setg   bl
  405ada:	lea    ebx,[ebx+ebx*1-0x1]
  405ade:	mov    esi,ebx
  405ae0:	test   esi,esi
  405ae2:	jne    0x405ccf
  405ae8:	movzx  esi,BYTE PTR [eax+0x13]
  405aec:	movzx  ebx,BYTE PTR [ecx+0x13]
  405af0:	sub    esi,ebx
  405af2:	je     0x405b05
  405af4:	xor    ebx,ebx
  405af6:	test   esi,esi
  405af8:	setg   bl
  405afb:	lea    ebx,[ebx+ebx*1-0x1]
  405aff:	mov    esi,ebx
  405b01:	jmp    0x405b05
  405b03:	xor    esi,esi
  405b05:	test   esi,esi
  405b07:	jne    0x405ccf
  405b0d:	mov    esi,DWORD PTR [eax+0x14]
  405b10:	cmp    esi,DWORD PTR [ecx+0x14]
  405b13:	je     0x405b93
  405b15:	movzx  esi,BYTE PTR [eax+0x14]
  405b19:	movzx  ebx,BYTE PTR [ecx+0x14]
  405b1d:	sub    esi,ebx
  405b1f:	je     0x405b36
  405b21:	xor    ebx,ebx
  405b23:	test   esi,esi
  405b25:	setg   bl
  405b28:	lea    ebx,[ebx+ebx*1-0x1]
  405b2c:	mov    esi,ebx
  405b2e:	test   esi,esi
  405b30:	jne    0x405ccf
  405b36:	movzx  esi,BYTE PTR [eax+0x15]
  405b3a:	movzx  ebx,BYTE PTR [ecx+0x15]
  405b3e:	sub    esi,ebx
  405b40:	je     0x405b57
  405b42:	xor    ebx,ebx
  405b44:	test   esi,esi
  405b46:	setg   bl
  405b49:	lea    ebx,[ebx+ebx*1-0x1]
  405b4d:	mov    esi,ebx
  405b4f:	test   esi,esi
  405b51:	jne    0x405ccf
  405b57:	movzx  esi,BYTE PTR [eax+0x16]
  405b5b:	movzx  ebx,BYTE PTR [ecx+0x16]
  405b5f:	sub    esi,ebx
  405b61:	je     0x405b78
  405b63:	xor    ebx,ebx
  405b65:	test   esi,esi
  405b67:	setg   bl
  405b6a:	lea    ebx,[ebx+ebx*1-0x1]
  405b6e:	mov    esi,ebx
  405b70:	test   esi,esi
  405b72:	jne    0x405ccf
  405b78:	movzx  esi,BYTE PTR [eax+0x17]
  405b7c:	movzx  ebx,BYTE PTR [ecx+0x17]
  405b80:	sub    esi,ebx
  405b82:	je     0x405b95
  405b84:	xor    ebx,ebx
  405b86:	test   esi,esi
  405b88:	setg   bl
  405b8b:	lea    ebx,[ebx+ebx*1-0x1]
  405b8f:	mov    esi,ebx
  405b91:	jmp    0x405b95
  405b93:	xor    esi,esi
  405b95:	test   esi,esi
  405b97:	jne    0x405ccf
  405b9d:	mov    esi,DWORD PTR [eax+0x18]
  405ba0:	cmp    esi,DWORD PTR [ecx+0x18]
  405ba3:	je     0x405c23
  405ba5:	movzx  esi,BYTE PTR [eax+0x18]
  405ba9:	movzx  ebx,BYTE PTR [ecx+0x18]
  405bad:	sub    esi,ebx
  405baf:	je     0x405bc6
  405bb1:	xor    ebx,ebx
  405bb3:	test   esi,esi
  405bb5:	setg   bl
  405bb8:	lea    ebx,[ebx+ebx*1-0x1]
  405bbc:	mov    esi,ebx
  405bbe:	test   esi,esi
  405bc0:	jne    0x405ccf
  405bc6:	movzx  esi,BYTE PTR [eax+0x19]
  405bca:	movzx  ebx,BYTE PTR [ecx+0x19]
  405bce:	sub    esi,ebx
  405bd0:	je     0x405be7
  405bd2:	xor    ebx,ebx
  405bd4:	test   esi,esi
  405bd6:	setg   bl
  405bd9:	lea    ebx,[ebx+ebx*1-0x1]
  405bdd:	mov    esi,ebx
  405bdf:	test   esi,esi
  405be1:	jne    0x405ccf
  405be7:	movzx  esi,BYTE PTR [eax+0x1a]
  405beb:	movzx  ebx,BYTE PTR [ecx+0x1a]
  405bef:	sub    esi,ebx
  405bf1:	je     0x405c08
  405bf3:	xor    ebx,ebx
  405bf5:	test   esi,esi
  405bf7:	setg   bl
  405bfa:	lea    ebx,[ebx+ebx*1-0x1]
  405bfe:	mov    esi,ebx
  405c00:	test   esi,esi
  405c02:	jne    0x405ccf
  405c08:	movzx  esi,BYTE PTR [eax+0x1b]
  405c0c:	movzx  ebx,BYTE PTR [ecx+0x1b]
  405c10:	sub    esi,ebx
  405c12:	je     0x405c25
  405c14:	xor    ebx,ebx
  405c16:	test   esi,esi
  405c18:	setg   bl
  405c1b:	lea    ebx,[ebx+ebx*1-0x1]
  405c1f:	mov    esi,ebx
  405c21:	jmp    0x405c25
  405c23:	xor    esi,esi
  405c25:	test   esi,esi
  405c27:	jne    0x405ccf
  405c2d:	mov    esi,DWORD PTR [eax+0x1c]
  405c30:	cmp    esi,DWORD PTR [ecx+0x1c]
  405c33:	je     0x405ca7
  405c35:	movzx  esi,BYTE PTR [eax+0x1c]
  405c39:	movzx  ebx,BYTE PTR [ecx+0x1c]
  405c3d:	sub    esi,ebx
  405c3f:	je     0x405c52
  405c41:	xor    ebx,ebx
  405c43:	test   esi,esi
  405c45:	setg   bl
  405c48:	lea    ebx,[ebx+ebx*1-0x1]
  405c4c:	mov    esi,ebx
  405c4e:	test   esi,esi
  405c50:	jne    0x405ccf
  405c52:	movzx  esi,BYTE PTR [eax+0x1d]
  405c56:	movzx  ebx,BYTE PTR [ecx+0x1d]
  405c5a:	sub    esi,ebx
  405c5c:	je     0x405c6f
  405c5e:	xor    ebx,ebx
  405c60:	test   esi,esi
  405c62:	setg   bl
  405c65:	lea    ebx,[ebx+ebx*1-0x1]
  405c69:	mov    esi,ebx
  405c6b:	test   esi,esi
  405c6d:	jne    0x405ccf
  405c6f:	movzx  esi,BYTE PTR [eax+0x1e]
  405c73:	movzx  ebx,BYTE PTR [ecx+0x1e]
  405c77:	sub    esi,ebx
  405c79:	je     0x405c8c
  405c7b:	xor    ebx,ebx
  405c7d:	test   esi,esi
  405c7f:	setg   bl
  405c82:	lea    ebx,[ebx+ebx*1-0x1]
  405c86:	mov    esi,ebx
  405c88:	test   esi,esi
  405c8a:	jne    0x405ccf
  405c8c:	movzx  esi,BYTE PTR [eax+0x1f]
  405c90:	movzx  ebx,BYTE PTR [ecx+0x1f]
  405c94:	sub    esi,ebx
  405c96:	je     0x405ca9
  405c98:	xor    ebx,ebx
  405c9a:	test   esi,esi
  405c9c:	setg   bl
  405c9f:	lea    ebx,[ebx+ebx*1-0x1]
  405ca3:	mov    esi,ebx
  405ca5:	jmp    0x405ca9
  405ca7:	xor    esi,esi
  405ca9:	test   esi,esi
  405cab:	jne    0x405ccf
  405cad:	add    eax,edx
  405caf:	add    ecx,edx
  405cb1:	sub    edi,edx
  405cb3:	cmp    edi,edx
  405cb5:	jae    0x405841
  405cbb:	add    eax,edi
  405cbd:	add    ecx,edi
  405cbf:	cmp    edi,0x1f
  405cc2:	ja     0x4060a2
  405cc8:	jmp    DWORD PTR [edi*4+0x406e01]
  405ccf:	mov    eax,esi
  405cd1:	jmp    0x4060a4
  405cd6:	mov    edx,DWORD PTR [eax-0x1c]
  405cd9:	cmp    edx,DWORD PTR [ecx-0x1c]
  405cdc:	je     0x405d4f
  405cde:	movzx  esi,dl
  405ce1:	movzx  edx,BYTE PTR [ecx-0x1c]
  405ce5:	sub    esi,edx
  405ce7:	je     0x405cfa
  405ce9:	xor    edx,edx
  405ceb:	test   esi,esi
  405ced:	setg   dl
  405cf0:	lea    edx,[edx+edx*1-0x1]
  405cf4:	mov    esi,edx
  405cf6:	test   esi,esi
  405cf8:	jne    0x405ccf
  405cfa:	movzx  esi,BYTE PTR [eax-0x1b]
  405cfe:	movzx  edx,BYTE PTR [ecx-0x1b]
  405d02:	sub    esi,edx
  405d04:	je     0x405d17
  405d06:	xor    edx,edx
  405d08:	test   esi,esi
  405d0a:	setg   dl
  405d0d:	lea    edx,[edx+edx*1-0x1]
  405d11:	mov    esi,edx
  405d13:	test   esi,esi
  405d15:	jne    0x405ccf
  405d17:	movzx  esi,BYTE PTR [eax-0x1a]
  405d1b:	movzx  edx,BYTE PTR [ecx-0x1a]
  405d1f:	sub    esi,edx
  405d21:	je     0x405d34
  405d23:	xor    edx,edx
  405d25:	test   esi,esi
  405d27:	setg   dl
  405d2a:	lea    edx,[edx+edx*1-0x1]
  405d2e:	mov    esi,edx
  405d30:	test   esi,esi
  405d32:	jne    0x405ccf
  405d34:	movzx  esi,BYTE PTR [eax-0x19]
  405d38:	movzx  edx,BYTE PTR [ecx-0x19]
  405d3c:	sub    esi,edx
  405d3e:	je     0x405d51
  405d40:	xor    edx,edx
  405d42:	test   esi,esi
  405d44:	setg   dl
  405d47:	lea    edx,[edx+edx*1-0x1]
  405d4b:	mov    esi,edx
  405d4d:	jmp    0x405d51
  405d4f:	xor    esi,esi
  405d51:	test   esi,esi
  405d53:	jne    0x405ccf
  405d59:	mov    edx,DWORD PTR [eax-0x18]
  405d5c:	cmp    edx,DWORD PTR [ecx-0x18]
  405d5f:	je     0x405dde
  405d61:	movzx  esi,dl
  405d64:	movzx  edx,BYTE PTR [ecx-0x18]
  405d68:	sub    esi,edx
  405d6a:	je     0x405d81
  405d6c:	xor    edx,edx
  405d6e:	test   esi,esi
  405d70:	setg   dl
  405d73:	lea    edx,[edx+edx*1-0x1]
  405d77:	mov    esi,edx
  405d79:	test   esi,esi
  405d7b:	jne    0x405ccf
  405d81:	movzx  esi,BYTE PTR [eax-0x17]
  405d85:	movzx  edx,BYTE PTR [ecx-0x17]
  405d89:	sub    esi,edx
  405d8b:	je     0x405da2
  405d8d:	xor    edx,edx
  405d8f:	test   esi,esi
  405d91:	setg   dl
  405d94:	lea    edx,[edx+edx*1-0x1]
  405d98:	mov    esi,edx
  405d9a:	test   esi,esi
  405d9c:	jne    0x405ccf
  405da2:	movzx  esi,BYTE PTR [eax-0x16]
  405da6:	movzx  edx,BYTE PTR [ecx-0x16]
  405daa:	sub    esi,edx
  405dac:	je     0x405dc3
  405dae:	xor    edx,edx
  405db0:	test   esi,esi
  405db2:	setg   dl
  405db5:	lea    edx,[edx+edx*1-0x1]
  405db9:	mov    esi,edx
  405dbb:	test   esi,esi
  405dbd:	jne    0x405ccf
  405dc3:	movzx  esi,BYTE PTR [eax-0x15]
  405dc7:	movzx  edx,BYTE PTR [ecx-0x15]
  405dcb:	sub    esi,edx
  405dcd:	je     0x405de0
  405dcf:	xor    edx,edx
  405dd1:	test   esi,esi
  405dd3:	setg   dl
  405dd6:	lea    edx,[edx+edx*1-0x1]
  405dda:	mov    esi,edx
  405ddc:	jmp    0x405de0
  405dde:	xor    esi,esi
  405de0:	test   esi,esi
  405de2:	jne    0x405ccf
  405de8:	mov    edx,DWORD PTR [eax-0x14]
  405deb:	cmp    edx,DWORD PTR [ecx-0x14]
  405dee:	je     0x405e6d
  405df0:	movzx  esi,dl
  405df3:	movzx  edx,BYTE PTR [ecx-0x14]
  405df7:	sub    esi,edx
  405df9:	je     0x405e10
  405dfb:	xor    edx,edx
  405dfd:	test   esi,esi
  405dff:	setg   dl
  405e02:	lea    edx,[edx+edx*1-0x1]
  405e06:	mov    esi,edx
  405e08:	test   esi,esi
  405e0a:	jne    0x405ccf
  405e10:	movzx  esi,BYTE PTR [eax-0x13]
  405e14:	movzx  edx,BYTE PTR [ecx-0x13]
  405e18:	sub    esi,edx
  405e1a:	je     0x405e31
  405e1c:	xor    edx,edx
  405e1e:	test   esi,esi
  405e20:	setg   dl
  405e23:	lea    edx,[edx+edx*1-0x1]
  405e27:	mov    esi,edx
  405e29:	test   esi,esi
  405e2b:	jne    0x405ccf
  405e31:	movzx  esi,BYTE PTR [eax-0x12]
  405e35:	movzx  edx,BYTE PTR [ecx-0x12]
  405e39:	sub    esi,edx
  405e3b:	je     0x405e52
  405e3d:	xor    edx,edx
  405e3f:	test   esi,esi
  405e41:	setg   dl
  405e44:	lea    edx,[edx+edx*1-0x1]
  405e48:	mov    esi,edx
  405e4a:	test   esi,esi
  405e4c:	jne    0x405ccf
  405e52:	movzx  esi,BYTE PTR [eax-0x11]
  405e56:	movzx  edx,BYTE PTR [ecx-0x11]
  405e5a:	sub    esi,edx
  405e5c:	je     0x405e6f
  405e5e:	xor    edx,edx
  405e60:	test   esi,esi
  405e62:	setg   dl
  405e65:	lea    edx,[edx+edx*1-0x1]
  405e69:	mov    esi,edx
  405e6b:	jmp    0x405e6f
  405e6d:	xor    esi,esi
  405e6f:	test   esi,esi
  405e71:	jne    0x405ccf
  405e77:	mov    edx,DWORD PTR [eax-0x10]
  405e7a:	cmp    edx,DWORD PTR [ecx-0x10]
  405e7d:	je     0x405efc
  405e7f:	movzx  esi,dl
  405e82:	movzx  edx,BYTE PTR [ecx-0x10]
  405e86:	sub    esi,edx
  405e88:	je     0x405e9f
  405e8a:	xor    edx,edx
  405e8c:	test   esi,esi
  405e8e:	setg   dl
  405e91:	lea    edx,[edx+edx*1-0x1]
  405e95:	mov    esi,edx
  405e97:	test   esi,esi
  405e99:	jne    0x405ccf
  405e9f:	movzx  esi,BYTE PTR [eax-0xf]
  405ea3:	movzx  edx,BYTE PTR [ecx-0xf]
  405ea7:	sub    esi,edx
  405ea9:	je     0x405ec0
  405eab:	xor    edx,edx
  405ead:	test   esi,esi
  405eaf:	setg   dl
  405eb2:	lea    edx,[edx+edx*1-0x1]
  405eb6:	mov    esi,edx
  405eb8:	test   esi,esi
  405eba:	jne    0x405ccf
  405ec0:	movzx  esi,BYTE PTR [eax-0xe]
  405ec4:	movzx  edx,BYTE PTR [ecx-0xe]
  405ec8:	sub    esi,edx
  405eca:	je     0x405ee1
  405ecc:	xor    edx,edx
  405ece:	test   esi,esi
  405ed0:	setg   dl
  405ed3:	lea    edx,[edx+edx*1-0x1]
  405ed7:	mov    esi,edx
  405ed9:	test   esi,esi
  405edb:	jne    0x405ccf
  405ee1:	movzx  esi,BYTE PTR [eax-0xd]
  405ee5:	movzx  edx,BYTE PTR [ecx-0xd]
  405ee9:	sub    esi,edx
  405eeb:	je     0x405efe
  405eed:	xor    edx,edx
  405eef:	test   esi,esi
  405ef1:	setg   dl
  405ef4:	lea    edx,[edx+edx*1-0x1]
  405ef8:	mov    esi,edx
  405efa:	jmp    0x405efe
  405efc:	xor    esi,esi
  405efe:	test   esi,esi
  405f00:	jne    0x405ccf
  405f06:	mov    edx,DWORD PTR [eax-0xc]
  405f09:	cmp    edx,DWORD PTR [ecx-0xc]
  405f0c:	je     0x405f8c
  405f0e:	movzx  edx,BYTE PTR [ecx-0xc]
  405f12:	movzx  esi,BYTE PTR [eax-0xc]
  405f16:	sub    esi,edx
  405f18:	je     0x405f2f
  405f1a:	xor    edx,edx
  405f1c:	test   esi,esi
  405f1e:	setg   dl
  405f21:	lea    edx,[edx+edx*1-0x1]
  405f25:	mov    esi,edx
  405f27:	test   esi,esi
  405f29:	jne    0x405ccf
  405f2f:	movzx  esi,BYTE PTR [eax-0xb]
  405f33:	movzx  edx,BYTE PTR [ecx-0xb]
  405f37:	sub    esi,edx
  405f39:	je     0x405f50
  405f3b:	xor    edx,edx
  405f3d:	test   esi,esi
  405f3f:	setg   dl
  405f42:	lea    edx,[edx+edx*1-0x1]
  405f46:	mov    esi,edx
  405f48:	test   esi,esi
  405f4a:	jne    0x405ccf
  405f50:	movzx  esi,BYTE PTR [eax-0xa]
  405f54:	movzx  edx,BYTE PTR [ecx-0xa]
  405f58:	sub    esi,edx
  405f5a:	je     0x405f71
  405f5c:	xor    edx,edx
  405f5e:	test   esi,esi
  405f60:	setg   dl
  405f63:	lea    edx,[edx+edx*1-0x1]
  405f67:	mov    esi,edx
  405f69:	test   esi,esi
  405f6b:	jne    0x405ccf
  405f71:	movzx  esi,BYTE PTR [eax-0x9]
  405f75:	movzx  edx,BYTE PTR [ecx-0x9]
  405f79:	sub    esi,edx
  405f7b:	je     0x405f8e
  405f7d:	xor    edx,edx
  405f7f:	test   esi,esi
  405f81:	setg   dl
  405f84:	lea    edx,[edx+edx*1-0x1]
  405f88:	mov    esi,edx
  405f8a:	jmp    0x405f8e
  405f8c:	xor    esi,esi
  405f8e:	test   esi,esi
  405f90:	jne    0x405ccf
  405f96:	mov    edx,DWORD PTR [eax-0x8]
  405f99:	cmp    edx,DWORD PTR [ecx-0x8]
  405f9c:	je     0x40601b
  405f9e:	movzx  esi,dl
  405fa1:	movzx  edx,BYTE PTR [ecx-0x8]
  405fa5:	sub    esi,edx
  405fa7:	je     0x405fbe
  405fa9:	xor    edx,edx
  405fab:	test   esi,esi
  405fad:	setg   dl
  405fb0:	lea    edx,[edx+edx*1-0x1]
  405fb4:	mov    esi,edx
  405fb6:	test   esi,esi
  405fb8:	jne    0x405ccf
  405fbe:	movzx  esi,BYTE PTR [eax-0x7]
  405fc2:	movzx  edx,BYTE PTR [ecx-0x7]
  405fc6:	sub    esi,edx
  405fc8:	je     0x405fdf
  405fca:	xor    edx,edx
  405fcc:	test   esi,esi
  405fce:	setg   dl
  405fd1:	lea    edx,[edx+edx*1-0x1]
  405fd5:	mov    esi,edx
  405fd7:	test   esi,esi
  405fd9:	jne    0x405ccf
  405fdf:	movzx  esi,BYTE PTR [eax-0x6]
  405fe3:	movzx  edx,BYTE PTR [ecx-0x6]
  405fe7:	sub    esi,edx
  405fe9:	je     0x406000
  405feb:	xor    edx,edx
  405fed:	test   esi,esi
  405fef:	setg   dl
  405ff2:	lea    edx,[edx+edx*1-0x1]
  405ff6:	mov    esi,edx
  405ff8:	test   esi,esi
  405ffa:	jne    0x405ccf
  406000:	movzx  esi,BYTE PTR [eax-0x5]
  406004:	movzx  edx,BYTE PTR [ecx-0x5]
  406008:	sub    esi,edx
  40600a:	je     0x40601d
  40600c:	xor    edx,edx
  40600e:	test   esi,esi
  406010:	setg   dl
  406013:	lea    edx,[edx+edx*1-0x1]
  406017:	mov    esi,edx
  406019:	jmp    0x40601d
  40601b:	xor    esi,esi
  40601d:	test   esi,esi
  40601f:	jne    0x405ccf
  406025:	mov    edx,DWORD PTR [eax-0x4]
  406028:	cmp    edx,DWORD PTR [ecx-0x4]
  40602b:	je     0x40609c
  40602d:	movzx  esi,dl
  406030:	movzx  edx,BYTE PTR [ecx-0x4]
  406034:	sub    esi,edx
  406036:	je     0x406047
  406038:	xor    edx,edx
  40603a:	test   esi,esi
  40603c:	setg   dl
  40603f:	lea    edx,[edx+edx*1-0x1]
  406043:	test   edx,edx
  406045:	jne    0x40607d
  406047:	movzx  esi,BYTE PTR [eax-0x3]
  40604b:	movzx  edx,BYTE PTR [ecx-0x3]
  40604f:	sub    esi,edx
  406051:	je     0x406062
  406053:	xor    edx,edx
  406055:	test   esi,esi
  406057:	setg   dl
  40605a:	lea    edx,[edx+edx*1-0x1]
  40605e:	test   edx,edx
  406060:	jne    0x40607d
  406062:	movzx  esi,BYTE PTR [eax-0x2]
  406066:	movzx  edx,BYTE PTR [ecx-0x2]
  40606a:	sub    esi,edx
  40606c:	je     0x406081
  40606e:	xor    edx,edx
  406070:	test   esi,esi
  406072:	setg   dl
  406075:	lea    edx,[edx+edx*1-0x1]
  406079:	test   edx,edx
  40607b:	je     0x406081
  40607d:	mov    eax,edx
  40607f:	jmp    0x40609e
  406081:	movzx  eax,BYTE PTR [eax-0x1]
  406085:	movzx  ecx,BYTE PTR [ecx-0x1]
  406089:	sub    eax,ecx
  40608b:	je     0x40609e
  40608d:	xor    ecx,ecx
  40608f:	test   eax,eax
  406091:	setg   cl
  406094:	lea    ecx,[ecx+ecx*1-0x1]
  406098:	mov    eax,ecx
  40609a:	jmp    0x40609e
  40609c:	xor    eax,eax
  40609e:	test   eax,eax
  4060a0:	jne    0x4060a4
  4060a2:	xor    eax,eax
  4060a4:	pop    ebx
  4060a5:	jmp    0x406dfd
  4060aa:	mov    edx,DWORD PTR [eax-0x1d]
  4060ad:	cmp    edx,DWORD PTR [ecx-0x1d]
  4060b0:	je     0x40612f
  4060b2:	movzx  esi,dl
  4060b5:	movzx  edx,BYTE PTR [ecx-0x1d]
  4060b9:	sub    esi,edx
  4060bb:	je     0x4060d2
  4060bd:	xor    edx,edx
  4060bf:	test   esi,esi
  4060c1:	setg   dl
  4060c4:	lea    edx,[edx+edx*1-0x1]
  4060c8:	mov    esi,edx
  4060ca:	test   esi,esi
  4060cc:	jne    0x405ccf
  4060d2:	movzx  esi,BYTE PTR [eax-0x1c]
  4060d6:	movzx  edx,BYTE PTR [ecx-0x1c]
  4060da:	sub    esi,edx
  4060dc:	je     0x4060f3
  4060de:	xor    edx,edx
  4060e0:	test   esi,esi
  4060e2:	setg   dl
  4060e5:	lea    edx,[edx+edx*1-0x1]
  4060e9:	mov    esi,edx
  4060eb:	test   esi,esi
  4060ed:	jne    0x405ccf
  4060f3:	movzx  esi,BYTE PTR [eax-0x1b]
  4060f7:	movzx  edx,BYTE PTR [ecx-0x1b]
  4060fb:	sub    esi,edx
  4060fd:	je     0x406114
  4060ff:	xor    edx,edx
  406101:	test   esi,esi
  406103:	setg   dl
  406106:	lea    edx,[edx+edx*1-0x1]
  40610a:	mov    esi,edx
  40610c:	test   esi,esi
  40610e:	jne    0x405ccf
  406114:	movzx  esi,BYTE PTR [eax-0x1a]
  406118:	movzx  edx,BYTE PTR [ecx-0x1a]
  40611c:	sub    esi,edx
  40611e:	je     0x406131
  406120:	xor    edx,edx
  406122:	test   esi,esi
  406124:	setg   dl
  406127:	lea    edx,[edx+edx*1-0x1]
  40612b:	mov    esi,edx
  40612d:	jmp    0x406131
  40612f:	xor    esi,esi
  406131:	test   esi,esi
  406133:	jne    0x405ccf
  406139:	mov    edx,DWORD PTR [eax-0x19]
  40613c:	cmp    edx,DWORD PTR [ecx-0x19]
  40613f:	je     0x4061be
  406141:	movzx  esi,dl
  406144:	movzx  edx,BYTE PTR [ecx-0x19]
  406148:	sub    esi,edx
  40614a:	je     0x406161
  40614c:	xor    edx,edx
  40614e:	test   esi,esi
  406150:	setg   dl
  406153:	lea    edx,[edx+edx*1-0x1]
  406157:	mov    esi,edx
  406159:	test   esi,esi
  40615b:	jne    0x405ccf
  406161:	movzx  esi,BYTE PTR [eax-0x18]
  406165:	movzx  edx,BYTE PTR [ecx-0x18]
  406169:	sub    esi,edx
  40616b:	je     0x406182
  40616d:	xor    edx,edx
  40616f:	test   esi,esi
  406171:	setg   dl
  406174:	lea    edx,[edx+edx*1-0x1]
  406178:	mov    esi,edx
  40617a:	test   esi,esi
  40617c:	jne    0x405ccf
  406182:	movzx  esi,BYTE PTR [eax-0x17]
  406186:	movzx  edx,BYTE PTR [ecx-0x17]
  40618a:	sub    esi,edx
  40618c:	je     0x4061a3
  40618e:	xor    edx,edx
  406190:	test   esi,esi
  406192:	setg   dl
  406195:	lea    edx,[edx+edx*1-0x1]
  406199:	mov    esi,edx
  40619b:	test   esi,esi
  40619d:	jne    0x405ccf
  4061a3:	movzx  esi,BYTE PTR [eax-0x16]
  4061a7:	movzx  edx,BYTE PTR [ecx-0x16]
  4061ab:	sub    esi,edx
  4061ad:	je     0x4061c0
  4061af:	xor    edx,edx
  4061b1:	test   esi,esi
  4061b3:	setg   dl
  4061b6:	lea    edx,[edx+edx*1-0x1]
  4061ba:	mov    esi,edx
  4061bc:	jmp    0x4061c0
  4061be:	xor    esi,esi
  4061c0:	test   esi,esi
  4061c2:	jne    0x405ccf
  4061c8:	mov    edx,DWORD PTR [eax-0x15]
  4061cb:	cmp    edx,DWORD PTR [ecx-0x15]
  4061ce:	je     0x40624d
  4061d0:	movzx  esi,dl
  4061d3:	movzx  edx,BYTE PTR [ecx-0x15]
  4061d7:	sub    esi,edx
  4061d9:	je     0x4061f0
  4061db:	xor    edx,edx
  4061dd:	test   esi,esi
  4061df:	setg   dl
  4061e2:	lea    edx,[edx+edx*1-0x1]
  4061e6:	mov    esi,edx
  4061e8:	test   esi,esi
  4061ea:	jne    0x405ccf
  4061f0:	movzx  esi,BYTE PTR [eax-0x14]
  4061f4:	movzx  edx,BYTE PTR [ecx-0x14]
  4061f8:	sub    esi,edx
  4061fa:	je     0x406211
  4061fc:	xor    edx,edx
  4061fe:	test   esi,esi
  406200:	setg   dl
  406203:	lea    edx,[edx+edx*1-0x1]
  406207:	mov    esi,edx
  406209:	test   esi,esi
  40620b:	jne    0x405ccf
  406211:	movzx  esi,BYTE PTR [eax-0x13]
  406215:	movzx  edx,BYTE PTR [ecx-0x13]
  406219:	sub    esi,edx
  40621b:	je     0x406232
  40621d:	xor    edx,edx
  40621f:	test   esi,esi
  406221:	setg   dl
  406224:	lea    edx,[edx+edx*1-0x1]
  406228:	mov    esi,edx
  40622a:	test   esi,esi
  40622c:	jne    0x405ccf
  406232:	movzx  esi,BYTE PTR [eax-0x12]
  406236:	movzx  edx,BYTE PTR [ecx-0x12]
  40623a:	sub    esi,edx
  40623c:	je     0x40624f
  40623e:	xor    edx,edx
  406240:	test   esi,esi
  406242:	setg   dl
  406245:	lea    edx,[edx+edx*1-0x1]
  406249:	mov    esi,edx
  40624b:	jmp    0x40624f
  40624d:	xor    esi,esi
  40624f:	test   esi,esi
  406251:	jne    0x405ccf
  406257:	mov    edx,DWORD PTR [eax-0x11]
  40625a:	cmp    edx,DWORD PTR [ecx-0x11]
  40625d:	je     0x4062dc
  40625f:	movzx  esi,dl
  406262:	movzx  edx,BYTE PTR [ecx-0x11]
  406266:	sub    esi,edx
  406268:	je     0x40627f
  40626a:	xor    edx,edx
  40626c:	test   esi,esi
  40626e:	setg   dl
  406271:	lea    edx,[edx+edx*1-0x1]
  406275:	mov    esi,edx
  406277:	test   esi,esi
  406279:	jne    0x405ccf
  40627f:	movzx  esi,BYTE PTR [eax-0x10]
  406283:	movzx  edx,BYTE PTR [ecx-0x10]
  406287:	sub    esi,edx
  406289:	je     0x4062a0
  40628b:	xor    edx,edx
  40628d:	test   esi,esi
  40628f:	setg   dl
  406292:	lea    edx,[edx+edx*1-0x1]
  406296:	mov    esi,edx
  406298:	test   esi,esi
  40629a:	jne    0x405ccf
  4062a0:	movzx  esi,BYTE PTR [eax-0xf]
  4062a4:	movzx  edx,BYTE PTR [ecx-0xf]
  4062a8:	sub    esi,edx
  4062aa:	je     0x4062c1
  4062ac:	xor    edx,edx
  4062ae:	test   esi,esi
  4062b0:	setg   dl
  4062b3:	lea    edx,[edx+edx*1-0x1]
  4062b7:	mov    esi,edx
  4062b9:	test   esi,esi
  4062bb:	jne    0x405ccf
  4062c1:	movzx  esi,BYTE PTR [eax-0xe]
  4062c5:	movzx  edx,BYTE PTR [ecx-0xe]
  4062c9:	sub    esi,edx
  4062cb:	je     0x4062de
  4062cd:	xor    edx,edx
  4062cf:	test   esi,esi
  4062d1:	setg   dl
  4062d4:	lea    edx,[edx+edx*1-0x1]
  4062d8:	mov    esi,edx
  4062da:	jmp    0x4062de
  4062dc:	xor    esi,esi
  4062de:	test   esi,esi
  4062e0:	jne    0x405ccf
  4062e6:	mov    edx,DWORD PTR [eax-0xd]
  4062e9:	cmp    edx,DWORD PTR [ecx-0xd]
  4062ec:	je     0x40636b
  4062ee:	movzx  esi,dl
  4062f1:	movzx  edx,BYTE PTR [ecx-0xd]
  4062f5:	sub    esi,edx
  4062f7:	je     0x40630e
  4062f9:	xor    edx,edx
  4062fb:	test   esi,esi
  4062fd:	setg   dl
  406300:	lea    edx,[edx+edx*1-0x1]
  406304:	mov    esi,edx
  406306:	test   esi,esi
  406308:	jne    0x405ccf
  40630e:	movzx  esi,BYTE PTR [eax-0xc]
  406312:	movzx  edx,BYTE PTR [ecx-0xc]
  406316:	sub    esi,edx
  406318:	je     0x40632f
  40631a:	xor    edx,edx
  40631c:	test   esi,esi
  40631e:	setg   dl
  406321:	lea    edx,[edx+edx*1-0x1]
  406325:	mov    esi,edx
  406327:	test   esi,esi
  406329:	jne    0x405ccf
  40632f:	movzx  esi,BYTE PTR [eax-0xb]
  406333:	movzx  edx,BYTE PTR [ecx-0xb]
  406337:	sub    esi,edx
  406339:	je     0x406350
  40633b:	xor    edx,edx
  40633d:	test   esi,esi
  40633f:	setg   dl
  406342:	lea    edx,[edx+edx*1-0x1]
  406346:	mov    esi,edx
  406348:	test   esi,esi
  40634a:	jne    0x405ccf
  406350:	movzx  esi,BYTE PTR [eax-0xa]
  406354:	movzx  edx,BYTE PTR [ecx-0xa]
  406358:	sub    esi,edx
  40635a:	je     0x40636d
  40635c:	xor    edx,edx
  40635e:	test   esi,esi
  406360:	setg   dl
  406363:	lea    edx,[edx+edx*1-0x1]
  406367:	mov    esi,edx
  406369:	jmp    0x40636d
  40636b:	xor    esi,esi
  40636d:	test   esi,esi
  40636f:	jne    0x405ccf
  406375:	mov    edx,DWORD PTR [eax-0x9]
  406378:	cmp    edx,DWORD PTR [ecx-0x9]
  40637b:	je     0x4063fb
  40637d:	movzx  edx,BYTE PTR [ecx-0x9]
  406381:	movzx  esi,BYTE PTR [eax-0x9]
  406385:	sub    esi,edx
  406387:	je     0x40639e
  406389:	xor    edx,edx
  40638b:	test   esi,esi
  40638d:	setg   dl
  406390:	lea    edx,[edx+edx*1-0x1]
  406394:	mov    esi,edx
  406396:	test   esi,esi
  406398:	jne    0x405ccf
  40639e:	movzx  esi,BYTE PTR [eax-0x8]
  4063a2:	movzx  edx,BYTE PTR [ecx-0x8]
  4063a6:	sub    esi,edx
  4063a8:	je     0x4063bf
  4063aa:	xor    edx,edx
  4063ac:	test   esi,esi
  4063ae:	setg   dl
  4063b1:	lea    edx,[edx+edx*1-0x1]
  4063b5:	mov    esi,edx
  4063b7:	test   esi,esi
  4063b9:	jne    0x405ccf
  4063bf:	movzx  esi,BYTE PTR [eax-0x7]
  4063c3:	movzx  edx,BYTE PTR [ecx-0x7]
  4063c7:	sub    esi,edx
  4063c9:	je     0x4063e0
  4063cb:	xor    edx,edx
  4063cd:	test   esi,esi
  4063cf:	setg   dl
  4063d2:	lea    edx,[edx+edx*1-0x1]
  4063d6:	mov    esi,edx
  4063d8:	test   esi,esi
  4063da:	jne    0x405ccf
  4063e0:	movzx  esi,BYTE PTR [eax-0x6]
  4063e4:	movzx  edx,BYTE PTR [ecx-0x6]
  4063e8:	sub    esi,edx
  4063ea:	je     0x4063fd
  4063ec:	xor    edx,edx
  4063ee:	test   esi,esi
  4063f0:	setg   dl
  4063f3:	lea    edx,[edx+edx*1-0x1]
  4063f7:	mov    esi,edx
  4063f9:	jmp    0x4063fd
  4063fb:	xor    esi,esi
  4063fd:	test   esi,esi
  4063ff:	jne    0x405ccf
  406405:	mov    edx,DWORD PTR [eax-0x5]
  406408:	cmp    edx,DWORD PTR [ecx-0x5]
  40640b:	je     0x40648a
  40640d:	movzx  esi,dl
  406410:	movzx  edx,BYTE PTR [ecx-0x5]
  406414:	sub    esi,edx
  406416:	je     0x40642d
  406418:	xor    edx,edx
  40641a:	test   esi,esi
  40641c:	setg   dl
  40641f:	lea    edx,[edx+edx*1-0x1]
  406423:	mov    esi,edx
  406425:	test   esi,esi
  406427:	jne    0x405ccf
  40642d:	movzx  esi,BYTE PTR [eax-0x4]
  406431:	movzx  edx,BYTE PTR [ecx-0x4]
  406435:	sub    esi,edx
  406437:	je     0x40644e
  406439:	xor    edx,edx
  40643b:	test   esi,esi
  40643d:	setg   dl
  406440:	lea    edx,[edx+edx*1-0x1]
  406444:	mov    esi,edx
  406446:	test   esi,esi
  406448:	jne    0x405ccf
  40644e:	movzx  esi,BYTE PTR [eax-0x3]
  406452:	movzx  edx,BYTE PTR [ecx-0x3]
  406456:	sub    esi,edx
  406458:	je     0x40646f
  40645a:	xor    edx,edx
  40645c:	test   esi,esi
  40645e:	setg   dl
  406461:	lea    edx,[edx+edx*1-0x1]
  406465:	mov    esi,edx
  406467:	test   esi,esi
  406469:	jne    0x405ccf
  40646f:	movzx  esi,BYTE PTR [eax-0x2]
  406473:	movzx  edx,BYTE PTR [ecx-0x2]
  406477:	sub    esi,edx
  406479:	je     0x40648c
  40647b:	xor    edx,edx
  40647d:	test   esi,esi
  40647f:	setg   dl
  406482:	lea    edx,[edx+edx*1-0x1]
  406486:	mov    esi,edx
  406488:	jmp    0x40648c
  40648a:	xor    esi,esi
  40648c:	test   esi,esi
  40648e:	jne    0x405ccf
  406494:	movzx  ecx,BYTE PTR [ecx-0x1]
  406498:	movzx  eax,BYTE PTR [eax-0x1]
  40649c:	sub    eax,ecx
  40649e:	je     0x4060a4
  4064a4:	xor    ecx,ecx
  4064a6:	test   eax,eax
  4064a8:	setg   cl
  4064ab:	lea    ecx,[ecx+ecx*1-0x1]
  4064af:	mov    eax,ecx
  4064b1:	jmp    0x4060a4
  4064b6:	mov    edx,DWORD PTR [eax-0x1e]
  4064b9:	cmp    edx,DWORD PTR [ecx-0x1e]
  4064bc:	je     0x40653b
  4064be:	movzx  esi,dl
  4064c1:	movzx  edx,BYTE PTR [ecx-0x1e]
  4064c5:	sub    esi,edx
  4064c7:	je     0x4064de
  4064c9:	xor    edx,edx
  4064cb:	test   esi,esi
  4064cd:	setg   dl
  4064d0:	lea    edx,[edx+edx*1-0x1]
  4064d4:	mov    esi,edx
  4064d6:	test   esi,esi
  4064d8:	jne    0x405ccf
  4064de:	movzx  esi,BYTE PTR [eax-0x1d]
  4064e2:	movzx  edx,BYTE PTR [ecx-0x1d]
  4064e6:	sub    esi,edx
  4064e8:	je     0x4064ff
  4064ea:	xor    edx,edx
  4064ec:	test   esi,esi
  4064ee:	setg   dl
  4064f1:	lea    edx,[edx+edx*1-0x1]
  4064f5:	mov    esi,edx
  4064f7:	test   esi,esi
  4064f9:	jne    0x405ccf
  4064ff:	movzx  esi,BYTE PTR [eax-0x1c]
  406503:	movzx  edx,BYTE PTR [ecx-0x1c]
  406507:	sub    esi,edx
  406509:	je     0x406520
  40650b:	xor    edx,edx
  40650d:	test   esi,esi
  40650f:	setg   dl
  406512:	lea    edx,[edx+edx*1-0x1]
  406516:	mov    esi,edx
  406518:	test   esi,esi
  40651a:	jne    0x405ccf
  406520:	movzx  esi,BYTE PTR [eax-0x1b]
  406524:	movzx  edx,BYTE PTR [ecx-0x1b]
  406528:	sub    esi,edx
  40652a:	je     0x40653d
  40652c:	xor    edx,edx
  40652e:	test   esi,esi
  406530:	setg   dl
  406533:	lea    edx,[edx+edx*1-0x1]
  406537:	mov    esi,edx
  406539:	jmp    0x40653d
  40653b:	xor    esi,esi
  40653d:	test   esi,esi
  40653f:	jne    0x405ccf
  406545:	mov    edx,DWORD PTR [eax-0x1a]
  406548:	cmp    edx,DWORD PTR [ecx-0x1a]
  40654b:	je     0x4065ca
  40654d:	movzx  esi,dl
  406550:	movzx  edx,BYTE PTR [ecx-0x1a]
  406554:	sub    esi,edx
  406556:	je     0x40656d
  406558:	xor    edx,edx
  40655a:	test   esi,esi
  40655c:	setg   dl
  40655f:	lea    edx,[edx+edx*1-0x1]
  406563:	mov    esi,edx
  406565:	test   esi,esi
  406567:	jne    0x405ccf
  40656d:	movzx  esi,BYTE PTR [eax-0x19]
  406571:	movzx  edx,BYTE PTR [ecx-0x19]
  406575:	sub    esi,edx
  406577:	je     0x40658e
  406579:	xor    edx,edx
  40657b:	test   esi,esi
  40657d:	setg   dl
  406580:	lea    edx,[edx+edx*1-0x1]
  406584:	mov    esi,edx
  406586:	test   esi,esi
  406588:	jne    0x405ccf
  40658e:	movzx  esi,BYTE PTR [eax-0x18]
  406592:	movzx  edx,BYTE PTR [ecx-0x18]
  406596:	sub    esi,edx
  406598:	je     0x4065af
  40659a:	xor    edx,edx
  40659c:	test   esi,esi
  40659e:	setg   dl
  4065a1:	lea    edx,[edx+edx*1-0x1]
  4065a5:	mov    esi,edx
  4065a7:	test   esi,esi
  4065a9:	jne    0x405ccf
  4065af:	movzx  esi,BYTE PTR [eax-0x17]
  4065b3:	movzx  edx,BYTE PTR [ecx-0x17]
  4065b7:	sub    esi,edx
  4065b9:	je     0x4065cc
  4065bb:	xor    edx,edx
  4065bd:	test   esi,esi
  4065bf:	setg   dl
  4065c2:	lea    edx,[edx+edx*1-0x1]
  4065c6:	mov    esi,edx
  4065c8:	jmp    0x4065cc
  4065ca:	xor    esi,esi
  4065cc:	test   esi,esi
  4065ce:	jne    0x405ccf
  4065d4:	mov    edx,DWORD PTR [eax-0x16]
  4065d7:	cmp    edx,DWORD PTR [ecx-0x16]
  4065da:	je     0x406659
  4065dc:	movzx  esi,dl
  4065df:	movzx  edx,BYTE PTR [ecx-0x16]
  4065e3:	sub    esi,edx
  4065e5:	je     0x4065fc
  4065e7:	xor    edx,edx
  4065e9:	test   esi,esi
  4065eb:	setg   dl
  4065ee:	lea    edx,[edx+edx*1-0x1]
  4065f2:	mov    esi,edx
  4065f4:	test   esi,esi
  4065f6:	jne    0x405ccf
  4065fc:	movzx  esi,BYTE PTR [eax-0x15]
  406600:	movzx  edx,BYTE PTR [ecx-0x15]
  406604:	sub    esi,edx
  406606:	je     0x40661d
  406608:	xor    edx,edx
  40660a:	test   esi,esi
  40660c:	setg   dl
  40660f:	lea    edx,[edx+edx*1-0x1]
  406613:	mov    esi,edx
  406615:	test   esi,esi
  406617:	jne    0x405ccf
  40661d:	movzx  esi,BYTE PTR [eax-0x14]
  406621:	movzx  edx,BYTE PTR [ecx-0x14]
  406625:	sub    esi,edx
  406627:	je     0x40663e
  406629:	xor    edx,edx
  40662b:	test   esi,esi
  40662d:	setg   dl
  406630:	lea    edx,[edx+edx*1-0x1]
  406634:	mov    esi,edx
  406636:	test   esi,esi
  406638:	jne    0x405ccf
  40663e:	movzx  esi,BYTE PTR [eax-0x13]
  406642:	movzx  edx,BYTE PTR [ecx-0x13]
  406646:	sub    esi,edx
  406648:	je     0x40665b
  40664a:	xor    edx,edx
  40664c:	test   esi,esi
  40664e:	setg   dl
  406651:	lea    edx,[edx+edx*1-0x1]
  406655:	mov    esi,edx
  406657:	jmp    0x40665b
  406659:	xor    esi,esi
  40665b:	test   esi,esi
  40665d:	jne    0x405ccf
  406663:	mov    edx,DWORD PTR [eax-0x12]
  406666:	cmp    edx,DWORD PTR [ecx-0x12]
  406669:	je     0x4066e8
  40666b:	movzx  esi,dl
  40666e:	movzx  edx,BYTE PTR [ecx-0x12]
  406672:	sub    esi,edx
  406674:	je     0x40668b
  406676:	xor    edx,edx
  406678:	test   esi,esi
  40667a:	setg   dl
  40667d:	lea    edx,[edx+edx*1-0x1]
  406681:	mov    esi,edx
  406683:	test   esi,esi
  406685:	jne    0x405ccf
  40668b:	movzx  esi,BYTE PTR [eax-0x11]
  40668f:	movzx  edx,BYTE PTR [ecx-0x11]
  406693:	sub    esi,edx
  406695:	je     0x4066ac
  406697:	xor    edx,edx
  406699:	test   esi,esi
  40669b:	setg   dl
  40669e:	lea    edx,[edx+edx*1-0x1]
  4066a2:	mov    esi,edx
  4066a4:	test   esi,esi
  4066a6:	jne    0x405ccf
  4066ac:	movzx  esi,BYTE PTR [eax-0x10]
  4066b0:	movzx  edx,BYTE PTR [ecx-0x10]
  4066b4:	sub    esi,edx
  4066b6:	je     0x4066cd
  4066b8:	xor    edx,edx
  4066ba:	test   esi,esi
  4066bc:	setg   dl
  4066bf:	lea    edx,[edx+edx*1-0x1]
  4066c3:	mov    esi,edx
  4066c5:	test   esi,esi
  4066c7:	jne    0x405ccf
  4066cd:	movzx  esi,BYTE PTR [eax-0xf]
  4066d1:	movzx  edx,BYTE PTR [ecx-0xf]
  4066d5:	sub    esi,edx
  4066d7:	je     0x4066ea
  4066d9:	xor    edx,edx
  4066db:	test   esi,esi
  4066dd:	setg   dl
  4066e0:	lea    edx,[edx+edx*1-0x1]
  4066e4:	mov    esi,edx
  4066e6:	jmp    0x4066ea
  4066e8:	xor    esi,esi
  4066ea:	test   esi,esi
  4066ec:	jne    0x405ccf
  4066f2:	mov    edx,DWORD PTR [eax-0xe]
  4066f5:	cmp    edx,DWORD PTR [ecx-0xe]
  4066f8:	je     0x406777
  4066fa:	movzx  esi,dl
  4066fd:	movzx  edx,BYTE PTR [ecx-0xe]
  406701:	sub    esi,edx
  406703:	je     0x40671a
  406705:	xor    edx,edx
  406707:	test   esi,esi
  406709:	setg   dl
  40670c:	lea    edx,[edx+edx*1-0x1]
  406710:	mov    esi,edx
  406712:	test   esi,esi
  406714:	jne    0x405ccf
  40671a:	movzx  esi,BYTE PTR [eax-0xd]
  40671e:	movzx  edx,BYTE PTR [ecx-0xd]
  406722:	sub    esi,edx
  406724:	je     0x40673b
  406726:	xor    edx,edx
  406728:	test   esi,esi
  40672a:	setg   dl
  40672d:	lea    edx,[edx+edx*1-0x1]
  406731:	mov    esi,edx
  406733:	test   esi,esi
  406735:	jne    0x405ccf
  40673b:	movzx  esi,BYTE PTR [eax-0xc]
  40673f:	movzx  edx,BYTE PTR [ecx-0xc]
  406743:	sub    esi,edx
  406745:	je     0x40675c
  406747:	xor    edx,edx
  406749:	test   esi,esi
  40674b:	setg   dl
  40674e:	lea    edx,[edx+edx*1-0x1]
  406752:	mov    esi,edx
  406754:	test   esi,esi
  406756:	jne    0x405ccf
  40675c:	movzx  esi,BYTE PTR [eax-0xb]
  406760:	movzx  edx,BYTE PTR [ecx-0xb]
  406764:	sub    esi,edx
  406766:	je     0x406779
  406768:	xor    edx,edx
  40676a:	test   esi,esi
  40676c:	setg   dl
  40676f:	lea    edx,[edx+edx*1-0x1]
  406773:	mov    esi,edx
  406775:	jmp    0x406779
  406777:	xor    esi,esi
  406779:	test   esi,esi
  40677b:	jne    0x405ccf
  406781:	mov    edx,DWORD PTR [eax-0xa]
  406784:	cmp    edx,DWORD PTR [ecx-0xa]
  406787:	je     0x406807
  406789:	movzx  edx,BYTE PTR [ecx-0xa]
  40678d:	movzx  esi,BYTE PTR [eax-0xa]
  406791:	sub    esi,edx
  406793:	je     0x4067aa
  406795:	xor    edx,edx
  406797:	test   esi,esi
  406799:	setg   dl
  40679c:	lea    edx,[edx+edx*1-0x1]
  4067a0:	mov    esi,edx
  4067a2:	test   esi,esi
  4067a4:	jne    0x405ccf
  4067aa:	movzx  edx,BYTE PTR [ecx-0x9]
  4067ae:	movzx  esi,BYTE PTR [eax-0x9]
  4067b2:	sub    esi,edx
  4067b4:	je     0x4067cb
  4067b6:	xor    edx,edx
  4067b8:	test   esi,esi
  4067ba:	setg   dl
  4067bd:	lea    edx,[edx+edx*1-0x1]
  4067c1:	mov    esi,edx
  4067c3:	test   esi,esi
  4067c5:	jne    0x405ccf
  4067cb:	movzx  edx,BYTE PTR [ecx-0x8]
  4067cf:	movzx  esi,BYTE PTR [eax-0x8]
  4067d3:	sub    esi,edx
  4067d5:	je     0x4067ec
  4067d7:	xor    edx,edx
  4067d9:	test   esi,esi
  4067db:	setg   dl
  4067de:	lea    edx,[edx+edx*1-0x1]
  4067e2:	mov    esi,edx
  4067e4:	test   esi,esi
  4067e6:	jne    0x405ccf
  4067ec:	movzx  edx,BYTE PTR [ecx-0x7]
  4067f0:	movzx  esi,BYTE PTR [eax-0x7]
  4067f4:	sub    esi,edx
  4067f6:	je     0x406809
  4067f8:	xor    edx,edx
  4067fa:	test   esi,esi
  4067fc:	setg   dl
  4067ff:	lea    edx,[edx+edx*1-0x1]
  406803:	mov    esi,edx
  406805:	jmp    0x406809
  406807:	xor    esi,esi
  406809:	test   esi,esi
  40680b:	jne    0x405ccf
  406811:	mov    edx,DWORD PTR [eax-0x6]
  406814:	cmp    edx,DWORD PTR [ecx-0x6]
  406817:	je     0x406896
  406819:	movzx  esi,dl
  40681c:	movzx  edx,BYTE PTR [ecx-0x6]
  406820:	sub    esi,edx
  406822:	je     0x406839
  406824:	xor    edx,edx
  406826:	test   esi,esi
  406828:	setg   dl
  40682b:	lea    edx,[edx+edx*1-0x1]
  40682f:	mov    esi,edx
  406831:	test   esi,esi
  406833:	jne    0x405ccf
  406839:	movzx  esi,BYTE PTR [eax-0x5]
  40683d:	movzx  edx,BYTE PTR [ecx-0x5]
  406841:	sub    esi,edx
  406843:	je     0x40685a
  406845:	xor    edx,edx
  406847:	test   esi,esi
  406849:	setg   dl
  40684c:	lea    edx,[edx+edx*1-0x1]
  406850:	mov    esi,edx
  406852:	test   esi,esi
  406854:	jne    0x405ccf
  40685a:	movzx  esi,BYTE PTR [eax-0x4]
  40685e:	movzx  edx,BYTE PTR [ecx-0x4]
  406862:	sub    esi,edx
  406864:	je     0x40687b
  406866:	xor    edx,edx
  406868:	test   esi,esi
  40686a:	setg   dl
  40686d:	lea    edx,[edx+edx*1-0x1]
  406871:	mov    esi,edx
  406873:	test   esi,esi
  406875:	jne    0x405ccf
  40687b:	movzx  esi,BYTE PTR [eax-0x3]
  40687f:	movzx  edx,BYTE PTR [ecx-0x3]
  406883:	sub    esi,edx
  406885:	je     0x406898
  406887:	xor    edx,edx
  406889:	test   esi,esi
  40688b:	setg   dl
  40688e:	lea    edx,[edx+edx*1-0x1]
  406892:	mov    esi,edx
  406894:	jmp    0x406898
  406896:	xor    esi,esi
  406898:	test   esi,esi
  40689a:	jne    0x405ccf
  4068a0:	mov    dx,WORD PTR [eax-0x2]
  4068a4:	cmp    dx,WORD PTR [ecx-0x2]
  4068a8:	je     0x4060a2
  4068ae:	movzx  edx,BYTE PTR [ecx-0x2]
  4068b2:	movzx  esi,BYTE PTR [eax-0x2]
  4068b6:	sub    esi,edx
  4068b8:	je     0x406494
  4068be:	xor    edx,edx
  4068c0:	test   esi,esi
  4068c2:	setg   dl
  4068c5:	lea    edx,[edx+edx*1-0x1]
  4068c9:	test   edx,edx
  4068cb:	jne    0x406ce4
  4068d1:	jmp    0x406494
  4068d6:	mov    edx,DWORD PTR [eax-0x1f]
  4068d9:	cmp    edx,DWORD PTR [ecx-0x1f]
  4068dc:	je     0x40695c
  4068de:	movzx  edx,BYTE PTR [ecx-0x1f]
  4068e2:	movzx  esi,BYTE PTR [eax-0x1f]
  4068e6:	sub    esi,edx
  4068e8:	je     0x4068ff
  4068ea:	xor    edx,edx
  4068ec:	test   esi,esi
  4068ee:	setg   dl
  4068f1:	lea    edx,[edx+edx*1-0x1]
  4068f5:	mov    esi,edx
  4068f7:	test   esi,esi
  4068f9:	jne    0x405ccf
  4068ff:	movzx  esi,BYTE PTR [eax-0x1e]
  406903:	movzx  edx,BYTE PTR [ecx-0x1e]
  406907:	sub    esi,edx
  406909:	je     0x406920
  40690b:	xor    edx,edx
  40690d:	test   esi,esi
  40690f:	setg   dl
  406912:	lea    edx,[edx+edx*1-0x1]
  406916:	mov    esi,edx
  406918:	test   esi,esi
  40691a:	jne    0x405ccf
  406920:	movzx  esi,BYTE PTR [eax-0x1d]
  406924:	movzx  edx,BYTE PTR [ecx-0x1d]
  406928:	sub    esi,edx
  40692a:	je     0x406941
  40692c:	xor    edx,edx
  40692e:	test   esi,esi
  406930:	setg   dl
  406933:	lea    edx,[edx+edx*1-0x1]
  406937:	mov    esi,edx
  406939:	test   esi,esi
  40693b:	jne    0x405ccf
  406941:	movzx  esi,BYTE PTR [eax-0x1c]
  406945:	movzx  edx,BYTE PTR [ecx-0x1c]
  406949:	sub    esi,edx
  40694b:	je     0x40695e
  40694d:	xor    edx,edx
  40694f:	test   esi,esi
  406951:	setg   dl
  406954:	lea    edx,[edx+edx*1-0x1]
  406958:	mov    esi,edx
  40695a:	jmp    0x40695e
  40695c:	xor    esi,esi
  40695e:	test   esi,esi
  406960:	jne    0x405ccf
  406966:	mov    edx,DWORD PTR [eax-0x1b]
  406969:	cmp    edx,DWORD PTR [ecx-0x1b]
  40696c:	je     0x4069eb
  40696e:	movzx  esi,dl
  406971:	movzx  edx,BYTE PTR [ecx-0x1b]
  406975:	sub    esi,edx
  406977:	je     0x40698e
  406979:	xor    edx,edx
  40697b:	test   esi,esi
  40697d:	setg   dl
  406980:	lea    edx,[edx+edx*1-0x1]
  406984:	mov    esi,edx
  406986:	test   esi,esi
  406988:	jne    0x405ccf
  40698e:	movzx  esi,BYTE PTR [eax-0x1a]
  406992:	movzx  edx,BYTE PTR [ecx-0x1a]
  406996:	sub    esi,edx
  406998:	je     0x4069af
  40699a:	xor    edx,edx
  40699c:	test   esi,esi
  40699e:	setg   dl
  4069a1:	lea    edx,[edx+edx*1-0x1]
  4069a5:	mov    esi,edx
  4069a7:	test   esi,esi
  4069a9:	jne    0x405ccf
  4069af:	movzx  esi,BYTE PTR [eax-0x19]
  4069b3:	movzx  edx,BYTE PTR [ecx-0x19]
  4069b7:	sub    esi,edx
  4069b9:	je     0x4069d0
  4069bb:	xor    edx,edx
  4069bd:	test   esi,esi
  4069bf:	setg   dl
  4069c2:	lea    edx,[edx+edx*1-0x1]
  4069c6:	mov    esi,edx
  4069c8:	test   esi,esi
  4069ca:	jne    0x405ccf
  4069d0:	movzx  esi,BYTE PTR [eax-0x18]
  4069d4:	movzx  edx,BYTE PTR [ecx-0x18]
  4069d8:	sub    esi,edx
  4069da:	je     0x4069ed
  4069dc:	xor    edx,edx
  4069de:	test   esi,esi
  4069e0:	setg   dl
  4069e3:	lea    edx,[edx+edx*1-0x1]
  4069e7:	mov    esi,edx
  4069e9:	jmp    0x4069ed
  4069eb:	xor    esi,esi
  4069ed:	test   esi,esi
  4069ef:	jne    0x405ccf
  4069f5:	mov    edx,DWORD PTR [eax-0x17]
  4069f8:	cmp    edx,DWORD PTR [ecx-0x17]
  4069fb:	je     0x406a7a
  4069fd:	movzx  esi,dl
  406a00:	movzx  edx,BYTE PTR [ecx-0x17]
  406a04:	sub    esi,edx
  406a06:	je     0x406a1d
  406a08:	xor    edx,edx
  406a0a:	test   esi,esi
  406a0c:	setg   dl
  406a0f:	lea    edx,[edx+edx*1-0x1]
  406a13:	mov    esi,edx
  406a15:	test   esi,esi
  406a17:	jne    0x405ccf
  406a1d:	movzx  esi,BYTE PTR [eax-0x16]
  406a21:	movzx  edx,BYTE PTR [ecx-0x16]
  406a25:	sub    esi,edx
  406a27:	je     0x406a3e
  406a29:	xor    edx,edx
  406a2b:	test   esi,esi
  406a2d:	setg   dl
  406a30:	lea    edx,[edx+edx*1-0x1]
  406a34:	mov    esi,edx
  406a36:	test   esi,esi
  406a38:	jne    0x405ccf
  406a3e:	movzx  esi,BYTE PTR [eax-0x15]
  406a42:	movzx  edx,BYTE PTR [ecx-0x15]
  406a46:	sub    esi,edx
  406a48:	je     0x406a5f
  406a4a:	xor    edx,edx
  406a4c:	test   esi,esi
  406a4e:	setg   dl
  406a51:	lea    edx,[edx+edx*1-0x1]
  406a55:	mov    esi,edx
  406a57:	test   esi,esi
  406a59:	jne    0x405ccf
  406a5f:	movzx  esi,BYTE PTR [eax-0x14]
  406a63:	movzx  edx,BYTE PTR [ecx-0x14]
  406a67:	sub    esi,edx
  406a69:	je     0x406a7c
  406a6b:	xor    edx,edx
  406a6d:	test   esi,esi
  406a6f:	setg   dl
  406a72:	lea    edx,[edx+edx*1-0x1]
  406a76:	mov    esi,edx
  406a78:	jmp    0x406a7c
  406a7a:	xor    esi,esi
  406a7c:	test   esi,esi
  406a7e:	jne    0x405ccf
  406a84:	mov    edx,DWORD PTR [eax-0x13]
  406a87:	cmp    edx,DWORD PTR [ecx-0x13]
  406a8a:	je     0x406b09
  406a8c:	movzx  esi,dl
  406a8f:	movzx  edx,BYTE PTR [ecx-0x13]
  406a93:	sub    esi,edx
  406a95:	je     0x406aac
  406a97:	xor    edx,edx
  406a99:	test   esi,esi
  406a9b:	setg   dl
  406a9e:	lea    edx,[edx+edx*1-0x1]
  406aa2:	mov    esi,edx
  406aa4:	test   esi,esi
  406aa6:	jne    0x405ccf
  406aac:	movzx  esi,BYTE PTR [eax-0x12]
  406ab0:	movzx  edx,BYTE PTR [ecx-0x12]
  406ab4:	sub    esi,edx
  406ab6:	je     0x406acd
  406ab8:	xor    edx,edx
  406aba:	test   esi,esi
  406abc:	setg   dl
  406abf:	lea    edx,[edx+edx*1-0x1]
  406ac3:	mov    esi,edx
  406ac5:	test   esi,esi
  406ac7:	jne    0x405ccf
  406acd:	movzx  esi,BYTE PTR [eax-0x11]
  406ad1:	movzx  edx,BYTE PTR [ecx-0x11]
  406ad5:	sub    esi,edx
  406ad7:	je     0x406aee
  406ad9:	xor    edx,edx
  406adb:	test   esi,esi
  406add:	setg   dl
  406ae0:	lea    edx,[edx+edx*1-0x1]
  406ae4:	mov    esi,edx
  406ae6:	test   esi,esi
  406ae8:	jne    0x405ccf
  406aee:	movzx  esi,BYTE PTR [eax-0x10]
  406af2:	movzx  edx,BYTE PTR [ecx-0x10]
  406af6:	sub    esi,edx
  406af8:	je     0x406b0b
  406afa:	xor    edx,edx
  406afc:	test   esi,esi
  406afe:	setg   dl
  406b01:	lea    edx,[edx+edx*1-0x1]
  406b05:	mov    esi,edx
  406b07:	jmp    0x406b0b
  406b09:	xor    esi,esi
  406b0b:	test   esi,esi
  406b0d:	jne    0x405ccf
  406b13:	mov    edx,DWORD PTR [eax-0xf]
  406b16:	cmp    edx,DWORD PTR [ecx-0xf]
  406b19:	je     0x406b99
  406b1b:	movzx  edx,BYTE PTR [ecx-0xf]
  406b1f:	movzx  esi,BYTE PTR [eax-0xf]
  406b23:	sub    esi,edx
  406b25:	je     0x406b3c
  406b27:	xor    edx,edx
  406b29:	test   esi,esi
  406b2b:	setg   dl
  406b2e:	lea    edx,[edx+edx*1-0x1]
  406b32:	mov    esi,edx
  406b34:	test   esi,esi
  406b36:	jne    0x405ccf
  406b3c:	movzx  esi,BYTE PTR [eax-0xe]
  406b40:	movzx  edx,BYTE PTR [ecx-0xe]
  406b44:	sub    esi,edx
  406b46:	je     0x406b5d
  406b48:	xor    edx,edx
  406b4a:	test   esi,esi
  406b4c:	setg   dl
  406b4f:	lea    edx,[edx+edx*1-0x1]
  406b53:	mov    esi,edx
  406b55:	test   esi,esi
  406b57:	jne    0x405ccf
  406b5d:	movzx  esi,BYTE PTR [eax-0xd]
  406b61:	movzx  edx,BYTE PTR [ecx-0xd]
  406b65:	sub    esi,edx
  406b67:	je     0x406b7e
  406b69:	xor    edx,edx
  406b6b:	test   esi,esi
  406b6d:	setg   dl
  406b70:	lea    edx,[edx+edx*1-0x1]
  406b74:	mov    esi,edx
  406b76:	test   esi,esi
  406b78:	jne    0x405ccf
  406b7e:	movzx  esi,BYTE PTR [eax-0xc]
  406b82:	movzx  edx,BYTE PTR [ecx-0xc]
  406b86:	sub    esi,edx
  406b88:	je     0x406b9b
  406b8a:	xor    edx,edx
  406b8c:	test   esi,esi
  406b8e:	setg   dl
  406b91:	lea    edx,[edx+edx*1-0x1]
  406b95:	mov    esi,edx
  406b97:	jmp    0x406b9b
  406b99:	xor    esi,esi
  406b9b:	test   esi,esi
  406b9d:	jne    0x405ccf
  406ba3:	mov    edx,DWORD PTR [eax-0xb]
  406ba6:	cmp    edx,DWORD PTR [ecx-0xb]
  406ba9:	je     0x406c28
  406bab:	movzx  esi,dl
  406bae:	movzx  edx,BYTE PTR [ecx-0xb]
  406bb2:	sub    esi,edx
  406bb4:	je     0x406bcb
  406bb6:	xor    edx,edx
  406bb8:	test   esi,esi
  406bba:	setg   dl
  406bbd:	lea    edx,[edx+edx*1-0x1]
  406bc1:	mov    esi,edx
  406bc3:	test   esi,esi
  406bc5:	jne    0x405ccf
  406bcb:	movzx  esi,BYTE PTR [eax-0xa]
  406bcf:	movzx  edx,BYTE PTR [ecx-0xa]
  406bd3:	sub    esi,edx
  406bd5:	je     0x406bec
  406bd7:	xor    edx,edx
  406bd9:	test   esi,esi
  406bdb:	setg   dl
  406bde:	lea    edx,[edx+edx*1-0x1]
  406be2:	mov    esi,edx
  406be4:	test   esi,esi
  406be6:	jne    0x405ccf
  406bec:	movzx  esi,BYTE PTR [eax-0x9]
  406bf0:	movzx  edx,BYTE PTR [ecx-0x9]
  406bf4:	sub    esi,edx
  406bf6:	je     0x406c0d
  406bf8:	xor    edx,edx
  406bfa:	test   esi,esi
  406bfc:	setg   dl
  406bff:	lea    edx,[edx+edx*1-0x1]
  406c03:	mov    esi,edx
  406c05:	test   esi,esi
  406c07:	jne    0x405ccf
  406c0d:	movzx  esi,BYTE PTR [eax-0x8]
  406c11:	movzx  edx,BYTE PTR [ecx-0x8]
  406c15:	sub    esi,edx
  406c17:	je     0x406c2a
  406c19:	xor    edx,edx
  406c1b:	test   esi,esi
  406c1d:	setg   dl
  406c20:	lea    edx,[edx+edx*1-0x1]
  406c24:	mov    esi,edx
  406c26:	jmp    0x406c2a
  406c28:	xor    esi,esi
  406c2a:	test   esi,esi
  406c2c:	jne    0x405ccf
  406c32:	mov    edx,DWORD PTR [eax-0x7]
  406c35:	cmp    edx,DWORD PTR [ecx-0x7]
  406c38:	je     0x406cb7
  406c3a:	movzx  esi,dl
  406c3d:	movzx  edx,BYTE PTR [ecx-0x7]
  406c41:	sub    esi,edx
  406c43:	je     0x406c5a
  406c45:	xor    edx,edx
  406c47:	test   esi,esi
  406c49:	setg   dl
  406c4c:	lea    edx,[edx+edx*1-0x1]
  406c50:	mov    esi,edx
  406c52:	test   esi,esi
  406c54:	jne    0x405ccf
  406c5a:	movzx  esi,BYTE PTR [eax-0x6]
  406c5e:	movzx  edx,BYTE PTR [ecx-0x6]
  406c62:	sub    esi,edx
  406c64:	je     0x406c7b
  406c66:	xor    edx,edx
  406c68:	test   esi,esi
  406c6a:	setg   dl
  406c6d:	lea    edx,[edx+edx*1-0x1]
  406c71:	mov    esi,edx
  406c73:	test   esi,esi
  406c75:	jne    0x405ccf
  406c7b:	movzx  esi,BYTE PTR [eax-0x5]
  406c7f:	movzx  edx,BYTE PTR [ecx-0x5]
  406c83:	sub    esi,edx
  406c85:	je     0x406c9c
  406c87:	xor    edx,edx
  406c89:	test   esi,esi
  406c8b:	setg   dl
  406c8e:	lea    edx,[edx+edx*1-0x1]
  406c92:	mov    esi,edx
  406c94:	test   esi,esi
  406c96:	jne    0x405ccf
  406c9c:	movzx  esi,BYTE PTR [eax-0x4]
  406ca0:	movzx  edx,BYTE PTR [ecx-0x4]
  406ca4:	sub    esi,edx
  406ca6:	je     0x406cb9
  406ca8:	xor    edx,edx
  406caa:	test   esi,esi
  406cac:	setg   dl
  406caf:	lea    edx,[edx+edx*1-0x1]
  406cb3:	mov    esi,edx
  406cb5:	jmp    0x406cb9
  406cb7:	xor    esi,esi
  406cb9:	test   esi,esi
  406cbb:	jne    0x405ccf
  406cc1:	movzx  esi,BYTE PTR [eax-0x3]
  406cc5:	movzx  edx,BYTE PTR [ecx-0x3]
  406cc9:	sub    esi,edx
  406ccb:	je     0x4068ae
  406cd1:	xor    edx,edx
  406cd3:	test   esi,esi
  406cd5:	setg   dl
  406cd8:	lea    edx,[edx+edx*1-0x1]
  406cdc:	test   edx,edx
  406cde:	je     0x4068ae
  406ce4:	mov    eax,edx
  406ce6:	jmp    0x4060a4
  406ceb:	mov    ecx,DWORD PTR [ebp+0x8]
  406cee:	mov    esi,DWORD PTR [ebp+0xc]
  406cf1:	movzx  eax,BYTE PTR [ecx]
  406cf4:	movzx  edx,BYTE PTR [esi]
  406cf7:	sub    eax,edx
  406cf9:	je     0x406d10
  406cfb:	xor    edx,edx
  406cfd:	test   eax,eax
  406cff:	setg   dl
  406d02:	lea    edx,[edx+edx*1-0x1]
  406d06:	mov    eax,edx
  406d08:	test   eax,eax
  406d0a:	jne    0x406dfd
  406d10:	movzx  eax,BYTE PTR [ecx+0x1]
  406d14:	movzx  edx,BYTE PTR [esi+0x1]
  406d18:	sub    eax,edx
  406d1a:	je     0x406d31
  406d1c:	xor    edx,edx
  406d1e:	test   eax,eax
  406d20:	setg   dl
  406d23:	lea    edx,[edx+edx*1-0x1]
  406d27:	mov    eax,edx
  406d29:	test   eax,eax
  406d2b:	jne    0x406dfd
  406d31:	movzx  eax,BYTE PTR [ecx+0x2]
  406d35:	movzx  edx,BYTE PTR [esi+0x2]
  406d39:	sub    eax,edx
  406d3b:	je     0x406d52
  406d3d:	xor    edx,edx
  406d3f:	test   eax,eax
  406d41:	setg   dl
  406d44:	lea    edx,[edx+edx*1-0x1]
  406d48:	mov    eax,edx
  406d4a:	test   eax,eax
  406d4c:	jne    0x406dfd
  406d52:	movzx  eax,BYTE PTR [ecx+0x3]
  406d56:	movzx  ecx,BYTE PTR [esi+0x3]
  406d5a:	sub    eax,ecx
  406d5c:	je     0x406dfd
  406d62:	xor    ecx,ecx
  406d64:	test   eax,eax
  406d66:	setg   cl
  406d69:	lea    ecx,[ecx+ecx*1-0x1]
  406d6d:	mov    eax,ecx
  406d6f:	jmp    0x406dfd
  406d74:	mov    ecx,DWORD PTR [ebp+0x8]
  406d77:	mov    esi,DWORD PTR [ebp+0xc]
  406d7a:	movzx  eax,BYTE PTR [ecx]
  406d7d:	movzx  edx,BYTE PTR [esi]
  406d80:	sub    eax,edx
  406d82:	je     0x406d95
  406d84:	xor    edx,edx
  406d86:	test   eax,eax
  406d88:	setg   dl
  406d8b:	lea    edx,[edx+edx*1-0x1]
  406d8f:	mov    eax,edx
  406d91:	test   eax,eax
  406d93:	jne    0x406dfd
  406d95:	movzx  eax,BYTE PTR [ecx+0x1]
  406d99:	movzx  edx,BYTE PTR [esi+0x1]
  406d9d:	sub    eax,edx
  406d9f:	je     0x406db2
  406da1:	xor    edx,edx
  406da3:	test   eax,eax
  406da5:	setg   dl
  406da8:	lea    edx,[edx+edx*1-0x1]
  406dac:	mov    eax,edx
  406dae:	test   eax,eax
  406db0:	jne    0x406dfd
  406db2:	movzx  eax,BYTE PTR [ecx+0x2]
  406db6:	movzx  ecx,BYTE PTR [esi+0x2]
  406dba:	jmp    0x406d5a
  406dbc:	mov    ecx,DWORD PTR [ebp+0x8]
  406dbf:	mov    esi,DWORD PTR [ebp+0xc]
  406dc2:	movzx  eax,BYTE PTR [ecx]
  406dc5:	movzx  edx,BYTE PTR [esi]
  406dc8:	sub    eax,edx
  406dca:	je     0x406ddd
  406dcc:	xor    edx,edx
  406dce:	test   eax,eax
  406dd0:	setg   dl
  406dd3:	lea    edx,[edx+edx*1-0x1]
  406dd7:	mov    eax,edx
  406dd9:	test   eax,eax
  406ddb:	jne    0x406dfd
  406ddd:	movzx  eax,BYTE PTR [ecx+0x1]
  406de1:	movzx  ecx,BYTE PTR [esi+0x1]
  406de5:	jmp    0x406d5a
  406dea:	mov    eax,DWORD PTR [ebp+0x8]
  406ded:	mov    ecx,DWORD PTR [ebp+0xc]
  406df0:	movzx  eax,BYTE PTR [eax]
  406df3:	movzx  ecx,BYTE PTR [ecx]
  406df6:	jmp    0x406d5a
  406dfb:	xor    eax,eax
  406dfd:	pop    edi
  406dfe:	pop    esi
  406dff:	pop    ebp
  406e00:	ret    
  406e01:	mov    ds:0x94004060,al
  406e06:	fs inc eax
  406e08:	add    BYTE PTR [eax-0x3effbf98],ah
  406e0e:	ins    BYTE PTR es:[edi],dx
  406e0f:	inc    eax
  406e10:	add    BYTE PTR ds:0x5004060,ah
  406e16:	fs inc eax
  406e18:	add    BYTE PTR [ecx],dl
  406e1a:	push   0x6c320040
  406e1f:	inc    eax
  406e20:	add    BYTE PTR [esi+0x7500405f],dl
  406e26:	arpl   WORD PTR [eax+0x0],ax
  406e29:	and    DWORD PTR [edi+0x40],0x406ba300
  406e30:	add    BYTE PTR [esi],al
  406e32:	pop    edi
  406e33:	inc    eax
  406e34:	add    dh,ah
  406e36:	bound  eax,QWORD PTR [eax+0x0]
  406e39:	repnz inc ax
  406e3c:	add    BYTE PTR [ebx],dl
  406e3e:	imul   eax,DWORD PTR [eax+0x0],0x77
  406e42:	pop    esi
  406e43:	inc    eax
  406e44:	add    BYTE PTR [edi+0x62],dl
  406e47:	inc    eax
  406e48:	add    BYTE PTR [ebx+0x66],ah
  406e4b:	inc    eax
  406e4c:	add    BYTE PTR [edx+ebp*2+0x5de80040],al
  406e53:	inc    eax
  406e54:	add    al,cl
  406e56:	popa   
  406e57:	inc    eax
  406e58:	add    ah,dl
  406e5a:	gs inc eax
  406e5c:	add    ch,dh
  406e5e:	imul   eax,DWORD PTR [eax+0x0],0x405d59
  406e65:	cmp    DWORD PTR [ecx+0x40],esp
  406e68:	add    BYTE PTR [ebp+0x65],al
  406e6b:	inc    eax
  406e6c:	add    BYTE PTR [esi+0x69],ah
  406e6f:	inc    eax
  406e70:	add    dh,dl
  406e72:	pop    esp
  406e73:	inc    eax
  406e74:	add    BYTE PTR [edx-0x49ffbfa0],ch
  406e7a:	fs inc eax
  406e7c:	add    dh,dl
  406e7e:	push   0xff8b0040
  406e83:	push   ebp
  406e84:	mov    ebp,esp
  406e86:	cmp    DWORD PTR ds:0x43bfac,0x1
  406e8d:	jne    0x406e94
  406e8f:	call   0x40d42b
  406e94:	push   DWORD PTR [ebp+0x8]
  406e97:	call   0x40d280
  406e9c:	push   0xff
  406ea1:	call   0x40cfcc
  406ea6:	pop    ecx
  406ea7:	pop    ecx
  406ea8:	pop    ebp
  406ea9:	ret    
  406eaa:	push   0x58
  406eac:	push   0x41edd0
  406eb1:	call   0x40a868
  406eb6:	xor    esi,esi
  406eb8:	mov    DWORD PTR [ebp-0x4],esi
  406ebb:	lea    eax,[ebp-0x68]
  406ebe:	push   eax
  406ebf:	call   DWORD PTR ds:0x419490
  406ec5:	push   0xfffffffe
  406ec7:	pop    edi
  406ec8:	mov    DWORD PTR [ebp-0x4],edi
  406ecb:	mov    eax,0x5a4d
  406ed0:	cmp    WORD PTR ds:0x400000,ax
  406ed7:	jne    0x406f11
  406ed9:	mov    eax,ds:0x40003c
  406ede:	cmp    DWORD PTR [eax+0x400000],0x4550
  406ee8:	jne    0x406f11
  406eea:	mov    ecx,0x10b
  406eef:	cmp    WORD PTR [eax+0x400018],cx
  406ef6:	jne    0x406f11
  406ef8:	cmp    DWORD PTR [eax+0x400074],0xe
  406eff:	jbe    0x406f11
  406f01:	xor    ecx,ecx
  406f03:	cmp    DWORD PTR [eax+0x4000e8],esi
  406f09:	setne  cl
  406f0c:	mov    DWORD PTR [ebp-0x1c],ecx
  406f0f:	jmp    0x406f14
  406f11:	mov    DWORD PTR [ebp-0x1c],esi
  406f14:	xor    ebx,ebx
  406f16:	inc    ebx
  406f17:	push   ebx
  406f18:	call   0x40dd2d
  406f1d:	pop    ecx
  406f1e:	test   eax,eax
  406f20:	jne    0x406f2a
  406f22:	push   0x1c
  406f24:	call   0x406e81
  406f29:	pop    ecx
  406f2a:	call   0x408d2e
  406f2f:	test   eax,eax
  406f31:	jne    0x406f3b
  406f33:	push   0x10
  406f35:	call   0x406e81
  406f3a:	pop    ecx
  406f3b:	call   0x40dce1
  406f40:	mov    DWORD PTR [ebp-0x4],ebx
  406f43:	call   0x40da8d
  406f48:	test   eax,eax
  406f4a:	jge    0x406f54
  406f4c:	push   0x1b
  406f4e:	call   0x40cf78
  406f53:	pop    ecx
  406f54:	call   DWORD PTR ds:0x41948c
  406f5a:	mov    ds:0x43db6c,eax
  406f5f:	call   0x40d956
  406f64:	mov    ds:0x43bfa4,eax
  406f69:	call   0x40d89b
  406f6e:	test   eax,eax
  406f70:	jge    0x406f7a
  406f72:	push   0x8
  406f74:	call   0x40cf78
  406f79:	pop    ecx
  406f7a:	call   0x40d623
  406f7f:	test   eax,eax
  406f81:	jge    0x406f8b
  406f83:	push   0x9
  406f85:	call   0x40cf78
  406f8a:	pop    ecx
  406f8b:	push   ebx
  406f8c:	call   0x40d037
  406f91:	pop    ecx
  406f92:	cmp    eax,esi
  406f94:	je     0x406f9d
  406f96:	push   eax
  406f97:	call   0x40cf78
  406f9c:	pop    ecx
  406f9d:	call   0x40d5c4
  406fa2:	test   BYTE PTR [ebp-0x3c],bl
  406fa5:	je     0x406fad
  406fa7:	movzx  ecx,WORD PTR [ebp-0x38]
  406fab:	jmp    0x406fb0
  406fad:	push   0xa
  406faf:	pop    ecx
  406fb0:	push   ecx
  406fb1:	push   eax
  406fb2:	push   esi
  406fb3:	push   0x400000
  406fb8:	call   0x403990
  406fbd:	mov    DWORD PTR [ebp-0x20],eax
  406fc0:	cmp    DWORD PTR [ebp-0x1c],esi
  406fc3:	jne    0x406fcb
  406fc5:	push   eax
  406fc6:	call   0x40d1e8
  406fcb:	call   0x40d214
  406fd0:	mov    DWORD PTR [ebp-0x4],edi
  406fd3:	jmp    0x40700a
  406fd5:	mov    eax,DWORD PTR [ebp-0x14]
  406fd8:	mov    ecx,DWORD PTR [eax]
  406fda:	mov    ecx,DWORD PTR [ecx]
  406fdc:	mov    DWORD PTR [ebp-0x24],ecx
  406fdf:	push   eax
  406fe0:	push   ecx
  406fe1:	call   0x40d464
  406fe6:	pop    ecx
  406fe7:	pop    ecx
  406fe8:	ret    
  406fe9:	mov    esp,DWORD PTR [ebp-0x18]
  406fec:	mov    eax,DWORD PTR [ebp-0x24]
  406fef:	mov    DWORD PTR [ebp-0x20],eax
  406ff2:	cmp    DWORD PTR [ebp-0x1c],0x0
  406ff6:	jne    0x406ffe
  406ff8:	push   eax
  406ff9:	call   0x40d1fe
  406ffe:	call   0x40d223
  407003:	mov    DWORD PTR [ebp-0x4],0xfffffffe
  40700a:	mov    eax,DWORD PTR [ebp-0x20]
  40700d:	jmp    0x407022
  40700f:	xor    eax,eax
  407011:	inc    eax
  407012:	ret    
  407013:	mov    esp,DWORD PTR [ebp-0x18]
  407016:	mov    DWORD PTR [ebp-0x4],0xfffffffe
  40701d:	mov    eax,0xff
  407022:	call   0x40a8ad
  407027:	ret    
  407028:	call   0x40dd5d
  40702d:	jmp    0x406eaa
  407032:	push   ebp
  407033:	mov    ebp,esp
  407035:	sub    esp,0x8
  407038:	mov    DWORD PTR [ebp-0x4],edi
  40703b:	mov    DWORD PTR [ebp-0x8],esi
  40703e:	mov    esi,DWORD PTR [ebp+0xc]
  407041:	mov    edi,DWORD PTR [ebp+0x8]
  407044:	mov    ecx,DWORD PTR [ebp+0x10]
  407047:	shr    ecx,0x7
  40704a:	jmp    0x407052
  40704c:	lea    ebx,[ebx+0x0]
  407052:	movdqa xmm0,XMMWORD PTR [esi]
  407056:	movdqa xmm1,XMMWORD PTR [esi+0x10]
  40705b:	movdqa xmm2,XMMWORD PTR [esi+0x20]
  407060:	movdqa xmm3,XMMWORD PTR [esi+0x30]
  407065:	movdqa XMMWORD PTR [edi],xmm0
  407069:	movdqa XMMWORD PTR [edi+0x10],xmm1
  40706e:	movdqa XMMWORD PTR [edi+0x20],xmm2
  407073:	movdqa XMMWORD PTR [edi+0x30],xmm3
  407078:	movdqa xmm4,XMMWORD PTR [esi+0x40]
  40707d:	movdqa xmm5,XMMWORD PTR [esi+0x50]
  407082:	movdqa xmm6,XMMWORD PTR [esi+0x60]
  407087:	movdqa xmm7,XMMWORD PTR [esi+0x70]
  40708c:	movdqa XMMWORD PTR [edi+0x40],xmm4
  407091:	movdqa XMMWORD PTR [edi+0x50],xmm5
  407096:	movdqa XMMWORD PTR [edi+0x60],xmm6
  40709b:	movdqa XMMWORD PTR [edi+0x70],xmm7
  4070a0:	lea    esi,[esi+0x80]
  4070a6:	lea    edi,[edi+0x80]
  4070ac:	dec    ecx
  4070ad:	jne    0x407052
  4070af:	mov    esi,DWORD PTR [ebp-0x8]
  4070b2:	mov    edi,DWORD PTR [ebp-0x4]
  4070b5:	mov    esp,ebp
  4070b7:	pop    ebp
  4070b8:	ret    
  4070b9:	push   ebp
  4070ba:	mov    ebp,esp
  4070bc:	sub    esp,0x1c
  4070bf:	mov    DWORD PTR [ebp-0xc],edi
  4070c2:	mov    DWORD PTR [ebp-0x8],esi
  4070c5:	mov    DWORD PTR [ebp-0x4],ebx
  4070c8:	mov    ebx,DWORD PTR [ebp+0xc]
  4070cb:	mov    eax,ebx
  4070cd:	cdq    
  4070ce:	mov    ecx,eax
  4070d0:	mov    eax,DWORD PTR [ebp+0x8]
  4070d3:	xor    ecx,edx
  4070d5:	sub    ecx,edx
  4070d7:	and    ecx,0xf
  4070da:	xor    ecx,edx
  4070dc:	sub    ecx,edx
  4070de:	cdq    
  4070df:	mov    edi,eax
  4070e1:	xor    edi,edx
  4070e3:	sub    edi,edx
  4070e5:	and    edi,0xf
  4070e8:	xor    edi,edx
  4070ea:	sub    edi,edx
  4070ec:	mov    edx,ecx
  4070ee:	or     edx,edi
  4070f0:	jne    0x40713c
  4070f2:	mov    esi,DWORD PTR [ebp+0x10]
  4070f5:	mov    ecx,esi
  4070f7:	and    ecx,0x7f
  4070fa:	mov    DWORD PTR [ebp-0x18],ecx
  4070fd:	cmp    esi,ecx
  4070ff:	je     0x407114
  407101:	sub    esi,ecx
  407103:	push   esi
  407104:	push   ebx
  407105:	push   eax
  407106:	call   0x407032
  40710b:	add    esp,0xc
  40710e:	mov    eax,DWORD PTR [ebp+0x8]
  407111:	mov    ecx,DWORD PTR [ebp-0x18]
  407114:	test   ecx,ecx
  407116:	je     0x40718f
  407118:	mov    ebx,DWORD PTR [ebp+0x10]
  40711b:	mov    edx,DWORD PTR [ebp+0xc]
  40711e:	add    edx,ebx
  407120:	sub    edx,ecx
  407122:	mov    DWORD PTR [ebp-0x14],edx
  407125:	add    ebx,eax
  407127:	sub    ebx,ecx
  407129:	mov    DWORD PTR [ebp-0x10],ebx
  40712c:	mov    esi,DWORD PTR [ebp-0x14]
  40712f:	mov    edi,DWORD PTR [ebp-0x10]
  407132:	mov    ecx,DWORD PTR [ebp-0x18]
  407135:	rep movs BYTE PTR es:[edi],BYTE PTR ds:[esi]
  407137:	mov    eax,DWORD PTR [ebp+0x8]
  40713a:	jmp    0x40718f
  40713c:	cmp    ecx,edi
  40713e:	jne    0x407175
  407140:	neg    ecx
  407142:	add    ecx,0x10
  407145:	mov    DWORD PTR [ebp-0x1c],ecx
  407148:	mov    esi,DWORD PTR [ebp+0xc]
  40714b:	mov    edi,DWORD PTR [ebp+0x8]
  40714e:	mov    ecx,DWORD PTR [ebp-0x1c]
  407151:	rep movs BYTE PTR es:[edi],BYTE PTR ds:[esi]
  407153:	mov    ecx,DWORD PTR [ebp+0x8]
  407156:	add    ecx,DWORD PTR [ebp-0x1c]
  407159:	mov    edx,DWORD PTR [ebp+0xc]
  40715c:	add    edx,DWORD PTR [ebp-0x1c]
  40715f:	mov    eax,DWORD PTR [ebp+0x10]
  407162:	sub    eax,DWORD PTR [ebp-0x1c]
  407165:	push   eax
  407166:	push   edx
  407167:	push   ecx
  407168:	call   0x4070b9
  40716d:	add    esp,0xc
  407170:	mov    eax,DWORD PTR [ebp+0x8]
  407173:	jmp    0x40718f
  407175:	mov    esi,DWORD PTR [ebp+0xc]
  407178:	mov    edi,DWORD PTR [ebp+0x8]
  40717b:	mov    ecx,DWORD PTR [ebp+0x10]
  40717e:	mov    edx,ecx
  407180:	shr    ecx,0x2
  407183:	rep movs DWORD PTR es:[edi],DWORD PTR ds:[esi]
  407185:	mov    ecx,edx
  407187:	and    ecx,0x3
  40718a:	rep movs BYTE PTR es:[edi],BYTE PTR ds:[esi]
  40718c:	mov    eax,DWORD PTR [ebp+0x8]
  40718f:	mov    ebx,DWORD PTR [ebp-0x4]
  407192:	mov    esi,DWORD PTR [ebp-0x8]
  407195:	mov    edi,DWORD PTR [ebp-0xc]
  407198:	mov    esp,ebp
  40719a:	pop    ebp
  40719b:	ret    
  40719c:	push   0xc
  40719e:	push   0x41edf8
  4071a3:	call   0x40a868
  4071a8:	and    DWORD PTR [ebp-0x4],0x0
  4071ac:	movapd xmm0,xmm1
  4071b0:	mov    DWORD PTR [ebp-0x1c],0x1
  4071b7:	jmp    0x4071dc
  4071b9:	mov    eax,DWORD PTR [ebp-0x14]
  4071bc:	mov    eax,DWORD PTR [eax]
  4071be:	mov    eax,DWORD PTR [eax]
  4071c0:	cmp    eax,0xc0000005
  4071c5:	je     0x4071d1
  4071c7:	cmp    eax,0xc000001d
  4071cc:	je     0x4071d1
  4071ce:	xor    eax,eax
  4071d0:	ret    
  4071d1:	xor    eax,eax
  4071d3:	inc    eax
  4071d4:	ret    
  4071d5:	mov    esp,DWORD PTR [ebp-0x18]
  4071d8:	and    DWORD PTR [ebp-0x1c],0x0
  4071dc:	mov    DWORD PTR [ebp-0x4],0xfffffffe
  4071e3:	mov    eax,DWORD PTR [ebp-0x1c]
  4071e6:	call   0x40a8ad
  4071eb:	ret    
  4071ec:	mov    edi,edi
  4071ee:	push   ebp
  4071ef:	mov    ebp,esp
  4071f1:	sub    esp,0x18
  4071f4:	xor    eax,eax
  4071f6:	push   ebx
  4071f7:	mov    DWORD PTR [ebp-0x4],eax
  4071fa:	mov    DWORD PTR [ebp-0xc],eax
  4071fd:	mov    DWORD PTR [ebp-0x8],eax
  407200:	push   ebx
  407201:	pushf  
  407202:	pop    eax
  407203:	mov    ecx,eax
  407205:	xor    eax,0x200000
  40720a:	push   eax
  40720b:	popf   
  40720c:	pushf  
  40720d:	pop    edx
  40720e:	sub    edx,ecx
  407210:	je     0x407231
  407212:	push   ecx
  407213:	popf   
  407214:	xor    eax,eax
  407216:	cpuid  
  407218:	mov    DWORD PTR [ebp-0xc],eax
  40721b:	mov    DWORD PTR [ebp-0x18],ebx
  40721e:	mov    DWORD PTR [ebp-0x14],edx
  407221:	mov    DWORD PTR [ebp-0x10],ecx
  407224:	mov    eax,0x1
  407229:	cpuid  
  40722b:	mov    DWORD PTR [ebp-0x4],edx
  40722e:	mov    DWORD PTR [ebp-0x8],eax
  407231:	pop    ebx
  407232:	test   DWORD PTR [ebp-0x4],0x4000000
  407239:	je     0x407249
  40723b:	call   0x40719c
  407240:	test   eax,eax
  407242:	je     0x407249
  407244:	xor    eax,eax
  407246:	inc    eax
  407247:	jmp    0x40724b
  407249:	xor    eax,eax
  40724b:	pop    ebx
  40724c:	leave  
  40724d:	ret    
  40724e:	call   0x4071ec
  407253:	mov    ds:0x43db68,eax
  407258:	xor    eax,eax
  40725a:	ret    
  40725b:	and    DWORD PTR ds:0x43db64,0x0
  407262:	call   0x4071ec
  407267:	mov    ds:0x43db64,eax
  40726c:	xor    eax,eax
  40726e:	ret    
  40726f:	int3   
  407270:	push   ebp
  407271:	mov    ebp,esp
  407273:	sub    esp,0x10
  407276:	and    esp,0xfffffff0
  407279:	fxch   st(1)
  40727b:	fstp   QWORD PTR [esp]
  40727e:	fstp   QWORD PTR [esp+0x8]
  407282:	call   0x407289
  407287:	leave  
  407288:	ret    
  407289:	movlpd xmm0,QWORD PTR [esp+0x4]
  40728f:	movlpd xmm7,QWORD PTR ds:0x41d350
  407297:	movlpd xmm2,QWORD PTR ds:0x41d360
  40729f:	andpd  xmm7,xmm0
  4072a3:	movsd  xmm4,xmm0
  4072a7:	psrlq  xmm0,0x2c
  4072ac:	pextrw eax,xmm0,0x0
  4072b1:	orpd   xmm7,xmm2
  4072b5:	pextrw ecx,xmm4,0x3
  4072ba:	and    eax,0xff
  4072bf:	add    eax,0x1
  4072c2:	and    eax,0x1fe
  4072c7:	mulsd  xmm7,QWORD PTR [eax*4+0x419ac0]
  4072d0:	movlpd xmm5,QWORD PTR [eax*4+0x419ac0]
  4072d9:	add    eax,eax
  4072db:	movapd xmm6,XMMWORD PTR [eax*4+0x419ed0]
  4072e4:	mov    edx,0x7fef
  4072e9:	sub    edx,ecx
  4072eb:	sub    ecx,0x10
  4072ee:	or     ecx,edx
  4072f0:	cmp    ecx,0x80000000
  4072f6:	jae    0x4075d7
  4072fc:	mov    ecx,0x0
  407301:	mov    edx,0x3fe7f
  407306:	movd   xmm1,edx
  40730a:	psubq  xmm0,xmm1
  40730e:	psrlq  xmm0,0x8
  407313:	cvtdq2pd xmm0,xmm0
  407317:	movlpd xmm1,QWORD PTR ds:0x41d3a8
  40731f:	movsd  xmm3,xmm7
  407323:	psrlq  xmm7,0x26
  407328:	pextrw eax,xmm7,0x0
  40732d:	andpd  xmm4,XMMWORD PTR ds:0x41d350
  407335:	and    eax,0xff
  40733a:	add    eax,0x1
  40733d:	and    eax,0x1fe
  407342:	mulsd  xmm3,QWORD PTR [eax*4+0x41a6e0]
  40734b:	mulsd  xmm5,QWORD PTR [eax*4+0x41a6e0]
  407354:	add    eax,eax
  407356:	addpd  xmm6,XMMWORD PTR [eax*4+0x41aaf0]
  40735f:	orpd   xmm4,XMMWORD PTR ds:0x41d360
  407367:	addsd  xmm6,xmm0
  40736b:	andpd  xmm1,xmm4
  40736f:	movsd  xmm2,xmm3
  407373:	psrlq  xmm3,0x1f
  407378:	pextrw eax,xmm3,0x0
  40737d:	movlpd xmm0,QWORD PTR ds:0x41d3a8
  407385:	subsd  xmm4,xmm1
  407389:	movlpd xmm7,QWORD PTR ds:0x41d3b0
  407391:	and    eax,0x1ff
  407396:	add    eax,0x1
  407399:	and    eax,0x3fe
  40739e:	mulsd  xmm5,QWORD PTR [eax*4+0x41b300]
  4073a7:	mulsd  xmm2,QWORD PTR [eax*4+0x41b300]
  4073b0:	addpd  xmm6,XMMWORD PTR [eax*8+0x41bb10]
  4073b9:	andpd  xmm0,xmm5
  4073bd:	subsd  xmm5,xmm0
  4073c1:	addsd  xmm7,xmm2
  4073c5:	movsd  xmm3,xmm0
  4073c9:	mulsd  xmm0,xmm1
  4073cd:	mulsd  xmm1,xmm5
  4073d1:	mulsd  xmm3,xmm4
  4073d5:	subsd  xmm2,xmm0
  4073d9:	mulsd  xmm4,xmm5
  4073dd:	movsd  xmm0,xmm6
  4073e1:	subsd  xmm2,xmm1
  4073e5:	addsd  xmm6,xmm7
  4073e9:	movlpd xmm1,QWORD PTR [esp+0xc]
  4073ef:	pextrw eax,xmm1,0x3
  4073f4:	subsd  xmm2,xmm3
  4073f8:	subsd  xmm0,xmm6
  4073fc:	movlpd xmm3,QWORD PTR ds:0x41d3a8
  407404:	pextrw edx,xmm6,0x3
  407409:	subsd  xmm2,xmm4
  40740d:	movsd  xmm4,xmm6
  407411:	addsd  xmm0,xmm7
  407415:	subsd  xmm7,xmm2
  407419:	subsd  xmm6,xmm2
  40741d:	unpcklpd xmm7,xmm7
  407421:	and    eax,0x7ff0
  407426:	cmp    eax,0x7ff0
  40742b:	jae    0x407948
  407431:	and    edx,0x7ff0
  407437:	sub    eax,0x3ff0
  40743c:	add    eax,edx
  40743e:	mov    edx,0x40a0
  407443:	sub    edx,eax
  407445:	sub    eax,0x3c70
  40744a:	or     edx,eax
  40744c:	cmp    edx,0x80000000
  407452:	jae    0x407d3c
  407458:	subsd  xmm4,xmm6
  40745c:	subsd  xmm2,xmm4
  407460:	movlpd xmm4,QWORD PTR ds:0x41d3a8
  407468:	andpd  xmm3,xmm1
  40746c:	andpd  xmm4,xmm6
  407470:	subsd  xmm0,xmm2
  407474:	xorpd  xmm2,xmm2
  407478:	mov    edx,0x4060
  40747d:	pinsrw xmm2,edx,0x3
  407482:	movsd  xmm5,xmm3
  407486:	mulsd  xmm3,xmm4
  40748a:	subsd  xmm6,xmm4
  40748e:	subsd  xmm1,xmm5
  407492:	mulsd  xmm3,xmm2
  407496:	mulsd  xmm5,xmm6
  40749a:	movapd xmm2,XMMWORD PTR ds:0x41cb20
  4074a2:	mulsd  xmm4,xmm1
  4074a6:	cvtsd2si eax,xmm3
  4074aa:	mulsd  xmm6,xmm1
  4074ae:	movapd xmm1,XMMWORD PTR ds:0x41cb30
  4074b6:	addsd  xmm5,xmm4
  4074ba:	pshufd xmm4,xmm6,0xee
  4074bf:	addsd  xmm5,xmm6
  4074c3:	mov    edx,0x1ff7f
  4074c8:	sub    edx,eax
  4074ca:	add    eax,0x1e1ff
  4074cf:	or     edx,eax
  4074d1:	sub    eax,0x1e1ff
  4074d6:	cmp    edx,0x0
  4074d9:	jle    0x407ac0
  4074df:	add    ecx,eax
  4074e1:	and    eax,0x7f
  4074e4:	and    ecx,0xffffff80
  4074e7:	add    ecx,0x1ff80
  4074ed:	addsd  xmm4,xmm0
  4074f1:	movsd  xmm0,xmm3
  4074f5:	addsd  xmm3,QWORD PTR ds:0x41d340
  4074fd:	mulpd  xmm2,xmm7
  407501:	subsd  xmm3,QWORD PTR ds:0x41d340
  407509:	mulpd  xmm7,xmm7
  40750d:	subsd  xmm0,xmm3
  407511:	add    eax,eax
  407513:	add    eax,eax
  407515:	add    eax,eax
  407517:	add    eax,eax
  407519:	movapd xmm3,XMMWORD PTR [eax+0x41cb40]
  407521:	movapd xmm6,XMMWORD PTR ds:0x41d380
  407529:	mulpd  xmm1,xmm7
  40752d:	addpd  xmm2,xmm1
  407531:	pshufd xmm1,xmm2,0xee
  407536:	mulsd  xmm2,xmm7
  40753a:	xorpd  xmm7,xmm7
  40753e:	mov    edx,0x3f80
  407543:	addsd  xmm2,xmm1
  407547:	pinsrw xmm7,edx,0x3
  40754c:	addsd  xmm2,xmm4
  407550:	movlpd xmm4,QWORD PTR ds:0x41d3a0
  407558:	movd   xmm1,ecx
  40755c:	mulsd  xmm2,QWORD PTR [esp+0xc]
  407562:	mulsd  xmm0,xmm7
  407566:	psllq  xmm1,0x2d
  40756b:	pshufd xmm1,xmm1,0x44
  407570:	movapd xmm7,XMMWORD PTR ds:0x41d390
  407578:	addsd  xmm5,xmm2
  40757c:	mulpd  xmm3,xmm1
  407580:	addsd  xmm0,xmm5
  407584:	unpcklpd xmm0,xmm0
  407588:	mulpd  xmm6,xmm0
  40758c:	mulsd  xmm4,xmm0
  407590:	mulpd  xmm0,xmm0
  407594:	addpd  xmm7,xmm6
  407598:	mulpd  xmm7,xmm0
  40759c:	mulsd  xmm0,xmm3
  4075a0:	pshufd xmm6,xmm7,0xee
  4075a5:	mulsd  xmm0,xmm7
  4075a9:	pshufd xmm5,xmm3,0xee
  4075ae:	mulsd  xmm6,xmm3
  4075b2:	mulsd  xmm4,xmm3
  4075b6:	addsd  xmm0,xmm5
  4075ba:	sub    esp,0x10
  4075bd:	addsd  xmm0,xmm6
  4075c1:	addsd  xmm0,xmm4
  4075c5:	addsd  xmm0,xmm3
  4075c9:	movlpd QWORD PTR [esp+0x4],xmm0
  4075cf:	fld    QWORD PTR [esp+0x4]
  4075d3:	add    esp,0x10
  4075d6:	ret    
  4075d7:	movlpd xmm1,QWORD PTR [esp+0xc]
  4075dd:	movlpd xmm3,QWORD PTR ds:0x41d370
  4075e5:	movd   eax,xmm1
  4075e9:	movsd  xmm2,xmm1
  4075ed:	andpd  xmm1,xmm3
  4075f1:	psrlq  xmm1,0x20
  4075f6:	movd   ecx,xmm1
  4075fa:	cmp    ecx,0x7ff00000
  407600:	jae    0x4076e0
  407606:	or     eax,ecx
  407608:	cmp    eax,0x0
  40760b:	je     0x407a2d
  407611:	cmp    edx,0x0
  407614:	jge    0x40771f
  40761a:	neg    edx
  40761c:	add    edx,0x7fef
  407622:	psllq  xmm3,0x34
  407627:	orpd   xmm2,xmm3
  40762b:	mov    ecx,0x3f3
  407630:	movd   xmm3,ecx
  407634:	psrlq  xmm1,0x14
  407639:	psubd  xmm1,xmm3
  40763d:	pxor   xmm3,xmm3
  407641:	pmaxsw xmm1,xmm3
  407645:	psllq  xmm2,xmm1
  407649:	pcmpeqd xmm2,xmm3
  40764d:	pmovmskb eax,xmm2
  407651:	mov    ecx,edx
  407653:	and    edx,0x7fff
  407659:	cmp    edx,0x7ff0
  40765f:	jae    0x407808
  407665:	and    eax,0xff
  40766a:	cmp    eax,0xff
  40766f:	jne    0x407901
  407675:	movlpd xmm1,QWORD PTR [esp+0xc]
  40767b:	movlpd xmm2,QWORD PTR [esp+0xc]
  407681:	mov    ecx,0x3f4
  407686:	movd   xmm3,ecx
  40768a:	andpd  xmm1,XMMWORD PTR ds:0x41d370
  407692:	psrlq  xmm1,0x34
  407697:	psubd  xmm1,xmm3
  40769b:	movlpd xmm3,QWORD PTR ds:0x41d3d0
  4076a3:	psllq  xmm2,xmm1
  4076a7:	pcmpeqd xmm2,xmm3
  4076ab:	pmovmskb eax,xmm2
  4076af:	and    eax,0xff
  4076b4:	mov    ecx,0x3ff01
  4076b9:	add    ecx,eax
  4076bb:	and    ecx,0x40000
  4076c1:	cmp    edx,0x10
  4076c4:	jb     0x407724
  4076c6:	mov    edx,0xbfe7f
  4076cb:	movlpd xmm3,QWORD PTR ds:0x41d350
  4076d3:	movlpd xmm2,QWORD PTR ds:0x41d360
  4076db:	jmp    0x407306
  4076e0:	movlpd xmm7,QWORD PTR [esp+0x4]
  4076e6:	movlpd xmm4,QWORD PTR [esp+0x4]
  4076ec:	movd   edx,xmm7
  4076f0:	psrlq  xmm7,0x20
  4076f5:	movd   eax,xmm7
  4076f9:	mov    ecx,eax
  4076fb:	and    eax,0x7fffffff
  407700:	cmp    eax,0x7ff00000
  407705:	jb     0x4079a5
  40770b:	ja     0x4078ef
  407711:	cmp    edx,0x0
  407714:	ja     0x4078ef
  40771a:	jmp    0x4079a5
  40771f:	mov    ecx,0x0
  407724:	xorpd  xmm0,xmm0
  407728:	mov    eax,0x43f0
  40772d:	pinsrw xmm0,eax,0x3
  407732:	movlpd xmm7,QWORD PTR ds:0x41d350
  40773a:	movlpd xmm2,QWORD PTR ds:0x41d360
  407742:	mulsd  xmm0,xmm4
  407746:	movd   edx,xmm4
  40774a:	psrlq  xmm4,0x20
  40774f:	movd   eax,xmm4
  407753:	cmp    edx,0x0
  407756:	je     0x4077aa
  407758:	andpd  xmm7,xmm0
  40775c:	movsd  xmm4,xmm0
  407760:	andpd  xmm0,XMMWORD PTR ds:0x41d370
  407768:	psrlq  xmm0,0x2c
  40776d:	pextrw eax,xmm0,0x0
  407772:	orpd   xmm7,xmm2
  407776:	and    eax,0xff
  40777b:	add    eax,0x1
  40777e:	and    eax,0x1fe
  407783:	mulsd  xmm7,QWORD PTR [eax*4+0x419ac0]
  40778c:	movlpd xmm5,QWORD PTR [eax*4+0x419ac0]
  407795:	add    eax,eax
  407797:	movapd xmm6,XMMWORD PTR [eax*4+0x419ed0]
  4077a0:	mov    edx,0x43e7f
  4077a5:	jmp    0x407306
  4077aa:	mov    edx,eax
  4077ac:	and    edx,0x7fffffff
  4077b2:	cmp    edx,0x0
  4077b5:	jne    0x407758
  4077b7:	mov    edx,DWORD PTR [esp+0x10]
  4077bb:	and    edx,0x80000000
  4077c1:	cmp    edx,0x0
  4077c4:	je     0x4077f7
  4077c6:	shl    ecx,0xd
  4077c9:	and    eax,ecx
  4077cb:	mov    edx,0x7ff00000
  4077d0:	or     edx,eax
  4077d2:	movd   xmm0,edx
  4077d6:	psllq  xmm0,0x20
  4077db:	movlpd xmm1,QWORD PTR ds:0x41d360
  4077e3:	movlpd xmm2,QWORD PTR [esp+0x4]
  4077e9:	divsd  xmm1,xmm2
  4077ed:	mov    edx,0x1b
  4077f2:	jmp    0x407a90
  4077f7:	shl    ecx,0xd
  4077fa:	and    eax,ecx
  4077fc:	cmp    eax,0x0
  4077ff:	jne    0x4078a9
  407805:	fldz   
  407807:	ret    
  407808:	movlpd xmm3,QWORD PTR ds:0x41d350
  407810:	xorpd  xmm1,xmm1
  407814:	andpd  xmm3,xmm4
  407818:	pcmpeqd xmm1,xmm3
  40781c:	pmovmskb ecx,xmm1
  407820:	and    ecx,0xff
  407826:	cmp    ecx,0xff
  40782c:	jne    0x4078ef
  407832:	pextrw ecx,xmm4,0x3
  407837:	and    ecx,0x8000
  40783d:	cmp    ecx,0x0
  407840:	je     0x4078d3
  407846:	and    eax,0xff
  40784b:	cmp    eax,0xff
  407850:	jne    0x4078b7
  407852:	movlpd xmm1,QWORD PTR [esp+0xc]
  407858:	movlpd xmm2,QWORD PTR [esp+0xc]
  40785e:	mov    ecx,0x3f4
  407863:	movd   xmm3,ecx
  407867:	andpd  xmm1,XMMWORD PTR ds:0x41d370
  40786f:	psrlq  xmm1,0x34
  407874:	psubd  xmm1,xmm3
  407878:	pxor   xmm3,xmm3
  40787c:	psllq  xmm2,xmm1
  407880:	pcmpeqd xmm2,xmm3
  407884:	pmovmskb eax,xmm2
  407888:	and    eax,0xff
  40788d:	cmp    eax,0xff
  407892:	je     0x4078b7
  407894:	movlpd xmm1,QWORD PTR [esp+0xc]
  40789a:	pextrw eax,xmm1,0x3
  40789f:	and    eax,0x8000
  4078a4:	cmp    eax,0x0
  4078a7:	je     0x4078b0
  4078a9:	fld    QWORD PTR ds:0x41d3d0
  4078af:	ret    
  4078b0:	fld    QWORD PTR ds:0x41d3c8
  4078b6:	ret    
  4078b7:	movlpd xmm1,QWORD PTR [esp+0xc]
  4078bd:	pextrw eax,xmm1,0x3
  4078c2:	and    eax,0x8000
  4078c7:	cmp    eax,0x0
  4078ca:	je     0x407a17
  4078d0:	fldz   
  4078d2:	ret    
  4078d3:	movlpd xmm1,QWORD PTR [esp+0xc]
  4078d9:	pextrw eax,xmm1,0x3
  4078de:	and    eax,0x8000
  4078e3:	cmp    eax,0x0
  4078e6:	je     0x407a17
  4078ec:	fldz   
  4078ee:	ret    
  4078ef:	addsd  xmm4,xmm4
  4078f3:	movsd  xmm0,xmm4
  4078f7:	mov    edx,0x3ee
  4078fc:	jmp    0x407a90
  407901:	movlpd xmm2,QWORD PTR [esp+0x4]
  407907:	movd   eax,xmm2
  40790b:	psrlq  xmm2,0x20
  407910:	movd   edx,xmm2
  407914:	and    edx,0x7fffffff
  40791a:	or     eax,edx
  40791c:	mov    ecx,0x0
  407921:	cmp    eax,0x0
  407924:	je     0x4077aa
  40792a:	movlpd xmm1,QWORD PTR ds:0x41d3b8
  407932:	movlpd xmm0,QWORD PTR ds:0x41d3f0
  40793a:	mulsd  xmm1,xmm1
  40793e:	mov    edx,0x1c
  407943:	jmp    0x407a90
  407948:	movlpd xmm4,QWORD PTR [esp+0x4]
  40794e:	movlpd xmm2,QWORD PTR [esp+0xc]
  407954:	movlpd xmm3,QWORD PTR ds:0x41d350
  40795c:	xorpd  xmm1,xmm1
  407960:	andpd  xmm3,xmm2
  407964:	pcmpeqd xmm1,xmm3
  407968:	pmovmskb eax,xmm1
  40796c:	and    eax,0xff
  407971:	cmp    eax,0xff
  407976:	jne    0x407a1e
  40797c:	movd   eax,xmm4
  407980:	cmp    eax,0x0
  407983:	jne    0x4079a5
  407985:	psrlq  xmm4,0x20
  40798a:	movd   edx,xmm4
  40798e:	cmp    edx,0x3ff00000
  407994:	je     0x407a83
  40799a:	cmp    edx,0xbff00000
  4079a0:	jne    0x4079a5
  4079a2:	fld1   
  4079a4:	ret    
  4079a5:	movlpd xmm3,QWORD PTR ds:0x41d350
  4079ad:	xorpd  xmm1,xmm1
  4079b1:	andpd  xmm3,xmm2
  4079b5:	pcmpeqd xmm1,xmm3
  4079b9:	pmovmskb eax,xmm1
  4079bd:	and    eax,0xff
  4079c2:	cmp    eax,0xff
  4079c7:	jne    0x407a1e
  4079c9:	pextrw eax,xmm2,0x3
  4079ce:	movlpd xmm4,QWORD PTR [esp+0x4]
  4079d4:	and    eax,0x8000
  4079d9:	xor    ecx,0xbff00000
  4079df:	or     edx,ecx
  4079e1:	cmp    edx,0x0
  4079e4:	je     0x407a83
  4079ea:	cmp    eax,0x0
  4079ed:	je     0x407a03
  4079ef:	pextrw eax,xmm4,0x3
  4079f4:	and    eax,0x7ff0
  4079f9:	cmp    eax,0x3ff0
  4079fe:	jb     0x407a17
  407a00:	fldz   
  407a02:	ret    
  407a03:	pextrw eax,xmm4,0x3
  407a08:	and    eax,0x7ff0
  407a0d:	cmp    eax,0x3ff0
  407a12:	jae    0x407a17
  407a14:	fldz   
  407a16:	ret    
  407a17:	fld    QWORD PTR ds:0x41d3c0
  407a1d:	ret    
  407a1e:	addsd  xmm2,xmm2
  407a22:	movsd  xmm0,xmm2
  407a26:	mov    edx,0x3ee
  407a2b:	jmp    0x407a90
  407a2d:	movd   eax,xmm4
  407a31:	psrlq  xmm4,0x20
  407a36:	movd   edx,xmm4
  407a3a:	and    edx,0x7fffffff
  407a40:	mov    ecx,eax
  407a42:	or     eax,edx
  407a44:	movlpd xmm0,QWORD PTR ds:0x41d360
  407a4c:	mov    edx,0x1a
  407a51:	cmp    eax,0x0
  407a54:	je     0x407a90
  407a56:	movd   eax,xmm4
  407a5a:	mov    edx,0x1d
  407a5f:	and    eax,0x7fffffff
  407a64:	cmp    eax,0x7ff00000
  407a69:	ja     0x407a90
  407a6b:	jb     0x407a72
  407a6d:	cmp    ecx,0x0
  407a70:	ja     0x407a90
  407a72:	sub    esp,0x10
  407a75:	movlpd QWORD PTR [esp+0x4],xmm0
  407a7b:	fld    QWORD PTR [esp+0x4]
  407a7f:	add    esp,0x10
  407a82:	ret    
  407a83:	movlpd xmm0,QWORD PTR ds:0x419ac0
  407a8b:	mov    edx,0x1c
  407a90:	sub    esp,0x1c
  407a93:	movlpd QWORD PTR [esp+0x10],xmm0
  407a99:	mov    DWORD PTR [esp+0xc],edx
  407a9d:	mov    edx,esp
  407a9f:	add    edx,0x10
  407aa2:	mov    DWORD PTR [esp+0x8],edx
  407aa6:	add    edx,0x18
  407aa9:	mov    DWORD PTR [esp+0x4],edx
  407aad:	sub    edx,0x8
  407ab0:	mov    DWORD PTR [esp],edx
  407ab3:	call   0x40ae19
  407ab8:	fld    QWORD PTR [esp+0x10]
  407abc:	add    esp,0x1c
  407abf:	ret    
  407ac0:	cmp    eax,0x0
  407ac3:	jle    0x407aed
  407ac5:	cmp    eax,0x40000
  407aca:	jae    0x407d0c
  407ad0:	push   esi
  407ad1:	mov    edx,eax
  407ad3:	and    eax,0x7f
  407ad6:	add    ecx,0x3ff00
  407adc:	sub    edx,0x80
  407ae2:	and    edx,0xffffff80
  407ae5:	push   edi
  407ae6:	mov    edi,0x3ff0
  407aeb:	jmp    0x407b13
  407aed:	cmp    eax,0xfffc0200
  407af2:	jle    0x407ce9
  407af8:	push   esi
  407af9:	mov    edx,eax
  407afb:	and    eax,0x7f
  407afe:	add    ecx,0x80
  407b04:	and    edx,0xffffff80
  407b07:	add    edx,0x3fe80
  407b0d:	push   edi
  407b0e:	mov    edi,0x0
  407b13:	addsd  xmm4,xmm0
  407b17:	movsd  xmm0,xmm3
  407b1b:	addsd  xmm3,QWORD PTR ds:0x41d340
  407b23:	mov    esi,edx
  407b25:	sub    esi,0x1ff80
  407b2b:	mulpd  xmm2,xmm7
  407b2f:	subsd  xmm3,QWORD PTR ds:0x41d340
  407b37:	mulpd  xmm7,xmm7
  407b3b:	subsd  xmm0,xmm3
  407b3f:	add    eax,eax
  407b41:	add    eax,eax
  407b43:	add    eax,eax
  407b45:	add    eax,eax
  407b47:	movapd xmm3,XMMWORD PTR [eax+0x41cb40]
  407b4f:	movapd xmm6,XMMWORD PTR ds:0x41d380
  407b57:	mulpd  xmm1,xmm7
  407b5b:	addpd  xmm2,xmm1
  407b5f:	pshufd xmm1,xmm2,0xee
  407b64:	mulsd  xmm2,xmm7
  407b68:	addsd  xmm2,xmm1
  407b6c:	addsd  xmm2,xmm4
  407b70:	movlpd xmm4,QWORD PTR ds:0x41d3a0
  407b78:	movd   xmm1,edx
  407b7c:	sub    edx,0x1ff80
  407b82:	neg    edx
  407b84:	sar    edx,0x7
  407b87:	add    edx,0x2
  407b8a:	mov    eax,edx
  407b8c:	and    eax,0x20
  407b8f:	add    edx,eax
  407b91:	xorpd  xmm7,xmm7
  407b95:	mov    eax,0x3f80
  407b9a:	pinsrw xmm7,eax,0x3
  407b9f:	mulsd  xmm2,QWORD PTR [esp+0x14]
  407ba5:	mulsd  xmm0,xmm7
  407ba9:	psllq  xmm1,0x2d
  407bae:	pshufd xmm1,xmm1,0x44
  407bb3:	movapd xmm7,XMMWORD PTR ds:0x41d390
  407bbb:	addsd  xmm5,xmm2
  407bbf:	mulpd  xmm3,xmm1
  407bc3:	addsd  xmm0,xmm5
  407bc7:	unpcklpd xmm0,xmm0
  407bcb:	mulpd  xmm6,xmm0
  407bcf:	mulsd  xmm4,xmm0
  407bd3:	mulpd  xmm0,xmm0
  407bd7:	addpd  xmm7,xmm6
  407bdb:	mulpd  xmm7,xmm0
  407bdf:	mulsd  xmm0,xmm3
  407be3:	pshufd xmm6,xmm7,0xee
  407be8:	mulsd  xmm0,xmm7
  407bec:	pshufd xmm5,xmm3,0xee
  407bf1:	mulsd  xmm6,xmm3
  407bf5:	mulsd  xmm4,xmm3
  407bf9:	movd   xmm7,ecx
  407bfd:	psllq  xmm7,0x2d
  407c02:	movd   xmm2,edx
  407c06:	pcmpeqd xmm1,xmm1
  407c0a:	psllq  xmm1,xmm2
  407c0e:	addsd  xmm0,xmm5
  407c12:	addsd  xmm0,xmm6
  407c16:	andpd  xmm1,xmm3
  407c1a:	addsd  xmm0,xmm4
  407c1e:	xorpd  xmm6,xmm6
  407c22:	pcmpeqd xmm4,xmm4
  407c26:	psllq  xmm4,xmm2
  407c2a:	subsd  xmm3,xmm1
  407c2e:	movsd  xmm2,xmm1
  407c32:	addsd  xmm1,xmm0
  407c36:	andpd  xmm1,xmm4
  407c3a:	pinsrw xmm6,edi,0x3
  407c3f:	pop    edi
  407c40:	subsd  xmm2,xmm1
  407c44:	addsd  xmm0,xmm2
  407c48:	addsd  xmm0,xmm3
  407c4c:	cmp    esi,0x0
  407c4f:	jg     0x407c9f
  407c51:	pop    esi
  407c52:	mulsd  xmm0,xmm7
  407c56:	mulsd  xmm1,xmm7
  407c5a:	addsd  xmm0,xmm1
  407c5e:	mulsd  xmm6,xmm0
  407c62:	addsd  xmm0,xmm6
  407c66:	pextrw eax,xmm0,0x3
  407c6b:	and    eax,0x7ff0
  407c70:	mov    edx,0x18
  407c75:	cmp    eax,0x7ff0
  407c7a:	je     0x407a90
  407c80:	mov    edx,0x19
  407c85:	cmp    eax,0x0
  407c88:	je     0x407a90
  407c8e:	sub    esp,0x10
  407c91:	movlpd QWORD PTR [esp+0x4],xmm0
  407c97:	fld    QWORD PTR [esp+0x4]
  407c9b:	add    esp,0x10
  407c9e:	ret    
  407c9f:	pop    esi
  407ca0:	addsd  xmm0,xmm1
  407ca4:	mulsd  xmm0,xmm7
  407ca8:	mulsd  xmm6,xmm0
  407cac:	addsd  xmm0,xmm6
  407cb0:	pextrw eax,xmm0,0x3
  407cb5:	and    eax,0x7ff0
  407cba:	mov    edx,0x18
  407cbf:	cmp    eax,0x7ff0
  407cc4:	je     0x407a90
  407cca:	mov    edx,0x19
  407ccf:	cmp    eax,0x0
  407cd2:	je     0x407a90
  407cd8:	sub    esp,0x10
  407cdb:	movlpd QWORD PTR [esp+0x4],xmm0
  407ce1:	fld    QWORD PTR [esp+0x4]
  407ce5:	add    esp,0x10
  407ce8:	ret    
  407ce9:	movlpd xmm0,QWORD PTR ds:0x41d3e8
  407cf1:	movd   xmm1,ecx
  407cf5:	mulsd  xmm0,xmm0
  407cf9:	psllq  xmm1,0x2d
  407cfe:	orpd   xmm0,xmm1
  407d02:	mov    edx,0x19
  407d07:	jmp    0x407a90
  407d0c:	mov    edx,0x18
  407d11:	cmp    ecx,0x0
  407d14:	je     0x407d2b
  407d16:	movlpd xmm0,QWORD PTR ds:0x41d3d8
  407d1e:	mulsd  xmm0,QWORD PTR ds:0x41d3e0
  407d26:	jmp    0x407a90
  407d2b:	movlpd xmm0,QWORD PTR ds:0x41d3e0
  407d33:	mulsd  xmm0,xmm0
  407d37:	jmp    0x407a90
  407d3c:	pshufd xmm4,xmm1,0x44
  407d41:	mulpd  xmm4,xmm6
  407d45:	pextrw eax,xmm4,0x3
  407d4a:	and    eax,0x7ff0
  407d4f:	mov    edx,0x40a0
  407d54:	sub    edx,eax
  407d56:	sub    eax,0x3c70
  407d5b:	or     edx,eax
  407d5d:	cmp    edx,0x80000000
  407d63:	jb     0x407458
  407d69:	cmp    eax,0x80000000
  407d6e:	jb     0x407d90
  407d70:	or     ecx,0x1ff80
  407d76:	movd   xmm0,ecx
  407d7a:	psllq  xmm0,0x2d
  407d7f:	sub    esp,0x10
  407d82:	movlpd QWORD PTR [esp+0x4],xmm0
  407d88:	fld    QWORD PTR [esp+0x4]
  407d8c:	add    esp,0x10
  407d8f:	ret    
  407d90:	movlpd xmm4,QWORD PTR [esp+0x4]
  407d96:	pextrw edx,xmm4,0x3
  407d9b:	and    edx,0x7ff0
  407da1:	sub    edx,0x3ff0
  407da7:	pextrw eax,xmm1,0x3
  407dac:	xor    eax,edx
  407dae:	and    eax,0x8000
  407db3:	cmp    eax,0x0
  407db6:	jne    0x407ce9
  407dbc:	jmp    0x407d0c
  407dc1:	lea    esp,[esp+0x0]
  407dc8:	lea    esp,[esp+0x0]
  407dcf:	nop
  407dd0:	mov    BYTE PTR [ebp-0x90],0xfe
  407dd7:	or     ch,ch
  407dd9:	jne    0x407e26
  407ddb:	fxch   st(1)
  407ddd:	fyl2x  
  407ddf:	jmp    0x407dee
  407de1:	mov    BYTE PTR [ebp-0x90],0xfe
  407de8:	xor    ch,ch
  407dea:	fldl2e 
  407dec:	fmulp  st(1),st
  407dee:	call   0x407f2e
  407df3:	fld1   
  407df5:	faddp  st(1),st
  407df7:	test   BYTE PTR [ebp-0x9f],0x1
  407dfe:	je     0x407e14
  407e00:	fld1   
  407e02:	cmp    DWORD PTR ds:0x43bfa0,0x1
  407e09:	je     0x407e0f
  407e0b:	fdivrp st(1),st
  407e0d:	jmp    0x407e14
  407e0f:	call   0x40e5f1
  407e14:	test   dl,0x40
  407e17:	jne    0x407e1b
  407e19:	fscale 
  407e1b:	or     ch,ch
  407e1d:	je     0x407e21
  407e1f:	fchs   
  407e21:	jmp    0x4080d8
  407e26:	call   0x407f71
  407e2b:	or     eax,eax
  407e2d:	je     0x407e43
  407e2f:	xor    ch,ch
  407e31:	cmp    eax,0x2
  407e34:	je     0x407e38
  407e36:	not    ch
  407e38:	fxch   st(1)
  407e3a:	fabs   
  407e3c:	jmp    0x407ddd
  407e3e:	jmp    0x4080eb
  407e43:	jmp    0x408186
  407e48:	fstp   st(0)
  407e4a:	fstp   st(0)
  407e4c:	fld    TBYTE PTR ds:0x4231c0
  407e52:	mov    BYTE PTR [ebp-0x90],0x2
  407e59:	ret    
  407e5a:	fldln2 
  407e5c:	fxch   st(1)
  407e5e:	ftst   
  407e60:	fstsw  WORD PTR [ebp-0xa0]
  407e67:	fwait
  407e68:	test   BYTE PTR [ebp-0x9f],0x41
  407e6f:	jne    0x407e43
  407e71:	fyl2x  
  407e73:	ret    
  407e74:	mov    BYTE PTR [ebp-0x90],0x2
  407e7b:	fstp   st(0)
  407e7d:	fld    TBYTE PTR ds:0x4231ca
  407e83:	ret    
  407e84:	or     cl,cl
  407e86:	jne    0x407edb
  407e88:	ret    
  407e89:	fldlg2 
  407e8b:	jmp    0x407e8f
  407e8d:	fldln2 
  407e8f:	fxch   st(1)
  407e91:	or     cl,cl
  407e93:	jne    0x407e43
  407e95:	fyl2x  
  407e97:	ret    
  407e98:	jmp    0x4080eb
  407e9d:	call   0x407f71
  407ea2:	fstp   st(0)
  407ea4:	fstp   st(0)
  407ea6:	or     cl,cl
  407ea8:	jne    0x407eb8
  407eaa:	fldz   
  407eac:	cmp    eax,0x1
  407eaf:	jne    0x407eb7
  407eb1:	or     ch,ch
  407eb3:	je     0x407eb7
  407eb5:	fchs   
  407eb7:	ret    
  407eb8:	mov    BYTE PTR [ebp-0x90],0x2
  407ebf:	fld    TBYTE PTR ds:0x4231c0
  407ec5:	cmp    eax,0x1
  407ec8:	jne    0x407eb7
  407eca:	or     ch,ch
  407ecc:	je     0x407eb7
  407ece:	fchs   
  407ed0:	jmp    0x407eb7
  407ed2:	fstp   st(0)
  407ed4:	jmp    0x4080e6
  407ed9:	fstp   st(0)
  407edb:	jmp    0x408188
  407ee0:	pop    eax
  407ee1:	ftst   
  407ee3:	fstsw  WORD PTR [ebp-0xa0]
  407eea:	fwait
  407eeb:	test   BYTE PTR [ebp-0x9f],0x1
  407ef2:	jne    0x407f03
  407ef4:	fstp   st(0)
  407ef6:	fld    TBYTE PTR ds:0x4231c0
  407efc:	or     ch,ch
  407efe:	je     0x407f02
  407f00:	fchs   
  407f02:	ret    
  407f03:	mov    BYTE PTR [ebp-0x90],0x4
  407f0a:	jmp    0x4080e6
  407f0f:	fstp   st(0)
  407f11:	fstp   st(0)
  407f13:	fld    TBYTE PTR ds:0x4231c0
  407f19:	mov    BYTE PTR [ebp-0x90],0x3
  407f20:	ret    
  407f21:	or     cl,cl
  407f23:	jne    0x407ed4
  407f25:	fstp   st(0)
  407f27:	fld    TBYTE PTR ds:0x4231c0
  407f2d:	ret    
  407f2e:	fld    st(0)
  407f30:	fabs   
  407f32:	fld    TBYTE PTR ds:0x4231de
  407f38:	fcompp 
  407f3a:	fstsw  WORD PTR [ebp-0xa0]
  407f41:	fwait
  407f42:	test   BYTE PTR [ebp-0x9f],0x41
  407f49:	jne    0x407ee0
  407f4b:	fld    st(0)
  407f4d:	frndint 
  407f4f:	ftst   
  407f51:	fstsw  WORD PTR [ebp-0xa0]
  407f58:	fwait
  407f59:	mov    dl,BYTE PTR [ebp-0x9f]
  407f5f:	fxch   st(1)
  407f61:	fsub   st,st(1)
  407f63:	ftst   
  407f65:	fstsw  WORD PTR [ebp-0xa0]
  407f6c:	fabs   
  407f6e:	f2xm1  
  407f70:	ret    
  407f71:	fld    st(0)
  407f73:	frndint 
  407f75:	fcomp  st(1)
  407f77:	fstsw  ax
  407f7a:	sahf   
  407f7b:	jne    0x407f97
  407f7d:	fld    st(0)
  407f7f:	fmul   QWORD PTR ds:0x4231f2
  407f85:	fld    st(0)
  407f87:	frndint 
  407f89:	fcompp 
  407f8b:	fstsw  ax
  407f8e:	sahf   
  407f8f:	je     0x407f9e
  407f91:	mov    eax,0x1
  407f96:	ret    
  407f97:	mov    eax,0x0
  407f9c:	jmp    0x407f96
  407f9e:	mov    eax,0x2
  407fa3:	jmp    0x407f96
  407fa5:	push   esi
  407fa6:	sub    esp,0x74
  407fa9:	mov    esi,esp
  407fab:	push   esi
  407fac:	sub    esp,0x8
  407faf:	fstp   QWORD PTR [esp]
  407fb2:	sub    esp,0x8
  407fb5:	fstp   QWORD PTR [esp]
  407fb8:	fsave  [esi+0x8]
  407fbc:	call   0x408402
  407fc1:	add    esp,0x14
  407fc4:	frstor [esi+0x8]
  407fc7:	fld    QWORD PTR [esi]
  407fc9:	add    esp,0x74
  407fcc:	pop    esi
  407fcd:	test   eax,eax
  407fcf:	je     0x407fd6
  407fd1:	jmp    0x408199
  407fd6:	ret    
  407fd7:	int3   
  407fd8:	int3   
  407fd9:	int3   
  407fda:	int3   
  407fdb:	int3   
  407fdc:	int3   
  407fdd:	int3   
  407fde:	int3   
  407fdf:	int3   
  407fe0:	cmp    BYTE PTR [edx+0xe],0x5
  407fe4:	jne    0x407ff7
  407fe6:	mov    bx,WORD PTR [ebp-0xa4]
  407fed:	or     bh,0x2
  407ff0:	and    bh,0xfe
  407ff3:	mov    bl,0x3f
  407ff5:	jmp    0x407ffb
  407ff7:	mov    bx,0x133f
  407ffb:	mov    WORD PTR [ebp-0xa2],bx
  408002:	fldcw  WORD PTR [ebp-0xa2]
  408008:	mov    ebx,0x42323c
  40800d:	fxam   
  40800f:	mov    DWORD PTR [ebp-0x94],edx
  408015:	fstsw  WORD PTR [ebp-0xa0]
  40801c:	mov    BYTE PTR [ebp-0x90],0x0
  408023:	fwait
  408024:	mov    cl,BYTE PTR [ebp-0x9f]
  40802a:	shl    cl,1
  40802c:	sar    cl,1
  40802e:	rol    cl,1
  408030:	mov    al,cl
  408032:	and    al,0xf
  408034:	xlat   BYTE PTR ds:[ebx]
  408035:	movsx  eax,al
  408038:	and    ecx,0x404
  40803e:	mov    ebx,edx
  408040:	add    ebx,eax
  408042:	add    ebx,0x10
  408045:	jmp    DWORD PTR [ebx]
  408047:	cmp    BYTE PTR [edx+0xe],0x5
  40804b:	jne    0x40805e
  40804d:	mov    bx,WORD PTR [ebp-0xa4]
  408054:	or     bh,0x2
  408057:	and    bh,0xfe
  40805a:	mov    bl,0x3f
  40805c:	jmp    0x408062
  40805e:	mov    bx,0x133f
  408062:	mov    WORD PTR [ebp-0xa2],bx
  408069:	fldcw  WORD PTR [ebp-0xa2]
  40806f:	mov    ebx,0x42323c
  408074:	fxam   
  408076:	mov    DWORD PTR [ebp-0x94],edx
  40807c:	fstsw  WORD PTR [ebp-0xa0]
  408083:	mov    BYTE PTR [ebp-0x90],0x0
  40808a:	fxch   st(1)
  40808c:	mov    cl,BYTE PTR [ebp-0x9f]
  408092:	fxam   
  408094:	fstsw  WORD PTR [ebp-0xa0]
  40809b:	fxch   st(1)
  40809d:	mov    ch,BYTE PTR [ebp-0x9f]
  4080a3:	shl    ch,1
  4080a5:	sar    ch,1
  4080a7:	rol    ch,1
  4080a9:	mov    al,ch
  4080ab:	and    al,0xf
  4080ad:	xlat   BYTE PTR ds:[ebx]
  4080ae:	mov    ah,al
  4080b0:	shl    cl,1
  4080b2:	sar    cl,1
  4080b4:	rol    cl,1
  4080b6:	mov    al,cl
  4080b8:	and    al,0xf
  4080ba:	xlat   BYTE PTR ds:[ebx]
  4080bb:	shl    ah,1
  4080bd:	shl    ah,1
  4080bf:	or     al,ah
  4080c1:	movsx  eax,al
  4080c4:	and    ecx,0x404
  4080ca:	mov    ebx,edx
  4080cc:	add    ebx,eax
  4080ce:	add    ebx,0x10
  4080d1:	jmp    DWORD PTR [ebx]
  4080d3:	call   0x408199
  4080d8:	fxch   st(1)
  4080da:	fstp   st(0)
  4080dc:	ret    
  4080dd:	call   0x408199
  4080e2:	jmp    0x4080da
  4080e4:	fstp   st(0)
  4080e6:	fstp   st(0)
  4080e8:	fldz   
  4080ea:	ret    
  4080eb:	fstp   st(0)
  4080ed:	fstp   st(0)
  4080ef:	fld1   
  4080f1:	ret    
  4080f2:	fstp   TBYTE PTR [ebp-0x9e]
  4080f8:	fld    TBYTE PTR [ebp-0x9e]
  4080fe:	test   BYTE PTR [ebp-0x97],0x40
  408105:	je     0x40810f
  408107:	mov    BYTE PTR [ebp-0x90],0x7
  40810e:	ret    
  40810f:	mov    BYTE PTR [ebp-0x90],0x1
  408116:	fadd   QWORD PTR ds:0x423234
  40811c:	ret    
  40811d:	fxch   st(1)
  40811f:	fstp   TBYTE PTR [ebp-0x9e]
  408125:	fld    TBYTE PTR [ebp-0x9e]
  40812b:	test   BYTE PTR [ebp-0x97],0x40
  408132:	je     0x40813d
  408134:	mov    BYTE PTR [ebp-0x90],0x7
  40813b:	jmp    0x408144
  40813d:	mov    BYTE PTR [ebp-0x90],0x1
  408144:	faddp  st(1),st
  408146:	ret    
  408147:	fstp   TBYTE PTR [ebp-0x9e]
  40814d:	fld    TBYTE PTR [ebp-0x9e]
  408153:	test   BYTE PTR [ebp-0x97],0x40
  40815a:	je     0x40817c
  40815c:	fxch   st(1)
  40815e:	fstp   TBYTE PTR [ebp-0x9e]
  408164:	fld    TBYTE PTR [ebp-0x9e]
  40816a:	test   BYTE PTR [ebp-0x97],0x40
  408171:	je     0x40817c
  408173:	mov    BYTE PTR [ebp-0x90],0x7
  40817a:	jmp    0x408183
  40817c:	mov    BYTE PTR [ebp-0x90],0x1
  408183:	faddp  st(1),st
  408185:	ret    
  408186:	fstp   st(0)
  408188:	fstp   st(0)
  40818a:	fld    TBYTE PTR ds:0x423220
  408190:	cmp    BYTE PTR [ebp-0x90],0x0
  408197:	jg     0x4081a0
  408199:	mov    BYTE PTR [ebp-0x90],0x1
  4081a0:	or     cl,cl
  4081a2:	ret    
  4081a3:	or     cl,cl
  4081a5:	je     0x4081a9
  4081a7:	fchs   
  4081a9:	ret    
  4081aa:	int3   
  4081ab:	int3   
  4081ac:	int3   
  4081ad:	int3   
  4081ae:	int3   
  4081af:	int3   
  4081b0:	push   ebp
  4081b1:	mov    ebp,esp
  4081b3:	add    esp,0xffffffe0
  4081b6:	mov    DWORD PTR [ebp-0x20],eax
  4081b9:	mov    eax,DWORD PTR [ebp+0x18]
  4081bc:	mov    DWORD PTR [ebp-0x10],eax
  4081bf:	mov    eax,DWORD PTR [ebp+0x1c]
  4081c2:	mov    DWORD PTR [ebp-0xc],eax
  4081c5:	jmp    0x4081d0
  4081c7:	push   ebp
  4081c8:	mov    ebp,esp
  4081ca:	add    esp,0xffffffe0
  4081cd:	mov    DWORD PTR [ebp-0x20],eax
  4081d0:	fstp   QWORD PTR [ebp-0x8]
  4081d3:	mov    DWORD PTR [ebp-0x1c],ecx
  4081d6:	mov    eax,DWORD PTR [ebp+0x10]
  4081d9:	mov    ecx,DWORD PTR [ebp+0x14]
  4081dc:	mov    DWORD PTR [ebp-0x18],eax
  4081df:	mov    DWORD PTR [ebp-0x14],ecx
  4081e2:	lea    eax,[ebp+0x8]
  4081e5:	lea    ecx,[ebp-0x20]
  4081e8:	push   eax
  4081e9:	push   ecx
  4081ea:	push   edx
  4081eb:	call   0x40eb8b
  4081f0:	add    esp,0xc
  4081f3:	fld    QWORD PTR [ebp-0x8]
  4081f6:	cmp    WORD PTR [ebp+0x8],0x27f
  4081fc:	je     0x408201
  4081fe:	fldcw  WORD PTR [ebp+0x8]
  408201:	leave  
  408202:	ret    
  408203:	int3   
  408204:	int3   
  408205:	int3   
  408206:	int3   
  408207:	int3   
  408208:	int3   
  408209:	int3   
  40820a:	int3   
  40820b:	int3   
  40820c:	int3   
  40820d:	int3   
  40820e:	int3   
  40820f:	int3   
  408210:	fld    st(0)
  408212:	frndint 
  408214:	fsubr  st(1),st
  408216:	fxch   st(1)
  408218:	fchs   
  40821a:	f2xm1  
  40821c:	fld1   
  40821e:	faddp  st(1),st
  408220:	fscale 
  408222:	fstp   st(1)
  408224:	ret    
  408225:	mov    edx,DWORD PTR [esp+0x4]
  408229:	and    edx,0x300
  40822f:	or     edx,0x7f
  408232:	mov    WORD PTR [esp+0x6],dx
  408237:	fldcw  WORD PTR [esp+0x6]
  40823b:	ret    
  40823c:	test   eax,0x80000
  408241:	je     0x408249
  408243:	mov    eax,0x7
  408248:	ret    
  408249:	fadd   QWORD PTR ds:0x41d400
  40824f:	mov    eax,0x1
  408254:	ret    
  408255:	mov    eax,DWORD PTR [edx+0x4]
  408258:	and    eax,0x7ff00000
  40825d:	cmp    eax,0x7ff00000
  408262:	je     0x408267
  408264:	fld    QWORD PTR [edx]
  408266:	ret    
  408267:	mov    eax,DWORD PTR [edx+0x4]
  40826a:	sub    esp,0xa
  40826d:	or     eax,0x7fff0000
  408272:	mov    DWORD PTR [esp+0x6],eax
  408276:	mov    eax,DWORD PTR [edx+0x4]
  408279:	mov    ecx,DWORD PTR [edx]
  40827b:	shld   eax,ecx,0xb
  40827f:	shl    ecx,0xb
  408282:	mov    DWORD PTR [esp+0x4],eax
  408286:	mov    DWORD PTR [esp],ecx
  408289:	fld    TBYTE PTR [esp]
  40828c:	add    esp,0xa
  40828f:	test   eax,0x0
  408294:	mov    eax,DWORD PTR [edx+0x4]
  408297:	ret    
  408298:	mov    eax,DWORD PTR [esp+0x8]
  40829c:	and    eax,0x7ff00000
  4082a1:	cmp    eax,0x7ff00000
  4082a6:	je     0x4082a9
  4082a8:	ret    
  4082a9:	mov    eax,DWORD PTR [esp+0x8]
  4082ad:	ret    
  4082ae:	cmp    WORD PTR [esp],0x27f
  4082b4:	je     0x4082b9
  4082b6:	fldcw  WORD PTR [esp]
  4082b9:	pop    edx
  4082ba:	ret    
  4082bb:	mov    ax,WORD PTR [esp]
  4082bf:	cmp    ax,0x27f
  4082c3:	je     0x4082e3
  4082c5:	and    ax,0x20
  4082c9:	je     0x4082e0
  4082cb:	fstsw  ax
  4082ce:	and    ax,0x20
  4082d2:	je     0x4082e0
  4082d4:	mov    eax,0x8
  4082d9:	call   0x4081c7
  4082de:	pop    edx
  4082df:	ret    
  4082e0:	fldcw  WORD PTR [esp]
  4082e3:	pop    edx
  4082e4:	ret    
  4082e5:	sub    esp,0x8
  4082e8:	fst    QWORD PTR [esp]
  4082eb:	mov    eax,DWORD PTR [esp+0x4]
  4082ef:	add    esp,0x8
  4082f2:	and    eax,0x7ff00000
  4082f7:	jmp    0x40830d
  4082f9:	sub    esp,0x8
  4082fc:	fst    QWORD PTR [esp]
  4082ff:	mov    eax,DWORD PTR [esp+0x4]
  408303:	add    esp,0x8
  408306:	and    eax,0x7ff00000
  40830b:	je     0x40834a
  40830d:	cmp    eax,0x7ff00000
  408312:	je     0x408373
  408314:	mov    ax,WORD PTR [esp]
  408318:	cmp    ax,0x27f
  40831c:	je     0x408348
  40831e:	and    ax,0x20
  408322:	jne    0x408345
  408324:	fstsw  ax
  408327:	and    ax,0x20
  40832b:	je     0x408345
  40832d:	mov    eax,0x8
  408332:	cmp    edx,0x1d
  408335:	je     0x40833e
  408337:	call   0x4081c7
  40833c:	pop    edx
  40833d:	ret    
  40833e:	call   0x4081b0
  408343:	pop    edx
  408344:	ret    
  408345:	fldcw  WORD PTR [esp]
  408348:	pop    edx
  408349:	ret    
  40834a:	fld    QWORD PTR ds:0x41d42c
  408350:	fxch   st(1)
  408352:	fscale 
  408354:	fstp   st(1)
  408356:	fld    st(0)
  408358:	fabs   
  40835a:	fcomp  QWORD PTR ds:0x41d41c
  408360:	fstsw  ax
  408363:	sahf   
  408364:	mov    eax,0x4
  408369:	jae    0x408332
  40836b:	fmul   QWORD PTR ds:0x41d43c
  408371:	jmp    0x408332
  408373:	fld    QWORD PTR ds:0x41d424
  408379:	fxch   st(1)
  40837b:	fscale 
  40837d:	fstp   st(1)
  40837f:	fld    st(0)
  408381:	fabs   
  408383:	fcomp  QWORD PTR ds:0x41d414
  408389:	fstsw  ax
  40838c:	sahf   
  40838d:	mov    eax,0x3
  408392:	jbe    0x408332
  408394:	fmul   QWORD PTR ds:0x41d434
  40839a:	jmp    0x408332
  40839c:	mov    edi,edi
  40839e:	push   ebp
  40839f:	mov    ebp,esp
  4083a1:	push   ecx
  4083a2:	push   ecx
  4083a3:	fld    QWORD PTR [ebp+0x8]
  4083a6:	push   ecx
  4083a7:	push   ecx
  4083a8:	fstp   QWORD PTR [esp]
  4083ab:	call   0x40ecde
  4083b0:	pop    ecx
  4083b1:	pop    ecx
  4083b2:	test   al,0x90
  4083b4:	jne    0x4083fe
  4083b6:	fld    QWORD PTR [ebp+0x8]
  4083b9:	push   ecx
  4083ba:	push   ecx
  4083bb:	fstp   QWORD PTR [esp]
  4083be:	call   0x40ecca
  4083c3:	fcomp  QWORD PTR [ebp+0x8]
  4083c6:	pop    ecx
  4083c7:	pop    ecx
  4083c8:	fnstsw ax
  4083ca:	test   ah,0x44
  4083cd:	jp     0x4083fe
  4083cf:	fld    QWORD PTR [ebp+0x8]
  4083d2:	push   ecx
  4083d3:	fmul   QWORD PTR ds:0x41d448
  4083d9:	push   ecx
  4083da:	fstp   QWORD PTR [ebp-0x8]
  4083dd:	fld    QWORD PTR [ebp-0x8]
  4083e0:	fstp   QWORD PTR [esp]
  4083e3:	call   0x40ecca
  4083e8:	fcomp  QWORD PTR [ebp-0x8]
  4083eb:	pop    ecx
  4083ec:	pop    ecx
  4083ed:	fnstsw ax
  4083ef:	test   ah,0x44
  4083f2:	jp     0x4083f9
  4083f4:	push   0x2
  4083f6:	pop    eax
  4083f7:	leave  
  4083f8:	ret    
  4083f9:	xor    eax,eax
  4083fb:	inc    eax
  4083fc:	leave  
  4083fd:	ret    
  4083fe:	xor    eax,eax
  408400:	leave  
  408401:	ret    
  408402:	mov    edi,edi
  408404:	push   ebp
  408405:	mov    ebp,esp
  408407:	fldz   
  408409:	push   esi
  40840a:	fcom   QWORD PTR [ebp+0x8]
  40840d:	xor    edx,edx
  40840f:	xor    esi,esi
  408411:	fnstsw ax
  408413:	fld    QWORD PTR [ebp+0x8]
  408416:	test   ah,0x41
  408419:	jne    0x40841d
  40841b:	fchs   
  40841d:	mov    eax,0x7ff00000
  408422:	mov    ecx,0xfff00000
  408427:	cmp    DWORD PTR [ebp+0x14],eax
  40842a:	jne    0x408469
  40842c:	cmp    DWORD PTR [ebp+0x10],edx
  40842f:	jne    0x4084b0
  408431:	fld1   
  408433:	fcom   st(1)
  408435:	fnstsw ax
  408437:	test   ah,0x5
  40843a:	jp     0x40844d
  40843c:	fstp   st(2)
  40843e:	fstp   st(1)
  408440:	fstp   st(0)
  408442:	fld    QWORD PTR ds:0x424060
  408448:	jmp    0x40852e
  40844d:	fcom   st(1)
  40844f:	fnstsw ax
  408451:	fstp   st(1)
  408453:	test   ah,0x41
  408456:	mov    eax,DWORD PTR [ebp+0x18]
  408459:	jne    0x408462
  40845b:	fstp   st(0)
  40845d:	jmp    0x408531
  408462:	fstp   st(1)
  408464:	jmp    0x408531
  408469:	cmp    DWORD PTR [ebp+0x14],ecx
  40846c:	jne    0x4084b0
  40846e:	cmp    DWORD PTR [ebp+0x10],edx
  408471:	jne    0x4084b0
  408473:	fld1   
  408475:	fcom   st(1)
  408477:	fnstsw ax
  408479:	test   ah,0x5
  40847c:	jp     0x408487
  40847e:	fstp   st(0)
  408480:	fstp   st(0)
  408482:	jmp    0x40852e
  408487:	fstp   st(2)
  408489:	fcompp 
  40848b:	fnstsw ax
  40848d:	test   ah,0x5
  408490:	mov    eax,DWORD PTR [ebp+0x18]
  408493:	jp     0x4084a0
  408495:	fld    QWORD PTR ds:0x424060
  40849b:	jmp    0x408531
  4084a0:	fld    QWORD PTR ds:0x424068
  4084a6:	xor    esi,esi
  4084a8:	fstp   QWORD PTR [eax]
  4084aa:	inc    esi
  4084ab:	jmp    0x40853d
  4084b0:	fstp   st(0)
  4084b2:	cmp    DWORD PTR [ebp+0xc],eax
  4084b5:	jne    0x4084dd
  4084b7:	cmp    DWORD PTR [ebp+0x8],edx
  4084ba:	jne    0x40853b
  4084bc:	fcom   QWORD PTR [ebp+0x10]
  4084bf:	fnstsw ax
  4084c1:	test   ah,0x5
  4084c4:	jnp    0x408440
  4084ca:	fcom   QWORD PTR [ebp+0x10]
  4084cd:	fnstsw ax
  4084cf:	test   ah,0x41
  4084d2:	mov    eax,DWORD PTR [ebp+0x18]
  4084d5:	je     0x408531
  4084d7:	fstp   st(0)
  4084d9:	fld1   
  4084db:	jmp    0x408531
  4084dd:	fstp   st(0)
  4084df:	cmp    DWORD PTR [ebp+0xc],ecx
  4084e2:	jne    0x40853d
  4084e4:	cmp    DWORD PTR [ebp+0x8],edx
  4084e7:	jne    0x40853d
  4084e9:	fld    QWORD PTR [ebp+0x10]
  4084ec:	push   ecx
  4084ed:	push   ecx
  4084ee:	fstp   QWORD PTR [esp]
  4084f1:	call   0x40839c
  4084f6:	fldz   
  4084f8:	pop    ecx
  4084f9:	fcom   QWORD PTR [ebp+0x10]
  4084fc:	pop    ecx
  4084fd:	mov    ecx,eax
  4084ff:	fnstsw ax
  408501:	test   ah,0x5
  408504:	jp     0x408517
  408506:	fstp   st(0)
  408508:	fld    QWORD PTR ds:0x424060
  40850e:	cmp    ecx,0x1
  408511:	jne    0x40852e
  408513:	fchs   
  408515:	jmp    0x40852e
  408517:	fcom   QWORD PTR [ebp+0x10]
  40851a:	fnstsw ax
  40851c:	test   ah,0x41
  40851f:	jne    0x408535
  408521:	cmp    ecx,0x1
  408524:	jne    0x40852e
  408526:	fstp   st(0)
  408528:	fld    QWORD PTR ds:0x424080
  40852e:	mov    eax,DWORD PTR [ebp+0x18]
  408531:	fstp   QWORD PTR [eax]
  408533:	jmp    0x40853d
  408535:	fstp   st(0)
  408537:	fld1   
  408539:	jmp    0x40852e
  40853b:	fstp   st(0)
  40853d:	mov    eax,esi
  40853f:	pop    esi
  408540:	pop    ebp
  408541:	ret    
  408542:	mov    edi,edi
  408544:	push   ebp
  408545:	mov    ebp,esp
  408547:	mov    eax,DWORD PTR [ebp+0x8]
  40854a:	push   esi
  40854b:	xor    esi,esi
  40854d:	cmp    eax,esi
  40854f:	jne    0x40856e
  408551:	call   0x4087a4
  408556:	push   esi
  408557:	push   esi
  408558:	push   esi
  408559:	push   esi
  40855a:	push   esi
  40855b:	mov    DWORD PTR [eax],0x16
  408561:	call   0x40873c
  408566:	add    esp,0x14
  408569:	push   0x16
  40856b:	pop    eax
  40856c:	jmp    0x408578
  40856e:	mov    ecx,DWORD PTR ds:0x423254
  408574:	mov    DWORD PTR [eax],ecx
  408576:	xor    eax,eax
  408578:	pop    esi
  408579:	pop    ebp
  40857a:	ret    
  40857b:	mov    edi,edi
  40857d:	push   ebp
  40857e:	mov    ebp,esp
  408580:	mov    eax,DWORD PTR [ebp+0x8]
  408583:	push   esi
  408584:	xor    esi,esi
  408586:	cmp    eax,esi
  408588:	jne    0x4085a7
  40858a:	call   0x4087a4
  40858f:	push   esi
  408590:	push   esi
  408591:	push   esi
  408592:	push   esi
  408593:	push   esi
  408594:	mov    DWORD PTR [eax],0x16
  40859a:	call   0x40873c
  40859f:	add    esp,0x14
  4085a2:	push   0x16
  4085a4:	pop    eax
  4085a5:	jmp    0x4085b1
  4085a7:	mov    ecx,DWORD PTR ds:0x423258
  4085ad:	mov    DWORD PTR [eax],ecx
  4085af:	xor    eax,eax
  4085b1:	pop    esi
  4085b2:	pop    ebp
  4085b3:	ret    
  4085b4:	mov    edi,edi
  4085b6:	push   ebp
  4085b7:	mov    ebp,esp
  4085b9:	mov    eax,DWORD PTR [ebp+0x8]
  4085bc:	push   esi
  4085bd:	xor    esi,esi
  4085bf:	cmp    eax,esi
  4085c1:	jne    0x4085e0
  4085c3:	call   0x4087a4
  4085c8:	push   esi
  4085c9:	push   esi
  4085ca:	push   esi
  4085cb:	push   esi
  4085cc:	push   esi
  4085cd:	mov    DWORD PTR [eax],0x16
  4085d3:	call   0x40873c
  4085d8:	add    esp,0x14
  4085db:	push   0x16
  4085dd:	pop    eax
  4085de:	jmp    0x4085ea
  4085e0:	mov    ecx,DWORD PTR ds:0x423250
  4085e6:	mov    DWORD PTR [eax],ecx
  4085e8:	xor    eax,eax
  4085ea:	pop    esi
  4085eb:	pop    ebp
  4085ec:	ret    
  4085ed:	mov    eax,0x423254
  4085f2:	ret    
  4085f3:	mov    eax,0x423258
  4085f8:	ret    
  4085f9:	mov    eax,0x423250
  4085fe:	ret    
  4085ff:	mov    eax,0x4232e0
  408604:	ret    
  408605:	mov    edi,edi
  408607:	push   ebp
  408608:	mov    ebp,esp
  40860a:	mov    eax,DWORD PTR [ebp+0x8]
  40860d:	mov    ds:0x43bfb0,eax
  408612:	pop    ebp
  408613:	ret    
  408614:	mov    edi,edi
  408616:	push   ebp
  408617:	mov    ebp,esp
  408619:	sub    esp,0x328
  40861f:	mov    eax,ds:0x423d68
  408624:	xor    eax,ebp
  408626:	mov    DWORD PTR [ebp-0x4],eax
  408629:	and    DWORD PTR [ebp-0x328],0x0
  408630:	push   ebx
  408631:	push   0x4c
  408633:	lea    eax,[ebp-0x324]
  408639:	push   0x0
  40863b:	push   eax
  40863c:	call   0x40cc70
  408641:	lea    eax,[ebp-0x328]
  408647:	mov    DWORD PTR [ebp-0x2d8],eax
  40864d:	lea    eax,[ebp-0x2d0]
  408653:	add    esp,0xc
  408656:	mov    DWORD PTR [ebp-0x2d4],eax
  40865c:	mov    DWORD PTR [ebp-0x220],eax
  408662:	mov    DWORD PTR [ebp-0x224],ecx
  408668:	mov    DWORD PTR [ebp-0x228],edx
  40866e:	mov    DWORD PTR [ebp-0x22c],ebx
  408674:	mov    DWORD PTR [ebp-0x230],esi
  40867a:	mov    DWORD PTR [ebp-0x234],edi
  408680:	data16 mov WORD PTR [ebp-0x208],ss
  408687:	data16 mov WORD PTR [ebp-0x214],cs
  40868e:	data16 mov WORD PTR [ebp-0x238],ds
  408695:	data16 mov WORD PTR [ebp-0x23c],es
  40869c:	data16 mov WORD PTR [ebp-0x240],fs
  4086a3:	data16 mov WORD PTR [ebp-0x244],gs
  4086aa:	pushf  
  4086ab:	pop    DWORD PTR [ebp-0x210]
  4086b1:	mov    eax,DWORD PTR [ebp+0x4]
  4086b4:	lea    ecx,[ebp+0x4]
  4086b7:	mov    DWORD PTR [ebp-0x2d0],0x10001
  4086c1:	mov    DWORD PTR [ebp-0x218],eax
  4086c7:	mov    DWORD PTR [ebp-0x20c],ecx
  4086cd:	mov    ecx,DWORD PTR [ecx-0x4]
  4086d0:	mov    DWORD PTR [ebp-0x21c],ecx
  4086d6:	mov    DWORD PTR [ebp-0x328],0xc0000417
  4086e0:	mov    DWORD PTR [ebp-0x324],0x1
  4086ea:	mov    DWORD PTR [ebp-0x31c],eax
  4086f0:	call   DWORD PTR ds:0x419424
  4086f6:	push   0x0
  4086f8:	mov    ebx,eax
  4086fa:	call   DWORD PTR ds:0x419498
  408700:	lea    eax,[ebp-0x2d8]
  408706:	push   eax
  408707:	call   DWORD PTR ds:0x419280
  40870d:	test   eax,eax
  40870f:	jne    0x40871d
  408711:	test   ebx,ebx
  408713:	jne    0x40871d
  408715:	push   0x2
  408717:	call   0x40efab
  40871c:	pop    ecx
  40871d:	push   0xc0000417
  408722:	call   DWORD PTR ds:0x41937c
  408728:	push   eax
  408729:	call   DWORD PTR ds:0x419494
  40872f:	mov    ecx,DWORD PTR [ebp-0x4]
  408732:	xor    ecx,ebp
  408734:	pop    ebx
  408735:	call   0x40efb3
  40873a:	leave  
  40873b:	ret    
  40873c:	mov    edi,edi
  40873e:	push   ebp
  40873f:	mov    ebp,esp
  408741:	push   DWORD PTR ds:0x43bfb0
  408747:	call   0x408999
  40874c:	pop    ecx
  40874d:	test   eax,eax
  40874f:	je     0x408754
  408751:	pop    ebp
  408752:	jmp    eax
  408754:	push   0x2
  408756:	call   0x40efab
  40875b:	pop    ecx
  40875c:	pop    ebp
  40875d:	jmp    0x408614
  408762:	mov    edi,edi
  408764:	push   ebp
  408765:	mov    ebp,esp
  408767:	mov    eax,DWORD PTR [ebp+0x8]
  40876a:	xor    ecx,ecx
  40876c:	cmp    eax,DWORD PTR [ecx*8+0x423350]
  408773:	je     0x408788
  408775:	inc    ecx
  408776:	cmp    ecx,0x2d
  408779:	jb     0x40876c
  40877b:	lea    ecx,[eax-0x13]
  40877e:	cmp    ecx,0x11
  408781:	ja     0x408791
  408783:	push   0xd
  408785:	pop    eax
  408786:	pop    ebp
  408787:	ret    
  408788:	mov    eax,DWORD PTR [ecx*8+0x423354]
  40878f:	pop    ebp
  408790:	ret    
  408791:	add    eax,0xffffff44
  408796:	push   0xe
  408798:	pop    ecx
  408799:	cmp    ecx,eax
  40879b:	sbb    eax,eax
  40879d:	and    eax,ecx
  40879f:	add    eax,0x8
  4087a2:	pop    ebp
  4087a3:	ret    
  4087a4:	call   0x408b6c
  4087a9:	test   eax,eax
  4087ab:	jne    0x4087b3
  4087ad:	mov    eax,0x4234b8
  4087b2:	ret    
  4087b3:	add    eax,0x8
  4087b6:	ret    
  4087b7:	call   0x408b6c
  4087bc:	test   eax,eax
  4087be:	jne    0x4087c6
  4087c0:	mov    eax,0x4234bc
  4087c5:	ret    
  4087c6:	add    eax,0xc
  4087c9:	ret    
  4087ca:	mov    edi,edi
  4087cc:	push   ebp
  4087cd:	mov    ebp,esp
  4087cf:	push   esi
  4087d0:	call   0x4087b7
  4087d5:	mov    ecx,DWORD PTR [ebp+0x8]
  4087d8:	push   ecx
  4087d9:	mov    DWORD PTR [eax],ecx
  4087db:	call   0x408762
  4087e0:	pop    ecx
  4087e1:	mov    esi,eax
  4087e3:	call   0x4087a4
  4087e8:	mov    DWORD PTR [eax],esi
  4087ea:	pop    esi
  4087eb:	pop    ebp
  4087ec:	ret    
  4087ed:	mov    edi,edi
  4087ef:	push   ebp
  4087f0:	mov    ebp,esp
  4087f2:	push   esi
  4087f3:	push   edi
  4087f4:	xor    esi,esi
  4087f6:	push   DWORD PTR [ebp+0x8]
  4087f9:	call   0x40f011
  4087fe:	mov    edi,eax
  408800:	pop    ecx
  408801:	test   edi,edi
  408803:	jne    0x40882c
  408805:	cmp    DWORD PTR ds:0x43bfb4,eax
  40880b:	jbe    0x40882c
  40880d:	push   esi
  40880e:	call   DWORD PTR ds:0x419318
  408814:	lea    eax,[esi+0x3e8]
  40881a:	cmp    eax,DWORD PTR ds:0x43bfb4
  408820:	jbe    0x408825
  408822:	or     eax,0xffffffff
  408825:	mov    esi,eax
  408827:	cmp    eax,0xffffffff
  40882a:	jne    0x4087f6
  40882c:	mov    eax,edi
  40882e:	pop    edi
  40882f:	pop    esi
  408830:	pop    ebp
  408831:	ret    
  408832:	mov    edi,edi
  408834:	push   ebp
  408835:	mov    ebp,esp
  408837:	push   esi
  408838:	push   edi
  408839:	xor    esi,esi
  40883b:	push   0x0
  40883d:	push   DWORD PTR [ebp+0xc]
  408840:	push   DWORD PTR [ebp+0x8]
  408843:	call   0x40f0db
  408848:	mov    edi,eax
  40884a:	add    esp,0xc
  40884d:	test   edi,edi
  40884f:	jne    0x408878
  408851:	cmp    DWORD PTR ds:0x43bfb4,eax
  408857:	jbe    0x408878
  408859:	push   esi
  40885a:	call   DWORD PTR ds:0x419318
  408860:	lea    eax,[esi+0x3e8]
  408866:	cmp    eax,DWORD PTR ds:0x43bfb4
  40886c:	jbe    0x408871
  40886e:	or     eax,0xffffffff
  408871:	mov    esi,eax
  408873:	cmp    eax,0xffffffff
  408876:	jne    0x40883b
  408878:	mov    eax,edi
  40887a:	pop    edi
  40887b:	pop    esi
  40887c:	pop    ebp
  40887d:	ret    
  40887e:	mov    edi,edi
  408880:	push   ebp
  408881:	mov    ebp,esp
  408883:	push   esi
  408884:	push   edi
  408885:	xor    esi,esi
  408887:	push   DWORD PTR [ebp+0xc]
  40888a:	push   DWORD PTR [ebp+0x8]
  40888d:	call   0x40f1f9
  408892:	mov    edi,eax
  408894:	pop    ecx
  408895:	pop    ecx
  408896:	test   edi,edi
  408898:	jne    0x4088c6
  40889a:	cmp    DWORD PTR [ebp+0xc],eax
  40889d:	je     0x4088c6
  40889f:	cmp    DWORD PTR ds:0x43bfb4,eax
  4088a5:	jbe    0x4088c6
  4088a7:	push   esi
  4088a8:	call   DWORD PTR ds:0x419318
  4088ae:	lea    eax,[esi+0x3e8]
  4088b4:	cmp    eax,DWORD PTR ds:0x43bfb4
  4088ba:	jbe    0x4088bf
  4088bc:	or     eax,0xffffffff
  4088bf:	mov    esi,eax
  4088c1:	cmp    eax,0xffffffff
  4088c4:	jne    0x408887
  4088c6:	mov    eax,edi
  4088c8:	pop    edi
  4088c9:	pop    esi
  4088ca:	pop    ebp
  4088cb:	ret    
  4088cc:	mov    edi,edi
  4088ce:	push   ebp
  4088cf:	mov    ebp,esp
  4088d1:	push   esi
  4088d2:	push   edi
  4088d3:	xor    esi,esi
  4088d5:	push   DWORD PTR [ebp+0x10]
  4088d8:	push   DWORD PTR [ebp+0xc]
  4088db:	push   DWORD PTR [ebp+0x8]
  4088de:	call   0x40f414
  4088e3:	mov    edi,eax
  4088e5:	add    esp,0xc
  4088e8:	test   edi,edi
  4088ea:	jne    0x408918
  4088ec:	cmp    DWORD PTR [ebp+0x10],eax
  4088ef:	je     0x408918
  4088f1:	cmp    DWORD PTR ds:0x43bfb4,eax
  4088f7:	jbe    0x408918
  4088f9:	push   esi
  4088fa:	call   DWORD PTR ds:0x419318
  408900:	lea    eax,[esi+0x3e8]
  408906:	cmp    eax,DWORD PTR ds:0x43bfb4
  40890c:	jbe    0x408911
  40890e:	or     eax,0xffffffff
  408911:	mov    esi,eax
  408913:	cmp    eax,0xffffffff
  408916:	jne    0x4088d5
  408918:	mov    eax,edi
  40891a:	pop    edi
  40891b:	pop    esi
  40891c:	pop    ebp
  40891d:	ret    
  40891e:	mov    edi,edi
  408920:	push   ebp
  408921:	mov    ebp,esp
  408923:	push   esi
  408924:	push   DWORD PTR ds:0x4234c4
  40892a:	mov    esi,DWORD PTR ds:0x419324
  408930:	call   esi
  408932:	test   eax,eax
  408934:	je     0x408957
  408936:	mov    eax,ds:0x4234c0
  40893b:	cmp    eax,0xffffffff
  40893e:	je     0x408957
  408940:	push   eax
  408941:	push   DWORD PTR ds:0x4234c4
  408947:	call   esi
  408949:	call   eax
  40894b:	test   eax,eax
  40894d:	je     0x408957
  40894f:	mov    eax,DWORD PTR [eax+0x1f8]
  408955:	jmp    0x40897e
  408957:	mov    esi,0x41d4a0
  40895c:	push   esi
  40895d:	call   DWORD PTR ds:0x41926c
  408963:	test   eax,eax
  408965:	jne    0x408972
  408967:	push   esi
  408968:	call   0x40cf48
  40896d:	pop    ecx
  40896e:	test   eax,eax
  408970:	je     0x40898a
  408972:	push   0x41d490
  408977:	push   eax
  408978:	call   DWORD PTR ds:0x419268
  40897e:	test   eax,eax
  408980:	je     0x40898a
  408982:	push   DWORD PTR [ebp+0x8]
  408985:	call   eax
  408987:	mov    DWORD PTR [ebp+0x8],eax
  40898a:	mov    eax,DWORD PTR [ebp+0x8]
  40898d:	pop    esi
  40898e:	pop    ebp
  40898f:	ret    
  408990:	push   0x0
  408992:	call   0x40891e
  408997:	pop    ecx
  408998:	ret    
  408999:	mov    edi,edi
  40899b:	push   ebp
  40899c:	mov    ebp,esp
  40899e:	push   esi
  40899f:	push   DWORD PTR ds:0x4234c4
  4089a5:	mov    esi,DWORD PTR ds:0x419324
  4089ab:	call   esi
  4089ad:	test   eax,eax
  4089af:	je     0x4089d2
  4089b1:	mov    eax,ds:0x4234c0
  4089b6:	cmp    eax,0xffffffff
  4089b9:	je     0x4089d2
  4089bb:	push   eax
  4089bc:	push   DWORD PTR ds:0x4234c4
  4089c2:	call   esi
  4089c4:	call   eax
  4089c6:	test   eax,eax
  4089c8:	je     0x4089d2
  4089ca:	mov    eax,DWORD PTR [eax+0x1fc]
  4089d0:	jmp    0x4089f9
  4089d2:	mov    esi,0x41d4a0
  4089d7:	push   esi
  4089d8:	call   DWORD PTR ds:0x41926c
  4089de:	test   eax,eax
  4089e0:	jne    0x4089ed
  4089e2:	push   esi
  4089e3:	call   0x40cf48
  4089e8:	pop    ecx
  4089e9:	test   eax,eax
  4089eb:	je     0x408a05
  4089ed:	push   0x41d4bc
  4089f2:	push   eax
  4089f3:	call   DWORD PTR ds:0x419268
  4089f9:	test   eax,eax
  4089fb:	je     0x408a05
  4089fd:	push   DWORD PTR [ebp+0x8]
  408a00:	call   eax
  408a02:	mov    DWORD PTR [ebp+0x8],eax
  408a05:	mov    eax,DWORD PTR [ebp+0x8]
  408a08:	pop    esi
  408a09:	pop    ebp
  408a0a:	ret    
  408a0b:	call   DWORD PTR ds:0x41949c
  408a11:	ret    0x4
  408a14:	mov    edi,edi
  408a16:	push   esi
  408a17:	push   DWORD PTR ds:0x4234c4
  408a1d:	call   DWORD PTR ds:0x419324
  408a23:	mov    esi,eax
  408a25:	test   esi,esi
  408a27:	jne    0x408a44
  408a29:	push   DWORD PTR ds:0x43bfbc
  408a2f:	call   0x408999
  408a34:	pop    ecx
  408a35:	mov    esi,eax
  408a37:	push   esi
  408a38:	push   DWORD PTR ds:0x4234c4
  408a3e:	call   DWORD PTR ds:0x419328
  408a44:	mov    eax,esi
  408a46:	pop    esi
  408a47:	ret    
  408a48:	mov    eax,ds:0x4234c0
  408a4d:	cmp    eax,0xffffffff
  408a50:	je     0x408a68
  408a52:	push   eax
  408a53:	push   DWORD PTR ds:0x43bfc4
  408a59:	call   0x408999
  408a5e:	pop    ecx
  408a5f:	call   eax
  408a61:	or     DWORD PTR ds:0x4234c0,0xffffffff
  408a68:	mov    eax,ds:0x4234c4
  408a6d:	cmp    eax,0xffffffff
  408a70:	je     0x408a80
  408a72:	push   eax
  408a73:	call   DWORD PTR ds:0x4194a0
  408a79:	or     DWORD PTR ds:0x4234c4,0xffffffff
  408a80:	jmp    0x40f4da
  408a85:	push   0xc
  408a87:	push   0x41ee18
  408a8c:	call   0x40a868
  408a91:	mov    esi,0x41d4a0
  408a96:	push   esi
  408a97:	call   DWORD PTR ds:0x41926c
  408a9d:	test   eax,eax
  408a9f:	jne    0x408aa8
  408aa1:	push   esi
  408aa2:	call   0x40cf48
  408aa7:	pop    ecx
  408aa8:	mov    DWORD PTR [ebp-0x1c],eax
  408aab:	mov    esi,DWORD PTR [ebp+0x8]
  408aae:	mov    DWORD PTR [esi+0x5c],0x41e210
  408ab5:	xor    edi,edi
  408ab7:	inc    edi
  408ab8:	mov    DWORD PTR [esi+0x14],edi
  408abb:	test   eax,eax
  408abd:	je     0x408ae3
  408abf:	push   0x41d490
  408ac4:	push   eax
  408ac5:	mov    ebx,DWORD PTR ds:0x419268
  408acb:	call   ebx
  408acd:	mov    DWORD PTR [esi+0x1f8],eax
  408ad3:	push   0x41d4bc
  408ad8:	push   DWORD PTR [ebp-0x1c]
  408adb:	call   ebx
  408add:	mov    DWORD PTR [esi+0x1fc],eax
  408ae3:	mov    DWORD PTR [esi+0x70],edi
  408ae6:	mov    BYTE PTR [esi+0xc8],0x43
  408aed:	mov    BYTE PTR [esi+0x14b],0x43
  408af4:	mov    DWORD PTR [esi+0x68],0x4234c8
  408afb:	push   0xd
  408afd:	call   0x40f60b
  408b02:	pop    ecx
  408b03:	and    DWORD PTR [ebp-0x4],0x0
  408b07:	push   DWORD PTR [esi+0x68]
  408b0a:	call   DWORD PTR ds:0x4194a4
  408b10:	mov    DWORD PTR [ebp-0x4],0xfffffffe
  408b17:	call   0x408b5a
  408b1c:	push   0xc
  408b1e:	call   0x40f60b
  408b23:	pop    ecx
  408b24:	mov    DWORD PTR [ebp-0x4],edi
  408b27:	mov    eax,DWORD PTR [ebp+0xc]
  408b2a:	mov    DWORD PTR [esi+0x6c],eax
  408b2d:	test   eax,eax
  408b2f:	jne    0x408b39
  408b31:	mov    eax,ds:0x423ad0
  408b36:	mov    DWORD PTR [esi+0x6c],eax
  408b39:	push   DWORD PTR [esi+0x6c]
  408b3c:	call   0x4096e7
  408b41:	pop    ecx
  408b42:	mov    DWORD PTR [ebp-0x4],0xfffffffe
  408b49:	call   0x408b63
  408b4e:	call   0x40a8ad
  408b53:	ret    
  408b54:	xor    edi,edi
  408b56:	inc    edi
  408b57:	mov    esi,DWORD PTR [ebp+0x8]
  408b5a:	push   0xd
  408b5c:	call   0x40f531
  408b61:	pop    ecx
  408b62:	ret    
  408b63:	push   0xc
  408b65:	call   0x40f531
  408b6a:	pop    ecx
  408b6b:	ret    
  408b6c:	mov    edi,edi
  408b6e:	push   esi
  408b6f:	push   edi
  408b70:	call   DWORD PTR ds:0x41927c
  408b76:	push   DWORD PTR ds:0x4234c0
  408b7c:	mov    edi,eax
  408b7e:	call   0x408a14
  408b83:	call   eax
  408b85:	mov    esi,eax
  408b87:	test   esi,esi
  408b89:	jne    0x408bd9
  408b8b:	push   0x214
  408b90:	push   0x1
  408b92:	call   0x408832
  408b97:	mov    esi,eax
  408b99:	pop    ecx
  408b9a:	pop    ecx
  408b9b:	test   esi,esi
  408b9d:	je     0x408bd9
  408b9f:	push   esi
  408ba0:	push   DWORD PTR ds:0x4234c0
  408ba6:	push   DWORD PTR ds:0x43bfc0
  408bac:	call   0x408999
  408bb1:	pop    ecx
  408bb2:	call   eax
  408bb4:	test   eax,eax
  408bb6:	je     0x408bd0
  408bb8:	push   0x0
  408bba:	push   esi
  408bbb:	call   0x408a85
  408bc0:	pop    ecx
  408bc1:	pop    ecx
  408bc2:	call   DWORD PTR ds:0x419294
  408bc8:	or     DWORD PTR [esi+0x4],0xffffffff
  408bcc:	mov    DWORD PTR [esi],eax
  408bce:	jmp    0x408bd9
  408bd0:	push   esi
  408bd1:	call   0x40f63e
  408bd6:	pop    ecx
  408bd7:	xor    esi,esi
  408bd9:	push   edi
  408bda:	call   DWORD PTR ds:0x419454
  408be0:	pop    edi
  408be1:	mov    eax,esi
  408be3:	pop    esi
  408be4:	ret    
  408be5:	mov    edi,edi
  408be7:	push   esi
  408be8:	call   0x408b6c
  408bed:	mov    esi,eax
  408bef:	test   esi,esi
  408bf1:	jne    0x408bfb
  408bf3:	push   0x10
  408bf5:	call   0x40cf78
  408bfa:	pop    ecx
  408bfb:	mov    eax,esi
  408bfd:	pop    esi
  408bfe:	ret    
  408bff:	push   0x8
  408c01:	push   0x41ee40
  408c06:	call   0x40a868
  408c0b:	mov    esi,DWORD PTR [ebp+0x8]
  408c0e:	test   esi,esi
  408c10:	je     0x408d0e
  408c16:	mov    eax,DWORD PTR [esi+0x24]
  408c19:	test   eax,eax
  408c1b:	je     0x408c24
  408c1d:	push   eax
  408c1e:	call   0x40f63e
  408c23:	pop    ecx
  408c24:	mov    eax,DWORD PTR [esi+0x2c]
  408c27:	test   eax,eax
  408c29:	je     0x408c32
  408c2b:	push   eax
  408c2c:	call   0x40f63e
  408c31:	pop    ecx
  408c32:	mov    eax,DWORD PTR [esi+0x34]
  408c35:	test   eax,eax
  408c37:	je     0x408c40
  408c39:	push   eax
  408c3a:	call   0x40f63e
  408c3f:	pop    ecx
  408c40:	mov    eax,DWORD PTR [esi+0x3c]
  408c43:	test   eax,eax
  408c45:	je     0x408c4e
  408c47:	push   eax
  408c48:	call   0x40f63e
  408c4d:	pop    ecx
  408c4e:	mov    eax,DWORD PTR [esi+0x40]
  408c51:	test   eax,eax
  408c53:	je     0x408c5c
  408c55:	push   eax
  408c56:	call   0x40f63e
  408c5b:	pop    ecx
  408c5c:	mov    eax,DWORD PTR [esi+0x44]
  408c5f:	test   eax,eax
  408c61:	je     0x408c6a
  408c63:	push   eax
  408c64:	call   0x40f63e
  408c69:	pop    ecx
  408c6a:	mov    eax,DWORD PTR [esi+0x48]
  408c6d:	test   eax,eax
  408c6f:	je     0x408c78
  408c71:	push   eax
  408c72:	call   0x40f63e
  408c77:	pop    ecx
  408c78:	mov    eax,DWORD PTR [esi+0x5c]
  408c7b:	cmp    eax,0x41e210
  408c80:	je     0x408c89
  408c82:	push   eax
  408c83:	call   0x40f63e
  408c88:	pop    ecx
  408c89:	push   0xd
  408c8b:	call   0x40f60b
  408c90:	pop    ecx
  408c91:	and    DWORD PTR [ebp-0x4],0x0
  408c95:	mov    edi,DWORD PTR [esi+0x68]
  408c98:	test   edi,edi
  408c9a:	je     0x408cb6
  408c9c:	push   edi
  408c9d:	call   DWORD PTR ds:0x4194a8
  408ca3:	test   eax,eax
  408ca5:	jne    0x408cb6
  408ca7:	cmp    edi,0x4234c8
  408cad:	je     0x408cb6
  408caf:	push   edi
  408cb0:	call   0x40f63e
  408cb5:	pop    ecx
  408cb6:	mov    DWORD PTR [ebp-0x4],0xfffffffe
  408cbd:	call   0x408d19
  408cc2:	push   0xc
  408cc4:	call   0x40f60b
  408cc9:	pop    ecx
  408cca:	mov    DWORD PTR [ebp-0x4],0x1
  408cd1:	mov    edi,DWORD PTR [esi+0x6c]
  408cd4:	test   edi,edi
  408cd6:	je     0x408cfb
  408cd8:	push   edi
  408cd9:	call   0x409776
  408cde:	pop    ecx
  408cdf:	cmp    edi,DWORD PTR ds:0x423ad0
  408ce5:	je     0x408cfb
  408ce7:	cmp    edi,0x4239f8
  408ced:	je     0x408cfb
  408cef:	cmp    DWORD PTR [edi],0x0
  408cf2:	jne    0x408cfb
  408cf4:	push   edi
  408cf5:	call   0x40959e
  408cfa:	pop    ecx
  408cfb:	mov    DWORD PTR [ebp-0x4],0xfffffffe
  408d02:	call   0x408d25
  408d07:	push   esi
  408d08:	call   0x40f63e
  408d0d:	pop    ecx
  408d0e:	call   0x40a8ad
  408d13:	ret    0x4
  408d16:	mov    esi,DWORD PTR [ebp+0x8]
  408d19:	push   0xd
  408d1b:	call   0x40f531
  408d20:	pop    ecx
  408d21:	ret    
  408d22:	mov    esi,DWORD PTR [ebp+0x8]
  408d25:	push   0xc
  408d27:	call   0x40f531
  408d2c:	pop    ecx
  408d2d:	ret    
  408d2e:	mov    edi,edi
  408d30:	push   esi
  408d31:	push   edi
  408d32:	mov    esi,0x41d4a0
  408d37:	push   esi
  408d38:	call   DWORD PTR ds:0x41926c
  408d3e:	test   eax,eax
  408d40:	jne    0x408d49
  408d42:	push   esi
  408d43:	call   0x40cf48
  408d48:	pop    ecx
  408d49:	mov    edi,eax
  408d4b:	test   edi,edi
  408d4d:	je     0x408eb1
  408d53:	mov    esi,DWORD PTR ds:0x419268
  408d59:	push   0x41d4ec
  408d5e:	push   edi
  408d5f:	call   esi
  408d61:	push   0x41d4e0
  408d66:	push   edi
  408d67:	mov    ds:0x43bfb8,eax
  408d6c:	call   esi
  408d6e:	push   0x41d4d4
  408d73:	push   edi
  408d74:	mov    ds:0x43bfbc,eax
  408d79:	call   esi
  408d7b:	push   0x41d4cc
  408d80:	push   edi
  408d81:	mov    ds:0x43bfc0,eax
  408d86:	call   esi
  408d88:	cmp    DWORD PTR ds:0x43bfb8,0x0
  408d8f:	mov    esi,DWORD PTR ds:0x419328
  408d95:	mov    ds:0x43bfc4,eax
  408d9a:	je     0x408db2
  408d9c:	cmp    DWORD PTR ds:0x43bfbc,0x0
  408da3:	je     0x408db2
  408da5:	cmp    DWORD PTR ds:0x43bfc0,0x0
  408dac:	je     0x408db2
  408dae:	test   eax,eax
  408db0:	jne    0x408dd6
  408db2:	mov    eax,ds:0x419324
  408db7:	mov    ds:0x43bfbc,eax
  408dbc:	mov    eax,ds:0x4194a0
  408dc1:	mov    DWORD PTR ds:0x43bfb8,0x408a0b
  408dcb:	mov    DWORD PTR ds:0x43bfc0,esi
  408dd1:	mov    ds:0x43bfc4,eax
  408dd6:	call   DWORD PTR ds:0x41949c
  408ddc:	mov    ds:0x4234c4,eax
  408de1:	cmp    eax,0xffffffff
  408de4:	je     0x408eb6
  408dea:	push   DWORD PTR ds:0x43bfbc
  408df0:	push   eax
  408df1:	call   esi
  408df3:	test   eax,eax
  408df5:	je     0x408eb6
  408dfb:	call   0x40d232
  408e00:	push   DWORD PTR ds:0x43bfb8
  408e06:	call   0x40891e
  408e0b:	push   DWORD PTR ds:0x43bfbc
  408e11:	mov    ds:0x43bfb8,eax
  408e16:	call   0x40891e
  408e1b:	push   DWORD PTR ds:0x43bfc0
  408e21:	mov    ds:0x43bfbc,eax
  408e26:	call   0x40891e
  408e2b:	push   DWORD PTR ds:0x43bfc4
  408e31:	mov    ds:0x43bfc0,eax
  408e36:	call   0x40891e
  408e3b:	add    esp,0x10
  408e3e:	mov    ds:0x43bfc4,eax
  408e43:	call   0x40f48f
  408e48:	test   eax,eax
  408e4a:	je     0x408eb1
  408e4c:	push   0x408bff
  408e51:	push   DWORD PTR ds:0x43bfb8
  408e57:	call   0x408999
  408e5c:	pop    ecx
  408e5d:	call   eax
  408e5f:	mov    ds:0x4234c0,eax
  408e64:	cmp    eax,0xffffffff
  408e67:	je     0x408eb1
  408e69:	push   0x214
  408e6e:	push   0x1
  408e70:	call   0x408832
  408e75:	mov    esi,eax
  408e77:	pop    ecx
  408e78:	pop    ecx
  408e79:	test   esi,esi
  408e7b:	je     0x408eb1
  408e7d:	push   esi
  408e7e:	push   DWORD PTR ds:0x4234c0
  408e84:	push   DWORD PTR ds:0x43bfc0
  408e8a:	call   0x408999
  408e8f:	pop    ecx
  408e90:	call   eax
  408e92:	test   eax,eax
  408e94:	je     0x408eb1
  408e96:	push   0x0
  408e98:	push   esi
  408e99:	call   0x408a85
  408e9e:	pop    ecx
  408e9f:	pop    ecx
  408ea0:	call   DWORD PTR ds:0x419294
  408ea6:	or     DWORD PTR [esi+0x4],0xffffffff
  408eaa:	mov    DWORD PTR [esi],eax
  408eac:	xor    eax,eax
  408eae:	inc    eax
  408eaf:	jmp    0x408eb8
  408eb1:	call   0x408a48
  408eb6:	xor    eax,eax
  408eb8:	pop    edi
  408eb9:	pop    esi
  408eba:	ret    
  408ebb:	sub    eax,0x3a4
  408ec0:	je     0x408ee4
  408ec2:	sub    eax,0x4
  408ec5:	je     0x408ede
  408ec7:	sub    eax,0xd
  408eca:	je     0x408ed8
  408ecc:	dec    eax
  408ecd:	je     0x408ed2
  408ecf:	xor    eax,eax
  408ed1:	ret    
  408ed2:	mov    eax,0x404
  408ed7:	ret    
  408ed8:	mov    eax,0x412
  408edd:	ret    
  408ede:	mov    eax,0x804
  408ee3:	ret    
  408ee4:	mov    eax,0x411
  408ee9:	ret    
  408eea:	mov    edi,edi
  408eec:	push   esi
  408eed:	push   edi
  408eee:	mov    esi,eax
  408ef0:	push   0x101
  408ef5:	xor    edi,edi
  408ef7:	lea    eax,[esi+0x1c]
  408efa:	push   edi
  408efb:	push   eax
  408efc:	call   0x40cc70
  408f01:	xor    eax,eax
  408f03:	movzx  ecx,ax
  408f06:	mov    eax,ecx
  408f08:	mov    DWORD PTR [esi+0x4],edi
  408f0b:	mov    DWORD PTR [esi+0x8],edi
  408f0e:	mov    DWORD PTR [esi+0xc],edi
  408f11:	shl    ecx,0x10
  408f14:	or     eax,ecx
  408f16:	lea    edi,[esi+0x10]
  408f19:	stos   DWORD PTR es:[edi],eax
  408f1a:	stos   DWORD PTR es:[edi],eax
  408f1b:	stos   DWORD PTR es:[edi],eax
  408f1c:	mov    ecx,0x4234c8
  408f21:	add    esp,0xc
  408f24:	lea    eax,[esi+0x1c]
  408f27:	sub    ecx,esi
  408f29:	mov    edi,0x101
  408f2e:	mov    dl,BYTE PTR [ecx+eax*1]
  408f31:	mov    BYTE PTR [eax],dl
  408f33:	inc    eax
  408f34:	dec    edi
  408f35:	jne    0x408f2e
  408f37:	lea    eax,[esi+0x11d]
  408f3d:	mov    esi,0x100
  408f42:	mov    dl,BYTE PTR [eax+ecx*1]
  408f45:	mov    BYTE PTR [eax],dl
  408f47:	inc    eax
  408f48:	dec    esi
  408f49:	jne    0x408f42
  408f4b:	pop    edi
  408f4c:	pop    esi
  408f4d:	ret    
  408f4e:	mov    edi,edi
  408f50:	push   ebp
  408f51:	mov    ebp,esp
  408f53:	sub    esp,0x51c
  408f59:	mov    eax,ds:0x423d68
  408f5e:	xor    eax,ebp
  408f60:	mov    DWORD PTR [ebp-0x4],eax
  408f63:	push   ebx
  408f64:	push   edi
  408f65:	lea    eax,[ebp-0x518]
  408f6b:	push   eax
  408f6c:	push   DWORD PTR [esi+0x4]
  408f6f:	call   DWORD PTR ds:0x419374
  408f75:	mov    edi,0x100
  408f7a:	test   eax,eax
  408f7c:	je     0x40907d
  408f82:	xor    eax,eax
  408f84:	mov    BYTE PTR [ebp+eax*1-0x104],al
  408f8b:	inc    eax
  408f8c:	cmp    eax,edi
  408f8e:	jb     0x408f84
  408f90:	mov    al,BYTE PTR [ebp-0x512]
  408f96:	mov    BYTE PTR [ebp-0x104],0x20
  408f9d:	test   al,al
  408f9f:	je     0x408fcf
  408fa1:	lea    ebx,[ebp-0x511]
  408fa7:	movzx  ecx,al
  408faa:	movzx  eax,BYTE PTR [ebx]
  408fad:	cmp    ecx,eax
  408faf:	ja     0x408fc7
  408fb1:	sub    eax,ecx
  408fb3:	inc    eax
  408fb4:	push   eax
  408fb5:	lea    edx,[ebp+ecx*1-0x104]
  408fbc:	push   0x20
  408fbe:	push   edx
  408fbf:	call   0x40cc70
  408fc4:	add    esp,0xc
  408fc7:	inc    ebx
  408fc8:	mov    al,BYTE PTR [ebx]
  408fca:	inc    ebx
  408fcb:	test   al,al
  408fcd:	jne    0x408fa7
  408fcf:	push   0x0
  408fd1:	push   DWORD PTR [esi+0xc]
  408fd4:	lea    eax,[ebp-0x504]
  408fda:	push   DWORD PTR [esi+0x4]
  408fdd:	push   eax
  408fde:	push   edi
  408fdf:	lea    eax,[ebp-0x104]
  408fe5:	push   eax
  408fe6:	push   0x1
  408fe8:	push   0x0
  408fea:	call   0x40fc90
  408fef:	xor    ebx,ebx
  408ff1:	push   ebx
  408ff2:	push   DWORD PTR [esi+0x4]
  408ff5:	lea    eax,[ebp-0x204]
  408ffb:	push   edi
  408ffc:	push   eax
  408ffd:	push   edi
  408ffe:	lea    eax,[ebp-0x104]
  409004:	push   eax
  409005:	push   edi
  409006:	push   DWORD PTR [esi+0xc]
  409009:	push   ebx
  40900a:	call   0x40fa91
  40900f:	add    esp,0x44
  409012:	push   ebx
  409013:	push   DWORD PTR [esi+0x4]
  409016:	lea    eax,[ebp-0x304]
  40901c:	push   edi
  40901d:	push   eax
  40901e:	push   edi
  40901f:	lea    eax,[ebp-0x104]
  409025:	push   eax
  409026:	push   0x200
  40902b:	push   DWORD PTR [esi+0xc]
  40902e:	push   ebx
  40902f:	call   0x40fa91
  409034:	add    esp,0x24
  409037:	xor    eax,eax
  409039:	movzx  ecx,WORD PTR [ebp+eax*2-0x504]
  409041:	test   cl,0x1
  409044:	je     0x409054
  409046:	or     BYTE PTR [esi+eax*1+0x1d],0x10
  40904b:	mov    cl,BYTE PTR [ebp+eax*1-0x204]
  409052:	jmp    0x409065
  409054:	test   cl,0x2
  409057:	je     0x40906e
  409059:	or     BYTE PTR [esi+eax*1+0x1d],0x20
  40905e:	mov    cl,BYTE PTR [ebp+eax*1-0x304]
  409065:	mov    BYTE PTR [esi+eax*1+0x11d],cl
  40906c:	jmp    0x409076
  40906e:	mov    BYTE PTR [esi+eax*1+0x11d],0x0
  409076:	inc    eax
  409077:	cmp    eax,edi
  409079:	jb     0x409039
  40907b:	jmp    0x4090d3
  40907d:	lea    eax,[esi+0x11d]
  409083:	mov    DWORD PTR [ebp-0x51c],0xffffff9f
  40908d:	xor    ecx,ecx
  40908f:	sub    DWORD PTR [ebp-0x51c],eax
  409095:	mov    edx,DWORD PTR [ebp-0x51c]
  40909b:	lea    eax,[esi+ecx*1+0x11d]
  4090a2:	add    edx,eax
  4090a4:	lea    ebx,[edx+0x20]
  4090a7:	cmp    ebx,0x19
  4090aa:	ja     0x4090b8
  4090ac:	or     BYTE PTR [esi+ecx*1+0x1d],0x10
  4090b1:	mov    dl,cl
  4090b3:	add    dl,0x20
  4090b6:	jmp    0x4090c7
  4090b8:	cmp    edx,0x19
  4090bb:	ja     0x4090cb
  4090bd:	or     BYTE PTR [esi+ecx*1+0x1d],0x20
  4090c2:	mov    dl,cl
  4090c4:	sub    dl,0x20
  4090c7:	mov    BYTE PTR [eax],dl
  4090c9:	jmp    0x4090ce
  4090cb:	mov    BYTE PTR [eax],0x0
  4090ce:	inc    ecx
  4090cf:	cmp    ecx,edi
  4090d1:	jb     0x409095
  4090d3:	mov    ecx,DWORD PTR [ebp-0x4]
  4090d6:	pop    edi
  4090d7:	xor    ecx,ebp
  4090d9:	pop    ebx
  4090da:	call   0x40efb3
  4090df:	leave  
  4090e0:	ret    
  4090e1:	push   0xc
  4090e3:	push   0x41ee68
  4090e8:	call   0x40a868
  4090ed:	call   0x408be5
  4090f2:	mov    edi,eax
  4090f4:	mov    eax,ds:0x4239ec
  4090f9:	test   DWORD PTR [edi+0x70],eax
  4090fc:	je     0x40911b
  4090fe:	cmp    DWORD PTR [edi+0x6c],0x0
  409102:	je     0x40911b
  409104:	mov    esi,DWORD PTR [edi+0x68]
  409107:	test   esi,esi
  409109:	jne    0x409113
  40910b:	push   0x20
  40910d:	call   0x40cf78
  409112:	pop    ecx
  409113:	mov    eax,esi
  409115:	call   0x40a8ad
  40911a:	ret    
  40911b:	push   0xd
  40911d:	call   0x40f60b
  409122:	pop    ecx
  409123:	and    DWORD PTR [ebp-0x4],0x0
  409127:	mov    esi,DWORD PTR [edi+0x68]
  40912a:	mov    DWORD PTR [ebp-0x1c],esi
  40912d:	cmp    esi,DWORD PTR ds:0x4238f0
  409133:	je     0x40916b
  409135:	test   esi,esi
  409137:	je     0x409153
  409139:	push   esi
  40913a:	call   DWORD PTR ds:0x4194a8
  409140:	test   eax,eax
  409142:	jne    0x409153
  409144:	cmp    esi,0x4234c8
  40914a:	je     0x409153
  40914c:	push   esi
  40914d:	call   0x40f63e
  409152:	pop    ecx
  409153:	mov    eax,ds:0x4238f0
  409158:	mov    DWORD PTR [edi+0x68],eax
  40915b:	mov    esi,DWORD PTR ds:0x4238f0
  409161:	mov    DWORD PTR [ebp-0x1c],esi
  409164:	push   esi
  409165:	call   DWORD PTR ds:0x4194a4
  40916b:	mov    DWORD PTR [ebp-0x4],0xfffffffe
  409172:	call   0x40917c
  409177:	jmp    0x409107
  409179:	mov    esi,DWORD PTR [ebp-0x1c]
  40917c:	push   0xd
  40917e:	call   0x40f531
  409183:	pop    ecx
  409184:	ret    
  409185:	mov    edi,edi
  409187:	push   ebp
  409188:	mov    ebp,esp
  40918a:	sub    esp,0x10
  40918d:	push   ebx
  40918e:	xor    ebx,ebx
  409190:	push   ebx
  409191:	lea    ecx,[ebp-0x10]
  409194:	call   0x4046f4
  409199:	mov    DWORD PTR ds:0x43bfc8,ebx
  40919f:	cmp    esi,0xfffffffe
  4091a2:	jne    0x4091c2
  4091a4:	mov    DWORD PTR ds:0x43bfc8,0x1
  4091ae:	call   DWORD PTR ds:0x4194ac
  4091b4:	cmp    BYTE PTR [ebp-0x4],bl
  4091b7:	je     0x4091fe
  4091b9:	mov    ecx,DWORD PTR [ebp-0x8]
  4091bc:	and    DWORD PTR [ecx+0x70],0xfffffffd
  4091c0:	jmp    0x4091fe
  4091c2:	cmp    esi,0xfffffffd
  4091c5:	jne    0x4091d9
  4091c7:	mov    DWORD PTR ds:0x43bfc8,0x1
  4091d1:	call   DWORD PTR ds:0x4192d4
  4091d7:	jmp    0x4091b4
  4091d9:	cmp    esi,0xfffffffc
  4091dc:	jne    0x4091f0
  4091de:	mov    eax,DWORD PTR [ebp-0x10]
  4091e1:	mov    eax,DWORD PTR [eax+0x4]
  4091e4:	mov    DWORD PTR ds:0x43bfc8,0x1
  4091ee:	jmp    0x4091b4
  4091f0:	cmp    BYTE PTR [ebp-0x4],bl
  4091f3:	je     0x4091fc
  4091f5:	mov    eax,DWORD PTR [ebp-0x8]
  4091f8:	and    DWORD PTR [eax+0x70],0xfffffffd
  4091fc:	mov    eax,esi
  4091fe:	pop    ebx
  4091ff:	leave  
  409200:	ret    
  409201:	mov    edi,edi
  409203:	push   ebp
  409204:	mov    ebp,esp
  409206:	sub    esp,0x20
  409209:	mov    eax,ds:0x423d68
  40920e:	xor    eax,ebp
  409210:	mov    DWORD PTR [ebp-0x4],eax
  409213:	push   ebx
  409214:	mov    ebx,DWORD PTR [ebp+0xc]
  409217:	push   esi
  409218:	mov    esi,DWORD PTR [ebp+0x8]
  40921b:	push   edi
  40921c:	call   0x409185
  409221:	mov    edi,eax
  409223:	xor    esi,esi
  409225:	mov    DWORD PTR [ebp+0x8],edi
  409228:	cmp    edi,esi
  40922a:	jne    0x40923a
  40922c:	mov    eax,ebx
  40922e:	call   0x408eea
  409233:	xor    eax,eax
  409235:	jmp    0x4093d7
  40923a:	mov    DWORD PTR [ebp-0x1c],esi
  40923d:	xor    eax,eax
  40923f:	cmp    DWORD PTR [eax+0x4238f8],edi
  409245:	je     0x4092dc
  40924b:	inc    DWORD PTR [ebp-0x1c]
  40924e:	add    eax,0x30
  409251:	cmp    eax,0xf0
  409256:	jb     0x40923f
  409258:	cmp    edi,0xfde8
  40925e:	je     0x4093d4
  409264:	cmp    edi,0xfde9
  40926a:	je     0x4093d4
  409270:	movzx  eax,di
  409273:	push   eax
  409274:	call   DWORD PTR ds:0x4194b0
  40927a:	test   eax,eax
  40927c:	je     0x4093d4
  409282:	lea    eax,[ebp-0x18]
  409285:	push   eax
  409286:	push   edi
  409287:	call   DWORD PTR ds:0x419374
  40928d:	test   eax,eax
  40928f:	je     0x4093c8
  409295:	push   0x101
  40929a:	lea    eax,[ebx+0x1c]
  40929d:	push   esi
  40929e:	push   eax
  40929f:	call   0x40cc70
  4092a4:	xor    edx,edx
  4092a6:	inc    edx
  4092a7:	add    esp,0xc
  4092aa:	mov    DWORD PTR [ebx+0x4],edi
  4092ad:	mov    DWORD PTR [ebx+0xc],esi
  4092b0:	cmp    DWORD PTR [ebp-0x18],edx
  4092b3:	jbe    0x4093b1
  4092b9:	cmp    BYTE PTR [ebp-0x12],0x0
  4092bd:	je     0x409392
  4092c3:	lea    esi,[ebp-0x11]
  4092c6:	mov    cl,BYTE PTR [esi]
  4092c8:	test   cl,cl
  4092ca:	je     0x409392
  4092d0:	movzx  eax,BYTE PTR [esi-0x1]
  4092d4:	movzx  ecx,cl
  4092d7:	jmp    0x409382
  4092dc:	push   0x101
  4092e1:	lea    eax,[ebx+0x1c]
  4092e4:	push   esi
  4092e5:	push   eax
  4092e6:	call   0x40cc70
  4092eb:	mov    ecx,DWORD PTR [ebp-0x1c]
  4092ee:	add    esp,0xc
  4092f1:	imul   ecx,ecx,0x30
  4092f4:	mov    DWORD PTR [ebp-0x20],esi
  4092f7:	lea    esi,[ecx+0x423908]
  4092fd:	mov    DWORD PTR [ebp-0x1c],esi
  409300:	jmp    0x40932c
  409302:	mov    al,BYTE PTR [esi+0x1]
  409305:	test   al,al
  409307:	je     0x409331
  409309:	movzx  edi,BYTE PTR [esi]
  40930c:	movzx  eax,al
  40930f:	jmp    0x409323
  409311:	mov    eax,DWORD PTR [ebp-0x20]
  409314:	mov    al,BYTE PTR [eax+0x4238f4]
  40931a:	or     BYTE PTR [ebx+edi*1+0x1d],al
  40931e:	movzx  eax,BYTE PTR [esi+0x1]
  409322:	inc    edi
  409323:	cmp    edi,eax
  409325:	jbe    0x409311
  409327:	mov    edi,DWORD PTR [ebp+0x8]
  40932a:	inc    esi
  40932b:	inc    esi
  40932c:	cmp    BYTE PTR [esi],0x0
  40932f:	jne    0x409302
  409331:	mov    esi,DWORD PTR [ebp-0x1c]
  409334:	inc    DWORD PTR [ebp-0x20]
  409337:	add    esi,0x8
  40933a:	cmp    DWORD PTR [ebp-0x20],0x4
  40933e:	mov    DWORD PTR [ebp-0x1c],esi
  409341:	jb     0x40932c
  409343:	mov    eax,edi
  409345:	mov    DWORD PTR [ebx+0x4],edi
  409348:	mov    DWORD PTR [ebx+0x8],0x1
  40934f:	call   0x408ebb
  409354:	push   0x6
  409356:	mov    DWORD PTR [ebx+0xc],eax
  409359:	lea    eax,[ebx+0x10]
  40935c:	lea    ecx,[ecx+0x4238fc]
  409362:	pop    edx
  409363:	mov    si,WORD PTR [ecx]
  409366:	inc    ecx
  409367:	mov    WORD PTR [eax],si
  40936a:	inc    ecx
  40936b:	inc    eax
  40936c:	inc    eax
  40936d:	dec    edx
  40936e:	jne    0x409363
  409370:	mov    esi,ebx
  409372:	call   0x408f4e
  409377:	jmp    0x409233
  40937c:	or     BYTE PTR [ebx+eax*1+0x1d],0x4
  409381:	inc    eax
  409382:	cmp    eax,ecx
  409384:	jbe    0x40937c
  409386:	inc    esi
  409387:	inc    esi
  409388:	cmp    BYTE PTR [esi-0x1],0x0
  40938c:	jne    0x4092c6
  409392:	lea    eax,[ebx+0x1e]
  409395:	mov    ecx,0xfe
  40939a:	or     BYTE PTR [eax],0x8
  40939d:	inc    eax
  40939e:	dec    ecx
  40939f:	jne    0x40939a
  4093a1:	mov    eax,DWORD PTR [ebx+0x4]
  4093a4:	call   0x408ebb
  4093a9:	mov    DWORD PTR [ebx+0xc],eax
  4093ac:	mov    DWORD PTR [ebx+0x8],edx
  4093af:	jmp    0x4093b4
  4093b1:	mov    DWORD PTR [ebx+0x8],esi
  4093b4:	xor    eax,eax
  4093b6:	movzx  ecx,ax
  4093b9:	mov    eax,ecx
  4093bb:	shl    ecx,0x10
  4093be:	or     eax,ecx
  4093c0:	lea    edi,[ebx+0x10]
  4093c3:	stos   DWORD PTR es:[edi],eax
  4093c4:	stos   DWORD PTR es:[edi],eax
  4093c5:	stos   DWORD PTR es:[edi],eax
  4093c6:	jmp    0x409370
  4093c8:	cmp    DWORD PTR ds:0x43bfc8,esi
  4093ce:	jne    0x40922c
  4093d4:	or     eax,0xffffffff
  4093d7:	mov    ecx,DWORD PTR [ebp-0x4]
  4093da:	pop    edi
  4093db:	pop    esi
  4093dc:	xor    ecx,ebp
  4093de:	pop    ebx
  4093df:	call   0x40efb3
  4093e4:	leave  
  4093e5:	ret    
  4093e6:	push   0x14
  4093e8:	push   0x41ee88
  4093ed:	call   0x40a868
  4093f2:	or     DWORD PTR [ebp-0x20],0xffffffff
  4093f6:	call   0x408be5
  4093fb:	mov    edi,eax
  4093fd:	mov    DWORD PTR [ebp-0x24],edi
  409400:	call   0x4090e1
  409405:	mov    ebx,DWORD PTR [edi+0x68]
  409408:	mov    esi,DWORD PTR [ebp+0x8]
  40940b:	call   0x409185
  409410:	mov    DWORD PTR [ebp+0x8],eax
  409413:	cmp    eax,DWORD PTR [ebx+0x4]
  409416:	je     0x409573
  40941c:	push   0x220
  409421:	call   0x4087ed
  409426:	pop    ecx
  409427:	mov    ebx,eax
  409429:	test   ebx,ebx
  40942b:	je     0x409577
  409431:	mov    ecx,0x88
  409436:	mov    esi,DWORD PTR [edi+0x68]
  409439:	mov    edi,ebx
  40943b:	rep movs DWORD PTR es:[edi],DWORD PTR ds:[esi]
  40943d:	and    DWORD PTR [ebx],0x0
  409440:	push   ebx
  409441:	push   DWORD PTR [ebp+0x8]
  409444:	call   0x409201
  409449:	pop    ecx
  40944a:	pop    ecx
  40944b:	mov    DWORD PTR [ebp-0x20],eax
  40944e:	test   eax,eax
  409450:	jne    0x409552
  409456:	mov    esi,DWORD PTR [ebp-0x24]
  409459:	push   DWORD PTR [esi+0x68]
  40945c:	call   DWORD PTR ds:0x4194a8
  409462:	test   eax,eax
  409464:	jne    0x409477
  409466:	mov    eax,DWORD PTR [esi+0x68]
  409469:	cmp    eax,0x4234c8
  40946e:	je     0x409477
  409470:	push   eax
  409471:	call   0x40f63e
  409476:	pop    ecx
  409477:	mov    DWORD PTR [esi+0x68],ebx
  40947a:	push   ebx
  40947b:	mov    edi,DWORD PTR ds:0x4194a4
  409481:	call   edi
  409483:	test   BYTE PTR [esi+0x70],0x2
  409487:	jne    0x409577
  40948d:	test   BYTE PTR ds:0x4239ec,0x1
  409494:	jne    0x409577
  40949a:	push   0xd
  40949c:	call   0x40f60b
  4094a1:	pop    ecx
  4094a2:	and    DWORD PTR [ebp-0x4],0x0
  4094a6:	mov    eax,DWORD PTR [ebx+0x4]
  4094a9:	mov    ds:0x43bfd8,eax
  4094ae:	mov    eax,DWORD PTR [ebx+0x8]
  4094b1:	mov    ds:0x43bfdc,eax
  4094b6:	mov    eax,DWORD PTR [ebx+0xc]
  4094b9:	mov    ds:0x43bfe0,eax
  4094be:	xor    eax,eax
  4094c0:	mov    DWORD PTR [ebp-0x1c],eax
  4094c3:	cmp    eax,0x5
  4094c6:	jge    0x4094d8
  4094c8:	mov    cx,WORD PTR [ebx+eax*2+0x10]
  4094cd:	mov    WORD PTR [eax*2+0x43bfcc],cx
  4094d5:	inc    eax
  4094d6:	jmp    0x4094c0
  4094d8:	xor    eax,eax
  4094da:	mov    DWORD PTR [ebp-0x1c],eax
  4094dd:	cmp    eax,0x101
  4094e2:	jge    0x4094f1
  4094e4:	mov    cl,BYTE PTR [eax+ebx*1+0x1c]
  4094e8:	mov    BYTE PTR [eax+0x4236e8],cl
  4094ee:	inc    eax
  4094ef:	jmp    0x4094da
  4094f1:	xor    eax,eax
  4094f3:	mov    DWORD PTR [ebp-0x1c],eax
  4094f6:	cmp    eax,0x100
  4094fb:	jge    0x40950d
  4094fd:	mov    cl,BYTE PTR [eax+ebx*1+0x11d]
  409504:	mov    BYTE PTR [eax+0x4237f0],cl
  40950a:	inc    eax
  40950b:	jmp    0x4094f3
  40950d:	push   DWORD PTR ds:0x4238f0
  409513:	call   DWORD PTR ds:0x4194a8
  409519:	test   eax,eax
  40951b:	jne    0x409530
  40951d:	mov    eax,ds:0x4238f0
  409522:	cmp    eax,0x4234c8
  409527:	je     0x409530
  409529:	push   eax
  40952a:	call   0x40f63e
  40952f:	pop    ecx
  409530:	mov    DWORD PTR ds:0x4238f0,ebx
  409536:	push   ebx
  409537:	call   edi
  409539:	mov    DWORD PTR [ebp-0x4],0xfffffffe
  409540:	call   0x409547
  409545:	jmp    0x409577
  409547:	push   0xd
  409549:	call   0x40f531
  40954e:	pop    ecx
  40954f:	ret    
  409550:	jmp    0x409577
  409552:	cmp    eax,0xffffffff
  409555:	jne    0x409577
  409557:	cmp    ebx,0x4234c8
  40955d:	je     0x409566
  40955f:	push   ebx
  409560:	call   0x40f63e
  409565:	pop    ecx
  409566:	call   0x4087a4
  40956b:	mov    DWORD PTR [eax],0x16
  409571:	jmp    0x409577
  409573:	and    DWORD PTR [ebp-0x20],0x0
  409577:	mov    eax,DWORD PTR [ebp-0x20]
  40957a:	call   0x40a8ad
  40957f:	ret    
  409580:	cmp    DWORD PTR ds:0x43cb4c,0x0
  409587:	jne    0x40959b
  409589:	push   0xfffffffd
  40958b:	call   0x4093e6
  409590:	pop    ecx
  409591:	mov    DWORD PTR ds:0x43cb4c,0x1
  40959b:	xor    eax,eax
  40959d:	ret    
  40959e:	mov    edi,edi
  4095a0:	push   ebp
  4095a1:	mov    ebp,esp
  4095a3:	push   ebx
  4095a4:	push   esi
  4095a5:	mov    esi,DWORD PTR [ebp+0x8]
  4095a8:	mov    eax,DWORD PTR [esi+0xbc]
  4095ae:	xor    ebx,ebx
  4095b0:	push   edi
  4095b1:	cmp    eax,ebx
  4095b3:	je     0x409624
  4095b5:	cmp    eax,0x424278
  4095ba:	je     0x409624
  4095bc:	mov    eax,DWORD PTR [esi+0xb0]
  4095c2:	cmp    eax,ebx
  4095c4:	je     0x409624
  4095c6:	cmp    DWORD PTR [eax],ebx
  4095c8:	jne    0x409624
  4095ca:	mov    eax,DWORD PTR [esi+0xb8]
  4095d0:	cmp    eax,ebx
  4095d2:	je     0x4095eb
  4095d4:	cmp    DWORD PTR [eax],ebx
  4095d6:	jne    0x4095eb
  4095d8:	push   eax
  4095d9:	call   0x40f63e
  4095de:	push   DWORD PTR [esi+0xbc]
  4095e4:	call   0x40feac
  4095e9:	pop    ecx
  4095ea:	pop    ecx
  4095eb:	mov    eax,DWORD PTR [esi+0xb4]
  4095f1:	cmp    eax,ebx
  4095f3:	je     0x40960c
  4095f5:	cmp    DWORD PTR [eax],ebx
  4095f7:	jne    0x40960c
  4095f9:	push   eax
  4095fa:	call   0x40f63e
  4095ff:	push   DWORD PTR [esi+0xbc]
  409605:	call   0x40fe67
  40960a:	pop    ecx
  40960b:	pop    ecx
  40960c:	push   DWORD PTR [esi+0xb0]
  409612:	call   0x40f63e
  409617:	push   DWORD PTR [esi+0xbc]
  40961d:	call   0x40f63e
  409622:	pop    ecx
  409623:	pop    ecx
  409624:	mov    eax,DWORD PTR [esi+0xc0]
  40962a:	cmp    eax,ebx
  40962c:	je     0x409672
  40962e:	cmp    DWORD PTR [eax],ebx
  409630:	jne    0x409672
  409632:	mov    eax,DWORD PTR [esi+0xc4]
  409638:	sub    eax,0xfe
  40963d:	push   eax
  40963e:	call   0x40f63e
  409643:	mov    eax,DWORD PTR [esi+0xcc]
  409649:	mov    edi,0x80
  40964e:	sub    eax,edi
  409650:	push   eax
  409651:	call   0x40f63e
  409656:	mov    eax,DWORD PTR [esi+0xd0]
  40965c:	sub    eax,edi
  40965e:	push   eax
  40965f:	call   0x40f63e
  409664:	push   DWORD PTR [esi+0xc0]
  40966a:	call   0x40f63e
  40966f:	add    esp,0x10
  409672:	lea    edi,[esi+0xd4]
  409678:	mov    eax,DWORD PTR [edi]
  40967a:	cmp    eax,0x4241b8
  40967f:	je     0x409698
  409681:	cmp    DWORD PTR [eax+0xb4],ebx
  409687:	jne    0x409698
  409689:	push   eax
  40968a:	call   0x40fcd2
  40968f:	push   DWORD PTR [edi]
  409691:	call   0x40f63e
  409696:	pop    ecx
  409697:	pop    ecx
  409698:	lea    edi,[esi+0x50]
  40969b:	mov    DWORD PTR [ebp+0x8],0x6
  4096a2:	cmp    DWORD PTR [edi-0x8],0x4239f0
  4096a9:	je     0x4096bc
  4096ab:	mov    eax,DWORD PTR [edi]
  4096ad:	cmp    eax,ebx
  4096af:	je     0x4096bc
  4096b1:	cmp    DWORD PTR [eax],ebx
  4096b3:	jne    0x4096bc
  4096b5:	push   eax
  4096b6:	call   0x40f63e
  4096bb:	pop    ecx
  4096bc:	cmp    DWORD PTR [edi-0x4],ebx
  4096bf:	je     0x4096d3
  4096c1:	mov    eax,DWORD PTR [edi+0x4]
  4096c4:	cmp    eax,ebx
  4096c6:	je     0x4096d3
  4096c8:	cmp    DWORD PTR [eax],ebx
  4096ca:	jne    0x4096d3
  4096cc:	push   eax
  4096cd:	call   0x40f63e
  4096d2:	pop    ecx
  4096d3:	add    edi,0x10
  4096d6:	dec    DWORD PTR [ebp+0x8]
  4096d9:	jne    0x4096a2
  4096db:	push   esi
  4096dc:	call   0x40f63e
  4096e1:	pop    ecx
  4096e2:	pop    edi
  4096e3:	pop    esi
  4096e4:	pop    ebx
  4096e5:	pop    ebp
  4096e6:	ret    
  4096e7:	mov    edi,edi
  4096e9:	push   ebp
  4096ea:	mov    ebp,esp
  4096ec:	push   ebx
  4096ed:	push   esi
  4096ee:	mov    esi,DWORD PTR ds:0x4194a4
  4096f4:	push   edi
  4096f5:	mov    edi,DWORD PTR [ebp+0x8]
  4096f8:	push   edi
  4096f9:	call   esi
  4096fb:	mov    eax,DWORD PTR [edi+0xb0]
  409701:	test   eax,eax
  409703:	je     0x409708
  409705:	push   eax
  409706:	call   esi
  409708:	mov    eax,DWORD PTR [edi+0xb8]
  40970e:	test   eax,eax
  409710:	je     0x409715
  409712:	push   eax
  409713:	call   esi
  409715:	mov    eax,DWORD PTR [edi+0xb4]
  40971b:	test   eax,eax
  40971d:	je     0x409722
  40971f:	push   eax
  409720:	call   esi
  409722:	mov    eax,DWORD PTR [edi+0xc0]
  409728:	test   eax,eax
  40972a:	je     0x40972f
  40972c:	push   eax
  40972d:	call   esi
  40972f:	lea    ebx,[edi+0x50]
  409732:	mov    DWORD PTR [ebp+0x8],0x6
  409739:	cmp    DWORD PTR [ebx-0x8],0x4239f0
  409740:	je     0x40974b
  409742:	mov    eax,DWORD PTR [ebx]
  409744:	test   eax,eax
  409746:	je     0x40974b
  409748:	push   eax
  409749:	call   esi
  40974b:	cmp    DWORD PTR [ebx-0x4],0x0
  40974f:	je     0x40975b
  409751:	mov    eax,DWORD PTR [ebx+0x4]
  409754:	test   eax,eax
  409756:	je     0x40975b
  409758:	push   eax
  409759:	call   esi
  40975b:	add    ebx,0x10
  40975e:	dec    DWORD PTR [ebp+0x8]
  409761:	jne    0x409739
  409763:	mov    eax,DWORD PTR [edi+0xd4]
  409769:	add    eax,0xb4
  40976e:	push   eax
  40976f:	call   esi
  409771:	pop    edi
  409772:	pop    esi
  409773:	pop    ebx
  409774:	pop    ebp
  409775:	ret    
  409776:	mov    edi,edi
  409778:	push   ebp
  409779:	mov    ebp,esp
  40977b:	push   edi
  40977c:	mov    edi,DWORD PTR [ebp+0x8]
  40977f:	test   edi,edi
  409781:	je     0x40980a
  409787:	push   ebx
  409788:	push   esi
  409789:	mov    esi,DWORD PTR ds:0x4194a8
  40978f:	push   edi
  409790:	call   esi
  409792:	mov    eax,DWORD PTR [edi+0xb0]
  409798:	test   eax,eax
  40979a:	je     0x40979f
  40979c:	push   eax
  40979d:	call   esi
  40979f:	mov    eax,DWORD PTR [edi+0xb8]
  4097a5:	test   eax,eax
  4097a7:	je     0x4097ac
  4097a9:	push   eax
  4097aa:	call   esi
  4097ac:	mov    eax,DWORD PTR [edi+0xb4]
  4097b2:	test   eax,eax
  4097b4:	je     0x4097b9
  4097b6:	push   eax
  4097b7:	call   esi
  4097b9:	mov    eax,DWORD PTR [edi+0xc0]
  4097bf:	test   eax,eax
  4097c1:	je     0x4097c6
  4097c3:	push   eax
  4097c4:	call   esi
  4097c6:	lea    ebx,[edi+0x50]
  4097c9:	mov    DWORD PTR [ebp+0x8],0x6
  4097d0:	cmp    DWORD PTR [ebx-0x8],0x4239f0
  4097d7:	je     0x4097e2
  4097d9:	mov    eax,DWORD PTR [ebx]
  4097db:	test   eax,eax
  4097dd:	je     0x4097e2
  4097df:	push   eax
  4097e0:	call   esi
  4097e2:	cmp    DWORD PTR [ebx-0x4],0x0
  4097e6:	je     0x4097f2
  4097e8:	mov    eax,DWORD PTR [ebx+0x4]
  4097eb:	test   eax,eax
  4097ed:	je     0x4097f2
  4097ef:	push   eax
  4097f0:	call   esi
  4097f2:	add    ebx,0x10
  4097f5:	dec    DWORD PTR [ebp+0x8]
  4097f8:	jne    0x4097d0
  4097fa:	mov    eax,DWORD PTR [edi+0xd4]
  409800:	add    eax,0xb4
  409805:	push   eax
  409806:	call   esi
  409808:	pop    esi
  409809:	pop    ebx
  40980a:	mov    eax,edi
  40980c:	pop    edi
  40980d:	pop    ebp
  40980e:	ret    
  40980f:	test   edi,edi
  409811:	je     0x40984a
  409813:	test   eax,eax
  409815:	je     0x40984a
  409817:	push   esi
  409818:	mov    esi,DWORD PTR [eax]
  40981a:	cmp    esi,edi
  40981c:	je     0x409846
  40981e:	push   edi
  40981f:	mov    DWORD PTR [eax],edi
  409821:	call   0x4096e7
  409826:	pop    ecx
  409827:	test   esi,esi
  409829:	je     0x409846
  40982b:	push   esi
  40982c:	call   0x409776
  409831:	cmp    DWORD PTR [esi],0x0
  409834:	pop    ecx
  409835:	jne    0x409846
  409837:	cmp    esi,0x4239f8
  40983d:	je     0x409846
  40983f:	push   esi
  409840:	call   0x40959e
  409845:	pop    ecx
  409846:	mov    eax,edi
  409848:	pop    esi
  409849:	ret    
  40984a:	xor    eax,eax
  40984c:	ret    
  40984d:	push   0xc
  40984f:	push   0x41eea8
  409854:	call   0x40a868
  409859:	call   0x408be5
  40985e:	mov    esi,eax
  409860:	mov    eax,ds:0x4239ec
  409865:	test   DWORD PTR [esi+0x70],eax
  409868:	je     0x40988c
  40986a:	cmp    DWORD PTR [esi+0x6c],0x0
  40986e:	je     0x40988c
  409870:	call   0x408be5
  409875:	mov    esi,DWORD PTR [eax+0x6c]
  409878:	test   esi,esi
  40987a:	jne    0x409884
  40987c:	push   0x20
  40987e:	call   0x40cf78
  409883:	pop    ecx
  409884:	mov    eax,esi
  409886:	call   0x40a8ad
  40988b:	ret    
  40988c:	push   0xc
  40988e:	call   0x40f60b
  409893:	pop    ecx
  409894:	and    DWORD PTR [ebp-0x4],0x0
  409898:	lea    eax,[esi+0x6c]
  40989b:	mov    edi,DWORD PTR ds:0x423ad0
  4098a1:	call   0x40980f
  4098a6:	mov    DWORD PTR [ebp-0x1c],eax
  4098a9:	mov    DWORD PTR [ebp-0x4],0xfffffffe
  4098b0:	call   0x4098b7
  4098b5:	jmp    0x409878
  4098b7:	push   0xc
  4098b9:	call   0x40f531
  4098be:	pop    ecx
  4098bf:	mov    esi,DWORD PTR [ebp-0x1c]
  4098c2:	ret    
  4098c3:	mov    edi,edi
  4098c5:	push   ebp
  4098c6:	mov    ebp,esp
  4098c8:	sub    esp,0x10
  4098cb:	push   DWORD PTR [ebp+0x8]
  4098ce:	lea    ecx,[ebp-0x10]
  4098d1:	call   0x4046f4
  4098d6:	mov    eax,DWORD PTR [ebp+0x18]
  4098d9:	test   eax,eax
  4098db:	jle    0x4098f5
  4098dd:	mov    ecx,DWORD PTR [ebp+0x14]
  4098e0:	mov    edx,eax
  4098e2:	dec    edx
  4098e3:	cmp    WORD PTR [ecx],0x0
  4098e7:	je     0x4098f2
  4098e9:	inc    ecx
  4098ea:	inc    ecx
  4098eb:	test   edx,edx
  4098ed:	jne    0x4098e2
  4098ef:	or     edx,0xffffffff
  4098f2:	sub    eax,edx
  4098f4:	dec    eax
  4098f5:	push   DWORD PTR [ebp+0x20]
  4098f8:	push   DWORD PTR [ebp+0x1c]
  4098fb:	push   eax
  4098fc:	push   DWORD PTR [ebp+0x14]
  4098ff:	push   DWORD PTR [ebp+0x10]
  409902:	push   DWORD PTR [ebp+0xc]
  409905:	call   DWORD PTR ds:0x4194b4
  40990b:	cmp    BYTE PTR [ebp-0x4],0x0
  40990f:	je     0x409918
  409911:	mov    ecx,DWORD PTR [ebp-0x8]
  409914:	and    DWORD PTR [ecx+0x70],0xfffffffd
  409918:	leave  
  409919:	ret    
  40991a:	mov    edi,edi
  40991c:	push   ebp
  40991d:	mov    ebp,esp
  40991f:	mov    eax,0xffff
  409924:	sub    esp,0x14
  409927:	cmp    WORD PTR [ebp+0x8],ax
  40992b:	jne    0x409933
  40992d:	and    DWORD PTR [ebp-0x4],0x0
  409931:	jmp    0x409998
  409933:	mov    eax,0x100
  409938:	cmp    WORD PTR [ebp+0x8],ax
  40993c:	jae    0x409958
  40993e:	movzx  eax,WORD PTR [ebp+0x8]
  409942:	mov    ecx,DWORD PTR ds:0x4241b4
  409948:	mov    ax,WORD PTR [ecx+eax*2]
  40994c:	and    ax,WORD PTR [ebp+0xc]
  409950:	movzx  eax,ax
  409953:	mov    DWORD PTR [ebp-0x4],eax
  409956:	jmp    0x409998
  409958:	push   DWORD PTR [ebp+0x10]
  40995b:	lea    ecx,[ebp-0x14]
  40995e:	call   0x4046f4
  409963:	mov    eax,DWORD PTR [ebp-0x14]
  409966:	push   DWORD PTR [eax+0x14]
  409969:	push   DWORD PTR [eax+0x4]
  40996c:	lea    eax,[ebp-0x4]
  40996f:	push   eax
  409970:	push   0x1
  409972:	lea    eax,[ebp+0x8]
  409975:	push   eax
  409976:	lea    eax,[ebp-0x14]
  409979:	push   0x1
  40997b:	push   eax
  40997c:	call   0x4101b0
  409981:	add    esp,0x1c
  409984:	test   eax,eax
  409986:	jne    0x40998b
  409988:	and    DWORD PTR [ebp-0x4],eax
  40998b:	cmp    BYTE PTR [ebp-0x8],0x0
  40998f:	je     0x409998
  409991:	mov    eax,DWORD PTR [ebp-0xc]
  409994:	and    DWORD PTR [eax+0x70],0xfffffffd
  409998:	movzx  eax,WORD PTR [ebp-0x4]
  40999c:	movzx  ecx,WORD PTR [ebp+0xc]
  4099a0:	and    eax,ecx
  4099a2:	leave  
  4099a3:	ret    
  4099a4:	mov    eax,0x423ae0
  4099a9:	ret    
  4099aa:	mov    eax,ds:0x43db60
  4099af:	push   esi
  4099b0:	push   0x14
  4099b2:	pop    esi
  4099b3:	test   eax,eax
  4099b5:	jne    0x4099be
  4099b7:	mov    eax,0x200
  4099bc:	jmp    0x4099c4
  4099be:	cmp    eax,esi
  4099c0:	jge    0x4099c9
  4099c2:	mov    eax,esi
  4099c4:	mov    ds:0x43db60,eax
  4099c9:	push   0x4
  4099cb:	push   eax
  4099cc:	call   0x408832
  4099d1:	pop    ecx
  4099d2:	pop    ecx
  4099d3:	mov    ds:0x43cb5c,eax
  4099d8:	test   eax,eax
  4099da:	jne    0x4099fa
  4099dc:	push   0x4
  4099de:	push   esi
  4099df:	mov    DWORD PTR ds:0x43db60,esi
  4099e5:	call   0x408832
  4099ea:	pop    ecx
  4099eb:	pop    ecx
  4099ec:	mov    ds:0x43cb5c,eax
  4099f1:	test   eax,eax
  4099f3:	jne    0x4099fa
  4099f5:	push   0x1a
  4099f7:	pop    eax
  4099f8:	pop    esi
  4099f9:	ret    
  4099fa:	xor    edx,edx
  4099fc:	mov    ecx,0x423ae0
  409a01:	jmp    0x409a08
  409a03:	mov    eax,ds:0x43cb5c
  409a08:	mov    DWORD PTR [edx+eax*1],ecx
  409a0b:	add    ecx,0x20
  409a0e:	add    edx,0x4
  409a11:	cmp    ecx,0x423d60
  409a17:	jl     0x409a03
  409a19:	push   0xfffffffe
  409a1b:	pop    esi
  409a1c:	xor    edx,edx
  409a1e:	mov    ecx,0x423af0
  409a23:	push   edi
  409a24:	mov    eax,edx
  409a26:	sar    eax,0x5
  409a29:	mov    eax,DWORD PTR [eax*4+0x43ca40]
  409a30:	mov    edi,edx
  409a32:	and    edi,0x1f
  409a35:	shl    edi,0x6
  409a38:	mov    eax,DWORD PTR [edi+eax*1]
  409a3b:	cmp    eax,0xffffffff
  409a3e:	je     0x409a48
  409a40:	cmp    eax,esi
  409a42:	je     0x409a48
  409a44:	test   eax,eax
  409a46:	jne    0x409a4a
  409a48:	mov    DWORD PTR [ecx],esi
  409a4a:	add    ecx,0x20
  409a4d:	inc    edx
  409a4e:	cmp    ecx,0x423b50
  409a54:	jl     0x409a24
  409a56:	pop    edi
  409a57:	xor    eax,eax
  409a59:	pop    esi
  409a5a:	ret    
  409a5b:	call   0x410417
  409a60:	cmp    BYTE PTR ds:0x43c110,0x0
  409a67:	je     0x409a6e
  409a69:	call   0x4101ee
  409a6e:	push   DWORD PTR ds:0x43cb5c
  409a74:	call   0x40f63e
  409a79:	pop    ecx
  409a7a:	ret    
  409a7b:	mov    edi,edi
  409a7d:	push   ebp
  409a7e:	mov    ebp,esp
  409a80:	push   esi
  409a81:	mov    esi,DWORD PTR [ebp+0x8]
  409a84:	mov    eax,0x423ae0
  409a89:	cmp    esi,eax
  409a8b:	jb     0x409aaf
  409a8d:	cmp    esi,0x423d40
  409a93:	ja     0x409aaf
  409a95:	mov    ecx,esi
  409a97:	sub    ecx,eax
  409a99:	sar    ecx,0x5
  409a9c:	add    ecx,0x10
  409a9f:	push   ecx
  409aa0:	call   0x40f60b
  409aa5:	or     DWORD PTR [esi+0xc],0x8000
  409aac:	pop    ecx
  409aad:	jmp    0x409ab9
  409aaf:	add    esi,0x20
  409ab2:	push   esi
  409ab3:	call   DWORD PTR ds:0x4192a0
  409ab9:	pop    esi
  409aba:	pop    ebp
  409abb:	ret    
  409abc:	mov    edi,edi
  409abe:	push   ebp
  409abf:	mov    ebp,esp
  409ac1:	mov    eax,DWORD PTR [ebp+0x8]
  409ac4:	cmp    eax,0x14
  409ac7:	jge    0x409adf
  409ac9:	add    eax,0x10
  409acc:	push   eax
  409acd:	call   0x40f60b
  409ad2:	mov    eax,DWORD PTR [ebp+0xc]
  409ad5:	or     DWORD PTR [eax+0xc],0x8000
  409adc:	pop    ecx
  409add:	pop    ebp
  409ade:	ret    
  409adf:	mov    eax,DWORD PTR [ebp+0xc]
  409ae2:	add    eax,0x20
  409ae5:	push   eax
  409ae6:	call   DWORD PTR ds:0x4192a0
  409aec:	pop    ebp
  409aed:	ret    
  409aee:	mov    edi,edi
  409af0:	push   ebp
  409af1:	mov    ebp,esp
  409af3:	mov    eax,DWORD PTR [ebp+0x8]
  409af6:	mov    ecx,0x423ae0
  409afb:	cmp    eax,ecx
  409afd:	jb     0x409b1e
  409aff:	cmp    eax,0x423d40
  409b04:	ja     0x409b1e
  409b06:	and    DWORD PTR [eax+0xc],0xffff7fff
  409b0d:	sub    eax,ecx
  409b0f:	sar    eax,0x5
  409b12:	add    eax,0x10
  409b15:	push   eax
  409b16:	call   0x40f531
  409b1b:	pop    ecx
  409b1c:	pop    ebp
  409b1d:	ret    
  409b1e:	add    eax,0x20
  409b21:	push   eax
  409b22:	call   DWORD PTR ds:0x4192bc
  409b28:	pop    ebp
  409b29:	ret    
  409b2a:	mov    edi,edi
  409b2c:	push   ebp
  409b2d:	mov    ebp,esp
  409b2f:	mov    ecx,DWORD PTR [ebp+0x8]
  409b32:	cmp    ecx,0x14
  409b35:	mov    eax,DWORD PTR [ebp+0xc]
  409b38:	jge    0x409b4d
  409b3a:	and    DWORD PTR [eax+0xc],0xffff7fff
  409b41:	add    ecx,0x10
  409b44:	push   ecx
  409b45:	call   0x40f531
  409b4a:	pop    ecx
  409b4b:	pop    ebp
  409b4c:	ret    
  409b4d:	add    eax,0x20
  409b50:	push   eax
  409b51:	call   DWORD PTR ds:0x4192bc
  409b57:	pop    ebp
  409b58:	ret    
  409b59:	mov    edi,edi
  409b5b:	push   ebp
  409b5c:	mov    ebp,esp
  409b5e:	push   esi
  409b5f:	mov    esi,DWORD PTR [ebp+0x8]
  409b62:	push   esi
  409b63:	call   0x410484
  409b68:	push   eax
  409b69:	call   0x410420
  409b6e:	pop    ecx
  409b6f:	pop    ecx
  409b70:	test   eax,eax
  409b72:	je     0x409bf0
  409b74:	call   0x4099a4
  409b79:	add    eax,0x20
  409b7c:	cmp    esi,eax
  409b7e:	jne    0x409b84
  409b80:	xor    eax,eax
  409b82:	jmp    0x409b93
  409b84:	call   0x4099a4
  409b89:	add    eax,0x40
  409b8c:	cmp    esi,eax
  409b8e:	jne    0x409bf0
  409b90:	xor    eax,eax
  409b92:	inc    eax
  409b93:	inc    DWORD PTR ds:0x43c008
  409b99:	test   DWORD PTR [esi+0xc],0x10c
  409ba0:	jne    0x409bf0
  409ba2:	push   ebx
  409ba3:	push   edi
  409ba4:	lea    edi,[eax*4+0x43c00c]
  409bab:	cmp    DWORD PTR [edi],0x0
  409bae:	mov    ebx,0x1000
  409bb3:	jne    0x409bd5
  409bb5:	push   ebx
  409bb6:	call   0x4087ed
  409bbb:	pop    ecx
  409bbc:	mov    DWORD PTR [edi],eax
  409bbe:	test   eax,eax
  409bc0:	jne    0x409bd5
  409bc2:	lea    eax,[esi+0x14]
  409bc5:	push   0x2
  409bc7:	mov    DWORD PTR [esi+0x8],eax
  409bca:	mov    DWORD PTR [esi],eax
  409bcc:	pop    eax
  409bcd:	mov    DWORD PTR [esi+0x18],eax
  409bd0:	mov    DWORD PTR [esi+0x4],eax
  409bd3:	jmp    0x409be2
  409bd5:	mov    edi,DWORD PTR [edi]
  409bd7:	mov    DWORD PTR [esi+0x8],edi
  409bda:	mov    DWORD PTR [esi],edi
  409bdc:	mov    DWORD PTR [esi+0x18],ebx
  409bdf:	mov    DWORD PTR [esi+0x4],ebx
  409be2:	or     DWORD PTR [esi+0xc],0x1102
  409be9:	xor    eax,eax
  409beb:	pop    edi
  409bec:	inc    eax
  409bed:	pop    ebx
  409bee:	jmp    0x409bf2
  409bf0:	xor    eax,eax
  409bf2:	pop    esi
  409bf3:	pop    ebp
  409bf4:	ret    
  409bf5:	mov    edi,edi
  409bf7:	push   ebp
  409bf8:	mov    ebp,esp
  409bfa:	cmp    DWORD PTR [ebp+0x8],0x0
  409bfe:	je     0x409c27
  409c00:	push   esi
  409c01:	mov    esi,DWORD PTR [ebp+0xc]
  409c04:	test   DWORD PTR [esi+0xc],0x1000
  409c0b:	je     0x409c26
  409c0d:	push   esi
  409c0e:	call   0x41028d
  409c13:	and    DWORD PTR [esi+0xc],0xffffeeff
  409c1a:	and    DWORD PTR [esi+0x18],0x0
  409c1e:	and    DWORD PTR [esi],0x0
  409c21:	and    DWORD PTR [esi+0x8],0x0
  409c25:	pop    ecx
  409c26:	pop    esi
  409c27:	pop    ebp
  409c28:	ret    
  409c29:	test   BYTE PTR [ecx+0xc],0x40
  409c2d:	je     0x409c35
  409c2f:	cmp    DWORD PTR [ecx+0x8],0x0
  409c33:	je     0x409c59
  409c35:	dec    DWORD PTR [ecx+0x4]
  409c38:	js     0x409c45
  409c3a:	mov    edx,DWORD PTR [ecx]
  409c3c:	mov    BYTE PTR [edx],al
  409c3e:	inc    DWORD PTR [ecx]
  409c40:	movzx  eax,al
  409c43:	jmp    0x409c51
  409c45:	movsx  eax,al
  409c48:	push   ecx
  409c49:	push   eax
  409c4a:	call   0x4104b6
  409c4f:	pop    ecx
  409c50:	pop    ecx
  409c51:	cmp    eax,0xffffffff
  409c54:	jne    0x409c59
  409c56:	or     DWORD PTR [esi],eax
  409c58:	ret    
  409c59:	inc    DWORD PTR [esi]
  409c5b:	ret    
  409c5c:	mov    edi,edi
  409c5e:	push   ebp
  409c5f:	mov    ebp,esp
  409c61:	push   esi
  409c62:	mov    esi,eax
  409c64:	jmp    0x409c79
  409c66:	mov    ecx,DWORD PTR [ebp+0x10]
  409c69:	mov    al,BYTE PTR [ebp+0x8]
  409c6c:	dec    DWORD PTR [ebp+0xc]
  409c6f:	call   0x409c29
  409c74:	cmp    DWORD PTR [esi],0xffffffff
  409c77:	je     0x409c7f
  409c79:	cmp    DWORD PTR [ebp+0xc],0x0
  409c7d:	jg     0x409c66
  409c7f:	pop    esi
  409c80:	pop    ebp
  409c81:	ret    
  409c82:	mov    edi,edi
  409c84:	push   ebp
  409c85:	mov    ebp,esp
  409c87:	test   BYTE PTR [edi+0xc],0x40
  409c8b:	push   ebx
  409c8c:	push   esi
  409c8d:	mov    esi,eax
  409c8f:	mov    ebx,ecx
  409c91:	je     0x409cc5
  409c93:	cmp    DWORD PTR [edi+0x8],0x0
  409c97:	jne    0x409cc5
  409c99:	mov    eax,DWORD PTR [ebp+0x8]
  409c9c:	add    DWORD PTR [esi],eax
  409c9e:	jmp    0x409ccb
  409ca0:	mov    al,BYTE PTR [ebx]
  409ca2:	dec    DWORD PTR [ebp+0x8]
  409ca5:	mov    ecx,edi
  409ca7:	call   0x409c29
  409cac:	inc    ebx
  409cad:	cmp    DWORD PTR [esi],0xffffffff
  409cb0:	jne    0x409cc5
  409cb2:	call   0x4087a4
  409cb7:	cmp    DWORD PTR [eax],0x2a
  409cba:	jne    0x409ccb
  409cbc:	mov    ecx,edi
  409cbe:	mov    al,0x3f
  409cc0:	call   0x409c29
  409cc5:	cmp    DWORD PTR [ebp+0x8],0x0
  409cc9:	jg     0x409ca0
  409ccb:	pop    esi
  409ccc:	pop    ebx
  409ccd:	pop    ebp
  409cce:	ret    
  409ccf:	mov    edi,edi
  409cd1:	push   ebp
  409cd2:	mov    ebp,esp
  409cd4:	sub    esp,0x278
  409cda:	mov    eax,ds:0x423d68
  409cdf:	xor    eax,ebp
  409ce1:	mov    DWORD PTR [ebp-0x4],eax
  409ce4:	push   ebx
  409ce5:	mov    ebx,DWORD PTR [ebp+0xc]
  409ce8:	push   esi
  409ce9:	mov    esi,DWORD PTR [ebp+0x8]
  409cec:	xor    eax,eax
  409cee:	push   edi
  409cef:	mov    edi,DWORD PTR [ebp+0x14]
  409cf2:	push   DWORD PTR [ebp+0x10]
  409cf5:	lea    ecx,[ebp-0x25c]
  409cfb:	mov    DWORD PTR [ebp-0x24c],esi
  409d01:	mov    DWORD PTR [ebp-0x224],edi
  409d07:	mov    DWORD PTR [ebp-0x248],eax
  409d0d:	mov    DWORD PTR [ebp-0x210],eax
  409d13:	mov    DWORD PTR [ebp-0x234],eax
  409d19:	mov    DWORD PTR [ebp-0x218],eax
  409d1f:	mov    DWORD PTR [ebp-0x230],eax
  409d25:	mov    DWORD PTR [ebp-0x240],eax
  409d2b:	mov    DWORD PTR [ebp-0x238],eax
  409d31:	call   0x4046f4
  409d36:	test   esi,esi
  409d38:	jne    0x409d6f
  409d3a:	call   0x4087a4
  409d3f:	mov    DWORD PTR [eax],0x16
  409d45:	xor    eax,eax
  409d47:	push   eax
  409d48:	push   eax
  409d49:	push   eax
  409d4a:	push   eax
  409d4b:	push   eax
  409d4c:	call   0x40873c
  409d51:	add    esp,0x14
  409d54:	cmp    BYTE PTR [ebp-0x250],0x0
  409d5b:	je     0x409d67
  409d5d:	mov    eax,DWORD PTR [ebp-0x254]
  409d63:	and    DWORD PTR [eax+0x70],0xfffffffd
  409d67:	or     eax,0xffffffff
  409d6a:	jmp    0x40a837
  409d6f:	test   BYTE PTR [esi+0xc],0x40
  409d73:	jne    0x409dd3
  409d75:	push   esi
  409d76:	call   0x410484
  409d7b:	pop    ecx
  409d7c:	mov    edx,0x423eb0
  409d81:	cmp    eax,0xffffffff
  409d84:	je     0x409da1
  409d86:	cmp    eax,0xfffffffe
  409d89:	je     0x409da1
  409d8b:	mov    ecx,eax
  409d8d:	and    ecx,0x1f
  409d90:	mov    esi,eax
  409d92:	sar    esi,0x5
  409d95:	shl    ecx,0x6
  409d98:	add    ecx,DWORD PTR [esi*4+0x43ca40]
  409d9f:	jmp    0x409da3
  409da1:	mov    ecx,edx
  409da3:	test   BYTE PTR [ecx+0x24],0x7f
  409da7:	jne    0x409d3a
  409da9:	cmp    eax,0xffffffff
  409dac:	je     0x409dc7
  409dae:	cmp    eax,0xfffffffe
  409db1:	je     0x409dc7
  409db3:	mov    ecx,eax
  409db5:	and    eax,0x1f
  409db8:	sar    ecx,0x5
  409dbb:	shl    eax,0x6
  409dbe:	add    eax,DWORD PTR [ecx*4+0x43ca40]
  409dc5:	jmp    0x409dc9
  409dc7:	mov    eax,edx
  409dc9:	test   BYTE PTR [eax+0x24],0x80
  409dcd:	jne    0x409d3a
  409dd3:	xor    ecx,ecx
  409dd5:	cmp    ebx,ecx
  409dd7:	je     0x409d3a
  409ddd:	mov    dl,BYTE PTR [ebx]
  409ddf:	mov    DWORD PTR [ebp-0x228],ecx
  409de5:	mov    DWORD PTR [ebp-0x220],ecx
  409deb:	mov    DWORD PTR [ebp-0x244],ecx
  409df1:	mov    BYTE PTR [ebp-0x211],dl
  409df7:	test   dl,dl
  409df9:	je     0x40a81e
  409dff:	inc    ebx
  409e00:	cmp    DWORD PTR [ebp-0x228],0x0
  409e07:	mov    DWORD PTR [ebp-0x23c],ebx
  409e0d:	jl     0x40a81e
  409e13:	mov    al,dl
  409e15:	sub    al,0x20
  409e17:	cmp    al,0x58
  409e19:	ja     0x409e2c
  409e1b:	movsx  eax,dl
  409e1e:	movsx  eax,BYTE PTR [eax+0x41d570]
  409e25:	and    eax,0xf
  409e28:	xor    esi,esi
  409e2a:	jmp    0x409e30
  409e2c:	xor    esi,esi
  409e2e:	xor    eax,eax
  409e30:	movsx  eax,BYTE PTR [ecx+eax*8+0x41d590]
  409e38:	push   0x7
  409e3a:	sar    eax,0x4
  409e3d:	pop    ecx
  409e3e:	mov    DWORD PTR [ebp-0x26c],eax
  409e44:	cmp    eax,ecx
  409e46:	ja     0x40a7f9
  409e4c:	jmp    DWORD PTR [eax*4+0x40a847]
  409e53:	or     DWORD PTR [ebp-0x218],0xffffffff
  409e5a:	mov    DWORD PTR [ebp-0x270],esi
  409e60:	mov    DWORD PTR [ebp-0x240],esi
  409e66:	mov    DWORD PTR [ebp-0x234],esi
  409e6c:	mov    DWORD PTR [ebp-0x230],esi
  409e72:	mov    DWORD PTR [ebp-0x210],esi
  409e78:	mov    DWORD PTR [ebp-0x238],esi
  409e7e:	jmp    0x40a7f9
  409e83:	movsx  eax,dl
  409e86:	sub    eax,0x20
  409e89:	je     0x409ed5
  409e8b:	sub    eax,0x3
  409e8e:	je     0x409ec6
  409e90:	sub    eax,0x8
  409e93:	je     0x409eba
  409e95:	dec    eax
  409e96:	dec    eax
  409e97:	je     0x409eae
  409e99:	sub    eax,0x3
  409e9c:	jne    0x40a7f9
  409ea2:	or     DWORD PTR [ebp-0x210],0x8
  409ea9:	jmp    0x40a7f9
  409eae:	or     DWORD PTR [ebp-0x210],0x4
  409eb5:	jmp    0x40a7f9
  409eba:	or     DWORD PTR [ebp-0x210],0x1
  409ec1:	jmp    0x40a7f9
  409ec6:	or     DWORD PTR [ebp-0x210],0x80
  409ed0:	jmp    0x40a7f9
  409ed5:	or     DWORD PTR [ebp-0x210],0x2
  409edc:	jmp    0x40a7f9
  409ee1:	cmp    dl,0x2a
  409ee4:	jne    0x409f12
  409ee6:	add    edi,0x4
  409ee9:	mov    DWORD PTR [ebp-0x224],edi
  409eef:	mov    edi,DWORD PTR [edi-0x4]
  409ef2:	cmp    edi,esi
  409ef4:	mov    DWORD PTR [ebp-0x234],edi
  409efa:	jge    0x40a7f9
  409f00:	or     DWORD PTR [ebp-0x210],0x4
  409f07:	neg    DWORD PTR [ebp-0x234]
  409f0d:	jmp    0x40a7f9
  409f12:	mov    eax,DWORD PTR [ebp-0x234]
  409f18:	imul   eax,eax,0xa
  409f1b:	movsx  ecx,dl
  409f1e:	lea    eax,[eax+ecx*1-0x30]
  409f22:	mov    DWORD PTR [ebp-0x234],eax
  409f28:	jmp    0x40a7f9
  409f2d:	mov    DWORD PTR [ebp-0x218],esi
  409f33:	jmp    0x40a7f9
  409f38:	cmp    dl,0x2a
  409f3b:	jne    0x409f63
  409f3d:	add    edi,0x4
  409f40:	mov    DWORD PTR [ebp-0x224],edi
  409f46:	mov    edi,DWORD PTR [edi-0x4]
  409f49:	cmp    edi,esi
  409f4b:	mov    DWORD PTR [ebp-0x218],edi
  409f51:	jge    0x40a7f9
  409f57:	or     DWORD PTR [ebp-0x218],0xffffffff
  409f5e:	jmp    0x40a7f9
  409f63:	mov    eax,DWORD PTR [ebp-0x218]
  409f69:	imul   eax,eax,0xa
  409f6c:	movsx  ecx,dl
  409f6f:	lea    eax,[eax+ecx*1-0x30]
  409f73:	mov    DWORD PTR [ebp-0x218],eax
  409f79:	jmp    0x40a7f9
  409f7e:	cmp    dl,0x49
  409f81:	je     0x409fd8
  409f83:	cmp    dl,0x68
  409f86:	je     0x409fcc
  409f88:	cmp    dl,0x6c
  409f8b:	je     0x409fa5
  409f8d:	cmp    dl,0x77
  409f90:	jne    0x40a7f9
  409f96:	or     DWORD PTR [ebp-0x210],0x800
  409fa0:	jmp    0x40a7f9
  409fa5:	cmp    BYTE PTR [ebx],0x6c
  409fa8:	jne    0x409fc0
  409faa:	inc    ebx
  409fab:	or     DWORD PTR [ebp-0x210],0x1000
  409fb5:	mov    DWORD PTR [ebp-0x23c],ebx
  409fbb:	jmp    0x40a7f9
  409fc0:	or     DWORD PTR [ebp-0x210],0x10
  409fc7:	jmp    0x40a7f9
  409fcc:	or     DWORD PTR [ebp-0x210],0x20
  409fd3:	jmp    0x40a7f9
  409fd8:	mov    al,BYTE PTR [ebx]
  409fda:	cmp    al,0x36
  409fdc:	jne    0x409ffb
  409fde:	cmp    BYTE PTR [ebx+0x1],0x34
  409fe2:	jne    0x409ffb
  409fe4:	inc    ebx
  409fe5:	inc    ebx
  409fe6:	or     DWORD PTR [ebp-0x210],0x8000
  409ff0:	mov    DWORD PTR [ebp-0x23c],ebx
  409ff6:	jmp    0x40a7f9
  409ffb:	cmp    al,0x33
  409ffd:	jne    0x40a01c
  409fff:	cmp    BYTE PTR [ebx+0x1],0x32
  40a003:	jne    0x40a01c
  40a005:	inc    ebx
  40a006:	inc    ebx
  40a007:	and    DWORD PTR [ebp-0x210],0xffff7fff
  40a011:	mov    DWORD PTR [ebp-0x23c],ebx
  40a017:	jmp    0x40a7f9
  40a01c:	cmp    al,0x64
  40a01e:	je     0x40a7f9
  40a024:	cmp    al,0x69
  40a026:	je     0x40a7f9
  40a02c:	cmp    al,0x6f
  40a02e:	je     0x40a7f9
  40a034:	cmp    al,0x75
  40a036:	je     0x40a7f9
  40a03c:	cmp    al,0x78
  40a03e:	je     0x40a7f9
  40a044:	cmp    al,0x58
  40a046:	je     0x40a7f9
  40a04c:	mov    DWORD PTR [ebp-0x26c],esi
  40a052:	lea    eax,[ebp-0x25c]
  40a058:	push   eax
  40a059:	movzx  eax,dl
  40a05c:	push   eax
  40a05d:	mov    DWORD PTR [ebp-0x238],esi
  40a063:	call   0x4107a3
  40a068:	pop    ecx
  40a069:	test   eax,eax
  40a06b:	mov    al,BYTE PTR [ebp-0x211]
  40a071:	pop    ecx
  40a072:	je     0x40a096
  40a074:	mov    ecx,DWORD PTR [ebp-0x24c]
  40a07a:	lea    esi,[ebp-0x228]
  40a080:	call   0x409c29
  40a085:	mov    al,BYTE PTR [ebx]
  40a087:	inc    ebx
  40a088:	mov    DWORD PTR [ebp-0x23c],ebx
  40a08e:	test   al,al
  40a090:	je     0x409d3a
  40a096:	mov    ecx,DWORD PTR [ebp-0x24c]
  40a09c:	lea    esi,[ebp-0x228]
  40a0a2:	call   0x409c29
  40a0a7:	jmp    0x40a7f9
  40a0ac:	movsx  eax,dl
  40a0af:	cmp    eax,0x64
  40a0b2:	jg     0x40a2a0
  40a0b8:	je     0x40a337
  40a0be:	cmp    eax,0x53
  40a0c1:	jg     0x40a1b9
  40a0c7:	je     0x40a14d
  40a0cd:	sub    eax,0x41
  40a0d0:	je     0x40a0e2
  40a0d2:	dec    eax
  40a0d3:	dec    eax
  40a0d4:	je     0x40a12e
  40a0d6:	dec    eax
  40a0d7:	dec    eax
  40a0d8:	je     0x40a0e2
  40a0da:	dec    eax
  40a0db:	dec    eax
  40a0dc:	jne    0x40a674
  40a0e2:	add    dl,0x20
  40a0e5:	mov    DWORD PTR [ebp-0x270],0x1
  40a0ef:	mov    BYTE PTR [ebp-0x211],dl
  40a0f5:	or     DWORD PTR [ebp-0x210],0x40
  40a0fc:	cmp    DWORD PTR [ebp-0x218],esi
  40a102:	lea    ebx,[ebp-0x20c]
  40a108:	mov    eax,0x200
  40a10d:	mov    DWORD PTR [ebp-0x21c],ebx
  40a113:	mov    DWORD PTR [ebp-0x260],eax
  40a119:	jge    0x40a367
  40a11f:	mov    DWORD PTR [ebp-0x218],0x6
  40a129:	jmp    0x40a3d3
  40a12e:	test   DWORD PTR [ebp-0x210],0x830
  40a138:	jne    0x40a1d6
  40a13e:	or     DWORD PTR [ebp-0x210],0x800
  40a148:	jmp    0x40a1d6
  40a14d:	test   DWORD PTR [ebp-0x210],0x830
  40a157:	jne    0x40a163
  40a159:	or     DWORD PTR [ebp-0x210],0x800
  40a163:	mov    ecx,DWORD PTR [ebp-0x218]
  40a169:	cmp    ecx,0xffffffff
  40a16c:	jne    0x40a173
  40a16e:	mov    ecx,0x7fffffff
  40a173:	add    edi,0x4
  40a176:	test   DWORD PTR [ebp-0x210],0x810
  40a180:	mov    DWORD PTR [ebp-0x224],edi
  40a186:	mov    edi,DWORD PTR [edi-0x4]
  40a189:	mov    DWORD PTR [ebp-0x21c],edi
  40a18f:	je     0x40a646
  40a195:	cmp    edi,esi
  40a197:	jne    0x40a1a4
  40a199:	mov    eax,ds:0x423d64
  40a19e:	mov    DWORD PTR [ebp-0x21c],eax
  40a1a4:	mov    eax,DWORD PTR [ebp-0x21c]
  40a1aa:	mov    DWORD PTR [ebp-0x238],0x1
  40a1b4:	jmp    0x40a638
  40a1b9:	sub    eax,0x58
  40a1bc:	je     0x40a49c
  40a1c2:	dec    eax
  40a1c3:	dec    eax
  40a1c4:	je     0x40a23f
  40a1c6:	sub    eax,ecx
  40a1c8:	je     0x40a0f5
  40a1ce:	dec    eax
  40a1cf:	dec    eax
  40a1d0:	jne    0x40a674
  40a1d6:	add    edi,0x4
  40a1d9:	test   DWORD PTR [ebp-0x210],0x810
  40a1e3:	mov    DWORD PTR [ebp-0x224],edi
  40a1e9:	je     0x40a21b
  40a1eb:	movzx  eax,WORD PTR [edi-0x4]
  40a1ef:	push   eax
  40a1f0:	push   0x200
  40a1f5:	lea    eax,[ebp-0x20c]
  40a1fb:	push   eax
  40a1fc:	lea    eax,[ebp-0x220]
  40a202:	push   eax
  40a203:	call   0x410786
  40a208:	add    esp,0x10
  40a20b:	test   eax,eax
  40a20d:	je     0x40a22e
  40a20f:	mov    DWORD PTR [ebp-0x240],0x1
  40a219:	jmp    0x40a22e
  40a21b:	mov    al,BYTE PTR [edi-0x4]
  40a21e:	mov    BYTE PTR [ebp-0x20c],al
  40a224:	mov    DWORD PTR [ebp-0x220],0x1
  40a22e:	lea    eax,[ebp-0x20c]
  40a234:	mov    DWORD PTR [ebp-0x21c],eax
  40a23a:	jmp    0x40a674
  40a23f:	mov    eax,DWORD PTR [edi]
  40a241:	add    edi,0x4
  40a244:	mov    DWORD PTR [ebp-0x224],edi
  40a24a:	cmp    eax,esi
  40a24c:	je     0x40a289
  40a24e:	mov    ecx,DWORD PTR [eax+0x4]
  40a251:	cmp    ecx,esi
  40a253:	je     0x40a289
  40a255:	test   DWORD PTR [ebp-0x210],0x800
  40a25f:	movsx  eax,WORD PTR [eax]
  40a262:	mov    DWORD PTR [ebp-0x21c],ecx
  40a268:	je     0x40a27e
  40a26a:	cdq    
  40a26b:	sub    eax,edx
  40a26d:	sar    eax,1
  40a26f:	mov    DWORD PTR [ebp-0x238],0x1
  40a279:	jmp    0x40a66e
  40a27e:	mov    DWORD PTR [ebp-0x238],esi
  40a284:	jmp    0x40a66e
  40a289:	mov    eax,ds:0x423d60
  40a28e:	mov    DWORD PTR [ebp-0x21c],eax
  40a294:	push   eax
  40a295:	call   0x40ef20
  40a29a:	pop    ecx
  40a29b:	jmp    0x40a66e
  40a2a0:	cmp    eax,0x70
  40a2a3:	jg     0x40a4a4
  40a2a9:	je     0x40a492
  40a2af:	cmp    eax,0x65
  40a2b2:	jl     0x40a674
  40a2b8:	cmp    eax,0x67
  40a2bb:	jle    0x40a0f5
  40a2c1:	cmp    eax,0x69
  40a2c4:	je     0x40a337
  40a2c6:	cmp    eax,0x6e
  40a2c9:	je     0x40a2f3
  40a2cb:	cmp    eax,0x6f
  40a2ce:	jne    0x40a674
  40a2d4:	test   BYTE PTR [ebp-0x210],0x80
  40a2db:	mov    DWORD PTR [ebp-0x220],0x8
  40a2e5:	je     0x40a348
  40a2e7:	or     DWORD PTR [ebp-0x210],0x200
  40a2f1:	jmp    0x40a348
  40a2f3:	mov    esi,DWORD PTR [edi]
  40a2f5:	add    edi,0x4
  40a2f8:	mov    DWORD PTR [ebp-0x224],edi
  40a2fe:	call   0x4049ba
  40a303:	test   eax,eax
  40a305:	je     0x409d3a
  40a30b:	test   BYTE PTR [ebp-0x210],0x20
  40a312:	je     0x40a320
  40a314:	mov    ax,WORD PTR [ebp-0x228]
  40a31b:	mov    WORD PTR [esi],ax
  40a31e:	jmp    0x40a328
  40a320:	mov    eax,DWORD PTR [ebp-0x228]
  40a326:	mov    DWORD PTR [esi],eax
  40a328:	mov    DWORD PTR [ebp-0x240],0x1
  40a332:	jmp    0x40a7dd
  40a337:	or     DWORD PTR [ebp-0x210],0x40
  40a33e:	mov    DWORD PTR [ebp-0x220],0xa
  40a348:	mov    ecx,DWORD PTR [ebp-0x210]
  40a34e:	test   ecx,0x8000
  40a354:	je     0x40a503
  40a35a:	mov    eax,DWORD PTR [edi]
  40a35c:	mov    edx,DWORD PTR [edi+0x4]
  40a35f:	add    edi,0x8
  40a362:	jmp    0x40a53c
  40a367:	jne    0x40a37a
  40a369:	cmp    dl,0x67
  40a36c:	jne    0x40a3d3
  40a36e:	mov    DWORD PTR [ebp-0x218],0x1
  40a378:	jmp    0x40a3d3
  40a37a:	cmp    DWORD PTR [ebp-0x218],eax
  40a380:	jle    0x40a388
  40a382:	mov    DWORD PTR [ebp-0x218],eax
  40a388:	cmp    DWORD PTR [ebp-0x218],0xa3
  40a392:	jle    0x40a3d3
  40a394:	mov    esi,DWORD PTR [ebp-0x218]
  40a39a:	add    esi,0x15d
  40a3a0:	push   esi
  40a3a1:	call   0x4087ed
  40a3a6:	mov    dl,BYTE PTR [ebp-0x211]
  40a3ac:	pop    ecx
  40a3ad:	mov    DWORD PTR [ebp-0x244],eax
  40a3b3:	test   eax,eax
  40a3b5:	je     0x40a3c7
  40a3b7:	mov    DWORD PTR [ebp-0x21c],eax
  40a3bd:	mov    DWORD PTR [ebp-0x260],esi
  40a3c3:	mov    ebx,eax
  40a3c5:	jmp    0x40a3d1
  40a3c7:	mov    DWORD PTR [ebp-0x218],0xa3
  40a3d1:	xor    esi,esi
  40a3d3:	mov    eax,DWORD PTR [edi]
  40a3d5:	add    edi,0x8
  40a3d8:	mov    DWORD PTR [ebp-0x278],eax
  40a3de:	mov    eax,DWORD PTR [edi-0x4]
  40a3e1:	mov    DWORD PTR [ebp-0x274],eax
  40a3e7:	lea    eax,[ebp-0x25c]
  40a3ed:	push   eax
  40a3ee:	push   DWORD PTR [ebp-0x270]
  40a3f4:	movsx  eax,dl
  40a3f7:	push   DWORD PTR [ebp-0x218]
  40a3fd:	mov    DWORD PTR [ebp-0x224],edi
  40a403:	push   eax
  40a404:	push   DWORD PTR [ebp-0x260]
  40a40a:	lea    eax,[ebp-0x278]
  40a410:	push   ebx
  40a411:	push   eax
  40a412:	push   DWORD PTR ds:0x423da8
  40a418:	call   0x408999
  40a41d:	pop    ecx
  40a41e:	call   eax
  40a420:	mov    edi,DWORD PTR [ebp-0x210]
  40a426:	add    esp,0x1c
  40a429:	and    edi,0x80
  40a42f:	je     0x40a451
  40a431:	cmp    DWORD PTR [ebp-0x218],esi
  40a437:	jne    0x40a451
  40a439:	lea    eax,[ebp-0x25c]
  40a43f:	push   eax
  40a440:	push   ebx
  40a441:	push   DWORD PTR ds:0x423db4
  40a447:	call   0x408999
  40a44c:	pop    ecx
  40a44d:	call   eax
  40a44f:	pop    ecx
  40a450:	pop    ecx
  40a451:	cmp    BYTE PTR [ebp-0x211],0x67
  40a458:	jne    0x40a476
  40a45a:	cmp    edi,esi
  40a45c:	jne    0x40a476
  40a45e:	lea    eax,[ebp-0x25c]
  40a464:	push   eax
  40a465:	push   ebx
  40a466:	push   DWORD PTR ds:0x423db0
  40a46c:	call   0x408999
  40a471:	pop    ecx
  40a472:	call   eax
  40a474:	pop    ecx
  40a475:	pop    ecx
  40a476:	cmp    BYTE PTR [ebx],0x2d
  40a479:	jne    0x40a48c
  40a47b:	or     DWORD PTR [ebp-0x210],0x100
  40a485:	inc    ebx
  40a486:	mov    DWORD PTR [ebp-0x21c],ebx
  40a48c:	push   ebx
  40a48d:	jmp    0x40a295
  40a492:	mov    DWORD PTR [ebp-0x218],0x8
  40a49c:	mov    DWORD PTR [ebp-0x248],ecx
  40a4a2:	jmp    0x40a4c8
  40a4a4:	sub    eax,0x73
  40a4a7:	je     0x40a163
  40a4ad:	dec    eax
  40a4ae:	dec    eax
  40a4af:	je     0x40a33e
  40a4b5:	sub    eax,0x3
  40a4b8:	jne    0x40a674
  40a4be:	mov    DWORD PTR [ebp-0x248],0x27
  40a4c8:	test   BYTE PTR [ebp-0x210],0x80
  40a4cf:	mov    DWORD PTR [ebp-0x220],0x10
  40a4d9:	je     0x40a348
  40a4df:	mov    al,BYTE PTR [ebp-0x248]
  40a4e5:	add    al,0x51
  40a4e7:	mov    BYTE PTR [ebp-0x22c],0x30
  40a4ee:	mov    BYTE PTR [ebp-0x22b],al
  40a4f4:	mov    DWORD PTR [ebp-0x230],0x2
  40a4fe:	jmp    0x40a348
  40a503:	test   ecx,0x1000
  40a509:	jne    0x40a35a
  40a50f:	add    edi,0x4
  40a512:	test   cl,0x20
  40a515:	je     0x40a52f
  40a517:	mov    DWORD PTR [ebp-0x224],edi
  40a51d:	test   cl,0x40
  40a520:	je     0x40a528
  40a522:	movsx  eax,WORD PTR [edi-0x4]
  40a526:	jmp    0x40a52c
  40a528:	movzx  eax,WORD PTR [edi-0x4]
  40a52c:	cdq    
  40a52d:	jmp    0x40a542
  40a52f:	mov    eax,DWORD PTR [edi-0x4]
  40a532:	test   cl,0x40
  40a535:	je     0x40a53a
  40a537:	cdq    
  40a538:	jmp    0x40a53c
  40a53a:	xor    edx,edx
  40a53c:	mov    DWORD PTR [ebp-0x224],edi
  40a542:	test   cl,0x40
  40a545:	je     0x40a562
  40a547:	cmp    edx,esi
  40a549:	jg     0x40a562
  40a54b:	jl     0x40a551
  40a54d:	cmp    eax,esi
  40a54f:	jae    0x40a562
  40a551:	neg    eax
  40a553:	adc    edx,0x0
  40a556:	neg    edx
  40a558:	or     DWORD PTR [ebp-0x210],0x100
  40a562:	test   DWORD PTR [ebp-0x210],0x9000
  40a56c:	mov    ebx,edx
  40a56e:	mov    edi,eax
  40a570:	jne    0x40a574
  40a572:	xor    ebx,ebx
  40a574:	cmp    DWORD PTR [ebp-0x218],0x0
  40a57b:	jge    0x40a589
  40a57d:	mov    DWORD PTR [ebp-0x218],0x1
  40a587:	jmp    0x40a5a3
  40a589:	and    DWORD PTR [ebp-0x210],0xfffffff7
  40a590:	mov    eax,0x200
  40a595:	cmp    DWORD PTR [ebp-0x218],eax
  40a59b:	jle    0x40a5a3
  40a59d:	mov    DWORD PTR [ebp-0x218],eax
  40a5a3:	mov    eax,edi
  40a5a5:	or     eax,ebx
  40a5a7:	jne    0x40a5af
  40a5a9:	and    DWORD PTR [ebp-0x230],eax
  40a5af:	lea    esi,[ebp-0xd]
  40a5b2:	mov    eax,DWORD PTR [ebp-0x218]
  40a5b8:	dec    DWORD PTR [ebp-0x218]
  40a5be:	test   eax,eax
  40a5c0:	jg     0x40a5c8
  40a5c2:	mov    eax,edi
  40a5c4:	or     eax,ebx
  40a5c6:	je     0x40a5f5
  40a5c8:	mov    eax,DWORD PTR [ebp-0x220]
  40a5ce:	cdq    
  40a5cf:	push   edx
  40a5d0:	push   eax
  40a5d1:	push   ebx
  40a5d2:	push   edi
  40a5d3:	call   0x4107f0
  40a5d8:	add    ecx,0x30
  40a5db:	cmp    ecx,0x39
  40a5de:	mov    DWORD PTR [ebp-0x260],ebx
  40a5e4:	mov    edi,eax
  40a5e6:	mov    ebx,edx
  40a5e8:	jle    0x40a5f0
  40a5ea:	add    ecx,DWORD PTR [ebp-0x248]
  40a5f0:	mov    BYTE PTR [esi],cl
  40a5f2:	dec    esi
  40a5f3:	jmp    0x40a5b2
  40a5f5:	lea    eax,[ebp-0xd]
  40a5f8:	sub    eax,esi
  40a5fa:	inc    esi
  40a5fb:	test   DWORD PTR [ebp-0x210],0x200
  40a605:	mov    DWORD PTR [ebp-0x220],eax
  40a60b:	mov    DWORD PTR [ebp-0x21c],esi
  40a611:	je     0x40a674
  40a613:	test   eax,eax
  40a615:	je     0x40a61e
  40a617:	mov    ecx,esi
  40a619:	cmp    BYTE PTR [ecx],0x30
  40a61c:	je     0x40a674
  40a61e:	dec    DWORD PTR [ebp-0x21c]
  40a624:	mov    ecx,DWORD PTR [ebp-0x21c]
  40a62a:	mov    BYTE PTR [ecx],0x30
  40a62d:	inc    eax
  40a62e:	jmp    0x40a66e
  40a630:	dec    ecx
  40a631:	cmp    WORD PTR [eax],si
  40a634:	je     0x40a63c
  40a636:	inc    eax
  40a637:	inc    eax
  40a638:	cmp    ecx,esi
  40a63a:	jne    0x40a630
  40a63c:	sub    eax,DWORD PTR [ebp-0x21c]
  40a642:	sar    eax,1
  40a644:	jmp    0x40a66e
  40a646:	cmp    edi,esi
  40a648:	jne    0x40a655
  40a64a:	mov    eax,ds:0x423d60
  40a64f:	mov    DWORD PTR [ebp-0x21c],eax
  40a655:	mov    eax,DWORD PTR [ebp-0x21c]
  40a65b:	jmp    0x40a664
  40a65d:	dec    ecx
  40a65e:	cmp    BYTE PTR [eax],0x0
  40a661:	je     0x40a668
  40a663:	inc    eax
  40a664:	cmp    ecx,esi
  40a666:	jne    0x40a65d
  40a668:	sub    eax,DWORD PTR [ebp-0x21c]
  40a66e:	mov    DWORD PTR [ebp-0x220],eax
  40a674:	cmp    DWORD PTR [ebp-0x240],0x0
  40a67b:	jne    0x40a7dd
  40a681:	mov    eax,DWORD PTR [ebp-0x210]
  40a687:	test   al,0x40
  40a689:	je     0x40a6bd
  40a68b:	test   eax,0x100
  40a690:	je     0x40a69b
  40a692:	mov    BYTE PTR [ebp-0x22c],0x2d
  40a699:	jmp    0x40a6b3
  40a69b:	test   al,0x1
  40a69d:	je     0x40a6a8
  40a69f:	mov    BYTE PTR [ebp-0x22c],0x2b
  40a6a6:	jmp    0x40a6b3
  40a6a8:	test   al,0x2
  40a6aa:	je     0x40a6bd
  40a6ac:	mov    BYTE PTR [ebp-0x22c],0x20
  40a6b3:	mov    DWORD PTR [ebp-0x230],0x1
  40a6bd:	mov    ebx,DWORD PTR [ebp-0x234]
  40a6c3:	sub    ebx,DWORD PTR [ebp-0x220]
  40a6c9:	sub    ebx,DWORD PTR [ebp-0x230]
  40a6cf:	test   BYTE PTR [ebp-0x210],0xc
  40a6d6:	jne    0x40a6ef
  40a6d8:	push   DWORD PTR [ebp-0x24c]
  40a6de:	lea    eax,[ebp-0x228]
  40a6e4:	push   ebx
  40a6e5:	push   0x20
  40a6e7:	call   0x409c5c
  40a6ec:	add    esp,0xc
  40a6ef:	push   DWORD PTR [ebp-0x230]
  40a6f5:	mov    edi,DWORD PTR [ebp-0x24c]
  40a6fb:	lea    eax,[ebp-0x228]
  40a701:	lea    ecx,[ebp-0x22c]
  40a707:	call   0x409c82
  40a70c:	test   BYTE PTR [ebp-0x210],0x8
  40a713:	pop    ecx
  40a714:	je     0x40a731
  40a716:	test   BYTE PTR [ebp-0x210],0x4
  40a71d:	jne    0x40a731
  40a71f:	push   edi
  40a720:	push   ebx
  40a721:	push   0x30
  40a723:	lea    eax,[ebp-0x228]
  40a729:	call   0x409c5c
  40a72e:	add    esp,0xc
  40a731:	cmp    DWORD PTR [ebp-0x238],0x0
  40a738:	mov    eax,DWORD PTR [ebp-0x220]
  40a73e:	je     0x40a7a6
  40a740:	test   eax,eax
  40a742:	jle    0x40a7a6
  40a744:	mov    esi,DWORD PTR [ebp-0x21c]
  40a74a:	mov    DWORD PTR [ebp-0x260],eax
  40a750:	movzx  eax,WORD PTR [esi]
  40a753:	dec    DWORD PTR [ebp-0x260]
  40a759:	push   eax
  40a75a:	push   0x6
  40a75c:	lea    eax,[ebp-0xc]
  40a75f:	push   eax
  40a760:	lea    eax,[ebp-0x268]
  40a766:	inc    esi
  40a767:	push   eax
  40a768:	inc    esi
  40a769:	call   0x410786
  40a76e:	add    esp,0x10
  40a771:	test   eax,eax
  40a773:	jne    0x40a79d
  40a775:	cmp    DWORD PTR [ebp-0x268],eax
  40a77b:	je     0x40a79d
  40a77d:	push   DWORD PTR [ebp-0x268]
  40a783:	lea    eax,[ebp-0x228]
  40a789:	lea    ecx,[ebp-0xc]
  40a78c:	call   0x409c82
  40a791:	cmp    DWORD PTR [ebp-0x260],0x0
  40a798:	pop    ecx
  40a799:	jne    0x40a750
  40a79b:	jmp    0x40a7b9
  40a79d:	or     DWORD PTR [ebp-0x228],0xffffffff
  40a7a4:	jmp    0x40a7b9
  40a7a6:	mov    ecx,DWORD PTR [ebp-0x21c]
  40a7ac:	push   eax
  40a7ad:	lea    eax,[ebp-0x228]
  40a7b3:	call   0x409c82
  40a7b8:	pop    ecx
  40a7b9:	cmp    DWORD PTR [ebp-0x228],0x0
  40a7c0:	jl     0x40a7dd
  40a7c2:	test   BYTE PTR [ebp-0x210],0x4
  40a7c9:	je     0x40a7dd
  40a7cb:	push   edi
  40a7cc:	push   ebx
  40a7cd:	push   0x20
  40a7cf:	lea    eax,[ebp-0x228]
  40a7d5:	call   0x409c5c
  40a7da:	add    esp,0xc
  40a7dd:	cmp    DWORD PTR [ebp-0x244],0x0
  40a7e4:	je     0x40a7f9
  40a7e6:	push   DWORD PTR [ebp-0x244]
  40a7ec:	call   0x40f63e
  40a7f1:	and    DWORD PTR [ebp-0x244],0x0
  40a7f8:	pop    ecx
  40a7f9:	mov    ebx,DWORD PTR [ebp-0x23c]
  40a7ff:	mov    al,BYTE PTR [ebx]
  40a801:	mov    BYTE PTR [ebp-0x211],al
  40a807:	test   al,al
  40a809:	je     0x40a81e
  40a80b:	mov    ecx,DWORD PTR [ebp-0x26c]
  40a811:	mov    edi,DWORD PTR [ebp-0x224]
  40a817:	mov    dl,al
  40a819:	jmp    0x409dff
  40a81e:	cmp    BYTE PTR [ebp-0x250],0x0
  40a825:	je     0x40a831
  40a827:	mov    eax,DWORD PTR [ebp-0x254]
  40a82d:	and    DWORD PTR [eax+0x70],0xfffffffd
  40a831:	mov    eax,DWORD PTR [ebp-0x228]
  40a837:	mov    ecx,DWORD PTR [ebp-0x4]
  40a83a:	pop    edi
  40a83b:	pop    esi
  40a83c:	xor    ecx,ebp
  40a83e:	pop    ebx
  40a83f:	call   0x40efb3
  40a844:	leave  
  40a845:	ret    
  40a846:	nop
  40a847:	push   edx
  40a848:	mov    al,ds:0x9e530040
  40a84d:	inc    eax
  40a84e:	add    BYTE PTR [ebx-0x1effbf62],al
  40a854:	sahf   
  40a855:	inc    eax
  40a856:	add    BYTE PTR ds:0x3800409f,ch
  40a85c:	lahf   
  40a85d:	inc    eax
  40a85e:	add    BYTE PTR [esi-0x61],bh
  40a861:	inc    eax
  40a862:	add    BYTE PTR [eax+eiz*4+0x68cc0040],ch
  40a869:	shr    BYTE PTR [eax-0x9bffc0],1
  40a86f:	xor    eax,0x0
  40a874:	mov    eax,DWORD PTR [esp+0x10]
  40a878:	mov    DWORD PTR [esp+0x10],ebp
  40a87c:	lea    ebp,[esp+0x10]
  40a880:	sub    esp,eax
  40a882:	push   ebx
  40a883:	push   esi
  40a884:	push   edi
  40a885:	mov    eax,ds:0x423d68
  40a88a:	xor    DWORD PTR [ebp-0x4],eax
  40a88d:	xor    eax,ebp
  40a88f:	push   eax
  40a890:	mov    DWORD PTR [ebp-0x18],esp
  40a893:	push   DWORD PTR [ebp-0x8]
  40a896:	mov    eax,DWORD PTR [ebp-0x4]
  40a899:	mov    DWORD PTR [ebp-0x4],0xfffffffe
  40a8a0:	mov    DWORD PTR [ebp-0x8],eax
  40a8a3:	lea    eax,[ebp-0x10]
  40a8a6:	mov    fs:0x0,eax
  40a8ac:	ret    
  40a8ad:	mov    ecx,DWORD PTR [ebp-0x10]
  40a8b0:	mov    DWORD PTR fs:0x0,ecx
  40a8b7:	pop    ecx
  40a8b8:	pop    edi
  40a8b9:	pop    edi
  40a8ba:	pop    esi
  40a8bb:	pop    ebx
  40a8bc:	mov    esp,ebp
  40a8be:	pop    ebp
  40a8bf:	push   ecx
  40a8c0:	ret    
  40a8c1:	int3   
  40a8c2:	int3   
  40a8c3:	int3   
  40a8c4:	int3   
  40a8c5:	int3   
  40a8c6:	int3   
  40a8c7:	int3   
  40a8c8:	int3   
  40a8c9:	int3   
  40a8ca:	int3   
  40a8cb:	int3   
  40a8cc:	int3   
  40a8cd:	int3   
  40a8ce:	int3   
  40a8cf:	int3   
  40a8d0:	mov    edi,edi
  40a8d2:	push   ebp
  40a8d3:	mov    ebp,esp
  40a8d5:	sub    esp,0x18
  40a8d8:	push   ebx
  40a8d9:	mov    ebx,DWORD PTR [ebp+0xc]
  40a8dc:	push   esi
  40a8dd:	mov    esi,DWORD PTR [ebx+0x8]
  40a8e0:	xor    esi,DWORD PTR ds:0x423d68
  40a8e6:	push   edi
  40a8e7:	mov    eax,DWORD PTR [esi]
  40a8e9:	mov    BYTE PTR [ebp-0x1],0x0
  40a8ed:	mov    DWORD PTR [ebp-0xc],0x1
  40a8f4:	lea    edi,[ebx+0x10]
  40a8f7:	cmp    eax,0xfffffffe
  40a8fa:	je     0x40a909
  40a8fc:	mov    ecx,DWORD PTR [esi+0x4]
  40a8ff:	add    ecx,edi
  40a901:	xor    ecx,DWORD PTR [eax+edi*1]
  40a904:	call   0x40efb3
  40a909:	mov    ecx,DWORD PTR [esi+0xc]
  40a90c:	mov    eax,DWORD PTR [esi+0x8]
  40a90f:	add    ecx,edi
  40a911:	xor    ecx,DWORD PTR [eax+edi*1]
  40a914:	call   0x40efb3
  40a919:	mov    eax,DWORD PTR [ebp+0x8]
  40a91c:	test   BYTE PTR [eax+0x4],0x66
  40a920:	jne    0x40aa3c
  40a926:	mov    ecx,DWORD PTR [ebp+0x10]
  40a929:	lea    edx,[ebp-0x18]
  40a92c:	mov    DWORD PTR [ebx-0x4],edx
  40a92f:	mov    ebx,DWORD PTR [ebx+0xc]
  40a932:	mov    DWORD PTR [ebp-0x18],eax
  40a935:	mov    DWORD PTR [ebp-0x14],ecx
  40a938:	cmp    ebx,0xfffffffe
  40a93b:	je     0x40a99c
  40a93d:	lea    ecx,[ecx+0x0]
  40a940:	lea    eax,[ebx+ebx*2]
  40a943:	mov    ecx,DWORD PTR [esi+eax*4+0x14]
  40a947:	lea    eax,[esi+eax*4+0x10]
  40a94b:	mov    DWORD PTR [ebp-0x10],eax
  40a94e:	mov    eax,DWORD PTR [eax]
  40a950:	mov    DWORD PTR [ebp-0x8],eax
  40a953:	test   ecx,ecx
  40a955:	je     0x40a96b
  40a957:	mov    edx,edi
  40a959:	call   0x41097a
  40a95e:	mov    BYTE PTR [ebp-0x1],0x1
  40a962:	test   eax,eax
  40a964:	jl     0x40a9a6
  40a966:	jg     0x40a9af
  40a968:	mov    eax,DWORD PTR [ebp-0x8]
  40a96b:	mov    ebx,eax
  40a96d:	cmp    eax,0xfffffffe
  40a970:	jne    0x40a940
  40a972:	cmp    BYTE PTR [ebp-0x1],0x0
  40a976:	je     0x40a99c
  40a978:	mov    eax,DWORD PTR [esi]
  40a97a:	cmp    eax,0xfffffffe
  40a97d:	je     0x40a98c
  40a97f:	mov    ecx,DWORD PTR [esi+0x4]
  40a982:	add    ecx,edi
  40a984:	xor    ecx,DWORD PTR [eax+edi*1]
  40a987:	call   0x40efb3
  40a98c:	mov    ecx,DWORD PTR [esi+0xc]
  40a98f:	mov    edx,DWORD PTR [esi+0x8]
  40a992:	add    ecx,edi
  40a994:	xor    ecx,DWORD PTR [edx+edi*1]
  40a997:	call   0x40efb3
  40a99c:	mov    eax,DWORD PTR [ebp-0xc]
  40a99f:	pop    edi
  40a9a0:	pop    esi
  40a9a1:	pop    ebx
  40a9a2:	mov    esp,ebp
  40a9a4:	pop    ebp
  40a9a5:	ret    
  40a9a6:	mov    DWORD PTR [ebp-0xc],0x0
  40a9ad:	jmp    0x40a978
  40a9af:	mov    ecx,DWORD PTR [ebp+0x8]
  40a9b2:	cmp    DWORD PTR [ecx],0xe06d7363
  40a9b8:	jne    0x40a9e3
  40a9ba:	cmp    DWORD PTR ds:0x43cb58,0x0
  40a9c1:	je     0x40a9e3
  40a9c3:	push   0x43cb58
  40a9c8:	call   0x410a70
  40a9cd:	add    esp,0x4
  40a9d0:	test   eax,eax
  40a9d2:	je     0x40a9e3
  40a9d4:	mov    edx,DWORD PTR [ebp+0x8]
  40a9d7:	push   0x1
  40a9d9:	push   edx
  40a9da:	call   DWORD PTR ds:0x43cb58
  40a9e0:	add    esp,0x8
  40a9e3:	mov    ecx,DWORD PTR [ebp+0xc]
  40a9e6:	call   0x4109aa
  40a9eb:	mov    eax,DWORD PTR [ebp+0xc]
  40a9ee:	cmp    DWORD PTR [eax+0xc],ebx
  40a9f1:	je     0x40aa05
  40a9f3:	push   0x423d68
  40a9f8:	push   edi
  40a9f9:	mov    edx,ebx
  40a9fb:	mov    ecx,eax
  40a9fd:	call   0x4109c4
  40aa02:	mov    eax,DWORD PTR [ebp+0xc]
  40aa05:	mov    ecx,DWORD PTR [ebp-0x8]
  40aa08:	mov    DWORD PTR [eax+0xc],ecx
  40aa0b:	mov    eax,DWORD PTR [esi]
  40aa0d:	cmp    eax,0xfffffffe
  40aa10:	je     0x40aa1f
  40aa12:	mov    ecx,DWORD PTR [esi+0x4]
  40aa15:	add    ecx,edi
  40aa17:	xor    ecx,DWORD PTR [eax+edi*1]
  40aa1a:	call   0x40efb3
  40aa1f:	mov    ecx,DWORD PTR [esi+0xc]
  40aa22:	mov    edx,DWORD PTR [esi+0x8]
  40aa25:	add    ecx,edi
  40aa27:	xor    ecx,DWORD PTR [edx+edi*1]
  40aa2a:	call   0x40efb3
  40aa2f:	mov    eax,DWORD PTR [ebp-0x10]
  40aa32:	mov    ecx,DWORD PTR [eax+0x8]
  40aa35:	mov    edx,edi
  40aa37:	call   0x410991
  40aa3c:	mov    edx,0xfffffffe
  40aa41:	cmp    DWORD PTR [ebx+0xc],edx
  40aa44:	je     0x40a99c
  40aa4a:	push   0x423d68
  40aa4f:	push   edi
  40aa50:	mov    ecx,ebx
  40aa52:	call   0x4109c4
  40aa57:	jmp    0x40a978
  40aa5c:	mov    edi,edi
  40aa5e:	push   ebp
  40aa5f:	mov    ebp,esp
  40aa61:	mov    eax,DWORD PTR [ebp+0x10]
  40aa64:	mov    ecx,DWORD PTR [ebp+0xc]
  40aa67:	and    eax,0xfff7ffff
  40aa6c:	and    ecx,eax
  40aa6e:	push   esi
  40aa6f:	test   ecx,0xfcf0fce0
  40aa75:	je     0x40aaa8
  40aa77:	push   edi
  40aa78:	mov    edi,DWORD PTR [ebp+0x8]
  40aa7b:	xor    esi,esi
  40aa7d:	cmp    edi,esi
  40aa7f:	je     0x40aa8c
  40aa81:	push   esi
  40aa82:	push   esi
  40aa83:	call   0x404e24
  40aa88:	pop    ecx
  40aa89:	pop    ecx
  40aa8a:	mov    DWORD PTR [edi],eax
  40aa8c:	call   0x4087a4
  40aa91:	push   0x16
  40aa93:	pop    edi
  40aa94:	push   esi
  40aa95:	push   esi
  40aa96:	push   esi
  40aa97:	push   esi
  40aa98:	push   esi
  40aa99:	mov    DWORD PTR [eax],edi
  40aa9b:	call   0x40873c
  40aaa0:	add    esp,0x14
  40aaa3:	mov    eax,edi
  40aaa5:	pop    edi
  40aaa6:	jmp    0x40aac5
  40aaa8:	mov    esi,DWORD PTR [ebp+0x8]
  40aaab:	push   eax
  40aaac:	push   DWORD PTR [ebp+0xc]
  40aaaf:	test   esi,esi
  40aab1:	je     0x40aabc
  40aab3:	call   0x404e24
  40aab8:	mov    DWORD PTR [esi],eax
  40aaba:	jmp    0x40aac1
  40aabc:	call   0x404e24
  40aac1:	pop    ecx
  40aac2:	pop    ecx
  40aac3:	xor    eax,eax
  40aac5:	pop    esi
  40aac6:	pop    ebp
  40aac7:	ret    
  40aac8:	mov    edi,edi
  40aaca:	push   ebp
  40aacb:	mov    ebp,esp
  40aacd:	push   ecx
  40aace:	fstsw  WORD PTR [ebp-0x4]
  40aad2:	movsx  eax,WORD PTR [ebp-0x4]
  40aad6:	leave  
  40aad7:	ret    
  40aad8:	mov    edi,edi
  40aada:	push   ebp
  40aadb:	mov    ebp,esp
  40aadd:	push   ecx
  40aade:	fnstsw WORD PTR [ebp-0x4]
  40aae1:	fnclex 
  40aae3:	movsx  eax,WORD PTR [ebp-0x4]
  40aae7:	leave  
  40aae8:	ret    
  40aae9:	mov    edi,edi
  40aaeb:	push   ebp
  40aaec:	mov    ebp,esp
  40aaee:	push   ecx
  40aaef:	fstcw  WORD PTR [ebp-0x4]
  40aaf3:	mov    eax,DWORD PTR [ebp+0xc]
  40aaf6:	mov    ecx,DWORD PTR [ebp+0x8]
  40aaf9:	and    ecx,DWORD PTR [ebp+0xc]
  40aafc:	not    eax
  40aafe:	and    eax,DWORD PTR [ebp-0x4]
  40ab01:	or     eax,ecx
  40ab03:	movzx  eax,ax
  40ab06:	mov    DWORD PTR [ebp+0xc],eax
  40ab09:	fldcw  WORD PTR [ebp+0xc]
  40ab0c:	movsx  eax,WORD PTR [ebp-0x4]
  40ab10:	leave  
  40ab11:	ret    
  40ab12:	mov    edi,edi
  40ab14:	push   ebp
  40ab15:	mov    ebp,esp
  40ab17:	push   ecx
  40ab18:	push   ecx
  40ab19:	mov    cl,BYTE PTR [ebp+0x8]
  40ab1c:	test   cl,0x1
  40ab1f:	je     0x40ab2b
  40ab21:	fld    TBYTE PTR ds:0x423d70
  40ab27:	fistp  DWORD PTR [ebp+0x8]
  40ab2a:	fwait
  40ab2b:	test   cl,0x8
  40ab2e:	je     0x40ab40
  40ab30:	fstsw  ax
  40ab33:	fld    TBYTE PTR ds:0x423d70
  40ab39:	fstp   QWORD PTR [ebp-0x8]
  40ab3c:	fstsw  ax
  40ab40:	test   cl,0x10
  40ab43:	je     0x40ab4f
  40ab45:	fld    TBYTE PTR ds:0x423d7c
  40ab4b:	fstp   QWORD PTR [ebp-0x8]
  40ab4e:	fwait
  40ab4f:	test   cl,0x4
  40ab52:	je     0x40ab5d
  40ab54:	fldz   
  40ab56:	fld1   
  40ab58:	fdivrp st(1),st
  40ab5a:	fstp   st(0)
  40ab5c:	fwait
  40ab5d:	test   cl,0x20
  40ab60:	je     0x40ab68
  40ab62:	fldpi  
  40ab64:	fstp   QWORD PTR [ebp-0x8]
  40ab67:	fwait
  40ab68:	leave  
  40ab69:	ret    
  40ab6a:	push   0x8
  40ab6c:	push   0x41eec8
  40ab71:	call   0x40a868
  40ab76:	xor    eax,eax
  40ab78:	cmp    DWORD PTR ds:0x43db68,eax
  40ab7e:	je     0x40abd6
  40ab80:	test   BYTE PTR [ebp+0x8],0x40
  40ab84:	je     0x40abce
  40ab86:	cmp    DWORD PTR ds:0x423d88,eax
  40ab8c:	je     0x40abce
  40ab8e:	mov    DWORD PTR [ebp-0x4],eax
  40ab91:	ldmxcsr DWORD PTR [ebp+0x8]
  40ab95:	jmp    0x40abc5
  40ab97:	mov    eax,DWORD PTR [ebp-0x14]
  40ab9a:	mov    eax,DWORD PTR [eax]
  40ab9c:	mov    eax,DWORD PTR [eax]
  40ab9e:	cmp    eax,0xc0000005
  40aba3:	je     0x40abaf
  40aba5:	cmp    eax,0xc000001d
  40abaa:	je     0x40abaf
  40abac:	xor    eax,eax
  40abae:	ret    
  40abaf:	xor    eax,eax
  40abb1:	inc    eax
  40abb2:	ret    
  40abb3:	mov    esp,DWORD PTR [ebp-0x18]
  40abb6:	and    DWORD PTR ds:0x423d88,0x0
  40abbd:	and    DWORD PTR [ebp+0x8],0xffffffbf
  40abc1:	ldmxcsr DWORD PTR [ebp+0x8]
  40abc5:	mov    DWORD PTR [ebp-0x4],0xfffffffe
  40abcc:	jmp    0x40abd6
  40abce:	and    DWORD PTR [ebp+0x8],0xffffffbf
  40abd2:	ldmxcsr DWORD PTR [ebp+0x8]
  40abd6:	call   0x40a8ad
  40abdb:	ret    
  40abdc:	mov    edi,edi
  40abde:	push   esi
  40abdf:	push   0x30000
  40abe4:	push   0x10000
  40abe9:	xor    esi,esi
  40abeb:	push   esi
  40abec:	call   0x40aa5c
  40abf1:	add    esp,0xc
  40abf4:	test   eax,eax
  40abf6:	je     0x40ac05
  40abf8:	push   esi
  40abf9:	push   esi
  40abfa:	push   esi
  40abfb:	push   esi
  40abfc:	push   esi
  40abfd:	call   0x408614
  40ac02:	add    esp,0x14
  40ac05:	pop    esi
  40ac06:	ret    
  40ac07:	mov    edi,edi
  40ac09:	push   ebp
  40ac0a:	mov    ebp,esp
  40ac0c:	mov    eax,DWORD PTR [ebp+0x8]
  40ac0f:	mov    ds:0x43c014,eax
  40ac14:	mov    ds:0x43c018,eax
  40ac19:	mov    ds:0x43c01c,eax
  40ac1e:	mov    ds:0x43c020,eax
  40ac23:	pop    ebp
  40ac24:	ret    
  40ac25:	mov    edi,edi
  40ac27:	push   ebp
  40ac28:	mov    ebp,esp
  40ac2a:	mov    eax,DWORD PTR [ebp+0x8]
  40ac2d:	mov    ecx,DWORD PTR ds:0x423eac
  40ac33:	push   esi
  40ac34:	cmp    DWORD PTR [eax+0x4],edx
  40ac37:	je     0x40ac48
  40ac39:	mov    esi,ecx
  40ac3b:	imul   esi,esi,0xc
  40ac3e:	add    esi,DWORD PTR [ebp+0x8]
  40ac41:	add    eax,0xc
  40ac44:	cmp    eax,esi
  40ac46:	jb     0x40ac34
  40ac48:	imul   ecx,ecx,0xc
  40ac4b:	add    ecx,DWORD PTR [ebp+0x8]
  40ac4e:	pop    esi
  40ac4f:	cmp    eax,ecx
  40ac51:	jae    0x40ac58
  40ac53:	cmp    DWORD PTR [eax+0x4],edx
  40ac56:	je     0x40ac5a
  40ac58:	xor    eax,eax
  40ac5a:	pop    ebp
  40ac5b:	ret    
  40ac5c:	push   DWORD PTR ds:0x43c01c
  40ac62:	call   0x408999
  40ac67:	pop    ecx
  40ac68:	ret    
  40ac69:	push   0x20
  40ac6b:	push   0x41eee8
  40ac70:	call   0x40a868
  40ac75:	xor    edi,edi
  40ac77:	mov    DWORD PTR [ebp-0x1c],edi
  40ac7a:	mov    DWORD PTR [ebp-0x28],edi
  40ac7d:	mov    ebx,DWORD PTR [ebp+0x8]
  40ac80:	cmp    ebx,0xb
  40ac83:	jg     0x40acd1
  40ac85:	je     0x40ac9c
  40ac87:	mov    eax,ebx
  40ac89:	push   0x2
  40ac8b:	pop    ecx
  40ac8c:	sub    eax,ecx
  40ac8e:	je     0x40acb2
  40ac90:	sub    eax,ecx
  40ac92:	je     0x40ac9c
  40ac94:	sub    eax,ecx
  40ac96:	je     0x40acfc
  40ac98:	sub    eax,ecx
  40ac9a:	jne    0x40ace0
  40ac9c:	call   0x408b6c
  40aca1:	mov    edi,eax
  40aca3:	mov    DWORD PTR [ebp-0x28],edi
  40aca6:	test   edi,edi
  40aca8:	jne    0x40acbe
  40acaa:	or     eax,0xffffffff
  40acad:	jmp    0x40ae13
  40acb2:	mov    esi,0x43c014
  40acb7:	mov    eax,ds:0x43c014
  40acbc:	jmp    0x40ad1e
  40acbe:	push   DWORD PTR [edi+0x5c]
  40acc1:	mov    edx,ebx
  40acc3:	call   0x40ac25
  40acc8:	mov    esi,eax
  40acca:	add    esi,0x8
  40accd:	mov    eax,DWORD PTR [esi]
  40accf:	jmp    0x40ad2b
  40acd1:	mov    eax,ebx
  40acd3:	sub    eax,0xf
  40acd6:	je     0x40ad14
  40acd8:	sub    eax,0x6
  40acdb:	je     0x40ad08
  40acdd:	dec    eax
  40acde:	je     0x40acfc
  40ace0:	call   0x4087a4
  40ace5:	mov    DWORD PTR [eax],0x16
  40aceb:	xor    eax,eax
  40aced:	push   eax
  40acee:	push   eax
  40acef:	push   eax
  40acf0:	push   eax
  40acf1:	push   eax
  40acf2:	call   0x40873c
  40acf7:	add    esp,0x14
  40acfa:	jmp    0x40acaa
  40acfc:	mov    esi,0x43c01c
  40ad01:	mov    eax,ds:0x43c01c
  40ad06:	jmp    0x40ad1e
  40ad08:	mov    esi,0x43c018
  40ad0d:	mov    eax,ds:0x43c018
  40ad12:	jmp    0x40ad1e
  40ad14:	mov    esi,0x43c020
  40ad19:	mov    eax,ds:0x43c020
  40ad1e:	mov    DWORD PTR [ebp-0x1c],0x1
  40ad25:	push   eax
  40ad26:	call   0x408999
  40ad2b:	mov    DWORD PTR [ebp-0x20],eax
  40ad2e:	pop    ecx
  40ad2f:	xor    eax,eax
  40ad31:	cmp    DWORD PTR [ebp-0x20],0x1
  40ad35:	je     0x40ae13
  40ad3b:	cmp    DWORD PTR [ebp-0x20],eax
  40ad3e:	jne    0x40ad47
  40ad40:	push   0x3
  40ad42:	call   0x40d1fe
  40ad47:	cmp    DWORD PTR [ebp-0x1c],eax
  40ad4a:	je     0x40ad53
  40ad4c:	push   eax
  40ad4d:	call   0x40f60b
  40ad52:	pop    ecx
  40ad53:	xor    eax,eax
  40ad55:	mov    DWORD PTR [ebp-0x4],eax
  40ad58:	cmp    ebx,0x8
  40ad5b:	je     0x40ad67
  40ad5d:	cmp    ebx,0xb
  40ad60:	je     0x40ad67
  40ad62:	cmp    ebx,0x4
  40ad65:	jne    0x40ad82
  40ad67:	mov    ecx,DWORD PTR [edi+0x60]
  40ad6a:	mov    DWORD PTR [ebp-0x2c],ecx
  40ad6d:	mov    DWORD PTR [edi+0x60],eax
  40ad70:	cmp    ebx,0x8
  40ad73:	jne    0x40adb5
  40ad75:	mov    ecx,DWORD PTR [edi+0x64]
  40ad78:	mov    DWORD PTR [ebp-0x30],ecx
  40ad7b:	mov    DWORD PTR [edi+0x64],0x8c
  40ad82:	cmp    ebx,0x8
  40ad85:	jne    0x40adb5
  40ad87:	mov    ecx,DWORD PTR ds:0x423ea0
  40ad8d:	mov    DWORD PTR [ebp-0x24],ecx
  40ad90:	mov    ecx,DWORD PTR ds:0x423ea4
  40ad96:	mov    edx,DWORD PTR ds:0x423ea0
  40ad9c:	add    ecx,edx
  40ad9e:	cmp    DWORD PTR [ebp-0x24],ecx
  40ada1:	jge    0x40adbc
  40ada3:	mov    ecx,DWORD PTR [ebp-0x24]
  40ada6:	imul   ecx,ecx,0xc
  40ada9:	mov    edx,DWORD PTR [edi+0x5c]
  40adac:	mov    DWORD PTR [ecx+edx*1+0x8],eax
  40adb0:	inc    DWORD PTR [ebp-0x24]
  40adb3:	jmp    0x40ad90
  40adb5:	call   0x408990
  40adba:	mov    DWORD PTR [esi],eax
  40adbc:	mov    DWORD PTR [ebp-0x4],0xfffffffe
  40adc3:	call   0x40addd
  40adc8:	cmp    ebx,0x8
  40adcb:	jne    0x40adec
  40adcd:	push   DWORD PTR [edi+0x64]
  40add0:	push   ebx
  40add1:	call   DWORD PTR [ebp-0x20]
  40add4:	pop    ecx
  40add5:	jmp    0x40adf0
  40add7:	mov    ebx,DWORD PTR [ebp+0x8]
  40adda:	mov    edi,DWORD PTR [ebp-0x28]
  40addd:	cmp    DWORD PTR [ebp-0x1c],0x0
  40ade1:	je     0x40adeb
  40ade3:	push   0x0
  40ade5:	call   0x40f531
  40adea:	pop    ecx
  40adeb:	ret    
  40adec:	push   ebx
  40aded:	call   DWORD PTR [ebp-0x20]
  40adf0:	pop    ecx
  40adf1:	cmp    ebx,0x8
  40adf4:	je     0x40ae00
  40adf6:	cmp    ebx,0xb
  40adf9:	je     0x40ae00
  40adfb:	cmp    ebx,0x4
  40adfe:	jne    0x40ae11
  40ae00:	mov    eax,DWORD PTR [ebp-0x2c]
  40ae03:	mov    DWORD PTR [edi+0x60],eax
  40ae06:	cmp    ebx,0x8
  40ae09:	jne    0x40ae11
  40ae0b:	mov    eax,DWORD PTR [ebp-0x30]
  40ae0e:	mov    DWORD PTR [edi+0x64],eax
  40ae11:	xor    eax,eax
  40ae13:	call   0x40a8ad
  40ae18:	ret    
  40ae19:	mov    edi,edi
  40ae1b:	push   ebp
  40ae1c:	mov    ebp,esp
  40ae1e:	sub    esp,0x28
  40ae21:	xor    eax,eax
  40ae23:	push   ebx
  40ae24:	mov    ebx,DWORD PTR [ebp+0xc]
  40ae27:	push   esi
  40ae28:	mov    esi,DWORD PTR [ebp+0x10]
  40ae2b:	push   edi
  40ae2c:	mov    edi,DWORD PTR [ebp+0x8]
  40ae2f:	mov    BYTE PTR [ebp-0x8],al
  40ae32:	mov    BYTE PTR [ebp-0x7],al
  40ae35:	mov    BYTE PTR [ebp-0x6],al
  40ae38:	mov    BYTE PTR [ebp-0x5],al
  40ae3b:	mov    BYTE PTR [ebp-0x4],al
  40ae3e:	mov    BYTE PTR [ebp-0x3],al
  40ae41:	mov    BYTE PTR [ebp-0x2],al
  40ae44:	mov    BYTE PTR [ebp-0x1],al
  40ae47:	cmp    DWORD PTR ds:0x43c028,eax
  40ae4d:	je     0x40ae5d
  40ae4f:	push   DWORD PTR ds:0x43cb54
  40ae55:	call   0x408999
  40ae5a:	pop    ecx
  40ae5b:	jmp    0x40ae62
  40ae5d:	mov    eax,0x410b2d
  40ae62:	mov    ecx,DWORD PTR [ebp+0x14]
  40ae65:	mov    edx,0xa6
  40ae6a:	cmp    ecx,edx
  40ae6c:	jg     0x40afe6
  40ae72:	je     0x40afd3
  40ae78:	cmp    ecx,0x19
  40ae7b:	jg     0x40af79
  40ae81:	je     0x40af70
  40ae87:	mov    edx,ecx
  40ae89:	push   0x2
  40ae8b:	pop    ecx
  40ae8c:	sub    edx,ecx
  40ae8e:	je     0x40af61
  40ae94:	dec    edx
  40ae95:	je     0x40af58
  40ae9b:	sub    edx,0x5
  40ae9e:	je     0x40af49
  40aea4:	dec    edx
  40aea5:	je     0x40af31
  40aeab:	sub    edx,0x5
  40aeae:	je     0x40af21
  40aeb0:	dec    edx
  40aeb1:	je     0x40aef8
  40aeb3:	sub    edx,0x9
  40aeb6:	jne    0x40b090
  40aebc:	mov    DWORD PTR [ebp-0x28],0x3
  40aec3:	mov    DWORD PTR [ebp-0x24],0x41d6ac
  40aeca:	fld    QWORD PTR [edi]
  40aecc:	lea    ecx,[ebp-0x28]
  40aecf:	fstp   QWORD PTR [ebp-0x20]
  40aed2:	push   ecx
  40aed3:	fld    QWORD PTR [ebx]
  40aed5:	fstp   QWORD PTR [ebp-0x18]
  40aed8:	fld    QWORD PTR [esi]
  40aeda:	fstp   QWORD PTR [ebp-0x10]
  40aedd:	call   eax
  40aedf:	pop    ecx
  40aee0:	test   eax,eax
  40aee2:	jne    0x40b08b
  40aee8:	call   0x4087a4
  40aeed:	mov    DWORD PTR [eax],0x22
  40aef3:	jmp    0x40b08b
  40aef8:	mov    DWORD PTR [ebp-0x24],0x41d6a8
  40aeff:	fld    QWORD PTR [edi]
  40af01:	lea    ecx,[ebp-0x28]
  40af04:	fstp   QWORD PTR [ebp-0x20]
  40af07:	push   ecx
  40af08:	fld    QWORD PTR [ebx]
  40af0a:	mov    DWORD PTR [ebp-0x28],0x4
  40af11:	fstp   QWORD PTR [ebp-0x18]
  40af14:	fld    QWORD PTR [esi]
  40af16:	fstp   QWORD PTR [ebp-0x10]
  40af19:	call   eax
  40af1b:	pop    ecx
  40af1c:	jmp    0x40b08b
  40af21:	mov    DWORD PTR [ebp-0x28],0x3
  40af28:	mov    DWORD PTR [ebp-0x24],0x41d6a8
  40af2f:	jmp    0x40aeca
  40af31:	mov    DWORD PTR [ebp-0x24],0x41d6a0
  40af38:	fld    QWORD PTR [edi]
  40af3a:	fstp   QWORD PTR [ebp-0x20]
  40af3d:	fld    QWORD PTR [ebx]
  40af3f:	fstp   QWORD PTR [ebp-0x18]
  40af42:	fld    QWORD PTR [esi]
  40af44:	jmp    0x40b06b
  40af49:	mov    DWORD PTR [ebp-0x28],ecx
  40af4c:	mov    DWORD PTR [ebp-0x24],0x41d6a0
  40af53:	jmp    0x40aeca
  40af58:	mov    DWORD PTR [ebp-0x24],0x41d69c
  40af5f:	jmp    0x40af38
  40af61:	mov    DWORD PTR [ebp-0x28],ecx
  40af64:	mov    DWORD PTR [ebp-0x24],0x41d69c
  40af6b:	jmp    0x40aeca
  40af70:	mov    DWORD PTR [ebp-0x24],0x41d6ac
  40af77:	jmp    0x40aeff
  40af79:	sub    ecx,0x1a
  40af7c:	je     0x40afcc
  40af7e:	dec    ecx
  40af7f:	je     0x40afc0
  40af81:	dec    ecx
  40af82:	je     0x40afb4
  40af84:	dec    ecx
  40af85:	je     0x40afa7
  40af87:	sub    ecx,0x1d
  40af8a:	je     0x40af9e
  40af8c:	sub    ecx,0x3
  40af8f:	jne    0x40b090
  40af95:	mov    DWORD PTR [ebp-0x24],0x41d694
  40af9c:	jmp    0x40af38
  40af9e:	mov    DWORD PTR [ebp-0x24],0x41d68c
  40afa5:	jmp    0x40af38
  40afa7:	mov    DWORD PTR [ebp-0x24],0x41d6ac
  40afae:	fld    QWORD PTR [edi]
  40afb0:	fstp   QWORD PTR [esi]
  40afb2:	jmp    0x40af38
  40afb4:	mov    DWORD PTR [ebp-0x24],0x41d6ac
  40afbb:	jmp    0x40af38
  40afc0:	mov    DWORD PTR [ebp-0x28],0x2
  40afc7:	jmp    0x40aec3
  40afcc:	fld1   
  40afce:	jmp    0x40b08e
  40afd3:	mov    DWORD PTR [ebp-0x28],0x3
  40afda:	mov    DWORD PTR [ebp-0x24],0x41d684
  40afe1:	jmp    0x40aeca
  40afe6:	add    ecx,0xfffffc18
  40afec:	cmp    ecx,0xc
  40afef:	ja     0x40b090
  40aff5:	jmp    DWORD PTR [ecx*4+0x40b095]
  40affc:	mov    DWORD PTR [ebp-0x24],0x41d69c
  40b003:	jmp    0x40afae
  40b005:	mov    DWORD PTR [ebp-0x24],0x41d6a0
  40b00c:	jmp    0x40afae
  40b00e:	mov    DWORD PTR [ebp-0x24],0x41d6a8
  40b015:	jmp    0x40afae
  40b017:	mov    DWORD PTR [ebp-0x24],0x41d67c
  40b01e:	jmp    0x40afae
  40b020:	mov    DWORD PTR [ebp-0x24],0x41d674
  40b027:	jmp    0x40afae
  40b029:	mov    DWORD PTR [ebp-0x24],0x41d66c
  40b030:	jmp    0x40afae
  40b035:	mov    DWORD PTR [ebp-0x24],0x41d664
  40b03c:	jmp    0x40afae
  40b041:	mov    DWORD PTR [ebp-0x24],0x41d660
  40b048:	jmp    0x40b05a
  40b04a:	mov    DWORD PTR [ebp-0x24],0x41d65c
  40b051:	jmp    0x40b05a
  40b053:	mov    DWORD PTR [ebp-0x24],0x41d658
  40b05a:	fld    QWORD PTR [edi]
  40b05c:	fmul   QWORD PTR [ebp-0x8]
  40b05f:	fst    QWORD PTR [esi]
  40b061:	fld    QWORD PTR [edi]
  40b063:	fstp   QWORD PTR [ebp-0x20]
  40b066:	fld    QWORD PTR [ebx]
  40b068:	fstp   QWORD PTR [ebp-0x18]
  40b06b:	lea    ecx,[ebp-0x28]
  40b06e:	fstp   QWORD PTR [ebp-0x10]
  40b071:	push   ecx
  40b072:	mov    DWORD PTR [ebp-0x28],0x1
  40b079:	call   eax
  40b07b:	pop    ecx
  40b07c:	test   eax,eax
  40b07e:	jne    0x40b08b
  40b080:	call   0x4087a4
  40b085:	mov    DWORD PTR [eax],0x21
  40b08b:	fld    QWORD PTR [ebp-0x10]
  40b08e:	fstp   QWORD PTR [esi]
  40b090:	pop    edi
  40b091:	pop    esi
  40b092:	pop    ebx
  40b093:	leave  
  40b094:	ret    
  40b095:	cld    
  40b096:	scas   eax,DWORD PTR es:[edi]
  40b097:	inc    eax
  40b098:	add    BYTE PTR ds:0xe0040b0,al
  40b09e:	mov    al,0x40
  40b0a0:	add    BYTE PTR [edi],dl
  40b0a2:	mov    al,0x40
  40b0a4:	add    BYTE PTR [eax],ah
  40b0a6:	mov    al,0x40
  40b0a8:	add    BYTE PTR [ecx],ch
  40b0aa:	mov    al,0x40
  40b0ac:	add    BYTE PTR [edi+ebp*4-0x4fcaffc0],dh
  40b0b3:	inc    eax
  40b0b4:	add    BYTE PTR [esi-0x6affbf51],bl
  40b0ba:	scas   eax,DWORD PTR es:[edi]
  40b0bb:	inc    eax
  40b0bc:	add    BYTE PTR [ecx-0x50],al
  40b0bf:	inc    eax
  40b0c0:	add    BYTE PTR [edx-0x50],cl
  40b0c3:	inc    eax
  40b0c4:	add    BYTE PTR [ebx-0x50],dl
  40b0c7:	inc    eax
  40b0c8:	add    BYTE PTR [ebx-0x1374aa01],cl
  40b0ce:	push   ecx
  40b0cf:	push   ecx
  40b0d0:	push   ebx
  40b0d1:	push   esi
  40b0d2:	mov    esi,0xffff
  40b0d7:	push   esi
  40b0d8:	push   DWORD PTR ds:0x423d8c
  40b0de:	call   0x40aae9
  40b0e3:	fld    QWORD PTR [ebp+0x8]
  40b0e6:	pop    ecx
  40b0e7:	pop    ecx
  40b0e8:	mov    ecx,DWORD PTR [ebp+0xe]
  40b0eb:	mov    ebx,eax
  40b0ed:	mov    eax,0x7ff0
  40b0f2:	and    ecx,eax
  40b0f4:	push   ecx
  40b0f5:	push   ecx
  40b0f6:	fstp   QWORD PTR [esp]
  40b0f9:	cmp    cx,ax
  40b0fc:	jne    0x40b153
  40b0fe:	call   0x40ed9e
  40b103:	pop    ecx
  40b104:	pop    ecx
  40b105:	test   eax,eax
  40b107:	jle    0x40b136
  40b109:	cmp    eax,0x2
  40b10c:	jle    0x40b128
  40b10e:	cmp    eax,0x3
  40b111:	jne    0x40b136
  40b113:	fld    QWORD PTR [ebp+0x8]
  40b116:	push   ebx
  40b117:	push   ecx
  40b118:	push   ecx
  40b119:	fstp   QWORD PTR [esp]
  40b11c:	push   0xb
  40b11e:	call   0x411112
  40b123:	add    esp,0x10
  40b126:	jmp    0x40b19a
  40b128:	push   esi
  40b129:	push   ebx
  40b12a:	call   0x40aae9
  40b12f:	fld    QWORD PTR [ebp+0x8]
  40b132:	pop    ecx
  40b133:	pop    ecx
  40b134:	jmp    0x40b19a
  40b136:	fld    QWORD PTR [ebp+0x8]
  40b139:	push   ebx
  40b13a:	fadd   QWORD PTR ds:0x419a28
  40b140:	sub    esp,0x10
  40b143:	fstp   QWORD PTR [esp+0x8]
  40b147:	fld    QWORD PTR [ebp+0x8]
  40b14a:	fstp   QWORD PTR [esp]
  40b14d:	push   0xb
  40b14f:	push   0x8
  40b151:	jmp    0x40b192
  40b153:	call   0x40ecca
  40b158:	fstp   QWORD PTR [ebp-0x8]
  40b15b:	fld    QWORD PTR [ebp+0x8]
  40b15e:	pop    ecx
  40b15f:	fcomp  QWORD PTR [ebp-0x8]
  40b162:	pop    ecx
  40b163:	fnstsw ax
  40b165:	test   ah,0x44
  40b168:	jp     0x40b178
  40b16a:	push   esi
  40b16b:	push   ebx
  40b16c:	call   0x40aae9
  40b171:	fld    QWORD PTR [ebp-0x8]
  40b174:	pop    ecx
  40b175:	pop    ecx
  40b176:	jmp    0x40b19a
  40b178:	test   bl,0x20
  40b17b:	jne    0x40b16a
  40b17d:	fld    QWORD PTR [ebp-0x8]
  40b180:	push   ebx
  40b181:	sub    esp,0x10
  40b184:	fstp   QWORD PTR [esp+0x8]
  40b188:	fld    QWORD PTR [ebp+0x8]
  40b18b:	fstp   QWORD PTR [esp]
  40b18e:	push   0xb
  40b190:	push   0x10
  40b192:	call   0x411167
  40b197:	add    esp,0x1c
  40b19a:	pop    esi
  40b19b:	pop    ebx
  40b19c:	leave  
  40b19d:	ret    
  40b19e:	mov    edi,edi
  40b1a0:	push   ebp
  40b1a1:	mov    ebp,esp
  40b1a3:	sub    esp,0x10
  40b1a6:	push   esi
  40b1a7:	push   DWORD PTR [ebp+0xc]
  40b1aa:	lea    ecx,[ebp-0x10]
  40b1ad:	call   0x4046f4
  40b1b2:	mov    esi,DWORD PTR [ebp+0x8]
  40b1b5:	movsx  eax,BYTE PTR [esi]
  40b1b8:	push   eax
  40b1b9:	call   0x4113f1
  40b1be:	cmp    eax,0x65
  40b1c1:	jmp    0x40b1cf
  40b1c3:	inc    esi
  40b1c4:	movzx  eax,BYTE PTR [esi]
  40b1c7:	push   eax
  40b1c8:	call   0x4112ae
  40b1cd:	test   eax,eax
  40b1cf:	pop    ecx
  40b1d0:	jne    0x40b1c3
  40b1d2:	movsx  eax,BYTE PTR [esi]
  40b1d5:	push   eax
  40b1d6:	call   0x4113f1
  40b1db:	pop    ecx
  40b1dc:	cmp    eax,0x78
  40b1df:	jne    0x40b1e3
  40b1e1:	inc    esi
  40b1e2:	inc    esi
  40b1e3:	mov    ecx,DWORD PTR [ebp-0x10]
  40b1e6:	mov    ecx,DWORD PTR [ecx+0xbc]
  40b1ec:	mov    ecx,DWORD PTR [ecx]
  40b1ee:	mov    al,BYTE PTR [esi]
  40b1f0:	mov    cl,BYTE PTR [ecx]
  40b1f2:	mov    BYTE PTR [esi],cl
  40b1f4:	inc    esi
  40b1f5:	mov    cl,BYTE PTR [esi]
  40b1f7:	mov    BYTE PTR [esi],al
  40b1f9:	mov    al,cl
  40b1fb:	mov    cl,BYTE PTR [esi]
  40b1fd:	inc    esi
  40b1fe:	test   cl,cl
  40b200:	jne    0x40b1f5
  40b202:	pop    esi
  40b203:	cmp    BYTE PTR [ebp-0x4],cl
  40b206:	je     0x40b20f
  40b208:	mov    eax,DWORD PTR [ebp-0x8]
  40b20b:	and    DWORD PTR [eax+0x70],0xfffffffd
  40b20f:	leave  
  40b210:	ret    
  40b211:	mov    edi,edi
  40b213:	push   ebp
  40b214:	mov    ebp,esp
  40b216:	sub    esp,0x10
  40b219:	push   esi
  40b21a:	push   DWORD PTR [ebp+0xc]
  40b21d:	lea    ecx,[ebp-0x10]
  40b220:	call   0x4046f4
  40b225:	mov    eax,DWORD PTR [ebp+0x8]
  40b228:	mov    cl,BYTE PTR [eax]
  40b22a:	mov    esi,DWORD PTR [ebp-0x10]
  40b22d:	test   cl,cl
  40b22f:	je     0x40b246
  40b231:	mov    edx,DWORD PTR [esi+0xbc]
  40b237:	mov    edx,DWORD PTR [edx]
  40b239:	mov    dl,BYTE PTR [edx]
  40b23b:	cmp    cl,dl
  40b23d:	je     0x40b246
  40b23f:	inc    eax
  40b240:	mov    cl,BYTE PTR [eax]
  40b242:	test   cl,cl
  40b244:	jne    0x40b23b
  40b246:	mov    cl,BYTE PTR [eax]
  40b248:	inc    eax
  40b249:	test   cl,cl
  40b24b:	je     0x40b283
  40b24d:	jmp    0x40b25a
  40b24f:	cmp    cl,0x65
  40b252:	je     0x40b260
  40b254:	cmp    cl,0x45
  40b257:	je     0x40b260
  40b259:	inc    eax
  40b25a:	mov    cl,BYTE PTR [eax]
  40b25c:	test   cl,cl
  40b25e:	jne    0x40b24f
  40b260:	mov    edx,eax
  40b262:	dec    eax
  40b263:	cmp    BYTE PTR [eax],0x30
  40b266:	je     0x40b262
  40b268:	mov    ecx,DWORD PTR [esi+0xbc]
  40b26e:	mov    ecx,DWORD PTR [ecx]
  40b270:	push   ebx
  40b271:	mov    bl,BYTE PTR [eax]
  40b273:	cmp    bl,BYTE PTR [ecx]
  40b275:	pop    ebx
  40b276:	jne    0x40b279
  40b278:	dec    eax
  40b279:	mov    cl,BYTE PTR [edx]
  40b27b:	inc    eax
  40b27c:	inc    edx
  40b27d:	mov    BYTE PTR [eax],cl
  40b27f:	test   cl,cl
  40b281:	jne    0x40b279
  40b283:	cmp    BYTE PTR [ebp-0x4],0x0
  40b287:	pop    esi
  40b288:	je     0x40b291
  40b28a:	mov    eax,DWORD PTR [ebp-0x8]
  40b28d:	and    DWORD PTR [eax+0x70],0xfffffffd
  40b291:	leave  
  40b292:	ret    
  40b293:	mov    edi,edi
  40b295:	push   ebp
  40b296:	mov    ebp,esp
  40b298:	fldz   
  40b29a:	mov    eax,DWORD PTR [ebp+0x8]
  40b29d:	fcomp  QWORD PTR [eax]
  40b29f:	fnstsw ax
  40b2a1:	test   ah,0x41
  40b2a4:	jp     0x40b2ab
  40b2a6:	xor    eax,eax
  40b2a8:	inc    eax
  40b2a9:	pop    ebp
  40b2aa:	ret    
  40b2ab:	xor    eax,eax
  40b2ad:	pop    ebp
  40b2ae:	ret    
  40b2af:	mov    edi,edi
  40b2b1:	push   ebp
  40b2b2:	mov    ebp,esp
  40b2b4:	push   ecx
  40b2b5:	push   ecx
  40b2b6:	cmp    DWORD PTR [ebp+0x8],0x0
  40b2ba:	push   DWORD PTR [ebp+0x14]
  40b2bd:	push   DWORD PTR [ebp+0x10]
  40b2c0:	je     0x40b2db
  40b2c2:	lea    eax,[ebp-0x8]
  40b2c5:	push   eax
  40b2c6:	call   0x41141d
  40b2cb:	mov    ecx,DWORD PTR [ebp-0x8]
  40b2ce:	mov    eax,DWORD PTR [ebp+0xc]
  40b2d1:	mov    DWORD PTR [eax],ecx
  40b2d3:	mov    ecx,DWORD PTR [ebp-0x4]
  40b2d6:	mov    DWORD PTR [eax+0x4],ecx
  40b2d9:	jmp    0x40b2ec
  40b2db:	lea    eax,[ebp+0x8]
  40b2de:	push   eax
  40b2df:	call   0x4114c5
  40b2e4:	mov    eax,DWORD PTR [ebp+0xc]
  40b2e7:	mov    ecx,DWORD PTR [ebp+0x8]
  40b2ea:	mov    DWORD PTR [eax],ecx
  40b2ec:	add    esp,0xc
  40b2ef:	leave  
  40b2f0:	ret    
  40b2f1:	mov    edi,edi
  40b2f3:	push   ebp
  40b2f4:	mov    ebp,esp
  40b2f6:	push   0x0
  40b2f8:	push   DWORD PTR [ebp+0x10]
  40b2fb:	push   DWORD PTR [ebp+0xc]
  40b2fe:	push   DWORD PTR [ebp+0x8]
  40b301:	call   0x40b2af
  40b306:	add    esp,0x10
  40b309:	pop    ebp
  40b30a:	ret    
  40b30b:	mov    edi,edi
  40b30d:	push   esi
  40b30e:	mov    esi,eax
  40b310:	test   edi,edi
  40b312:	je     0x40b328
  40b314:	push   esi
  40b315:	call   0x40ef20
  40b31a:	inc    eax
  40b31b:	push   eax
  40b31c:	push   esi
  40b31d:	add    esi,edi
  40b31f:	push   esi
  40b320:	call   0x411570
  40b325:	add    esp,0x10
  40b328:	pop    esi
  40b329:	ret    
  40b32a:	mov    edi,edi
  40b32c:	push   ebp
  40b32d:	mov    ebp,esp
  40b32f:	push   0x0
  40b331:	push   DWORD PTR [ebp+0x8]
  40b334:	call   0x40b19e
  40b339:	pop    ecx
  40b33a:	pop    ecx
  40b33b:	pop    ebp
  40b33c:	ret    
  40b33d:	mov    edi,edi
  40b33f:	push   ebp
  40b340:	mov    ebp,esp
  40b342:	push   0x0
  40b344:	push   DWORD PTR [ebp+0x8]
  40b347:	call   0x40b211
  40b34c:	pop    ecx
  40b34d:	pop    ecx
  40b34e:	pop    ebp
  40b34f:	ret    
  40b350:	mov    edi,edi
  40b352:	push   ebp
  40b353:	mov    ebp,esp
  40b355:	sub    esp,0x10
  40b358:	push   ebx
  40b359:	push   esi
  40b35a:	push   edi
  40b35b:	push   DWORD PTR [ebp+0x1c]
  40b35e:	lea    ecx,[ebp-0x10]
  40b361:	mov    ebx,eax
  40b363:	call   0x4046f4
  40b368:	xor    esi,esi
  40b36a:	cmp    ebx,esi
  40b36c:	jne    0x40b399
  40b36e:	call   0x4087a4
  40b373:	push   0x16
  40b375:	pop    edi
  40b376:	push   esi
  40b377:	push   esi
  40b378:	push   esi
  40b379:	push   esi
  40b37a:	push   esi
  40b37b:	mov    DWORD PTR [eax],edi
  40b37d:	call   0x40873c
  40b382:	add    esp,0x14
  40b385:	cmp    BYTE PTR [ebp-0x4],0x0
  40b389:	je     0x40b392
  40b38b:	mov    eax,DWORD PTR [ebp-0x8]
  40b38e:	and    DWORD PTR [eax+0x70],0xfffffffd
  40b392:	mov    eax,edi
  40b394:	jmp    0x40b4ba
  40b399:	cmp    DWORD PTR [ebp+0x8],esi
  40b39c:	jbe    0x40b36e
  40b39e:	cmp    DWORD PTR [ebp+0xc],esi
  40b3a1:	jle    0x40b3a8
  40b3a3:	mov    eax,DWORD PTR [ebp+0xc]
  40b3a6:	jmp    0x40b3aa
  40b3a8:	xor    eax,eax
  40b3aa:	add    eax,0x9
  40b3ad:	cmp    DWORD PTR [ebp+0x8],eax
  40b3b0:	ja     0x40b3bb
  40b3b2:	call   0x4087a4
  40b3b7:	push   0x22
  40b3b9:	jmp    0x40b375
  40b3bb:	cmp    BYTE PTR [ebp+0x18],0x0
  40b3bf:	je     0x40b3df
  40b3c1:	mov    edx,DWORD PTR [ebp+0x14]
  40b3c4:	xor    eax,eax
  40b3c6:	cmp    DWORD PTR [ebp+0xc],esi
  40b3c9:	setg   al
  40b3cc:	xor    ecx,ecx
  40b3ce:	cmp    DWORD PTR [edx],0x2d
  40b3d1:	sete   cl
  40b3d4:	mov    edi,eax
  40b3d6:	add    ecx,ebx
  40b3d8:	mov    eax,ecx
  40b3da:	call   0x40b30b
  40b3df:	mov    edi,DWORD PTR [ebp+0x14]
  40b3e2:	cmp    DWORD PTR [edi],0x2d
  40b3e5:	mov    esi,ebx
  40b3e7:	jne    0x40b3ef
  40b3e9:	mov    BYTE PTR [ebx],0x2d
  40b3ec:	lea    esi,[ebx+0x1]
  40b3ef:	cmp    DWORD PTR [ebp+0xc],0x0
  40b3f3:	jle    0x40b40d
  40b3f5:	lea    eax,[esi+0x1]
  40b3f8:	mov    cl,BYTE PTR [eax]
  40b3fa:	mov    BYTE PTR [esi],cl
  40b3fc:	mov    esi,eax
  40b3fe:	mov    eax,DWORD PTR [ebp-0x10]
  40b401:	mov    eax,DWORD PTR [eax+0xbc]
  40b407:	mov    eax,DWORD PTR [eax]
  40b409:	mov    al,BYTE PTR [eax]
  40b40b:	mov    BYTE PTR [esi],al
  40b40d:	xor    eax,eax
  40b40f:	cmp    BYTE PTR [ebp+0x18],al
  40b412:	sete   al
  40b415:	add    eax,DWORD PTR [ebp+0xc]
  40b418:	add    esi,eax
  40b41a:	cmp    DWORD PTR [ebp+0x8],0xffffffff
  40b41e:	jne    0x40b425
  40b420:	or     ebx,0xffffffff
  40b423:	jmp    0x40b42a
  40b425:	sub    ebx,esi
  40b427:	add    ebx,DWORD PTR [ebp+0x8]
  40b42a:	push   0x41d6b0
  40b42f:	push   ebx
  40b430:	push   esi
  40b431:	call   0x40eeb7
  40b436:	add    esp,0xc
  40b439:	xor    ebx,ebx
  40b43b:	test   eax,eax
  40b43d:	je     0x40b44c
  40b43f:	push   ebx
  40b440:	push   ebx
  40b441:	push   ebx
  40b442:	push   ebx
  40b443:	push   ebx
  40b444:	call   0x408614
  40b449:	add    esp,0x14
  40b44c:	lea    ecx,[esi+0x2]
  40b44f:	cmp    DWORD PTR [ebp+0x10],ebx
  40b452:	je     0x40b457
  40b454:	mov    BYTE PTR [esi],0x45
  40b457:	mov    eax,DWORD PTR [edi+0xc]
  40b45a:	inc    esi
  40b45b:	cmp    BYTE PTR [eax],0x30
  40b45e:	je     0x40b48e
  40b460:	mov    eax,DWORD PTR [edi+0x4]
  40b463:	dec    eax
  40b464:	jns    0x40b46b
  40b466:	neg    eax
  40b468:	mov    BYTE PTR [esi],0x2d
  40b46b:	inc    esi
  40b46c:	cmp    eax,0x64
  40b46f:	jl     0x40b47b
  40b471:	cdq    
  40b472:	push   0x64
  40b474:	pop    edi
  40b475:	idiv   edi
  40b477:	add    BYTE PTR [esi],al
  40b479:	mov    eax,edx
  40b47b:	inc    esi
  40b47c:	cmp    eax,0xa
  40b47f:	jl     0x40b48b
  40b481:	cdq    
  40b482:	push   0xa
  40b484:	pop    edi
  40b485:	idiv   edi
  40b487:	add    BYTE PTR [esi],al
  40b489:	mov    eax,edx
  40b48b:	add    BYTE PTR [esi+0x1],al
  40b48e:	test   BYTE PTR ds:0x43c6a4,0x1
  40b495:	je     0x40b4ab
  40b497:	cmp    BYTE PTR [ecx],0x30
  40b49a:	jne    0x40b4ab
  40b49c:	push   0x3
  40b49e:	lea    eax,[ecx+0x1]
  40b4a1:	push   eax
  40b4a2:	push   ecx
  40b4a3:	call   0x411570
  40b4a8:	add    esp,0xc
  40b4ab:	cmp    BYTE PTR [ebp-0x4],0x0
  40b4af:	je     0x40b4b8
  40b4b1:	mov    eax,DWORD PTR [ebp-0x8]
  40b4b4:	and    DWORD PTR [eax+0x70],0xfffffffd
  40b4b8:	xor    eax,eax
  40b4ba:	pop    edi
  40b4bb:	pop    esi
  40b4bc:	pop    ebx
  40b4bd:	leave  
  40b4be:	ret    
  40b4bf:	mov    edi,edi
  40b4c1:	push   ebp
  40b4c2:	mov    ebp,esp
  40b4c4:	sub    esp,0x2c
  40b4c7:	mov    eax,ds:0x423d68
  40b4cc:	xor    eax,ebp
  40b4ce:	mov    DWORD PTR [ebp-0x4],eax
  40b4d1:	mov    eax,DWORD PTR [ebp+0x8]
  40b4d4:	push   ebx
  40b4d5:	push   esi
  40b4d6:	push   edi
  40b4d7:	mov    edi,DWORD PTR [ebp+0xc]
  40b4da:	push   0x16
  40b4dc:	pop    esi
  40b4dd:	push   esi
  40b4de:	lea    ecx,[ebp-0x1c]
  40b4e1:	push   ecx
  40b4e2:	lea    ecx,[ebp-0x2c]
  40b4e5:	push   ecx
  40b4e6:	push   DWORD PTR [eax+0x4]
  40b4e9:	push   DWORD PTR [eax]
  40b4eb:	call   0x411a51
  40b4f0:	xor    ebx,ebx
  40b4f2:	add    esp,0x14
  40b4f5:	cmp    edi,ebx
  40b4f7:	jne    0x40b511
  40b4f9:	call   0x4087a4
  40b4fe:	push   ebx
  40b4ff:	push   ebx
  40b500:	push   ebx
  40b501:	push   ebx
  40b502:	push   ebx
  40b503:	mov    DWORD PTR [eax],esi
  40b505:	call   0x40873c
  40b50a:	add    esp,0x14
  40b50d:	mov    eax,esi
  40b50f:	jmp    0x40b580
  40b511:	mov    eax,DWORD PTR [ebp+0x10]
  40b514:	cmp    eax,ebx
  40b516:	jbe    0x40b4f9
  40b518:	mov    esi,DWORD PTR [ebp+0x14]
  40b51b:	cmp    eax,0xffffffff
  40b51e:	jne    0x40b525
  40b520:	or     eax,0xffffffff
  40b523:	jmp    0x40b539
  40b525:	xor    ecx,ecx
  40b527:	cmp    DWORD PTR [ebp-0x2c],0x2d
  40b52b:	sete   cl
  40b52e:	sub    eax,ecx
  40b530:	xor    ecx,ecx
  40b532:	cmp    esi,ebx
  40b534:	setg   cl
  40b537:	sub    eax,ecx
  40b539:	lea    ecx,[ebp-0x2c]
  40b53c:	push   ecx
  40b53d:	lea    ecx,[esi+0x1]
  40b540:	push   ecx
  40b541:	push   eax
  40b542:	xor    eax,eax
  40b544:	cmp    DWORD PTR [ebp-0x2c],0x2d
  40b548:	sete   al
  40b54b:	xor    ecx,ecx
  40b54d:	cmp    esi,ebx
  40b54f:	setg   cl
  40b552:	add    eax,edi
  40b554:	add    ecx,eax
  40b556:	push   ecx
  40b557:	call   0x4118d5
  40b55c:	add    esp,0x10
  40b55f:	cmp    eax,ebx
  40b561:	je     0x40b567
  40b563:	mov    BYTE PTR [edi],bl
  40b565:	jmp    0x40b580
  40b567:	push   DWORD PTR [ebp+0x1c]
  40b56a:	lea    eax,[ebp-0x2c]
  40b56d:	push   ebx
  40b56e:	push   eax
  40b56f:	push   DWORD PTR [ebp+0x18]
  40b572:	mov    eax,edi
  40b574:	push   esi
  40b575:	push   DWORD PTR [ebp+0x10]
  40b578:	call   0x40b350
  40b57d:	add    esp,0x18
  40b580:	mov    ecx,DWORD PTR [ebp-0x4]
  40b583:	pop    edi
  40b584:	pop    esi
  40b585:	xor    ecx,ebp
  40b587:	pop    ebx
  40b588:	call   0x40efb3
  40b58d:	leave  
  40b58e:	ret    
  40b58f:	mov    edi,edi
  40b591:	push   ebp
  40b592:	mov    ebp,esp
  40b594:	push   0x0
  40b596:	push   DWORD PTR [ebp+0x18]
  40b599:	push   DWORD PTR [ebp+0x14]
  40b59c:	push   DWORD PTR [ebp+0x10]
  40b59f:	push   DWORD PTR [ebp+0xc]
  40b5a2:	push   DWORD PTR [ebp+0x8]
  40b5a5:	call   0x40b4bf
  40b5aa:	add    esp,0x18
  40b5ad:	pop    ebp
  40b5ae:	ret    
  40b5af:	mov    edi,edi
  40b5b1:	push   ebp
  40b5b2:	mov    ebp,esp
  40b5b4:	sub    esp,0x24
  40b5b7:	push   esi
  40b5b8:	push   edi
  40b5b9:	push   DWORD PTR [ebp+0x1c]
  40b5bc:	lea    ecx,[ebp-0x24]
  40b5bf:	mov    DWORD PTR [ebp-0x14],0x3ff
  40b5c6:	xor    edi,edi
  40b5c8:	mov    DWORD PTR [ebp-0x4],0x30
  40b5cf:	call   0x4046f4
  40b5d4:	cmp    DWORD PTR [ebp+0x14],edi
  40b5d7:	jge    0x40b5dc
  40b5d9:	mov    DWORD PTR [ebp+0x14],edi
  40b5dc:	mov    esi,DWORD PTR [ebp+0xc]
  40b5df:	cmp    esi,edi
  40b5e1:	jne    0x40b60e
  40b5e3:	call   0x4087a4
  40b5e8:	push   0x16
  40b5ea:	pop    esi
  40b5eb:	push   edi
  40b5ec:	push   edi
  40b5ed:	push   edi
  40b5ee:	push   edi
  40b5ef:	push   edi
  40b5f0:	mov    DWORD PTR [eax],esi
  40b5f2:	call   0x40873c
  40b5f7:	add    esp,0x14
  40b5fa:	cmp    BYTE PTR [ebp-0x18],0x0
  40b5fe:	je     0x40b607
  40b600:	mov    eax,DWORD PTR [ebp-0x1c]
  40b603:	and    DWORD PTR [eax+0x70],0xfffffffd
  40b607:	mov    eax,esi
  40b609:	jmp    0x40b91e
  40b60e:	cmp    DWORD PTR [ebp+0x10],edi
  40b611:	jbe    0x40b5e3
  40b613:	mov    eax,DWORD PTR [ebp+0x14]
  40b616:	add    eax,0xb
  40b619:	mov    BYTE PTR [esi],0x0
  40b61c:	cmp    DWORD PTR [ebp+0x10],eax
  40b61f:	ja     0x40b62a
  40b621:	call   0x4087a4
  40b626:	push   0x22
  40b628:	jmp    0x40b5ea
  40b62a:	mov    edi,DWORD PTR [ebp+0x8]
  40b62d:	mov    eax,DWORD PTR [edi]
  40b62f:	mov    DWORD PTR [ebp-0xc],eax
  40b632:	mov    eax,DWORD PTR [edi+0x4]
  40b635:	mov    ecx,eax
  40b637:	shr    ecx,0x14
  40b63a:	mov    edx,0x7ff
  40b63f:	push   ebx
  40b640:	and    ecx,edx
  40b642:	xor    ebx,ebx
  40b644:	cmp    ecx,edx
  40b646:	jne    0x40b6dc
  40b64c:	test   ebx,ebx
  40b64e:	jne    0x40b6dc
  40b654:	mov    eax,DWORD PTR [ebp+0x10]
  40b657:	cmp    eax,0xffffffff
  40b65a:	jne    0x40b660
  40b65c:	or     eax,eax
  40b65e:	jmp    0x40b663
  40b660:	add    eax,0xfffffffe
  40b663:	push   0x0
  40b665:	push   DWORD PTR [ebp+0x14]
  40b668:	lea    ebx,[esi+0x2]
  40b66b:	push   eax
  40b66c:	push   ebx
  40b66d:	push   edi
  40b66e:	call   0x40b58f
  40b673:	add    esp,0x14
  40b676:	test   eax,eax
  40b678:	je     0x40b693
  40b67a:	cmp    BYTE PTR [ebp-0x18],0x0
  40b67e:	mov    BYTE PTR [esi],0x0
  40b681:	je     0x40b91d
  40b687:	mov    ecx,DWORD PTR [ebp-0x1c]
  40b68a:	and    DWORD PTR [ecx+0x70],0xfffffffd
  40b68e:	jmp    0x40b91d
  40b693:	cmp    BYTE PTR [ebx],0x2d
  40b696:	jne    0x40b69c
  40b698:	mov    BYTE PTR [esi],0x2d
  40b69b:	inc    esi
  40b69c:	mov    BYTE PTR [esi],0x30
  40b69f:	inc    esi
  40b6a0:	cmp    DWORD PTR [ebp+0x18],0x0
  40b6a4:	push   0x65
  40b6a6:	sete   al
  40b6a9:	dec    al
  40b6ab:	and    al,0xe0
  40b6ad:	add    al,0x78
  40b6af:	mov    BYTE PTR [esi],al
  40b6b1:	inc    esi
  40b6b2:	push   esi
  40b6b3:	call   0x411230
  40b6b8:	pop    ecx
  40b6b9:	pop    ecx
  40b6ba:	test   eax,eax
  40b6bc:	je     0x40b90e
  40b6c2:	cmp    DWORD PTR [ebp+0x18],0x0
  40b6c6:	sete   cl
  40b6c9:	dec    cl
  40b6cb:	and    cl,0xe0
  40b6ce:	add    cl,0x70
  40b6d1:	mov    BYTE PTR [eax],cl
  40b6d3:	mov    BYTE PTR [eax+0x3],0x0
  40b6d7:	jmp    0x40b90e
  40b6dc:	and    eax,0x80000000
  40b6e1:	xor    ecx,ecx
  40b6e3:	or     ecx,eax
  40b6e5:	je     0x40b6eb
  40b6e7:	mov    BYTE PTR [esi],0x2d
  40b6ea:	inc    esi
  40b6eb:	mov    ebx,DWORD PTR [ebp+0x18]
  40b6ee:	mov    BYTE PTR [esi],0x30
  40b6f1:	inc    esi
  40b6f2:	test   ebx,ebx
  40b6f4:	sete   al
  40b6f7:	dec    al
  40b6f9:	and    al,0xe0
  40b6fb:	add    al,0x78
  40b6fd:	mov    BYTE PTR [esi],al
  40b6ff:	mov    ecx,DWORD PTR [edi+0x4]
  40b702:	inc    esi
  40b703:	neg    ebx
  40b705:	sbb    ebx,ebx
  40b707:	and    ebx,0xffffffe0
  40b70a:	and    ecx,0x7ff00000
  40b710:	xor    eax,eax
  40b712:	add    ebx,0x27
  40b715:	xor    edx,edx
  40b717:	or     eax,ecx
  40b719:	jne    0x40b73c
  40b71b:	mov    BYTE PTR [esi],0x30
  40b71e:	mov    ecx,DWORD PTR [edi+0x4]
  40b721:	mov    eax,DWORD PTR [edi]
  40b723:	and    ecx,0xfffff
  40b729:	inc    esi
  40b72a:	or     eax,ecx
  40b72c:	jne    0x40b733
  40b72e:	mov    DWORD PTR [ebp-0x14],edx
  40b731:	jmp    0x40b740
  40b733:	mov    DWORD PTR [ebp-0x14],0x3fe
  40b73a:	jmp    0x40b740
  40b73c:	mov    BYTE PTR [esi],0x31
  40b73f:	inc    esi
  40b740:	mov    eax,esi
  40b742:	inc    esi
  40b743:	mov    DWORD PTR [ebp+0xc],eax
  40b746:	cmp    DWORD PTR [ebp+0x14],edx
  40b749:	jne    0x40b74f
  40b74b:	mov    BYTE PTR [eax],dl
  40b74d:	jmp    0x40b75e
  40b74f:	mov    ecx,DWORD PTR [ebp-0x24]
  40b752:	mov    ecx,DWORD PTR [ecx+0xbc]
  40b758:	mov    ecx,DWORD PTR [ecx]
  40b75a:	mov    cl,BYTE PTR [ecx]
  40b75c:	mov    BYTE PTR [eax],cl
  40b75e:	mov    ecx,DWORD PTR [edi+0x4]
  40b761:	mov    eax,DWORD PTR [edi]
  40b763:	and    ecx,0xfffff
  40b769:	mov    DWORD PTR [ebp-0x8],ecx
  40b76c:	ja     0x40b776
  40b76e:	cmp    eax,edx
  40b770:	jbe    0x40b82b
  40b776:	mov    DWORD PTR [ebp-0xc],edx
  40b779:	mov    DWORD PTR [ebp-0x8],0xf0000
  40b780:	cmp    DWORD PTR [ebp+0x14],0x0
  40b784:	jle    0x40b7d3
  40b786:	mov    edx,DWORD PTR [edi+0x4]
  40b789:	and    edx,DWORD PTR [ebp-0x8]
  40b78c:	mov    eax,DWORD PTR [edi]
  40b78e:	movsx  ecx,WORD PTR [ebp-0x4]
  40b792:	and    eax,DWORD PTR [ebp-0xc]
  40b795:	and    edx,0xfffff
  40b79b:	call   0x411bd0
  40b7a0:	add    ax,0x30
  40b7a4:	movzx  eax,ax
  40b7a7:	cmp    ax,0x39
  40b7ab:	jbe    0x40b7af
  40b7ad:	add    eax,ebx
  40b7af:	mov    ecx,DWORD PTR [ebp-0x8]
  40b7b2:	sub    DWORD PTR [ebp-0x4],0x4
  40b7b6:	mov    BYTE PTR [esi],al
  40b7b8:	mov    eax,DWORD PTR [ebp-0xc]
  40b7bb:	shrd   eax,ecx,0x4
  40b7bf:	shr    ecx,0x4
  40b7c2:	inc    esi
  40b7c3:	dec    DWORD PTR [ebp+0x14]
  40b7c6:	cmp    WORD PTR [ebp-0x4],0x0
  40b7cb:	mov    DWORD PTR [ebp-0xc],eax
  40b7ce:	mov    DWORD PTR [ebp-0x8],ecx
  40b7d1:	jge    0x40b780
  40b7d3:	cmp    WORD PTR [ebp-0x4],0x0
  40b7d8:	jl     0x40b82b
  40b7da:	mov    edx,DWORD PTR [edi+0x4]
  40b7dd:	and    edx,DWORD PTR [ebp-0x8]
  40b7e0:	mov    eax,DWORD PTR [edi]
  40b7e2:	movsx  ecx,WORD PTR [ebp-0x4]
  40b7e6:	and    eax,DWORD PTR [ebp-0xc]
  40b7e9:	and    edx,0xfffff
  40b7ef:	call   0x411bd0
  40b7f4:	cmp    ax,0x8
  40b7f8:	jbe    0x40b82b
  40b7fa:	lea    eax,[esi-0x1]
  40b7fd:	mov    cl,BYTE PTR [eax]
  40b7ff:	cmp    cl,0x66
  40b802:	je     0x40b809
  40b804:	cmp    cl,0x46
  40b807:	jne    0x40b80f
  40b809:	mov    BYTE PTR [eax],0x30
  40b80c:	dec    eax
  40b80d:	jmp    0x40b7fd
  40b80f:	cmp    eax,DWORD PTR [ebp+0xc]
  40b812:	je     0x40b828
  40b814:	mov    cl,BYTE PTR [eax]
  40b816:	cmp    cl,0x39
  40b819:	jne    0x40b822
  40b81b:	add    bl,0x3a
  40b81e:	mov    BYTE PTR [eax],bl
  40b820:	jmp    0x40b82b
  40b822:	inc    cl
  40b824:	mov    BYTE PTR [eax],cl
  40b826:	jmp    0x40b82b
  40b828:	inc    BYTE PTR [eax-0x1]
  40b82b:	cmp    DWORD PTR [ebp+0x14],0x0
  40b82f:	jle    0x40b842
  40b831:	push   DWORD PTR [ebp+0x14]
  40b834:	push   0x30
  40b836:	push   esi
  40b837:	call   0x40cc70
  40b83c:	add    esp,0xc
  40b83f:	add    esi,DWORD PTR [ebp+0x14]
  40b842:	mov    eax,DWORD PTR [ebp+0xc]
  40b845:	cmp    BYTE PTR [eax],0x0
  40b848:	jne    0x40b84c
  40b84a:	mov    esi,eax
  40b84c:	cmp    DWORD PTR [ebp+0x18],0x0
  40b850:	mov    cl,0x34
  40b852:	sete   al
  40b855:	dec    al
  40b857:	and    al,0xe0
  40b859:	add    al,0x70
  40b85b:	mov    BYTE PTR [esi],al
  40b85d:	mov    eax,DWORD PTR [edi]
  40b85f:	mov    edx,DWORD PTR [edi+0x4]
  40b862:	inc    esi
  40b863:	call   0x411bd0
  40b868:	xor    ebx,ebx
  40b86a:	and    eax,0x7ff
  40b86f:	and    edx,ebx
  40b871:	sub    eax,DWORD PTR [ebp-0x14]
  40b874:	push   ebx
  40b875:	pop    ecx
  40b876:	sbb    edx,ecx
  40b878:	js     0x40b886
  40b87a:	jg     0x40b880
  40b87c:	cmp    eax,ebx
  40b87e:	jb     0x40b886
  40b880:	mov    BYTE PTR [esi],0x2b
  40b883:	inc    esi
  40b884:	jmp    0x40b890
  40b886:	mov    BYTE PTR [esi],0x2d
  40b889:	inc    esi
  40b88a:	neg    eax
  40b88c:	adc    edx,ebx
  40b88e:	neg    edx
  40b890:	cmp    edx,ebx
  40b892:	mov    edi,esi
  40b894:	mov    BYTE PTR [esi],0x30
  40b897:	jl     0x40b8bd
  40b899:	mov    ecx,0x3e8
  40b89e:	jg     0x40b8a4
  40b8a0:	cmp    eax,ecx
  40b8a2:	jb     0x40b8bd
  40b8a4:	push   ebx
  40b8a5:	push   ecx
  40b8a6:	push   edx
  40b8a7:	push   eax
  40b8a8:	call   0x411af0
  40b8ad:	add    al,0x30
  40b8af:	mov    BYTE PTR [esi],al
  40b8b1:	inc    esi
  40b8b2:	mov    DWORD PTR [ebp-0x10],edx
  40b8b5:	mov    eax,ecx
  40b8b7:	mov    edx,ebx
  40b8b9:	cmp    esi,edi
  40b8bb:	jne    0x40b8c8
  40b8bd:	test   edx,edx
  40b8bf:	jl     0x40b8df
  40b8c1:	jg     0x40b8c8
  40b8c3:	cmp    eax,0x64
  40b8c6:	jb     0x40b8df
  40b8c8:	push   0x0
  40b8ca:	push   0x64
  40b8cc:	push   edx
  40b8cd:	push   eax
  40b8ce:	call   0x411af0
  40b8d3:	add    al,0x30
  40b8d5:	mov    BYTE PTR [esi],al
  40b8d7:	mov    DWORD PTR [ebp-0x10],edx
  40b8da:	inc    esi
  40b8db:	mov    eax,ecx
  40b8dd:	mov    edx,ebx
  40b8df:	cmp    esi,edi
  40b8e1:	jne    0x40b8ee
  40b8e3:	test   edx,edx
  40b8e5:	jl     0x40b906
  40b8e7:	jg     0x40b8ee
  40b8e9:	cmp    eax,0xa
  40b8ec:	jb     0x40b906
  40b8ee:	push   0x0
  40b8f0:	push   0xa
  40b8f2:	push   edx
  40b8f3:	push   eax
  40b8f4:	call   0x411af0
  40b8f9:	add    al,0x30
  40b8fb:	mov    BYTE PTR [esi],al
  40b8fd:	mov    DWORD PTR [ebp-0x10],edx
  40b900:	inc    esi
  40b901:	mov    eax,ecx
  40b903:	mov    DWORD PTR [ebp-0x10],ebx
  40b906:	add    al,0x30
  40b908:	mov    BYTE PTR [esi],al
  40b90a:	mov    BYTE PTR [esi+0x1],0x0
  40b90e:	cmp    BYTE PTR [ebp-0x18],0x0
  40b912:	je     0x40b91b
  40b914:	mov    eax,DWORD PTR [ebp-0x1c]
  40b917:	and    DWORD PTR [eax+0x70],0xfffffffd
  40b91b:	xor    eax,eax
  40b91d:	pop    ebx
  40b91e:	pop    edi
  40b91f:	pop    esi
  40b920:	leave  
  40b921:	ret    
  40b922:	mov    edi,edi
  40b924:	push   ebp
  40b925:	mov    ebp,esp
  40b927:	sub    esp,0x10
  40b92a:	push   ebx
  40b92b:	push   esi
  40b92c:	push   edi
  40b92d:	push   DWORD PTR [ebp+0x14]
  40b930:	mov    ebx,eax
  40b932:	mov    esi,DWORD PTR [ebx+0x4]
  40b935:	mov    edi,ecx
  40b937:	lea    ecx,[ebp-0x10]
  40b93a:	dec    esi
  40b93b:	call   0x4046f4
  40b940:	test   edi,edi
  40b942:	jne    0x40b971
  40b944:	call   0x4087a4
  40b949:	push   0x16
  40b94b:	pop    esi
  40b94c:	mov    DWORD PTR [eax],esi
  40b94e:	xor    eax,eax
  40b950:	push   eax
  40b951:	push   eax
  40b952:	push   eax
  40b953:	push   eax
  40b954:	push   eax
  40b955:	call   0x40873c
  40b95a:	add    esp,0x14
  40b95d:	cmp    BYTE PTR [ebp-0x4],0x0
  40b961:	je     0x40b96a
  40b963:	mov    eax,DWORD PTR [ebp-0x8]
  40b966:	and    DWORD PTR [eax+0x70],0xfffffffd
  40b96a:	mov    eax,esi
  40b96c:	jmp    0x40ba14
  40b971:	cmp    DWORD PTR [ebp+0x8],0x0
  40b975:	jbe    0x40b944
  40b977:	cmp    BYTE PTR [ebp+0x10],0x0
  40b97b:	je     0x40b995
  40b97d:	cmp    esi,DWORD PTR [ebp+0xc]
  40b980:	jne    0x40b995
  40b982:	xor    eax,eax
  40b984:	cmp    DWORD PTR [ebx],0x2d
  40b987:	sete   al
  40b98a:	add    eax,esi
  40b98c:	add    eax,edi
  40b98e:	mov    BYTE PTR [eax],0x30
  40b991:	mov    BYTE PTR [eax+0x1],0x0
  40b995:	cmp    DWORD PTR [ebx],0x2d
  40b998:	mov    esi,edi
  40b99a:	jne    0x40b9a2
  40b99c:	mov    BYTE PTR [edi],0x2d
  40b99f:	lea    esi,[edi+0x1]
  40b9a2:	mov    eax,DWORD PTR [ebx+0x4]
  40b9a5:	xor    edi,edi
  40b9a7:	inc    edi
  40b9a8:	test   eax,eax
  40b9aa:	jg     0x40b9b9
  40b9ac:	mov    eax,esi
  40b9ae:	call   0x40b30b
  40b9b3:	mov    BYTE PTR [esi],0x30
  40b9b6:	inc    esi
  40b9b7:	jmp    0x40b9bb
  40b9b9:	add    esi,eax
  40b9bb:	cmp    DWORD PTR [ebp+0xc],0x0
  40b9bf:	jle    0x40ba05
  40b9c1:	mov    eax,esi
  40b9c3:	call   0x40b30b
  40b9c8:	mov    eax,DWORD PTR [ebp-0x10]
  40b9cb:	mov    eax,DWORD PTR [eax+0xbc]
  40b9d1:	mov    eax,DWORD PTR [eax]
  40b9d3:	mov    al,BYTE PTR [eax]
  40b9d5:	mov    BYTE PTR [esi],al
  40b9d7:	mov    ebx,DWORD PTR [ebx+0x4]
  40b9da:	inc    esi
  40b9db:	test   ebx,ebx
  40b9dd:	jge    0x40ba05
  40b9df:	neg    ebx
  40b9e1:	cmp    BYTE PTR [ebp+0x10],0x0
  40b9e5:	jne    0x40b9ec
  40b9e7:	cmp    DWORD PTR [ebp+0xc],ebx
  40b9ea:	jl     0x40b9ef
  40b9ec:	mov    DWORD PTR [ebp+0xc],ebx
  40b9ef:	mov    edi,DWORD PTR [ebp+0xc]
  40b9f2:	mov    eax,esi
  40b9f4:	call   0x40b30b
  40b9f9:	push   edi
  40b9fa:	push   0x30
  40b9fc:	push   esi
  40b9fd:	call   0x40cc70
  40ba02:	add    esp,0xc
  40ba05:	cmp    BYTE PTR [ebp-0x4],0x0
  40ba09:	je     0x40ba12
  40ba0b:	mov    eax,DWORD PTR [ebp-0x8]
  40ba0e:	and    DWORD PTR [eax+0x70],0xfffffffd
  40ba12:	xor    eax,eax
  40ba14:	pop    edi
  40ba15:	pop    esi
  40ba16:	pop    ebx
  40ba17:	leave  
  40ba18:	ret    
  40ba19:	mov    edi,edi
  40ba1b:	push   ebp
  40ba1c:	mov    ebp,esp
  40ba1e:	sub    esp,0x2c
  40ba21:	mov    eax,ds:0x423d68
  40ba26:	xor    eax,ebp
  40ba28:	mov    DWORD PTR [ebp-0x4],eax
  40ba2b:	mov    eax,DWORD PTR [ebp+0x8]
  40ba2e:	push   ebx
  40ba2f:	push   esi
  40ba30:	push   edi
  40ba31:	mov    edi,DWORD PTR [ebp+0xc]
  40ba34:	push   0x16
  40ba36:	pop    esi
  40ba37:	push   esi
  40ba38:	lea    ecx,[ebp-0x1c]
  40ba3b:	push   ecx
  40ba3c:	lea    ecx,[ebp-0x2c]
  40ba3f:	push   ecx
  40ba40:	push   DWORD PTR [eax+0x4]
  40ba43:	push   DWORD PTR [eax]
  40ba45:	call   0x411a51
  40ba4a:	xor    ebx,ebx
  40ba4c:	add    esp,0x14
  40ba4f:	cmp    edi,ebx
  40ba51:	jne    0x40ba6b
  40ba53:	call   0x4087a4
  40ba58:	push   ebx
  40ba59:	push   ebx
  40ba5a:	push   ebx
  40ba5b:	push   ebx
  40ba5c:	push   ebx
  40ba5d:	mov    DWORD PTR [eax],esi
  40ba5f:	call   0x40873c
  40ba64:	add    esp,0x14
  40ba67:	mov    eax,esi
  40ba69:	jmp    0x40bac5
  40ba6b:	mov    eax,DWORD PTR [ebp+0x10]
  40ba6e:	cmp    eax,ebx
  40ba70:	jbe    0x40ba53
  40ba72:	cmp    eax,0xffffffff
  40ba75:	jne    0x40ba7b
  40ba77:	or     eax,eax
  40ba79:	jmp    0x40ba86
  40ba7b:	xor    ecx,ecx
  40ba7d:	cmp    DWORD PTR [ebp-0x2c],0x2d
  40ba81:	sete   cl
  40ba84:	sub    eax,ecx
  40ba86:	mov    esi,DWORD PTR [ebp+0x14]
  40ba89:	lea    ecx,[ebp-0x2c]
  40ba8c:	push   ecx
  40ba8d:	mov    ecx,DWORD PTR [ebp-0x28]
  40ba90:	add    ecx,esi
  40ba92:	push   ecx
  40ba93:	push   eax
  40ba94:	xor    eax,eax
  40ba96:	cmp    DWORD PTR [ebp-0x2c],0x2d
  40ba9a:	sete   al
  40ba9d:	add    eax,edi
  40ba9f:	push   eax
  40baa0:	call   0x4118d5
  40baa5:	add    esp,0x10
  40baa8:	cmp    eax,ebx
  40baaa:	je     0x40bab0
  40baac:	mov    BYTE PTR [edi],bl
  40baae:	jmp    0x40bac5
  40bab0:	push   DWORD PTR [ebp+0x18]
  40bab3:	lea    eax,[ebp-0x2c]
  40bab6:	push   ebx
  40bab7:	push   esi
  40bab8:	push   DWORD PTR [ebp+0x10]
  40babb:	mov    ecx,edi
  40babd:	call   0x40b922
  40bac2:	add    esp,0x10
  40bac5:	mov    ecx,DWORD PTR [ebp-0x4]
  40bac8:	pop    edi
  40bac9:	pop    esi
  40baca:	xor    ecx,ebp
  40bacc:	pop    ebx
  40bacd:	call   0x40efb3
  40bad2:	leave  
  40bad3:	ret    
  40bad4:	mov    edi,edi
  40bad6:	push   ebp
  40bad7:	mov    ebp,esp
  40bad9:	sub    esp,0x30
  40badc:	mov    eax,ds:0x423d68
  40bae1:	xor    eax,ebp
  40bae3:	mov    DWORD PTR [ebp-0x4],eax
  40bae6:	mov    eax,DWORD PTR [ebp+0x8]
  40bae9:	push   ebx
  40baea:	push   esi
  40baeb:	mov    esi,DWORD PTR [ebp+0xc]
  40baee:	push   edi
  40baef:	push   0x16
  40baf1:	pop    edi
  40baf2:	push   edi
  40baf3:	lea    ecx,[ebp-0x1c]
  40baf6:	push   ecx
  40baf7:	lea    ecx,[ebp-0x30]
  40bafa:	push   ecx
  40bafb:	push   DWORD PTR [eax+0x4]
  40bafe:	push   DWORD PTR [eax]
  40bb00:	call   0x411a51
  40bb05:	xor    ebx,ebx
  40bb07:	add    esp,0x14
  40bb0a:	cmp    esi,ebx
  40bb0c:	jne    0x40bb29
  40bb0e:	call   0x4087a4
  40bb13:	push   ebx
  40bb14:	push   ebx
  40bb15:	push   ebx
  40bb16:	push   ebx
  40bb17:	push   ebx
  40bb18:	mov    DWORD PTR [eax],edi
  40bb1a:	call   0x40873c
  40bb1f:	add    esp,0x14
  40bb22:	mov    eax,edi
  40bb24:	jmp    0x40bbbf
  40bb29:	mov    ecx,DWORD PTR [ebp+0x10]
  40bb2c:	cmp    ecx,ebx
  40bb2e:	jbe    0x40bb0e
  40bb30:	mov    eax,DWORD PTR [ebp-0x2c]
  40bb33:	dec    eax
  40bb34:	mov    DWORD PTR [ebp-0x20],eax
  40bb37:	xor    eax,eax
  40bb39:	cmp    DWORD PTR [ebp-0x30],0x2d
  40bb3d:	sete   al
  40bb40:	lea    edi,[eax+esi*1]
  40bb43:	cmp    ecx,0xffffffff
  40bb46:	jne    0x40bb4c
  40bb48:	or     ecx,ecx
  40bb4a:	jmp    0x40bb4e
  40bb4c:	sub    ecx,eax
  40bb4e:	lea    eax,[ebp-0x30]
  40bb51:	push   eax
  40bb52:	push   DWORD PTR [ebp+0x14]
  40bb55:	push   ecx
  40bb56:	push   edi
  40bb57:	call   0x4118d5
  40bb5c:	add    esp,0x10
  40bb5f:	cmp    eax,ebx
  40bb61:	je     0x40bb67
  40bb63:	mov    BYTE PTR [esi],bl
  40bb65:	jmp    0x40bbbf
  40bb67:	mov    eax,DWORD PTR [ebp-0x2c]
  40bb6a:	dec    eax
  40bb6b:	cmp    DWORD PTR [ebp-0x20],eax
  40bb6e:	setl   cl
  40bb71:	cmp    eax,0xfffffffc
  40bb74:	jl     0x40bba3
  40bb76:	cmp    eax,DWORD PTR [ebp+0x14]
  40bb79:	jge    0x40bba3
  40bb7b:	cmp    cl,bl
  40bb7d:	je     0x40bb89
  40bb7f:	mov    al,BYTE PTR [edi]
  40bb81:	inc    edi
  40bb82:	test   al,al
  40bb84:	jne    0x40bb7f
  40bb86:	mov    BYTE PTR [edi-0x2],bl
  40bb89:	push   DWORD PTR [ebp+0x1c]
  40bb8c:	lea    eax,[ebp-0x30]
  40bb8f:	push   0x1
  40bb91:	push   DWORD PTR [ebp+0x14]
  40bb94:	mov    ecx,esi
  40bb96:	push   DWORD PTR [ebp+0x10]
  40bb99:	call   0x40b922
  40bb9e:	add    esp,0x10
  40bba1:	jmp    0x40bbbf
  40bba3:	push   DWORD PTR [ebp+0x1c]
  40bba6:	lea    eax,[ebp-0x30]
  40bba9:	push   0x1
  40bbab:	push   eax
  40bbac:	push   DWORD PTR [ebp+0x18]
  40bbaf:	mov    eax,esi
  40bbb1:	push   DWORD PTR [ebp+0x14]
  40bbb4:	push   DWORD PTR [ebp+0x10]
  40bbb7:	call   0x40b350
  40bbbc:	add    esp,0x18
  40bbbf:	mov    ecx,DWORD PTR [ebp-0x4]
  40bbc2:	pop    edi
  40bbc3:	pop    esi
  40bbc4:	xor    ecx,ebp
  40bbc6:	pop    ebx
  40bbc7:	call   0x40efb3
  40bbcc:	leave  
  40bbcd:	ret    
  40bbce:	mov    edi,edi
  40bbd0:	push   ebp
  40bbd1:	mov    ebp,esp
  40bbd3:	mov    eax,DWORD PTR [ebp+0x14]
  40bbd6:	cmp    eax,0x65
  40bbd9:	je     0x40bc3a
  40bbdb:	cmp    eax,0x45
  40bbde:	je     0x40bc3a
  40bbe0:	cmp    eax,0x66
  40bbe3:	jne    0x40bbfe
  40bbe5:	push   DWORD PTR [ebp+0x20]
  40bbe8:	push   DWORD PTR [ebp+0x18]
  40bbeb:	push   DWORD PTR [ebp+0x10]
  40bbee:	push   DWORD PTR [ebp+0xc]
  40bbf1:	push   DWORD PTR [ebp+0x8]
  40bbf4:	call   0x40ba19
  40bbf9:	add    esp,0x14
  40bbfc:	pop    ebp
  40bbfd:	ret    
  40bbfe:	cmp    eax,0x61
  40bc01:	je     0x40bc21
  40bc03:	cmp    eax,0x41
  40bc06:	je     0x40bc21
  40bc08:	push   DWORD PTR [ebp+0x20]
  40bc0b:	push   DWORD PTR [ebp+0x1c]
  40bc0e:	push   DWORD PTR [ebp+0x18]
  40bc11:	push   DWORD PTR [ebp+0x10]
  40bc14:	push   DWORD PTR [ebp+0xc]
  40bc17:	push   DWORD PTR [ebp+0x8]
  40bc1a:	call   0x40bad4
  40bc1f:	jmp    0x40bc51
  40bc21:	push   DWORD PTR [ebp+0x20]
  40bc24:	push   DWORD PTR [ebp+0x1c]
  40bc27:	push   DWORD PTR [ebp+0x18]
  40bc2a:	push   DWORD PTR [ebp+0x10]
  40bc2d:	push   DWORD PTR [ebp+0xc]
  40bc30:	push   DWORD PTR [ebp+0x8]
  40bc33:	call   0x40b5af
  40bc38:	jmp    0x40bc51
  40bc3a:	push   DWORD PTR [ebp+0x20]
  40bc3d:	push   DWORD PTR [ebp+0x1c]
  40bc40:	push   DWORD PTR [ebp+0x18]
  40bc43:	push   DWORD PTR [ebp+0x10]
  40bc46:	push   DWORD PTR [ebp+0xc]
  40bc49:	push   DWORD PTR [ebp+0x8]
  40bc4c:	call   0x40b4bf
  40bc51:	add    esp,0x18
  40bc54:	pop    ebp
  40bc55:	ret    
  40bc56:	mov    edi,edi
  40bc58:	push   ebp
  40bc59:	mov    ebp,esp
  40bc5b:	push   0x0
  40bc5d:	push   DWORD PTR [ebp+0x1c]
  40bc60:	push   DWORD PTR [ebp+0x18]
  40bc63:	push   DWORD PTR [ebp+0x14]
  40bc66:	push   DWORD PTR [ebp+0x10]
  40bc69:	push   DWORD PTR [ebp+0xc]
  40bc6c:	push   DWORD PTR [ebp+0x8]
  40bc6f:	call   0x40bbce
  40bc74:	add    esp,0x1c
  40bc77:	pop    ebp
  40bc78:	ret    
  40bc79:	mov    edi,edi
  40bc7b:	push   esi
  40bc7c:	push   edi
  40bc7d:	xor    edi,edi
  40bc7f:	lea    esi,[edi+0x423d90]
  40bc85:	push   DWORD PTR [esi]
  40bc87:	call   0x40891e
  40bc8c:	add    edi,0x4
  40bc8f:	pop    ecx
  40bc90:	mov    DWORD PTR [esi],eax
  40bc92:	cmp    edi,0x28
  40bc95:	jb     0x40bc7f
  40bc97:	pop    edi
  40bc98:	pop    esi
  40bc99:	ret    
  40bc9a:	mov    edi,edi
  40bc9c:	push   ebp
  40bc9d:	mov    ebp,esp
  40bc9f:	sub    esp,0x18
  40bca2:	fld    QWORD PTR ds:0x41d6c0
  40bca8:	fstp   QWORD PTR [ebp-0x10]
  40bcab:	fld    QWORD PTR ds:0x41d6b8
  40bcb1:	fstp   QWORD PTR [ebp-0x18]
  40bcb4:	fld    QWORD PTR [ebp-0x18]
  40bcb7:	fdiv   QWORD PTR [ebp-0x10]
  40bcba:	fmul   QWORD PTR [ebp-0x10]
  40bcbd:	fsubr  QWORD PTR [ebp-0x18]
  40bcc0:	fstp   QWORD PTR [ebp-0x8]
  40bcc3:	fld1   
  40bcc5:	fcomp  QWORD PTR [ebp-0x8]
  40bcc8:	fnstsw ax
  40bcca:	test   ah,0x5
  40bccd:	jp     0x40bcd4
  40bccf:	xor    eax,eax
  40bcd1:	inc    eax
  40bcd2:	leave  
  40bcd3:	ret    
  40bcd4:	xor    eax,eax
  40bcd6:	leave  
  40bcd7:	ret    
  40bcd8:	push   0x41d6e4
  40bcdd:	call   DWORD PTR ds:0x4194b8
  40bce3:	test   eax,eax
  40bce5:	je     0x40bcfc
  40bce7:	push   0x41d6c8
  40bcec:	push   eax
  40bced:	call   DWORD PTR ds:0x419268
  40bcf3:	test   eax,eax
  40bcf5:	je     0x40bcfc
  40bcf7:	push   0x0
  40bcf9:	call   eax
  40bcfb:	ret    
  40bcfc:	jmp    0x40bc9a
  40bd01:	int3   
  40bd02:	int3   
  40bd03:	int3   
  40bd04:	int3   
  40bd05:	int3   
  40bd06:	int3   
  40bd07:	int3   
  40bd08:	int3   
  40bd09:	int3   
  40bd0a:	int3   
  40bd0b:	int3   
  40bd0c:	int3   
  40bd0d:	int3   
  40bd0e:	int3   
  40bd0f:	int3   
  40bd10:	push   ebp
  40bd11:	mov    ebp,esp
  40bd13:	sub    esp,0x8
  40bd16:	and    esp,0xfffffff0
  40bd19:	fstp   QWORD PTR [esp]
  40bd1c:	movq   xmm0,QWORD PTR [esp]
  40bd21:	call   0x40bd2e
  40bd26:	leave  
  40bd27:	ret    
  40bd28:	movlpd xmm0,QWORD PTR [esp+0x4]
  40bd2e:	unpcklpd xmm0,xmm0
  40bd32:	movapd xmm1,XMMWORD PTR ds:0x41d750
  40bd3a:	movapd xmm6,XMMWORD PTR ds:0x41d730
  40bd42:	movapd xmm2,XMMWORD PTR ds:0x41d760
  40bd4a:	movapd xmm3,XMMWORD PTR ds:0x41d770
  40bd52:	pextrw eax,xmm0,0x3
  40bd57:	and    eax,0x7fff
  40bd5c:	mov    edx,0x408f
  40bd61:	sub    edx,eax
  40bd63:	sub    eax,0x3c90
  40bd68:	or     edx,eax
  40bd6a:	cmp    edx,0x80000000
  40bd70:	jae    0x40bf9e
  40bd76:	mulpd  xmm1,xmm0
  40bd7a:	addpd  xmm1,xmm6
  40bd7e:	movapd xmm7,xmm1
  40bd82:	subpd  xmm1,xmm6
  40bd86:	mulpd  xmm2,xmm1
  40bd8a:	movapd xmm4,XMMWORD PTR ds:0x41d780
  40bd92:	mulpd  xmm3,xmm1
  40bd96:	movapd xmm5,XMMWORD PTR ds:0x41d790
  40bd9e:	subpd  xmm0,xmm2
  40bda2:	movd   eax,xmm7
  40bda6:	mov    ecx,eax
  40bda8:	and    ecx,0x3f
  40bdab:	shl    ecx,0x4
  40bdae:	sar    eax,0x6
  40bdb1:	mov    edx,eax
  40bdb3:	subpd  xmm0,xmm3
  40bdb7:	movapd xmm2,XMMWORD PTR [ecx+0x41d7a0]
  40bdbf:	mulpd  xmm4,xmm0
  40bdc3:	movapd xmm1,xmm0
  40bdc7:	mulpd  xmm0,xmm0
  40bdcb:	addpd  xmm5,xmm4
  40bdcf:	mulsd  xmm0,xmm0
  40bdd3:	addsd  xmm1,xmm2
  40bdd7:	unpckhpd xmm2,xmm2
  40bddb:	movdqa xmm6,XMMWORD PTR ds:0x41d710
  40bde3:	pand   xmm7,xmm6
  40bde7:	movdqa xmm6,XMMWORD PTR ds:0x41d720
  40bdef:	paddq  xmm7,xmm6
  40bdf3:	psllq  xmm7,0x2e
  40bdf8:	mulpd  xmm0,xmm5
  40bdfc:	addsd  xmm1,xmm0
  40be00:	orpd   xmm2,xmm7
  40be04:	unpckhpd xmm0,xmm0
  40be08:	addsd  xmm0,xmm1
  40be0c:	add    edx,0x37e
  40be12:	cmp    edx,0x77c
  40be18:	ja     0x40be33
  40be1a:	mulsd  xmm0,xmm2
  40be1e:	sub    esp,0x10
  40be21:	addsd  xmm0,xmm2
  40be25:	movlpd QWORD PTR [esp+0x4],xmm0
  40be2b:	fld    QWORD PTR [esp+0x4]
  40be2f:	add    esp,0x10
  40be32:	ret    
  40be33:	sub    esp,0x12
  40be36:	fstcw  WORD PTR [esp+0x10]
  40be3b:	mov    dx,WORD PTR [esp+0x10]
  40be40:	or     dx,0x300
  40be45:	mov    WORD PTR [esp],dx
  40be49:	fldcw  WORD PTR [esp]
  40be4c:	mov    edx,eax
  40be4e:	sar    eax,1
  40be50:	sub    edx,eax
  40be52:	movdqa xmm6,XMMWORD PTR ds:0x41d700
  40be5a:	pandn  xmm6,xmm2
  40be5e:	add    eax,0x3ff
  40be63:	movd   xmm3,eax
  40be67:	psllq  xmm3,0x34
  40be6c:	orpd   xmm6,xmm3
  40be70:	add    edx,0x3ff
  40be76:	movd   xmm4,edx
  40be7a:	psllq  xmm4,0x34
  40be7f:	movlpd QWORD PTR [esp],xmm0
  40be84:	fld    QWORD PTR [esp]
  40be87:	movlpd QWORD PTR [esp+0x8],xmm6
  40be8d:	fld    QWORD PTR [esp+0x8]
  40be91:	fmul   st(1),st
  40be93:	faddp  st(1),st
  40be95:	movlpd QWORD PTR [esp],xmm4
  40be9a:	fld    QWORD PTR [esp]
  40be9d:	fmulp  st(1),st
  40be9f:	fstp   QWORD PTR [esp]
  40bea2:	movlpd xmm0,QWORD PTR [esp]
  40bea7:	fldcw  WORD PTR [esp+0x10]
  40beab:	add    esp,0x12
  40beae:	pextrw ecx,xmm0,0x3
  40beb3:	and    ecx,0x7ff0
  40beb9:	cmp    ecx,0x7ff0
  40bebf:	jae    0x40bee8
  40bec1:	cmp    ecx,0x0
  40bec4:	je     0x40beef
  40bec6:	jmp    0x40bf22
  40bec8:	cmp    ecx,0x80000000
  40bece:	jb     0x40bee8
  40bed0:	cmp    ecx,0xc086232b
  40bed6:	jb     0x40bf22
  40bed8:	ja     0x40beef
  40beda:	mov    edx,DWORD PTR [esp+0x4]
  40bede:	cmp    edx,0xfefa39ef
  40bee4:	jb     0x40bf22
  40bee6:	jmp    0x40beef
  40bee8:	mov    edx,0xe
  40beed:	jmp    0x40bef4
  40beef:	mov    edx,0xf
  40bef4:	sub    esp,0x1c
  40bef7:	movlpd QWORD PTR [esp+0x10],xmm0
  40befd:	mov    DWORD PTR [esp+0xc],edx
  40bf01:	mov    edx,esp
  40bf03:	add    edx,0x10
  40bf06:	mov    DWORD PTR [esp+0x8],edx
  40bf0a:	add    edx,0x10
  40bf0d:	mov    DWORD PTR [esp+0x4],edx
  40bf11:	mov    DWORD PTR [esp],edx
  40bf14:	call   0x40ae19
  40bf19:	movlpd xmm0,QWORD PTR [esp+0x10]
  40bf1f:	add    esp,0x1c
  40bf22:	sub    esp,0x10
  40bf25:	movlpd QWORD PTR [esp+0x4],xmm0
  40bf2b:	fld    QWORD PTR [esp+0x4]
  40bf2f:	add    esp,0x10
  40bf32:	ret    
  40bf33:	cmp    eax,0x7ff00000
  40bf38:	jae    0x40bf6b
  40bf3a:	mov    eax,DWORD PTR [esp+0x8]
  40bf3e:	cmp    eax,0x80000000
  40bf43:	jae    0x40bf58
  40bf45:	movlpd xmm0,QWORD PTR ds:0x41dbd0
  40bf4d:	mulsd  xmm0,xmm0
  40bf51:	mov    edx,0xe
  40bf56:	jmp    0x40bef4
  40bf58:	movlpd xmm0,QWORD PTR ds:0x41dbd8
  40bf60:	mulsd  xmm0,xmm0
  40bf64:	mov    edx,0xf
  40bf69:	jmp    0x40bef4
  40bf6b:	mov    edx,DWORD PTR [esp+0x4]
  40bf6f:	cmp    eax,0x7ff00000
  40bf74:	ja     0x40bf94
  40bf76:	cmp    edx,0x0
  40bf79:	jne    0x40bf94
  40bf7b:	mov    eax,DWORD PTR [esp+0x8]
  40bf7f:	cmp    eax,0x7ff00000
  40bf84:	jne    0x40bf8d
  40bf86:	fld    QWORD PTR ds:0x41dbc0
  40bf8c:	ret    
  40bf8d:	fld    QWORD PTR ds:0x41dbc8
  40bf93:	ret    
  40bf94:	mov    edx,0x3ea
  40bf99:	jmp    0x40bef4
  40bf9e:	mov    eax,DWORD PTR [esp+0x8]
  40bfa2:	and    eax,0x7fffffff
  40bfa7:	cmp    eax,0x40900000
  40bfac:	jae    0x40bf33
  40bfae:	movlpd xmm0,QWORD PTR [esp+0x4]
  40bfb4:	addsd  xmm0,QWORD PTR ds:0x41dba0
  40bfbc:	sub    esp,0x10
  40bfbf:	movlpd QWORD PTR [esp+0x4],xmm0
  40bfc5:	fld    QWORD PTR [esp+0x4]
  40bfc9:	add    esp,0x10
  40bfcc:	ret    
  40bfcd:	lea    ecx,[ecx+0x0]
  40bfd0:	push   ebp
  40bfd1:	mov    ebp,esp
  40bfd3:	add    esp,0xfffffd30
  40bfd9:	push   ebx
  40bfda:	fstcw  WORD PTR [ebp-0xa4]
  40bfe1:	fwait
  40bfe2:	cmp    DWORD PTR ds:0x4242c0,0x0
  40bfe9:	je     0x40bfff
  40bfeb:	call   0x408047
  40bff0:	or     BYTE PTR [ebp-0x2c8],0x3
  40bff7:	call   0x40c09a
  40bffc:	pop    ebx
  40bffd:	leave  
  40bffe:	ret    
  40bfff:	fxch   st(1)
  40c001:	fst    QWORD PTR [ebp-0x86]
  40c007:	fxch   st(1)
  40c009:	fst    QWORD PTR [ebp-0x7e]
  40c00c:	jmp    0x40bfeb
  40c00e:	push   ebp
  40c00f:	mov    ebp,esp
  40c011:	add    esp,0xfffffd30
  40c017:	push   ebx
  40c018:	fstcw  WORD PTR [ebp-0xa4]
  40c01f:	cmp    DWORD PTR ds:0x4242c0,0x0
  40c026:	je     0x40c043
  40c028:	call   0x407fe0
  40c02d:	or     BYTE PTR [ebp-0x2c8],0x1
  40c034:	and    BYTE PTR [ebp-0x2c8],0xfd
  40c03b:	call   0x40c09a
  40c040:	pop    ebx
  40c041:	leave  
  40c042:	ret    
  40c043:	fst    QWORD PTR [ebp-0x86]
  40c049:	jmp    0x40c028
  40c04b:	push   ebp
  40c04c:	mov    ebp,esp
  40c04e:	add    esp,0xfffffd30
  40c054:	push   ebx
  40c055:	push   DWORD PTR [ebp+0xc]
  40c058:	push   DWORD PTR [ebp+0x8]
  40c05b:	call   0x40c214
  40c060:	add    esp,0x8
  40c063:	push   DWORD PTR [ebp+0x14]
  40c066:	push   DWORD PTR [ebp+0x10]
  40c069:	call   0x40c214
  40c06e:	add    esp,0x8
  40c071:	fstcw  WORD PTR [ebp-0xa4]
  40c078:	or     BYTE PTR [ebp-0x2c8],0x2
  40c07f:	mov    BYTE PTR [ebp-0x8f],0x1
  40c086:	call   0x408047
  40c08b:	call   0x40c093
  40c090:	pop    ebx
  40c091:	leave  
  40c092:	ret    
  40c093:	and    BYTE PTR [ebp-0x2c8],0xfe
  40c09a:	cmp    DWORD PTR ds:0x43bf9c,0x0
  40c0a1:	jne    0x40c0f2
  40c0a3:	fst    QWORD PTR [ebp-0x2d0]
  40c0a9:	mov    al,BYTE PTR [ebp-0x90]
  40c0af:	or     al,al
  40c0b1:	je     0x40c0cd
  40c0b3:	cmp    al,0xff
  40c0b5:	je     0x40c112
  40c0b7:	cmp    al,0xfe
  40c0b9:	je     0x40c0fa
  40c0bb:	or     al,al
  40c0bd:	je     0x40c0f2
  40c0bf:	movsx  eax,al
  40c0c2:	mov    DWORD PTR [ebp-0x8e],eax
  40c0c8:	jmp    0x40c17f
  40c0cd:	mov    ax,WORD PTR [ebp-0xa4]
  40c0d4:	and    ax,0x20
  40c0d8:	jne    0x40c0f2
  40c0da:	fstsw  ax
  40c0dd:	and    ax,0x20
  40c0e1:	je     0x40c0f2
  40c0e3:	mov    DWORD PTR [ebp-0x8e],0x8
  40c0ed:	jmp    0x40c17f
  40c0f2:	fldcw  WORD PTR [ebp-0xa4]
  40c0f8:	fwait
  40c0f9:	ret    
  40c0fa:	mov    ax,WORD PTR [ebp-0x2ca]
  40c101:	and    ax,0x7ff0
  40c105:	or     ax,ax
  40c108:	je     0x40c125
  40c10a:	cmp    ax,0x7ff0
  40c10e:	je     0x40c153
  40c110:	jmp    0x40c0cd
  40c112:	mov    ax,WORD PTR [ebp-0x2ca]
  40c119:	and    ax,0x7ff0
  40c11d:	cmp    ax,0x7ff0
  40c121:	je     0x40c153
  40c123:	jmp    0x40c0cd
  40c125:	mov    DWORD PTR [ebp-0x8e],0x4
  40c12f:	fld    QWORD PTR ds:0x41dc08
  40c135:	fxch   st(1)
  40c137:	fscale 
  40c139:	fstp   st(1)
  40c13b:	fld    st(0)
  40c13d:	fabs   
  40c13f:	fcomp  QWORD PTR ds:0x41dbf8
  40c145:	fstsw  ax
  40c148:	sahf   
  40c149:	jae    0x40c17f
  40c14b:	fmul   QWORD PTR ds:0x41dc18
  40c151:	jmp    0x40c17f
  40c153:	mov    DWORD PTR [ebp-0x8e],0x3
  40c15d:	fld    QWORD PTR ds:0x41dc00
  40c163:	fxch   st(1)
  40c165:	fscale 
  40c167:	fstp   st(1)
  40c169:	fld    st(0)
  40c16b:	fabs   
  40c16d:	fcomp  QWORD PTR ds:0x41dbf0
  40c173:	fstsw  ax
  40c176:	sahf   
  40c177:	jbe    0x40c17f
  40c179:	fmul   QWORD PTR ds:0x41dc10
  40c17f:	push   esi
  40c180:	push   edi
  40c181:	mov    ebx,DWORD PTR [ebp-0x94]
  40c187:	inc    ebx
  40c188:	mov    DWORD PTR [ebp-0x8a],ebx
  40c18e:	test   BYTE PTR [ebp-0x2c8],0x1
  40c195:	jne    0x40c1b1
  40c197:	cld    
  40c198:	lea    esi,[ebp+0x8]
  40c19b:	lea    edi,[ebp-0x86]
  40c1a1:	movs   DWORD PTR es:[edi],DWORD PTR ds:[esi]
  40c1a2:	movs   DWORD PTR es:[edi],DWORD PTR ds:[esi]
  40c1a3:	cmp    BYTE PTR [ebx+0xc],0x1
  40c1a7:	je     0x40c1b1
  40c1a9:	lea    esi,[ebp+0x10]
  40c1ac:	lea    edi,[ebp-0x7e]
  40c1af:	movs   DWORD PTR es:[edi],DWORD PTR ds:[esi]
  40c1b0:	movs   DWORD PTR es:[edi],DWORD PTR ds:[esi]
  40c1b1:	fstp   QWORD PTR [ebp-0x76]
  40c1b4:	lea    eax,[ebp-0x8e]
  40c1ba:	lea    ebx,[ebp-0xa4]
  40c1c0:	push   ebx
  40c1c1:	push   eax
  40c1c2:	mov    ebx,DWORD PTR [ebp-0x94]
  40c1c8:	mov    al,BYTE PTR [ebx+0xe]
  40c1cb:	movsx  eax,al
  40c1ce:	push   eax
  40c1cf:	call   0x40eb8b
  40c1d4:	add    esp,0xc
  40c1d7:	pop    edi
  40c1d8:	pop    esi
  40c1d9:	fld    QWORD PTR [ebp-0x76]
  40c1dc:	jmp    0x40c0f2
  40c1e1:	push   ebp
  40c1e2:	mov    ebp,esp
  40c1e4:	add    esp,0xfffffd30
  40c1ea:	push   ebx
  40c1eb:	push   DWORD PTR [ebp+0xc]
  40c1ee:	push   DWORD PTR [ebp+0x8]
  40c1f1:	call   0x40c214
  40c1f6:	add    esp,0x8
  40c1f9:	fstcw  WORD PTR [ebp-0xa4]
  40c200:	and    BYTE PTR [ebp-0x2c8],0xfd
  40c207:	call   0x407fe0
  40c20c:	call   0x40c093
  40c211:	pop    ebx
  40c212:	leave  
  40c213:	ret    
  40c214:	push   ebp
  40c215:	mov    ebp,esp
  40c217:	add    esp,0xfffffff4
  40c21a:	push   ebx
  40c21b:	mov    ax,WORD PTR [ebp+0xe]
  40c21f:	mov    bx,ax
  40c222:	and    ax,0x7ff0
  40c226:	cmp    ax,0x7ff0
  40c22a:	jne    0x40c24a
  40c22c:	or     bx,0x7fff
  40c231:	mov    WORD PTR [ebp-0x2],bx
  40c235:	mov    eax,DWORD PTR [ebp+0xc]
  40c238:	mov    ebx,DWORD PTR [ebp+0x8]
  40c23b:	shld   eax,ebx,0xb
  40c23f:	mov    DWORD PTR [ebp-0x6],eax
  40c242:	mov    DWORD PTR [ebp-0xa],ebx
  40c245:	fld    TBYTE PTR [ebp-0xa]
  40c248:	jmp    0x40c24d
  40c24a:	fld    QWORD PTR [ebp+0x8]
  40c24d:	pop    ebx
  40c24e:	leave  
  40c24f:	ret    
  40c250:	mov    edi,edi
  40c252:	push   ebp
  40c253:	mov    ebp,esp
  40c255:	call   0x4085ed
  40c25a:	mov    ecx,DWORD PTR [ebp+0x8]
  40c25d:	mov    DWORD PTR [eax],ecx
  40c25f:	pop    ebp
  40c260:	ret    
  40c261:	mov    edi,edi
  40c263:	push   ebp
  40c264:	mov    ebp,esp
  40c266:	call   0x4085f3
  40c26b:	mov    ecx,DWORD PTR [ebp+0x8]
  40c26e:	mov    DWORD PTR [eax],ecx
  40c270:	pop    ebp
  40c271:	ret    
  40c272:	mov    edi,edi
  40c274:	push   ebp
  40c275:	mov    ebp,esp
  40c277:	call   0x4085f9
  40c27c:	mov    ecx,DWORD PTR [ebp+0x8]
  40c27f:	mov    DWORD PTR [eax],ecx
  40c281:	pop    ebp
  40c282:	ret    
  40c283:	push   0x2c
  40c285:	push   0x41ef08
  40c28a:	call   0x40a868
  40c28f:	xor    ebx,ebx
  40c291:	mov    DWORD PTR [ebp-0x38],ebx
  40c294:	mov    DWORD PTR [ebp-0x2c],ebx
  40c297:	mov    DWORD PTR [ebp-0x1c],ebx
  40c29a:	mov    DWORD PTR [ebp-0x24],ebx
  40c29d:	mov    DWORD PTR [ebp-0x28],ebx
  40c2a0:	mov    DWORD PTR [ebp-0x20],ebx
  40c2a3:	push   0x7
  40c2a5:	call   0x40f60b
  40c2aa:	pop    ecx
  40c2ab:	mov    DWORD PTR [ebp-0x4],ebx
  40c2ae:	call   0x4085ff
  40c2b3:	mov    DWORD PTR [ebp-0x20],eax
  40c2b6:	lea    eax,[ebp-0x1c]
  40c2b9:	push   eax
  40c2ba:	call   0x4085b4
  40c2bf:	pop    ecx
  40c2c0:	cmp    eax,ebx
  40c2c2:	je     0x40c2d1
  40c2c4:	push   ebx
  40c2c5:	push   ebx
  40c2c6:	push   ebx
  40c2c7:	push   ebx
  40c2c8:	push   ebx
  40c2c9:	call   0x408614
  40c2ce:	add    esp,0x14
  40c2d1:	lea    eax,[ebp-0x24]
  40c2d4:	push   eax
  40c2d5:	call   0x408542
  40c2da:	pop    ecx
  40c2db:	cmp    eax,ebx
  40c2dd:	je     0x40c2ec
  40c2df:	push   ebx
  40c2e0:	push   ebx
  40c2e1:	push   ebx
  40c2e2:	push   ebx
  40c2e3:	push   ebx
  40c2e4:	call   0x408614
  40c2e9:	add    esp,0x14
  40c2ec:	lea    eax,[ebp-0x28]
  40c2ef:	push   eax
  40c2f0:	call   0x40857b
  40c2f5:	pop    ecx
  40c2f6:	cmp    eax,ebx
  40c2f8:	je     0x40c307
  40c2fa:	push   ebx
  40c2fb:	push   ebx
  40c2fc:	push   ebx
  40c2fd:	push   ebx
  40c2fe:	push   ebx
  40c2ff:	call   0x408614
  40c304:	add    esp,0x14
  40c307:	call   0x40ff3a
  40c30c:	mov    DWORD PTR [ebp-0x34],eax
  40c30f:	mov    DWORD PTR ds:0x43c0dc,ebx
  40c315:	or     edi,0xffffffff
  40c318:	mov    DWORD PTR ds:0x423dcc,edi
  40c31e:	mov    DWORD PTR ds:0x423dc0,edi
  40c324:	push   0x41dc20
  40c329:	call   0x411c0e
  40c32e:	pop    ecx
  40c32f:	mov    esi,eax
  40c331:	mov    DWORD PTR [ebp-0x3c],esi
  40c334:	cmp    esi,ebx
  40c336:	je     0x40c3b4
  40c338:	cmp    BYTE PTR [esi],bl
  40c33a:	je     0x40c3b4
  40c33c:	mov    eax,ds:0x43c0e0
  40c341:	cmp    eax,ebx
  40c343:	je     0x40c366
  40c345:	push   eax
  40c346:	push   esi
  40c347:	call   0x4100e0
  40c34c:	pop    ecx
  40c34d:	pop    ecx
  40c34e:	test   eax,eax
  40c350:	je     0x40c49f
  40c356:	mov    eax,ds:0x43c0e0
  40c35b:	cmp    eax,ebx
  40c35d:	je     0x40c366
  40c35f:	push   eax
  40c360:	call   0x40f63e
  40c365:	pop    ecx
  40c366:	push   esi
  40c367:	call   0x40ef20
  40c36c:	inc    eax
  40c36d:	push   eax
  40c36e:	call   0x4087ed
  40c373:	pop    ecx
  40c374:	pop    ecx
  40c375:	mov    ds:0x43c0e0,eax
  40c37a:	cmp    eax,ebx
  40c37c:	je     0x40c49f
  40c382:	push   esi
  40c383:	push   esi
  40c384:	call   0x40ef20
  40c389:	pop    ecx
  40c38a:	inc    eax
  40c38b:	push   eax
  40c38c:	push   DWORD PTR ds:0x43c0e0
  40c392:	call   0x40eeb7
  40c397:	add    esp,0xc
  40c39a:	cmp    eax,ebx
  40c39c:	je     0x40c4a6
  40c3a2:	push   ebx
  40c3a3:	push   ebx
  40c3a4:	push   ebx
  40c3a5:	push   ebx
  40c3a6:	push   ebx
  40c3a7:	call   0x408614
  40c3ac:	add    esp,0x14
  40c3af:	jmp    0x40c4a6
  40c3b4:	mov    eax,ds:0x43c0e0
  40c3b9:	cmp    eax,ebx
  40c3bb:	je     0x40c3ca
  40c3bd:	push   eax
  40c3be:	call   0x40f63e
  40c3c3:	pop    ecx
  40c3c4:	mov    DWORD PTR ds:0x43c0e0,ebx
  40c3ca:	push   0x43c030
  40c3cf:	call   DWORD PTR ds:0x4193d0
  40c3d5:	cmp    eax,edi
  40c3d7:	je     0x40c49f
  40c3dd:	xor    ecx,ecx
  40c3df:	inc    ecx
  40c3e0:	mov    DWORD PTR ds:0x43c0dc,ecx
  40c3e6:	mov    eax,ds:0x43c030
  40c3eb:	imul   eax,eax,0x3c
  40c3ee:	mov    DWORD PTR [ebp-0x1c],eax
  40c3f1:	cmp    WORD PTR ds:0x43c076,bx
  40c3f8:	je     0x40c408
  40c3fa:	mov    edx,DWORD PTR ds:0x43c084
  40c400:	imul   edx,edx,0x3c
  40c403:	add    eax,edx
  40c405:	mov    DWORD PTR [ebp-0x1c],eax
  40c408:	cmp    WORD PTR ds:0x43c0ca,bx
  40c40f:	je     0x40c42b
  40c411:	mov    eax,ds:0x43c0d8
  40c416:	cmp    eax,ebx
  40c418:	je     0x40c42b
  40c41a:	mov    DWORD PTR [ebp-0x24],ecx
  40c41d:	sub    eax,DWORD PTR ds:0x43c084
  40c423:	imul   eax,eax,0x3c
  40c426:	mov    DWORD PTR [ebp-0x28],eax
  40c429:	jmp    0x40c431
  40c42b:	mov    DWORD PTR [ebp-0x24],ebx
  40c42e:	mov    DWORD PTR [ebp-0x28],ebx
  40c431:	lea    eax,[ebp-0x30]
  40c434:	push   eax
  40c435:	push   ebx
  40c436:	push   0x3f
  40c438:	mov    eax,DWORD PTR [ebp-0x20]
  40c43b:	push   DWORD PTR [eax]
  40c43d:	push   edi
  40c43e:	push   0x43c034
  40c443:	push   ebx
  40c444:	push   DWORD PTR [ebp-0x34]
  40c447:	mov    edi,DWORD PTR ds:0x4192dc
  40c44d:	call   edi
  40c44f:	test   eax,eax
  40c451:	je     0x40c462
  40c453:	cmp    DWORD PTR [ebp-0x30],ebx
  40c456:	jne    0x40c462
  40c458:	mov    eax,DWORD PTR [ebp-0x20]
  40c45b:	mov    eax,DWORD PTR [eax]
  40c45d:	mov    BYTE PTR [eax+0x3f],bl
  40c460:	jmp    0x40c469
  40c462:	mov    eax,DWORD PTR [ebp-0x20]
  40c465:	mov    eax,DWORD PTR [eax]
  40c467:	mov    BYTE PTR [eax],bl
  40c469:	lea    eax,[ebp-0x30]
  40c46c:	push   eax
  40c46d:	push   ebx
  40c46e:	push   0x3f
  40c470:	mov    eax,DWORD PTR [ebp-0x20]
  40c473:	push   DWORD PTR [eax+0x4]
  40c476:	push   0xffffffff
  40c478:	push   0x43c088
  40c47d:	push   ebx
  40c47e:	push   DWORD PTR [ebp-0x34]
  40c481:	call   edi
  40c483:	test   eax,eax
  40c485:	je     0x40c497
  40c487:	cmp    DWORD PTR [ebp-0x30],ebx
  40c48a:	jne    0x40c497
  40c48c:	mov    eax,DWORD PTR [ebp-0x20]
  40c48f:	mov    eax,DWORD PTR [eax+0x4]
  40c492:	mov    BYTE PTR [eax+0x3f],bl
  40c495:	jmp    0x40c49f
  40c497:	mov    eax,DWORD PTR [ebp-0x20]
  40c49a:	mov    eax,DWORD PTR [eax+0x4]
  40c49d:	mov    BYTE PTR [eax],bl
  40c49f:	mov    DWORD PTR [ebp-0x2c],0x1
  40c4a6:	push   DWORD PTR [ebp-0x1c]
  40c4a9:	call   0x40c272
  40c4ae:	push   DWORD PTR [ebp-0x24]
  40c4b1:	call   0x40c250
  40c4b6:	push   DWORD PTR [ebp-0x28]
  40c4b9:	call   0x40c261
  40c4be:	add    esp,0xc
  40c4c1:	mov    DWORD PTR [ebp-0x4],0xfffffffe
  40c4c8:	call   0x40c52f
  40c4cd:	cmp    DWORD PTR [ebp-0x2c],ebx
  40c4d0:	jne    0x40c5c3
  40c4d6:	push   0x3
  40c4d8:	push   esi
  40c4d9:	push   0x40
  40c4db:	mov    edi,DWORD PTR [ebp-0x20]
  40c4de:	push   DWORD PTR [edi]
  40c4e0:	call   0x410026
  40c4e5:	add    esp,0x10
  40c4e8:	test   eax,eax
  40c4ea:	je     0x40c4f9
  40c4ec:	push   ebx
  40c4ed:	push   ebx
  40c4ee:	push   ebx
  40c4ef:	push   ebx
  40c4f0:	push   ebx
  40c4f1:	call   0x408614
  40c4f6:	add    esp,0x14
  40c4f9:	add    esi,0x3
  40c4fc:	cmp    BYTE PTR [esi],0x2d
  40c4ff:	jne    0x40c509
  40c501:	mov    DWORD PTR [ebp-0x38],0x1
  40c508:	inc    esi
  40c509:	push   esi
  40c50a:	call   0x411bf8
  40c50f:	pop    ecx
  40c510:	imul   eax,eax,0xe10
  40c516:	mov    DWORD PTR [ebp-0x1c],eax
  40c519:	mov    al,BYTE PTR [esi]
  40c51b:	cmp    al,0x2b
  40c51d:	je     0x40c527
  40c51f:	cmp    al,0x30
  40c521:	jl     0x40c538
  40c523:	cmp    al,0x39
  40c525:	jg     0x40c538
  40c527:	inc    esi
  40c528:	jmp    0x40c519
  40c52a:	xor    ebx,ebx
  40c52c:	mov    esi,DWORD PTR [ebp-0x3c]
  40c52f:	push   0x7
  40c531:	call   0x40f531
  40c536:	pop    ecx
  40c537:	ret    
  40c538:	cmp    BYTE PTR [esi],0x3a
  40c53b:	jne    0x40c575
  40c53d:	inc    esi
  40c53e:	push   esi
  40c53f:	call   0x411bf8
  40c544:	pop    ecx
  40c545:	imul   eax,eax,0x3c
  40c548:	add    DWORD PTR [ebp-0x1c],eax
  40c54b:	jmp    0x40c552
  40c54d:	cmp    al,0x39
  40c54f:	jg     0x40c558
  40c551:	inc    esi
  40c552:	mov    al,BYTE PTR [esi]
  40c554:	cmp    al,0x30
  40c556:	jge    0x40c54d
  40c558:	cmp    BYTE PTR [esi],0x3a
  40c55b:	jne    0x40c575
  40c55d:	inc    esi
  40c55e:	push   esi
  40c55f:	call   0x411bf8
  40c564:	pop    ecx
  40c565:	add    DWORD PTR [ebp-0x1c],eax
  40c568:	jmp    0x40c56f
  40c56a:	cmp    al,0x39
  40c56c:	jg     0x40c575
  40c56e:	inc    esi
  40c56f:	mov    al,BYTE PTR [esi]
  40c571:	cmp    al,0x30
  40c573:	jge    0x40c56a
  40c575:	cmp    DWORD PTR [ebp-0x38],ebx
  40c578:	je     0x40c57d
  40c57a:	neg    DWORD PTR [ebp-0x1c]
  40c57d:	movsx  eax,BYTE PTR [esi]
  40c580:	mov    DWORD PTR [ebp-0x24],eax
  40c583:	cmp    eax,ebx
  40c585:	je     0x40c5aa
  40c587:	push   0x3
  40c589:	push   esi
  40c58a:	push   0x40
  40c58c:	push   DWORD PTR [edi+0x4]
  40c58f:	call   0x410026
  40c594:	add    esp,0x10
  40c597:	test   eax,eax
  40c599:	je     0x40c5af
  40c59b:	push   ebx
  40c59c:	push   ebx
  40c59d:	push   ebx
  40c59e:	push   ebx
  40c59f:	push   ebx
  40c5a0:	call   0x408614
  40c5a5:	add    esp,0x14
  40c5a8:	jmp    0x40c5af
  40c5aa:	mov    eax,DWORD PTR [edi+0x4]
  40c5ad:	mov    BYTE PTR [eax],bl
  40c5af:	mov    esi,DWORD PTR [ebp-0x1c]
  40c5b2:	call   0x4085f9
  40c5b7:	mov    DWORD PTR [eax],esi
  40c5b9:	mov    esi,DWORD PTR [ebp-0x24]
  40c5bc:	call   0x4085ed
  40c5c1:	mov    DWORD PTR [eax],esi
  40c5c3:	call   0x40a8ad
  40c5c8:	ret    
  40c5c9:	mov    edi,edi
  40c5cb:	push   ebp
  40c5cc:	mov    ebp,esp
  40c5ce:	sub    esp,0xc
  40c5d1:	and    DWORD PTR [ebp-0x4],0x0
  40c5d5:	cmp    DWORD PTR [ebp+0xc],0x1
  40c5d9:	push   ebx
  40c5da:	push   esi
  40c5db:	push   edi
  40c5dc:	mov    edi,DWORD PTR [ebp+0x10]
  40c5df:	mov    esi,eax
  40c5e1:	mov    eax,edi
  40c5e3:	jne    0x40c6e2
  40c5e9:	and    eax,0x80000003
  40c5ee:	jns    0x40c5f5
  40c5f0:	dec    eax
  40c5f1:	or     eax,0xfffffffc
  40c5f4:	inc    eax
  40c5f5:	mov    DWORD PTR [ebp-0xc],eax
  40c5f8:	jne    0x40c606
  40c5fa:	mov    eax,edi
  40c5fc:	push   0x64
  40c5fe:	cdq    
  40c5ff:	pop    ebx
  40c600:	idiv   ebx
  40c602:	test   edx,edx
  40c604:	jne    0x40c625
  40c606:	lea    eax,[edi+0x76c]
  40c60c:	cdq    
  40c60d:	mov    ebx,0x190
  40c612:	idiv   ebx
  40c614:	test   edx,edx
  40c616:	je     0x40c625
  40c618:	mov    eax,esi
  40c61a:	shl    eax,0x2
  40c61d:	mov    esi,DWORD PTR [eax+0x423318]
  40c623:	jmp    0x40c630
  40c625:	mov    eax,esi
  40c627:	shl    eax,0x2
  40c62a:	mov    esi,DWORD PTR [eax+0x4232e4]
  40c630:	mov    DWORD PTR [ebp+0xc],eax
  40c633:	lea    eax,[edi+0x12b]
  40c639:	cdq    
  40c63a:	lea    ebx,[edi-0x1]
  40c63d:	mov    edi,0x190
  40c642:	idiv   edi
  40c644:	push   0x64
  40c646:	pop    edi
  40c647:	inc    esi
  40c648:	push   0x7
  40c64a:	mov    DWORD PTR [ebp-0x8],eax
  40c64d:	mov    eax,ebx
  40c64f:	cdq    
  40c650:	idiv   edi
  40c652:	mov    edx,DWORD PTR [ebp-0x8]
  40c655:	mov    edi,DWORD PTR [ebp+0x10]
  40c658:	sub    edx,eax
  40c65a:	mov    ebx,edx
  40c65c:	lea    eax,[edi-0x1]
  40c65f:	cdq    
  40c660:	and    edx,0x3
  40c663:	add    eax,edx
  40c665:	sar    eax,0x2
  40c668:	mov    edx,edi
  40c66a:	imul   edx,edx,0x16d
  40c670:	add    eax,esi
  40c672:	add    eax,ebx
  40c674:	lea    eax,[edx+eax*1-0x63db]
  40c67b:	cdq    
  40c67c:	pop    ebx
  40c67d:	idiv   ebx
  40c67f:	mov    eax,DWORD PTR [ebp+0x14]
  40c682:	imul   eax,eax,0x7
  40c685:	sub    eax,edx
  40c687:	add    eax,DWORD PTR [ebp+0x18]
  40c68a:	cmp    edx,DWORD PTR [ebp+0x18]
  40c68d:	jg     0x40c695
  40c68f:	lea    esi,[esi+eax*1-0x7]
  40c693:	jmp    0x40c697
  40c695:	add    esi,eax
  40c697:	cmp    DWORD PTR [ebp+0x14],0x5
  40c69b:	jne    0x40c721
  40c6a1:	cmp    DWORD PTR [ebp-0xc],0x0
  40c6a5:	jne    0x40c6b3
  40c6a7:	mov    eax,edi
  40c6a9:	push   0x64
  40c6ab:	cdq    
  40c6ac:	pop    ebx
  40c6ad:	idiv   ebx
  40c6af:	test   edx,edx
  40c6b1:	jne    0x40c6d0
  40c6b3:	lea    eax,[edi+0x76c]
  40c6b9:	cdq    
  40c6ba:	mov    ebx,0x190
  40c6bf:	idiv   ebx
  40c6c1:	test   edx,edx
  40c6c3:	je     0x40c6d0
  40c6c5:	mov    eax,DWORD PTR [ebp+0xc]
  40c6c8:	mov    eax,DWORD PTR [eax+0x42331c]
  40c6ce:	jmp    0x40c6d9
  40c6d0:	mov    eax,DWORD PTR [ebp+0xc]
  40c6d3:	mov    eax,DWORD PTR [eax+0x4232e8]
  40c6d9:	cmp    esi,eax
  40c6db:	jle    0x40c721
  40c6dd:	sub    esi,0x7
  40c6e0:	jmp    0x40c721
  40c6e2:	and    eax,0x80000003
  40c6e7:	jns    0x40c6ee
  40c6e9:	dec    eax
  40c6ea:	or     eax,0xfffffffc
  40c6ed:	inc    eax
  40c6ee:	jne    0x40c6fc
  40c6f0:	mov    eax,edi
  40c6f2:	push   0x64
  40c6f4:	cdq    
  40c6f5:	pop    ebx
  40c6f6:	idiv   ebx
  40c6f8:	test   edx,edx
  40c6fa:	jne    0x40c717
  40c6fc:	lea    eax,[edi+0x76c]
  40c702:	cdq    
  40c703:	mov    ebx,0x190
  40c708:	idiv   ebx
  40c70a:	test   edx,edx
  40c70c:	je     0x40c717
  40c70e:	mov    esi,DWORD PTR [esi*4+0x423318]
  40c715:	jmp    0x40c71e
  40c717:	mov    esi,DWORD PTR [esi*4+0x4232e4]
  40c71e:	add    esi,DWORD PTR [ebp+0x1c]
  40c721:	imul   ecx,ecx,0x3c
  40c724:	add    ecx,DWORD PTR [ebp+0x20]
  40c727:	imul   ecx,ecx,0x3c
  40c72a:	add    ecx,DWORD PTR [ebp+0x24]
  40c72d:	imul   ecx,ecx,0x3e8
  40c733:	add    ecx,DWORD PTR [ebp+0x28]
  40c736:	cmp    DWORD PTR [ebp+0x8],0x1
  40c73a:	jne    0x40c750
  40c73c:	mov    DWORD PTR ds:0x423dc4,esi
  40c742:	mov    DWORD PTR ds:0x423dc8,ecx
  40c748:	mov    DWORD PTR ds:0x423dc0,edi
  40c74e:	jmp    0x40c7bb
  40c750:	lea    eax,[ebp-0x4]
  40c753:	push   eax
  40c754:	mov    DWORD PTR ds:0x423dd0,esi
  40c75a:	mov    DWORD PTR ds:0x423dd4,ecx
  40c760:	call   0x40857b
  40c765:	pop    ecx
  40c766:	test   eax,eax
  40c768:	je     0x40c779
  40c76a:	xor    eax,eax
  40c76c:	push   eax
  40c76d:	push   eax
  40c76e:	push   eax
  40c76f:	push   eax
  40c770:	push   eax
  40c771:	call   0x408614
  40c776:	add    esp,0x14
  40c779:	mov    eax,DWORD PTR [ebp-0x4]
  40c77c:	imul   eax,eax,0x3e8
  40c782:	add    DWORD PTR ds:0x423dd4,eax
  40c788:	jns    0x40c79c
  40c78a:	add    DWORD PTR ds:0x423dd4,0x5265c00
  40c794:	dec    DWORD PTR ds:0x423dd0
  40c79a:	jmp    0x40c7b5
  40c79c:	mov    eax,0x5265c00
  40c7a1:	cmp    DWORD PTR ds:0x423dd4,eax
  40c7a7:	jl     0x40c7b5
  40c7a9:	sub    DWORD PTR ds:0x423dd4,eax
  40c7af:	inc    DWORD PTR ds:0x423dd0
  40c7b5:	mov    DWORD PTR ds:0x423dcc,edi
  40c7bb:	pop    edi
  40c7bc:	pop    esi
  40c7bd:	pop    ebx
  40c7be:	leave  
  40c7bf:	ret    
  40c7c0:	mov    edi,edi
  40c7c2:	push   ebp
  40c7c3:	mov    ebp,esp
  40c7c5:	sub    esp,0xc
  40c7c8:	push   esi
  40c7c9:	lea    eax,[ebp-0x4]
  40c7cc:	xor    esi,esi
  40c7ce:	push   eax
  40c7cf:	mov    DWORD PTR [ebp-0x4],esi
  40c7d2:	call   0x408542
  40c7d7:	pop    ecx
  40c7d8:	test   eax,eax
  40c7da:	je     0x40c7e9
  40c7dc:	push   esi
  40c7dd:	push   esi
  40c7de:	push   esi
  40c7df:	push   esi
  40c7e0:	push   esi
  40c7e1:	call   0x408614
  40c7e6:	add    esp,0x14
  40c7e9:	cmp    DWORD PTR [ebp-0x4],esi
  40c7ec:	jne    0x40c7f5
  40c7ee:	xor    eax,eax
  40c7f0:	jmp    0x40c94d
  40c7f5:	mov    edx,DWORD PTR [edi+0x14]
  40c7f8:	push   ebx
  40c7f9:	xor    ebx,ebx
  40c7fb:	inc    ebx
  40c7fc:	cmp    edx,DWORD PTR ds:0x423dc0
  40c802:	jne    0x40c810
  40c804:	cmp    edx,DWORD PTR ds:0x423dcc
  40c80a:	je     0x40c928
  40c810:	cmp    DWORD PTR ds:0x43c0dc,esi
  40c816:	je     0x40c8d4
  40c81c:	movzx  eax,WORD PTR ds:0x43c0d6
  40c823:	movzx  ecx,WORD PTR ds:0x43c0d0
  40c82a:	push   eax
  40c82b:	movzx  eax,WORD PTR ds:0x43c0d4
  40c832:	push   eax
  40c833:	movzx  eax,WORD PTR ds:0x43c0d2
  40c83a:	push   eax
  40c83b:	cmp    WORD PTR ds:0x43c0c8,si
  40c842:	jne    0x40c859
  40c844:	movzx  eax,WORD PTR ds:0x43c0cc
  40c84b:	push   esi
  40c84c:	push   eax
  40c84d:	movzx  eax,WORD PTR ds:0x43c0ce
  40c854:	push   eax
  40c855:	push   edx
  40c856:	push   ebx
  40c857:	jmp    0x40c865
  40c859:	movzx  eax,WORD PTR ds:0x43c0ce
  40c860:	push   eax
  40c861:	push   esi
  40c862:	push   esi
  40c863:	push   edx
  40c864:	push   esi
  40c865:	movzx  eax,WORD PTR ds:0x43c0ca
  40c86c:	push   ebx
  40c86d:	call   0x40c5c9
  40c872:	movzx  eax,WORD PTR ds:0x43c082
  40c879:	movzx  ecx,WORD PTR ds:0x43c07c
  40c880:	add    esp,0x24
  40c883:	push   eax
  40c884:	movzx  eax,WORD PTR ds:0x43c080
  40c88b:	push   eax
  40c88c:	movzx  eax,WORD PTR ds:0x43c07e
  40c893:	push   eax
  40c894:	cmp    WORD PTR ds:0x43c074,si
  40c89b:	jne    0x40c8b4
  40c89d:	movzx  eax,WORD PTR ds:0x43c078
  40c8a4:	push   esi
  40c8a5:	push   eax
  40c8a6:	movzx  eax,WORD PTR ds:0x43c07a
  40c8ad:	push   eax
  40c8ae:	push   DWORD PTR [edi+0x14]
  40c8b1:	push   ebx
  40c8b2:	jmp    0x40c8c2
  40c8b4:	movzx  eax,WORD PTR ds:0x43c07a
  40c8bb:	push   eax
  40c8bc:	push   esi
  40c8bd:	push   esi
  40c8be:	push   DWORD PTR [edi+0x14]
  40c8c1:	push   esi
  40c8c2:	movzx  eax,WORD PTR ds:0x43c076
  40c8c9:	push   esi
  40c8ca:	call   0x40c5c9
  40c8cf:	add    esp,0x24
  40c8d2:	jmp    0x40c928
  40c8d4:	cmp    edx,0x6b
  40c8d7:	push   0x3
  40c8d9:	pop    eax
  40c8da:	push   0x2
  40c8dc:	pop    ecx
  40c8dd:	mov    DWORD PTR [ebp-0xc],0xb
  40c8e4:	mov    DWORD PTR [ebp-0x8],ebx
  40c8e7:	jge    0x40c8fc
  40c8e9:	push   0x4
  40c8eb:	pop    eax
  40c8ec:	mov    ecx,ebx
  40c8ee:	mov    DWORD PTR [ebp-0xc],0xa
  40c8f5:	mov    DWORD PTR [ebp-0x8],0x5
  40c8fc:	push   esi
  40c8fd:	push   esi
  40c8fe:	push   esi
  40c8ff:	push   esi
  40c900:	push   esi
  40c901:	push   ecx
  40c902:	push   edx
  40c903:	push   ebx
  40c904:	push   ebx
  40c905:	push   0x2
  40c907:	pop    ecx
  40c908:	call   0x40c5c9
  40c90d:	mov    eax,DWORD PTR [ebp-0xc]
  40c910:	push   esi
  40c911:	push   esi
  40c912:	push   esi
  40c913:	push   esi
  40c914:	push   esi
  40c915:	push   DWORD PTR [ebp-0x8]
  40c918:	push   DWORD PTR [edi+0x14]
  40c91b:	push   ebx
  40c91c:	push   esi
  40c91d:	push   0x2
  40c91f:	pop    ecx
  40c920:	call   0x40c5c9
  40c925:	add    esp,0x48
  40c928:	mov    ecx,DWORD PTR ds:0x423dc4
  40c92e:	mov    eax,ds:0x423dd0
  40c933:	cmp    ecx,eax
  40c935:	mov    edx,DWORD PTR [edi+0x1c]
  40c938:	jge    0x40c950
  40c93a:	cmp    edx,ecx
  40c93c:	jl     0x40c960
  40c93e:	cmp    edx,eax
  40c940:	jg     0x40c960
  40c942:	cmp    edx,ecx
  40c944:	jle    0x40c964
  40c946:	cmp    edx,eax
  40c948:	jge    0x40c964
  40c94a:	mov    eax,ebx
  40c94c:	pop    ebx
  40c94d:	pop    esi
  40c94e:	leave  
  40c94f:	ret    
  40c950:	cmp    edx,eax
  40c952:	jl     0x40c94a
  40c954:	cmp    edx,ecx
  40c956:	jg     0x40c94a
  40c958:	cmp    edx,eax
  40c95a:	jle    0x40c964
  40c95c:	cmp    edx,ecx
  40c95e:	jge    0x40c964
  40c960:	xor    eax,eax
  40c962:	jmp    0x40c94c
  40c964:	mov    eax,DWORD PTR [edi+0x8]
  40c967:	imul   eax,eax,0x3c
  40c96a:	add    eax,DWORD PTR [edi+0x4]
  40c96d:	imul   eax,eax,0x3c
  40c970:	add    eax,DWORD PTR [edi]
  40c972:	imul   eax,eax,0x3e8
  40c978:	cmp    edx,ecx
  40c97a:	jne    0x40c989
  40c97c:	xor    ecx,ecx
  40c97e:	cmp    eax,DWORD PTR ds:0x423dc8
  40c984:	setge  cl
  40c987:	jmp    0x40c994
  40c989:	xor    ecx,ecx
  40c98b:	cmp    eax,DWORD PTR ds:0x423dd4
  40c991:	setl   cl
  40c994:	mov    eax,ecx
  40c996:	jmp    0x40c94c
  40c998:	push   0x8
  40c99a:	push   0x41ef28
  40c99f:	call   0x40a868
  40c9a4:	xor    esi,esi
  40c9a6:	cmp    DWORD PTR ds:0x43c0e4,esi
  40c9ac:	jne    0x40c9d8
  40c9ae:	push   0x6
  40c9b0:	call   0x40f60b
  40c9b5:	pop    ecx
  40c9b6:	mov    DWORD PTR [ebp-0x4],esi
  40c9b9:	cmp    DWORD PTR ds:0x43c0e4,esi
  40c9bf:	jne    0x40c9cc
  40c9c1:	call   0x40c283
  40c9c6:	inc    DWORD PTR ds:0x43c0e4
  40c9cc:	mov    DWORD PTR [ebp-0x4],0xfffffffe
  40c9d3:	call   0x40c9de
  40c9d8:	call   0x40a8ad
  40c9dd:	ret    
  40c9de:	push   0x6
  40c9e0:	call   0x40f531
  40c9e5:	pop    ecx
  40c9e6:	ret    
  40c9e7:	push   0xc
  40c9e9:	push   0x41ef48
  40c9ee:	call   0x40a868
  40c9f3:	push   0x6
  40c9f5:	call   0x40f60b
  40c9fa:	pop    ecx
  40c9fb:	and    DWORD PTR [ebp-0x4],0x0
  40c9ff:	mov    edi,DWORD PTR [ebp+0x8]
  40ca02:	call   0x40c7c0
  40ca07:	mov    DWORD PTR [ebp-0x1c],eax
  40ca0a:	mov    DWORD PTR [ebp-0x4],0xfffffffe
  40ca11:	call   0x40ca1f
  40ca16:	mov    eax,DWORD PTR [ebp-0x1c]
  40ca19:	call   0x40a8ad
  40ca1e:	ret    
  40ca1f:	push   0x6
  40ca21:	call   0x40f531
  40ca26:	pop    ecx
  40ca27:	ret    
  40ca28:	mov    edi,edi
  40ca2a:	push   ebp
  40ca2b:	mov    ebp,esp
  40ca2d:	sub    esp,0x10
  40ca30:	push   esi
  40ca31:	mov    esi,DWORD PTR [ebp+0x8]
  40ca34:	push   edi
  40ca35:	xor    edi,edi
  40ca37:	mov    DWORD PTR [ebp-0x4],edi
  40ca3a:	cmp    esi,edi
  40ca3c:	jne    0x40ca5c
  40ca3e:	call   0x4087a4
  40ca43:	push   0x16
  40ca45:	pop    esi
  40ca46:	push   edi
  40ca47:	push   edi
  40ca48:	push   edi
  40ca49:	push   edi
  40ca4a:	push   edi
  40ca4b:	mov    DWORD PTR [eax],esi
  40ca4d:	call   0x40873c
  40ca52:	add    esp,0x14
  40ca55:	mov    eax,esi
  40ca57:	jmp    0x40cc67
  40ca5c:	push   0x24
  40ca5e:	push   0xff
  40ca63:	push   esi
  40ca64:	call   0x40cc70
  40ca69:	mov    eax,DWORD PTR [ebp+0xc]
  40ca6c:	add    esp,0xc
  40ca6f:	cmp    eax,edi
  40ca71:	je     0x40ca3e
  40ca73:	mov    ecx,DWORD PTR [eax]
  40ca75:	mov    eax,DWORD PTR [eax+0x4]
  40ca78:	cmp    eax,0xffffffff
  40ca7b:	mov    DWORD PTR [ebp-0x10],ecx
  40ca7e:	mov    DWORD PTR [ebp-0xc],eax
  40ca81:	jg     0x40ca99
  40ca83:	jl     0x40ca8d
  40ca85:	cmp    ecx,0xffff5740
  40ca8b:	jae    0x40ca99
  40ca8d:	call   0x4087a4
  40ca92:	push   0x16
  40ca94:	pop    esi
  40ca95:	mov    DWORD PTR [eax],esi
  40ca97:	jmp    0x40ca55
  40ca99:	cmp    eax,0x7
  40ca9c:	jl     0x40caa8
  40ca9e:	jg     0x40ca8d
  40caa0:	cmp    ecx,0x934126cf
  40caa6:	ja     0x40ca8d
  40caa8:	push   ebx
  40caa9:	push   edi
  40caaa:	push   0x1e13380
  40caaf:	push   eax
  40cab0:	push   ecx
  40cab1:	call   0x40ccf0
  40cab6:	mov    ecx,eax
  40cab8:	add    ecx,0x46
  40cabb:	lea    eax,[ecx+0x12b]
  40cac1:	cdq    
  40cac2:	mov    ebx,0x190
  40cac7:	idiv   ebx
  40cac9:	lea    edi,[ecx-0x1]
  40cacc:	push   0x64
  40cace:	mov    DWORD PTR [ebp-0x8],edi
  40cad1:	mov    DWORD PTR [ebp+0x8],ecx
  40cad4:	mov    ebx,eax
  40cad6:	mov    eax,edi
  40cad8:	cdq    
  40cad9:	pop    edi
  40cada:	idiv   edi
  40cadc:	push   0xffffffff
  40cade:	push   0xfffffe93
  40cae3:	sub    ebx,eax
  40cae5:	mov    eax,DWORD PTR [ebp-0x8]
  40cae8:	cdq    
  40cae9:	and    edx,0x3
  40caec:	add    eax,edx
  40caee:	sar    eax,0x2
  40caf1:	lea    eax,[ebx+eax*1-0x11]
  40caf5:	cdq    
  40caf6:	mov    edi,eax
  40caf8:	lea    eax,[ecx-0x46]
  40cafb:	mov    ebx,edx
  40cafd:	cdq    
  40cafe:	push   edx
  40caff:	push   eax
  40cb00:	call   0x411ca0
  40cb05:	sub    eax,edi
  40cb07:	sbb    edx,ebx
  40cb09:	push   0x0
  40cb0b:	mov    ebx,0x15180
  40cb10:	push   ebx
  40cb11:	push   edx
  40cb12:	push   eax
  40cb13:	call   0x411ca0
  40cb18:	mov    edi,DWORD PTR [ebp-0x10]
  40cb1b:	add    edi,eax
  40cb1d:	adc    DWORD PTR [ebp-0xc],edx
  40cb20:	cmp    DWORD PTR [ebp-0xc],0x0
  40cb24:	jg     0x40cb73
  40cb26:	jl     0x40cb2c
  40cb28:	test   edi,edi
  40cb2a:	jae    0x40cb73
  40cb2c:	mov    eax,DWORD PTR [ebp-0x8]
  40cb2f:	add    edi,0x1e13380
  40cb35:	adc    DWORD PTR [ebp-0xc],0x0
  40cb39:	mov    ecx,eax
  40cb3b:	and    ecx,0x80000003
  40cb41:	mov    DWORD PTR [ebp+0x8],eax
  40cb44:	jns    0x40cb4b
  40cb46:	dec    ecx
  40cb47:	or     ecx,0xfffffffc
  40cb4a:	inc    ecx
  40cb4b:	jne    0x40cb5a
  40cb4d:	push   0x64
  40cb4f:	cdq    
  40cb50:	pop    ecx
  40cb51:	idiv   ecx
  40cb53:	test   edx,edx
  40cb55:	jne    0x40cb6b
  40cb57:	mov    eax,DWORD PTR [ebp+0x8]
  40cb5a:	add    eax,0x76c
  40cb5f:	cdq    
  40cb60:	mov    ecx,0x190
  40cb65:	idiv   ecx
  40cb67:	test   edx,edx
  40cb69:	jne    0x40cbac
  40cb6b:	add    edi,ebx
  40cb6d:	adc    DWORD PTR [ebp-0xc],0x0
  40cb71:	jmp    0x40cba5
  40cb73:	mov    eax,DWORD PTR [ebp+0x8]
  40cb76:	mov    ecx,eax
  40cb78:	and    ecx,0x80000003
  40cb7e:	jns    0x40cb85
  40cb80:	dec    ecx
  40cb81:	or     ecx,0xfffffffc
  40cb84:	inc    ecx
  40cb85:	jne    0x40cb91
  40cb87:	push   0x64
  40cb89:	cdq    
  40cb8a:	pop    ecx
  40cb8b:	idiv   ecx
  40cb8d:	test   edx,edx
  40cb8f:	jne    0x40cba5
  40cb91:	mov    eax,DWORD PTR [ebp+0x8]
  40cb94:	add    eax,0x76c
  40cb99:	cdq    
  40cb9a:	mov    ecx,0x190
  40cb9f:	idiv   ecx
  40cba1:	test   edx,edx
  40cba3:	jne    0x40cbac
  40cba5:	mov    DWORD PTR [ebp-0x4],0x1
  40cbac:	mov    eax,DWORD PTR [ebp+0x8]
  40cbaf:	push   0x0
  40cbb1:	push   ebx
  40cbb2:	push   DWORD PTR [ebp-0xc]
  40cbb5:	mov    DWORD PTR [esi+0x14],eax
  40cbb8:	push   edi
  40cbb9:	call   0x40ccf0
  40cbbe:	push   0xffffffff
  40cbc0:	mov    DWORD PTR [esi+0x1c],eax
  40cbc3:	cdq    
  40cbc4:	push   0xfffeae80
  40cbc9:	push   edx
  40cbca:	push   eax
  40cbcb:	call   0x411ca0
  40cbd0:	add    edi,eax
  40cbd2:	adc    DWORD PTR [ebp-0xc],edx
  40cbd5:	cmp    DWORD PTR [ebp-0x4],0x0
  40cbd9:	mov    edx,0x4232e8
  40cbde:	jne    0x40cbe5
  40cbe0:	mov    edx,0x42331c
  40cbe5:	mov    eax,DWORD PTR [esi+0x1c]
  40cbe8:	xor    ecx,ecx
  40cbea:	inc    ecx
  40cbeb:	cmp    DWORD PTR [edx+0x4],eax
  40cbee:	jge    0x40cbfd
  40cbf0:	mov    ebx,eax
  40cbf2:	inc    ecx
  40cbf3:	cmp    DWORD PTR [edx+ecx*4],ebx
  40cbf6:	jl     0x40cbf2
  40cbf8:	mov    ebx,0x15180
  40cbfd:	dec    ecx
  40cbfe:	mov    DWORD PTR [esi+0x10],ecx
  40cc01:	sub    eax,DWORD PTR [edx+ecx*4]
  40cc04:	push   0x0
  40cc06:	mov    DWORD PTR [esi+0xc],eax
  40cc09:	mov    eax,DWORD PTR [ebp+0xc]
  40cc0c:	push   ebx
  40cc0d:	push   DWORD PTR [eax+0x4]
  40cc10:	push   DWORD PTR [eax]
  40cc12:	call   0x40ccf0
  40cc17:	push   0x7
  40cc19:	add    eax,0x4
  40cc1c:	pop    ecx
  40cc1d:	cdq    
  40cc1e:	idiv   ecx
  40cc20:	xor    ebx,ebx
  40cc22:	push   ebx
  40cc23:	push   0xe10
  40cc28:	push   DWORD PTR [ebp-0xc]
  40cc2b:	push   edi
  40cc2c:	mov    DWORD PTR [esi+0x18],edx
  40cc2f:	call   0x40ccf0
  40cc34:	push   0xffffffff
  40cc36:	mov    DWORD PTR [esi+0x8],eax
  40cc39:	cdq    
  40cc3a:	push   0xfffff1f0
  40cc3f:	push   edx
  40cc40:	push   eax
  40cc41:	call   0x411ca0
  40cc46:	push   ebx
  40cc47:	add    edi,eax
  40cc49:	adc    DWORD PTR [ebp-0xc],edx
  40cc4c:	push   0x3c
  40cc4e:	push   DWORD PTR [ebp-0xc]
  40cc51:	push   edi
  40cc52:	call   0x40ccf0
  40cc57:	mov    DWORD PTR [esi+0x4],eax
  40cc5a:	imul   eax,eax,0x3c
  40cc5d:	sub    edi,eax
  40cc5f:	mov    DWORD PTR [esi+0x20],ebx
  40cc62:	mov    DWORD PTR [esi],edi
  40cc64:	xor    eax,eax
  40cc66:	pop    ebx
  40cc67:	pop    edi
  40cc68:	pop    esi
  40cc69:	leave  
  40cc6a:	ret    
  40cc6b:	int3   
  40cc6c:	int3   
  40cc6d:	int3   
  40cc6e:	int3   
  40cc6f:	int3   
  40cc70:	mov    edx,DWORD PTR [esp+0xc]
  40cc74:	mov    ecx,DWORD PTR [esp+0x4]
  40cc78:	test   edx,edx
  40cc7a:	je     0x40cce5
  40cc7c:	xor    eax,eax
  40cc7e:	mov    al,BYTE PTR [esp+0x8]
  40cc82:	test   al,al
  40cc84:	jne    0x40cc9c
  40cc86:	cmp    edx,0x100
  40cc8c:	jb     0x40cc9c
  40cc8e:	cmp    DWORD PTR ds:0x43db68,0x0
  40cc95:	je     0x40cc9c
  40cc97:	jmp    0x411d2b
  40cc9c:	push   edi
  40cc9d:	mov    edi,ecx
  40cc9f:	cmp    edx,0x4
  40cca2:	jb     0x40ccd5
  40cca4:	neg    ecx
  40cca6:	and    ecx,0x3
  40cca9:	je     0x40ccb7
  40ccab:	sub    edx,ecx
  40ccad:	mov    BYTE PTR [edi],al
  40ccaf:	add    edi,0x1
  40ccb2:	sub    ecx,0x1
  40ccb5:	jne    0x40ccad
  40ccb7:	mov    ecx,eax
  40ccb9:	shl    eax,0x8
  40ccbc:	add    eax,ecx
  40ccbe:	mov    ecx,eax
  40ccc0:	shl    eax,0x10
  40ccc3:	add    eax,ecx
  40ccc5:	mov    ecx,edx
  40ccc7:	and    edx,0x3
  40ccca:	shr    ecx,0x2
  40cccd:	je     0x40ccd5
  40cccf:	rep stos DWORD PTR es:[edi],eax
  40ccd1:	test   edx,edx
  40ccd3:	je     0x40ccdf
  40ccd5:	mov    BYTE PTR [edi],al
  40ccd7:	add    edi,0x1
  40ccda:	sub    edx,0x1
  40ccdd:	jne    0x40ccd5
  40ccdf:	mov    eax,DWORD PTR [esp+0x8]
  40cce3:	pop    edi
  40cce4:	ret    
  40cce5:	mov    eax,DWORD PTR [esp+0x4]
  40cce9:	ret    
  40ccea:	int3   
  40cceb:	int3   
  40ccec:	int3   
  40cced:	int3   
  40ccee:	int3   
  40ccef:	int3   
  40ccf0:	push   edi
  40ccf1:	push   esi
  40ccf2:	push   ebx
  40ccf3:	xor    edi,edi
  40ccf5:	mov    eax,DWORD PTR [esp+0x14]
  40ccf9:	or     eax,eax
  40ccfb:	jge    0x40cd11
  40ccfd:	inc    edi
  40ccfe:	mov    edx,DWORD PTR [esp+0x10]
  40cd02:	neg    eax
  40cd04:	neg    edx
  40cd06:	sbb    eax,0x0
  40cd09:	mov    DWORD PTR [esp+0x14],eax
  40cd0d:	mov    DWORD PTR [esp+0x10],edx
  40cd11:	mov    eax,DWORD PTR [esp+0x1c]
  40cd15:	or     eax,eax
  40cd17:	jge    0x40cd2d
  40cd19:	inc    edi
  40cd1a:	mov    edx,DWORD PTR [esp+0x18]
  40cd1e:	neg    eax
  40cd20:	neg    edx
  40cd22:	sbb    eax,0x0
  40cd25:	mov    DWORD PTR [esp+0x1c],eax
  40cd29:	mov    DWORD PTR [esp+0x18],edx
  40cd2d:	or     eax,eax
  40cd2f:	jne    0x40cd49
  40cd31:	mov    ecx,DWORD PTR [esp+0x18]
  40cd35:	mov    eax,DWORD PTR [esp+0x14]
  40cd39:	xor    edx,edx
  40cd3b:	div    ecx
  40cd3d:	mov    ebx,eax
  40cd3f:	mov    eax,DWORD PTR [esp+0x10]
  40cd43:	div    ecx
  40cd45:	mov    edx,ebx
  40cd47:	jmp    0x40cd8a
  40cd49:	mov    ebx,eax
  40cd4b:	mov    ecx,DWORD PTR [esp+0x18]
  40cd4f:	mov    edx,DWORD PTR [esp+0x14]
  40cd53:	mov    eax,DWORD PTR [esp+0x10]
  40cd57:	shr    ebx,1
  40cd59:	rcr    ecx,1
  40cd5b:	shr    edx,1
  40cd5d:	rcr    eax,1
  40cd5f:	or     ebx,ebx
  40cd61:	jne    0x40cd57
  40cd63:	div    ecx
  40cd65:	mov    esi,eax
  40cd67:	mul    DWORD PTR [esp+0x1c]
  40cd6b:	mov    ecx,eax
  40cd6d:	mov    eax,DWORD PTR [esp+0x18]
  40cd71:	mul    esi
  40cd73:	add    edx,ecx
  40cd75:	jb     0x40cd85
  40cd77:	cmp    edx,DWORD PTR [esp+0x14]
  40cd7b:	ja     0x40cd85
  40cd7d:	jb     0x40cd86
  40cd7f:	cmp    eax,DWORD PTR [esp+0x10]
  40cd83:	jbe    0x40cd86
  40cd85:	dec    esi
  40cd86:	xor    edx,edx
  40cd88:	mov    eax,esi
  40cd8a:	dec    edi
  40cd8b:	jne    0x40cd94
  40cd8d:	neg    edx
  40cd8f:	neg    eax
  40cd91:	sbb    edx,0x0
  40cd94:	pop    ebx
  40cd95:	pop    esi
  40cd96:	pop    edi
  40cd97:	ret    0x10
  40cd9a:	int3   
  40cd9b:	int3   
  40cd9c:	int3   
  40cd9d:	int3   
  40cd9e:	int3   
  40cd9f:	int3   
  40cda0:	push   ebx
  40cda1:	push   edi
  40cda2:	xor    edi,edi
  40cda4:	mov    eax,DWORD PTR [esp+0x10]
  40cda8:	or     eax,eax
  40cdaa:	jge    0x40cdc0
  40cdac:	inc    edi
  40cdad:	mov    edx,DWORD PTR [esp+0xc]
  40cdb1:	neg    eax
  40cdb3:	neg    edx
  40cdb5:	sbb    eax,0x0
  40cdb8:	mov    DWORD PTR [esp+0x10],eax
  40cdbc:	mov    DWORD PTR [esp+0xc],edx
  40cdc0:	mov    eax,DWORD PTR [esp+0x18]
  40cdc4:	or     eax,eax
  40cdc6:	jge    0x40cddb
  40cdc8:	mov    edx,DWORD PTR [esp+0x14]
  40cdcc:	neg    eax
  40cdce:	neg    edx
  40cdd0:	sbb    eax,0x0
  40cdd3:	mov    DWORD PTR [esp+0x18],eax
  40cdd7:	mov    DWORD PTR [esp+0x14],edx
  40cddb:	or     eax,eax
  40cddd:	jne    0x40cdfa
  40cddf:	mov    ecx,DWORD PTR [esp+0x14]
  40cde3:	mov    eax,DWORD PTR [esp+0x10]
  40cde7:	xor    edx,edx
  40cde9:	div    ecx
  40cdeb:	mov    eax,DWORD PTR [esp+0xc]
  40cdef:	div    ecx
  40cdf1:	mov    eax,edx
  40cdf3:	xor    edx,edx
  40cdf5:	dec    edi
  40cdf6:	jns    0x40ce46
  40cdf8:	jmp    0x40ce4d
  40cdfa:	mov    ebx,eax
  40cdfc:	mov    ecx,DWORD PTR [esp+0x14]
  40ce00:	mov    edx,DWORD PTR [esp+0x10]
  40ce04:	mov    eax,DWORD PTR [esp+0xc]
  40ce08:	shr    ebx,1
  40ce0a:	rcr    ecx,1
  40ce0c:	shr    edx,1
  40ce0e:	rcr    eax,1
  40ce10:	or     ebx,ebx
  40ce12:	jne    0x40ce08
  40ce14:	div    ecx
  40ce16:	mov    ecx,eax
  40ce18:	mul    DWORD PTR [esp+0x18]
  40ce1c:	xchg   ecx,eax
  40ce1d:	mul    DWORD PTR [esp+0x14]
  40ce21:	add    edx,ecx
  40ce23:	jb     0x40ce33
  40ce25:	cmp    edx,DWORD PTR [esp+0x10]
  40ce29:	ja     0x40ce33
  40ce2b:	jb     0x40ce3b
  40ce2d:	cmp    eax,DWORD PTR [esp+0xc]
  40ce31:	jbe    0x40ce3b
  40ce33:	sub    eax,DWORD PTR [esp+0x14]
  40ce37:	sbb    edx,DWORD PTR [esp+0x18]
  40ce3b:	sub    eax,DWORD PTR [esp+0xc]
  40ce3f:	sbb    edx,DWORD PTR [esp+0x10]
  40ce43:	dec    edi
  40ce44:	jns    0x40ce4d
  40ce46:	neg    edx
  40ce48:	neg    eax
  40ce4a:	sbb    edx,0x0
  40ce4d:	pop    edi
  40ce4e:	pop    ebx
  40ce4f:	ret    0x10
  40ce52:	mov    edi,edi
  40ce54:	push   esi
  40ce55:	call   0x408b6c
  40ce5a:	mov    esi,eax
  40ce5c:	test   esi,esi
  40ce5e:	jne    0x40ce6f
  40ce60:	call   0x4087a4
  40ce65:	mov    DWORD PTR [eax],0xc
  40ce6b:	xor    eax,eax
  40ce6d:	pop    esi
  40ce6e:	ret    
  40ce6f:	cmp    DWORD PTR [esi+0x44],0x0
  40ce73:	jne    0x40ce84
  40ce75:	push   0x24
  40ce77:	call   0x4087ed
  40ce7c:	pop    ecx
  40ce7d:	mov    DWORD PTR [esi+0x44],eax
  40ce80:	test   eax,eax
  40ce82:	je     0x40ce60
  40ce84:	mov    eax,DWORD PTR [esi+0x44]
  40ce87:	pop    esi
  40ce88:	ret    
  40ce89:	int3   
  40ce8a:	int3   
  40ce8b:	int3   
  40ce8c:	int3   
  40ce8d:	int3   
  40ce8e:	int3   
  40ce8f:	int3   
  40ce90:	push   ebx
  40ce91:	push   esi
  40ce92:	mov    eax,DWORD PTR [esp+0x18]
  40ce96:	or     eax,eax
  40ce98:	jne    0x40ceb2
  40ce9a:	mov    ecx,DWORD PTR [esp+0x14]
  40ce9e:	mov    eax,DWORD PTR [esp+0x10]
  40cea2:	xor    edx,edx
  40cea4:	div    ecx
  40cea6:	mov    ebx,eax
  40cea8:	mov    eax,DWORD PTR [esp+0xc]
  40ceac:	div    ecx
  40ceae:	mov    edx,ebx
  40ceb0:	jmp    0x40cef3
  40ceb2:	mov    ecx,eax
  40ceb4:	mov    ebx,DWORD PTR [esp+0x14]
  40ceb8:	mov    edx,DWORD PTR [esp+0x10]
  40cebc:	mov    eax,DWORD PTR [esp+0xc]
  40cec0:	shr    ecx,1
  40cec2:	rcr    ebx,1
  40cec4:	shr    edx,1
  40cec6:	rcr    eax,1
  40cec8:	or     ecx,ecx
  40ceca:	jne    0x40cec0
  40cecc:	div    ebx
  40cece:	mov    esi,eax
  40ced0:	mul    DWORD PTR [esp+0x18]
  40ced4:	mov    ecx,eax
  40ced6:	mov    eax,DWORD PTR [esp+0x14]
  40ceda:	mul    esi
  40cedc:	add    edx,ecx
  40cede:	jb     0x40ceee
  40cee0:	cmp    edx,DWORD PTR [esp+0x10]
  40cee4:	ja     0x40ceee
  40cee6:	jb     0x40ceef
  40cee8:	cmp    eax,DWORD PTR [esp+0xc]
  40ceec:	jbe    0x40ceef
  40ceee:	dec    esi
  40ceef:	xor    edx,edx
  40cef1:	mov    eax,esi
  40cef3:	pop    esi
  40cef4:	pop    ebx
  40cef5:	ret    0x10
  40cef8:	mov    edi,edi
  40cefa:	push   ebp
  40cefb:	mov    ebp,esp
  40cefd:	mov    eax,DWORD PTR [ebp+0x8]
  40cf00:	mov    eax,DWORD PTR [eax]
  40cf02:	cmp    DWORD PTR [eax],0xe06d7363
  40cf08:	jne    0x40cf34
  40cf0a:	cmp    DWORD PTR [eax+0x10],0x3
  40cf0e:	jne    0x40cf34
  40cf10:	mov    eax,DWORD PTR [eax+0x14]
  40cf13:	cmp    eax,0x19930520
  40cf18:	je     0x40cf2f
  40cf1a:	cmp    eax,0x19930521
  40cf1f:	je     0x40cf2f
  40cf21:	cmp    eax,0x19930522
  40cf26:	je     0x40cf2f
  40cf28:	cmp    eax,0x1994000
  40cf2d:	jne    0x40cf34
  40cf2f:	call   0x411dba
  40cf34:	xor    eax,eax
  40cf36:	pop    ebp
  40cf37:	ret    0x4
  40cf3a:	push   0x40cef8
  40cf3f:	call   DWORD PTR ds:0x419498
  40cf45:	xor    eax,eax
  40cf47:	ret    
  40cf48:	mov    edi,edi
  40cf4a:	push   ebp
  40cf4b:	mov    ebp,esp
  40cf4d:	push   edi
  40cf4e:	mov    edi,0x3e8
  40cf53:	push   edi
  40cf54:	call   DWORD PTR ds:0x419318
  40cf5a:	push   DWORD PTR [ebp+0x8]
  40cf5d:	call   DWORD PTR ds:0x41926c
  40cf63:	add    edi,0x3e8
  40cf69:	cmp    edi,0xea60
  40cf6f:	ja     0x40cf75
  40cf71:	test   eax,eax
  40cf73:	je     0x40cf53
  40cf75:	pop    edi
  40cf76:	pop    ebp
  40cf77:	ret    
  40cf78:	mov    edi,edi
  40cf7a:	push   ebp
  40cf7b:	mov    ebp,esp
  40cf7d:	call   0x40d42b
  40cf82:	push   DWORD PTR [ebp+0x8]
  40cf85:	call   0x40d280
  40cf8a:	push   DWORD PTR ds:0x423de0
  40cf90:	call   0x408999
  40cf95:	push   0xff
  40cf9a:	call   eax
  40cf9c:	add    esp,0xc
  40cf9f:	pop    ebp
  40cfa0:	ret    
  40cfa1:	mov    edi,edi
  40cfa3:	push   ebp
  40cfa4:	mov    ebp,esp
  40cfa6:	push   0x41dc34
  40cfab:	call   DWORD PTR ds:0x41926c
  40cfb1:	test   eax,eax
  40cfb3:	je     0x40cfca
  40cfb5:	push   0x41dc24
  40cfba:	push   eax
  40cfbb:	call   DWORD PTR ds:0x419268
  40cfc1:	test   eax,eax
  40cfc3:	je     0x40cfca
  40cfc5:	push   DWORD PTR [ebp+0x8]
  40cfc8:	call   eax
  40cfca:	pop    ebp
  40cfcb:	ret    
  40cfcc:	mov    edi,edi
  40cfce:	push   ebp
  40cfcf:	mov    ebp,esp
  40cfd1:	push   DWORD PTR [ebp+0x8]
  40cfd4:	call   0x40cfa1
  40cfd9:	pop    ecx
  40cfda:	push   DWORD PTR [ebp+0x8]
  40cfdd:	call   DWORD PTR ds:0x419288
  40cfe3:	int3   
  40cfe4:	push   0x8
  40cfe6:	call   0x40f60b
  40cfeb:	pop    ecx
  40cfec:	ret    
  40cfed:	push   0x8
  40cfef:	call   0x40f531
  40cff4:	pop    ecx
  40cff5:	ret    
  40cff6:	mov    edi,edi
  40cff8:	push   ebp
  40cff9:	mov    ebp,esp
  40cffb:	push   esi
  40cffc:	mov    esi,eax
  40cffe:	jmp    0x40d00b
  40d000:	mov    eax,DWORD PTR [esi]
  40d002:	test   eax,eax
  40d004:	je     0x40d008
  40d006:	call   eax
  40d008:	add    esi,0x4
  40d00b:	cmp    esi,DWORD PTR [ebp+0x8]
  40d00e:	jb     0x40d000
  40d010:	pop    esi
  40d011:	pop    ebp
  40d012:	ret    
  40d013:	mov    edi,edi
  40d015:	push   ebp
  40d016:	mov    ebp,esp
  40d018:	push   esi
  40d019:	mov    esi,DWORD PTR [ebp+0x8]
  40d01c:	xor    eax,eax
  40d01e:	jmp    0x40d02f
  40d020:	test   eax,eax
  40d022:	jne    0x40d034
  40d024:	mov    ecx,DWORD PTR [esi]
  40d026:	test   ecx,ecx
  40d028:	je     0x40d02c
  40d02a:	call   ecx
  40d02c:	add    esi,0x4
  40d02f:	cmp    esi,DWORD PTR [ebp+0xc]
  40d032:	jb     0x40d020
  40d034:	pop    esi
  40d035:	pop    ebp
  40d036:	ret    
  40d037:	mov    edi,edi
  40d039:	push   ebp
  40d03a:	mov    ebp,esp
  40d03c:	cmp    DWORD PTR ds:0x419ab0,0x0
  40d043:	je     0x40d05e
  40d045:	push   0x419ab0
  40d04a:	call   0x410a70
  40d04f:	pop    ecx
  40d050:	test   eax,eax
  40d052:	je     0x40d05e
  40d054:	push   DWORD PTR [ebp+0x8]
  40d057:	call   DWORD PTR ds:0x419ab0
  40d05d:	pop    ecx
  40d05e:	call   0x40bc79
  40d063:	push   0x4198e0
  40d068:	push   0x4198c4
  40d06d:	call   0x40d013
  40d072:	pop    ecx
  40d073:	pop    ecx
  40d074:	test   eax,eax
  40d076:	jne    0x40d0ba
  40d078:	push   0x40dd07
  40d07d:	call   0x411f2b
  40d082:	mov    eax,0x41987c
  40d087:	mov    DWORD PTR [esp],0x4198c0
  40d08e:	call   0x40cff6
  40d093:	cmp    DWORD PTR ds:0x43cb50,0x0
  40d09a:	pop    ecx
  40d09b:	je     0x40d0b8
  40d09d:	push   0x43cb50
  40d0a2:	call   0x410a70
  40d0a7:	pop    ecx
  40d0a8:	test   eax,eax
  40d0aa:	je     0x40d0b8
  40d0ac:	push   0x0
  40d0ae:	push   0x2
  40d0b0:	push   0x0
  40d0b2:	call   DWORD PTR ds:0x43cb50
  40d0b8:	xor    eax,eax
  40d0ba:	pop    ebp
  40d0bb:	ret    
  40d0bc:	push   0x18
  40d0be:	push   0x41ef68
  40d0c3:	call   0x40a868
  40d0c8:	push   0x8
  40d0ca:	call   0x40f60b
  40d0cf:	pop    ecx
  40d0d0:	and    DWORD PTR [ebp-0x4],0x0
  40d0d4:	xor    ebx,ebx
  40d0d6:	inc    ebx
  40d0d7:	cmp    DWORD PTR ds:0x43c118,ebx
  40d0dd:	je     0x40d1a8
  40d0e3:	mov    DWORD PTR ds:0x43c114,ebx
  40d0e9:	mov    al,BYTE PTR [ebp+0x10]
  40d0ec:	mov    ds:0x43c110,al
  40d0f1:	cmp    DWORD PTR [ebp+0xc],0x0
  40d0f5:	jne    0x40d198
  40d0fb:	push   DWORD PTR ds:0x43cb48
  40d101:	call   0x408999
  40d106:	pop    ecx
  40d107:	mov    edi,eax
  40d109:	mov    DWORD PTR [ebp-0x28],edi
  40d10c:	test   edi,edi
  40d10e:	je     0x40d188
  40d110:	push   DWORD PTR ds:0x43cb44
  40d116:	call   0x408999
  40d11b:	pop    ecx
  40d11c:	mov    esi,eax
  40d11e:	mov    DWORD PTR [ebp-0x24],esi
  40d121:	mov    DWORD PTR [ebp-0x1c],edi
  40d124:	mov    DWORD PTR [ebp-0x20],esi
  40d127:	sub    esi,0x4
  40d12a:	mov    DWORD PTR [ebp-0x24],esi
  40d12d:	cmp    esi,edi
  40d12f:	jb     0x40d188
  40d131:	call   0x408990
  40d136:	cmp    DWORD PTR [esi],eax
  40d138:	je     0x40d127
  40d13a:	cmp    esi,edi
  40d13c:	jb     0x40d188
  40d13e:	push   DWORD PTR [esi]
  40d140:	call   0x408999
  40d145:	mov    edi,eax
  40d147:	call   0x408990
  40d14c:	mov    DWORD PTR [esi],eax
  40d14e:	call   edi
  40d150:	push   DWORD PTR ds:0x43cb48
  40d156:	call   0x408999
  40d15b:	mov    edi,eax
  40d15d:	push   DWORD PTR ds:0x43cb44
  40d163:	call   0x408999
  40d168:	add    esp,0xc
  40d16b:	cmp    DWORD PTR [ebp-0x1c],edi
  40d16e:	jne    0x40d175
  40d170:	cmp    DWORD PTR [ebp-0x20],eax
  40d173:	je     0x40d183
  40d175:	mov    DWORD PTR [ebp-0x1c],edi
  40d178:	mov    DWORD PTR [ebp-0x28],edi
  40d17b:	mov    DWORD PTR [ebp-0x20],eax
  40d17e:	mov    esi,eax
  40d180:	mov    DWORD PTR [ebp-0x24],esi
  40d183:	mov    edi,DWORD PTR [ebp-0x28]
  40d186:	jmp    0x40d127
  40d188:	push   0x4198f0
  40d18d:	mov    eax,0x4198e4
  40d192:	call   0x40cff6
  40d197:	pop    ecx
  40d198:	push   0x4198f8
  40d19d:	mov    eax,0x4198f4
  40d1a2:	call   0x40cff6
  40d1a7:	pop    ecx
  40d1a8:	mov    DWORD PTR [ebp-0x4],0xfffffffe
  40d1af:	call   0x40d1d3
  40d1b4:	cmp    DWORD PTR [ebp+0x10],0x0
  40d1b8:	jne    0x40d1e2
  40d1ba:	mov    DWORD PTR ds:0x43c118,ebx
  40d1c0:	push   0x8
  40d1c2:	call   0x40f531
  40d1c7:	pop    ecx
  40d1c8:	push   DWORD PTR [ebp+0x8]
  40d1cb:	call   0x40cfcc
  40d1d0:	xor    ebx,ebx
  40d1d2:	inc    ebx
  40d1d3:	cmp    DWORD PTR [ebp+0x10],0x0
  40d1d7:	je     0x40d1e1
  40d1d9:	push   0x8
  40d1db:	call   0x40f531
  40d1e0:	pop    ecx
  40d1e1:	ret    
  40d1e2:	call   0x40a8ad
  40d1e7:	ret    
  40d1e8:	mov    edi,edi
  40d1ea:	push   ebp
  40d1eb:	mov    ebp,esp
  40d1ed:	push   0x0
  40d1ef:	push   0x0
  40d1f1:	push   DWORD PTR [ebp+0x8]
  40d1f4:	call   0x40d0bc
  40d1f9:	add    esp,0xc
  40d1fc:	pop    ebp
  40d1fd:	ret    
  40d1fe:	mov    edi,edi
  40d200:	push   ebp
  40d201:	mov    ebp,esp
  40d203:	push   0x0
  40d205:	push   0x1
  40d207:	push   DWORD PTR [ebp+0x8]
  40d20a:	call   0x40d0bc
  40d20f:	add    esp,0xc
  40d212:	pop    ebp
  40d213:	ret    
  40d214:	push   0x1
  40d216:	push   0x0
  40d218:	push   0x0
  40d21a:	call   0x40d0bc
  40d21f:	add    esp,0xc
  40d222:	ret    
  40d223:	push   0x1
  40d225:	push   0x1
  40d227:	push   0x0
  40d229:	call   0x40d0bc
  40d22e:	add    esp,0xc
  40d231:	ret    
  40d232:	mov    edi,edi
  40d234:	push   esi
  40d235:	call   0x408990
  40d23a:	mov    esi,eax
  40d23c:	push   esi
  40d23d:	call   0x411fcf
  40d242:	push   esi
  40d243:	call   0x411f60
  40d248:	push   esi
  40d249:	call   0x408605
  40d24e:	push   esi
  40d24f:	call   0x411f51
  40d254:	push   esi
  40d255:	call   0x411f42
  40d25a:	push   esi
  40d25b:	call   0x40ac07
  40d260:	push   esi
  40d261:	call   0x405261
  40d266:	push   esi
  40d267:	call   0x411df3
  40d26c:	push   0x40d1fe
  40d271:	call   0x40891e
  40d276:	add    esp,0x24
  40d279:	mov    ds:0x423de0,eax
  40d27e:	pop    esi
  40d27f:	ret    
  40d280:	mov    edi,edi
  40d282:	push   ebp
  40d283:	mov    ebp,esp
  40d285:	push   ecx
  40d286:	push   ecx
  40d287:	push   ebx
  40d288:	mov    ebx,DWORD PTR [ebp+0x8]
  40d28b:	push   esi
  40d28c:	push   edi
  40d28d:	xor    esi,esi
  40d28f:	xor    edi,edi
  40d291:	mov    DWORD PTR [ebp-0x4],edi
  40d294:	cmp    ebx,DWORD PTR [edi*8+0x423de8]
  40d29b:	je     0x40d2a6
  40d29d:	inc    edi
  40d29e:	mov    DWORD PTR [ebp-0x4],edi
  40d2a1:	cmp    edi,0x17
  40d2a4:	jb     0x40d294
  40d2a6:	cmp    edi,0x17
  40d2a9:	jae    0x40d426
  40d2af:	push   0x3
  40d2b1:	call   0x41216f
  40d2b6:	pop    ecx
  40d2b7:	cmp    eax,0x1
  40d2ba:	je     0x40d3f4
  40d2c0:	push   0x3
  40d2c2:	call   0x41216f
  40d2c7:	pop    ecx
  40d2c8:	test   eax,eax
  40d2ca:	jne    0x40d2d9
  40d2cc:	cmp    DWORD PTR ds:0x4231b0,0x1
  40d2d3:	je     0x40d3f4
  40d2d9:	cmp    ebx,0xfc
  40d2df:	je     0x40d426
  40d2e5:	push   0x41e1f0
  40d2ea:	mov    ebx,0x314
  40d2ef:	push   ebx
  40d2f0:	mov    edi,0x43c120
  40d2f5:	push   edi
  40d2f6:	call   0x40eeb7
  40d2fb:	add    esp,0xc
  40d2fe:	test   eax,eax
  40d300:	je     0x40d30f
  40d302:	push   esi
  40d303:	push   esi
  40d304:	push   esi
  40d305:	push   esi
  40d306:	push   esi
  40d307:	call   0x408614
  40d30c:	add    esp,0x14
  40d30f:	push   0x104
  40d314:	mov    esi,0x43c139
  40d319:	push   esi
  40d31a:	push   0x0
  40d31c:	mov    BYTE PTR ds:0x43c23d,0x0
  40d323:	call   DWORD PTR ds:0x4194bc
  40d329:	test   eax,eax
  40d32b:	jne    0x40d353
  40d32d:	push   0x41e1d8
  40d332:	push   0x2fb
  40d337:	push   esi
  40d338:	call   0x40eeb7
  40d33d:	add    esp,0xc
  40d340:	test   eax,eax
  40d342:	je     0x40d353
  40d344:	xor    eax,eax
  40d346:	push   eax
  40d347:	push   eax
  40d348:	push   eax
  40d349:	push   eax
  40d34a:	push   eax
  40d34b:	call   0x408614
  40d350:	add    esp,0x14
  40d353:	push   esi
  40d354:	call   0x40ef20
  40d359:	inc    eax
  40d35a:	pop    ecx
  40d35b:	cmp    eax,0x3c
  40d35e:	jbe    0x40d398
  40d360:	push   esi
  40d361:	call   0x40ef20
  40d366:	sub    esi,0x3b
  40d369:	add    eax,esi
  40d36b:	push   0x3
  40d36d:	mov    ecx,0x43c434
  40d372:	push   0x41e1d4
  40d377:	sub    ecx,eax
  40d379:	push   ecx
  40d37a:	push   eax
  40d37b:	call   0x410026
  40d380:	add    esp,0x14
  40d383:	test   eax,eax
  40d385:	je     0x40d398
  40d387:	xor    esi,esi
  40d389:	push   esi
  40d38a:	push   esi
  40d38b:	push   esi
  40d38c:	push   esi
  40d38d:	push   esi
  40d38e:	call   0x408614
  40d393:	add    esp,0x14
  40d396:	jmp    0x40d39a
  40d398:	xor    esi,esi
  40d39a:	push   0x41e1d0
  40d39f:	push   ebx
  40d3a0:	push   edi
  40d3a1:	call   0x40ff60
  40d3a6:	add    esp,0xc
  40d3a9:	test   eax,eax
  40d3ab:	je     0x40d3ba
  40d3ad:	push   esi
  40d3ae:	push   esi
  40d3af:	push   esi
  40d3b0:	push   esi
  40d3b1:	push   esi
  40d3b2:	call   0x408614
  40d3b7:	add    esp,0x14
  40d3ba:	mov    eax,DWORD PTR [ebp-0x4]
  40d3bd:	push   DWORD PTR [eax*8+0x423dec]
  40d3c4:	push   ebx
  40d3c5:	push   edi
  40d3c6:	call   0x40ff60
  40d3cb:	add    esp,0xc
  40d3ce:	test   eax,eax
  40d3d0:	je     0x40d3df
  40d3d2:	push   esi
  40d3d3:	push   esi
  40d3d4:	push   esi
  40d3d5:	push   esi
  40d3d6:	push   esi
  40d3d7:	call   0x408614
  40d3dc:	add    esp,0x14
  40d3df:	push   0x12010
  40d3e4:	push   0x41e1a8
  40d3e9:	push   edi
  40d3ea:	call   0x412006
  40d3ef:	add    esp,0xc
  40d3f2:	jmp    0x40d426
  40d3f4:	push   0xfffffff4
  40d3f6:	call   DWORD PTR ds:0x4192b4
  40d3fc:	mov    ebx,eax
  40d3fe:	cmp    ebx,esi
  40d400:	je     0x40d426
  40d402:	cmp    ebx,0xffffffff
  40d405:	je     0x40d426
  40d407:	push   0x0
  40d409:	lea    eax,[ebp-0x8]
  40d40c:	push   eax
  40d40d:	lea    esi,[edi*8+0x423dec]
  40d414:	push   DWORD PTR [esi]
  40d416:	call   0x40ef20
  40d41b:	pop    ecx
  40d41c:	push   eax
  40d41d:	push   DWORD PTR [esi]
  40d41f:	push   ebx
  40d420:	call   DWORD PTR ds:0x4192b0
  40d426:	pop    edi
  40d427:	pop    esi
  40d428:	pop    ebx
  40d429:	leave  
  40d42a:	ret    
  40d42b:	push   0x3
  40d42d:	call   0x41216f
  40d432:	pop    ecx
  40d433:	cmp    eax,0x1
  40d436:	je     0x40d44d
  40d438:	push   0x3
  40d43a:	call   0x41216f
  40d43f:	pop    ecx
  40d440:	test   eax,eax
  40d442:	jne    0x40d463
  40d444:	cmp    DWORD PTR ds:0x4231b0,0x1
  40d44b:	jne    0x40d463
  40d44d:	push   0xfc
  40d452:	call   0x40d280
  40d457:	push   0xff
  40d45c:	call   0x40d280
  40d461:	pop    ecx
  40d462:	pop    ecx
  40d463:	ret    
  40d464:	mov    edi,edi
  40d466:	push   ebp
  40d467:	mov    ebp,esp
  40d469:	push   ecx
  40d46a:	push   ecx
  40d46b:	push   esi
  40d46c:	call   0x408b6c
  40d471:	mov    esi,eax
  40d473:	test   esi,esi
  40d475:	je     0x40d5c1
  40d47b:	mov    edx,DWORD PTR [esi+0x5c]
  40d47e:	mov    eax,ds:0x423eac
  40d483:	push   edi
  40d484:	mov    edi,DWORD PTR [ebp+0x8]
  40d487:	mov    ecx,edx
  40d489:	push   ebx
  40d48a:	cmp    DWORD PTR [ecx],edi
  40d48c:	je     0x40d49c
  40d48e:	mov    ebx,eax
  40d490:	imul   ebx,ebx,0xc
  40d493:	add    ecx,0xc
  40d496:	add    ebx,edx
  40d498:	cmp    ecx,ebx
  40d49a:	jb     0x40d48a
  40d49c:	imul   eax,eax,0xc
  40d49f:	add    eax,edx
  40d4a1:	cmp    ecx,eax
  40d4a3:	jae    0x40d4ad
  40d4a5:	cmp    DWORD PTR [ecx],edi
  40d4a7:	jne    0x40d4ad
  40d4a9:	mov    eax,ecx
  40d4ab:	jmp    0x40d4af
  40d4ad:	xor    eax,eax
  40d4af:	test   eax,eax
  40d4b1:	je     0x40d4bd
  40d4b3:	mov    ebx,DWORD PTR [eax+0x8]
  40d4b6:	mov    DWORD PTR [ebp-0x4],ebx
  40d4b9:	test   ebx,ebx
  40d4bb:	jne    0x40d4c4
  40d4bd:	xor    eax,eax
  40d4bf:	jmp    0x40d5bf
  40d4c4:	cmp    ebx,0x5
  40d4c7:	jne    0x40d4d5
  40d4c9:	and    DWORD PTR [eax+0x8],0x0
  40d4cd:	xor    eax,eax
  40d4cf:	inc    eax
  40d4d0:	jmp    0x40d5bf
  40d4d5:	cmp    ebx,0x1
  40d4d8:	je     0x40d5bc
  40d4de:	mov    ecx,DWORD PTR [esi+0x60]
  40d4e1:	mov    DWORD PTR [ebp-0x8],ecx
  40d4e4:	mov    ecx,DWORD PTR [ebp+0xc]
  40d4e7:	mov    DWORD PTR [esi+0x60],ecx
  40d4ea:	mov    ecx,DWORD PTR [eax+0x4]
  40d4ed:	cmp    ecx,0x8
  40d4f0:	jne    0x40d5ae
  40d4f6:	mov    ecx,DWORD PTR ds:0x423ea0
  40d4fc:	mov    edi,DWORD PTR ds:0x423ea4
  40d502:	mov    edx,ecx
  40d504:	add    edi,ecx
  40d506:	cmp    edx,edi
  40d508:	jge    0x40d52e
  40d50a:	imul   ecx,ecx,0xc
  40d50d:	mov    edi,DWORD PTR [esi+0x5c]
  40d510:	and    DWORD PTR [ecx+edi*1+0x8],0x0
  40d515:	mov    edi,DWORD PTR ds:0x423ea0
  40d51b:	mov    ebx,DWORD PTR ds:0x423ea4
  40d521:	inc    edx
  40d522:	add    ebx,edi
  40d524:	add    ecx,0xc
  40d527:	cmp    edx,ebx
  40d529:	jl     0x40d50d
  40d52b:	mov    ebx,DWORD PTR [ebp-0x4]
  40d52e:	mov    eax,DWORD PTR [eax]
  40d530:	mov    edi,DWORD PTR [esi+0x64]
  40d533:	cmp    eax,0xc000008e
  40d538:	jne    0x40d543
  40d53a:	mov    DWORD PTR [esi+0x64],0x83
  40d541:	jmp    0x40d5a1
  40d543:	cmp    eax,0xc0000090
  40d548:	jne    0x40d553
  40d54a:	mov    DWORD PTR [esi+0x64],0x81
  40d551:	jmp    0x40d5a1
  40d553:	cmp    eax,0xc0000091
  40d558:	jne    0x40d563
  40d55a:	mov    DWORD PTR [esi+0x64],0x84
  40d561:	jmp    0x40d5a1
  40d563:	cmp    eax,0xc0000093
  40d568:	jne    0x40d573
  40d56a:	mov    DWORD PTR [esi+0x64],0x85
  40d571:	jmp    0x40d5a1
  40d573:	cmp    eax,0xc000008d
  40d578:	jne    0x40d583
  40d57a:	mov    DWORD PTR [esi+0x64],0x82
  40d581:	jmp    0x40d5a1
  40d583:	cmp    eax,0xc000008f
  40d588:	jne    0x40d593
  40d58a:	mov    DWORD PTR [esi+0x64],0x86
  40d591:	jmp    0x40d5a1
  40d593:	cmp    eax,0xc0000092
  40d598:	jne    0x40d5a1
  40d59a:	mov    DWORD PTR [esi+0x64],0x8a
  40d5a1:	push   DWORD PTR [esi+0x64]
  40d5a4:	push   0x8
  40d5a6:	call   ebx
  40d5a8:	pop    ecx
  40d5a9:	mov    DWORD PTR [esi+0x64],edi
  40d5ac:	jmp    0x40d5b5
  40d5ae:	and    DWORD PTR [eax+0x8],0x0
  40d5b2:	push   ecx
  40d5b3:	call   ebx
  40d5b5:	mov    eax,DWORD PTR [ebp-0x8]
  40d5b8:	pop    ecx
  40d5b9:	mov    DWORD PTR [esi+0x60],eax
  40d5bc:	or     eax,0xffffffff
  40d5bf:	pop    ebx
  40d5c0:	pop    edi
  40d5c1:	pop    esi
  40d5c2:	leave  
  40d5c3:	ret    
  40d5c4:	mov    edi,edi
  40d5c6:	push   esi
  40d5c7:	push   edi
  40d5c8:	xor    edi,edi
  40d5ca:	cmp    DWORD PTR ds:0x43cb4c,edi
  40d5d0:	jne    0x40d5d7
  40d5d2:	call   0x409580
  40d5d7:	mov    esi,DWORD PTR ds:0x43db6c
  40d5dd:	test   esi,esi
  40d5df:	jne    0x40d5e6
  40d5e1:	mov    esi,0x41d577
  40d5e6:	mov    al,BYTE PTR [esi]
  40d5e8:	cmp    al,0x20
  40d5ea:	ja     0x40d5f4
  40d5ec:	test   al,al
  40d5ee:	je     0x40d61e
  40d5f0:	test   edi,edi
  40d5f2:	je     0x40d618
  40d5f4:	cmp    al,0x22
  40d5f6:	jne    0x40d601
  40d5f8:	xor    ecx,ecx
  40d5fa:	test   edi,edi
  40d5fc:	sete   cl
  40d5ff:	mov    edi,ecx
  40d601:	movzx  eax,al
  40d604:	push   eax
  40d605:	call   0x41220d
  40d60a:	pop    ecx
  40d60b:	test   eax,eax
  40d60d:	je     0x40d610
  40d60f:	inc    esi
  40d610:	inc    esi
  40d611:	jmp    0x40d5e6
  40d613:	cmp    al,0x20
  40d615:	ja     0x40d61e
  40d617:	inc    esi
  40d618:	mov    al,BYTE PTR [esi]
  40d61a:	test   al,al
  40d61c:	jne    0x40d613
  40d61e:	pop    edi
  40d61f:	mov    eax,esi
  40d621:	pop    esi
  40d622:	ret    
  40d623:	cmp    DWORD PTR ds:0x43cb4c,0x0
  40d62a:	jne    0x40d631
  40d62c:	call   0x409580
  40d631:	push   esi
  40d632:	mov    esi,DWORD PTR ds:0x43bfa4
  40d638:	push   edi
  40d639:	xor    edi,edi
  40d63b:	test   esi,esi
  40d63d:	jne    0x40d657
  40d63f:	or     eax,0xffffffff
  40d642:	jmp    0x40d6e7
  40d647:	cmp    al,0x3d
  40d649:	je     0x40d64c
  40d64b:	inc    edi
  40d64c:	push   esi
  40d64d:	call   0x40ef20
  40d652:	pop    ecx
  40d653:	lea    esi,[esi+eax*1+0x1]
  40d657:	mov    al,BYTE PTR [esi]
  40d659:	test   al,al
  40d65b:	jne    0x40d647
  40d65d:	push   0x4
  40d65f:	inc    edi
  40d660:	push   edi
  40d661:	call   0x408832
  40d666:	mov    edi,eax
  40d668:	pop    ecx
  40d669:	pop    ecx
  40d66a:	mov    DWORD PTR ds:0x43c0f8,edi
  40d670:	test   edi,edi
  40d672:	je     0x40d63f
  40d674:	mov    esi,DWORD PTR ds:0x43bfa4
  40d67a:	push   ebx
  40d67b:	jmp    0x40d6bf
  40d67d:	push   esi
  40d67e:	call   0x40ef20
  40d683:	mov    ebx,eax
  40d685:	inc    ebx
  40d686:	cmp    BYTE PTR [esi],0x3d
  40d689:	pop    ecx
  40d68a:	je     0x40d6bd
  40d68c:	push   0x1
  40d68e:	push   ebx
  40d68f:	call   0x408832
  40d694:	pop    ecx
  40d695:	pop    ecx
  40d696:	mov    DWORD PTR [edi],eax
  40d698:	test   eax,eax
  40d69a:	je     0x40d6ea
  40d69c:	push   esi
  40d69d:	push   ebx
  40d69e:	push   eax
  40d69f:	call   0x40eeb7
  40d6a4:	add    esp,0xc
  40d6a7:	test   eax,eax
  40d6a9:	je     0x40d6ba
  40d6ab:	xor    eax,eax
  40d6ad:	push   eax
  40d6ae:	push   eax
  40d6af:	push   eax
  40d6b0:	push   eax
  40d6b1:	push   eax
  40d6b2:	call   0x408614
  40d6b7:	add    esp,0x14
  40d6ba:	add    edi,0x4
  40d6bd:	add    esi,ebx
  40d6bf:	cmp    BYTE PTR [esi],0x0
  40d6c2:	jne    0x40d67d
  40d6c4:	push   DWORD PTR ds:0x43bfa4
  40d6ca:	call   0x40f63e
  40d6cf:	and    DWORD PTR ds:0x43bfa4,0x0
  40d6d6:	and    DWORD PTR [edi],0x0
  40d6d9:	mov    DWORD PTR ds:0x43cb40,0x1
  40d6e3:	xor    eax,eax
  40d6e5:	pop    ecx
  40d6e6:	pop    ebx
  40d6e7:	pop    edi
  40d6e8:	pop    esi
  40d6e9:	ret    
  40d6ea:	push   DWORD PTR ds:0x43c0f8
  40d6f0:	call   0x40f63e
  40d6f5:	and    DWORD PTR ds:0x43c0f8,0x0
  40d6fc:	or     eax,0xffffffff
  40d6ff:	jmp    0x40d6e5
  40d701:	mov    edi,edi
  40d703:	push   ebp
  40d704:	mov    ebp,esp
  40d706:	push   ecx
  40d707:	mov    ecx,DWORD PTR [ebp+0x10]
  40d70a:	push   ebx
  40d70b:	xor    eax,eax
  40d70d:	push   esi
  40d70e:	mov    DWORD PTR [edi],eax
  40d710:	mov    esi,edx
  40d712:	mov    edx,DWORD PTR [ebp+0xc]
  40d715:	mov    DWORD PTR [ecx],0x1
  40d71b:	cmp    DWORD PTR [ebp+0x8],eax
  40d71e:	je     0x40d729
  40d720:	mov    ebx,DWORD PTR [ebp+0x8]
  40d723:	add    DWORD PTR [ebp+0x8],0x4
  40d727:	mov    DWORD PTR [ebx],edx
  40d729:	mov    DWORD PTR [ebp-0x4],eax
  40d72c:	cmp    BYTE PTR [esi],0x22
  40d72f:	jne    0x40d741
  40d731:	xor    eax,eax
  40d733:	cmp    DWORD PTR [ebp-0x4],eax
  40d736:	mov    bl,0x22
  40d738:	sete   al
  40d73b:	inc    esi
  40d73c:	mov    DWORD PTR [ebp-0x4],eax
  40d73f:	jmp    0x40d77d
  40d741:	inc    DWORD PTR [edi]
  40d743:	test   edx,edx
  40d745:	je     0x40d74f
  40d747:	mov    al,BYTE PTR [esi]
  40d749:	mov    BYTE PTR [edx],al
  40d74b:	inc    edx
  40d74c:	mov    DWORD PTR [ebp+0xc],edx
  40d74f:	mov    bl,BYTE PTR [esi]
  40d751:	movzx  eax,bl
  40d754:	push   eax
  40d755:	inc    esi
  40d756:	call   0x41220d
  40d75b:	pop    ecx
  40d75c:	test   eax,eax
  40d75e:	je     0x40d773
  40d760:	inc    DWORD PTR [edi]
  40d762:	cmp    DWORD PTR [ebp+0xc],0x0
  40d766:	je     0x40d772
  40d768:	mov    ecx,DWORD PTR [ebp+0xc]
  40d76b:	mov    al,BYTE PTR [esi]
  40d76d:	inc    DWORD PTR [ebp+0xc]
  40d770:	mov    BYTE PTR [ecx],al
  40d772:	inc    esi
  40d773:	mov    edx,DWORD PTR [ebp+0xc]
  40d776:	mov    ecx,DWORD PTR [ebp+0x10]
  40d779:	test   bl,bl
  40d77b:	je     0x40d7af
  40d77d:	cmp    DWORD PTR [ebp-0x4],0x0
  40d781:	jne    0x40d72c
  40d783:	cmp    bl,0x20
  40d786:	je     0x40d78d
  40d788:	cmp    bl,0x9
  40d78b:	jne    0x40d72c
  40d78d:	test   edx,edx
  40d78f:	je     0x40d795
  40d791:	mov    BYTE PTR [edx-0x1],0x0
  40d795:	and    DWORD PTR [ebp-0x4],0x0
  40d799:	cmp    BYTE PTR [esi],0x0
  40d79c:	je     0x40d88b
  40d7a2:	mov    al,BYTE PTR [esi]
  40d7a4:	cmp    al,0x20
  40d7a6:	je     0x40d7ac
  40d7a8:	cmp    al,0x9
  40d7aa:	jne    0x40d7b2
  40d7ac:	inc    esi
  40d7ad:	jmp    0x40d7a2
  40d7af:	dec    esi
  40d7b0:	jmp    0x40d795
  40d7b2:	cmp    BYTE PTR [esi],0x0
  40d7b5:	je     0x40d88b
  40d7bb:	cmp    DWORD PTR [ebp+0x8],0x0
  40d7bf:	je     0x40d7ca
  40d7c1:	mov    eax,DWORD PTR [ebp+0x8]
  40d7c4:	add    DWORD PTR [ebp+0x8],0x4
  40d7c8:	mov    DWORD PTR [eax],edx
  40d7ca:	inc    DWORD PTR [ecx]
  40d7cc:	xor    ebx,ebx
  40d7ce:	inc    ebx
  40d7cf:	xor    ecx,ecx
  40d7d1:	jmp    0x40d7d5
  40d7d3:	inc    esi
  40d7d4:	inc    ecx
  40d7d5:	cmp    BYTE PTR [esi],0x5c
  40d7d8:	je     0x40d7d3
  40d7da:	cmp    BYTE PTR [esi],0x22
  40d7dd:	jne    0x40d805
  40d7df:	test   cl,0x1
  40d7e2:	jne    0x40d803
  40d7e4:	cmp    DWORD PTR [ebp-0x4],0x0
  40d7e8:	je     0x40d7f6
  40d7ea:	lea    eax,[esi+0x1]
  40d7ed:	cmp    BYTE PTR [eax],0x22
  40d7f0:	jne    0x40d7f6
  40d7f2:	mov    esi,eax
  40d7f4:	jmp    0x40d803
  40d7f6:	xor    eax,eax
  40d7f8:	xor    ebx,ebx
  40d7fa:	cmp    DWORD PTR [ebp-0x4],eax
  40d7fd:	sete   al
  40d800:	mov    DWORD PTR [ebp-0x4],eax
  40d803:	shr    ecx,1
  40d805:	test   ecx,ecx
  40d807:	je     0x40d81b
  40d809:	dec    ecx
  40d80a:	test   edx,edx
  40d80c:	je     0x40d812
  40d80e:	mov    BYTE PTR [edx],0x5c
  40d811:	inc    edx
  40d812:	inc    DWORD PTR [edi]
  40d814:	test   ecx,ecx
  40d816:	jne    0x40d809
  40d818:	mov    DWORD PTR [ebp+0xc],edx
  40d81b:	mov    al,BYTE PTR [esi]
  40d81d:	test   al,al
  40d81f:	je     0x40d876
  40d821:	cmp    DWORD PTR [ebp-0x4],0x0
  40d825:	jne    0x40d82f
  40d827:	cmp    al,0x20
  40d829:	je     0x40d876
  40d82b:	cmp    al,0x9
  40d82d:	je     0x40d876
  40d82f:	test   ebx,ebx
  40d831:	je     0x40d870
  40d833:	movsx  eax,al
  40d836:	push   eax
  40d837:	test   edx,edx
  40d839:	je     0x40d85e
  40d83b:	call   0x41220d
  40d840:	pop    ecx
  40d841:	test   eax,eax
  40d843:	je     0x40d852
  40d845:	mov    al,BYTE PTR [esi]
  40d847:	mov    ecx,DWORD PTR [ebp+0xc]
  40d84a:	inc    DWORD PTR [ebp+0xc]
  40d84d:	mov    BYTE PTR [ecx],al
  40d84f:	inc    esi
  40d850:	inc    DWORD PTR [edi]
  40d852:	mov    ecx,DWORD PTR [ebp+0xc]
  40d855:	mov    al,BYTE PTR [esi]
  40d857:	inc    DWORD PTR [ebp+0xc]
  40d85a:	mov    BYTE PTR [ecx],al
  40d85c:	jmp    0x40d86b
  40d85e:	call   0x41220d
  40d863:	pop    ecx
  40d864:	test   eax,eax
  40d866:	je     0x40d86b
  40d868:	inc    esi
  40d869:	inc    DWORD PTR [edi]
  40d86b:	inc    DWORD PTR [edi]
  40d86d:	mov    edx,DWORD PTR [ebp+0xc]
  40d870:	inc    esi
  40d871:	jmp    0x40d7cc
  40d876:	test   edx,edx
  40d878:	je     0x40d881
  40d87a:	mov    BYTE PTR [edx],0x0
  40d87d:	inc    edx
  40d87e:	mov    DWORD PTR [ebp+0xc],edx
  40d881:	inc    DWORD PTR [edi]
  40d883:	mov    ecx,DWORD PTR [ebp+0x10]
  40d886:	jmp    0x40d799
  40d88b:	mov    eax,DWORD PTR [ebp+0x8]
  40d88e:	pop    esi
  40d88f:	pop    ebx
  40d890:	test   eax,eax
  40d892:	je     0x40d897
  40d894:	and    DWORD PTR [eax],0x0
  40d897:	inc    DWORD PTR [ecx]
  40d899:	leave  
  40d89a:	ret    
  40d89b:	mov    edi,edi
  40d89d:	push   ebp
  40d89e:	mov    ebp,esp
  40d8a0:	sub    esp,0xc
  40d8a3:	push   ebx
  40d8a4:	xor    ebx,ebx
  40d8a6:	push   esi
  40d8a7:	push   edi
  40d8a8:	cmp    DWORD PTR ds:0x43cb4c,ebx
  40d8ae:	jne    0x40d8b5
  40d8b0:	call   0x409580
  40d8b5:	push   0x104
  40d8ba:	mov    esi,0x43c438
  40d8bf:	push   esi
  40d8c0:	push   ebx
  40d8c1:	mov    BYTE PTR ds:0x43c53c,bl
  40d8c7:	call   DWORD PTR ds:0x4194bc
  40d8cd:	mov    eax,ds:0x43db6c
  40d8d2:	mov    DWORD PTR ds:0x43c108,esi
  40d8d8:	cmp    eax,ebx
  40d8da:	je     0x40d8e3
  40d8dc:	mov    DWORD PTR [ebp-0x4],eax
  40d8df:	cmp    BYTE PTR [eax],bl
  40d8e1:	jne    0x40d8e6
  40d8e3:	mov    DWORD PTR [ebp-0x4],esi
  40d8e6:	mov    edx,DWORD PTR [ebp-0x4]
  40d8e9:	lea    eax,[ebp-0x8]
  40d8ec:	push   eax
  40d8ed:	push   ebx
  40d8ee:	push   ebx
  40d8ef:	lea    edi,[ebp-0xc]
  40d8f2:	call   0x40d701
  40d8f7:	mov    eax,DWORD PTR [ebp-0x8]
  40d8fa:	add    esp,0xc
  40d8fd:	cmp    eax,0x3fffffff
  40d902:	jae    0x40d94e
  40d904:	mov    ecx,DWORD PTR [ebp-0xc]
  40d907:	cmp    ecx,0xffffffff
  40d90a:	jae    0x40d94e
  40d90c:	mov    edi,eax
  40d90e:	shl    edi,0x2
  40d911:	lea    eax,[edi+ecx*1]
  40d914:	cmp    eax,ecx
  40d916:	jb     0x40d94e
  40d918:	push   eax
  40d919:	call   0x4087ed
  40d91e:	mov    esi,eax
  40d920:	pop    ecx
  40d921:	cmp    esi,ebx
  40d923:	je     0x40d94e
  40d925:	mov    edx,DWORD PTR [ebp-0x4]
  40d928:	lea    eax,[ebp-0x8]
  40d92b:	push   eax
  40d92c:	add    edi,esi
  40d92e:	push   edi
  40d92f:	push   esi
  40d930:	lea    edi,[ebp-0xc]
  40d933:	call   0x40d701
  40d938:	mov    eax,DWORD PTR [ebp-0x8]
  40d93b:	add    esp,0xc
  40d93e:	dec    eax
  40d93f:	mov    ds:0x43c0ec,eax
  40d944:	mov    DWORD PTR ds:0x43c0f0,esi
  40d94a:	xor    eax,eax
  40d94c:	jmp    0x40d951
  40d94e:	or     eax,0xffffffff
  40d951:	pop    edi
  40d952:	pop    esi
  40d953:	pop    ebx
  40d954:	leave  
  40d955:	ret    
  40d956:	mov    edi,edi
  40d958:	push   ebp
  40d959:	mov    ebp,esp
  40d95b:	mov    eax,ds:0x43c540
  40d960:	sub    esp,0xc
  40d963:	push   ebx
  40d964:	push   esi
  40d965:	mov    esi,DWORD PTR ds:0x4194cc
  40d96b:	push   edi
  40d96c:	xor    ebx,ebx
  40d96e:	xor    edi,edi
  40d970:	cmp    eax,ebx
  40d972:	jne    0x40d9a2
  40d974:	call   esi
  40d976:	mov    edi,eax
  40d978:	cmp    edi,ebx
  40d97a:	je     0x40d988
  40d97c:	mov    DWORD PTR ds:0x43c540,0x1
  40d986:	jmp    0x40d9ab
  40d988:	call   DWORD PTR ds:0x41927c
  40d98e:	cmp    eax,0x78
  40d991:	jne    0x40d99d
  40d993:	push   0x2
  40d995:	pop    eax
  40d996:	mov    ds:0x43c540,eax
  40d99b:	jmp    0x40d9a2
  40d99d:	mov    eax,ds:0x43c540
  40d9a2:	cmp    eax,0x1
  40d9a5:	jne    0x40da2c
  40d9ab:	cmp    edi,ebx
  40d9ad:	jne    0x40d9be
  40d9af:	call   esi
  40d9b1:	mov    edi,eax
  40d9b3:	cmp    edi,ebx
  40d9b5:	jne    0x40d9be
  40d9b7:	xor    eax,eax
  40d9b9:	jmp    0x40da88
  40d9be:	mov    eax,edi
  40d9c0:	cmp    WORD PTR [edi],bx
  40d9c3:	je     0x40d9d3
  40d9c5:	inc    eax
  40d9c6:	inc    eax
  40d9c7:	cmp    WORD PTR [eax],bx
  40d9ca:	jne    0x40d9c5
  40d9cc:	inc    eax
  40d9cd:	inc    eax
  40d9ce:	cmp    WORD PTR [eax],bx
  40d9d1:	jne    0x40d9c5
  40d9d3:	mov    esi,DWORD PTR ds:0x4192dc
  40d9d9:	push   ebx
  40d9da:	push   ebx
  40d9db:	push   ebx
  40d9dc:	sub    eax,edi
  40d9de:	push   ebx
  40d9df:	sar    eax,1
  40d9e1:	inc    eax
  40d9e2:	push   eax
  40d9e3:	push   edi
  40d9e4:	push   ebx
  40d9e5:	push   ebx
  40d9e6:	mov    DWORD PTR [ebp-0xc],eax
  40d9e9:	call   esi
  40d9eb:	mov    DWORD PTR [ebp-0x8],eax
  40d9ee:	cmp    eax,ebx
  40d9f0:	je     0x40da21
  40d9f2:	push   eax
  40d9f3:	call   0x4087ed
  40d9f8:	pop    ecx
  40d9f9:	mov    DWORD PTR [ebp-0x4],eax
  40d9fc:	cmp    eax,ebx
  40d9fe:	je     0x40da21
  40da00:	push   ebx
  40da01:	push   ebx
  40da02:	push   DWORD PTR [ebp-0x8]
  40da05:	push   eax
  40da06:	push   DWORD PTR [ebp-0xc]
  40da09:	push   edi
  40da0a:	push   ebx
  40da0b:	push   ebx
  40da0c:	call   esi
  40da0e:	test   eax,eax
  40da10:	jne    0x40da1e
  40da12:	push   DWORD PTR [ebp-0x4]
  40da15:	call   0x40f63e
  40da1a:	pop    ecx
  40da1b:	mov    DWORD PTR [ebp-0x4],ebx
  40da1e:	mov    ebx,DWORD PTR [ebp-0x4]
  40da21:	push   edi
  40da22:	call   DWORD PTR ds:0x4194c8
  40da28:	mov    eax,ebx
  40da2a:	jmp    0x40da88
  40da2c:	cmp    eax,0x2
  40da2f:	je     0x40da35
  40da31:	cmp    eax,ebx
  40da33:	jne    0x40d9b7
  40da35:	call   DWORD PTR ds:0x4194c4
  40da3b:	mov    esi,eax
  40da3d:	cmp    esi,ebx
  40da3f:	je     0x40d9b7
  40da45:	cmp    BYTE PTR [esi],bl
  40da47:	je     0x40da53
  40da49:	inc    eax
  40da4a:	cmp    BYTE PTR [eax],bl
  40da4c:	jne    0x40da49
  40da4e:	inc    eax
  40da4f:	cmp    BYTE PTR [eax],bl
  40da51:	jne    0x40da49
  40da53:	sub    eax,esi
  40da55:	inc    eax
  40da56:	push   eax
  40da57:	mov    DWORD PTR [ebp-0x8],eax
  40da5a:	call   0x4087ed
  40da5f:	mov    edi,eax
  40da61:	pop    ecx
  40da62:	cmp    edi,ebx
  40da64:	jne    0x40da72
  40da66:	push   esi
  40da67:	call   DWORD PTR ds:0x4194c0
  40da6d:	jmp    0x40d9b7
  40da72:	push   DWORD PTR [ebp-0x8]
  40da75:	push   esi
  40da76:	push   edi
  40da77:	call   0x403ee0
  40da7c:	add    esp,0xc
  40da7f:	push   esi
  40da80:	call   DWORD PTR ds:0x4194c0
  40da86:	mov    eax,edi
  40da88:	pop    edi
  40da89:	pop    esi
  40da8a:	pop    ebx
  40da8b:	leave  
  40da8c:	ret    
  40da8d:	push   0x54
  40da8f:	push   0x41ef88
  40da94:	call   0x40a868
  40da99:	xor    edi,edi
  40da9b:	mov    DWORD PTR [ebp-0x4],edi
  40da9e:	lea    eax,[ebp-0x64]
  40daa1:	push   eax
  40daa2:	call   DWORD PTR ds:0x419490
  40daa8:	mov    DWORD PTR [ebp-0x4],0xfffffffe
  40daaf:	push   0x40
  40dab1:	push   0x20
  40dab3:	pop    esi
  40dab4:	push   esi
  40dab5:	call   0x408832
  40daba:	pop    ecx
  40dabb:	pop    ecx
  40dabc:	cmp    eax,edi
  40dabe:	je     0x40dcd8
  40dac4:	mov    ds:0x43ca40,eax
  40dac9:	mov    DWORD PTR ds:0x43ca2c,esi
  40dacf:	lea    ecx,[eax+0x800]
  40dad5:	jmp    0x40db07
  40dad7:	mov    BYTE PTR [eax+0x4],0x0
  40dadb:	or     DWORD PTR [eax],0xffffffff
  40dade:	mov    BYTE PTR [eax+0x5],0xa
  40dae2:	mov    DWORD PTR [eax+0x8],edi
  40dae5:	mov    BYTE PTR [eax+0x24],0x0
  40dae9:	mov    BYTE PTR [eax+0x25],0xa
  40daed:	mov    BYTE PTR [eax+0x26],0xa
  40daf1:	mov    DWORD PTR [eax+0x38],edi
  40daf4:	mov    BYTE PTR [eax+0x34],0x0
  40daf8:	add    eax,0x40
  40dafb:	mov    ecx,DWORD PTR ds:0x43ca40
  40db01:	add    ecx,0x800
  40db07:	cmp    eax,ecx
  40db09:	jb     0x40dad7
  40db0b:	cmp    WORD PTR [ebp-0x32],di
  40db0f:	je     0x40dc1f
  40db15:	mov    eax,DWORD PTR [ebp-0x30]
  40db18:	cmp    eax,edi
  40db1a:	je     0x40dc1f
  40db20:	mov    edi,DWORD PTR [eax]
  40db22:	lea    ebx,[eax+0x4]
  40db25:	lea    eax,[ebx+edi*1]
  40db28:	mov    DWORD PTR [ebp-0x1c],eax
  40db2b:	mov    esi,0x800
  40db30:	cmp    edi,esi
  40db32:	jl     0x40db36
  40db34:	mov    edi,esi
  40db36:	mov    DWORD PTR [ebp-0x20],0x1
  40db3d:	jmp    0x40db9a
  40db3f:	push   0x40
  40db41:	push   0x20
  40db43:	call   0x408832
  40db48:	pop    ecx
  40db49:	pop    ecx
  40db4a:	test   eax,eax
  40db4c:	je     0x40dba4
  40db4e:	mov    ecx,DWORD PTR [ebp-0x20]
  40db51:	lea    ecx,[ecx*4+0x43ca40]
  40db58:	mov    DWORD PTR [ecx],eax
  40db5a:	add    DWORD PTR ds:0x43ca2c,0x20
  40db61:	lea    edx,[eax+0x800]
  40db67:	jmp    0x40db93
  40db69:	mov    BYTE PTR [eax+0x4],0x0
  40db6d:	or     DWORD PTR [eax],0xffffffff
  40db70:	mov    BYTE PTR [eax+0x5],0xa
  40db74:	and    DWORD PTR [eax+0x8],0x0
  40db78:	and    BYTE PTR [eax+0x24],0x80
  40db7c:	mov    BYTE PTR [eax+0x25],0xa
  40db80:	mov    BYTE PTR [eax+0x26],0xa
  40db84:	and    DWORD PTR [eax+0x38],0x0
  40db88:	mov    BYTE PTR [eax+0x34],0x0
  40db8c:	add    eax,0x40
  40db8f:	mov    edx,DWORD PTR [ecx]
  40db91:	add    edx,esi
  40db93:	cmp    eax,edx
  40db95:	jb     0x40db69
  40db97:	inc    DWORD PTR [ebp-0x20]
  40db9a:	cmp    DWORD PTR ds:0x43ca2c,edi
  40dba0:	jl     0x40db3f
  40dba2:	jmp    0x40dbaa
  40dba4:	mov    edi,DWORD PTR ds:0x43ca2c
  40dbaa:	and    DWORD PTR [ebp-0x20],0x0
  40dbae:	test   edi,edi
  40dbb0:	jle    0x40dc1f
  40dbb2:	mov    eax,DWORD PTR [ebp-0x1c]
  40dbb5:	mov    ecx,DWORD PTR [eax]
  40dbb7:	cmp    ecx,0xffffffff
  40dbba:	je     0x40dc12
  40dbbc:	cmp    ecx,0xfffffffe
  40dbbf:	je     0x40dc12
  40dbc1:	mov    al,BYTE PTR [ebx]
  40dbc3:	test   al,0x1
  40dbc5:	je     0x40dc12
  40dbc7:	test   al,0x8
  40dbc9:	jne    0x40dbd6
  40dbcb:	push   ecx
  40dbcc:	call   DWORD PTR ds:0x4194d0
  40dbd2:	test   eax,eax
  40dbd4:	je     0x40dc12
  40dbd6:	mov    esi,DWORD PTR [ebp-0x20]
  40dbd9:	mov    eax,esi
  40dbdb:	sar    eax,0x5
  40dbde:	and    esi,0x1f
  40dbe1:	shl    esi,0x6
  40dbe4:	add    esi,DWORD PTR [eax*4+0x43ca40]
  40dbeb:	mov    eax,DWORD PTR [ebp-0x1c]
  40dbee:	mov    eax,DWORD PTR [eax]
  40dbf0:	mov    DWORD PTR [esi],eax
  40dbf2:	mov    al,BYTE PTR [ebx]
  40dbf4:	mov    BYTE PTR [esi+0x4],al
  40dbf7:	push   0xfa0
  40dbfc:	lea    eax,[esi+0xc]
  40dbff:	push   eax
  40dc00:	call   0x411f6f
  40dc05:	pop    ecx
  40dc06:	pop    ecx
  40dc07:	test   eax,eax
  40dc09:	je     0x40dcd8
  40dc0f:	inc    DWORD PTR [esi+0x8]
  40dc12:	inc    DWORD PTR [ebp-0x20]
  40dc15:	inc    ebx
  40dc16:	add    DWORD PTR [ebp-0x1c],0x4
  40dc1a:	cmp    DWORD PTR [ebp-0x20],edi
  40dc1d:	jl     0x40dbb2
  40dc1f:	xor    ebx,ebx
  40dc21:	mov    esi,ebx
  40dc23:	shl    esi,0x6
  40dc26:	add    esi,DWORD PTR ds:0x43ca40
  40dc2c:	mov    eax,DWORD PTR [esi]
  40dc2e:	cmp    eax,0xffffffff
  40dc31:	je     0x40dc3e
  40dc33:	cmp    eax,0xfffffffe
  40dc36:	je     0x40dc3e
  40dc38:	or     BYTE PTR [esi+0x4],0x80
  40dc3c:	jmp    0x40dcb0
  40dc3e:	mov    BYTE PTR [esi+0x4],0x81
  40dc42:	test   ebx,ebx
  40dc44:	jne    0x40dc4b
  40dc46:	push   0xfffffff6
  40dc48:	pop    eax
  40dc49:	jmp    0x40dc55
  40dc4b:	mov    eax,ebx
  40dc4d:	dec    eax
  40dc4e:	neg    eax
  40dc50:	sbb    eax,eax
  40dc52:	add    eax,0xfffffff5
  40dc55:	push   eax
  40dc56:	call   DWORD PTR ds:0x4192b4
  40dc5c:	mov    edi,eax
  40dc5e:	cmp    edi,0xffffffff
  40dc61:	je     0x40dca6
  40dc63:	test   edi,edi
  40dc65:	je     0x40dca6
  40dc67:	push   edi
  40dc68:	call   DWORD PTR ds:0x4194d0
  40dc6e:	test   eax,eax
  40dc70:	je     0x40dca6
  40dc72:	mov    DWORD PTR [esi],edi
  40dc74:	and    eax,0xff
  40dc79:	cmp    eax,0x2
  40dc7c:	jne    0x40dc84
  40dc7e:	or     BYTE PTR [esi+0x4],0x40
  40dc82:	jmp    0x40dc8d
  40dc84:	cmp    eax,0x3
  40dc87:	jne    0x40dc8d
  40dc89:	or     BYTE PTR [esi+0x4],0x8
  40dc8d:	push   0xfa0
  40dc92:	lea    eax,[esi+0xc]
  40dc95:	push   eax
  40dc96:	call   0x411f6f
  40dc9b:	pop    ecx
  40dc9c:	pop    ecx
  40dc9d:	test   eax,eax
  40dc9f:	je     0x40dcd8
  40dca1:	inc    DWORD PTR [esi+0x8]
  40dca4:	jmp    0x40dcb0
  40dca6:	or     BYTE PTR [esi+0x4],0x40
  40dcaa:	mov    DWORD PTR [esi],0xfffffffe
  40dcb0:	inc    ebx
  40dcb1:	cmp    ebx,0x3
  40dcb4:	jl     0x40dc21
  40dcba:	push   DWORD PTR ds:0x43ca2c
  40dcc0:	call   DWORD PTR ds:0x4192cc
  40dcc6:	xor    eax,eax
  40dcc8:	jmp    0x40dcdb
  40dcca:	xor    eax,eax
  40dccc:	inc    eax
  40dccd:	ret    
  40dcce:	mov    esp,DWORD PTR [ebp-0x18]
  40dcd1:	mov    DWORD PTR [ebp-0x4],0xfffffffe
  40dcd8:	or     eax,0xffffffff
  40dcdb:	call   0x40a8ad
  40dce0:	ret    
  40dce1:	mov    edi,edi
  40dce3:	push   esi
  40dce4:	mov    eax,0x41eda0
  40dce9:	mov    esi,0x41eda0
  40dcee:	push   edi
  40dcef:	mov    edi,eax
  40dcf1:	cmp    eax,esi
  40dcf3:	jae    0x40dd04
  40dcf5:	mov    eax,DWORD PTR [edi]
  40dcf7:	test   eax,eax
  40dcf9:	je     0x40dcfd
  40dcfb:	call   eax
  40dcfd:	add    edi,0x4
  40dd00:	cmp    edi,esi
  40dd02:	jb     0x40dcf5
  40dd04:	pop    edi
  40dd05:	pop    esi
  40dd06:	ret    
  40dd07:	mov    edi,edi
  40dd09:	push   esi
  40dd0a:	mov    eax,0x41eda8
  40dd0f:	mov    esi,0x41eda8
  40dd14:	push   edi
  40dd15:	mov    edi,eax
  40dd17:	cmp    eax,esi
  40dd19:	jae    0x40dd2a
  40dd1b:	mov    eax,DWORD PTR [edi]
  40dd1d:	test   eax,eax
  40dd1f:	je     0x40dd23
  40dd21:	call   eax
  40dd23:	add    edi,0x4
  40dd26:	cmp    edi,esi
  40dd28:	jb     0x40dd1b
  40dd2a:	pop    edi
  40dd2b:	pop    esi
  40dd2c:	ret    
  40dd2d:	mov    edi,edi
  40dd2f:	push   ebp
  40dd30:	mov    ebp,esp
  40dd32:	xor    eax,eax
  40dd34:	cmp    DWORD PTR [ebp+0x8],eax
  40dd37:	push   0x0
  40dd39:	sete   al
  40dd3c:	push   0x1000
  40dd41:	push   eax
  40dd42:	call   DWORD PTR ds:0x4193fc
  40dd48:	mov    ds:0x43c544,eax
  40dd4d:	test   eax,eax
  40dd4f:	jne    0x40dd53
  40dd51:	pop    ebp
  40dd52:	ret    
  40dd53:	xor    eax,eax
  40dd55:	inc    eax
  40dd56:	mov    ds:0x43ca28,eax
  40dd5b:	pop    ebp
  40dd5c:	ret    
  40dd5d:	mov    edi,edi
  40dd5f:	push   ebp
  40dd60:	mov    ebp,esp
  40dd62:	sub    esp,0x10
  40dd65:	mov    eax,ds:0x423d68
  40dd6a:	and    DWORD PTR [ebp-0x8],0x0
  40dd6e:	and    DWORD PTR [ebp-0x4],0x0
  40dd72:	push   ebx
  40dd73:	push   edi
  40dd74:	mov    edi,0xbb40e64e
  40dd79:	mov    ebx,0xffff0000
  40dd7e:	cmp    eax,edi
  40dd80:	je     0x40dd8f
  40dd82:	test   ebx,eax
  40dd84:	je     0x40dd8f
  40dd86:	not    eax
  40dd88:	mov    ds:0x423d6c,eax
  40dd8d:	jmp    0x40ddef
  40dd8f:	push   esi
  40dd90:	lea    eax,[ebp-0x8]
  40dd93:	push   eax
  40dd94:	call   DWORD PTR ds:0x419488
  40dd9a:	mov    esi,DWORD PTR [ebp-0x4]
  40dd9d:	xor    esi,DWORD PTR [ebp-0x8]
  40dda0:	call   DWORD PTR ds:0x419380
  40dda6:	xor    esi,eax
  40dda8:	call   DWORD PTR ds:0x419294
  40ddae:	xor    esi,eax
  40ddb0:	call   DWORD PTR ds:0x419300
  40ddb6:	xor    esi,eax
  40ddb8:	lea    eax,[ebp-0x10]
  40ddbb:	push   eax
  40ddbc:	call   DWORD PTR ds:0x419304
  40ddc2:	mov    eax,DWORD PTR [ebp-0xc]
  40ddc5:	xor    eax,DWORD PTR [ebp-0x10]
  40ddc8:	xor    esi,eax
  40ddca:	cmp    esi,edi
  40ddcc:	jne    0x40ddd5
  40ddce:	mov    esi,0xbb40e64f
  40ddd3:	jmp    0x40dde0
  40ddd5:	test   ebx,esi
  40ddd7:	jne    0x40dde0
  40ddd9:	mov    eax,esi
  40dddb:	shl    eax,0x10
  40ddde:	or     esi,eax
  40dde0:	mov    DWORD PTR ds:0x423d68,esi
  40dde6:	not    esi
  40dde8:	mov    DWORD PTR ds:0x423d6c,esi
  40ddee:	pop    esi
  40ddef:	pop    edi
  40ddf0:	pop    ebx
  40ddf1:	leave  
  40ddf2:	ret    
  40ddf3:	int3   
  40ddf4:	int3   
  40ddf5:	int3   
  40ddf6:	int3   
  40ddf7:	int3   
  40ddf8:	int3   
  40ddf9:	int3   
  40ddfa:	int3   
  40ddfb:	int3   
  40ddfc:	int3   
  40ddfd:	int3   
  40ddfe:	int3   
  40ddff:	int3   
  40de00:	fld    TBYTE PTR [esp+0x10]
  40de04:	fld    TBYTE PTR [esp+0x4]
  40de08:	mov    eax,DWORD PTR [esp+0x8]
  40de0c:	add    eax,eax
  40de0e:	jae    0x40de9a
  40de14:	xor    eax,0xe000000
  40de19:	test   eax,0xe000000
  40de1e:	je     0x40de23
  40de20:	fdivp  st(1),st
  40de22:	ret    
  40de23:	shr    eax,0x1c
  40de26:	cmp    BYTE PTR [eax+0x423f00],0x0
  40de2d:	jne    0x40de32
  40de2f:	fdivp  st(1),st
  40de31:	ret    
  40de32:	mov    eax,DWORD PTR [esp+0xc]
  40de36:	and    eax,0x7fff
  40de3b:	je     0x40dea4
  40de3d:	cmp    eax,0x7fff
  40de42:	je     0x40dea4
  40de44:	fnstcw WORD PTR [esp+0x1c]
  40de48:	mov    eax,DWORD PTR [esp+0x1c]
  40de4c:	or     eax,0x33f
  40de51:	and    eax,0xf3ff
  40de56:	mov    DWORD PTR [esp+0x20],eax
  40de5a:	fldcw  WORD PTR [esp+0x20]
  40de5e:	mov    eax,DWORD PTR [esp+0x18]
  40de62:	and    eax,0x7fff
  40de67:	cmp    eax,0x1
  40de6a:	je     0x40de83
  40de6c:	fmul   DWORD PTR ds:0x423f10
  40de72:	fxch   st(1)
  40de74:	fmul   DWORD PTR ds:0x423f10
  40de7a:	fxch   st(1)
  40de7c:	fldcw  WORD PTR [esp+0x1c]
  40de80:	fdivp  st(1),st
  40de82:	ret    
  40de83:	fmul   DWORD PTR ds:0x423f14
  40de89:	fxch   st(1)
  40de8b:	fmul   DWORD PTR ds:0x423f14
  40de91:	fxch   st(1)
  40de93:	fldcw  WORD PTR [esp+0x1c]
  40de97:	fdivp  st(1),st
  40de99:	ret    
  40de9a:	mov    eax,DWORD PTR [esp+0x4]
  40de9e:	or     eax,DWORD PTR [esp+0x8]
  40dea2:	jne    0x40dea7
  40dea4:	fdivp  st(1),st
  40dea6:	ret    
  40dea7:	mov    eax,DWORD PTR [esp+0xc]
  40deab:	and    eax,0x7fff
  40deb0:	jne    0x40dea4
  40deb2:	fnstcw WORD PTR [esp+0x1c]
  40deb6:	mov    eax,DWORD PTR [esp+0x1c]
  40deba:	or     eax,0x33f
  40debf:	and    eax,0xf3ff
  40dec4:	mov    DWORD PTR [esp+0x20],eax
  40dec8:	fldcw  WORD PTR [esp+0x20]
  40decc:	mov    eax,DWORD PTR [esp+0x18]
  40ded0:	and    eax,0x7fff
  40ded5:	je     0x40dee8
  40ded7:	cmp    eax,0x7fff
  40dedc:	je     0x40df10
  40dede:	mov    eax,DWORD PTR [esp+0x14]
  40dee2:	add    eax,eax
  40dee4:	jae    0x40df10
  40dee6:	jmp    0x40def0
  40dee8:	mov    eax,DWORD PTR [esp+0x14]
  40deec:	add    eax,eax
  40deee:	jb     0x40df10
  40def0:	fxch   st(1)
  40def2:	fstp   st(0)
  40def4:	fld    st(0)
  40def6:	fmul   DWORD PTR ds:0x423f18
  40defc:	fstp   TBYTE PTR [esp+0x4]
  40df00:	fld    TBYTE PTR [esp+0x10]
  40df04:	fxch   st(1)
  40df06:	fldcw  WORD PTR [esp+0x1c]
  40df0b:	jmp    0x40de08
  40df10:	fldcw  WORD PTR [esp+0x1c]
  40df14:	fdivp  st(1),st
  40df16:	ret    
  40df17:	sub    esp,0x2c
  40df1a:	and    eax,0x3f
  40df1d:	jmp    DWORD PTR [eax*4+0x423f5e]
  40df24:	fdiv   st,st(0)
  40df26:	add    esp,0x2c
  40df29:	ret    
  40df2a:	add    esp,0x2c
  40df2d:	int    0x6
  40df2f:	fdivr  st,st(0)
  40df31:	add    esp,0x2c
  40df34:	ret    
  40df35:	add    esp,0x2c
  40df38:	int    0x6
  40df3a:	fdiv   st,st(0)
  40df3c:	add    esp,0x2c
  40df3f:	ret    
  40df40:	fdivp  st(0),st
  40df42:	add    esp,0x2c
  40df45:	ret    
  40df46:	fdivr  st,st(0)
  40df48:	add    esp,0x2c
  40df4b:	ret    
  40df4c:	fdivrp st(0),st
  40df4e:	add    esp,0x2c
  40df51:	ret    
  40df52:	fstp   TBYTE PTR [esp+0xc]
  40df56:	fld    st(0)
  40df58:	fstp   TBYTE PTR [esp]
  40df5b:	fstp   TBYTE PTR [esp+0x20]
  40df5f:	call   0x40de00
  40df64:	fld    TBYTE PTR [esp+0x20]
  40df68:	fxch   st(1)
  40df6a:	add    esp,0x2c
  40df6d:	ret    
  40df6e:	add    esp,0x2c
  40df71:	int    0x6
  40df73:	fstp   TBYTE PTR [esp]
  40df76:	fstp   TBYTE PTR [esp+0xc]
  40df7a:	call   0x40de00
  40df7f:	fld    TBYTE PTR [esp+0xc]
  40df83:	fxch   st(1)
  40df85:	add    esp,0x2c
  40df88:	ret    
  40df89:	add    esp,0x2c
  40df8c:	int    0x6
  40df8e:	fxch   st(1)
  40df90:	fstp   TBYTE PTR [esp+0xc]
  40df94:	fld    st(0)
  40df96:	fstp   TBYTE PTR [esp]
  40df99:	fstp   TBYTE PTR [esp+0x20]
  40df9d:	call   0x40de00
  40dfa2:	fld    TBYTE PTR [esp+0x20]
  40dfa6:	add    esp,0x2c
  40dfa9:	ret    
  40dfaa:	fstp   TBYTE PTR [esp]
  40dfad:	fstp   TBYTE PTR [esp+0xc]
  40dfb1:	call   0x40de00
  40dfb6:	add    esp,0x2c
  40dfb9:	ret    
  40dfba:	fstp   TBYTE PTR [esp+0xc]
  40dfbe:	fstp   TBYTE PTR [esp]
  40dfc1:	call   0x40de00
  40dfc6:	fld    TBYTE PTR [esp+0xc]
  40dfca:	add    esp,0x2c
  40dfcd:	ret    
  40dfce:	fstp   TBYTE PTR [esp+0xc]
  40dfd2:	fstp   TBYTE PTR [esp]
  40dfd5:	call   0x40de00
  40dfda:	add    esp,0x2c
  40dfdd:	ret    
  40dfde:	fstp   TBYTE PTR [esp+0xc]
  40dfe2:	fxch   st(1)
  40dfe4:	fld    st(0)
  40dfe6:	fstp   TBYTE PTR [esp]
  40dfe9:	fstp   TBYTE PTR [esp+0x20]
  40dfed:	call   0x40de00
  40dff2:	fxch   st(1)
  40dff4:	fld    TBYTE PTR [esp+0x20]
  40dff8:	fxch   st(2)
  40dffa:	add    esp,0x2c
  40dffd:	ret    
  40dffe:	add    esp,0x2c
  40e001:	int    0x6
  40e003:	fstp   TBYTE PTR [esp]
  40e006:	fxch   st(1)
  40e008:	fstp   TBYTE PTR [esp+0xc]
  40e00c:	call   0x40de00
  40e011:	fxch   st(1)
  40e013:	fld    TBYTE PTR [esp+0xc]
  40e017:	fxch   st(2)
  40e019:	add    esp,0x2c
  40e01c:	ret    
  40e01d:	add    esp,0x2c
  40e020:	int    0x6
  40e022:	fxch   st(2)
  40e024:	fstp   TBYTE PTR [esp+0xc]
  40e028:	fxch   st(1)
  40e02a:	fld    st(0)
  40e02c:	fstp   TBYTE PTR [esp]
  40e02f:	fstp   TBYTE PTR [esp+0x20]
  40e033:	call   0x40de00
  40e038:	fxch   st(1)
  40e03a:	fld    TBYTE PTR [esp+0x20]
  40e03e:	add    esp,0x2c
  40e041:	ret    
  40e042:	fstp   TBYTE PTR [esp]
  40e045:	fxch   st(1)
  40e047:	fstp   TBYTE PTR [esp+0xc]
  40e04b:	call   0x40de00
  40e050:	fxch   st(1)
  40e052:	add    esp,0x2c
  40e055:	ret    
  40e056:	fstp   TBYTE PTR [esp+0xc]
  40e05a:	fxch   st(1)
  40e05c:	fstp   TBYTE PTR [esp]
  40e05f:	call   0x40de00
  40e064:	fxch   st(1)
  40e066:	fld    TBYTE PTR [esp+0xc]
  40e06a:	add    esp,0x2c
  40e06d:	ret    
  40e06e:	fstp   TBYTE PTR [esp+0xc]
  40e072:	fxch   st(1)
  40e074:	fstp   TBYTE PTR [esp]
  40e077:	call   0x40de00
  40e07c:	fxch   st(1)
  40e07e:	add    esp,0x2c
  40e081:	ret    
  40e082:	fstp   TBYTE PTR [esp+0xc]
  40e086:	fxch   st(2)
  40e088:	fld    st(0)
  40e08a:	fstp   TBYTE PTR [esp]
  40e08d:	fstp   TBYTE PTR [esp+0x20]
  40e091:	call   0x40de00
  40e096:	fxch   st(2)
  40e098:	fld    TBYTE PTR [esp+0x20]
  40e09c:	fxch   st(3)
  40e09e:	add    esp,0x2c
  40e0a1:	ret    
  40e0a2:	add    esp,0x2c
  40e0a5:	int    0x6
  40e0a7:	fstp   TBYTE PTR [esp]
  40e0aa:	fxch   st(2)
  40e0ac:	fstp   TBYTE PTR [esp+0xc]
  40e0b0:	call   0x40de00
  40e0b5:	fxch   st(2)
  40e0b7:	fld    TBYTE PTR [esp+0xc]
  40e0bb:	fxch   st(3)
  40e0bd:	add    esp,0x2c
  40e0c0:	ret    
  40e0c1:	add    esp,0x2c
  40e0c4:	int    0x6
  40e0c6:	fxch   st(3)
  40e0c8:	fstp   TBYTE PTR [esp+0xc]
  40e0cc:	fxch   st(2)
  40e0ce:	fld    st(0)
  40e0d0:	fstp   TBYTE PTR [esp]
  40e0d3:	fstp   TBYTE PTR [esp+0x20]
  40e0d7:	call   0x40de00
  40e0dc:	fxch   st(2)
  40e0de:	fld    TBYTE PTR [esp+0x20]
  40e0e2:	add    esp,0x2c
  40e0e5:	ret    
  40e0e6:	fstp   TBYTE PTR [esp]
  40e0e9:	fxch   st(2)
  40e0eb:	fstp   TBYTE PTR [esp+0xc]
  40e0ef:	call   0x40de00
  40e0f4:	fxch   st(2)
  40e0f6:	add    esp,0x2c
  40e0f9:	ret    
  40e0fa:	fstp   TBYTE PTR [esp+0xc]
  40e0fe:	fxch   st(2)
  40e100:	fstp   TBYTE PTR [esp]
  40e103:	call   0x40de00
  40e108:	fxch   st(2)
  40e10a:	fld    TBYTE PTR [esp+0xc]
  40e10e:	add    esp,0x2c
  40e111:	ret    
  40e112:	fstp   TBYTE PTR [esp+0xc]
  40e116:	fxch   st(2)
  40e118:	fstp   TBYTE PTR [esp]
  40e11b:	call   0x40de00
  40e120:	fxch   st(2)
  40e122:	add    esp,0x2c
  40e125:	ret    
  40e126:	fstp   TBYTE PTR [esp+0xc]
  40e12a:	fxch   st(3)
  40e12c:	fld    st(0)
  40e12e:	fstp   TBYTE PTR [esp]
  40e131:	fstp   TBYTE PTR [esp+0x20]
  40e135:	call   0x40de00
  40e13a:	fxch   st(3)
  40e13c:	fld    TBYTE PTR [esp+0x20]
  40e140:	fxch   st(4)
  40e142:	add    esp,0x2c
  40e145:	ret    
  40e146:	add    esp,0x2c
  40e149:	int    0x6
  40e14b:	fstp   TBYTE PTR [esp]
  40e14e:	fxch   st(3)
  40e150:	fstp   TBYTE PTR [esp+0xc]
  40e154:	call   0x40de00
  40e159:	fxch   st(3)
  40e15b:	fld    TBYTE PTR [esp+0xc]
  40e15f:	fxch   st(4)
  40e161:	add    esp,0x2c
  40e164:	ret    
  40e165:	add    esp,0x2c
  40e168:	int    0x6
  40e16a:	fxch   st(4)
  40e16c:	fstp   TBYTE PTR [esp+0xc]
  40e170:	fxch   st(3)
  40e172:	fld    st(0)
  40e174:	fstp   TBYTE PTR [esp]
  40e177:	fstp   TBYTE PTR [esp+0x20]
  40e17b:	call   0x40de00
  40e180:	fxch   st(3)
  40e182:	fld    TBYTE PTR [esp+0x20]
  40e186:	add    esp,0x2c
  40e189:	ret    
  40e18a:	fstp   TBYTE PTR [esp]
  40e18d:	fxch   st(3)
  40e18f:	fstp   TBYTE PTR [esp+0xc]
  40e193:	call   0x40de00
  40e198:	fxch   st(3)
  40e19a:	add    esp,0x2c
  40e19d:	ret    
  40e19e:	fstp   TBYTE PTR [esp+0xc]
  40e1a2:	fxch   st(3)
  40e1a4:	fstp   TBYTE PTR [esp]
  40e1a7:	call   0x40de00
  40e1ac:	fxch   st(3)
  40e1ae:	fld    TBYTE PTR [esp+0xc]
  40e1b2:	add    esp,0x2c
  40e1b5:	ret    
  40e1b6:	fstp   TBYTE PTR [esp+0xc]
  40e1ba:	fxch   st(3)
  40e1bc:	fstp   TBYTE PTR [esp]
  40e1bf:	call   0x40de00
  40e1c4:	fxch   st(3)
  40e1c6:	add    esp,0x2c
  40e1c9:	ret    
  40e1ca:	fstp   TBYTE PTR [esp+0xc]
  40e1ce:	fxch   st(4)
  40e1d0:	fld    st(0)
  40e1d2:	fstp   TBYTE PTR [esp]
  40e1d5:	fstp   TBYTE PTR [esp+0x20]
  40e1d9:	call   0x40de00
  40e1de:	fxch   st(4)
  40e1e0:	fld    TBYTE PTR [esp+0x20]
  40e1e4:	fxch   st(5)
  40e1e6:	add    esp,0x2c
  40e1e9:	ret    
  40e1ea:	add    esp,0x2c
  40e1ed:	int    0x6
  40e1ef:	fstp   TBYTE PTR [esp]
  40e1f2:	fxch   st(4)
  40e1f4:	fstp   TBYTE PTR [esp+0xc]
  40e1f8:	call   0x40de00
  40e1fd:	fxch   st(4)
  40e1ff:	fld    TBYTE PTR [esp+0xc]
  40e203:	fxch   st(5)
  40e205:	add    esp,0x2c
  40e208:	ret    
  40e209:	add    esp,0x2c
  40e20c:	int    0x6
  40e20e:	fxch   st(5)
  40e210:	fstp   TBYTE PTR [esp+0xc]
  40e214:	fxch   st(4)
  40e216:	fld    st(0)
  40e218:	fstp   TBYTE PTR [esp]
  40e21b:	fstp   TBYTE PTR [esp+0x20]
  40e21f:	call   0x40de00
  40e224:	fxch   st(4)
  40e226:	fld    TBYTE PTR [esp+0x20]
  40e22a:	add    esp,0x2c
  40e22d:	ret    
  40e22e:	fstp   TBYTE PTR [esp]
  40e231:	fxch   st(4)
  40e233:	fstp   TBYTE PTR [esp+0xc]
  40e237:	call   0x40de00
  40e23c:	fxch   st(4)
  40e23e:	add    esp,0x2c
  40e241:	ret    
  40e242:	fstp   TBYTE PTR [esp+0xc]
  40e246:	fxch   st(4)
  40e248:	fstp   TBYTE PTR [esp]
  40e24b:	call   0x40de00
  40e250:	fxch   st(4)
  40e252:	fld    TBYTE PTR [esp+0xc]
  40e256:	add    esp,0x2c
  40e259:	ret    
  40e25a:	fstp   TBYTE PTR [esp+0xc]
  40e25e:	fxch   st(4)
  40e260:	fstp   TBYTE PTR [esp]
  40e263:	call   0x40de00
  40e268:	fxch   st(4)
  40e26a:	add    esp,0x2c
  40e26d:	ret    
  40e26e:	fstp   TBYTE PTR [esp+0xc]
  40e272:	fxch   st(5)
  40e274:	fld    st(0)
  40e276:	fstp   TBYTE PTR [esp]
  40e279:	fstp   TBYTE PTR [esp+0x20]
  40e27d:	call   0x40de00
  40e282:	fxch   st(5)
  40e284:	fld    TBYTE PTR [esp+0x20]
  40e288:	fxch   st(6)
  40e28a:	add    esp,0x2c
  40e28d:	ret    
  40e28e:	add    esp,0x2c
  40e291:	int    0x6
  40e293:	fstp   TBYTE PTR [esp]
  40e296:	fxch   st(5)
  40e298:	fstp   TBYTE PTR [esp+0xc]
  40e29c:	call   0x40de00
  40e2a1:	fxch   st(5)
  40e2a3:	fld    TBYTE PTR [esp+0xc]
  40e2a7:	fxch   st(6)
  40e2a9:	add    esp,0x2c
  40e2ac:	ret    
  40e2ad:	add    esp,0x2c
  40e2b0:	int    0x6
  40e2b2:	fxch   st(6)
  40e2b4:	fstp   TBYTE PTR [esp+0xc]
  40e2b8:	fxch   st(5)
  40e2ba:	fld    st(0)
  40e2bc:	fstp   TBYTE PTR [esp]
  40e2bf:	fstp   TBYTE PTR [esp+0x20]
  40e2c3:	call   0x40de00
  40e2c8:	fxch   st(5)
  40e2ca:	fld    TBYTE PTR [esp+0x20]
  40e2ce:	add    esp,0x2c
  40e2d1:	ret    
  40e2d2:	fstp   TBYTE PTR [esp]
  40e2d5:	fxch   st(5)
  40e2d7:	fstp   TBYTE PTR [esp+0xc]
  40e2db:	call   0x40de00
  40e2e0:	fxch   st(5)
  40e2e2:	add    esp,0x2c
  40e2e5:	ret    
  40e2e6:	fstp   TBYTE PTR [esp+0xc]
  40e2ea:	fxch   st(5)
  40e2ec:	fstp   TBYTE PTR [esp]
  40e2ef:	call   0x40de00
  40e2f4:	fxch   st(5)
  40e2f6:	fld    TBYTE PTR [esp+0xc]
  40e2fa:	add    esp,0x2c
  40e2fd:	ret    
  40e2fe:	fstp   TBYTE PTR [esp+0xc]
  40e302:	fxch   st(5)
  40e304:	fstp   TBYTE PTR [esp]
  40e307:	call   0x40de00
  40e30c:	fxch   st(5)
  40e30e:	add    esp,0x2c
  40e311:	ret    
  40e312:	fstp   TBYTE PTR [esp+0xc]
  40e316:	fxch   st(6)
  40e318:	fld    st(0)
  40e31a:	fstp   TBYTE PTR [esp]
  40e31d:	fstp   TBYTE PTR [esp+0x20]
  40e321:	call   0x40de00
  40e326:	fxch   st(6)
  40e328:	fld    TBYTE PTR [esp+0x20]
  40e32c:	fxch   st(7)
  40e32e:	add    esp,0x2c
  40e331:	ret    
  40e332:	add    esp,0x2c
  40e335:	int    0x6
  40e337:	fstp   TBYTE PTR [esp]
  40e33a:	fxch   st(6)
  40e33c:	fstp   TBYTE PTR [esp+0xc]
  40e340:	call   0x40de00
  40e345:	fxch   st(6)
  40e347:	fld    TBYTE PTR [esp+0xc]
  40e34b:	fxch   st(7)
  40e34d:	add    esp,0x2c
  40e350:	ret    
  40e351:	add    esp,0x2c
  40e354:	int    0x6
  40e356:	fxch   st(7)
  40e358:	fstp   TBYTE PTR [esp+0xc]
  40e35c:	fxch   st(6)
  40e35e:	fld    st(0)
  40e360:	fstp   TBYTE PTR [esp]
  40e363:	fstp   TBYTE PTR [esp+0x20]
  40e367:	call   0x40de00
  40e36c:	fxch   st(6)
  40e36e:	fld    TBYTE PTR [esp+0x20]
  40e372:	add    esp,0x2c
  40e375:	ret    
  40e376:	fstp   TBYTE PTR [esp]
  40e379:	fxch   st(6)
  40e37b:	fstp   TBYTE PTR [esp+0xc]
  40e37f:	call   0x40de00
  40e384:	fxch   st(6)
  40e386:	add    esp,0x2c
  40e389:	ret    
  40e38a:	fstp   TBYTE PTR [esp+0xc]
  40e38e:	fxch   st(6)
  40e390:	fstp   TBYTE PTR [esp]
  40e393:	call   0x40de00
  40e398:	fxch   st(6)
  40e39a:	fld    TBYTE PTR [esp+0xc]
  40e39e:	add    esp,0x2c
  40e3a1:	ret    
  40e3a2:	fstp   TBYTE PTR [esp+0xc]
  40e3a6:	fxch   st(6)
  40e3a8:	fstp   TBYTE PTR [esp]
  40e3ab:	call   0x40de00
  40e3b0:	fxch   st(6)
  40e3b2:	add    esp,0x2c
  40e3b5:	ret    
  40e3b6:	sub    esp,0x2c
  40e3b9:	fstp   TBYTE PTR [esp]
  40e3bc:	fstp   TBYTE PTR [esp+0xc]
  40e3c0:	call   0x40de00
  40e3c5:	add    esp,0x2c
  40e3c8:	ret    
  40e3c9:	sub    esp,0x2c
  40e3cc:	fstp   TBYTE PTR [esp+0xc]
  40e3d0:	fstp   TBYTE PTR [esp]
  40e3d3:	call   0x40de00
  40e3d8:	add    esp,0x2c
  40e3db:	ret    
  40e3dc:	push   eax
  40e3dd:	mov    eax,DWORD PTR [esp+0x8]
  40e3e1:	and    eax,0x7f800000
  40e3e6:	cmp    eax,0x7f800000
  40e3eb:	je     0x40e420
  40e3ed:	fnstsw ax
  40e3ef:	and    eax,0x3800
  40e3f4:	je     0x40e403
  40e3f6:	fld    DWORD PTR [esp+0x8]
  40e3fa:	call   0x40e3b6
  40e3ff:	pop    eax
  40e400:	ret    0x4
  40e403:	fxch   st(1)
  40e405:	sub    esp,0xc
  40e408:	fstp   TBYTE PTR [esp]
  40e40b:	fld    DWORD PTR [esp+0x14]
  40e40f:	call   0x40e3b6
  40e414:	fld    TBYTE PTR [esp]
  40e417:	fxch   st(1)
  40e419:	add    esp,0xc
  40e41c:	pop    eax
  40e41d:	ret    0x4
  40e420:	fdiv   DWORD PTR [esp+0x8]
  40e424:	pop    eax
  40e425:	ret    0x4
  40e428:	push   eax
  40e429:	mov    eax,DWORD PTR [esp+0xc]
  40e42d:	and    eax,0x7ff00000
  40e432:	cmp    eax,0x7ff00000
  40e437:	je     0x40e46c
  40e439:	fnstsw ax
  40e43b:	and    eax,0x3800
  40e440:	je     0x40e44f
  40e442:	fld    QWORD PTR [esp+0x8]
  40e446:	call   0x40e3b6
  40e44b:	pop    eax
  40e44c:	ret    0x8
  40e44f:	fxch   st(1)
  40e451:	sub    esp,0xc
  40e454:	fstp   TBYTE PTR [esp]
  40e457:	fld    QWORD PTR [esp+0x14]
  40e45b:	call   0x40e3b6
  40e460:	fld    TBYTE PTR [esp]
  40e463:	fxch   st(1)
  40e465:	add    esp,0xc
  40e468:	pop    eax
  40e469:	ret    0x8
  40e46c:	fdiv   QWORD PTR [esp+0x8]
  40e470:	pop    eax
  40e471:	ret    0x8
  40e474:	push   eax
  40e475:	fnstsw ax
  40e477:	and    eax,0x3800
  40e47c:	je     0x40e48b
  40e47e:	fild   WORD PTR [esp+0x8]
  40e482:	call   0x40e3b6
  40e487:	pop    eax
  40e488:	ret    0x4
  40e48b:	fxch   st(1)
  40e48d:	sub    esp,0xc
  40e490:	fstp   TBYTE PTR [esp]
  40e493:	fild   WORD PTR [esp+0x14]
  40e497:	call   0x40e3b6
  40e49c:	fld    TBYTE PTR [esp]
  40e49f:	fxch   st(1)
  40e4a1:	add    esp,0xc
  40e4a4:	pop    eax
  40e4a5:	ret    0x4
  40e4a8:	push   eax
  40e4a9:	fnstsw ax
  40e4ab:	and    eax,0x3800
  40e4b0:	je     0x40e4bf
  40e4b2:	fild   DWORD PTR [esp+0x8]
  40e4b6:	call   0x40e3b6
  40e4bb:	pop    eax
  40e4bc:	ret    0x4
  40e4bf:	fxch   st(1)
  40e4c1:	sub    esp,0xc
  40e4c4:	fstp   TBYTE PTR [esp]
  40e4c7:	fild   DWORD PTR [esp+0x14]
  40e4cb:	call   0x40e3b6
  40e4d0:	fld    TBYTE PTR [esp]
  40e4d3:	fxch   st(1)
  40e4d5:	add    esp,0xc
  40e4d8:	pop    eax
  40e4d9:	ret    0x4
  40e4dc:	push   eax
  40e4dd:	mov    eax,DWORD PTR [esp+0x8]
  40e4e1:	and    eax,0x7f800000
  40e4e6:	cmp    eax,0x7f800000
  40e4eb:	je     0x40e520
  40e4ed:	fnstsw ax
  40e4ef:	and    eax,0x3800
  40e4f4:	je     0x40e503
  40e4f6:	fld    DWORD PTR [esp+0x8]
  40e4fa:	call   0x40e3c9
  40e4ff:	pop    eax
  40e500:	ret    0x4
  40e503:	fxch   st(1)
  40e505:	sub    esp,0xc
  40e508:	fstp   TBYTE PTR [esp]
  40e50b:	fld    DWORD PTR [esp+0x14]
  40e50f:	call   0x40e3c9
  40e514:	fld    TBYTE PTR [esp]
  40e517:	fxch   st(1)
  40e519:	add    esp,0xc
  40e51c:	pop    eax
  40e51d:	ret    0x4
  40e520:	fdivr  DWORD PTR [esp+0x8]
  40e524:	pop    eax
  40e525:	ret    0x4
  40e528:	push   eax
  40e529:	mov    eax,DWORD PTR [esp+0xc]
  40e52d:	and    eax,0x7ff00000
  40e532:	cmp    eax,0x7ff00000
  40e537:	je     0x40e56c
  40e539:	fnstsw ax
  40e53b:	and    eax,0x3800
  40e540:	je     0x40e54f
  40e542:	fld    QWORD PTR [esp+0x8]
  40e546:	call   0x40e3c9
  40e54b:	pop    eax
  40e54c:	ret    0x8
  40e54f:	fxch   st(1)
  40e551:	sub    esp,0xc
  40e554:	fstp   TBYTE PTR [esp]
  40e557:	fld    QWORD PTR [esp+0x14]
  40e55b:	call   0x40e3c9
  40e560:	fld    TBYTE PTR [esp]
  40e563:	fxch   st(1)
  40e565:	add    esp,0xc
  40e568:	pop    eax
  40e569:	ret    0x8
  40e56c:	fdivr  QWORD PTR [esp+0x8]
  40e570:	pop    eax
  40e571:	ret    0x8
  40e574:	push   eax
  40e575:	fnstsw ax
  40e577:	and    eax,0x3800
  40e57c:	je     0x40e58b
  40e57e:	fild   WORD PTR [esp+0x8]
  40e582:	call   0x40e3c9
  40e587:	pop    eax
  40e588:	ret    0x4
  40e58b:	fxch   st(1)
  40e58d:	sub    esp,0xc
  40e590:	fstp   TBYTE PTR [esp]
  40e593:	fild   WORD PTR [esp+0x14]
  40e597:	call   0x40e3c9
  40e59c:	fld    TBYTE PTR [esp]
  40e59f:	fxch   st(1)
  40e5a1:	add    esp,0xc
  40e5a4:	pop    eax
  40e5a5:	ret    0x4
  40e5a8:	push   eax
  40e5a9:	fnstsw ax
  40e5ab:	and    eax,0x3800
  40e5b0:	je     0x40e5bf
  40e5b2:	fild   DWORD PTR [esp+0x8]
  40e5b6:	call   0x40e3c9
  40e5bb:	pop    eax
  40e5bc:	ret    0x4
  40e5bf:	fxch   st(1)
  40e5c1:	sub    esp,0xc
  40e5c4:	fstp   TBYTE PTR [esp]
  40e5c7:	fild   DWORD PTR [esp+0x14]
  40e5cb:	call   0x40e3c9
  40e5d0:	fld    TBYTE PTR [esp]
  40e5d3:	fxch   st(1)
  40e5d5:	add    esp,0xc
  40e5d8:	pop    eax
  40e5d9:	ret    0x4
  40e5dc:	push   eax
  40e5dd:	sub    esp,0x2c
  40e5e0:	fstp   TBYTE PTR [esp]
  40e5e3:	fstp   TBYTE PTR [esp+0xc]
  40e5e7:	call   0x40de00
  40e5ec:	add    esp,0x2c
  40e5ef:	pop    eax
  40e5f0:	ret    
  40e5f1:	push   eax
  40e5f2:	sub    esp,0x2c
  40e5f5:	fstp   TBYTE PTR [esp+0xc]
  40e5f9:	fstp   TBYTE PTR [esp]
  40e5fc:	call   0x40de00
  40e601:	add    esp,0x2c
  40e604:	pop    eax
  40e605:	ret    
  40e606:	push   eax
  40e607:	push   ebx
  40e608:	push   ecx
  40e609:	mov    eax,DWORD PTR [esp+0x16]
  40e60d:	xor    eax,0x700
  40e612:	test   eax,0x700
  40e617:	jne    0x40e7a0
  40e61d:	shr    eax,0xb
  40e620:	and    eax,0xf
  40e623:	cmp    BYTE PTR [eax+0x423f1c],0x0
  40e62a:	je     0x40e7a0
  40e630:	mov    eax,DWORD PTR [esp+0x16]
  40e634:	and    eax,0x7fff0000
  40e639:	cmp    eax,0x7fff0000
  40e63e:	je     0x40e7a0
  40e644:	mov    eax,DWORD PTR [esp+0x2e]
  40e648:	and    eax,0x7fff0000
  40e64d:	je     0x40e7a0
  40e653:	cmp    eax,0x7fff0000
  40e658:	je     0x40e7a0
  40e65e:	mov    eax,DWORD PTR [esp+0x2c]
  40e662:	add    eax,eax
  40e664:	jne    0x40e7a0
  40e66a:	mov    eax,DWORD PTR [esp+0x14]
  40e66e:	add    eax,eax
  40e670:	jne    0x40e7a0
  40e676:	mov    eax,DWORD PTR [esp+0x18]
  40e67a:	and    eax,0x7fff
  40e67f:	add    eax,0x3f
  40e682:	mov    ebx,DWORD PTR [esp+0x30]
  40e686:	and    ebx,0x7fff
  40e68c:	sub    ebx,eax
  40e68e:	ja     0x40e6ee
  40e690:	mov    eax,DWORD PTR [esp+0x18]
  40e694:	and    eax,0x7fff
  40e699:	add    eax,0xa
  40e69c:	mov    ebx,DWORD PTR [esp+0x30]
  40e6a0:	and    ebx,0x7fff
  40e6a6:	sub    ebx,eax
  40e6a8:	js     0x40e7a0
  40e6ae:	fld    TBYTE PTR [esp+0x28]
  40e6b2:	mov    eax,DWORD PTR [esp+0x18]
  40e6b6:	mov    ebx,DWORD PTR [esp+0x30]
  40e6ba:	and    ebx,0x7fff
  40e6c0:	mov    ecx,ebx
  40e6c2:	sub    ebx,eax
  40e6c4:	and    ebx,0x7
  40e6c7:	or     ebx,0x4
  40e6ca:	sub    ecx,ebx
  40e6cc:	mov    ebx,eax
  40e6ce:	and    ebx,0x8000
  40e6d4:	or     ecx,ebx
  40e6d6:	mov    DWORD PTR [esp+0x18],ecx
  40e6da:	fld    TBYTE PTR [esp+0x10]
  40e6de:	mov    DWORD PTR [esp+0x18],eax
  40e6e2:	fxch   st(1)
  40e6e4:	fprem  
  40e6e6:	fstp   TBYTE PTR [esp+0x28]
  40e6ea:	fstp   st(0)
  40e6ec:	jmp    0x40e690
  40e6ee:	test   edx,0x2
  40e6f4:	jne    0x40e6fe
  40e6f6:	fld    TBYTE PTR [esp+0x10]
  40e6fa:	fstp   TBYTE PTR [esp+0x1c]
  40e6fe:	fnstcw WORD PTR [esp+0x34]
  40e702:	mov    eax,DWORD PTR [esp+0x34]
  40e706:	or     eax,0x33f
  40e70b:	mov    DWORD PTR [esp+0x38],eax
  40e70f:	fldcw  WORD PTR [esp+0x38]
  40e713:	mov    eax,DWORD PTR [esp+0x18]
  40e717:	and    eax,0x7fff
  40e71c:	mov    ebx,DWORD PTR [esp+0x30]
  40e720:	and    ebx,0x7fff
  40e726:	sub    ebx,eax
  40e728:	and    ebx,0x3f
  40e72b:	or     ebx,0x20
  40e72e:	add    ebx,0x1
  40e731:	mov    ecx,ebx
  40e733:	mov    eax,DWORD PTR [esp+0x18]
  40e737:	mov    ebx,DWORD PTR [esp+0x30]
  40e73b:	and    ebx,0x7fff
  40e741:	and    eax,0x8000
  40e746:	or     ebx,eax
  40e748:	mov    DWORD PTR [esp+0x18],ebx
  40e74c:	fld    TBYTE PTR [esp+0x10]
  40e750:	fabs   
  40e752:	fld    TBYTE PTR [esp+0x28]
  40e756:	fabs   
  40e758:	fcom   st(1)
  40e75a:	fnstsw ax
  40e75c:	and    eax,0x100
  40e761:	jne    0x40e765
  40e763:	fsub   st,st(1)
  40e765:	fxch   st(1)
  40e767:	fmul   QWORD PTR ds:0x423f4c
  40e76d:	fxch   st(1)
  40e76f:	sub    ecx,0x1
  40e772:	jne    0x40e758
  40e774:	mov    ebx,DWORD PTR [esp+0x30]
  40e778:	fstp   TBYTE PTR [esp+0x28]
  40e77c:	fstp   st(0)
  40e77e:	fld    TBYTE PTR [esp+0x1c]
  40e782:	fld    TBYTE PTR ds:0x423f54
  40e788:	fprem  
  40e78a:	fstp   st(0)
  40e78c:	fld    TBYTE PTR [esp+0x28]
  40e790:	fldcw  WORD PTR [esp+0x34]
  40e794:	and    ebx,0x8000
  40e79a:	je     0x40e7aa
  40e79c:	fchs   
  40e79e:	jmp    0x40e7aa
  40e7a0:	fld    TBYTE PTR [esp+0x10]
  40e7a4:	fld    TBYTE PTR [esp+0x28]
  40e7a8:	fprem  
  40e7aa:	test   edx,0x3
  40e7b0:	je     0x40e808
  40e7b2:	fnstsw WORD PTR [esp+0x3c]
  40e7b6:	test   edx,0x1
  40e7bc:	je     0x40e7dd
  40e7be:	fnstcw WORD PTR [esp+0x34]
  40e7c2:	mov    eax,DWORD PTR [esp+0x34]
  40e7c6:	or     eax,0x300
  40e7cb:	mov    DWORD PTR [esp+0x38],eax
  40e7cf:	fldcw  WORD PTR [esp+0x38]
  40e7d3:	fmul   QWORD PTR ds:0x423f3c
  40e7d9:	fldcw  WORD PTR [esp+0x34]
  40e7dd:	mov    eax,DWORD PTR [esp+0x3c]
  40e7e1:	fxch   st(1)
  40e7e3:	fstp   st(0)
  40e7e5:	fld    TBYTE PTR [esp+0x1c]
  40e7e9:	fxch   st(1)
  40e7eb:	and    eax,0x4300
  40e7f0:	sub    esp,0x1c
  40e7f3:	fnstenv [esp]
  40e7f6:	and    DWORD PTR [esp+0x4],0xbcff
  40e7fe:	or     DWORD PTR [esp+0x4],eax
  40e802:	fldenv [esp]
  40e805:	add    esp,0x1c
  40e808:	pop    ecx
  40e809:	pop    ebx
  40e80a:	pop    eax
  40e80b:	ret    
  40e80c:	push   edx
  40e80d:	sub    esp,0x30
  40e810:	fstp   TBYTE PTR [esp+0x18]
  40e814:	fstp   TBYTE PTR [esp]
  40e817:	xor    edx,edx
  40e819:	mov    eax,DWORD PTR [esp+0x6]
  40e81d:	test   eax,0x7fff0000
  40e822:	je     0x40e82e
  40e824:	call   0x40e606
  40e829:	add    esp,0x30
  40e82c:	pop    edx
  40e82d:	ret    
  40e82e:	fld    TBYTE PTR [esp]
  40e831:	fld    TBYTE PTR [esp+0x18]
  40e835:	mov    eax,DWORD PTR [esp]
  40e838:	or     eax,DWORD PTR [esp+0x4]
  40e83c:	je     0x40e8b7
  40e83e:	fxch   st(1)
  40e840:	fstp   TBYTE PTR [esp+0xc]
  40e844:	fld    TBYTE PTR [esp]
  40e847:	fxch   st(1)
  40e849:	or     edx,0x2
  40e84c:	fnstcw WORD PTR [esp+0x24]
  40e850:	mov    eax,DWORD PTR [esp+0x24]
  40e854:	or     eax,0x33f
  40e859:	mov    DWORD PTR [esp+0x28],eax
  40e85d:	fldcw  WORD PTR [esp+0x28]
  40e861:	mov    eax,DWORD PTR [esp+0x20]
  40e865:	and    eax,0x7fff
  40e86a:	cmp    eax,0x7fbe
  40e86f:	ja     0x40e889
  40e871:	or     edx,0x1
  40e874:	fmul   QWORD PTR ds:0x423f34
  40e87a:	fstp   TBYTE PTR [esp+0x18]
  40e87e:	fmul   QWORD PTR ds:0x423f34
  40e884:	fstp   TBYTE PTR [esp]
  40e887:	jmp    0x40e8a9
  40e889:	fnstcw WORD PTR [esp+0x24]
  40e88d:	mov    eax,DWORD PTR [esp+0x24]
  40e891:	or     eax,0x300
  40e896:	mov    DWORD PTR [esp+0x28],eax
  40e89a:	fldcw  WORD PTR [esp+0x28]
  40e89e:	fstp   st(0)
  40e8a0:	fmul   QWORD PTR ds:0x423f34
  40e8a6:	fstp   TBYTE PTR [esp]
  40e8a9:	fldcw  WORD PTR [esp+0x24]
  40e8ad:	call   0x40e606
  40e8b2:	add    esp,0x30
  40e8b5:	pop    edx
  40e8b6:	ret    
  40e8b7:	fprem  
  40e8b9:	add    esp,0x30
  40e8bc:	pop    edx
  40e8bd:	ret    
  40e8be:	push   eax
  40e8bf:	push   ebx
  40e8c0:	push   ecx
  40e8c1:	mov    eax,DWORD PTR [esp+0x16]
  40e8c5:	xor    eax,0x700
  40e8ca:	test   eax,0x700
  40e8cf:	jne    0x40ea58
  40e8d5:	shr    eax,0xb
  40e8d8:	and    eax,0xf
  40e8db:	cmp    BYTE PTR [eax+0x423f1c],0x0
  40e8e2:	je     0x40ea58
  40e8e8:	mov    eax,DWORD PTR [esp+0x16]
  40e8ec:	and    eax,0x7fff0000
  40e8f1:	cmp    eax,0x7fff0000
  40e8f6:	je     0x40ea58
  40e8fc:	mov    eax,DWORD PTR [esp+0x2e]
  40e900:	and    eax,0x7fff0000
  40e905:	je     0x40ea58
  40e90b:	cmp    eax,0x7fff0000
  40e910:	je     0x40ea58
  40e916:	mov    eax,DWORD PTR [esp+0x2c]
  40e91a:	add    eax,eax
  40e91c:	jne    0x40ea58
  40e922:	mov    eax,DWORD PTR [esp+0x14]
  40e926:	add    eax,eax
  40e928:	jne    0x40ea58
  40e92e:	mov    eax,DWORD PTR [esp+0x18]
  40e932:	and    eax,0x7fff
  40e937:	add    eax,0x3f
  40e93a:	mov    ebx,DWORD PTR [esp+0x30]
  40e93e:	and    ebx,0x7fff
  40e944:	sub    ebx,eax
  40e946:	ja     0x40e9a6
  40e948:	mov    eax,DWORD PTR [esp+0x18]
  40e94c:	and    eax,0x7fff
  40e951:	add    eax,0xa
  40e954:	mov    ebx,DWORD PTR [esp+0x30]
  40e958:	and    ebx,0x7fff
  40e95e:	sub    ebx,eax
  40e960:	js     0x40ea58
  40e966:	fld    TBYTE PTR [esp+0x28]
  40e96a:	mov    eax,DWORD PTR [esp+0x18]
  40e96e:	mov    ebx,DWORD PTR [esp+0x30]
  40e972:	and    ebx,0x7fff
  40e978:	mov    ecx,ebx
  40e97a:	sub    ebx,eax
  40e97c:	and    ebx,0x7
  40e97f:	or     ebx,0x4
  40e982:	sub    ecx,ebx
  40e984:	mov    ebx,eax
  40e986:	and    ebx,0x8000
  40e98c:	or     ecx,ebx
  40e98e:	mov    DWORD PTR [esp+0x18],ecx
  40e992:	fld    TBYTE PTR [esp+0x10]
  40e996:	mov    DWORD PTR [esp+0x18],eax
  40e99a:	fxch   st(1)
  40e99c:	fprem  
  40e99e:	fstp   TBYTE PTR [esp+0x28]
  40e9a2:	fstp   st(0)
  40e9a4:	jmp    0x40e948
  40e9a6:	test   ebx,0x2
  40e9ac:	jne    0x40e9b6
  40e9ae:	fld    TBYTE PTR [esp+0x10]
  40e9b2:	fstp   TBYTE PTR [esp+0x1c]
  40e9b6:	fnstcw WORD PTR [esp+0x34]
  40e9ba:	mov    eax,DWORD PTR [esp+0x34]
  40e9be:	or     eax,0x33f
  40e9c3:	mov    DWORD PTR [esp+0x38],eax
  40e9c7:	fldcw  WORD PTR [esp+0x38]
  40e9cb:	mov    eax,DWORD PTR [esp+0x18]
  40e9cf:	and    eax,0x7fff
  40e9d4:	mov    ebx,DWORD PTR [esp+0x30]
  40e9d8:	and    ebx,0x7fff
  40e9de:	sub    ebx,eax
  40e9e0:	and    ebx,0x3f
  40e9e3:	or     ebx,0x20
  40e9e6:	add    ebx,0x1
  40e9e9:	mov    ecx,ebx
  40e9eb:	mov    eax,DWORD PTR [esp+0x18]
  40e9ef:	mov    ebx,DWORD PTR [esp+0x30]
  40e9f3:	and    ebx,0x7fff
  40e9f9:	and    eax,0x8000
  40e9fe:	or     ebx,eax
  40ea00:	mov    DWORD PTR [esp+0x18],ebx
  40ea04:	fld    TBYTE PTR [esp+0x10]
  40ea08:	fabs   
  40ea0a:	fld    TBYTE PTR [esp+0x28]
  40ea0e:	fabs   
  40ea10:	fcom   st(1)
  40ea12:	fnstsw ax
  40ea14:	and    eax,0x100
  40ea19:	jne    0x40ea1d
  40ea1b:	fsub   st,st(1)
  40ea1d:	fxch   st(1)
  40ea1f:	fmul   QWORD PTR ds:0x423f4c
  40ea25:	fxch   st(1)
  40ea27:	sub    ecx,0x1
  40ea2a:	jne    0x40ea10
  40ea2c:	mov    ebx,DWORD PTR [esp+0x30]
  40ea30:	fstp   TBYTE PTR [esp+0x28]
  40ea34:	fstp   st(0)
  40ea36:	fld    TBYTE PTR [esp+0x1c]
  40ea3a:	fld    TBYTE PTR ds:0x423f54
  40ea40:	fprem1 
  40ea42:	fstp   st(0)
  40ea44:	fld    TBYTE PTR [esp+0x28]
  40ea48:	fldcw  WORD PTR [esp+0x34]
  40ea4c:	and    ebx,0x8000
  40ea52:	je     0x40ea62
  40ea54:	fchs   
  40ea56:	jmp    0x40ea62
  40ea58:	fld    TBYTE PTR [esp+0x10]
  40ea5c:	fld    TBYTE PTR [esp+0x28]
  40ea60:	fprem1 
  40ea62:	test   edx,0x3
  40ea68:	je     0x40eac0
  40ea6a:	fnstsw WORD PTR [esp+0x3c]
  40ea6e:	test   edx,0x1
  40ea74:	je     0x40ea95
  40ea76:	fnstcw WORD PTR [esp+0x34]
  40ea7a:	mov    eax,DWORD PTR [esp+0x34]
  40ea7e:	or     eax,0x300
  40ea83:	mov    DWORD PTR [esp+0x38],eax
  40ea87:	fldcw  WORD PTR [esp+0x38]
  40ea8b:	fmul   QWORD PTR ds:0x423f3c
  40ea91:	fldcw  WORD PTR [esp+0x34]
  40ea95:	mov    eax,DWORD PTR [esp+0x3c]
  40ea99:	fxch   st(1)
  40ea9b:	fstp   st(0)
  40ea9d:	fld    TBYTE PTR [esp+0x1c]
  40eaa1:	fxch   st(1)
  40eaa3:	and    eax,0x4300
  40eaa8:	sub    esp,0x1c
  40eaab:	fnstenv [esp]
  40eaae:	and    DWORD PTR [esp+0x4],0xbcff
  40eab6:	or     DWORD PTR [esp+0x4],eax
  40eaba:	fldenv [esp]
  40eabd:	add    esp,0x1c
  40eac0:	pop    ecx
  40eac1:	pop    ebx
  40eac2:	pop    eax
  40eac3:	ret    
  40eac4:	push   edx
  40eac5:	sub    esp,0x30
  40eac8:	fstp   TBYTE PTR [esp+0x18]
  40eacc:	fstp   TBYTE PTR [esp]
  40eacf:	mov    edx,0x0
  40ead4:	mov    eax,DWORD PTR [esp+0x6]
  40ead8:	test   eax,0x7fff0000
  40eadd:	je     0x40eae9
  40eadf:	call   0x40e8be
  40eae4:	add    esp,0x30
  40eae7:	pop    edx
  40eae8:	ret    
  40eae9:	fld    TBYTE PTR [esp]
  40eaec:	fld    TBYTE PTR [esp+0x18]
  40eaf0:	mov    eax,DWORD PTR [esp]
  40eaf3:	or     eax,DWORD PTR [esp+0x4]
  40eaf7:	je     0x40eb72
  40eaf9:	fxch   st(1)
  40eafb:	fstp   TBYTE PTR [esp+0xc]
  40eaff:	fld    TBYTE PTR [esp]
  40eb02:	fxch   st(1)
  40eb04:	or     edx,0x2
  40eb07:	fnstcw WORD PTR [esp+0x24]
  40eb0b:	mov    eax,DWORD PTR [esp+0x24]
  40eb0f:	or     eax,0x33f
  40eb14:	mov    DWORD PTR [esp+0x28],eax
  40eb18:	fldcw  WORD PTR [esp+0x28]
  40eb1c:	mov    eax,DWORD PTR [esp+0x20]
  40eb20:	and    eax,0x7fff
  40eb25:	cmp    eax,0x7fbe
  40eb2a:	ja     0x40eb44
  40eb2c:	or     edx,0x1
  40eb2f:	fmul   QWORD PTR ds:0x423f34
  40eb35:	fstp   TBYTE PTR [esp+0x18]
  40eb39:	fmul   QWORD PTR ds:0x423f34
  40eb3f:	fstp   TBYTE PTR [esp]
  40eb42:	jmp    0x40eb64
  40eb44:	fnstcw WORD PTR [esp+0x24]
  40eb48:	mov    eax,DWORD PTR [esp+0x24]
  40eb4c:	or     eax,0x300
  40eb51:	mov    DWORD PTR [esp+0x28],eax
  40eb55:	fldcw  WORD PTR [esp+0x28]
  40eb59:	fstp   st(0)
  40eb5b:	fmul   QWORD PTR ds:0x423f34
  40eb61:	fstp   TBYTE PTR [esp]
  40eb64:	fldcw  WORD PTR [esp+0x24]
  40eb68:	call   0x40e8be
  40eb6d:	add    esp,0x30
  40eb70:	pop    edx
  40eb71:	ret    
  40eb72:	fprem  
  40eb74:	add    esp,0x30
  40eb77:	pop    edx
  40eb78:	ret    
  40eb79:	call   0x40e80c
  40eb7e:	ret    
  40eb7f:	call   0x40eac4
  40eb84:	ret    
  40eb85:	fpatan 
  40eb87:	ret    
  40eb88:	fptan  
  40eb8a:	ret    
  40eb8b:	mov    edi,edi
  40eb8d:	push   ebx
  40eb8e:	mov    ebx,esp
  40eb90:	push   ecx
  40eb91:	push   ecx
  40eb92:	and    esp,0xfffffff0
  40eb95:	add    esp,0x4
  40eb98:	push   ebp
  40eb99:	mov    ebp,DWORD PTR [ebx+0x4]
  40eb9c:	mov    DWORD PTR [esp+0x4],ebp
  40eba0:	mov    ebp,esp
  40eba2:	sub    esp,0x88
  40eba8:	mov    eax,ds:0x423d68
  40ebad:	xor    eax,ebp
  40ebaf:	mov    DWORD PTR [ebp-0x4],eax
  40ebb2:	mov    eax,DWORD PTR [ebx+0x10]
  40ebb5:	movzx  ecx,WORD PTR [eax]
  40ebb8:	push   esi
  40ebb9:	mov    esi,DWORD PTR [ebx+0xc]
  40ebbc:	mov    eax,DWORD PTR [esi]
  40ebbe:	dec    eax
  40ebbf:	push   edi
  40ebc0:	mov    DWORD PTR [ebp-0x88],ecx
  40ebc6:	je     0x40ec1a
  40ebc8:	dec    eax
  40ebc9:	je     0x40ec0e
  40ebcb:	dec    eax
  40ebcc:	je     0x40ec02
  40ebce:	dec    eax
  40ebcf:	je     0x40ebf6
  40ebd1:	dec    eax
  40ebd2:	je     0x40ec1a
  40ebd4:	dec    eax
  40ebd5:	dec    eax
  40ebd6:	je     0x40ebeb
  40ebd8:	dec    eax
  40ebd9:	jne    0x40ec84
  40ebdf:	mov    DWORD PTR [ebp-0x84],0x10
  40ebe9:	jmp    0x40ec24
  40ebeb:	mov    DWORD PTR [esi],0x1
  40ebf1:	jmp    0x40ec84
  40ebf6:	mov    DWORD PTR [ebp-0x84],0x12
  40ec00:	jmp    0x40ec24
  40ec02:	mov    DWORD PTR [ebp-0x84],0x11
  40ec0c:	jmp    0x40ec24
  40ec0e:	mov    DWORD PTR [ebp-0x84],0x4
  40ec18:	jmp    0x40ec24
  40ec1a:	mov    DWORD PTR [ebp-0x84],0x8
  40ec24:	push   ecx
  40ec25:	lea    edi,[esi+0x18]
  40ec28:	push   edi
  40ec29:	push   DWORD PTR [ebp-0x84]
  40ec2f:	call   0x410e2f
  40ec34:	add    esp,0xc
  40ec37:	test   eax,eax
  40ec39:	jne    0x40ec84
  40ec3b:	mov    eax,DWORD PTR [ebx+0x8]
  40ec3e:	cmp    eax,0x10
  40ec41:	je     0x40ec53
  40ec43:	cmp    eax,0x16
  40ec46:	je     0x40ec53
  40ec48:	cmp    eax,0x1d
  40ec4b:	je     0x40ec53
  40ec4d:	and    DWORD PTR [ebp-0x40],0xfffffffe
  40ec51:	jmp    0x40ec65
  40ec53:	mov    ecx,DWORD PTR [ebp-0x40]
  40ec56:	fld    QWORD PTR [esi+0x10]
  40ec59:	and    ecx,0xffffffe3
  40ec5c:	fstp   QWORD PTR [ebp-0x50]
  40ec5f:	or     ecx,0x3
  40ec62:	mov    DWORD PTR [ebp-0x40],ecx
  40ec65:	push   edi
  40ec66:	lea    ecx,[esi+0x8]
  40ec69:	push   ecx
  40ec6a:	push   eax
  40ec6b:	push   DWORD PTR [ebp-0x84]
  40ec71:	lea    eax,[ebp-0x88]
  40ec77:	push   eax
  40ec78:	lea    eax,[ebp-0x80]
  40ec7b:	push   eax
  40ec7c:	call   0x410e0c
  40ec81:	add    esp,0x18
  40ec84:	push   0xffff
  40ec89:	push   DWORD PTR [ebp-0x88]
  40ec8f:	call   0x40aae9
  40ec94:	cmp    DWORD PTR [esi],0x8
  40ec97:	pop    ecx
  40ec98:	pop    ecx
  40ec99:	je     0x40ecaf
  40ec9b:	cmp    DWORD PTR ds:0x4242c0,0x0
  40eca2:	jne    0x40ecaf
  40eca4:	push   esi
  40eca5:	call   0x410b2d
  40ecaa:	pop    ecx
  40ecab:	test   eax,eax
  40ecad:	jne    0x40ecb7
  40ecaf:	push   DWORD PTR [esi]
  40ecb1:	call   0x411011
  40ecb6:	pop    ecx
  40ecb7:	mov    ecx,DWORD PTR [ebp-0x4]
  40ecba:	pop    edi
  40ecbb:	xor    ecx,ebp
  40ecbd:	pop    esi
  40ecbe:	call   0x40efb3
  40ecc3:	mov    esp,ebp
  40ecc5:	pop    ebp
  40ecc6:	mov    esp,ebx
  40ecc8:	pop    ebx
  40ecc9:	ret    
  40ecca:	mov    edi,edi
  40eccc:	push   ebp
  40eccd:	mov    ebp,esp
  40eccf:	push   ecx
  40ecd0:	push   ecx
  40ecd1:	fld    QWORD PTR [ebp+0x8]
  40ecd4:	frndint 
  40ecd6:	fstp   QWORD PTR [ebp-0x8]
  40ecd9:	fld    QWORD PTR [ebp-0x8]
  40ecdc:	leave  
  40ecdd:	ret    
  40ecde:	mov    edi,edi
  40ece0:	push   ebp
  40ece1:	mov    ebp,esp
  40ece3:	mov    eax,DWORD PTR [ebp+0xe]
  40ece6:	mov    ecx,0x7ff0
  40eceb:	mov    edx,eax
  40eced:	and    edx,ecx
  40ecef:	cmp    dx,cx
  40ecf2:	jne    0x40ed21
  40ecf4:	fld    QWORD PTR [ebp+0x8]
  40ecf7:	push   ecx
  40ecf8:	push   ecx
  40ecf9:	fstp   QWORD PTR [esp]
  40ecfc:	call   0x40ed9e
  40ed01:	dec    eax
  40ed02:	pop    ecx
  40ed03:	pop    ecx
  40ed04:	je     0x40ed1a
  40ed06:	dec    eax
  40ed07:	je     0x40ed15
  40ed09:	dec    eax
  40ed0a:	je     0x40ed11
  40ed0c:	xor    eax,eax
  40ed0e:	inc    eax
  40ed0f:	pop    ebp
  40ed10:	ret    
  40ed11:	push   0x2
  40ed13:	jmp    0x40ed17
  40ed15:	push   0x4
  40ed17:	pop    eax
  40ed18:	pop    ebp
  40ed19:	ret    
  40ed1a:	mov    eax,0x200
  40ed1f:	pop    ebp
  40ed20:	ret    
  40ed21:	and    eax,0x8000
  40ed26:	mov    ecx,eax
  40ed28:	test   dx,dx
  40ed2b:	jne    0x40ed48
  40ed2d:	test   DWORD PTR [ebp+0xc],0xfffff
  40ed34:	jne    0x40ed3c
  40ed36:	cmp    DWORD PTR [ebp+0x8],0x0
  40ed3a:	je     0x40ed48
  40ed3c:	neg    eax
  40ed3e:	sbb    eax,eax
  40ed40:	and    eax,0xffffff90
  40ed43:	sub    eax,0xffffff80
  40ed46:	pop    ebp
  40ed47:	ret    
  40ed48:	fldz   
  40ed4a:	fcomp  QWORD PTR [ebp+0x8]
  40ed4d:	fnstsw ax
  40ed4f:	test   ah,0x44
  40ed52:	mov    eax,ecx
  40ed54:	jp     0x40ed62
  40ed56:	neg    eax
  40ed58:	sbb    eax,eax
  40ed5a:	and    eax,0xffffffe0
  40ed5d:	add    eax,0x40
  40ed60:	pop    ebp
  40ed61:	ret    
  40ed62:	neg    eax
  40ed64:	sbb    eax,eax
  40ed66:	and    eax,0xffffff08
  40ed6b:	add    eax,0x100
  40ed70:	pop    ebp
  40ed71:	ret    
  40ed72:	mov    edi,edi
  40ed74:	push   ebp
  40ed75:	mov    ebp,esp
  40ed77:	push   ecx
  40ed78:	push   ecx
  40ed79:	mov    eax,DWORD PTR [ebp+0x10]
  40ed7c:	fld    QWORD PTR [ebp+0x8]
  40ed7f:	mov    ecx,DWORD PTR [ebp+0xe]
  40ed82:	fstp   QWORD PTR [ebp-0x8]
  40ed85:	add    eax,0x3fe
  40ed8a:	shl    eax,0x4
  40ed8d:	and    ecx,0x800f
  40ed93:	or     eax,ecx
  40ed95:	mov    WORD PTR [ebp-0x2],ax
  40ed99:	fld    QWORD PTR [ebp-0x8]
  40ed9c:	leave  
  40ed9d:	ret    
  40ed9e:	mov    edi,edi
  40eda0:	push   ebp
  40eda1:	mov    ebp,esp
  40eda3:	xor    edx,edx
  40eda5:	cmp    DWORD PTR [ebp+0xc],0x7ff00000
  40edac:	jne    0x40edb8
  40edae:	cmp    DWORD PTR [ebp+0x8],edx
  40edb1:	jne    0x40edcb
  40edb3:	xor    eax,eax
  40edb5:	inc    eax
  40edb6:	pop    ebp
  40edb7:	ret    
  40edb8:	cmp    DWORD PTR [ebp+0xc],0xfff00000
  40edbf:	jne    0x40edcb
  40edc1:	cmp    DWORD PTR [ebp+0x8],edx
  40edc4:	jne    0x40edcb
  40edc6:	push   0x2
  40edc8:	pop    eax
  40edc9:	pop    ebp
  40edca:	ret    
  40edcb:	mov    ecx,DWORD PTR [ebp+0xe]
  40edce:	mov    eax,0x7ff8
  40edd3:	and    ecx,eax
  40edd5:	cmp    cx,ax
  40edd8:	jne    0x40edde
  40edda:	push   0x3
  40eddc:	jmp    0x40edc8
  40edde:	mov    eax,0x7ff0
  40ede3:	cmp    cx,ax
  40ede6:	jne    0x40edfa
  40ede8:	test   DWORD PTR [ebp+0xc],0x7ffff
  40edef:	jne    0x40edf6
  40edf1:	cmp    DWORD PTR [ebp+0x8],edx
  40edf4:	je     0x40edfa
  40edf6:	push   0x4
  40edf8:	jmp    0x40edc8
  40edfa:	xor    eax,eax
  40edfc:	pop    ebp
  40edfd:	ret    
  40edfe:	mov    edi,edi
  40ee00:	push   ebp
  40ee01:	mov    ebp,esp
  40ee03:	fldz   
  40ee05:	fcom   QWORD PTR [ebp+0x8]
  40ee08:	fnstsw ax
  40ee0a:	test   ah,0x44
  40ee0d:	jp     0x40ee16
  40ee0f:	xor    edx,edx
  40ee11:	jmp    0x40eeb0
  40ee16:	mov    edx,DWORD PTR [ebp+0xe]
  40ee19:	xor    ecx,ecx
  40ee1b:	test   edx,0x7ff0
  40ee21:	jne    0x40ee8e
  40ee23:	test   DWORD PTR [ebp+0xc],0xfffff
  40ee2a:	jne    0x40ee31
  40ee2c:	cmp    DWORD PTR [ebp+0x8],ecx
  40ee2f:	je     0x40ee8e
  40ee31:	fcomp  QWORD PTR [ebp+0x8]
  40ee34:	mov    edx,0xfffffc03
  40ee39:	fnstsw ax
  40ee3b:	test   ah,0x41
  40ee3e:	jne    0x40ee45
  40ee40:	xor    eax,eax
  40ee42:	inc    eax
  40ee43:	jmp    0x40ee5d
  40ee45:	xor    eax,eax
  40ee47:	jmp    0x40ee5d
  40ee49:	shl    DWORD PTR [ebp+0xc],1
  40ee4c:	test   DWORD PTR [ebp+0x8],0x80000000
  40ee53:	je     0x40ee59
  40ee55:	or     DWORD PTR [ebp+0xc],0x1
  40ee59:	shl    DWORD PTR [ebp+0x8],1
  40ee5c:	dec    edx
  40ee5d:	test   BYTE PTR [ebp+0xe],0x10
  40ee61:	je     0x40ee49
  40ee63:	push   esi
  40ee64:	mov    esi,0xffef
  40ee69:	and    WORD PTR [ebp+0xe],si
  40ee6d:	pop    esi
  40ee6e:	cmp    eax,ecx
  40ee70:	je     0x40ee7b
  40ee72:	mov    eax,0x8000
  40ee77:	or     WORD PTR [ebp+0xe],ax
  40ee7b:	fld    QWORD PTR [ebp+0x8]
  40ee7e:	push   ecx
  40ee7f:	push   ecx
  40ee80:	push   ecx
  40ee81:	fstp   QWORD PTR [esp]
  40ee84:	call   0x40ed72
  40ee89:	add    esp,0xc
  40ee8c:	jmp    0x40eeb0
  40ee8e:	push   ecx
  40ee8f:	fstp   st(0)
  40ee91:	fld    QWORD PTR [ebp+0x8]
  40ee94:	push   ecx
  40ee95:	push   ecx
  40ee96:	fstp   QWORD PTR [esp]
  40ee99:	call   0x40ed72
  40ee9e:	shr    edx,0x4
  40eea1:	and    edx,0x7ff
  40eea7:	add    esp,0xc
  40eeaa:	sub    edx,0x3fe
  40eeb0:	mov    eax,DWORD PTR [ebp+0x10]
  40eeb3:	mov    DWORD PTR [eax],edx
  40eeb5:	pop    ebp
  40eeb6:	ret    
  40eeb7:	mov    edi,edi
  40eeb9:	push   ebp
  40eeba:	mov    ebp,esp
  40eebc:	mov    ecx,DWORD PTR [ebp+0x8]
  40eebf:	push   ebx
  40eec0:	xor    ebx,ebx
  40eec2:	push   esi
  40eec3:	push   edi
  40eec4:	cmp    ecx,ebx
  40eec6:	je     0x40eecf
  40eec8:	mov    edi,DWORD PTR [ebp+0xc]
  40eecb:	cmp    edi,ebx
  40eecd:	ja     0x40eeea
  40eecf:	call   0x4087a4
  40eed4:	push   0x16
  40eed6:	pop    esi
  40eed7:	mov    DWORD PTR [eax],esi
  40eed9:	push   ebx
  40eeda:	push   ebx
  40eedb:	push   ebx
  40eedc:	push   ebx
  40eedd:	push   ebx
  40eede:	call   0x40873c
  40eee3:	add    esp,0x14
  40eee6:	mov    eax,esi
  40eee8:	jmp    0x40ef1a
  40eeea:	mov    esi,DWORD PTR [ebp+0x10]
  40eeed:	cmp    esi,ebx
  40eeef:	jne    0x40eef5
  40eef1:	mov    BYTE PTR [ecx],bl
  40eef3:	jmp    0x40eecf
  40eef5:	mov    edx,ecx
  40eef7:	mov    al,BYTE PTR [esi]
  40eef9:	mov    BYTE PTR [edx],al
  40eefb:	inc    edx
  40eefc:	inc    esi
  40eefd:	cmp    al,bl
  40eeff:	je     0x40ef04
  40ef01:	dec    edi
  40ef02:	jne    0x40eef7
  40ef04:	cmp    edi,ebx
  40ef06:	jne    0x40ef18
  40ef08:	mov    BYTE PTR [ecx],bl
  40ef0a:	call   0x4087a4
  40ef0f:	push   0x22
  40ef11:	pop    ecx
  40ef12:	mov    DWORD PTR [eax],ecx
  40ef14:	mov    esi,ecx
  40ef16:	jmp    0x40eed9
  40ef18:	xor    eax,eax
  40ef1a:	pop    edi
  40ef1b:	pop    esi
  40ef1c:	pop    ebx
  40ef1d:	pop    ebp
  40ef1e:	ret    
  40ef1f:	int3   
  40ef20:	mov    ecx,DWORD PTR [esp+0x4]
  40ef24:	test   ecx,0x3
  40ef2a:	je     0x40ef50
  40ef2c:	mov    al,BYTE PTR [ecx]
  40ef2e:	add    ecx,0x1
  40ef31:	test   al,al
  40ef33:	je     0x40ef83
  40ef35:	test   ecx,0x3
  40ef3b:	jne    0x40ef2c
  40ef3d:	add    eax,0x0
  40ef42:	lea    esp,[esp+0x0]
  40ef49:	lea    esp,[esp+0x0]
  40ef50:	mov    eax,DWORD PTR [ecx]
  40ef52:	mov    edx,0x7efefeff
  40ef57:	add    edx,eax
  40ef59:	xor    eax,0xffffffff
  40ef5c:	xor    eax,edx
  40ef5e:	add    ecx,0x4
  40ef61:	test   eax,0x81010100
  40ef66:	je     0x40ef50
  40ef68:	mov    eax,DWORD PTR [ecx-0x4]
  40ef6b:	test   al,al
  40ef6d:	je     0x40efa1
  40ef6f:	test   ah,ah
  40ef71:	je     0x40ef97
  40ef73:	test   eax,0xff0000
  40ef78:	je     0x40ef8d
  40ef7a:	test   eax,0xff000000
  40ef7f:	je     0x40ef83
  40ef81:	jmp    0x40ef50
  40ef83:	lea    eax,[ecx-0x1]
  40ef86:	mov    ecx,DWORD PTR [esp+0x4]
  40ef8a:	sub    eax,ecx
  40ef8c:	ret    
  40ef8d:	lea    eax,[ecx-0x2]
  40ef90:	mov    ecx,DWORD PTR [esp+0x4]
  40ef94:	sub    eax,ecx
  40ef96:	ret    
  40ef97:	lea    eax,[ecx-0x3]
  40ef9a:	mov    ecx,DWORD PTR [esp+0x4]
  40ef9e:	sub    eax,ecx
  40efa0:	ret    
  40efa1:	lea    eax,[ecx-0x4]
  40efa4:	mov    ecx,DWORD PTR [esp+0x4]
  40efa8:	sub    eax,ecx
  40efaa:	ret    
  40efab:	and    DWORD PTR ds:0x43ca24,0x0
  40efb2:	ret    
  40efb3:	cmp    ecx,DWORD PTR ds:0x423d68
  40efb9:	jne    0x40efbd
  40efbb:	repz ret 
  40efbd:	jmp    0x412ce9
  40efc2:	push   0xc
  40efc4:	push   0x41efa8
  40efc9:	call   0x40a868
  40efce:	and    DWORD PTR [ebp-0x1c],0x0
  40efd2:	mov    esi,DWORD PTR [ebp+0x8]
  40efd5:	cmp    esi,DWORD PTR ds:0x43ca14
  40efdb:	ja     0x40efff
  40efdd:	push   0x4
  40efdf:	call   0x40f60b
  40efe4:	pop    ecx
  40efe5:	and    DWORD PTR [ebp-0x4],0x0
  40efe9:	push   esi
  40efea:	call   0x412a04
  40efef:	pop    ecx
  40eff0:	mov    DWORD PTR [ebp-0x1c],eax
  40eff3:	mov    DWORD PTR [ebp-0x4],0xfffffffe
  40effa:	call   0x40f008
  40efff:	mov    eax,DWORD PTR [ebp-0x1c]
  40f002:	call   0x40a8ad
  40f007:	ret    
  40f008:	push   0x4
  40f00a:	call   0x40f531
  40f00f:	pop    ecx
  40f010:	ret    
  40f011:	mov    edi,edi
  40f013:	push   ebp
  40f014:	mov    ebp,esp
  40f016:	push   esi
  40f017:	mov    esi,DWORD PTR [ebp+0x8]
  40f01a:	cmp    esi,0xffffffe0
  40f01d:	ja     0x40f0c4
  40f023:	push   ebx
  40f024:	push   edi
  40f025:	mov    edi,DWORD PTR ds:0x4193f8
  40f02b:	cmp    DWORD PTR ds:0x43c544,0x0
  40f032:	jne    0x40f04c
  40f034:	call   0x40d42b
  40f039:	push   0x1e
  40f03b:	call   0x40d280
  40f040:	push   0xff
  40f045:	call   0x40cfcc
  40f04a:	pop    ecx
  40f04b:	pop    ecx
  40f04c:	mov    eax,ds:0x43ca28
  40f051:	cmp    eax,0x1
  40f054:	jne    0x40f064
  40f056:	test   esi,esi
  40f058:	je     0x40f05e
  40f05a:	mov    eax,esi
  40f05c:	jmp    0x40f061
  40f05e:	xor    eax,eax
  40f060:	inc    eax
  40f061:	push   eax
  40f062:	jmp    0x40f080
  40f064:	cmp    eax,0x3
  40f067:	jne    0x40f074
  40f069:	push   esi
  40f06a:	call   0x40efc2
  40f06f:	pop    ecx
  40f070:	test   eax,eax
  40f072:	jne    0x40f08a
  40f074:	test   esi,esi
  40f076:	jne    0x40f079
  40f078:	inc    esi
  40f079:	add    esi,0xf
  40f07c:	and    esi,0xfffffff0
  40f07f:	push   esi
  40f080:	push   0x0
  40f082:	push   DWORD PTR ds:0x43c544
  40f088:	call   edi
  40f08a:	mov    ebx,eax
  40f08c:	test   ebx,ebx
  40f08e:	jne    0x40f0be
  40f090:	push   0xc
  40f092:	pop    esi
  40f093:	cmp    DWORD PTR ds:0x43ca04,eax
  40f099:	je     0x40f0b0
  40f09b:	push   DWORD PTR [ebp+0x8]
  40f09e:	call   0x411fde
  40f0a3:	pop    ecx
  40f0a4:	test   eax,eax
  40f0a6:	je     0x40f0b7
  40f0a8:	mov    esi,DWORD PTR [ebp+0x8]
  40f0ab:	jmp    0x40f02b
  40f0b0:	call   0x4087a4
  40f0b5:	mov    DWORD PTR [eax],esi
  40f0b7:	call   0x4087a4
  40f0bc:	mov    DWORD PTR [eax],esi
  40f0be:	pop    edi
  40f0bf:	mov    eax,ebx
  40f0c1:	pop    ebx
  40f0c2:	jmp    0x40f0d8
  40f0c4:	push   esi
  40f0c5:	call   0x411fde
  40f0ca:	pop    ecx
  40f0cb:	call   0x4087a4
  40f0d0:	mov    DWORD PTR [eax],0xc
  40f0d6:	xor    eax,eax
  40f0d8:	pop    esi
  40f0d9:	pop    ebp
  40f0da:	ret    
  40f0db:	push   0xc
  40f0dd:	push   0x41efc8
  40f0e2:	call   0x40a868
  40f0e7:	mov    ecx,DWORD PTR [ebp+0x8]
  40f0ea:	xor    edi,edi
  40f0ec:	cmp    ecx,edi
  40f0ee:	jbe    0x40f11e
  40f0f0:	push   0xffffffe0
  40f0f2:	pop    eax
  40f0f3:	xor    edx,edx
  40f0f5:	div    ecx
  40f0f7:	cmp    eax,DWORD PTR [ebp+0xc]
  40f0fa:	sbb    eax,eax
  40f0fc:	inc    eax
  40f0fd:	jne    0x40f11e
  40f0ff:	call   0x4087a4
  40f104:	mov    DWORD PTR [eax],0xc
  40f10a:	push   edi
  40f10b:	push   edi
  40f10c:	push   edi
  40f10d:	push   edi
  40f10e:	push   edi
  40f10f:	call   0x40873c
  40f114:	add    esp,0x14
  40f117:	xor    eax,eax
  40f119:	jmp    0x40f1f3
  40f11e:	imul   ecx,DWORD PTR [ebp+0xc]
  40f122:	mov    esi,ecx
  40f124:	mov    DWORD PTR [ebp+0x8],esi
  40f127:	cmp    esi,edi
  40f129:	jne    0x40f12e
  40f12b:	xor    esi,esi
  40f12d:	inc    esi
  40f12e:	xor    ebx,ebx
  40f130:	mov    DWORD PTR [ebp-0x1c],ebx
  40f133:	cmp    esi,0xffffffe0
  40f136:	ja     0x40f1a1
  40f138:	cmp    DWORD PTR ds:0x43ca28,0x3
  40f13f:	jne    0x40f18c
  40f141:	add    esi,0xf
  40f144:	and    esi,0xfffffff0
  40f147:	mov    DWORD PTR [ebp+0xc],esi
  40f14a:	mov    eax,DWORD PTR [ebp+0x8]
  40f14d:	cmp    eax,DWORD PTR ds:0x43ca14
  40f153:	ja     0x40f18c
  40f155:	push   0x4
  40f157:	call   0x40f60b
  40f15c:	pop    ecx
  40f15d:	mov    DWORD PTR [ebp-0x4],edi
  40f160:	push   DWORD PTR [ebp+0x8]
  40f163:	call   0x412a04
  40f168:	pop    ecx
  40f169:	mov    DWORD PTR [ebp-0x1c],eax
  40f16c:	mov    DWORD PTR [ebp-0x4],0xfffffffe
  40f173:	call   0x40f1d7
  40f178:	mov    ebx,DWORD PTR [ebp-0x1c]
  40f17b:	cmp    ebx,edi
  40f17d:	je     0x40f190
  40f17f:	push   DWORD PTR [ebp+0x8]
  40f182:	push   edi
  40f183:	push   ebx
  40f184:	call   0x40cc70
  40f189:	add    esp,0xc
  40f18c:	cmp    ebx,edi
  40f18e:	jne    0x40f1f1
  40f190:	push   esi
  40f191:	push   0x8
  40f193:	push   DWORD PTR ds:0x43c544
  40f199:	call   DWORD PTR ds:0x4193f8
  40f19f:	mov    ebx,eax
  40f1a1:	cmp    ebx,edi
  40f1a3:	jne    0x40f1f1
  40f1a5:	cmp    DWORD PTR ds:0x43ca04,edi
  40f1ab:	je     0x40f1e0
  40f1ad:	push   esi
  40f1ae:	call   0x411fde
  40f1b3:	pop    ecx
  40f1b4:	test   eax,eax
  40f1b6:	jne    0x40f12e
  40f1bc:	mov    eax,DWORD PTR [ebp+0x10]
  40f1bf:	cmp    eax,edi
  40f1c1:	je     0x40f117
  40f1c7:	mov    DWORD PTR [eax],0xc
  40f1cd:	jmp    0x40f117
  40f1d2:	xor    edi,edi
  40f1d4:	mov    esi,DWORD PTR [ebp+0xc]
  40f1d7:	push   0x4
  40f1d9:	call   0x40f531
  40f1de:	pop    ecx
  40f1df:	ret    
  40f1e0:	cmp    ebx,edi
  40f1e2:	jne    0x40f1f1
  40f1e4:	mov    eax,DWORD PTR [ebp+0x10]
  40f1e7:	cmp    eax,edi
  40f1e9:	je     0x40f1f1
  40f1eb:	mov    DWORD PTR [eax],0xc
  40f1f1:	mov    eax,ebx
  40f1f3:	call   0x40a8ad
  40f1f8:	ret    
  40f1f9:	push   0x10
  40f1fb:	push   0x41efe8
  40f200:	call   0x40a868
  40f205:	mov    ebx,DWORD PTR [ebp+0x8]
  40f208:	test   ebx,ebx
  40f20a:	jne    0x40f21a
  40f20c:	push   DWORD PTR [ebp+0xc]
  40f20f:	call   0x40f011
  40f214:	pop    ecx
  40f215:	jmp    0x40f3e6
  40f21a:	mov    esi,DWORD PTR [ebp+0xc]
  40f21d:	test   esi,esi
  40f21f:	jne    0x40f22d
  40f221:	push   ebx
  40f222:	call   0x40f63e
  40f227:	pop    ecx
  40f228:	jmp    0x40f3e4
  40f22d:	cmp    DWORD PTR ds:0x43ca28,0x3
  40f234:	jne    0x40f3cd
  40f23a:	xor    edi,edi
  40f23c:	mov    DWORD PTR [ebp-0x1c],edi
  40f23f:	cmp    esi,0xffffffe0
  40f242:	ja     0x40f3d2
  40f248:	push   0x4
  40f24a:	call   0x40f60b
  40f24f:	pop    ecx
  40f250:	mov    DWORD PTR [ebp-0x4],edi
  40f253:	push   ebx
  40f254:	call   0x412225
  40f259:	pop    ecx
  40f25a:	mov    DWORD PTR [ebp-0x20],eax
  40f25d:	cmp    eax,edi
  40f25f:	je     0x40f303
  40f265:	cmp    esi,DWORD PTR ds:0x43ca14
  40f26b:	ja     0x40f2b6
  40f26d:	push   esi
  40f26e:	push   ebx
  40f26f:	push   eax
  40f270:	call   0x412723
  40f275:	add    esp,0xc
  40f278:	test   eax,eax
  40f27a:	je     0x40f281
  40f27c:	mov    DWORD PTR [ebp-0x1c],ebx
  40f27f:	jmp    0x40f2b6
  40f281:	push   esi
  40f282:	call   0x412a04
  40f287:	pop    ecx
  40f288:	mov    DWORD PTR [ebp-0x1c],eax
  40f28b:	cmp    eax,edi
  40f28d:	je     0x40f2b6
  40f28f:	mov    eax,DWORD PTR [ebx-0x4]
  40f292:	dec    eax
  40f293:	cmp    eax,esi
  40f295:	jb     0x40f299
  40f297:	mov    eax,esi
  40f299:	push   eax
  40f29a:	push   ebx
  40f29b:	push   DWORD PTR [ebp-0x1c]
  40f29e:	call   0x403ee0
  40f2a3:	push   ebx
  40f2a4:	call   0x412225
  40f2a9:	mov    DWORD PTR [ebp-0x20],eax
  40f2ac:	push   ebx
  40f2ad:	push   eax
  40f2ae:	call   0x412255
  40f2b3:	add    esp,0x18
  40f2b6:	cmp    DWORD PTR [ebp-0x1c],edi
  40f2b9:	jne    0x40f303
  40f2bb:	cmp    esi,edi
  40f2bd:	jne    0x40f2c5
  40f2bf:	xor    esi,esi
  40f2c1:	inc    esi
  40f2c2:	mov    DWORD PTR [ebp+0xc],esi
  40f2c5:	add    esi,0xf
  40f2c8:	and    esi,0xfffffff0
  40f2cb:	mov    DWORD PTR [ebp+0xc],esi
  40f2ce:	push   esi
  40f2cf:	push   edi
  40f2d0:	push   DWORD PTR ds:0x43c544
  40f2d6:	call   DWORD PTR ds:0x4193f8
  40f2dc:	mov    DWORD PTR [ebp-0x1c],eax
  40f2df:	cmp    eax,edi
  40f2e1:	je     0x40f303
  40f2e3:	mov    eax,DWORD PTR [ebx-0x4]
  40f2e6:	dec    eax
  40f2e7:	cmp    eax,esi
  40f2e9:	jb     0x40f2ed
  40f2eb:	mov    eax,esi
  40f2ed:	push   eax
  40f2ee:	push   ebx
  40f2ef:	push   DWORD PTR [ebp-0x1c]
  40f2f2:	call   0x403ee0
  40f2f7:	push   ebx
  40f2f8:	push   DWORD PTR [ebp-0x20]
  40f2fb:	call   0x412255
  40f300:	add    esp,0x14
  40f303:	mov    DWORD PTR [ebp-0x4],0xfffffffe
  40f30a:	call   0x40f33d
  40f30f:	cmp    DWORD PTR [ebp-0x20],0x0
  40f313:	jne    0x40f346
  40f315:	test   esi,esi
  40f317:	jne    0x40f31a
  40f319:	inc    esi
  40f31a:	add    esi,0xf
  40f31d:	and    esi,0xfffffff0
  40f320:	mov    DWORD PTR [ebp+0xc],esi
  40f323:	push   esi
  40f324:	push   ebx
  40f325:	push   0x0
  40f327:	push   DWORD PTR ds:0x43c544
  40f32d:	call   DWORD PTR ds:0x4194d4
  40f333:	mov    edi,eax
  40f335:	jmp    0x40f349
  40f337:	mov    esi,DWORD PTR [ebp+0xc]
  40f33a:	mov    ebx,DWORD PTR [ebp+0x8]
  40f33d:	push   0x4
  40f33f:	call   0x40f531
  40f344:	pop    ecx
  40f345:	ret    
  40f346:	mov    edi,DWORD PTR [ebp-0x1c]
  40f349:	test   edi,edi
  40f34b:	jne    0x40f410
  40f351:	cmp    DWORD PTR ds:0x43ca04,edi
  40f357:	je     0x40f385
  40f359:	push   esi
  40f35a:	call   0x411fde
  40f35f:	pop    ecx
  40f360:	test   eax,eax
  40f362:	jne    0x40f23a
  40f368:	call   0x4087a4
  40f36d:	cmp    DWORD PTR [ebp-0x20],edi
  40f370:	jne    0x40f3de
  40f372:	mov    esi,eax
  40f374:	call   DWORD PTR ds:0x41927c
  40f37a:	push   eax
  40f37b:	call   0x408762
  40f380:	pop    ecx
  40f381:	mov    DWORD PTR [esi],eax
  40f383:	jmp    0x40f3e4
  40f385:	test   edi,edi
  40f387:	jne    0x40f410
  40f38d:	call   0x4087a4
  40f392:	cmp    DWORD PTR [ebp-0x20],edi
  40f395:	je     0x40f3ff
  40f397:	mov    DWORD PTR [eax],0xc
  40f39d:	jmp    0x40f410
  40f39f:	test   esi,esi
  40f3a1:	jne    0x40f3a4
  40f3a3:	inc    esi
  40f3a4:	push   esi
  40f3a5:	push   ebx
  40f3a6:	push   0x0
  40f3a8:	push   DWORD PTR ds:0x43c544
  40f3ae:	call   DWORD PTR ds:0x4194d4
  40f3b4:	mov    edi,eax
  40f3b6:	test   edi,edi
  40f3b8:	jne    0x40f410
  40f3ba:	cmp    DWORD PTR ds:0x43ca04,eax
  40f3c0:	je     0x40f3f6
  40f3c2:	push   esi
  40f3c3:	call   0x411fde
  40f3c8:	pop    ecx
  40f3c9:	test   eax,eax
  40f3cb:	je     0x40f3ec
  40f3cd:	cmp    esi,0xffffffe0
  40f3d0:	jbe    0x40f39f
  40f3d2:	push   esi
  40f3d3:	call   0x411fde
  40f3d8:	pop    ecx
  40f3d9:	call   0x4087a4
  40f3de:	mov    DWORD PTR [eax],0xc
  40f3e4:	xor    eax,eax
  40f3e6:	call   0x40a8ad
  40f3eb:	ret    
  40f3ec:	call   0x4087a4
  40f3f1:	jmp    0x40f372
  40f3f6:	test   edi,edi
  40f3f8:	jne    0x40f410
  40f3fa:	call   0x4087a4
  40f3ff:	mov    esi,eax
  40f401:	call   DWORD PTR ds:0x41927c
  40f407:	push   eax
  40f408:	call   0x408762
  40f40d:	mov    DWORD PTR [esi],eax
  40f40f:	pop    ecx
  40f410:	mov    eax,edi
  40f412:	jmp    0x40f3e6
  40f414:	mov    edi,edi
  40f416:	push   ebp
  40f417:	mov    ebp,esp
  40f419:	mov    ecx,DWORD PTR [ebp+0xc]
  40f41c:	push   ebx
  40f41d:	xor    ebx,ebx
  40f41f:	cmp    ecx,ebx
  40f421:	jbe    0x40f44b
  40f423:	push   0xffffffe0
  40f425:	xor    edx,edx
  40f427:	pop    eax
  40f428:	div    ecx
  40f42a:	cmp    eax,DWORD PTR [ebp+0x10]
  40f42d:	jae    0x40f44b
  40f42f:	call   0x4087a4
  40f434:	push   ebx
  40f435:	push   ebx
  40f436:	push   ebx
  40f437:	push   ebx
  40f438:	push   ebx
  40f439:	mov    DWORD PTR [eax],0xc
  40f43f:	call   0x40873c
  40f444:	add    esp,0x14
  40f447:	xor    eax,eax
  40f449:	jmp    0x40f48c
  40f44b:	imul   ecx,DWORD PTR [ebp+0x10]
  40f44f:	push   esi
  40f450:	push   edi
  40f451:	mov    esi,ecx
  40f453:	cmp    DWORD PTR [ebp+0x8],ebx
  40f456:	je     0x40f463
  40f458:	push   DWORD PTR [ebp+0x8]
  40f45b:	call   0x412def
  40f460:	pop    ecx
  40f461:	mov    ebx,eax
  40f463:	push   esi
  40f464:	push   DWORD PTR [ebp+0x8]
  40f467:	call   0x40f1f9
  40f46c:	mov    edi,eax
  40f46e:	pop    ecx
  40f46f:	pop    ecx
  40f470:	test   edi,edi
  40f472:	je     0x40f488
  40f474:	cmp    ebx,esi
  40f476:	jae    0x40f488
  40f478:	sub    esi,ebx
  40f47a:	push   esi
  40f47b:	push   0x0
  40f47d:	add    ebx,edi
  40f47f:	push   ebx
  40f480:	call   0x40cc70
  40f485:	add    esp,0xc
  40f488:	mov    eax,edi
  40f48a:	pop    edi
  40f48b:	pop    esi
  40f48c:	pop    ebx
  40f48d:	pop    ebp
  40f48e:	ret    
  40f48f:	mov    edi,edi
  40f491:	push   esi
  40f492:	push   edi
  40f493:	xor    esi,esi
  40f495:	mov    edi,0x43c548
  40f49a:	cmp    DWORD PTR [esi*8+0x424094],0x1
  40f4a2:	jne    0x40f4c2
  40f4a4:	lea    eax,[esi*8+0x424090]
  40f4ab:	mov    DWORD PTR [eax],edi
  40f4ad:	push   0xfa0
  40f4b2:	push   DWORD PTR [eax]
  40f4b4:	add    edi,0x18
  40f4b7:	call   0x411f6f
  40f4bc:	pop    ecx
  40f4bd:	pop    ecx
  40f4be:	test   eax,eax
  40f4c0:	je     0x40f4ce
  40f4c2:	inc    esi
  40f4c3:	cmp    esi,0x24
  40f4c6:	jl     0x40f49a
  40f4c8:	xor    eax,eax
  40f4ca:	inc    eax
  40f4cb:	pop    edi
  40f4cc:	pop    esi
  40f4cd:	ret    
  40f4ce:	and    DWORD PTR [esi*8+0x424090],0x0
  40f4d6:	xor    eax,eax
  40f4d8:	jmp    0x40f4cb
  40f4da:	mov    edi,edi
  40f4dc:	push   ebx
  40f4dd:	mov    ebx,DWORD PTR ds:0x419514
  40f4e3:	push   esi
  40f4e4:	mov    esi,0x424090
  40f4e9:	push   edi
  40f4ea:	mov    edi,DWORD PTR [esi]
  40f4ec:	test   edi,edi
  40f4ee:	je     0x40f503
  40f4f0:	cmp    DWORD PTR [esi+0x4],0x1
  40f4f4:	je     0x40f503
  40f4f6:	push   edi
  40f4f7:	call   ebx
  40f4f9:	push   edi
  40f4fa:	call   0x40f63e
  40f4ff:	and    DWORD PTR [esi],0x0
  40f502:	pop    ecx
  40f503:	add    esi,0x8
  40f506:	cmp    esi,0x4241b0
  40f50c:	jl     0x40f4ea
  40f50e:	mov    esi,0x424090
  40f513:	pop    edi
  40f514:	mov    eax,DWORD PTR [esi]
  40f516:	test   eax,eax
  40f518:	je     0x40f523
  40f51a:	cmp    DWORD PTR [esi+0x4],0x1
  40f51e:	jne    0x40f523
  40f520:	push   eax
  40f521:	call   ebx
  40f523:	add    esi,0x8
  40f526:	cmp    esi,0x4241b0
  40f52c:	jl     0x40f514
  40f52e:	pop    esi
  40f52f:	pop    ebx
  40f530:	ret    
  40f531:	mov    edi,edi
  40f533:	push   ebp
  40f534:	mov    ebp,esp
  40f536:	mov    eax,DWORD PTR [ebp+0x8]
  40f539:	push   DWORD PTR [eax*8+0x424090]
  40f540:	call   DWORD PTR ds:0x4192bc
  40f546:	pop    ebp
  40f547:	ret    
  40f548:	push   0xc
  40f54a:	push   0x41f008
  40f54f:	call   0x40a868
  40f554:	xor    edi,edi
  40f556:	inc    edi
  40f557:	mov    DWORD PTR [ebp-0x1c],edi
  40f55a:	xor    ebx,ebx
  40f55c:	cmp    DWORD PTR ds:0x43c544,ebx
  40f562:	jne    0x40f57c
  40f564:	call   0x40d42b
  40f569:	push   0x1e
  40f56b:	call   0x40d280
  40f570:	push   0xff
  40f575:	call   0x40cfcc
  40f57a:	pop    ecx
  40f57b:	pop    ecx
  40f57c:	mov    esi,DWORD PTR [ebp+0x8]
  40f57f:	lea    esi,[esi*8+0x424090]
  40f586:	cmp    DWORD PTR [esi],ebx
  40f588:	je     0x40f58e
  40f58a:	mov    eax,edi
  40f58c:	jmp    0x40f5fc
  40f58e:	push   0x18
  40f590:	call   0x4087ed
  40f595:	pop    ecx
  40f596:	mov    edi,eax
  40f598:	cmp    edi,ebx
  40f59a:	jne    0x40f5ab
  40f59c:	call   0x4087a4
  40f5a1:	mov    DWORD PTR [eax],0xc
  40f5a7:	xor    eax,eax
  40f5a9:	jmp    0x40f5fc
  40f5ab:	push   0xa
  40f5ad:	call   0x40f60b
  40f5b2:	pop    ecx
  40f5b3:	mov    DWORD PTR [ebp-0x4],ebx
  40f5b6:	cmp    DWORD PTR [esi],ebx
  40f5b8:	jne    0x40f5e6
  40f5ba:	push   0xfa0
  40f5bf:	push   edi
  40f5c0:	call   0x411f6f
  40f5c5:	pop    ecx
  40f5c6:	pop    ecx
  40f5c7:	test   eax,eax
  40f5c9:	jne    0x40f5e2
  40f5cb:	push   edi
  40f5cc:	call   0x40f63e
  40f5d1:	pop    ecx
  40f5d2:	call   0x4087a4
  40f5d7:	mov    DWORD PTR [eax],0xc
  40f5dd:	mov    DWORD PTR [ebp-0x1c],ebx
  40f5e0:	jmp    0x40f5ed
  40f5e2:	mov    DWORD PTR [esi],edi
  40f5e4:	jmp    0x40f5ed
  40f5e6:	push   edi
  40f5e7:	call   0x40f63e
  40f5ec:	pop    ecx
  40f5ed:	mov    DWORD PTR [ebp-0x4],0xfffffffe
  40f5f4:	call   0x40f602
  40f5f9:	mov    eax,DWORD PTR [ebp-0x1c]
  40f5fc:	call   0x40a8ad
  40f601:	ret    
  40f602:	push   0xa
  40f604:	call   0x40f531
  40f609:	pop    ecx
  40f60a:	ret    
  40f60b:	mov    edi,edi
  40f60d:	push   ebp
  40f60e:	mov    ebp,esp
  40f610:	mov    eax,DWORD PTR [ebp+0x8]
  40f613:	push   esi
  40f614:	lea    esi,[eax*8+0x424090]
  40f61b:	cmp    DWORD PTR [esi],0x0
  40f61e:	jne    0x40f633
  40f620:	push   eax
  40f621:	call   0x40f548
  40f626:	pop    ecx
  40f627:	test   eax,eax
  40f629:	jne    0x40f633
  40f62b:	push   0x11
  40f62d:	call   0x40cf78
  40f632:	pop    ecx
  40f633:	push   DWORD PTR [esi]
  40f635:	call   DWORD PTR ds:0x4192a0
  40f63b:	pop    esi
  40f63c:	pop    ebp
  40f63d:	ret    
  40f63e:	push   0xc
  40f640:	push   0x41f028
  40f645:	call   0x40a868
  40f64a:	mov    esi,DWORD PTR [ebp+0x8]
  40f64d:	test   esi,esi
  40f64f:	je     0x40f6c6
  40f651:	cmp    DWORD PTR ds:0x43ca28,0x3
  40f658:	jne    0x40f69d
  40f65a:	push   0x4
  40f65c:	call   0x40f60b
  40f661:	pop    ecx
  40f662:	and    DWORD PTR [ebp-0x4],0x0
  40f666:	push   esi
  40f667:	call   0x412225
  40f66c:	pop    ecx
  40f66d:	mov    DWORD PTR [ebp-0x1c],eax
  40f670:	test   eax,eax
  40f672:	je     0x40f67d
  40f674:	push   esi
  40f675:	push   eax
  40f676:	call   0x412255
  40f67b:	pop    ecx
  40f67c:	pop    ecx
  40f67d:	mov    DWORD PTR [ebp-0x4],0xfffffffe
  40f684:	call   0x40f694
  40f689:	cmp    DWORD PTR [ebp-0x1c],0x0
  40f68d:	jne    0x40f6c6
  40f68f:	push   DWORD PTR [ebp+0x8]
  40f692:	jmp    0x40f69e
  40f694:	push   0x4
  40f696:	call   0x40f531
  40f69b:	pop    ecx
  40f69c:	ret    
  40f69d:	push   esi
  40f69e:	push   0x0
  40f6a0:	push   DWORD PTR ds:0x43c544
  40f6a6:	call   DWORD PTR ds:0x419404
  40f6ac:	test   eax,eax
  40f6ae:	jne    0x40f6c6
  40f6b0:	call   0x4087a4
  40f6b5:	mov    esi,eax
  40f6b7:	call   DWORD PTR ds:0x41927c
  40f6bd:	push   eax
  40f6be:	call   0x408762
  40f6c3:	mov    DWORD PTR [esi],eax
  40f6c5:	pop    ecx
  40f6c6:	call   0x40a8ad
  40f6cb:	ret    
  40f6cc:	mov    edi,edi
  40f6ce:	push   ebp
  40f6cf:	mov    ebp,esp
  40f6d1:	mov    eax,DWORD PTR [ebp+0x8]
  40f6d4:	test   eax,eax
  40f6d6:	je     0x40f6ea
  40f6d8:	sub    eax,0x8
  40f6db:	cmp    DWORD PTR [eax],0xdddd
  40f6e1:	jne    0x40f6ea
  40f6e3:	push   eax
  40f6e4:	call   0x40f63e
  40f6e9:	pop    ecx
  40f6ea:	pop    ebp
  40f6eb:	ret    
  40f6ec:	mov    edi,edi
  40f6ee:	push   ebp
  40f6ef:	mov    ebp,esp
  40f6f1:	sub    esp,0x14
  40f6f4:	mov    eax,ds:0x423d68
  40f6f9:	xor    eax,ebp
  40f6fb:	mov    DWORD PTR [ebp-0x4],eax
  40f6fe:	push   ebx
  40f6ff:	push   esi
  40f700:	xor    ebx,ebx
  40f702:	push   edi
  40f703:	mov    esi,ecx
  40f705:	cmp    DWORD PTR ds:0x43c698,ebx
  40f70b:	jne    0x40f745
  40f70d:	push   ebx
  40f70e:	push   ebx
  40f70f:	xor    edi,edi
  40f711:	inc    edi
  40f712:	push   edi
  40f713:	push   0x41e288
  40f718:	push   0x100
  40f71d:	push   ebx
  40f71e:	call   DWORD PTR ds:0x4194b4
  40f724:	test   eax,eax
  40f726:	je     0x40f730
  40f728:	mov    DWORD PTR ds:0x43c698,edi
  40f72e:	jmp    0x40f745
  40f730:	call   DWORD PTR ds:0x41927c
  40f736:	cmp    eax,0x78
  40f739:	jne    0x40f745
  40f73b:	mov    DWORD PTR ds:0x43c698,0x2
  40f745:	cmp    DWORD PTR [ebp+0x14],ebx
  40f748:	jle    0x40f76c
  40f74a:	mov    ecx,DWORD PTR [ebp+0x14]
  40f74d:	mov    eax,DWORD PTR [ebp+0x10]
  40f750:	dec    ecx
  40f751:	cmp    BYTE PTR [eax],bl
  40f753:	je     0x40f75d
  40f755:	inc    eax
  40f756:	cmp    ecx,ebx
  40f758:	jne    0x40f750
  40f75a:	or     ecx,0xffffffff
  40f75d:	mov    eax,DWORD PTR [ebp+0x14]
  40f760:	sub    eax,ecx
  40f762:	dec    eax
  40f763:	cmp    eax,DWORD PTR [ebp+0x14]
  40f766:	jge    0x40f769
  40f768:	inc    eax
  40f769:	mov    DWORD PTR [ebp+0x14],eax
  40f76c:	mov    eax,ds:0x43c698
  40f771:	cmp    eax,0x2
  40f774:	je     0x40f926
  40f77a:	cmp    eax,ebx
  40f77c:	je     0x40f926
  40f782:	cmp    eax,0x1
  40f785:	jne    0x40f957
  40f78b:	mov    DWORD PTR [ebp-0x8],ebx
  40f78e:	cmp    DWORD PTR [ebp+0x20],ebx
  40f791:	jne    0x40f79b
  40f793:	mov    eax,DWORD PTR [esi]
  40f795:	mov    eax,DWORD PTR [eax+0x4]
  40f798:	mov    DWORD PTR [ebp+0x20],eax
  40f79b:	mov    esi,DWORD PTR ds:0x4192d8
  40f7a1:	xor    eax,eax
  40f7a3:	cmp    DWORD PTR [ebp+0x24],ebx
  40f7a6:	push   ebx
  40f7a7:	push   ebx
  40f7a8:	push   DWORD PTR [ebp+0x14]
  40f7ab:	setne  al
  40f7ae:	push   DWORD PTR [ebp+0x10]
  40f7b1:	lea    eax,[eax*8+0x1]
  40f7b8:	push   eax
  40f7b9:	push   DWORD PTR [ebp+0x20]
  40f7bc:	call   esi
  40f7be:	mov    edi,eax
  40f7c0:	cmp    edi,ebx
  40f7c2:	je     0x40f957
  40f7c8:	jle    0x40f80d
  40f7ca:	push   0xffffffe0
  40f7cc:	xor    edx,edx
  40f7ce:	pop    eax
  40f7cf:	div    edi
  40f7d1:	cmp    eax,0x2
  40f7d4:	jb     0x40f80d
  40f7d6:	lea    eax,[edi+edi*1+0x8]
  40f7da:	cmp    eax,0x400
  40f7df:	ja     0x40f7f4
  40f7e1:	call   0x413090
  40f7e6:	mov    eax,esp
  40f7e8:	cmp    eax,ebx
  40f7ea:	je     0x40f808
  40f7ec:	mov    DWORD PTR [eax],0xcccc
  40f7f2:	jmp    0x40f805
  40f7f4:	push   eax
  40f7f5:	call   0x40f011
  40f7fa:	pop    ecx
  40f7fb:	cmp    eax,ebx
  40f7fd:	je     0x40f808
  40f7ff:	mov    DWORD PTR [eax],0xdddd
  40f805:	add    eax,0x8
  40f808:	mov    DWORD PTR [ebp-0xc],eax
  40f80b:	jmp    0x40f810
  40f80d:	mov    DWORD PTR [ebp-0xc],ebx
  40f810:	cmp    DWORD PTR [ebp-0xc],ebx
  40f813:	je     0x40f957
  40f819:	push   edi
  40f81a:	push   DWORD PTR [ebp-0xc]
  40f81d:	push   DWORD PTR [ebp+0x14]
  40f820:	push   DWORD PTR [ebp+0x10]
  40f823:	push   0x1
  40f825:	push   DWORD PTR [ebp+0x20]
  40f828:	call   esi
  40f82a:	test   eax,eax
  40f82c:	je     0x40f915
  40f832:	mov    esi,DWORD PTR ds:0x4194b4
  40f838:	push   ebx
  40f839:	push   ebx
  40f83a:	push   edi
  40f83b:	push   DWORD PTR [ebp-0xc]
  40f83e:	push   DWORD PTR [ebp+0xc]
  40f841:	push   DWORD PTR [ebp+0x8]
  40f844:	call   esi
  40f846:	mov    ecx,eax
  40f848:	mov    DWORD PTR [ebp-0x8],ecx
  40f84b:	cmp    ecx,ebx
  40f84d:	je     0x40f915
  40f853:	test   DWORD PTR [ebp+0xc],0x400
  40f85a:	je     0x40f885
  40f85c:	cmp    DWORD PTR [ebp+0x1c],ebx
  40f85f:	je     0x40f915
  40f865:	cmp    ecx,DWORD PTR [ebp+0x1c]
  40f868:	jg     0x40f915
  40f86e:	push   DWORD PTR [ebp+0x1c]
  40f871:	push   DWORD PTR [ebp+0x18]
  40f874:	push   edi
  40f875:	push   DWORD PTR [ebp-0xc]
  40f878:	push   DWORD PTR [ebp+0xc]
  40f87b:	push   DWORD PTR [ebp+0x8]
  40f87e:	call   esi
  40f880:	jmp    0x40f915
  40f885:	cmp    ecx,ebx
  40f887:	jle    0x40f8ce
  40f889:	push   0xffffffe0
  40f88b:	xor    edx,edx
  40f88d:	pop    eax
  40f88e:	div    ecx
  40f890:	cmp    eax,0x2
  40f893:	jb     0x40f8ce
  40f895:	lea    eax,[ecx+ecx*1+0x8]
  40f899:	cmp    eax,0x400
  40f89e:	ja     0x40f8b6
  40f8a0:	call   0x413090
  40f8a5:	mov    esi,esp
  40f8a7:	cmp    esi,ebx
  40f8a9:	je     0x40f915
  40f8ab:	mov    DWORD PTR [esi],0xcccc
  40f8b1:	add    esi,0x8
  40f8b4:	jmp    0x40f8d0
  40f8b6:	push   eax
  40f8b7:	call   0x40f011
  40f8bc:	pop    ecx
  40f8bd:	cmp    eax,ebx
  40f8bf:	je     0x40f8ca
  40f8c1:	mov    DWORD PTR [eax],0xdddd
  40f8c7:	add    eax,0x8
  40f8ca:	mov    esi,eax
  40f8cc:	jmp    0x40f8d0
  40f8ce:	xor    esi,esi
  40f8d0:	cmp    esi,ebx
  40f8d2:	je     0x40f915
  40f8d4:	push   DWORD PTR [ebp-0x8]
  40f8d7:	push   esi
  40f8d8:	push   edi
  40f8d9:	push   DWORD PTR [ebp-0xc]
  40f8dc:	push   DWORD PTR [ebp+0xc]
  40f8df:	push   DWORD PTR [ebp+0x8]
  40f8e2:	call   DWORD PTR ds:0x4194b4
  40f8e8:	test   eax,eax
  40f8ea:	je     0x40f90e
  40f8ec:	push   ebx
  40f8ed:	push   ebx
  40f8ee:	cmp    DWORD PTR [ebp+0x1c],ebx
  40f8f1:	jne    0x40f8f7
  40f8f3:	push   ebx
  40f8f4:	push   ebx
  40f8f5:	jmp    0x40f8fd
  40f8f7:	push   DWORD PTR [ebp+0x1c]
  40f8fa:	push   DWORD PTR [ebp+0x18]
  40f8fd:	push   DWORD PTR [ebp-0x8]
  40f900:	push   esi
  40f901:	push   ebx
  40f902:	push   DWORD PTR [ebp+0x20]
  40f905:	call   DWORD PTR ds:0x4192dc
  40f90b:	mov    DWORD PTR [ebp-0x8],eax
  40f90e:	push   esi
  40f90f:	call   0x40f6cc
  40f914:	pop    ecx
  40f915:	push   DWORD PTR [ebp-0xc]
  40f918:	call   0x40f6cc
  40f91d:	mov    eax,DWORD PTR [ebp-0x8]
  40f920:	pop    ecx
  40f921:	jmp    0x40fa7f
  40f926:	mov    DWORD PTR [ebp-0xc],ebx
  40f929:	mov    DWORD PTR [ebp-0x10],ebx
  40f92c:	cmp    DWORD PTR [ebp+0x8],ebx
  40f92f:	jne    0x40f939
  40f931:	mov    eax,DWORD PTR [esi]
  40f933:	mov    eax,DWORD PTR [eax+0x14]
  40f936:	mov    DWORD PTR [ebp+0x8],eax
  40f939:	cmp    DWORD PTR [ebp+0x20],ebx
  40f93c:	jne    0x40f946
  40f93e:	mov    eax,DWORD PTR [esi]
  40f940:	mov    eax,DWORD PTR [eax+0x4]
  40f943:	mov    DWORD PTR [ebp+0x20],eax
  40f946:	push   DWORD PTR [ebp+0x8]
  40f949:	call   0x412e92
  40f94e:	pop    ecx
  40f94f:	mov    DWORD PTR [ebp-0x14],eax
  40f952:	cmp    eax,0xffffffff
  40f955:	jne    0x40f95e
  40f957:	xor    eax,eax
  40f959:	jmp    0x40fa7f
  40f95e:	cmp    eax,DWORD PTR [ebp+0x20]
  40f961:	je     0x40fa42
  40f967:	push   ebx
  40f968:	push   ebx
  40f969:	lea    ecx,[ebp+0x14]
  40f96c:	push   ecx
  40f96d:	push   DWORD PTR [ebp+0x10]
  40f970:	push   eax
  40f971:	push   DWORD PTR [ebp+0x20]
  40f974:	call   0x412edb
  40f979:	add    esp,0x18
  40f97c:	mov    DWORD PTR [ebp-0xc],eax
  40f97f:	cmp    eax,ebx
  40f981:	je     0x40f957
  40f983:	mov    esi,DWORD PTR ds:0x4194d8
  40f989:	push   ebx
  40f98a:	push   ebx
  40f98b:	push   DWORD PTR [ebp+0x14]
  40f98e:	push   eax
  40f98f:	push   DWORD PTR [ebp+0xc]
  40f992:	push   DWORD PTR [ebp+0x8]
  40f995:	call   esi
  40f997:	mov    DWORD PTR [ebp-0x8],eax
  40f99a:	cmp    eax,ebx
  40f99c:	jne    0x40f9a5
  40f99e:	xor    esi,esi
  40f9a0:	jmp    0x40fa5c
  40f9a5:	jle    0x40f9e4
  40f9a7:	cmp    eax,0xffffffe0
  40f9aa:	ja     0x40f9e4
  40f9ac:	add    eax,0x8
  40f9af:	cmp    eax,0x400
  40f9b4:	ja     0x40f9cc
  40f9b6:	call   0x413090
  40f9bb:	mov    edi,esp
  40f9bd:	cmp    edi,ebx
  40f9bf:	je     0x40f99e
  40f9c1:	mov    DWORD PTR [edi],0xcccc
  40f9c7:	add    edi,0x8
  40f9ca:	jmp    0x40f9e6
  40f9cc:	push   eax
  40f9cd:	call   0x40f011
  40f9d2:	pop    ecx
  40f9d3:	cmp    eax,ebx
  40f9d5:	je     0x40f9e0
  40f9d7:	mov    DWORD PTR [eax],0xdddd
  40f9dd:	add    eax,0x8
  40f9e0:	mov    edi,eax
  40f9e2:	jmp    0x40f9e6
  40f9e4:	xor    edi,edi
  40f9e6:	cmp    edi,ebx
  40f9e8:	je     0x40f99e
  40f9ea:	push   DWORD PTR [ebp-0x8]
  40f9ed:	push   ebx
  40f9ee:	push   edi
  40f9ef:	call   0x40cc70
  40f9f4:	add    esp,0xc
  40f9f7:	push   DWORD PTR [ebp-0x8]
  40f9fa:	push   edi
  40f9fb:	push   DWORD PTR [ebp+0x14]
  40f9fe:	push   DWORD PTR [ebp-0xc]
  40fa01:	push   DWORD PTR [ebp+0xc]
  40fa04:	push   DWORD PTR [ebp+0x8]
  40fa07:	call   esi
  40fa09:	mov    DWORD PTR [ebp-0x8],eax
  40fa0c:	cmp    eax,ebx
  40fa0e:	jne    0x40fa14
  40fa10:	xor    esi,esi
  40fa12:	jmp    0x40fa39
  40fa14:	push   DWORD PTR [ebp+0x1c]
  40fa17:	lea    eax,[ebp-0x8]
  40fa1a:	push   DWORD PTR [ebp+0x18]
  40fa1d:	push   eax
  40fa1e:	push   edi
  40fa1f:	push   DWORD PTR [ebp+0x20]
  40fa22:	push   DWORD PTR [ebp-0x14]
  40fa25:	call   0x412edb
  40fa2a:	mov    esi,eax
  40fa2c:	mov    DWORD PTR [ebp-0x10],esi
  40fa2f:	add    esp,0x18
  40fa32:	neg    esi
  40fa34:	sbb    esi,esi
  40fa36:	and    esi,DWORD PTR [ebp-0x8]
  40fa39:	push   edi
  40fa3a:	call   0x40f6cc
  40fa3f:	pop    ecx
  40fa40:	jmp    0x40fa5c
  40fa42:	push   DWORD PTR [ebp+0x1c]
  40fa45:	push   DWORD PTR [ebp+0x18]
  40fa48:	push   DWORD PTR [ebp+0x14]
  40fa4b:	push   DWORD PTR [ebp+0x10]
  40fa4e:	push   DWORD PTR [ebp+0xc]
  40fa51:	push   DWORD PTR [ebp+0x8]
  40fa54:	call   DWORD PTR ds:0x4194d8
  40fa5a:	mov    esi,eax
  40fa5c:	cmp    DWORD PTR [ebp-0xc],ebx
  40fa5f:	je     0x40fa6a
  40fa61:	push   DWORD PTR [ebp-0xc]
  40fa64:	call   0x40f63e
  40fa69:	pop    ecx
  40fa6a:	mov    eax,DWORD PTR [ebp-0x10]
  40fa6d:	cmp    eax,ebx
  40fa6f:	je     0x40fa7d
  40fa71:	cmp    DWORD PTR [ebp+0x18],eax
  40fa74:	je     0x40fa7d
  40fa76:	push   eax
  40fa77:	call   0x40f63e
  40fa7c:	pop    ecx
  40fa7d:	mov    eax,esi
  40fa7f:	lea    esp,[ebp-0x20]
  40fa82:	pop    edi
  40fa83:	pop    esi
  40fa84:	pop    ebx
  40fa85:	mov    ecx,DWORD PTR [ebp-0x4]
  40fa88:	xor    ecx,ebp
  40fa8a:	call   0x40efb3
  40fa8f:	leave  
  40fa90:	ret    
  40fa91:	mov    edi,edi
  40fa93:	push   ebp
  40fa94:	mov    ebp,esp
  40fa96:	sub    esp,0x10
  40fa99:	push   DWORD PTR [ebp+0x8]
  40fa9c:	lea    ecx,[ebp-0x10]
  40fa9f:	call   0x4046f4
  40faa4:	push   DWORD PTR [ebp+0x28]
  40faa7:	lea    ecx,[ebp-0x10]
  40faaa:	push   DWORD PTR [ebp+0x24]
  40faad:	push   DWORD PTR [ebp+0x20]
  40fab0:	push   DWORD PTR [ebp+0x1c]
  40fab3:	push   DWORD PTR [ebp+0x18]
  40fab6:	push   DWORD PTR [ebp+0x14]
  40fab9:	push   DWORD PTR [ebp+0x10]
  40fabc:	push   DWORD PTR [ebp+0xc]
  40fabf:	call   0x40f6ec
  40fac4:	add    esp,0x20
  40fac7:	cmp    BYTE PTR [ebp-0x4],0x0
  40facb:	je     0x40fad4
  40facd:	mov    ecx,DWORD PTR [ebp-0x8]
  40fad0:	and    DWORD PTR [ecx+0x70],0xfffffffd
  40fad4:	leave  
  40fad5:	ret    
  40fad6:	mov    edi,edi
  40fad8:	push   ebp
  40fad9:	mov    ebp,esp
  40fadb:	push   ecx
  40fadc:	push   ecx
  40fadd:	mov    eax,ds:0x423d68
  40fae2:	xor    eax,ebp
  40fae4:	mov    DWORD PTR [ebp-0x4],eax
  40fae7:	mov    eax,ds:0x43c69c
  40faec:	push   ebx
  40faed:	push   esi
  40faee:	xor    ebx,ebx
  40faf0:	push   edi
  40faf1:	mov    edi,ecx
  40faf3:	cmp    eax,ebx
  40faf5:	jne    0x40fb31
  40faf7:	lea    eax,[ebp-0x8]
  40fafa:	push   eax
  40fafb:	xor    esi,esi
  40fafd:	inc    esi
  40fafe:	push   esi
  40faff:	push   0x41e288
  40fb04:	push   esi
  40fb05:	call   DWORD PTR ds:0x4194e0
  40fb0b:	test   eax,eax
  40fb0d:	je     0x40fb17
  40fb0f:	mov    DWORD PTR ds:0x43c69c,esi
  40fb15:	jmp    0x40fb4b
  40fb17:	call   DWORD PTR ds:0x41927c
  40fb1d:	cmp    eax,0x78
  40fb20:	jne    0x40fb2c
  40fb22:	push   0x2
  40fb24:	pop    eax
  40fb25:	mov    ds:0x43c69c,eax
  40fb2a:	jmp    0x40fb31
  40fb2c:	mov    eax,ds:0x43c69c
  40fb31:	cmp    eax,0x2
  40fb34:	je     0x40fc09
  40fb3a:	cmp    eax,ebx
  40fb3c:	je     0x40fc09
  40fb42:	cmp    eax,0x1
  40fb45:	jne    0x40fc33
  40fb4b:	mov    DWORD PTR [ebp-0x8],ebx
  40fb4e:	cmp    DWORD PTR [ebp+0x18],ebx
  40fb51:	jne    0x40fb5b
  40fb53:	mov    eax,DWORD PTR [edi]
  40fb55:	mov    eax,DWORD PTR [eax+0x4]
  40fb58:	mov    DWORD PTR [ebp+0x18],eax
  40fb5b:	mov    esi,DWORD PTR ds:0x4192d8
  40fb61:	xor    eax,eax
  40fb63:	cmp    DWORD PTR [ebp+0x20],ebx
  40fb66:	push   ebx
  40fb67:	push   ebx
  40fb68:	push   DWORD PTR [ebp+0x10]
  40fb6b:	setne  al
  40fb6e:	push   DWORD PTR [ebp+0xc]
  40fb71:	lea    eax,[eax*8+0x1]
  40fb78:	push   eax
  40fb79:	push   DWORD PTR [ebp+0x18]
  40fb7c:	call   esi
  40fb7e:	mov    edi,eax
  40fb80:	cmp    edi,ebx
  40fb82:	je     0x40fc33
  40fb88:	jle    0x40fbc6
  40fb8a:	cmp    edi,0x7ffffff0
  40fb90:	ja     0x40fbc6
  40fb92:	lea    eax,[edi+edi*1+0x8]
  40fb96:	cmp    eax,0x400
  40fb9b:	ja     0x40fbb0
  40fb9d:	call   0x413090
  40fba2:	mov    eax,esp
  40fba4:	cmp    eax,ebx
  40fba6:	je     0x40fbc4
  40fba8:	mov    DWORD PTR [eax],0xcccc
  40fbae:	jmp    0x40fbc1
  40fbb0:	push   eax
  40fbb1:	call   0x40f011
  40fbb6:	pop    ecx
  40fbb7:	cmp    eax,ebx
  40fbb9:	je     0x40fbc4
  40fbbb:	mov    DWORD PTR [eax],0xdddd
  40fbc1:	add    eax,0x8
  40fbc4:	mov    ebx,eax
  40fbc6:	test   ebx,ebx
  40fbc8:	je     0x40fc33
  40fbca:	lea    eax,[edi+edi*1]
  40fbcd:	push   eax
  40fbce:	push   0x0
  40fbd0:	push   ebx
  40fbd1:	call   0x40cc70
  40fbd6:	add    esp,0xc
  40fbd9:	push   edi
  40fbda:	push   ebx
  40fbdb:	push   DWORD PTR [ebp+0x10]
  40fbde:	push   DWORD PTR [ebp+0xc]
  40fbe1:	push   0x1
  40fbe3:	push   DWORD PTR [ebp+0x18]
  40fbe6:	call   esi
  40fbe8:	test   eax,eax
  40fbea:	je     0x40fbfd
  40fbec:	push   DWORD PTR [ebp+0x14]
  40fbef:	push   eax
  40fbf0:	push   ebx
  40fbf1:	push   DWORD PTR [ebp+0x8]
  40fbf4:	call   DWORD PTR ds:0x4194e0
  40fbfa:	mov    DWORD PTR [ebp-0x8],eax
  40fbfd:	push   ebx
  40fbfe:	call   0x40f6cc
  40fc03:	mov    eax,DWORD PTR [ebp-0x8]
  40fc06:	pop    ecx
  40fc07:	jmp    0x40fc7e
  40fc09:	xor    esi,esi
  40fc0b:	cmp    DWORD PTR [ebp+0x1c],ebx
  40fc0e:	jne    0x40fc18
  40fc10:	mov    eax,DWORD PTR [edi]
  40fc12:	mov    eax,DWORD PTR [eax+0x14]
  40fc15:	mov    DWORD PTR [ebp+0x1c],eax
  40fc18:	cmp    DWORD PTR [ebp+0x18],ebx
  40fc1b:	jne    0x40fc25
  40fc1d:	mov    eax,DWORD PTR [edi]
  40fc1f:	mov    eax,DWORD PTR [eax+0x4]
  40fc22:	mov    DWORD PTR [ebp+0x18],eax
  40fc25:	push   DWORD PTR [ebp+0x1c]
  40fc28:	call   0x412e92
  40fc2d:	pop    ecx
  40fc2e:	cmp    eax,0xffffffff
  40fc31:	jne    0x40fc37
  40fc33:	xor    eax,eax
  40fc35:	jmp    0x40fc7e
  40fc37:	cmp    eax,DWORD PTR [ebp+0x18]
  40fc3a:	je     0x40fc5a
  40fc3c:	push   ebx
  40fc3d:	push   ebx
  40fc3e:	lea    ecx,[ebp+0x10]
  40fc41:	push   ecx
  40fc42:	push   DWORD PTR [ebp+0xc]
  40fc45:	push   eax
  40fc46:	push   DWORD PTR [ebp+0x18]
  40fc49:	call   0x412edb
  40fc4e:	mov    esi,eax
  40fc50:	add    esp,0x18
  40fc53:	cmp    esi,ebx
  40fc55:	je     0x40fc33
  40fc57:	mov    DWORD PTR [ebp+0xc],esi
  40fc5a:	push   DWORD PTR [ebp+0x14]
  40fc5d:	push   DWORD PTR [ebp+0x10]
  40fc60:	push   DWORD PTR [ebp+0xc]
  40fc63:	push   DWORD PTR [ebp+0x8]
  40fc66:	push   DWORD PTR [ebp+0x1c]
  40fc69:	call   DWORD PTR ds:0x4194dc
  40fc6f:	mov    edi,eax
  40fc71:	cmp    esi,ebx
  40fc73:	je     0x40fc7c
  40fc75:	push   esi
  40fc76:	call   0x40f63e
  40fc7b:	pop    ecx
  40fc7c:	mov    eax,edi
  40fc7e:	lea    esp,[ebp-0x14]
  40fc81:	pop    edi
  40fc82:	pop    esi
  40fc83:	pop    ebx
  40fc84:	mov    ecx,DWORD PTR [ebp-0x4]
  40fc87:	xor    ecx,ebp
  40fc89:	call   0x40efb3
  40fc8e:	leave  
  40fc8f:	ret    
  40fc90:	mov    edi,edi
  40fc92:	push   ebp
  40fc93:	mov    ebp,esp
  40fc95:	sub    esp,0x10
  40fc98:	push   DWORD PTR [ebp+0x8]
  40fc9b:	lea    ecx,[ebp-0x10]
  40fc9e:	call   0x4046f4
  40fca3:	push   DWORD PTR [ebp+0x24]
  40fca6:	lea    ecx,[ebp-0x10]
  40fca9:	push   DWORD PTR [ebp+0x20]
  40fcac:	push   DWORD PTR [ebp+0x1c]
  40fcaf:	push   DWORD PTR [ebp+0x18]
  40fcb2:	push   DWORD PTR [ebp+0x14]
  40fcb5:	push   DWORD PTR [ebp+0x10]
  40fcb8:	push   DWORD PTR [ebp+0xc]
  40fcbb:	call   0x40fad6
  40fcc0:	add    esp,0x1c
  40fcc3:	cmp    BYTE PTR [ebp-0x4],0x0
  40fcc7:	je     0x40fcd0
  40fcc9:	mov    ecx,DWORD PTR [ebp-0x8]
  40fccc:	and    DWORD PTR [ecx+0x70],0xfffffffd
  40fcd0:	leave  
  40fcd1:	ret    
  40fcd2:	mov    edi,edi
  40fcd4:	push   ebp
  40fcd5:	mov    ebp,esp
  40fcd7:	push   esi
  40fcd8:	mov    esi,DWORD PTR [ebp+0x8]
  40fcdb:	test   esi,esi
  40fcdd:	je     0x40fe64
  40fce3:	push   DWORD PTR [esi+0x4]
  40fce6:	call   0x40f63e
  40fceb:	push   DWORD PTR [esi+0x8]
  40fcee:	call   0x40f63e
  40fcf3:	push   DWORD PTR [esi+0xc]
  40fcf6:	call   0x40f63e
  40fcfb:	push   DWORD PTR [esi+0x10]
  40fcfe:	call   0x40f63e
  40fd03:	push   DWORD PTR [esi+0x14]
  40fd06:	call   0x40f63e
  40fd0b:	push   DWORD PTR [esi+0x18]
  40fd0e:	call   0x40f63e
  40fd13:	push   DWORD PTR [esi]
  40fd15:	call   0x40f63e
  40fd1a:	push   DWORD PTR [esi+0x20]
  40fd1d:	call   0x40f63e
  40fd22:	push   DWORD PTR [esi+0x24]
  40fd25:	call   0x40f63e
  40fd2a:	push   DWORD PTR [esi+0x28]
  40fd2d:	call   0x40f63e
  40fd32:	push   DWORD PTR [esi+0x2c]
  40fd35:	call   0x40f63e
  40fd3a:	push   DWORD PTR [esi+0x30]
  40fd3d:	call   0x40f63e
  40fd42:	push   DWORD PTR [esi+0x34]
  40fd45:	call   0x40f63e
  40fd4a:	push   DWORD PTR [esi+0x1c]
  40fd4d:	call   0x40f63e
  40fd52:	push   DWORD PTR [esi+0x38]
  40fd55:	call   0x40f63e
  40fd5a:	push   DWORD PTR [esi+0x3c]
  40fd5d:	call   0x40f63e
  40fd62:	add    esp,0x40
  40fd65:	push   DWORD PTR [esi+0x40]
  40fd68:	call   0x40f63e
  40fd6d:	push   DWORD PTR [esi+0x44]
  40fd70:	call   0x40f63e
  40fd75:	push   DWORD PTR [esi+0x48]
  40fd78:	call   0x40f63e
  40fd7d:	push   DWORD PTR [esi+0x4c]
  40fd80:	call   0x40f63e
  40fd85:	push   DWORD PTR [esi+0x50]
  40fd88:	call   0x40f63e
  40fd8d:	push   DWORD PTR [esi+0x54]
  40fd90:	call   0x40f63e
  40fd95:	push   DWORD PTR [esi+0x58]
  40fd98:	call   0x40f63e
  40fd9d:	push   DWORD PTR [esi+0x5c]
  40fda0:	call   0x40f63e
  40fda5:	push   DWORD PTR [esi+0x60]
  40fda8:	call   0x40f63e
  40fdad:	push   DWORD PTR [esi+0x64]
  40fdb0:	call   0x40f63e
  40fdb5:	push   DWORD PTR [esi+0x68]
  40fdb8:	call   0x40f63e
  40fdbd:	push   DWORD PTR [esi+0x6c]
  40fdc0:	call   0x40f63e
  40fdc5:	push   DWORD PTR [esi+0x70]
  40fdc8:	call   0x40f63e
  40fdcd:	push   DWORD PTR [esi+0x74]
  40fdd0:	call   0x40f63e
  40fdd5:	push   DWORD PTR [esi+0x78]
  40fdd8:	call   0x40f63e
  40fddd:	push   DWORD PTR [esi+0x7c]
  40fde0:	call   0x40f63e
  40fde5:	add    esp,0x40
  40fde8:	push   DWORD PTR [esi+0x80]
  40fdee:	call   0x40f63e
  40fdf3:	push   DWORD PTR [esi+0x84]
  40fdf9:	call   0x40f63e
  40fdfe:	push   DWORD PTR [esi+0x88]
  40fe04:	call   0x40f63e
  40fe09:	push   DWORD PTR [esi+0x8c]
  40fe0f:	call   0x40f63e
  40fe14:	push   DWORD PTR [esi+0x90]
  40fe1a:	call   0x40f63e
  40fe1f:	push   DWORD PTR [esi+0x94]
  40fe25:	call   0x40f63e
  40fe2a:	push   DWORD PTR [esi+0x98]
  40fe30:	call   0x40f63e
  40fe35:	push   DWORD PTR [esi+0x9c]
  40fe3b:	call   0x40f63e
  40fe40:	push   DWORD PTR [esi+0xa0]
  40fe46:	call   0x40f63e
  40fe4b:	push   DWORD PTR [esi+0xa4]
  40fe51:	call   0x40f63e
  40fe56:	push   DWORD PTR [esi+0xa8]
  40fe5c:	call   0x40f63e
  40fe61:	add    esp,0x2c
  40fe64:	pop    esi
  40fe65:	pop    ebp
  40fe66:	ret    
  40fe67:	mov    edi,edi
  40fe69:	push   ebp
  40fe6a:	mov    ebp,esp
  40fe6c:	push   esi
  40fe6d:	mov    esi,DWORD PTR [ebp+0x8]
  40fe70:	test   esi,esi
  40fe72:	je     0x40fea9
  40fe74:	mov    eax,DWORD PTR [esi]
  40fe76:	cmp    eax,DWORD PTR ds:0x424278
  40fe7c:	je     0x40fe85
  40fe7e:	push   eax
  40fe7f:	call   0x40f63e
  40fe84:	pop    ecx
  40fe85:	mov    eax,DWORD PTR [esi+0x4]
  40fe88:	cmp    eax,DWORD PTR ds:0x42427c
  40fe8e:	je     0x40fe97
  40fe90:	push   eax
  40fe91:	call   0x40f63e
  40fe96:	pop    ecx
  40fe97:	mov    esi,DWORD PTR [esi+0x8]
  40fe9a:	cmp    esi,DWORD PTR ds:0x424280
  40fea0:	je     0x40fea9
  40fea2:	push   esi
  40fea3:	call   0x40f63e
  40fea8:	pop    ecx
  40fea9:	pop    esi
  40feaa:	pop    ebp
  40feab:	ret    
  40feac:	mov    edi,edi
  40feae:	push   ebp
  40feaf:	mov    ebp,esp
  40feb1:	push   esi
  40feb2:	mov    esi,DWORD PTR [ebp+0x8]
  40feb5:	test   esi,esi
  40feb7:	je     0x40ff37
  40feb9:	mov    eax,DWORD PTR [esi+0xc]
  40febc:	cmp    eax,DWORD PTR ds:0x424284
  40fec2:	je     0x40fecb
  40fec4:	push   eax
  40fec5:	call   0x40f63e
  40feca:	pop    ecx
  40fecb:	mov    eax,DWORD PTR [esi+0x10]
  40fece:	cmp    eax,DWORD PTR ds:0x424288
  40fed4:	je     0x40fedd
  40fed6:	push   eax
  40fed7:	call   0x40f63e
  40fedc:	pop    ecx
  40fedd:	mov    eax,DWORD PTR [esi+0x14]
  40fee0:	cmp    eax,DWORD PTR ds:0x42428c
  40fee6:	je     0x40feef
  40fee8:	push   eax
  40fee9:	call   0x40f63e
  40feee:	pop    ecx
  40feef:	mov    eax,DWORD PTR [esi+0x18]
  40fef2:	cmp    eax,DWORD PTR ds:0x424290
  40fef8:	je     0x40ff01
  40fefa:	push   eax
  40fefb:	call   0x40f63e
  40ff00:	pop    ecx
  40ff01:	mov    eax,DWORD PTR [esi+0x1c]
  40ff04:	cmp    eax,DWORD PTR ds:0x424294
  40ff0a:	je     0x40ff13
  40ff0c:	push   eax
  40ff0d:	call   0x40f63e
  40ff12:	pop    ecx
  40ff13:	mov    eax,DWORD PTR [esi+0x20]
  40ff16:	cmp    eax,DWORD PTR ds:0x424298
  40ff1c:	je     0x40ff25
  40ff1e:	push   eax
  40ff1f:	call   0x40f63e
  40ff24:	pop    ecx
  40ff25:	mov    esi,DWORD PTR [esi+0x24]
  40ff28:	cmp    esi,DWORD PTR ds:0x42429c
  40ff2e:	je     0x40ff37
  40ff30:	push   esi
  40ff31:	call   0x40f63e
  40ff36:	pop    ecx
  40ff37:	pop    esi
  40ff38:	pop    ebp
  40ff39:	ret    
  40ff3a:	call   0x408be5
  40ff3f:	mov    ecx,eax
  40ff41:	mov    eax,DWORD PTR [ecx+0x6c]
  40ff44:	cmp    eax,DWORD PTR ds:0x423ad0
  40ff4a:	je     0x40ff5c
  40ff4c:	mov    edx,DWORD PTR ds:0x4239ec
  40ff52:	test   DWORD PTR [ecx+0x70],edx
  40ff55:	jne    0x40ff5c
  40ff57:	call   0x40984d
  40ff5c:	mov    eax,DWORD PTR [eax+0x4]
  40ff5f:	ret    
  40ff60:	mov    edi,edi
  40ff62:	push   ebp
  40ff63:	mov    ebp,esp
  40ff65:	mov    eax,DWORD PTR [ebp+0x8]
  40ff68:	push   ebx
  40ff69:	xor    ebx,ebx
  40ff6b:	push   esi
  40ff6c:	push   edi
  40ff6d:	cmp    eax,ebx
  40ff6f:	je     0x40ff78
  40ff71:	mov    edi,DWORD PTR [ebp+0xc]
  40ff74:	cmp    edi,ebx
  40ff76:	ja     0x40ff93
  40ff78:	call   0x4087a4
  40ff7d:	push   0x16
  40ff7f:	pop    esi
  40ff80:	mov    DWORD PTR [eax],esi
  40ff82:	push   ebx
  40ff83:	push   ebx
  40ff84:	push   ebx
  40ff85:	push   ebx
  40ff86:	push   ebx
  40ff87:	call   0x40873c
  40ff8c:	add    esp,0x14
  40ff8f:	mov    eax,esi
  40ff91:	jmp    0x40ffcf
  40ff93:	mov    esi,DWORD PTR [ebp+0x10]
  40ff96:	cmp    esi,ebx
  40ff98:	jne    0x40ff9e
  40ff9a:	mov    BYTE PTR [eax],bl
  40ff9c:	jmp    0x40ff78
  40ff9e:	mov    edx,eax
  40ffa0:	cmp    BYTE PTR [edx],bl
  40ffa2:	je     0x40ffa8
  40ffa4:	inc    edx
  40ffa5:	dec    edi
  40ffa6:	jne    0x40ffa0
  40ffa8:	cmp    edi,ebx
  40ffaa:	je     0x40ff9a
  40ffac:	mov    cl,BYTE PTR [esi]
  40ffae:	mov    BYTE PTR [edx],cl
  40ffb0:	inc    edx
  40ffb1:	inc    esi
  40ffb2:	cmp    cl,bl
  40ffb4:	je     0x40ffb9
  40ffb6:	dec    edi
  40ffb7:	jne    0x40ffac
  40ffb9:	cmp    edi,ebx
  40ffbb:	jne    0x40ffcd
  40ffbd:	mov    BYTE PTR [eax],bl
  40ffbf:	call   0x4087a4
  40ffc4:	push   0x22
  40ffc6:	pop    ecx
  40ffc7:	mov    DWORD PTR [eax],ecx
  40ffc9:	mov    esi,ecx
  40ffcb:	jmp    0x40ff82
  40ffcd:	xor    eax,eax
  40ffcf:	pop    edi
  40ffd0:	pop    esi
  40ffd1:	pop    ebx
  40ffd2:	pop    ebp
  40ffd3:	ret    
  40ffd4:	int3   
  40ffd5:	int3   
  40ffd6:	int3   
  40ffd7:	int3   
  40ffd8:	int3   
  40ffd9:	int3   
  40ffda:	int3   
  40ffdb:	int3   
  40ffdc:	int3   
  40ffdd:	int3   
  40ffde:	int3   
  40ffdf:	int3   
  40ffe0:	push   ebp
  40ffe1:	mov    ebp,esp
  40ffe3:	push   esi
  40ffe4:	xor    eax,eax
  40ffe6:	push   eax
  40ffe7:	push   eax
  40ffe8:	push   eax
  40ffe9:	push   eax
  40ffea:	push   eax
  40ffeb:	push   eax
  40ffec:	push   eax
  40ffed:	push   eax
  40ffee:	mov    edx,DWORD PTR [ebp+0xc]
  40fff1:	lea    ecx,[ecx+0x0]
  40fff4:	mov    al,BYTE PTR [edx]
  40fff6:	or     al,al
  40fff8:	je     0x410003
  40fffa:	add    edx,0x1
  40fffd:	bts    DWORD PTR [esp],eax
  410001:	jmp    0x40fff4
  410003:	mov    esi,DWORD PTR [ebp+0x8]
  410006:	or     ecx,0xffffffff
  410009:	lea    ecx,[ecx+0x0]
  41000c:	add    ecx,0x1
  41000f:	mov    al,BYTE PTR [esi]
  410011:	or     al,al
  410013:	je     0x41001e
  410015:	add    esi,0x1
  410018:	bt     DWORD PTR [esp],eax
  41001c:	jae    0x41000c
  41001e:	mov    eax,ecx
  410020:	add    esp,0x20
  410023:	pop    esi
  410024:	leave  
  410025:	ret    
  410026:	mov    edi,edi
  410028:	push   ebp
  410029:	mov    ebp,esp
  41002b:	push   ebx
  41002c:	push   esi
  41002d:	mov    esi,DWORD PTR [ebp+0x8]
  410030:	xor    ebx,ebx
  410032:	push   edi
  410033:	cmp    DWORD PTR [ebp+0x14],ebx
  410036:	jne    0x410048
  410038:	cmp    esi,ebx
  41003a:	jne    0x41004c
  41003c:	cmp    DWORD PTR [ebp+0xc],ebx
  41003f:	jne    0x410053
  410041:	xor    eax,eax
  410043:	pop    edi
  410044:	pop    esi
  410045:	pop    ebx
  410046:	pop    ebp
  410047:	ret    
  410048:	cmp    esi,ebx
  41004a:	je     0x410053
  41004c:	mov    edi,DWORD PTR [ebp+0xc]
  41004f:	cmp    edi,ebx
  410051:	ja     0x41006e
  410053:	call   0x4087a4
  410058:	push   0x16
  41005a:	pop    esi
  41005b:	mov    DWORD PTR [eax],esi
  41005d:	push   ebx
  41005e:	push   ebx
  41005f:	push   ebx
  410060:	push   ebx
  410061:	push   ebx
  410062:	call   0x40873c
  410067:	add    esp,0x14
  41006a:	mov    eax,esi
  41006c:	jmp    0x410043
  41006e:	cmp    DWORD PTR [ebp+0x14],ebx
  410071:	jne    0x410077
  410073:	mov    BYTE PTR [esi],bl
  410075:	jmp    0x410041
  410077:	mov    edx,DWORD PTR [ebp+0x10]
  41007a:	cmp    edx,ebx
  41007c:	jne    0x410082
  41007e:	mov    BYTE PTR [esi],bl
  410080:	jmp    0x410053
  410082:	cmp    DWORD PTR [ebp+0x14],0xffffffff
  410086:	mov    eax,esi
  410088:	jne    0x410099
  41008a:	mov    cl,BYTE PTR [edx]
  41008c:	mov    BYTE PTR [eax],cl
  41008e:	inc    eax
  41008f:	inc    edx
  410090:	cmp    cl,bl
  410092:	je     0x4100b2
  410094:	dec    edi
  410095:	jne    0x41008a
  410097:	jmp    0x4100b2
  410099:	mov    cl,BYTE PTR [edx]
  41009b:	mov    BYTE PTR [eax],cl
  41009d:	inc    eax
  41009e:	inc    edx
  41009f:	cmp    cl,bl
  4100a1:	je     0x4100ab
  4100a3:	dec    edi
  4100a4:	je     0x4100ab
  4100a6:	dec    DWORD PTR [ebp+0x14]
  4100a9:	jne    0x410099
  4100ab:	cmp    DWORD PTR [ebp+0x14],ebx
  4100ae:	jne    0x4100b2
  4100b0:	mov    BYTE PTR [eax],bl
  4100b2:	cmp    edi,ebx
  4100b4:	jne    0x410041
  4100b6:	cmp    DWORD PTR [ebp+0x14],0xffffffff
  4100ba:	jne    0x4100cb
  4100bc:	mov    eax,DWORD PTR [ebp+0xc]
  4100bf:	push   0x50
  4100c1:	mov    BYTE PTR [esi+eax*1-0x1],bl
  4100c5:	pop    eax
  4100c6:	jmp    0x410043
  4100cb:	mov    BYTE PTR [esi],bl
  4100cd:	call   0x4087a4
  4100d2:	push   0x22
  4100d4:	pop    ecx
  4100d5:	mov    DWORD PTR [eax],ecx
  4100d7:	mov    esi,ecx
  4100d9:	jmp    0x41005d
  4100db:	int3   
  4100dc:	int3   
  4100dd:	int3   
  4100de:	int3   
  4100df:	int3   
  4100e0:	mov    edx,DWORD PTR [esp+0x4]
  4100e4:	mov    ecx,DWORD PTR [esp+0x8]
  4100e8:	test   edx,0x3
  4100ee:	jne    0x41012c
  4100f0:	mov    eax,DWORD PTR [edx]
  4100f2:	cmp    al,BYTE PTR [ecx]
  4100f4:	jne    0x410124
  4100f6:	or     al,al
  4100f8:	je     0x410120
  4100fa:	cmp    ah,BYTE PTR [ecx+0x1]
  4100fd:	jne    0x410124
  4100ff:	or     ah,ah
  410101:	je     0x410120
  410103:	shr    eax,0x10
  410106:	cmp    al,BYTE PTR [ecx+0x2]
  410109:	jne    0x410124
  41010b:	or     al,al
  41010d:	je     0x410120
  41010f:	cmp    ah,BYTE PTR [ecx+0x3]
  410112:	jne    0x410124
  410114:	add    ecx,0x4
  410117:	add    edx,0x4
  41011a:	or     ah,ah
  41011c:	jne    0x4100f0
  41011e:	mov    edi,edi
  410120:	xor    eax,eax
  410122:	ret    
  410123:	nop
  410124:	sbb    eax,eax
  410126:	shl    eax,1
  410128:	add    eax,0x1
  41012b:	ret    
  41012c:	test   edx,0x1
  410132:	je     0x41014c
  410134:	mov    al,BYTE PTR [edx]
  410136:	add    edx,0x1
  410139:	cmp    al,BYTE PTR [ecx]
  41013b:	jne    0x410124
  41013d:	add    ecx,0x1
  410140:	or     al,al
  410142:	je     0x410120
  410144:	test   edx,0x2
  41014a:	je     0x4100f0
  41014c:	mov    ax,WORD PTR [edx]
  41014f:	add    edx,0x2
  410152:	cmp    al,BYTE PTR [ecx]
  410154:	jne    0x410124
  410156:	or     al,al
  410158:	je     0x410120
  41015a:	cmp    ah,BYTE PTR [ecx+0x1]
  41015d:	jne    0x410124
  41015f:	or     ah,ah
  410161:	je     0x410120
  410163:	add    ecx,0x2
  410166:	jmp    0x4100f0
  410168:	int3   
  410169:	int3   
  41016a:	int3   
  41016b:	int3   
  41016c:	int3   
  41016d:	int3   
  41016e:	int3   
  41016f:	int3   
  410170:	push   ebp
  410171:	mov    ebp,esp
  410173:	push   esi
  410174:	xor    eax,eax
  410176:	push   eax
  410177:	push   eax
  410178:	push   eax
  410179:	push   eax
  41017a:	push   eax
  41017b:	push   eax
  41017c:	push   eax
  41017d:	push   eax
  41017e:	mov    edx,DWORD PTR [ebp+0xc]
  410181:	lea    ecx,[ecx+0x0]
  410184:	mov    al,BYTE PTR [edx]
  410186:	or     al,al
  410188:	je     0x410193
  41018a:	add    edx,0x1
  41018d:	bts    DWORD PTR [esp],eax
  410191:	jmp    0x410184
  410193:	mov    esi,DWORD PTR [ebp+0x8]
  410196:	mov    edi,edi
  410198:	mov    al,BYTE PTR [esi]
  41019a:	or     al,al
  41019c:	je     0x4101aa
  41019e:	add    esi,0x1
  4101a1:	bt     DWORD PTR [esp],eax
  4101a5:	jae    0x410198
  4101a7:	lea    eax,[esi-0x1]
  4101aa:	add    esp,0x20
  4101ad:	pop    esi
  4101ae:	leave  
  4101af:	ret    
  4101b0:	mov    edi,edi
  4101b2:	push   ebp
  4101b3:	mov    ebp,esp
  4101b5:	sub    esp,0x10
  4101b8:	push   DWORD PTR [ebp+0x8]
  4101bb:	lea    ecx,[ebp-0x10]
  4101be:	call   0x4046f4
  4101c3:	cmp    DWORD PTR [ebp+0x14],0xffffffff
  4101c7:	jge    0x4101cd
  4101c9:	xor    eax,eax
  4101cb:	jmp    0x4101df
  4101cd:	push   DWORD PTR [ebp+0x18]
  4101d0:	push   DWORD PTR [ebp+0x14]
  4101d3:	push   DWORD PTR [ebp+0x10]
  4101d6:	push   DWORD PTR [ebp+0xc]
  4101d9:	call   DWORD PTR ds:0x4194e0
  4101df:	cmp    BYTE PTR [ebp-0x4],0x0
  4101e3:	je     0x4101ec
  4101e5:	mov    ecx,DWORD PTR [ebp-0x8]
  4101e8:	and    DWORD PTR [ecx+0x70],0xfffffffd
  4101ec:	leave  
  4101ed:	ret    
  4101ee:	push   0x10
  4101f0:	push   0x41f048
  4101f5:	call   0x40a868
  4101fa:	xor    ebx,ebx
  4101fc:	mov    DWORD PTR [ebp-0x1c],ebx
  4101ff:	push   0x1
  410201:	call   0x40f60b
  410206:	pop    ecx
  410207:	mov    DWORD PTR [ebp-0x4],ebx
  41020a:	push   0x3
  41020c:	pop    edi
  41020d:	mov    DWORD PTR [ebp-0x20],edi
  410210:	cmp    edi,DWORD PTR ds:0x43db60
  410216:	jge    0x41026f
  410218:	mov    esi,edi
  41021a:	shl    esi,0x2
  41021d:	mov    eax,ds:0x43cb5c
  410222:	add    eax,esi
  410224:	cmp    DWORD PTR [eax],ebx
  410226:	je     0x41026c
  410228:	mov    eax,DWORD PTR [eax]
  41022a:	test   BYTE PTR [eax+0xc],0x83
  41022e:	je     0x41023f
  410230:	push   eax
  410231:	call   0x413225
  410236:	pop    ecx
  410237:	cmp    eax,0xffffffff
  41023a:	je     0x41023f
  41023c:	inc    DWORD PTR [ebp-0x1c]
  41023f:	cmp    edi,0x14
  410242:	jl     0x41026c
  410244:	mov    eax,ds:0x43cb5c
  410249:	mov    eax,DWORD PTR [esi+eax*1]
  41024c:	add    eax,0x20
  41024f:	push   eax
  410250:	call   DWORD PTR ds:0x419514
  410256:	mov    eax,ds:0x43cb5c
  41025b:	push   DWORD PTR [esi+eax*1]
  41025e:	call   0x40f63e
  410263:	pop    ecx
  410264:	mov    eax,ds:0x43cb5c
  410269:	mov    DWORD PTR [esi+eax*1],ebx
  41026c:	inc    edi
  41026d:	jmp    0x41020d
  41026f:	mov    DWORD PTR [ebp-0x4],0xfffffffe
  410276:	call   0x410284
  41027b:	mov    eax,DWORD PTR [ebp-0x1c]
  41027e:	call   0x40a8ad
  410283:	ret    
  410284:	push   0x1
  410286:	call   0x40f531
  41028b:	pop    ecx
  41028c:	ret    
  41028d:	mov    edi,edi
  41028f:	push   ebp
  410290:	mov    ebp,esp
  410292:	push   ebx
  410293:	push   esi
  410294:	mov    esi,DWORD PTR [ebp+0x8]
  410297:	mov    eax,DWORD PTR [esi+0xc]
  41029a:	mov    ecx,eax
  41029c:	and    cl,0x3
  41029f:	xor    ebx,ebx
  4102a1:	cmp    cl,0x2
  4102a4:	jne    0x4102e6
  4102a6:	test   eax,0x108
  4102ab:	je     0x4102e6
  4102ad:	mov    eax,DWORD PTR [esi+0x8]
  4102b0:	push   edi
  4102b1:	mov    edi,DWORD PTR [esi]
  4102b3:	sub    edi,eax
  4102b5:	test   edi,edi
  4102b7:	jle    0x4102e5
  4102b9:	push   edi
  4102ba:	push   eax
  4102bb:	push   esi
  4102bc:	call   0x410484
  4102c1:	pop    ecx
  4102c2:	push   eax
  4102c3:	call   0x4139d4
  4102c8:	add    esp,0xc
  4102cb:	cmp    eax,edi
  4102cd:	jne    0x4102de
  4102cf:	mov    eax,DWORD PTR [esi+0xc]
  4102d2:	test   al,al
  4102d4:	jns    0x4102e5
  4102d6:	and    eax,0xfffffffd
  4102d9:	mov    DWORD PTR [esi+0xc],eax
  4102dc:	jmp    0x4102e5
  4102de:	or     DWORD PTR [esi+0xc],0x20
  4102e2:	or     ebx,0xffffffff
  4102e5:	pop    edi
  4102e6:	mov    eax,DWORD PTR [esi+0x8]
  4102e9:	and    DWORD PTR [esi+0x4],0x0
  4102ed:	mov    DWORD PTR [esi],eax
  4102ef:	pop    esi
  4102f0:	mov    eax,ebx
  4102f2:	pop    ebx
  4102f3:	pop    ebp
  4102f4:	ret    
  4102f5:	mov    edi,edi
  4102f7:	push   ebp
  4102f8:	mov    ebp,esp
  4102fa:	push   esi
  4102fb:	mov    esi,DWORD PTR [ebp+0x8]
  4102fe:	test   esi,esi
  410300:	jne    0x41030b
  410302:	push   esi
  410303:	call   0x41033d
  410308:	pop    ecx
  410309:	jmp    0x41033a
  41030b:	push   esi
  41030c:	call   0x41028d
  410311:	pop    ecx
  410312:	test   eax,eax
  410314:	je     0x41031b
  410316:	or     eax,0xffffffff
  410319:	jmp    0x41033a
  41031b:	test   DWORD PTR [esi+0xc],0x4000
  410322:	je     0x410338
  410324:	push   esi
  410325:	call   0x410484
  41032a:	push   eax
  41032b:	call   0x413ab0
  410330:	pop    ecx
  410331:	neg    eax
  410333:	pop    ecx
  410334:	sbb    eax,eax
  410336:	jmp    0x41033a
  410338:	xor    eax,eax
  41033a:	pop    esi
  41033b:	pop    ebp
  41033c:	ret    
  41033d:	push   0x14
  41033f:	push   0x41f068
  410344:	call   0x40a868
  410349:	xor    edi,edi
  41034b:	mov    DWORD PTR [ebp-0x1c],edi
  41034e:	mov    DWORD PTR [ebp-0x24],edi
  410351:	push   0x1
  410353:	call   0x40f60b
  410358:	pop    ecx
  410359:	mov    DWORD PTR [ebp-0x4],edi
  41035c:	xor    esi,esi
  41035e:	mov    DWORD PTR [ebp-0x20],esi
  410361:	cmp    esi,DWORD PTR ds:0x43db60
  410367:	jge    0x4103f0
  41036d:	mov    eax,ds:0x43cb5c
  410372:	lea    eax,[eax+esi*4]
  410375:	cmp    DWORD PTR [eax],edi
  410377:	je     0x4103d7
  410379:	mov    eax,DWORD PTR [eax]
  41037b:	test   BYTE PTR [eax+0xc],0x83
  41037f:	je     0x4103d7
  410381:	push   eax
  410382:	push   esi
  410383:	call   0x409abc
  410388:	pop    ecx
  410389:	pop    ecx
  41038a:	xor    edx,edx
  41038c:	inc    edx
  41038d:	mov    DWORD PTR [ebp-0x4],edx
  410390:	mov    eax,ds:0x43cb5c
  410395:	mov    eax,DWORD PTR [eax+esi*4]
  410398:	mov    ecx,DWORD PTR [eax+0xc]
  41039b:	test   cl,0x83
  41039e:	je     0x4103cf
  4103a0:	cmp    DWORD PTR [ebp+0x8],edx
  4103a3:	jne    0x4103b6
  4103a5:	push   eax
  4103a6:	call   0x4102f5
  4103ab:	pop    ecx
  4103ac:	cmp    eax,0xffffffff
  4103af:	je     0x4103cf
  4103b1:	inc    DWORD PTR [ebp-0x1c]
  4103b4:	jmp    0x4103cf
  4103b6:	cmp    DWORD PTR [ebp+0x8],edi
  4103b9:	jne    0x4103cf
  4103bb:	test   cl,0x2
  4103be:	je     0x4103cf
  4103c0:	push   eax
  4103c1:	call   0x4102f5
  4103c6:	pop    ecx
  4103c7:	cmp    eax,0xffffffff
  4103ca:	jne    0x4103cf
  4103cc:	or     DWORD PTR [ebp-0x24],eax
  4103cf:	mov    DWORD PTR [ebp-0x4],edi
  4103d2:	call   0x4103df
  4103d7:	inc    esi
  4103d8:	jmp    0x41035e
  4103da:	xor    edi,edi
  4103dc:	mov    esi,DWORD PTR [ebp-0x20]
  4103df:	mov    eax,ds:0x43cb5c
  4103e4:	push   DWORD PTR [eax+esi*4]
  4103e7:	push   esi
  4103e8:	call   0x409b2a
  4103ed:	pop    ecx
  4103ee:	pop    ecx
  4103ef:	ret    
  4103f0:	mov    DWORD PTR [ebp-0x4],0xfffffffe
  4103f7:	call   0x41040e
  4103fc:	cmp    DWORD PTR [ebp+0x8],0x1
  410400:	mov    eax,DWORD PTR [ebp-0x1c]
  410403:	je     0x410408
  410405:	mov    eax,DWORD PTR [ebp-0x24]
  410408:	call   0x40a8ad
  41040d:	ret    
  41040e:	push   0x1
  410410:	call   0x40f531
  410415:	pop    ecx
  410416:	ret    
  410417:	push   0x1
  410419:	call   0x41033d
  41041e:	pop    ecx
  41041f:	ret    
  410420:	mov    edi,edi
  410422:	push   ebp
  410423:	mov    ebp,esp
  410425:	mov    eax,DWORD PTR [ebp+0x8]
  410428:	cmp    eax,0xfffffffe
  41042b:	jne    0x41043c
  41042d:	call   0x4087a4
  410432:	mov    DWORD PTR [eax],0x9
  410438:	xor    eax,eax
  41043a:	pop    ebp
  41043b:	ret    
  41043c:	push   esi
  41043d:	xor    esi,esi
  41043f:	cmp    eax,esi
  410441:	jl     0x41044b
  410443:	cmp    eax,DWORD PTR ds:0x43ca2c
  410449:	jb     0x410467
  41044b:	call   0x4087a4
  410450:	push   esi
  410451:	push   esi
  410452:	push   esi
  410453:	push   esi
  410454:	push   esi
  410455:	mov    DWORD PTR [eax],0x9
  41045b:	call   0x40873c
  410460:	add    esp,0x14
  410463:	xor    eax,eax
  410465:	jmp    0x410481
  410467:	mov    ecx,eax
  410469:	and    eax,0x1f
  41046c:	sar    ecx,0x5
  41046f:	mov    ecx,DWORD PTR [ecx*4+0x43ca40]
  410476:	shl    eax,0x6
  410479:	movsx  eax,BYTE PTR [ecx+eax*1+0x4]
  41047e:	and    eax,0x40
  410481:	pop    esi
  410482:	pop    ebp
  410483:	ret    
  410484:	mov    edi,edi
  410486:	push   ebp
  410487:	mov    ebp,esp
  410489:	mov    eax,DWORD PTR [ebp+0x8]
  41048c:	push   esi
  41048d:	xor    esi,esi
  41048f:	cmp    eax,esi
  410491:	jne    0x4104b0
  410493:	call   0x4087a4
  410498:	push   esi
  410499:	push   esi
  41049a:	push   esi
  41049b:	push   esi
  41049c:	push   esi
  41049d:	mov    DWORD PTR [eax],0x16
  4104a3:	call   0x40873c
  4104a8:	add    esp,0x14
  4104ab:	or     eax,0xffffffff
  4104ae:	jmp    0x4104b3
  4104b0:	mov    eax,DWORD PTR [eax+0x10]
  4104b3:	pop    esi
  4104b4:	pop    ebp
  4104b5:	ret    
  4104b6:	mov    edi,edi
  4104b8:	push   ebp
  4104b9:	mov    ebp,esp
  4104bb:	push   ecx
  4104bc:	push   esi
  4104bd:	mov    esi,DWORD PTR [ebp+0xc]
  4104c0:	push   esi
  4104c1:	call   0x410484
  4104c6:	mov    DWORD PTR [ebp+0xc],eax
  4104c9:	mov    eax,DWORD PTR [esi+0xc]
  4104cc:	pop    ecx
  4104cd:	test   al,0x82
  4104cf:	jne    0x4104e8
  4104d1:	call   0x4087a4
  4104d6:	mov    DWORD PTR [eax],0x9
  4104dc:	or     DWORD PTR [esi+0xc],0x20
  4104e0:	or     eax,0xffffffff
  4104e3:	jmp    0x410617
  4104e8:	test   al,0x40
  4104ea:	je     0x4104f9
  4104ec:	call   0x4087a4
  4104f1:	mov    DWORD PTR [eax],0x22
  4104f7:	jmp    0x4104dc
  4104f9:	push   ebx
  4104fa:	xor    ebx,ebx
  4104fc:	test   al,0x1
  4104fe:	je     0x410516
  410500:	mov    DWORD PTR [esi+0x4],ebx
  410503:	test   al,0x10
  410505:	je     0x410592
  41050b:	mov    ecx,DWORD PTR [esi+0x8]
  41050e:	and    eax,0xfffffffe
  410511:	mov    DWORD PTR [esi],ecx
  410513:	mov    DWORD PTR [esi+0xc],eax
  410516:	mov    eax,DWORD PTR [esi+0xc]
  410519:	and    eax,0xffffffef
  41051c:	or     eax,0x2
  41051f:	mov    DWORD PTR [esi+0xc],eax
  410522:	mov    DWORD PTR [esi+0x4],ebx
  410525:	mov    DWORD PTR [ebp-0x4],ebx
  410528:	test   eax,0x10c
  41052d:	jne    0x41055b
  41052f:	call   0x4099a4
  410534:	add    eax,0x20
  410537:	cmp    esi,eax
  410539:	je     0x410547
  41053b:	call   0x4099a4
  410540:	add    eax,0x40
  410543:	cmp    esi,eax
  410545:	jne    0x410554
  410547:	push   DWORD PTR [ebp+0xc]
  41054a:	call   0x410420
  41054f:	pop    ecx
  410550:	test   eax,eax
  410552:	jne    0x41055b
  410554:	push   esi
  410555:	call   0x413d2f
  41055a:	pop    ecx
  41055b:	test   DWORD PTR [esi+0xc],0x108
  410562:	push   edi
  410563:	je     0x4105e9
  410569:	mov    eax,DWORD PTR [esi+0x8]
  41056c:	mov    edi,DWORD PTR [esi]
  41056e:	lea    ecx,[eax+0x1]
  410571:	mov    DWORD PTR [esi],ecx
  410573:	mov    ecx,DWORD PTR [esi+0x18]
  410576:	sub    edi,eax
  410578:	dec    ecx
  410579:	cmp    edi,ebx
  41057b:	mov    DWORD PTR [esi+0x4],ecx
  41057e:	jle    0x41059d
  410580:	push   edi
  410581:	push   eax
  410582:	push   DWORD PTR [ebp+0xc]
  410585:	call   0x4139d4
  41058a:	add    esp,0xc
  41058d:	mov    DWORD PTR [ebp-0x4],eax
  410590:	jmp    0x4105df
  410592:	or     eax,0x20
  410595:	mov    DWORD PTR [esi+0xc],eax
  410598:	or     eax,0xffffffff
  41059b:	jmp    0x410616
  41059d:	mov    ecx,DWORD PTR [ebp+0xc]
  4105a0:	cmp    ecx,0xffffffff
  4105a3:	je     0x4105c0
  4105a5:	cmp    ecx,0xfffffffe
  4105a8:	je     0x4105c0
  4105aa:	mov    eax,ecx
  4105ac:	and    eax,0x1f
  4105af:	mov    edx,ecx
  4105b1:	sar    edx,0x5
  4105b4:	shl    eax,0x6
  4105b7:	add    eax,DWORD PTR [edx*4+0x43ca40]
  4105be:	jmp    0x4105c5
  4105c0:	mov    eax,0x423eb0
  4105c5:	test   BYTE PTR [eax+0x4],0x20
  4105c9:	je     0x4105df
  4105cb:	push   0x2
  4105cd:	push   ebx
  4105ce:	push   ebx
  4105cf:	push   ecx
  4105d0:	call   0x413c16
  4105d5:	and    eax,edx
  4105d7:	add    esp,0x10
  4105da:	cmp    eax,0xffffffff
  4105dd:	je     0x410604
  4105df:	mov    eax,DWORD PTR [esi+0x8]
  4105e2:	mov    cl,BYTE PTR [ebp+0x8]
  4105e5:	mov    BYTE PTR [eax],cl
  4105e7:	jmp    0x4105ff
  4105e9:	xor    edi,edi
  4105eb:	inc    edi
  4105ec:	push   edi
  4105ed:	lea    eax,[ebp+0x8]
  4105f0:	push   eax
  4105f1:	push   DWORD PTR [ebp+0xc]
  4105f4:	call   0x4139d4
  4105f9:	add    esp,0xc
  4105fc:	mov    DWORD PTR [ebp-0x4],eax
  4105ff:	cmp    DWORD PTR [ebp-0x4],edi
  410602:	je     0x41060d
  410604:	or     DWORD PTR [esi+0xc],0x20
  410608:	or     eax,0xffffffff
  41060b:	jmp    0x410615
  41060d:	mov    eax,DWORD PTR [ebp+0x8]
  410610:	and    eax,0xff
  410615:	pop    edi
  410616:	pop    ebx
  410617:	pop    esi
  410618:	leave  
  410619:	ret    
  41061a:	mov    edi,edi
  41061c:	push   ebp
  41061d:	mov    ebp,esp
  41061f:	sub    esp,0x10
  410622:	push   ebx
  410623:	push   esi
  410624:	mov    esi,DWORD PTR [ebp+0xc]
  410627:	xor    ebx,ebx
  410629:	push   edi
  41062a:	mov    edi,DWORD PTR [ebp+0x10]
  41062d:	cmp    esi,ebx
  41062f:	jne    0x410645
  410631:	cmp    edi,ebx
  410633:	jbe    0x410645
  410635:	mov    eax,DWORD PTR [ebp+0x8]
  410638:	cmp    eax,ebx
  41063a:	je     0x41063e
  41063c:	mov    DWORD PTR [eax],ebx
  41063e:	xor    eax,eax
  410640:	jmp    0x4106c8
  410645:	mov    eax,DWORD PTR [ebp+0x8]
  410648:	cmp    eax,ebx
  41064a:	je     0x41064f
  41064c:	or     DWORD PTR [eax],0xffffffff
  41064f:	cmp    edi,0x7fffffff
  410655:	jbe    0x410672
  410657:	call   0x4087a4
  41065c:	push   0x16
  41065e:	pop    esi
  41065f:	push   ebx
  410660:	push   ebx
  410661:	push   ebx
  410662:	push   ebx
  410663:	push   ebx
  410664:	mov    DWORD PTR [eax],esi
  410666:	call   0x40873c
  41066b:	add    esp,0x14
  41066e:	mov    eax,esi
  410670:	jmp    0x4106c8
  410672:	push   DWORD PTR [ebp+0x18]
  410675:	lea    ecx,[ebp-0x10]
  410678:	call   0x4046f4
  41067d:	mov    eax,DWORD PTR [ebp-0x10]
  410680:	cmp    DWORD PTR [eax+0x14],ebx
  410683:	jne    0x410725
  410689:	mov    ax,WORD PTR [ebp+0x14]
  41068d:	mov    ecx,0xff
  410692:	cmp    ax,cx
  410695:	jbe    0x4106cd
  410697:	cmp    esi,ebx
  410699:	je     0x4106aa
  41069b:	cmp    edi,ebx
  41069d:	jbe    0x4106aa
  41069f:	push   edi
  4106a0:	push   ebx
  4106a1:	push   esi
  4106a2:	call   0x40cc70
  4106a7:	add    esp,0xc
  4106aa:	call   0x4087a4
  4106af:	mov    DWORD PTR [eax],0x2a
  4106b5:	call   0x4087a4
  4106ba:	mov    eax,DWORD PTR [eax]
  4106bc:	cmp    BYTE PTR [ebp-0x4],bl
  4106bf:	je     0x4106c8
  4106c1:	mov    ecx,DWORD PTR [ebp-0x8]
  4106c4:	and    DWORD PTR [ecx+0x70],0xfffffffd
  4106c8:	pop    edi
  4106c9:	pop    esi
  4106ca:	pop    ebx
  4106cb:	leave  
  4106cc:	ret    
  4106cd:	cmp    esi,ebx
  4106cf:	je     0x410703
  4106d1:	cmp    edi,ebx
  4106d3:	ja     0x410701
  4106d5:	call   0x4087a4
  4106da:	push   0x22
  4106dc:	pop    esi
  4106dd:	push   ebx
  4106de:	push   ebx
  4106df:	push   ebx
  4106e0:	push   ebx
  4106e1:	push   ebx
  4106e2:	mov    DWORD PTR [eax],esi
  4106e4:	call   0x40873c
  4106e9:	add    esp,0x14
  4106ec:	cmp    BYTE PTR [ebp-0x4],bl
  4106ef:	je     0x41066e
  4106f5:	mov    eax,DWORD PTR [ebp-0x8]
  4106f8:	and    DWORD PTR [eax+0x70],0xfffffffd
  4106fc:	jmp    0x41066e
  410701:	mov    BYTE PTR [esi],al
  410703:	mov    eax,DWORD PTR [ebp+0x8]
  410706:	cmp    eax,ebx
  410708:	je     0x410710
  41070a:	mov    DWORD PTR [eax],0x1
  410710:	cmp    BYTE PTR [ebp-0x4],bl
  410713:	je     0x41063e
  410719:	mov    eax,DWORD PTR [ebp-0x8]
  41071c:	and    DWORD PTR [eax+0x70],0xfffffffd
  410720:	jmp    0x41063e
  410725:	lea    ecx,[ebp+0xc]
  410728:	push   ecx
  410729:	push   ebx
  41072a:	push   edi
  41072b:	push   esi
  41072c:	push   0x1
  41072e:	lea    ecx,[ebp+0x14]
  410731:	push   ecx
  410732:	push   ebx
  410733:	mov    DWORD PTR [ebp+0xc],ebx
  410736:	push   DWORD PTR [eax+0x4]
  410739:	call   DWORD PTR ds:0x4192dc
  41073f:	cmp    eax,ebx
  410741:	je     0x410757
  410743:	cmp    DWORD PTR [ebp+0xc],ebx
  410746:	jne    0x4106aa
  41074c:	mov    ecx,DWORD PTR [ebp+0x8]
  41074f:	cmp    ecx,ebx
  410751:	je     0x410710
  410753:	mov    DWORD PTR [ecx],eax
  410755:	jmp    0x410710
  410757:	call   DWORD PTR ds:0x41927c
  41075d:	cmp    eax,0x7a
  410760:	jne    0x4106aa
  410766:	cmp    esi,ebx
  410768:	je     0x4106d5
  41076e:	cmp    edi,ebx
  410770:	jbe    0x4106d5
  410776:	push   edi
  410777:	push   ebx
  410778:	push   esi
  410779:	call   0x40cc70
  41077e:	add    esp,0xc
  410781:	jmp    0x4106d5
  410786:	mov    edi,edi
  410788:	push   ebp
  410789:	mov    ebp,esp
  41078b:	push   0x0
  41078d:	push   DWORD PTR [ebp+0x14]
  410790:	push   DWORD PTR [ebp+0x10]
  410793:	push   DWORD PTR [ebp+0xc]
  410796:	push   DWORD PTR [ebp+0x8]
  410799:	call   0x41061a
  41079e:	add    esp,0x14
  4107a1:	pop    ebp
  4107a2:	ret    
  4107a3:	mov    edi,edi
  4107a5:	push   ebp
  4107a6:	mov    ebp,esp
  4107a8:	sub    esp,0x10
  4107ab:	push   DWORD PTR [ebp+0xc]
  4107ae:	lea    ecx,[ebp-0x10]
  4107b1:	call   0x4046f4
  4107b6:	movzx  eax,BYTE PTR [ebp+0x8]
  4107ba:	mov    ecx,DWORD PTR [ebp-0x10]
  4107bd:	mov    ecx,DWORD PTR [ecx+0xc8]
  4107c3:	movzx  eax,WORD PTR [ecx+eax*2]
  4107c7:	and    eax,0x8000
  4107cc:	cmp    BYTE PTR [ebp-0x4],0x0
  4107d0:	je     0x4107d9
  4107d2:	mov    ecx,DWORD PTR [ebp-0x8]
  4107d5:	and    DWORD PTR [ecx+0x70],0xfffffffd
  4107d9:	leave  
  4107da:	ret    
  4107db:	mov    edi,edi
  4107dd:	push   ebp
  4107de:	mov    ebp,esp
  4107e0:	push   0x0
  4107e2:	push   DWORD PTR [ebp+0x8]
  4107e5:	call   0x4107a3
  4107ea:	pop    ecx
  4107eb:	pop    ecx
  4107ec:	pop    ebp
  4107ed:	ret    
  4107ee:	int3   
  4107ef:	int3   
  4107f0:	push   esi
  4107f1:	mov    eax,DWORD PTR [esp+0x14]
  4107f5:	or     eax,eax
  4107f7:	jne    0x410821
  4107f9:	mov    ecx,DWORD PTR [esp+0x10]
  4107fd:	mov    eax,DWORD PTR [esp+0xc]
  410801:	xor    edx,edx
  410803:	div    ecx
  410805:	mov    ebx,eax
  410807:	mov    eax,DWORD PTR [esp+0x8]
  41080b:	div    ecx
  41080d:	mov    esi,eax
  41080f:	mov    eax,ebx
  410811:	mul    DWORD PTR [esp+0x10]
  410815:	mov    ecx,eax
  410817:	mov    eax,esi
  410819:	mul    DWORD PTR [esp+0x10]
  41081d:	add    edx,ecx
  41081f:	jmp    0x410868
  410821:	mov    ecx,eax
  410823:	mov    ebx,DWORD PTR [esp+0x10]
  410827:	mov    edx,DWORD PTR [esp+0xc]
  41082b:	mov    eax,DWORD PTR [esp+0x8]
  41082f:	shr    ecx,1
  410831:	rcr    ebx,1
  410833:	shr    edx,1
  410835:	rcr    eax,1
  410837:	or     ecx,ecx
  410839:	jne    0x41082f
  41083b:	div    ebx
  41083d:	mov    esi,eax
  41083f:	mul    DWORD PTR [esp+0x14]
  410843:	mov    ecx,eax
  410845:	mov    eax,DWORD PTR [esp+0x10]
  410849:	mul    esi
  41084b:	add    edx,ecx
  41084d:	jb     0x41085d
  41084f:	cmp    edx,DWORD PTR [esp+0xc]
  410853:	ja     0x41085d
  410855:	jb     0x410866
  410857:	cmp    eax,DWORD PTR [esp+0x8]
  41085b:	jbe    0x410866
  41085d:	dec    esi
  41085e:	sub    eax,DWORD PTR [esp+0x10]
  410862:	sbb    edx,DWORD PTR [esp+0x14]
  410866:	xor    ebx,ebx
  410868:	sub    eax,DWORD PTR [esp+0x8]
  41086c:	sbb    edx,DWORD PTR [esp+0xc]
  410870:	neg    edx
  410872:	neg    eax
  410874:	sbb    edx,0x0
  410877:	mov    ecx,edx
  410879:	mov    edx,ebx
  41087b:	mov    ebx,ecx
  41087d:	mov    ecx,eax
  41087f:	mov    eax,esi
  410881:	pop    esi
  410882:	ret    0x10
  410885:	int3   
  410886:	int3   
  410887:	int3   
  410888:	push   ebx
  410889:	push   esi
  41088a:	push   edi
  41088b:	mov    edx,DWORD PTR [esp+0x10]
  41088f:	mov    eax,DWORD PTR [esp+0x14]
  410893:	mov    ecx,DWORD PTR [esp+0x18]
  410897:	push   ebp
  410898:	push   edx
  410899:	push   eax
  41089a:	push   ecx
  41089b:	push   ecx
  41089c:	push   0x410918
  4108a1:	push   DWORD PTR fs:0x0
  4108a8:	mov    eax,ds:0x423d68
  4108ad:	xor    eax,esp
  4108af:	mov    DWORD PTR [esp+0x8],eax
  4108b3:	mov    DWORD PTR fs:0x0,esp
  4108ba:	mov    eax,DWORD PTR [esp+0x30]
  4108be:	mov    ebx,DWORD PTR [eax+0x8]
  4108c1:	mov    ecx,DWORD PTR [esp+0x2c]
  4108c5:	xor    ebx,DWORD PTR [ecx]
  4108c7:	mov    esi,DWORD PTR [eax+0xc]
  4108ca:	cmp    esi,0xfffffffe
  4108cd:	je     0x41090a
  4108cf:	mov    edx,DWORD PTR [esp+0x34]
  4108d3:	cmp    edx,0xfffffffe
  4108d6:	je     0x4108dc
  4108d8:	cmp    esi,edx
  4108da:	jbe    0x41090a
  4108dc:	lea    esi,[esi+esi*2]
  4108df:	lea    ebx,[ebx+esi*4+0x10]
  4108e3:	mov    ecx,DWORD PTR [ebx]
  4108e5:	mov    DWORD PTR [eax+0xc],ecx
  4108e8:	cmp    DWORD PTR [ebx+0x4],0x0
  4108ec:	jne    0x4108ba
  4108ee:	push   0x101
  4108f3:	mov    eax,DWORD PTR [ebx+0x8]
  4108f6:	call   0x413e8d
  4108fb:	mov    ecx,0x1
  410900:	mov    eax,DWORD PTR [ebx+0x8]
  410903:	call   0x413eac
  410908:	jmp    0x4108ba
  41090a:	pop    DWORD PTR fs:0x0
  410911:	add    esp,0x18
  410914:	pop    edi
  410915:	pop    esi
  410916:	pop    ebx
  410917:	ret    
  410918:	mov    ecx,DWORD PTR [esp+0x4]
  41091c:	test   DWORD PTR [ecx+0x4],0x6
  410923:	mov    eax,0x1
  410928:	je     0x41095d
  41092a:	mov    eax,DWORD PTR [esp+0x8]
  41092e:	mov    ecx,DWORD PTR [eax+0x8]
  410931:	xor    ecx,eax
  410933:	call   0x40efb3
  410938:	push   ebp
  410939:	mov    ebp,DWORD PTR [eax+0x18]
  41093c:	push   DWORD PTR [eax+0xc]
  41093f:	push   DWORD PTR [eax+0x10]
  410942:	push   DWORD PTR [eax+0x14]
  410945:	call   0x410888
  41094a:	add    esp,0xc
  41094d:	pop    ebp
  41094e:	mov    eax,DWORD PTR [esp+0x8]
  410952:	mov    edx,DWORD PTR [esp+0x10]
  410956:	mov    DWORD PTR [edx],eax
  410958:	mov    eax,0x3
  41095d:	ret    
  41095e:	push   ebp
  41095f:	mov    ecx,DWORD PTR [esp+0x8]
  410963:	mov    ebp,DWORD PTR [ecx]
  410965:	push   DWORD PTR [ecx+0x1c]
  410968:	push   DWORD PTR [ecx+0x18]
  41096b:	push   DWORD PTR [ecx+0x28]
  41096e:	call   0x410888
  410973:	add    esp,0xc
  410976:	pop    ebp
  410977:	ret    0x4
  41097a:	push   ebp
  41097b:	push   esi
  41097c:	push   edi
  41097d:	push   ebx
  41097e:	mov    ebp,edx
  410980:	xor    eax,eax
  410982:	xor    ebx,ebx
  410984:	xor    edx,edx
  410986:	xor    esi,esi
  410988:	xor    edi,edi
  41098a:	call   ecx
  41098c:	pop    ebx
  41098d:	pop    edi
  41098e:	pop    esi
  41098f:	pop    ebp
  410990:	ret    
  410991:	mov    ebp,edx
  410993:	mov    esi,ecx
  410995:	mov    eax,ecx
  410997:	push   0x1
  410999:	call   0x413e8d
  41099e:	xor    eax,eax
  4109a0:	xor    ebx,ebx
  4109a2:	xor    ecx,ecx
  4109a4:	xor    edx,edx
  4109a6:	xor    edi,edi
  4109a8:	jmp    esi
  4109aa:	push   ebp
  4109ab:	mov    ebp,esp
  4109ad:	push   ebx
  4109ae:	push   esi
  4109af:	push   edi
  4109b0:	push   0x0
  4109b2:	push   0x0
  4109b4:	push   0x4109bf
  4109b9:	push   ecx
  4109ba:	call   0x4170de
  4109bf:	pop    edi
  4109c0:	pop    esi
  4109c1:	pop    ebx
  4109c2:	pop    ebp
  4109c3:	ret    
  4109c4:	push   ebp
  4109c5:	mov    ebp,DWORD PTR [esp+0x8]
  4109c9:	push   edx
  4109ca:	push   ecx
  4109cb:	push   DWORD PTR [esp+0x14]
  4109cf:	call   0x410888
  4109d4:	add    esp,0xc
  4109d7:	pop    ebp
  4109d8:	ret    0x8
  4109db:	int3   
  4109dc:	int3   
  4109dd:	int3   
  4109de:	int3   
  4109df:	int3   
  4109e0:	mov    edi,edi
  4109e2:	push   ebp
  4109e3:	mov    ebp,esp
  4109e5:	mov    ecx,DWORD PTR [ebp+0x8]
  4109e8:	mov    eax,0x5a4d
  4109ed:	cmp    WORD PTR [ecx],ax
  4109f0:	je     0x4109f6
  4109f2:	xor    eax,eax
  4109f4:	pop    ebp
  4109f5:	ret    
  4109f6:	mov    eax,DWORD PTR [ecx+0x3c]
  4109f9:	add    eax,ecx
  4109fb:	cmp    DWORD PTR [eax],0x4550
  410a01:	jne    0x4109f2
  410a03:	xor    edx,edx
  410a05:	mov    ecx,0x10b
  410a0a:	cmp    WORD PTR [eax+0x18],cx
  410a0e:	sete   dl
  410a11:	mov    eax,edx
  410a13:	pop    ebp
  410a14:	ret    
  410a15:	int3   
  410a16:	int3   
  410a17:	int3   
  410a18:	int3   
  410a19:	int3   
  410a1a:	int3   
  410a1b:	int3   
  410a1c:	int3   
  410a1d:	int3   
  410a1e:	int3   
  410a1f:	int3   
  410a20:	mov    edi,edi
  410a22:	push   ebp
  410a23:	mov    ebp,esp
  410a25:	mov    eax,DWORD PTR [ebp+0x8]
  410a28:	mov    ecx,DWORD PTR [eax+0x3c]
  410a2b:	add    ecx,eax
  410a2d:	movzx  eax,WORD PTR [ecx+0x14]
  410a31:	push   ebx
  410a32:	push   esi
  410a33:	movzx  esi,WORD PTR [ecx+0x6]
  410a37:	xor    edx,edx
  410a39:	push   edi
  410a3a:	lea    eax,[eax+ecx*1+0x18]
  410a3e:	test   esi,esi
  410a40:	jbe    0x410a5d
  410a42:	mov    edi,DWORD PTR [ebp+0xc]
  410a45:	mov    ecx,DWORD PTR [eax+0xc]
  410a48:	cmp    edi,ecx
  410a4a:	jb     0x410a55
  410a4c:	mov    ebx,DWORD PTR [eax+0x8]
  410a4f:	add    ebx,ecx
  410a51:	cmp    edi,ebx
  410a53:	jb     0x410a5f
  410a55:	inc    edx
  410a56:	add    eax,0x28
  410a59:	cmp    edx,esi
  410a5b:	jb     0x410a45
  410a5d:	xor    eax,eax
  410a5f:	pop    edi
  410a60:	pop    esi
  410a61:	pop    ebx
  410a62:	pop    ebp
  410a63:	ret    
  410a64:	int3   
  410a65:	int3   
  410a66:	int3   
  410a67:	int3   
  410a68:	int3   
  410a69:	int3   
  410a6a:	int3   
  410a6b:	int3   
  410a6c:	int3   
  410a6d:	int3   
  410a6e:	int3   
  410a6f:	int3   
  410a70:	mov    edi,edi
  410a72:	push   ebp
  410a73:	mov    ebp,esp
  410a75:	push   0xfffffffe
  410a77:	push   0x41f090
  410a7c:	push   0x40a8d0
  410a81:	mov    eax,fs:0x0
  410a87:	push   eax
  410a88:	sub    esp,0x8
  410a8b:	push   ebx
  410a8c:	push   esi
  410a8d:	push   edi
  410a8e:	mov    eax,ds:0x423d68
  410a93:	xor    DWORD PTR [ebp-0x8],eax
  410a96:	xor    eax,ebp
  410a98:	push   eax
  410a99:	lea    eax,[ebp-0x10]
  410a9c:	mov    fs:0x0,eax
  410aa2:	mov    DWORD PTR [ebp-0x18],esp
  410aa5:	mov    DWORD PTR [ebp-0x4],0x0
  410aac:	push   0x400000
  410ab1:	call   0x4109e0
  410ab6:	add    esp,0x4
  410ab9:	test   eax,eax
  410abb:	je     0x410b12
  410abd:	mov    eax,DWORD PTR [ebp+0x8]
  410ac0:	sub    eax,0x400000
  410ac5:	push   eax
  410ac6:	push   0x400000
  410acb:	call   0x410a20
  410ad0:	add    esp,0x8
  410ad3:	test   eax,eax
  410ad5:	je     0x410b12
  410ad7:	mov    eax,DWORD PTR [eax+0x24]
  410ada:	shr    eax,0x1f
  410add:	not    eax
  410adf:	and    eax,0x1
  410ae2:	mov    DWORD PTR [ebp-0x4],0xfffffffe
  410ae9:	mov    ecx,DWORD PTR [ebp-0x10]
  410aec:	mov    DWORD PTR fs:0x0,ecx
  410af3:	pop    ecx
  410af4:	pop    edi
  410af5:	pop    esi
  410af6:	pop    ebx
  410af7:	mov    esp,ebp
  410af9:	pop    ebp
  410afa:	ret    
  410afb:	mov    eax,DWORD PTR [ebp-0x14]
  410afe:	mov    ecx,DWORD PTR [eax]
  410b00:	mov    eax,DWORD PTR [ecx]
  410b02:	xor    edx,edx
  410b04:	cmp    eax,0xc0000005
  410b09:	sete   dl
  410b0c:	mov    eax,edx
  410b0e:	ret    
  410b0f:	mov    esp,DWORD PTR [ebp-0x18]
  410b12:	mov    DWORD PTR [ebp-0x4],0xfffffffe
  410b19:	xor    eax,eax
  410b1b:	mov    ecx,DWORD PTR [ebp-0x10]
  410b1e:	mov    DWORD PTR fs:0x0,ecx
  410b25:	pop    ecx
  410b26:	pop    edi
  410b27:	pop    esi
  410b28:	pop    ebx
  410b29:	mov    esp,ebp
  410b2b:	pop    ebp
  410b2c:	ret    
  410b2d:	xor    eax,eax
  410b2f:	ret    
  410b30:	mov    edi,edi
  410b32:	push   ebp
  410b33:	mov    ebp,esp
  410b35:	mov    eax,DWORD PTR [ebp+0x8]
  410b38:	mov    cl,BYTE PTR [ebp+0x10]
  410b3b:	push   ebx
  410b3c:	push   esi
  410b3d:	push   edi
  410b3e:	xor    edi,edi
  410b40:	mov    DWORD PTR [eax+0x4],edi
  410b43:	mov    eax,DWORD PTR [ebp+0x8]
  410b46:	xor    ebx,ebx
  410b48:	mov    DWORD PTR [eax+0x8],edi
  410b4b:	mov    eax,DWORD PTR [ebp+0x8]
  410b4e:	inc    ebx
  410b4f:	mov    DWORD PTR [eax+0xc],edi
  410b52:	test   cl,0x10
  410b55:	je     0x410b64
  410b57:	mov    eax,DWORD PTR [ebp+0x8]
  410b5a:	or     DWORD PTR [eax+0x4],ebx
  410b5d:	mov    DWORD PTR [ebp+0x10],0xc000008f
  410b64:	test   cl,0x2
  410b67:	je     0x410b77
  410b69:	mov    eax,DWORD PTR [ebp+0x8]
  410b6c:	or     DWORD PTR [eax+0x4],0x2
  410b70:	mov    DWORD PTR [ebp+0x10],0xc0000093
  410b77:	test   bl,cl
  410b79:	je     0x410b89
  410b7b:	mov    eax,DWORD PTR [ebp+0x8]
  410b7e:	or     DWORD PTR [eax+0x4],0x4
  410b82:	mov    DWORD PTR [ebp+0x10],0xc0000091
  410b89:	test   cl,0x4
  410b8c:	je     0x410b9c
  410b8e:	mov    eax,DWORD PTR [ebp+0x8]
  410b91:	or     DWORD PTR [eax+0x4],0x8
  410b95:	mov    DWORD PTR [ebp+0x10],0xc000008e
  410b9c:	test   cl,0x8
  410b9f:	je     0x410baf
  410ba1:	mov    eax,DWORD PTR [ebp+0x8]
  410ba4:	or     DWORD PTR [eax+0x4],0x10
  410ba8:	mov    DWORD PTR [ebp+0x10],0xc0000090
  410baf:	mov    esi,DWORD PTR [ebp+0xc]
  410bb2:	mov    ecx,DWORD PTR [esi]
  410bb4:	mov    eax,DWORD PTR [ebp+0x8]
  410bb7:	shl    ecx,0x4
  410bba:	not    ecx
  410bbc:	xor    ecx,DWORD PTR [eax+0x8]
  410bbf:	and    ecx,0x10
  410bc2:	xor    DWORD PTR [eax+0x8],ecx
  410bc5:	mov    ecx,DWORD PTR [esi]
  410bc7:	mov    eax,DWORD PTR [ebp+0x8]
  410bca:	add    ecx,ecx
  410bcc:	not    ecx
  410bce:	xor    ecx,DWORD PTR [eax+0x8]
  410bd1:	and    ecx,0x8
  410bd4:	xor    DWORD PTR [eax+0x8],ecx
  410bd7:	mov    ecx,DWORD PTR [esi]
  410bd9:	mov    eax,DWORD PTR [ebp+0x8]
  410bdc:	shr    ecx,1
  410bde:	not    ecx
  410be0:	xor    ecx,DWORD PTR [eax+0x8]
  410be3:	and    ecx,0x4
  410be6:	xor    DWORD PTR [eax+0x8],ecx
  410be9:	mov    ecx,DWORD PTR [esi]
  410beb:	mov    eax,DWORD PTR [ebp+0x8]
  410bee:	shr    ecx,0x3
  410bf1:	not    ecx
  410bf3:	xor    ecx,DWORD PTR [eax+0x8]
  410bf6:	and    ecx,0x2
  410bf9:	xor    DWORD PTR [eax+0x8],ecx
  410bfc:	mov    ecx,DWORD PTR [esi]
  410bfe:	mov    eax,DWORD PTR [ebp+0x8]
  410c01:	shr    ecx,0x5
  410c04:	not    ecx
  410c06:	xor    ecx,DWORD PTR [eax+0x8]
  410c09:	and    ecx,ebx
  410c0b:	xor    DWORD PTR [eax+0x8],ecx
  410c0e:	call   0x40aac8
  410c13:	test   bl,al
  410c15:	je     0x410c1e
  410c17:	mov    ecx,DWORD PTR [ebp+0x8]
  410c1a:	or     DWORD PTR [ecx+0xc],0x10
  410c1e:	test   al,0x4
  410c20:	je     0x410c29
  410c22:	mov    ecx,DWORD PTR [ebp+0x8]
  410c25:	or     DWORD PTR [ecx+0xc],0x8
  410c29:	test   al,0x8
  410c2b:	je     0x410c34
  410c2d:	mov    ecx,DWORD PTR [ebp+0x8]
  410c30:	or     DWORD PTR [ecx+0xc],0x4
  410c34:	test   al,0x10
  410c36:	je     0x410c3f
  410c38:	mov    ecx,DWORD PTR [ebp+0x8]
  410c3b:	or     DWORD PTR [ecx+0xc],0x2
  410c3f:	test   al,0x20
  410c41:	je     0x410c49
  410c43:	mov    eax,DWORD PTR [ebp+0x8]
  410c46:	or     DWORD PTR [eax+0xc],ebx
  410c49:	mov    eax,DWORD PTR [esi]
  410c4b:	mov    ecx,0xc00
  410c50:	and    eax,ecx
  410c52:	je     0x410c89
  410c54:	cmp    eax,0x400
  410c59:	je     0x410c7d
  410c5b:	cmp    eax,0x800
  410c60:	je     0x410c6e
  410c62:	cmp    eax,ecx
  410c64:	jne    0x410c8f
  410c66:	mov    eax,DWORD PTR [ebp+0x8]
  410c69:	or     DWORD PTR [eax],0x3
  410c6c:	jmp    0x410c8f
  410c6e:	mov    eax,DWORD PTR [ebp+0x8]
  410c71:	mov    ecx,DWORD PTR [eax]
  410c73:	and    ecx,0xfffffffe
  410c76:	or     ecx,0x2
  410c79:	mov    DWORD PTR [eax],ecx
  410c7b:	jmp    0x410c8f
  410c7d:	mov    eax,DWORD PTR [ebp+0x8]
  410c80:	mov    ecx,DWORD PTR [eax]
  410c82:	and    ecx,0xfffffffd
  410c85:	or     ecx,ebx
  410c87:	jmp    0x410c79
  410c89:	mov    eax,DWORD PTR [ebp+0x8]
  410c8c:	and    DWORD PTR [eax],0xfffffffc
  410c8f:	mov    eax,DWORD PTR [esi]
  410c91:	mov    ecx,0x300
  410c96:	and    eax,ecx
  410c98:	je     0x410cba
  410c9a:	cmp    eax,0x200
  410c9f:	je     0x410cad
  410ca1:	cmp    eax,ecx
  410ca3:	jne    0x410cc7
  410ca5:	mov    eax,DWORD PTR [ebp+0x8]
  410ca8:	and    DWORD PTR [eax],0xffffffe3
  410cab:	jmp    0x410cc7
  410cad:	mov    eax,DWORD PTR [ebp+0x8]
  410cb0:	mov    ecx,DWORD PTR [eax]
  410cb2:	and    ecx,0xffffffe7
  410cb5:	or     ecx,0x4
  410cb8:	jmp    0x410cc5
  410cba:	mov    eax,DWORD PTR [ebp+0x8]
  410cbd:	mov    ecx,DWORD PTR [eax]
  410cbf:	and    ecx,0xffffffeb
  410cc2:	or     ecx,0x8
  410cc5:	mov    DWORD PTR [eax],ecx
  410cc7:	mov    eax,DWORD PTR [ebp+0x8]
  410cca:	mov    ecx,DWORD PTR [ebp+0x14]
  410ccd:	shl    ecx,0x5
  410cd0:	xor    ecx,DWORD PTR [eax]
  410cd2:	and    ecx,0x1ffe0
  410cd8:	xor    DWORD PTR [eax],ecx
  410cda:	mov    eax,DWORD PTR [ebp+0x8]
  410cdd:	or     DWORD PTR [eax+0x20],ebx
  410ce0:	cmp    DWORD PTR [ebp+0x20],edi
  410ce3:	mov    eax,DWORD PTR [ebp+0x8]
  410ce6:	mov    edi,DWORD PTR [ebp+0x1c]
  410ce9:	je     0x410d11
  410ceb:	and    DWORD PTR [eax+0x20],0xffffffe1
  410cef:	mov    eax,DWORD PTR [ebp+0x18]
  410cf2:	fld    DWORD PTR [eax]
  410cf4:	mov    eax,DWORD PTR [ebp+0x8]
  410cf7:	fstp   DWORD PTR [eax+0x10]
  410cfa:	mov    eax,DWORD PTR [ebp+0x8]
  410cfd:	or     DWORD PTR [eax+0x60],ebx
  410d00:	mov    eax,DWORD PTR [ebp+0x8]
  410d03:	and    DWORD PTR [eax+0x60],0xffffffe1
  410d07:	fld    DWORD PTR [edi]
  410d09:	mov    eax,DWORD PTR [ebp+0x8]
  410d0c:	fstp   DWORD PTR [eax+0x50]
  410d0f:	jmp    0x410d45
  410d11:	mov    ecx,DWORD PTR [eax+0x20]
  410d14:	and    ecx,0xffffffe3
  410d17:	or     ecx,0x2
  410d1a:	mov    DWORD PTR [eax+0x20],ecx
  410d1d:	mov    eax,DWORD PTR [ebp+0x18]
  410d20:	fld    QWORD PTR [eax]
  410d22:	mov    eax,DWORD PTR [ebp+0x8]
  410d25:	fstp   QWORD PTR [eax+0x10]
  410d28:	mov    eax,DWORD PTR [ebp+0x8]
  410d2b:	or     DWORD PTR [eax+0x60],ebx
  410d2e:	mov    eax,DWORD PTR [ebp+0x8]
  410d31:	mov    ecx,DWORD PTR [eax+0x60]
  410d34:	and    ecx,0xffffffe3
  410d37:	or     ecx,0x2
  410d3a:	mov    DWORD PTR [eax+0x60],ecx
  410d3d:	fld    QWORD PTR [edi]
  410d3f:	mov    eax,DWORD PTR [ebp+0x8]
  410d42:	fstp   QWORD PTR [eax+0x50]
  410d45:	call   0x40aad8
  410d4a:	lea    eax,[ebp+0x8]
  410d4d:	push   eax
  410d4e:	push   ebx
  410d4f:	push   0x0
  410d51:	push   DWORD PTR [ebp+0x10]
  410d54:	call   DWORD PTR ds:0x4192c0
  410d5a:	mov    ecx,DWORD PTR [ebp+0x8]
  410d5d:	test   BYTE PTR [ecx+0x8],0x10
  410d61:	je     0x410d66
  410d63:	and    DWORD PTR [esi],0xfffffffe
  410d66:	test   BYTE PTR [ecx+0x8],0x8
  410d6a:	je     0x410d6f
  410d6c:	and    DWORD PTR [esi],0xfffffffb
  410d6f:	test   BYTE PTR [ecx+0x8],0x4
  410d73:	je     0x410d78
  410d75:	and    DWORD PTR [esi],0xfffffff7
  410d78:	test   BYTE PTR [ecx+0x8],0x2
  410d7c:	je     0x410d81
  410d7e:	and    DWORD PTR [esi],0xffffffef
  410d81:	test   BYTE PTR [ecx+0x8],bl
  410d84:	je     0x410d89
  410d86:	and    DWORD PTR [esi],0xffffffdf
  410d89:	mov    eax,DWORD PTR [ecx]
  410d8b:	and    eax,0x3
  410d8e:	xor    ebx,ebx
  410d90:	sub    eax,ebx
  410d92:	mov    edx,0xfffff3ff
  410d97:	je     0x410dc8
  410d99:	dec    eax
  410d9a:	je     0x410dba
  410d9c:	dec    eax
  410d9d:	je     0x410daa
  410d9f:	dec    eax
  410da0:	jne    0x410dca
  410da2:	or     DWORD PTR [esi],0xc00
  410da8:	jmp    0x410dca
  410daa:	mov    eax,DWORD PTR [esi]
  410dac:	and    eax,0xfffffbff
  410db1:	or     eax,0x800
  410db6:	mov    DWORD PTR [esi],eax
  410db8:	jmp    0x410dca
  410dba:	mov    eax,DWORD PTR [esi]
  410dbc:	and    eax,0xfffff7ff
  410dc1:	or     eax,0x400
  410dc6:	jmp    0x410db6
  410dc8:	and    DWORD PTR [esi],edx
  410dca:	mov    eax,DWORD PTR [ecx]
  410dcc:	shr    eax,0x2
  410dcf:	and    eax,0x7
  410dd2:	sub    eax,ebx
  410dd4:	je     0x410deb
  410dd6:	dec    eax
  410dd7:	je     0x410de0
  410dd9:	dec    eax
  410dda:	jne    0x410df6
  410ddc:	and    DWORD PTR [esi],edx
  410dde:	jmp    0x410df6
  410de0:	mov    eax,DWORD PTR [esi]
  410de2:	and    eax,edx
  410de4:	or     eax,0x200
  410de9:	jmp    0x410df4
  410deb:	mov    eax,DWORD PTR [esi]
  410ded:	and    eax,edx
  410def:	or     eax,0x300
  410df4:	mov    DWORD PTR [esi],eax
  410df6:	cmp    DWORD PTR [ebp+0x20],ebx
  410df9:	je     0x410e02
  410dfb:	fld    DWORD PTR [ecx+0x50]
  410dfe:	fstp   DWORD PTR [edi]
  410e00:	jmp    0x410e07
  410e02:	fld    QWORD PTR [ecx+0x50]
  410e05:	fstp   QWORD PTR [edi]
  410e07:	pop    edi
  410e08:	pop    esi
  410e09:	pop    ebx
  410e0a:	pop    ebp
  410e0b:	ret    
  410e0c:	mov    edi,edi
  410e0e:	push   ebp
  410e0f:	mov    ebp,esp
  410e11:	push   0x0
  410e13:	push   DWORD PTR [ebp+0x1c]
  410e16:	push   DWORD PTR [ebp+0x18]
  410e19:	push   DWORD PTR [ebp+0x14]
  410e1c:	push   DWORD PTR [ebp+0x10]
  410e1f:	push   DWORD PTR [ebp+0xc]
  410e22:	push   DWORD PTR [ebp+0x8]
  410e25:	call   0x410b30
  410e2a:	add    esp,0x1c
  410e2d:	pop    ebp
  410e2e:	ret    
  410e2f:	mov    edi,edi
  410e31:	push   ebp
  410e32:	mov    ebp,esp
  410e34:	sub    esp,0x14
  410e37:	mov    eax,DWORD PTR [ebp+0x8]
  410e3a:	push   ebx
  410e3b:	push   esi
  410e3c:	xor    ebx,ebx
  410e3e:	mov    esi,eax
  410e40:	and    esi,0x1f
  410e43:	inc    ebx
  410e44:	mov    DWORD PTR [ebp-0x4],esi
  410e47:	test   al,0x8
  410e49:	je     0x410e5f
  410e4b:	test   BYTE PTR [ebp+0x10],bl
  410e4e:	je     0x410e5f
  410e50:	push   ebx
  410e51:	call   0x40ab12
  410e56:	pop    ecx
  410e57:	and    esi,0xfffffff7
  410e5a:	jmp    0x410fef
  410e5f:	test   al,0x4
  410e61:	je     0x410e79
  410e63:	test   BYTE PTR [ebp+0x10],0x4
  410e67:	je     0x410e79
  410e69:	push   0x4
  410e6b:	call   0x40ab12
  410e70:	pop    ecx
  410e71:	and    esi,0xfffffffb
  410e74:	jmp    0x410fef
  410e79:	test   bl,al
  410e7b:	je     0x410f1b
  410e81:	test   BYTE PTR [ebp+0x10],0x8
  410e85:	je     0x410f1b
  410e8b:	push   0x8
  410e8d:	call   0x40ab12
  410e92:	mov    eax,DWORD PTR [ebp+0x10]
  410e95:	pop    ecx
  410e96:	mov    ecx,0xc00
  410e9b:	and    eax,ecx
  410e9d:	je     0x410ef3
  410e9f:	cmp    eax,0x400
  410ea4:	je     0x410edd
  410ea6:	cmp    eax,0x800
  410eab:	je     0x410ec7
  410ead:	cmp    eax,ecx
  410eaf:	jne    0x410f13
  410eb1:	fldz   
  410eb3:	mov    ecx,DWORD PTR [ebp+0xc]
  410eb6:	fcomp  QWORD PTR [ecx]
  410eb8:	fnstsw ax
  410eba:	fld    QWORD PTR ds:0x424070
  410ec0:	test   ah,0x5
  410ec3:	jnp    0x410f11
  410ec5:	jmp    0x410f0f
  410ec7:	fldz   
  410ec9:	mov    ecx,DWORD PTR [ebp+0xc]
  410ecc:	fcomp  QWORD PTR [ecx]
  410ece:	fnstsw ax
  410ed0:	test   ah,0x5
  410ed3:	jnp    0x410f01
  410ed5:	fld    QWORD PTR ds:0x424070
  410edb:	jmp    0x410f0f
  410edd:	fldz   
  410edf:	mov    ecx,DWORD PTR [ebp+0xc]
  410ee2:	fcomp  QWORD PTR [ecx]
  410ee4:	fnstsw ax
  410ee6:	test   ah,0x5
  410ee9:	jp     0x410f09
  410eeb:	fld    QWORD PTR ds:0x424070
  410ef1:	jmp    0x410f11
  410ef3:	fldz   
  410ef5:	mov    ecx,DWORD PTR [ebp+0xc]
  410ef8:	fcomp  QWORD PTR [ecx]
  410efa:	fnstsw ax
  410efc:	test   ah,0x5
  410eff:	jp     0x410f09
  410f01:	fld    QWORD PTR ds:0x424060
  410f07:	jmp    0x410f11
  410f09:	fld    QWORD PTR ds:0x424060
  410f0f:	fchs   
  410f11:	fstp   QWORD PTR [ecx]
  410f13:	and    esi,0xfffffffe
  410f16:	jmp    0x410fef
  410f1b:	test   al,0x2
  410f1d:	je     0x410fef
  410f23:	test   BYTE PTR [ebp+0x10],0x10
  410f27:	je     0x410fef
  410f2d:	xor    esi,esi
  410f2f:	test   al,0x10
  410f31:	je     0x410f35
  410f33:	mov    esi,ebx
  410f35:	fldz   
  410f37:	push   edi
  410f38:	mov    edi,DWORD PTR [ebp+0xc]
  410f3b:	fcomp  QWORD PTR [edi]
  410f3d:	fnstsw ax
  410f3f:	test   ah,0x44
  410f42:	jnp    0x410fd9
  410f48:	fld    QWORD PTR [edi]
  410f4a:	lea    eax,[ebp-0x8]
  410f4d:	push   eax
  410f4e:	push   ecx
  410f4f:	push   ecx
  410f50:	fstp   QWORD PTR [esp]
  410f53:	call   0x40edfe
  410f58:	mov    ecx,DWORD PTR [ebp-0x8]
  410f5b:	fstp   QWORD PTR [ebp-0x14]
  410f5e:	add    ecx,0xfffffa00
  410f64:	add    esp,0xc
  410f67:	cmp    ecx,0xfffffbce
  410f6d:	jge    0x410f7c
  410f6f:	fld    QWORD PTR [ebp-0x14]
  410f72:	mov    esi,ebx
  410f74:	fmul   QWORD PTR ds:0x419a30
  410f7a:	jmp    0x410fcf
  410f7c:	fldz   
  410f7e:	fcomp  QWORD PTR [ebp-0x14]
  410f81:	fnstsw ax
  410f83:	test   ah,0x41
  410f86:	jne    0x410f8c
  410f88:	mov    edx,ebx
  410f8a:	jmp    0x410f8e
  410f8c:	xor    edx,edx
  410f8e:	mov    eax,DWORD PTR [ebp-0xe]
  410f91:	and    eax,0xf
  410f94:	or     eax,0x10
  410f97:	mov    WORD PTR [ebp-0xe],ax
  410f9b:	mov    eax,0xfffffc03
  410fa0:	cmp    ecx,eax
  410fa2:	jge    0x410fc6
  410fa4:	sub    eax,ecx
  410fa6:	test   BYTE PTR [ebp-0x14],bl
  410fa9:	je     0x410fb1
  410fab:	test   esi,esi
  410fad:	jne    0x410fb1
  410faf:	mov    esi,ebx
  410fb1:	shr    DWORD PTR [ebp-0x14],1
  410fb4:	test   BYTE PTR [ebp-0x10],bl
  410fb7:	je     0x410fc0
  410fb9:	or     DWORD PTR [ebp-0x14],0x80000000
  410fc0:	shr    DWORD PTR [ebp-0x10],1
  410fc3:	dec    eax
  410fc4:	jne    0x410fa6
  410fc6:	test   edx,edx
  410fc8:	je     0x410fd2
  410fca:	fld    QWORD PTR [ebp-0x14]
  410fcd:	fchs   
  410fcf:	fstp   QWORD PTR [ebp-0x14]
  410fd2:	fld    QWORD PTR [ebp-0x14]
  410fd5:	fstp   QWORD PTR [edi]
  410fd7:	jmp    0x410fdb
  410fd9:	mov    esi,ebx
  410fdb:	pop    edi
  410fdc:	test   esi,esi
  410fde:	je     0x410fe8
  410fe0:	push   0x10
  410fe2:	call   0x40ab12
  410fe7:	pop    ecx
  410fe8:	and    DWORD PTR [ebp-0x4],0xfffffffd
  410fec:	mov    esi,DWORD PTR [ebp-0x4]
  410fef:	test   BYTE PTR [ebp+0x8],0x10
  410ff3:	je     0x411006
  410ff5:	test   BYTE PTR [ebp+0x10],0x20
  410ff9:	je     0x411006
  410ffb:	push   0x20
  410ffd:	call   0x40ab12
  411002:	pop    ecx
  411003:	and    esi,0xffffffef
  411006:	xor    eax,eax
  411008:	test   esi,esi
  41100a:	pop    esi
  41100b:	sete   al
  41100e:	pop    ebx
  41100f:	leave  
  411010:	ret    
  411011:	mov    edi,edi
  411013:	push   ebp
  411014:	mov    ebp,esp
  411016:	cmp    DWORD PTR [ebp+0x8],0x1
  41101a:	je     0x411031
  41101c:	jle    0x41103c
  41101e:	cmp    DWORD PTR [ebp+0x8],0x3
  411022:	jg     0x41103c
  411024:	call   0x4087a4
  411029:	mov    DWORD PTR [eax],0x22
  41102f:	pop    ebp
  411030:	ret    
  411031:	call   0x4087a4
  411036:	mov    DWORD PTR [eax],0x21
  41103c:	pop    ebp
  41103d:	ret    
  41103e:	mov    edi,edi
  411040:	push   ebp
  411041:	mov    ebp,esp
  411043:	mov    al,BYTE PTR [ebp+0x8]
  411046:	test   al,0x20
  411048:	je     0x41104e
  41104a:	push   0x5
  41104c:	jmp    0x411065
  41104e:	test   al,0x8
  411050:	je     0x411057
  411052:	xor    eax,eax
  411054:	inc    eax
  411055:	pop    ebp
  411056:	ret    
  411057:	test   al,0x4
  411059:	je     0x41105f
  41105b:	push   0x2
  41105d:	jmp    0x411065
  41105f:	test   al,0x1
  411061:	je     0x411068
  411063:	push   0x3
  411065:	pop    eax
  411066:	pop    ebp
  411067:	ret    
  411068:	movzx  eax,al
  41106b:	and    eax,0x2
  41106e:	add    eax,eax
  411070:	pop    ebp
  411071:	ret    
  411072:	mov    edi,edi
  411074:	push   ebp
  411075:	mov    ebp,esp
  411077:	sub    esp,0x20
  41107a:	xor    eax,eax
  41107c:	mov    ecx,DWORD PTR [eax*8+0x4242c8]
  411083:	cmp    ecx,DWORD PTR [ebp+0xc]
  411086:	je     0x4110ec
  411088:	inc    eax
  411089:	cmp    eax,0x1d
  41108c:	jl     0x41107c
  41108e:	xor    eax,eax
  411090:	mov    DWORD PTR [ebp-0x1c],eax
  411093:	test   eax,eax
  411095:	je     0x4110f5
  411097:	mov    eax,DWORD PTR [ebp+0x10]
  41109a:	mov    DWORD PTR [ebp-0x18],eax
  41109d:	mov    eax,DWORD PTR [ebp+0x14]
  4110a0:	mov    DWORD PTR [ebp-0x14],eax
  4110a3:	mov    eax,DWORD PTR [ebp+0x18]
  4110a6:	mov    DWORD PTR [ebp-0x10],eax
  4110a9:	mov    eax,DWORD PTR [ebp+0x1c]
  4110ac:	push   esi
  4110ad:	mov    esi,DWORD PTR [ebp+0x8]
  4110b0:	mov    DWORD PTR [ebp-0xc],eax
  4110b3:	mov    eax,DWORD PTR [ebp+0x20]
  4110b6:	mov    DWORD PTR [ebp-0x8],eax
  4110b9:	mov    eax,DWORD PTR [ebp+0x24]
  4110bc:	push   0xffff
  4110c1:	push   DWORD PTR [ebp+0x28]
  4110c4:	mov    DWORD PTR [ebp-0x20],esi
  4110c7:	mov    DWORD PTR [ebp-0x4],eax
  4110ca:	call   0x40aae9
  4110cf:	lea    eax,[ebp-0x20]
  4110d2:	push   eax
  4110d3:	call   0x410b2d
  4110d8:	add    esp,0xc
  4110db:	test   eax,eax
  4110dd:	jne    0x4110e6
  4110df:	push   esi
  4110e0:	call   0x411011
  4110e5:	pop    ecx
  4110e6:	fld    QWORD PTR [ebp-0x8]
  4110e9:	pop    esi
  4110ea:	leave  
  4110eb:	ret    
  4110ec:	mov    eax,DWORD PTR [eax*8+0x4242cc]
  4110f3:	jmp    0x411090
  4110f5:	push   0xffff
  4110fa:	push   DWORD PTR [ebp+0x28]
  4110fd:	call   0x40aae9
  411102:	push   DWORD PTR [ebp+0x8]
  411105:	call   0x411011
  41110a:	fld    QWORD PTR [ebp+0x20]
  41110d:	add    esp,0xc
  411110:	leave  
  411111:	ret    
  411112:	mov    edi,edi
  411114:	push   ebp
  411115:	mov    ebp,esp
  411117:	cmp    DWORD PTR ds:0x4242c0,0x0
  41111e:	jne    0x411148
  411120:	push   DWORD PTR [ebp+0x14]
  411123:	fld    QWORD PTR [ebp+0xc]
  411126:	sub    esp,0x18
  411129:	fstp   QWORD PTR [esp+0x10]
  41112d:	fldz   
  41112f:	fstp   QWORD PTR [esp+0x8]
  411133:	fld    QWORD PTR [ebp+0xc]
  411136:	fstp   QWORD PTR [esp]
  411139:	push   DWORD PTR [ebp+0x8]
  41113c:	push   0x1
  41113e:	call   0x411072
  411143:	add    esp,0x24
  411146:	pop    ebp
  411147:	ret    
  411148:	call   0x4087a4
  41114d:	push   0xffff
  411152:	push   DWORD PTR [ebp+0x14]
  411155:	mov    DWORD PTR [eax],0x21
  41115b:	call   0x40aae9
  411160:	fld    QWORD PTR [ebp+0xc]
  411163:	pop    ecx
  411164:	pop    ecx
  411165:	pop    ebp
  411166:	ret    
  411167:	mov    edi,edi
  411169:	push   ebx
  41116a:	mov    ebx,esp
  41116c:	push   ecx
  41116d:	push   ecx
  41116e:	and    esp,0xfffffff0
  411171:	add    esp,0x4
  411174:	push   ebp
  411175:	mov    ebp,DWORD PTR [ebx+0x4]
  411178:	mov    DWORD PTR [esp+0x4],ebp
  41117c:	mov    ebp,esp
  41117e:	sub    esp,0x80
  411184:	mov    eax,ds:0x423d68
  411189:	xor    eax,ebp
  41118b:	mov    DWORD PTR [ebp-0x4],eax
  41118e:	push   DWORD PTR [ebx+0x20]
  411191:	lea    eax,[ebx+0x18]
  411194:	push   eax
  411195:	push   DWORD PTR [ebx+0x8]
  411198:	call   0x410e2f
  41119d:	add    esp,0xc
  4111a0:	test   eax,eax
  4111a2:	jne    0x4111c6
  4111a4:	and    DWORD PTR [ebp-0x40],0xfffffffe
  4111a8:	lea    eax,[ebx+0x18]
  4111ab:	push   eax
  4111ac:	lea    eax,[ebx+0x10]
  4111af:	push   eax
  4111b0:	push   DWORD PTR [ebx+0xc]
  4111b3:	lea    eax,[ebx+0x20]
  4111b6:	push   DWORD PTR [ebx+0x8]
  4111b9:	push   eax
  4111ba:	lea    eax,[ebp-0x80]
  4111bd:	push   eax
  4111be:	call   0x410e0c
  4111c3:	add    esp,0x18
  4111c6:	push   DWORD PTR [ebx+0x8]
  4111c9:	call   0x41103e
  4111ce:	add    esp,0x4
  4111d1:	cmp    DWORD PTR ds:0x4242c0,0x0
  4111d8:	jne    0x411205
  4111da:	test   eax,eax
  4111dc:	je     0x411205
  4111de:	push   DWORD PTR [ebx+0x20]
  4111e1:	fld    QWORD PTR [ebx+0x18]
  4111e4:	sub    esp,0x18
  4111e7:	fstp   QWORD PTR [esp+0x10]
  4111eb:	fldz   
  4111ed:	fstp   QWORD PTR [esp+0x8]
  4111f1:	fld    QWORD PTR [ebx+0x10]
  4111f4:	fstp   QWORD PTR [esp]
  4111f7:	push   DWORD PTR [ebx+0xc]
  4111fa:	push   eax
  4111fb:	call   0x411072
  411200:	add    esp,0x24
  411203:	jmp    0x41121f
  411205:	push   eax
  411206:	call   0x411011
  41120b:	mov    DWORD PTR [esp],0xffff
  411212:	push   DWORD PTR [ebx+0x20]
  411215:	call   0x40aae9
  41121a:	fld    QWORD PTR [ebx+0x18]
  41121d:	pop    ecx
  41121e:	pop    ecx
  41121f:	mov    ecx,DWORD PTR [ebp-0x4]
  411222:	xor    ecx,ebp
  411224:	call   0x40efb3
  411229:	mov    esp,ebp
  41122b:	pop    ebp
  41122c:	mov    esp,ebx
  41122e:	pop    ebx
  41122f:	ret    
  411230:	push   ebp
  411231:	mov    ebp,esp
  411233:	push   edi
  411234:	mov    edi,DWORD PTR [ebp+0x8]
  411237:	xor    eax,eax
  411239:	or     ecx,0xffffffff
  41123c:	repnz scas al,BYTE PTR es:[edi]
  41123e:	add    ecx,0x1
  411241:	neg    ecx
  411243:	sub    edi,0x1
  411246:	mov    al,BYTE PTR [ebp+0xc]
  411249:	std    
  41124a:	repnz scas al,BYTE PTR es:[edi]
  41124c:	add    edi,0x1
  41124f:	cmp    BYTE PTR [edi],al
  411251:	je     0x411257
  411253:	xor    eax,eax
  411255:	jmp    0x411259
  411257:	mov    eax,edi
  411259:	cld    
  41125a:	pop    edi
  41125b:	leave  
  41125c:	ret    
  41125d:	mov    edi,edi
  41125f:	push   ebp
  411260:	mov    ebp,esp
  411262:	sub    esp,0x10
  411265:	push   DWORD PTR [ebp+0xc]
  411268:	lea    ecx,[ebp-0x10]
  41126b:	call   0x4046f4
  411270:	mov    eax,DWORD PTR [ebp-0x10]
  411273:	cmp    DWORD PTR [eax+0xac],0x1
  41127a:	jle    0x41128f
  41127c:	lea    eax,[ebp-0x10]
  41127f:	push   eax
  411280:	push   0x4
  411282:	push   DWORD PTR [ebp+0x8]
  411285:	call   0x414109
  41128a:	add    esp,0xc
  41128d:	jmp    0x41129f
  41128f:	mov    eax,DWORD PTR [eax+0xc8]
  411295:	mov    ecx,DWORD PTR [ebp+0x8]
  411298:	movzx  eax,WORD PTR [eax+ecx*2]
  41129c:	and    eax,0x4
  41129f:	cmp    BYTE PTR [ebp-0x4],0x0
  4112a3:	je     0x4112ac
  4112a5:	mov    ecx,DWORD PTR [ebp-0x8]
  4112a8:	and    DWORD PTR [ecx+0x70],0xfffffffd
  4112ac:	leave  
  4112ad:	ret    
  4112ae:	mov    edi,edi
  4112b0:	push   ebp
  4112b1:	mov    ebp,esp
  4112b3:	cmp    DWORD PTR ds:0x43bfe4,0x0
  4112ba:	jne    0x4112ce
  4112bc:	mov    eax,DWORD PTR [ebp+0x8]
  4112bf:	mov    ecx,DWORD PTR ds:0x423ac0
  4112c5:	movzx  eax,WORD PTR [ecx+eax*2]
  4112c9:	and    eax,0x4
  4112cc:	pop    ebp
  4112cd:	ret    
  4112ce:	push   0x0
  4112d0:	push   DWORD PTR [ebp+0x8]
  4112d3:	call   0x41125d
  4112d8:	pop    ecx
  4112d9:	pop    ecx
  4112da:	pop    ebp
  4112db:	ret    
  4112dc:	mov    edi,edi
  4112de:	push   ebp
  4112df:	mov    ebp,esp
  4112e1:	sub    esp,0x18
  4112e4:	push   ebx
  4112e5:	push   esi
  4112e6:	push   DWORD PTR [ebp+0xc]
  4112e9:	lea    ecx,[ebp-0x18]
  4112ec:	call   0x4046f4
  4112f1:	mov    ebx,DWORD PTR [ebp+0x8]
  4112f4:	mov    esi,0x100
  4112f9:	cmp    ebx,esi
  4112fb:	jae    0x411351
  4112fd:	mov    ecx,DWORD PTR [ebp-0x18]
  411300:	cmp    DWORD PTR [ecx+0xac],0x1
  411307:	jle    0x41131d
  411309:	lea    eax,[ebp-0x18]
  41130c:	push   eax
  41130d:	push   0x1
  41130f:	push   ebx
  411310:	call   0x414109
  411315:	mov    ecx,DWORD PTR [ebp-0x18]
  411318:	add    esp,0xc
  41131b:	jmp    0x41132a
  41131d:	mov    eax,DWORD PTR [ecx+0xc8]
  411323:	movzx  eax,WORD PTR [eax+ebx*2]
  411327:	and    eax,0x1
  41132a:	test   eax,eax
  41132c:	je     0x41133d
  41132e:	mov    eax,DWORD PTR [ecx+0xcc]
  411334:	movzx  eax,BYTE PTR [eax+ebx*1]
  411338:	jmp    0x4113e0
  41133d:	cmp    BYTE PTR [ebp-0xc],0x0
  411341:	je     0x41134a
  411343:	mov    eax,DWORD PTR [ebp-0x10]
  411346:	and    DWORD PTR [eax+0x70],0xfffffffd
  41134a:	mov    eax,ebx
  41134c:	jmp    0x4113ed
  411351:	mov    eax,DWORD PTR [ebp-0x18]
  411354:	cmp    DWORD PTR [eax+0xac],0x1
  41135b:	jle    0x41138e
  41135d:	mov    DWORD PTR [ebp+0x8],ebx
  411360:	sar    DWORD PTR [ebp+0x8],0x8
  411364:	lea    eax,[ebp-0x18]
  411367:	push   eax
  411368:	mov    eax,DWORD PTR [ebp+0x8]
  41136b:	and    eax,0xff
  411370:	push   eax
  411371:	call   0x4107a3
  411376:	pop    ecx
  411377:	pop    ecx
  411378:	test   eax,eax
  41137a:	je     0x41138e
  41137c:	mov    al,BYTE PTR [ebp+0x8]
  41137f:	push   0x2
  411381:	mov    BYTE PTR [ebp-0x4],al
  411384:	mov    BYTE PTR [ebp-0x3],bl
  411387:	mov    BYTE PTR [ebp-0x2],0x0
  41138b:	pop    ecx
  41138c:	jmp    0x4113a3
  41138e:	call   0x4087a4
  411393:	mov    DWORD PTR [eax],0x2a
  411399:	xor    ecx,ecx
  41139b:	mov    BYTE PTR [ebp-0x4],bl
  41139e:	mov    BYTE PTR [ebp-0x3],0x0
  4113a2:	inc    ecx
  4113a3:	mov    eax,DWORD PTR [ebp-0x18]
  4113a6:	push   0x1
  4113a8:	push   DWORD PTR [eax+0x4]
  4113ab:	lea    edx,[ebp-0x8]
  4113ae:	push   0x3
  4113b0:	push   edx
  4113b1:	push   ecx
  4113b2:	lea    ecx,[ebp-0x4]
  4113b5:	push   ecx
  4113b6:	push   esi
  4113b7:	push   DWORD PTR [eax+0x14]
  4113ba:	lea    eax,[ebp-0x18]
  4113bd:	push   eax
  4113be:	call   0x40fa91
  4113c3:	add    esp,0x24
  4113c6:	test   eax,eax
  4113c8:	je     0x41133d
  4113ce:	cmp    eax,0x1
  4113d1:	movzx  eax,BYTE PTR [ebp-0x8]
  4113d5:	je     0x4113e0
  4113d7:	movzx  ecx,BYTE PTR [ebp-0x7]
  4113db:	shl    eax,0x8
  4113de:	or     eax,ecx
  4113e0:	cmp    BYTE PTR [ebp-0xc],0x0
  4113e4:	je     0x4113ed
  4113e6:	mov    ecx,DWORD PTR [ebp-0x10]
  4113e9:	and    DWORD PTR [ecx+0x70],0xfffffffd
  4113ed:	pop    esi
  4113ee:	pop    ebx
  4113ef:	leave  
  4113f0:	ret    
  4113f1:	mov    edi,edi
  4113f3:	push   ebp
  4113f4:	mov    ebp,esp
  4113f6:	cmp    DWORD PTR ds:0x43bfe4,0x0
  4113fd:	jne    0x41140f
  4113ff:	mov    eax,DWORD PTR [ebp+0x8]
  411402:	lea    ecx,[eax-0x41]
  411405:	cmp    ecx,0x19
  411408:	ja     0x41141b
  41140a:	add    eax,0x20
  41140d:	pop    ebp
  41140e:	ret    
  41140f:	push   0x0
  411411:	push   DWORD PTR [ebp+0x8]
  411414:	call   0x4112dc
  411419:	pop    ecx
  41141a:	pop    ecx
  41141b:	pop    ebp
  41141c:	ret    
  41141d:	mov    edi,edi
  41141f:	push   ebp
  411420:	mov    ebp,esp
  411422:	sub    esp,0x28
  411425:	mov    eax,ds:0x423d68
  41142a:	xor    eax,ebp
  41142c:	mov    DWORD PTR [ebp-0x4],eax
  41142f:	push   ebx
  411430:	push   esi
  411431:	mov    esi,DWORD PTR [ebp+0x8]
  411434:	push   edi
  411435:	push   DWORD PTR [ebp+0x10]
  411438:	mov    edi,DWORD PTR [ebp+0xc]
  41143b:	lea    ecx,[ebp-0x24]
  41143e:	call   0x4046f4
  411443:	lea    eax,[ebp-0x24]
  411446:	push   eax
  411447:	xor    ebx,ebx
  411449:	push   ebx
  41144a:	push   ebx
  41144b:	push   ebx
  41144c:	push   ebx
  41144d:	push   edi
  41144e:	lea    eax,[ebp-0x28]
  411451:	push   eax
  411452:	lea    eax,[ebp-0x10]
  411455:	push   eax
  411456:	call   0x414c49
  41145b:	mov    DWORD PTR [ebp-0x14],eax
  41145e:	lea    eax,[ebp-0x10]
  411461:	push   esi
  411462:	push   eax
  411463:	call   0x4141c1
  411468:	add    esp,0x28
  41146b:	test   BYTE PTR [ebp-0x14],0x3
  41146f:	jne    0x41149c
  411471:	cmp    eax,0x1
  411474:	jne    0x411487
  411476:	cmp    BYTE PTR [ebp-0x18],bl
  411479:	je     0x411482
  41147b:	mov    eax,DWORD PTR [ebp-0x1c]
  41147e:	and    DWORD PTR [eax+0x70],0xfffffffd
  411482:	push   0x3
  411484:	pop    eax
  411485:	jmp    0x4114b6
  411487:	cmp    eax,0x2
  41148a:	jne    0x4114a8
  41148c:	cmp    BYTE PTR [ebp-0x18],bl
  41148f:	je     0x411498
  411491:	mov    eax,DWORD PTR [ebp-0x1c]
  411494:	and    DWORD PTR [eax+0x70],0xfffffffd
  411498:	push   0x4
  41149a:	jmp    0x411484
  41149c:	test   BYTE PTR [ebp-0x14],0x1
  4114a0:	jne    0x41148c
  4114a2:	test   BYTE PTR [ebp-0x14],0x2
  4114a6:	jne    0x411476
  4114a8:	cmp    BYTE PTR [ebp-0x18],bl
  4114ab:	je     0x4114b4
  4114ad:	mov    eax,DWORD PTR [ebp-0x1c]
  4114b0:	and    DWORD PTR [eax+0x70],0xfffffffd
  4114b4:	xor    eax,eax
  4114b6:	mov    ecx,DWORD PTR [ebp-0x4]
  4114b9:	pop    edi
  4114ba:	pop    esi
  4114bb:	xor    ecx,ebp
  4114bd:	pop    ebx
  4114be:	call   0x40efb3
  4114c3:	leave  
  4114c4:	ret    
  4114c5:	mov    edi,edi
  4114c7:	push   ebp
  4114c8:	mov    ebp,esp
  4114ca:	sub    esp,0x28
  4114cd:	mov    eax,ds:0x423d68
  4114d2:	xor    eax,ebp
  4114d4:	mov    DWORD PTR [ebp-0x4],eax
  4114d7:	push   ebx
  4114d8:	push   esi
  4114d9:	mov    esi,DWORD PTR [ebp+0x8]
  4114dc:	push   edi
  4114dd:	push   DWORD PTR [ebp+0x10]
  4114e0:	mov    edi,DWORD PTR [ebp+0xc]
  4114e3:	lea    ecx,[ebp-0x24]
  4114e6:	call   0x4046f4
  4114eb:	lea    eax,[ebp-0x24]
  4114ee:	push   eax
  4114ef:	xor    ebx,ebx
  4114f1:	push   ebx
  4114f2:	push   ebx
  4114f3:	push   ebx
  4114f4:	push   ebx
  4114f5:	push   edi
  4114f6:	lea    eax,[ebp-0x28]
  4114f9:	push   eax
  4114fa:	lea    eax,[ebp-0x10]
  4114fd:	push   eax
  4114fe:	call   0x414c49
  411503:	mov    DWORD PTR [ebp-0x14],eax
  411506:	lea    eax,[ebp-0x10]
  411509:	push   esi
  41150a:	push   eax
  41150b:	call   0x414705
  411510:	add    esp,0x28
  411513:	test   BYTE PTR [ebp-0x14],0x3
  411517:	jne    0x411544
  411519:	cmp    eax,0x1
  41151c:	jne    0x41152f
  41151e:	cmp    BYTE PTR [ebp-0x18],bl
  411521:	je     0x41152a
  411523:	mov    eax,DWORD PTR [ebp-0x1c]
  411526:	and    DWORD PTR [eax+0x70],0xfffffffd
  41152a:	push   0x3
  41152c:	pop    eax
  41152d:	jmp    0x41155e
  41152f:	cmp    eax,0x2
  411532:	jne    0x411550
  411534:	cmp    BYTE PTR [ebp-0x18],bl
  411537:	je     0x411540
  411539:	mov    eax,DWORD PTR [ebp-0x1c]
  41153c:	and    DWORD PTR [eax+0x70],0xfffffffd
  411540:	push   0x4
  411542:	jmp    0x41152c
  411544:	test   BYTE PTR [ebp-0x14],0x1
  411548:	jne    0x411534
  41154a:	test   BYTE PTR [ebp-0x14],0x2
  41154e:	jne    0x41151e
  411550:	cmp    BYTE PTR [ebp-0x18],bl
  411553:	je     0x41155c
  411555:	mov    eax,DWORD PTR [ebp-0x1c]
  411558:	and    DWORD PTR [eax+0x70],0xfffffffd
  41155c:	xor    eax,eax
  41155e:	mov    ecx,DWORD PTR [ebp-0x4]
  411561:	pop    edi
  411562:	pop    esi
  411563:	xor    ecx,ebp
  411565:	pop    ebx
  411566:	call   0x40efb3
  41156b:	leave  
  41156c:	ret    
  41156d:	int3   
  41156e:	int3   
  41156f:	int3   
  411570:	push   ebp
  411571:	mov    ebp,esp
  411573:	push   edi
  411574:	push   esi
  411575:	mov    esi,DWORD PTR [ebp+0xc]
  411578:	mov    ecx,DWORD PTR [ebp+0x10]
  41157b:	mov    edi,DWORD PTR [ebp+0x8]
  41157e:	mov    eax,ecx
  411580:	mov    edx,ecx
  411582:	add    eax,esi
  411584:	cmp    edi,esi
  411586:	jbe    0x411590
  411588:	cmp    edi,eax
  41158a:	jb     0x411734
  411590:	cmp    ecx,0x100
  411596:	jb     0x4115b7
  411598:	cmp    DWORD PTR ds:0x43db68,0x0
  41159f:	je     0x4115b7
  4115a1:	push   edi
  4115a2:	push   esi
  4115a3:	and    edi,0xf
  4115a6:	and    esi,0xf
  4115a9:	cmp    edi,esi
  4115ab:	pop    esi
  4115ac:	pop    edi
  4115ad:	jne    0x4115b7
  4115af:	pop    esi
  4115b0:	pop    edi
  4115b1:	pop    ebp
  4115b2:	jmp    0x4070b9
  4115b7:	test   edi,0x3
  4115bd:	jne    0x4115d4
  4115bf:	shr    ecx,0x2
  4115c2:	and    edx,0x3
  4115c5:	cmp    ecx,0x8
  4115c8:	jb     0x4115f4
  4115ca:	rep movs DWORD PTR es:[edi],DWORD PTR ds:[esi]
  4115cc:	jmp    DWORD PTR [edx*4+0x4116e4]
  4115d3:	nop
  4115d4:	mov    eax,edi
  4115d6:	mov    edx,0x3
  4115db:	sub    ecx,0x4
  4115de:	jb     0x4115ec
  4115e0:	and    eax,0x3
  4115e3:	add    ecx,eax
  4115e5:	jmp    DWORD PTR [eax*4+0x4115f8]
  4115ec:	jmp    DWORD PTR [ecx*4+0x4116f4]
  4115f3:	nop
  4115f4:	jmp    DWORD PTR [ecx*4+0x411678]
  4115fb:	nop
  4115fc:	or     BYTE PTR [esi],dl
  4115fe:	inc    ecx
  4115ff:	add    BYTE PTR [esi+edx*1],dh
  411602:	inc    ecx
  411603:	add    BYTE PTR [eax+0x16],bl
  411606:	inc    ecx
  411607:	add    BYTE PTR [ebx],ah
  411609:	ror    DWORD PTR [edx-0x75f877fa],1
  41160f:	inc    esi
  411610:	add    DWORD PTR [eax+0x468a0147],ecx
  411616:	add    al,cl
  411618:	jmp    0x2889e1f
  41161d:	add    esi,0x3
  411620:	add    edi,0x3
  411623:	cmp    ecx,0x8
  411626:	jb     0x4115f4
  411628:	rep movs DWORD PTR es:[edi],DWORD PTR ds:[esi]
  41162a:	jmp    DWORD PTR [edx*4+0x4116e4]
  411631:	lea    ecx,[ecx+0x0]
  411634:	and    edx,ecx
  411636:	mov    al,BYTE PTR [esi]
  411638:	mov    BYTE PTR [edi],al
  41163a:	mov    al,BYTE PTR [esi+0x1]
  41163d:	shr    ecx,0x2
  411640:	mov    BYTE PTR [edi+0x1],al
  411643:	add    esi,0x2
  411646:	add    edi,0x2
  411649:	cmp    ecx,0x8
  41164c:	jb     0x4115f4
  41164e:	rep movs DWORD PTR es:[edi],DWORD PTR ds:[esi]
  411650:	jmp    DWORD PTR [edx*4+0x4116e4]
  411657:	nop
  411658:	and    edx,ecx
  41165a:	mov    al,BYTE PTR [esi]
  41165c:	mov    BYTE PTR [edi],al
  41165e:	add    esi,0x1
  411661:	shr    ecx,0x2
  411664:	add    edi,0x1
  411667:	cmp    ecx,0x8
  41166a:	jb     0x4115f4
  41166c:	rep movs DWORD PTR es:[edi],DWORD PTR ds:[esi]
  41166e:	jmp    DWORD PTR [edx*4+0x4116e4]
  411675:	lea    ecx,[ecx+0x0]
  411678:	fist   DWORD PTR [esi]
  41167a:	inc    ecx
  41167b:	add    al,cl
  41167d:	push   ss
  41167e:	inc    ecx
  41167f:	add    al,al
  411681:	push   ss
  411682:	inc    ecx
  411683:	add    BYTE PTR [eax-0x4fffbeea],bh
  411689:	push   ss
  41168a:	inc    ecx
  41168b:	add    BYTE PTR [eax-0x5fffbeea],ch
  411691:	push   ss
  411692:	inc    ecx
  411693:	add    BYTE PTR [eax-0x74ffbeea],bl
  411699:	inc    esp
  41169a:	mov    fs,esp
  41169c:	mov    DWORD PTR [edi+ecx*4-0x1c],eax
  4116a0:	mov    eax,DWORD PTR [esi+ecx*4-0x18]
  4116a4:	mov    DWORD PTR [edi+ecx*4-0x18],eax
  4116a8:	mov    eax,DWORD PTR [esi+ecx*4-0x14]
  4116ac:	mov    DWORD PTR [edi+ecx*4-0x14],eax
  4116b0:	mov    eax,DWORD PTR [esi+ecx*4-0x10]
  4116b4:	mov    DWORD PTR [edi+ecx*4-0x10],eax
  4116b8:	mov    eax,DWORD PTR [esi+ecx*4-0xc]
  4116bc:	mov    DWORD PTR [edi+ecx*4-0xc],eax
  4116c0:	mov    eax,DWORD PTR [esi+ecx*4-0x8]
  4116c4:	mov    DWORD PTR [edi+ecx*4-0x8],eax
  4116c8:	mov    eax,DWORD PTR [esi+ecx*4-0x4]
  4116cc:	mov    DWORD PTR [edi+ecx*4-0x4],eax
  4116d0:	lea    eax,[ecx*4+0x0]
  4116d7:	add    esi,eax
  4116d9:	add    edi,eax
  4116db:	jmp    DWORD PTR [edx*4+0x4116e4]
  4116e2:	mov    edi,edi
  4116e4:	hlt    
  4116e5:	push   ss
  4116e6:	inc    ecx
  4116e7:	add    ah,bh
  4116e9:	push   ss
  4116ea:	inc    ecx
  4116eb:	add    BYTE PTR [eax],cl
  4116ed:	pop    ss
  4116ee:	inc    ecx
  4116ef:	add    BYTE PTR [edi+edx*1],bl
  4116f2:	inc    ecx
  4116f3:	add    BYTE PTR [ebx+0x5f5e0845],cl
  4116f9:	leave  
  4116fa:	ret    
  4116fb:	nop
  4116fc:	mov    al,BYTE PTR [esi]
  4116fe:	mov    BYTE PTR [edi],al
  411700:	mov    eax,DWORD PTR [ebp+0x8]
  411703:	pop    esi
  411704:	pop    edi
  411705:	leave  
  411706:	ret    
  411707:	nop
  411708:	mov    al,BYTE PTR [esi]
  41170a:	mov    BYTE PTR [edi],al
  41170c:	mov    al,BYTE PTR [esi+0x1]
  41170f:	mov    BYTE PTR [edi+0x1],al
  411712:	mov    eax,DWORD PTR [ebp+0x8]
  411715:	pop    esi
  411716:	pop    edi
  411717:	leave  
  411718:	ret    
  411719:	lea    ecx,[ecx+0x0]
  41171c:	mov    al,BYTE PTR [esi]
  41171e:	mov    BYTE PTR [edi],al
  411720:	mov    al,BYTE PTR [esi+0x1]
  411723:	mov    BYTE PTR [edi+0x1],al
  411726:	mov    al,BYTE PTR [esi+0x2]
  411729:	mov    BYTE PTR [edi+0x2],al
  41172c:	mov    eax,DWORD PTR [ebp+0x8]
  41172f:	pop    esi
  411730:	pop    edi
  411731:	leave  
  411732:	ret    
  411733:	nop
  411734:	lea    esi,[ecx+esi*1-0x4]
  411738:	lea    edi,[ecx+edi*1-0x4]
  41173c:	test   edi,0x3
  411742:	jne    0x411768
  411744:	shr    ecx,0x2
  411747:	and    edx,0x3
  41174a:	cmp    ecx,0x8
  41174d:	jb     0x41175c
  41174f:	std    
  411750:	rep movs DWORD PTR es:[edi],DWORD PTR ds:[esi]
  411752:	cld    
  411753:	jmp    DWORD PTR [edx*4+0x411880]
  41175a:	mov    edi,edi
  41175c:	neg    ecx
  41175e:	jmp    DWORD PTR [ecx*4+0x411830]
  411765:	lea    ecx,[ecx+0x0]
  411768:	mov    eax,edi
  41176a:	mov    edx,0x3
  41176f:	cmp    ecx,0x4
  411772:	jb     0x411780
  411774:	and    eax,0x3
  411777:	sub    ecx,eax
  411779:	jmp    DWORD PTR [eax*4+0x411784]
  411780:	jmp    DWORD PTR [ecx*4+0x411880]
  411787:	nop
  411788:	xchg   esp,eax
  411789:	pop    ss
  41178a:	inc    ecx
  41178b:	add    BYTE PTR [eax-0x1fffbee9],bh
  411791:	pop    ss
  411792:	inc    ecx
  411793:	add    BYTE PTR [edx-0x2edcfcba],cl
  411799:	mov    BYTE PTR [edi+0x3],al
  41179c:	sub    esi,0x1
  41179f:	shr    ecx,0x2
  4117a2:	sub    edi,0x1
  4117a5:	cmp    ecx,0x8
  4117a8:	jb     0x41175c
  4117aa:	std    
  4117ab:	rep movs DWORD PTR es:[edi],DWORD PTR ds:[esi]
  4117ad:	cld    
  4117ae:	jmp    DWORD PTR [edx*4+0x411880]
  4117b5:	lea    ecx,[ecx+0x0]
  4117b8:	mov    al,BYTE PTR [esi+0x3]
  4117bb:	and    edx,ecx
  4117bd:	mov    BYTE PTR [edi+0x3],al
  4117c0:	mov    al,BYTE PTR [esi+0x2]
  4117c3:	shr    ecx,0x2
  4117c6:	mov    BYTE PTR [edi+0x2],al
  4117c9:	sub    esi,0x2
  4117cc:	sub    edi,0x2
  4117cf:	cmp    ecx,0x8
  4117d2:	jb     0x41175c
  4117d4:	std    
  4117d5:	rep movs DWORD PTR es:[edi],DWORD PTR ds:[esi]
  4117d7:	cld    
  4117d8:	jmp    DWORD PTR [edx*4+0x411880]
  4117df:	nop
  4117e0:	mov    al,BYTE PTR [esi+0x3]
  4117e3:	and    edx,ecx
  4117e5:	mov    BYTE PTR [edi+0x3],al
  4117e8:	mov    al,BYTE PTR [esi+0x2]
  4117eb:	mov    BYTE PTR [edi+0x2],al
  4117ee:	mov    al,BYTE PTR [esi+0x1]
  4117f1:	shr    ecx,0x2
  4117f4:	mov    BYTE PTR [edi+0x1],al
  4117f7:	sub    esi,0x3
  4117fa:	sub    edi,0x3
  4117fd:	cmp    ecx,0x8
  411800:	jb     0x41175c
  411806:	std    
  411807:	rep movs DWORD PTR es:[edi],DWORD PTR ds:[esi]
  411809:	cld    
  41180a:	jmp    DWORD PTR [edx*4+0x411880]
  411811:	lea    ecx,[ecx+0x0]
  411814:	xor    al,0x18
  411816:	inc    ecx
  411817:	add    BYTE PTR [eax+ebx*1],bh
  41181a:	inc    ecx
  41181b:	add    BYTE PTR [eax+ebx*1+0x41],al
  41181f:	add    BYTE PTR [eax+ebx*1+0x41],cl
  411823:	add    BYTE PTR [eax+ebx*1+0x41],dl
  411827:	add    BYTE PTR [eax+ebx*1+0x41],bl
  41182b:	add    BYTE PTR [eax+ebx*1+0x41],ah
  41182f:	add    BYTE PTR [edi+0x18],dh
  411832:	inc    ecx
  411833:	add    BYTE PTR [ebx-0x76e371bc],cl
  411839:	inc    esp
  41183a:	(bad)  
  41183b:	sbb    al,0x8b
  41183d:	inc    esp
  41183e:	mov    ds,WORD PTR [eax]
  411840:	mov    DWORD PTR [edi+ecx*4+0x18],eax
  411844:	mov    eax,DWORD PTR [esi+ecx*4+0x14]
  411848:	mov    DWORD PTR [edi+ecx*4+0x14],eax
  41184c:	mov    eax,DWORD PTR [esi+ecx*4+0x10]
  411850:	mov    DWORD PTR [edi+ecx*4+0x10],eax
  411854:	mov    eax,DWORD PTR [esi+ecx*4+0xc]
  411858:	mov    DWORD PTR [edi+ecx*4+0xc],eax
  41185c:	mov    eax,DWORD PTR [esi+ecx*4+0x8]
  411860:	mov    DWORD PTR [edi+ecx*4+0x8],eax
  411864:	mov    eax,DWORD PTR [esi+ecx*4+0x4]
  411868:	mov    DWORD PTR [edi+ecx*4+0x4],eax
  41186c:	lea    eax,[ecx*4+0x0]
  411873:	add    esi,eax
  411875:	add    edi,eax
  411877:	jmp    DWORD PTR [edx*4+0x411880]
  41187e:	mov    edi,edi
  411880:	nop
  411881:	sbb    BYTE PTR [ecx+0x0],al
  411884:	cwde   
  411885:	sbb    BYTE PTR [ecx+0x0],al
  411888:	test   al,0x18
  41188a:	inc    ecx
  41188b:	add    BYTE PTR [eax+ebx*1+0x458b0041],bh
  411892:	or     BYTE PTR [esi+0x5f],bl
  411895:	leave  
  411896:	ret    
  411897:	nop
  411898:	mov    al,BYTE PTR [esi+0x3]
  41189b:	mov    BYTE PTR [edi+0x3],al
  41189e:	mov    eax,DWORD PTR [ebp+0x8]
  4118a1:	pop    esi
  4118a2:	pop    edi
  4118a3:	leave  
  4118a4:	ret    
  4118a5:	lea    ecx,[ecx+0x0]
  4118a8:	mov    al,BYTE PTR [esi+0x3]
  4118ab:	mov    BYTE PTR [edi+0x3],al
  4118ae:	mov    al,BYTE PTR [esi+0x2]
  4118b1:	mov    BYTE PTR [edi+0x2],al
  4118b4:	mov    eax,DWORD PTR [ebp+0x8]
  4118b7:	pop    esi
  4118b8:	pop    edi
  4118b9:	leave  
  4118ba:	ret    
  4118bb:	nop
  4118bc:	mov    al,BYTE PTR [esi+0x3]
  4118bf:	mov    BYTE PTR [edi+0x3],al
  4118c2:	mov    al,BYTE PTR [esi+0x2]
  4118c5:	mov    BYTE PTR [edi+0x2],al
  4118c8:	mov    al,BYTE PTR [esi+0x1]
  4118cb:	mov    BYTE PTR [edi+0x1],al
  4118ce:	mov    eax,DWORD PTR [ebp+0x8]
  4118d1:	pop    esi
  4118d2:	pop    edi
  4118d3:	leave  
  4118d4:	ret    
  4118d5:	mov    edi,edi
  4118d7:	push   ebp
  4118d8:	mov    ebp,esp
  4118da:	mov    ecx,DWORD PTR [ebp+0x14]
  4118dd:	push   ebx
  4118de:	push   esi
  4118df:	mov    esi,DWORD PTR [ebp+0x8]
  4118e2:	xor    ebx,ebx
  4118e4:	push   edi
  4118e5:	mov    edi,DWORD PTR [ecx+0xc]
  4118e8:	cmp    esi,ebx
  4118ea:	jne    0x41190a
  4118ec:	call   0x4087a4
  4118f1:	push   0x16
  4118f3:	pop    esi
  4118f4:	mov    DWORD PTR [eax],esi
  4118f6:	push   ebx
  4118f7:	push   ebx
  4118f8:	push   ebx
  4118f9:	push   ebx
  4118fa:	push   ebx
  4118fb:	call   0x40873c
  411900:	add    esp,0x14
  411903:	mov    eax,esi
  411905:	jmp    0x41198f
  41190a:	cmp    DWORD PTR [ebp+0xc],ebx
  41190d:	jbe    0x4118ec
  41190f:	mov    edx,DWORD PTR [ebp+0x10]
  411912:	cmp    edx,ebx
  411914:	mov    BYTE PTR [esi],bl
  411916:	jle    0x41191c
  411918:	mov    eax,edx
  41191a:	jmp    0x41191e
  41191c:	xor    eax,eax
  41191e:	inc    eax
  41191f:	cmp    DWORD PTR [ebp+0xc],eax
  411922:	ja     0x411932
  411924:	call   0x4087a4
  411929:	push   0x22
  41192b:	pop    ecx
  41192c:	mov    DWORD PTR [eax],ecx
  41192e:	mov    esi,ecx
  411930:	jmp    0x4118f6
  411932:	cmp    edx,ebx
  411934:	mov    BYTE PTR [esi],0x30
  411937:	lea    eax,[esi+0x1]
  41193a:	jle    0x411956
  41193c:	mov    cl,BYTE PTR [edi]
  41193e:	cmp    cl,bl
  411940:	je     0x411948
  411942:	movsx  ecx,cl
  411945:	inc    edi
  411946:	jmp    0x41194b
  411948:	push   0x30
  41194a:	pop    ecx
  41194b:	mov    BYTE PTR [eax],cl
  41194d:	inc    eax
  41194e:	dec    edx
  41194f:	cmp    edx,ebx
  411951:	jg     0x41193c
  411953:	mov    ecx,DWORD PTR [ebp+0x14]
  411956:	cmp    edx,ebx
  411958:	mov    BYTE PTR [eax],bl
  41195a:	jl     0x41196e
  41195c:	cmp    BYTE PTR [edi],0x35
  41195f:	jl     0x41196e
  411961:	jmp    0x411966
  411963:	mov    BYTE PTR [eax],0x30
  411966:	dec    eax
  411967:	cmp    BYTE PTR [eax],0x39
  41196a:	je     0x411963
  41196c:	inc    BYTE PTR [eax]
  41196e:	cmp    BYTE PTR [esi],0x31
  411971:	jne    0x411978
  411973:	inc    DWORD PTR [ecx+0x4]
  411976:	jmp    0x41198d
  411978:	lea    edi,[esi+0x1]
  41197b:	push   edi
  41197c:	call   0x40ef20
  411981:	inc    eax
  411982:	push   eax
  411983:	push   edi
  411984:	push   esi
  411985:	call   0x411570
  41198a:	add    esp,0x10
  41198d:	xor    eax,eax
  41198f:	pop    edi
  411990:	pop    esi
  411991:	pop    ebx
  411992:	pop    ebp
  411993:	ret    
  411994:	mov    edi,edi
  411996:	push   ebp
  411997:	mov    ebp,esp
  411999:	push   ecx
  41199a:	mov    edx,DWORD PTR [ebp+0xc]
  41199d:	movzx  eax,WORD PTR [edx+0x6]
  4119a1:	push   ebx
  4119a2:	mov    ecx,eax
  4119a4:	push   esi
  4119a5:	push   edi
  4119a6:	shr    ecx,0x4
  4119a9:	and    eax,0x8000
  4119ae:	mov    edi,0x7ff
  4119b3:	and    ecx,edi
  4119b5:	mov    DWORD PTR [ebp+0xc],eax
  4119b8:	mov    eax,DWORD PTR [edx+0x4]
  4119bb:	mov    edx,DWORD PTR [edx]
  4119bd:	movzx  ebx,cx
  4119c0:	mov    esi,0x80000000
  4119c5:	and    eax,0xfffff
  4119ca:	mov    DWORD PTR [ebp-0x4],esi
  4119cd:	test   ebx,ebx
  4119cf:	je     0x4119e4
  4119d1:	cmp    ebx,edi
  4119d3:	je     0x4119dd
  4119d5:	add    ecx,0x3c00
  4119db:	jmp    0x411a05
  4119dd:	mov    edi,0x7fff
  4119e2:	jmp    0x411a08
  4119e4:	xor    ebx,ebx
  4119e6:	cmp    eax,ebx
  4119e8:	jne    0x4119fc
  4119ea:	cmp    edx,ebx
  4119ec:	jne    0x4119fc
  4119ee:	mov    eax,DWORD PTR [ebp+0x8]
  4119f1:	mov    cx,WORD PTR [ebp+0xc]
  4119f5:	mov    DWORD PTR [eax+0x4],ebx
  4119f8:	mov    DWORD PTR [eax],ebx
  4119fa:	jmp    0x411a48
  4119fc:	add    ecx,0x3c01
  411a02:	mov    DWORD PTR [ebp-0x4],ebx
  411a05:	movzx  edi,cx
  411a08:	mov    ecx,edx
  411a0a:	shr    ecx,0x15
  411a0d:	shl    eax,0xb
  411a10:	or     ecx,eax
  411a12:	or     ecx,DWORD PTR [ebp-0x4]
  411a15:	mov    eax,DWORD PTR [ebp+0x8]
  411a18:	shl    edx,0xb
  411a1b:	mov    DWORD PTR [eax+0x4],ecx
  411a1e:	mov    DWORD PTR [eax],edx
  411a20:	test   esi,ecx
  411a22:	jne    0x411a43
  411a24:	mov    ecx,DWORD PTR [eax]
  411a26:	mov    edx,DWORD PTR [eax+0x4]
  411a29:	mov    ebx,ecx
  411a2b:	add    edx,edx
  411a2d:	shr    ebx,0x1f
  411a30:	or     edx,ebx
  411a32:	add    ecx,ecx
  411a34:	add    edi,0xffff
  411a3a:	mov    DWORD PTR [eax+0x4],edx
  411a3d:	mov    DWORD PTR [eax],ecx
  411a3f:	test   esi,edx
  411a41:	je     0x411a24
  411a43:	mov    ecx,DWORD PTR [ebp+0xc]
  411a46:	or     ecx,edi
  411a48:	pop    edi
  411a49:	pop    esi
  411a4a:	mov    WORD PTR [eax+0x8],cx
  411a4e:	pop    ebx
  411a4f:	leave  
  411a50:	ret    
  411a51:	mov    edi,edi
  411a53:	push   ebp
  411a54:	mov    ebp,esp
  411a56:	sub    esp,0x30
  411a59:	mov    eax,ds:0x423d68
  411a5e:	xor    eax,ebp
  411a60:	mov    DWORD PTR [ebp-0x4],eax
  411a63:	mov    eax,DWORD PTR [ebp+0x14]
  411a66:	push   ebx
  411a67:	mov    ebx,DWORD PTR [ebp+0x10]
  411a6a:	push   esi
  411a6b:	mov    DWORD PTR [ebp-0x30],eax
  411a6e:	push   edi
  411a6f:	lea    eax,[ebp+0x8]
  411a72:	push   eax
  411a73:	lea    eax,[ebp-0x10]
  411a76:	push   eax
  411a77:	call   0x411994
  411a7c:	pop    ecx
  411a7d:	pop    ecx
  411a7e:	lea    eax,[ebp-0x2c]
  411a81:	push   eax
  411a82:	push   0x0
  411a84:	push   0x11
  411a86:	sub    esp,0xc
  411a89:	lea    esi,[ebp-0x10]
  411a8c:	mov    edi,esp
  411a8e:	movs   DWORD PTR es:[edi],DWORD PTR ds:[esi]
  411a8f:	movs   DWORD PTR es:[edi],DWORD PTR ds:[esi]
  411a90:	movs   WORD PTR es:[edi],WORD PTR ds:[esi]
  411a92:	call   0x415341
  411a97:	mov    esi,DWORD PTR [ebp-0x30]
  411a9a:	mov    DWORD PTR [ebx+0x8],eax
  411a9d:	movsx  eax,BYTE PTR [ebp-0x2a]
  411aa1:	mov    DWORD PTR [ebx],eax
  411aa3:	movsx  eax,WORD PTR [ebp-0x2c]
  411aa7:	mov    DWORD PTR [ebx+0x4],eax
  411aaa:	lea    eax,[ebp-0x28]
  411aad:	push   eax
  411aae:	push   DWORD PTR [ebp+0x18]
  411ab1:	push   esi
  411ab2:	call   0x40eeb7
  411ab7:	add    esp,0x24
  411aba:	test   eax,eax
  411abc:	je     0x411acd
  411abe:	xor    eax,eax
  411ac0:	push   eax
  411ac1:	push   eax
  411ac2:	push   eax
  411ac3:	push   eax
  411ac4:	push   eax
  411ac5:	call   0x408614
  411aca:	add    esp,0x14
  411acd:	mov    ecx,DWORD PTR [ebp-0x4]
  411ad0:	pop    edi
  411ad1:	mov    DWORD PTR [ebx+0xc],esi
  411ad4:	pop    esi
  411ad5:	mov    eax,ebx
  411ad7:	xor    ecx,ebp
  411ad9:	pop    ebx
  411ada:	call   0x40efb3
  411adf:	leave  
  411ae0:	ret    
  411ae1:	int3   
  411ae2:	int3   
  411ae3:	int3   
  411ae4:	int3   
  411ae5:	int3   
  411ae6:	int3   
  411ae7:	int3   
  411ae8:	int3   
  411ae9:	int3   
  411aea:	int3   
  411aeb:	int3   
  411aec:	int3   
  411aed:	int3   
  411aee:	int3   
  411aef:	int3   
  411af0:	push   edi
  411af1:	push   esi
  411af2:	push   ebp
  411af3:	xor    edi,edi
  411af5:	xor    ebp,ebp
  411af7:	mov    eax,DWORD PTR [esp+0x14]
  411afb:	or     eax,eax
  411afd:	jge    0x411b14
  411aff:	inc    edi
  411b00:	inc    ebp
  411b01:	mov    edx,DWORD PTR [esp+0x10]
  411b05:	neg    eax
  411b07:	neg    edx
  411b09:	sbb    eax,0x0
  411b0c:	mov    DWORD PTR [esp+0x14],eax
  411b10:	mov    DWORD PTR [esp+0x10],edx
  411b14:	mov    eax,DWORD PTR [esp+0x1c]
  411b18:	or     eax,eax
  411b1a:	jge    0x411b30
  411b1c:	inc    edi
  411b1d:	mov    edx,DWORD PTR [esp+0x18]
  411b21:	neg    eax
  411b23:	neg    edx
  411b25:	sbb    eax,0x0
  411b28:	mov    DWORD PTR [esp+0x1c],eax
  411b2c:	mov    DWORD PTR [esp+0x18],edx
  411b30:	or     eax,eax
  411b32:	jne    0x411b5c
  411b34:	mov    ecx,DWORD PTR [esp+0x18]
  411b38:	mov    eax,DWORD PTR [esp+0x14]
  411b3c:	xor    edx,edx
  411b3e:	div    ecx
  411b40:	mov    ebx,eax
  411b42:	mov    eax,DWORD PTR [esp+0x10]
  411b46:	div    ecx
  411b48:	mov    esi,eax
  411b4a:	mov    eax,ebx
  411b4c:	mul    DWORD PTR [esp+0x18]
  411b50:	mov    ecx,eax
  411b52:	mov    eax,esi
  411b54:	mul    DWORD PTR [esp+0x18]
  411b58:	add    edx,ecx
  411b5a:	jmp    0x411ba3
  411b5c:	mov    ebx,eax
  411b5e:	mov    ecx,DWORD PTR [esp+0x18]
  411b62:	mov    edx,DWORD PTR [esp+0x14]
  411b66:	mov    eax,DWORD PTR [esp+0x10]
  411b6a:	shr    ebx,1
  411b6c:	rcr    ecx,1
  411b6e:	shr    edx,1
  411b70:	rcr    eax,1
  411b72:	or     ebx,ebx
  411b74:	jne    0x411b6a
  411b76:	div    ecx
  411b78:	mov    esi,eax
  411b7a:	mul    DWORD PTR [esp+0x1c]
  411b7e:	mov    ecx,eax
  411b80:	mov    eax,DWORD PTR [esp+0x18]
  411b84:	mul    esi
  411b86:	add    edx,ecx
  411b88:	jb     0x411b98
  411b8a:	cmp    edx,DWORD PTR [esp+0x14]
  411b8e:	ja     0x411b98
  411b90:	jb     0x411ba1
  411b92:	cmp    eax,DWORD PTR [esp+0x10]
  411b96:	jbe    0x411ba1
  411b98:	dec    esi
  411b99:	sub    eax,DWORD PTR [esp+0x18]
  411b9d:	sbb    edx,DWORD PTR [esp+0x1c]
  411ba1:	xor    ebx,ebx
  411ba3:	sub    eax,DWORD PTR [esp+0x10]
  411ba7:	sbb    edx,DWORD PTR [esp+0x14]
  411bab:	dec    ebp
  411bac:	jns    0x411bb5
  411bae:	neg    edx
  411bb0:	neg    eax
  411bb2:	sbb    edx,0x0
  411bb5:	mov    ecx,edx
  411bb7:	mov    edx,ebx
  411bb9:	mov    ebx,ecx
  411bbb:	mov    ecx,eax
  411bbd:	mov    eax,esi
  411bbf:	dec    edi
  411bc0:	jne    0x411bc9
  411bc2:	neg    edx
  411bc4:	neg    eax
  411bc6:	sbb    edx,0x0
  411bc9:	pop    ebp
  411bca:	pop    esi
  411bcb:	pop    edi
  411bcc:	ret    0x10
  411bcf:	int3   
  411bd0:	cmp    cl,0x40
  411bd3:	jae    0x411bea
  411bd5:	cmp    cl,0x20
  411bd8:	jae    0x411be0
  411bda:	shrd   eax,edx,cl
  411bdd:	shr    edx,cl
  411bdf:	ret    
  411be0:	mov    eax,edx
  411be2:	xor    edx,edx
  411be4:	and    cl,0x1f
  411be7:	shr    eax,cl
  411be9:	ret    
  411bea:	xor    eax,eax
  411bec:	xor    edx,edx
  411bee:	ret    
  411bef:	push   0x2
  411bf1:	call   0x40cf78
  411bf6:	pop    ecx
  411bf7:	ret    
  411bf8:	mov    edi,edi
  411bfa:	push   ebp
  411bfb:	mov    ebp,esp
  411bfd:	push   0xa
  411bff:	push   0x0
  411c01:	push   DWORD PTR [ebp+0x8]
  411c04:	call   0x4140de
  411c09:	add    esp,0xc
  411c0c:	pop    ebp
  411c0d:	ret    
  411c0e:	mov    edi,edi
  411c10:	push   ebp
  411c11:	mov    ebp,esp
  411c13:	cmp    DWORD PTR ds:0x43cb40,0x0
  411c1a:	push   esi
  411c1b:	mov    esi,DWORD PTR ds:0x43c0f8
  411c21:	jne    0x411c27
  411c23:	xor    eax,eax
  411c25:	jmp    0x411c8a
  411c27:	push   edi
  411c28:	test   esi,esi
  411c2a:	jne    0x411c47
  411c2c:	cmp    DWORD PTR ds:0x43c100,esi
  411c32:	je     0x411c87
  411c34:	call   0x415d6d
  411c39:	test   eax,eax
  411c3b:	jne    0x411c87
  411c3d:	mov    esi,DWORD PTR ds:0x43c0f8
  411c43:	test   esi,esi
  411c45:	je     0x411c87
  411c47:	cmp    DWORD PTR [ebp+0x8],0x0
  411c4b:	je     0x411c87
  411c4d:	push   DWORD PTR [ebp+0x8]
  411c50:	call   0x40ef20
  411c55:	pop    ecx
  411c56:	mov    edi,eax
  411c58:	jmp    0x411c81
  411c5a:	push   eax
  411c5b:	call   0x40ef20
  411c60:	pop    ecx
  411c61:	cmp    eax,edi
  411c63:	jbe    0x411c7e
  411c65:	mov    eax,DWORD PTR [esi]
  411c67:	cmp    BYTE PTR [eax+edi*1],0x3d
  411c6b:	jne    0x411c7e
  411c6d:	push   edi
  411c6e:	push   DWORD PTR [ebp+0x8]
  411c71:	push   eax
  411c72:	call   0x415d53
  411c77:	add    esp,0xc
  411c7a:	test   eax,eax
  411c7c:	je     0x411c8d
  411c7e:	add    esi,0x4
  411c81:	mov    eax,DWORD PTR [esi]
  411c83:	test   eax,eax
  411c85:	jne    0x411c5a
  411c87:	xor    eax,eax
  411c89:	pop    edi
  411c8a:	pop    esi
  411c8b:	pop    ebp
  411c8c:	ret    
  411c8d:	mov    eax,DWORD PTR [esi]
  411c8f:	lea    eax,[eax+edi*1+0x1]
  411c93:	jmp    0x411c89
  411c95:	int3   
  411c96:	int3   
  411c97:	int3   
  411c98:	int3   
  411c99:	int3   
  411c9a:	int3   
  411c9b:	int3   
  411c9c:	int3   
  411c9d:	int3   
  411c9e:	int3   
  411c9f:	int3   
  411ca0:	mov    eax,DWORD PTR [esp+0x8]
  411ca4:	mov    ecx,DWORD PTR [esp+0x10]
  411ca8:	or     ecx,eax
  411caa:	mov    ecx,DWORD PTR [esp+0xc]
  411cae:	jne    0x411cb9
  411cb0:	mov    eax,DWORD PTR [esp+0x4]
  411cb4:	mul    ecx
  411cb6:	ret    0x10
  411cb9:	push   ebx
  411cba:	mul    ecx
  411cbc:	mov    ebx,eax
  411cbe:	mov    eax,DWORD PTR [esp+0x8]
  411cc2:	mul    DWORD PTR [esp+0x14]
  411cc6:	add    ebx,eax
  411cc8:	mov    eax,DWORD PTR [esp+0x8]
  411ccc:	mul    ecx
  411cce:	add    edx,ebx
  411cd0:	pop    ebx
  411cd1:	ret    0x10
  411cd4:	push   ebp
  411cd5:	mov    ebp,esp
  411cd7:	sub    esp,0x4
  411cda:	mov    DWORD PTR [ebp-0x4],edi
  411cdd:	mov    edi,DWORD PTR [ebp+0x8]
  411ce0:	mov    ecx,DWORD PTR [ebp+0xc]
  411ce3:	shr    ecx,0x7
  411ce6:	pxor   xmm0,xmm0
  411cea:	jmp    0x411cf4
  411cec:	lea    esp,[esp+0x0]
  411cf3:	nop
  411cf4:	movdqa XMMWORD PTR [edi],xmm0
  411cf8:	movdqa XMMWORD PTR [edi+0x10],xmm0
  411cfd:	movdqa XMMWORD PTR [edi+0x20],xmm0
  411d02:	movdqa XMMWORD PTR [edi+0x30],xmm0
  411d07:	movdqa XMMWORD PTR [edi+0x40],xmm0
  411d0c:	movdqa XMMWORD PTR [edi+0x50],xmm0
  411d11:	movdqa XMMWORD PTR [edi+0x60],xmm0
  411d16:	movdqa XMMWORD PTR [edi+0x70],xmm0
  411d1b:	lea    edi,[edi+0x80]
  411d21:	dec    ecx
  411d22:	jne    0x411cf4
  411d24:	mov    edi,DWORD PTR [ebp-0x4]
  411d27:	mov    esp,ebp
  411d29:	pop    ebp
  411d2a:	ret    
  411d2b:	push   ebp
  411d2c:	mov    ebp,esp
  411d2e:	sub    esp,0x10
  411d31:	mov    DWORD PTR [ebp-0x4],edi
  411d34:	mov    eax,DWORD PTR [ebp+0x8]
  411d37:	cdq    
  411d38:	mov    edi,eax
  411d3a:	xor    edi,edx
  411d3c:	sub    edi,edx
  411d3e:	and    edi,0xf
  411d41:	xor    edi,edx
  411d43:	sub    edi,edx
  411d45:	test   edi,edi
  411d47:	jne    0x411d85
  411d49:	mov    ecx,DWORD PTR [ebp+0x10]
  411d4c:	mov    edx,ecx
  411d4e:	and    edx,0x7f
  411d51:	mov    DWORD PTR [ebp-0xc],edx
  411d54:	cmp    ecx,edx
  411d56:	je     0x411d6a
  411d58:	sub    ecx,edx
  411d5a:	push   ecx
  411d5b:	push   eax
  411d5c:	call   0x411cd4
  411d61:	add    esp,0x8
  411d64:	mov    eax,DWORD PTR [ebp+0x8]
  411d67:	mov    edx,DWORD PTR [ebp-0xc]
  411d6a:	test   edx,edx
  411d6c:	je     0x411db3
  411d6e:	add    eax,DWORD PTR [ebp+0x10]
  411d71:	sub    eax,edx
  411d73:	mov    DWORD PTR [ebp-0x8],eax
  411d76:	xor    eax,eax
  411d78:	mov    edi,DWORD PTR [ebp-0x8]
  411d7b:	mov    ecx,DWORD PTR [ebp-0xc]
  411d7e:	rep stos BYTE PTR es:[edi],al
  411d80:	mov    eax,DWORD PTR [ebp+0x8]
  411d83:	jmp    0x411db3
  411d85:	neg    edi
  411d87:	add    edi,0x10
  411d8a:	mov    DWORD PTR [ebp-0x10],edi
  411d8d:	xor    eax,eax
  411d8f:	mov    edi,DWORD PTR [ebp+0x8]
  411d92:	mov    ecx,DWORD PTR [ebp-0x10]
  411d95:	rep stos BYTE PTR es:[edi],al
  411d97:	mov    eax,DWORD PTR [ebp-0x10]
  411d9a:	mov    ecx,DWORD PTR [ebp+0x8]
  411d9d:	mov    edx,DWORD PTR [ebp+0x10]
  411da0:	add    ecx,eax
  411da2:	sub    edx,eax
  411da4:	push   edx
  411da5:	push   0x0
  411da7:	push   ecx
  411da8:	call   0x411d2b
  411dad:	add    esp,0xc
  411db0:	mov    eax,DWORD PTR [ebp+0x8]
  411db3:	mov    edi,DWORD PTR [ebp-0x4]
  411db6:	mov    esp,ebp
  411db8:	pop    ebp
  411db9:	ret    
  411dba:	push   0x8
  411dbc:	push   0x41f0b0
  411dc1:	call   0x40a868
  411dc6:	call   0x408be5
  411dcb:	mov    eax,DWORD PTR [eax+0x78]
  411dce:	test   eax,eax
  411dd0:	je     0x411de8
  411dd2:	and    DWORD PTR [ebp-0x4],0x0
  411dd6:	call   eax
  411dd8:	jmp    0x411de1
  411dda:	xor    eax,eax
  411ddc:	inc    eax
  411ddd:	ret    
  411dde:	mov    esp,DWORD PTR [ebp-0x18]
  411de1:	mov    DWORD PTR [ebp-0x4],0xfffffffe
  411de8:	call   0x415e04
  411ded:	call   0x40a8ad
  411df2:	ret    
  411df3:	push   0x411dba
  411df8:	call   0x40891e
  411dfd:	pop    ecx
  411dfe:	mov    ds:0x43c6a8,eax
  411e03:	ret    
  411e04:	mov    edi,edi
  411e06:	push   ebp
  411e07:	mov    ebp,esp
  411e09:	push   ecx
  411e0a:	push   ebx
  411e0b:	push   esi
  411e0c:	push   edi
  411e0d:	push   DWORD PTR ds:0x43cb48
  411e13:	call   0x408999
  411e18:	push   DWORD PTR ds:0x43cb44
  411e1e:	mov    edi,eax
  411e20:	mov    DWORD PTR [ebp-0x4],edi
  411e23:	call   0x408999
  411e28:	mov    esi,eax
  411e2a:	pop    ecx
  411e2b:	pop    ecx
  411e2c:	cmp    esi,edi
  411e2e:	jb     0x411eb7
  411e34:	mov    ebx,esi
  411e36:	sub    ebx,edi
  411e38:	lea    eax,[ebx+0x4]
  411e3b:	cmp    eax,0x4
  411e3e:	jb     0x411eb7
  411e40:	push   edi
  411e41:	call   0x412def
  411e46:	mov    edi,eax
  411e48:	lea    eax,[ebx+0x4]
  411e4b:	pop    ecx
  411e4c:	cmp    edi,eax
  411e4e:	jae    0x411e98
  411e50:	mov    eax,0x800
  411e55:	cmp    edi,eax
  411e57:	jae    0x411e5b
  411e59:	mov    eax,edi
  411e5b:	add    eax,edi
  411e5d:	cmp    eax,edi
  411e5f:	jb     0x411e70
  411e61:	push   eax
  411e62:	push   DWORD PTR [ebp-0x4]
  411e65:	call   0x40887e
  411e6a:	pop    ecx
  411e6b:	pop    ecx
  411e6c:	test   eax,eax
  411e6e:	jne    0x411e86
  411e70:	lea    eax,[edi+0x10]
  411e73:	cmp    eax,edi
  411e75:	jb     0x411eb7
  411e77:	push   eax
  411e78:	push   DWORD PTR [ebp-0x4]
  411e7b:	call   0x40887e
  411e80:	pop    ecx
  411e81:	pop    ecx
  411e82:	test   eax,eax
  411e84:	je     0x411eb7
  411e86:	sar    ebx,0x2
  411e89:	push   eax
  411e8a:	lea    esi,[eax+ebx*4]
  411e8d:	call   0x40891e
  411e92:	pop    ecx
  411e93:	mov    ds:0x43cb48,eax
  411e98:	push   DWORD PTR [ebp+0x8]
  411e9b:	call   0x40891e
  411ea0:	mov    DWORD PTR [esi],eax
  411ea2:	add    esi,0x4
  411ea5:	push   esi
  411ea6:	call   0x40891e
  411eab:	pop    ecx
  411eac:	mov    ds:0x43cb44,eax
  411eb1:	mov    eax,DWORD PTR [ebp+0x8]
  411eb4:	pop    ecx
  411eb5:	jmp    0x411eb9
  411eb7:	xor    eax,eax
  411eb9:	pop    edi
  411eba:	pop    esi
  411ebb:	pop    ebx
  411ebc:	leave  
  411ebd:	ret    
  411ebe:	mov    edi,edi
  411ec0:	push   esi
  411ec1:	push   0x4
  411ec3:	push   0x20
  411ec5:	call   0x408832
  411eca:	mov    esi,eax
  411ecc:	push   esi
  411ecd:	call   0x40891e
  411ed2:	add    esp,0xc
  411ed5:	mov    ds:0x43cb48,eax
  411eda:	mov    ds:0x43cb44,eax
  411edf:	test   esi,esi
  411ee1:	jne    0x411ee8
  411ee3:	push   0x18
  411ee5:	pop    eax
  411ee6:	pop    esi
  411ee7:	ret    
  411ee8:	and    DWORD PTR [esi],0x0
  411eeb:	xor    eax,eax
  411eed:	pop    esi
  411eee:	ret    
  411eef:	push   0xc
  411ef1:	push   0x41f0d0
  411ef6:	call   0x40a868
  411efb:	call   0x40cfe4
  411f00:	and    DWORD PTR [ebp-0x4],0x0
  411f04:	push   DWORD PTR [ebp+0x8]
  411f07:	call   0x411e04
  411f0c:	pop    ecx
  411f0d:	mov    DWORD PTR [ebp-0x1c],eax
  411f10:	mov    DWORD PTR [ebp-0x4],0xfffffffe
  411f17:	call   0x411f25
  411f1c:	mov    eax,DWORD PTR [ebp-0x1c]
  411f1f:	call   0x40a8ad
  411f24:	ret    
  411f25:	call   0x40cfed
  411f2a:	ret    
  411f2b:	mov    edi,edi
  411f2d:	push   ebp
  411f2e:	mov    ebp,esp
  411f30:	push   DWORD PTR [ebp+0x8]
  411f33:	call   0x411eef
  411f38:	neg    eax
  411f3a:	sbb    eax,eax
  411f3c:	neg    eax
  411f3e:	pop    ecx
  411f3f:	dec    eax
  411f40:	pop    ebp
  411f41:	ret    
  411f42:	mov    edi,edi
  411f44:	push   ebp
  411f45:	mov    ebp,esp
  411f47:	mov    eax,DWORD PTR [ebp+0x8]
  411f4a:	mov    ds:0x43c6ac,eax
  411f4f:	pop    ebp
  411f50:	ret    
  411f51:	mov    edi,edi
  411f53:	push   ebp
  411f54:	mov    ebp,esp
  411f56:	mov    eax,DWORD PTR [ebp+0x8]
  411f59:	mov    ds:0x43c6b8,eax
  411f5e:	pop    ebp
  411f5f:	ret    
  411f60:	mov    edi,edi
  411f62:	push   ebp
  411f63:	mov    ebp,esp
  411f65:	mov    eax,DWORD PTR [ebp+0x8]
  411f68:	mov    ds:0x43c6bc,eax
  411f6d:	pop    ebp
  411f6e:	ret    
  411f6f:	push   0x10
  411f71:	push   0x41f0f0
  411f76:	call   0x40a868
  411f7b:	and    DWORD PTR [ebp-0x4],0x0
  411f7f:	push   DWORD PTR [ebp+0xc]
  411f82:	push   DWORD PTR [ebp+0x8]
  411f85:	call   DWORD PTR ds:0x4194e8
  411f8b:	mov    DWORD PTR [ebp-0x1c],eax
  411f8e:	jmp    0x411fbf
  411f90:	mov    eax,DWORD PTR [ebp-0x14]
  411f93:	mov    eax,DWORD PTR [eax]
  411f95:	mov    eax,DWORD PTR [eax]
  411f97:	mov    DWORD PTR [ebp-0x20],eax
  411f9a:	xor    ecx,ecx
  411f9c:	cmp    eax,0xc0000017
  411fa1:	sete   cl
  411fa4:	mov    eax,ecx
  411fa6:	ret    
  411fa7:	mov    esp,DWORD PTR [ebp-0x18]
  411faa:	cmp    DWORD PTR [ebp-0x20],0xc0000017
  411fb1:	jne    0x411fbb
  411fb3:	push   0x8
  411fb5:	call   DWORD PTR ds:0x419454
  411fbb:	and    DWORD PTR [ebp-0x1c],0x0
  411fbf:	mov    DWORD PTR [ebp-0x4],0xfffffffe
  411fc6:	mov    eax,DWORD PTR [ebp-0x1c]
  411fc9:	call   0x40a8ad
  411fce:	ret    
  411fcf:	mov    edi,edi
  411fd1:	push   ebp
  411fd2:	mov    ebp,esp
  411fd4:	mov    eax,DWORD PTR [ebp+0x8]
  411fd7:	mov    ds:0x43c6c0,eax
  411fdc:	pop    ebp
  411fdd:	ret    
  411fde:	mov    edi,edi
  411fe0:	push   ebp
  411fe1:	mov    ebp,esp
  411fe3:	push   DWORD PTR ds:0x43c6c0
  411fe9:	call   0x408999
  411fee:	pop    ecx
  411fef:	test   eax,eax
  411ff1:	je     0x412002
  411ff3:	push   DWORD PTR [ebp+0x8]
  411ff6:	call   eax
  411ff8:	pop    ecx
  411ff9:	test   eax,eax
  411ffb:	je     0x412002
  411ffd:	xor    eax,eax
  411fff:	inc    eax
  412000:	pop    ebp
  412001:	ret    
  412002:	xor    eax,eax
  412004:	pop    ebp
  412005:	ret    
  412006:	mov    edi,edi
  412008:	push   ebp
  412009:	mov    ebp,esp
  41200b:	sub    esp,0x14
  41200e:	push   ebx
  41200f:	push   esi
  412010:	push   edi
  412011:	call   0x408990
  412016:	and    DWORD PTR [ebp-0x4],0x0
  41201a:	cmp    DWORD PTR ds:0x43c6c4,0x0
  412021:	mov    ebx,eax
  412023:	jne    0x4120b7
  412029:	push   0x41ed00
  41202e:	call   DWORD PTR ds:0x41932c
  412034:	mov    edi,eax
  412036:	test   edi,edi
  412038:	je     0x412168
  41203e:	mov    esi,DWORD PTR ds:0x419268
  412044:	push   0x41ecf4
  412049:	push   edi
  41204a:	call   esi
  41204c:	test   eax,eax
  41204e:	je     0x412168
  412054:	push   eax
  412055:	call   0x40891e
  41205a:	mov    DWORD PTR [esp],0x41ece4
  412061:	push   edi
  412062:	mov    ds:0x43c6c4,eax
  412067:	call   esi
  412069:	push   eax
  41206a:	call   0x40891e
  41206f:	mov    DWORD PTR [esp],0x41ecd0
  412076:	push   edi
  412077:	mov    ds:0x43c6c8,eax
  41207c:	call   esi
  41207e:	push   eax
  41207f:	call   0x40891e
  412084:	mov    DWORD PTR [esp],0x41ecb4
  41208b:	push   edi
  41208c:	mov    ds:0x43c6cc,eax
  412091:	call   esi
  412093:	push   eax
  412094:	call   0x40891e
  412099:	pop    ecx
  41209a:	mov    ds:0x43c6d4,eax
  41209f:	test   eax,eax
  4120a1:	je     0x4120b7
  4120a3:	push   0x41ec9c
  4120a8:	push   edi
  4120a9:	call   esi
  4120ab:	push   eax
  4120ac:	call   0x40891e
  4120b1:	pop    ecx
  4120b2:	mov    ds:0x43c6d0,eax
  4120b7:	mov    eax,ds:0x43c6d0
  4120bc:	cmp    eax,ebx
  4120be:	je     0x41210f
  4120c0:	cmp    DWORD PTR ds:0x43c6d4,ebx
  4120c6:	je     0x41210f
  4120c8:	push   eax
  4120c9:	call   0x408999
  4120ce:	push   DWORD PTR ds:0x43c6d4
  4120d4:	mov    esi,eax
  4120d6:	call   0x408999
  4120db:	pop    ecx
  4120dc:	pop    ecx
  4120dd:	mov    edi,eax
  4120df:	test   esi,esi
  4120e1:	je     0x41210f
  4120e3:	test   edi,edi
  4120e5:	je     0x41210f
  4120e7:	call   esi
  4120e9:	test   eax,eax
  4120eb:	je     0x412106
  4120ed:	lea    ecx,[ebp-0x8]
  4120f0:	push   ecx
  4120f1:	push   0xc
  4120f3:	lea    ecx,[ebp-0x14]
  4120f6:	push   ecx
  4120f7:	push   0x1
  4120f9:	push   eax
  4120fa:	call   edi
  4120fc:	test   eax,eax
  4120fe:	je     0x412106
  412100:	test   BYTE PTR [ebp-0xc],0x1
  412104:	jne    0x41210f
  412106:	or     DWORD PTR [ebp+0x10],0x200000
  41210d:	jmp    0x412148
  41210f:	mov    eax,ds:0x43c6c8
  412114:	cmp    eax,ebx
  412116:	je     0x412148
  412118:	push   eax
  412119:	call   0x408999
  41211e:	pop    ecx
  41211f:	test   eax,eax
  412121:	je     0x412148
  412123:	call   eax
  412125:	mov    DWORD PTR [ebp-0x4],eax
  412128:	test   eax,eax
  41212a:	je     0x412148
  41212c:	mov    eax,ds:0x43c6cc
  412131:	cmp    eax,ebx
  412133:	je     0x412148
  412135:	push   eax
  412136:	call   0x408999
  41213b:	pop    ecx
  41213c:	test   eax,eax
  41213e:	je     0x412148
  412140:	push   DWORD PTR [ebp-0x4]
  412143:	call   eax
  412145:	mov    DWORD PTR [ebp-0x4],eax
  412148:	push   DWORD PTR ds:0x43c6c4
  41214e:	call   0x408999
  412153:	pop    ecx
  412154:	test   eax,eax
  412156:	je     0x412168
  412158:	push   DWORD PTR [ebp+0x10]
  41215b:	push   DWORD PTR [ebp+0xc]
  41215e:	push   DWORD PTR [ebp+0x8]
  412161:	push   DWORD PTR [ebp-0x4]
  412164:	call   eax
  412166:	jmp    0x41216a
  412168:	xor    eax,eax
  41216a:	pop    edi
  41216b:	pop    esi
  41216c:	pop    ebx
  41216d:	leave  
  41216e:	ret    
  41216f:	mov    edi,edi
  412171:	push   ebp
  412172:	mov    ebp,esp
  412174:	mov    ecx,DWORD PTR [ebp+0x8]
  412177:	push   esi
  412178:	xor    esi,esi
  41217a:	cmp    ecx,esi
  41217c:	jl     0x41219c
  41217e:	cmp    ecx,0x2
  412181:	jle    0x41218f
  412183:	cmp    ecx,0x3
  412186:	jne    0x41219c
  412188:	mov    eax,ds:0x43bfac
  41218d:	jmp    0x4121b7
  41218f:	mov    eax,ds:0x43bfac
  412194:	mov    DWORD PTR ds:0x43bfac,ecx
  41219a:	jmp    0x4121b7
  41219c:	call   0x4087a4
  4121a1:	push   esi
  4121a2:	push   esi
  4121a3:	push   esi
  4121a4:	push   esi
  4121a5:	push   esi
  4121a6:	mov    DWORD PTR [eax],0x16
  4121ac:	call   0x40873c
  4121b1:	add    esp,0x14
  4121b4:	or     eax,0xffffffff
  4121b7:	pop    esi
  4121b8:	pop    ebp
  4121b9:	ret    
  4121ba:	mov    edi,edi
  4121bc:	push   ebp
  4121bd:	mov    ebp,esp
  4121bf:	sub    esp,0x10
  4121c2:	push   DWORD PTR [ebp+0x8]
  4121c5:	lea    ecx,[ebp-0x10]
  4121c8:	call   0x4046f4
  4121cd:	movzx  eax,BYTE PTR [ebp+0xc]
  4121d1:	mov    ecx,DWORD PTR [ebp-0xc]
  4121d4:	mov    dl,BYTE PTR [ebp+0x14]
  4121d7:	test   BYTE PTR [ecx+eax*1+0x1d],dl
  4121db:	jne    0x4121fb
  4121dd:	cmp    DWORD PTR [ebp+0x10],0x0
  4121e1:	je     0x4121f5
  4121e3:	mov    ecx,DWORD PTR [ebp-0x10]
  4121e6:	mov    ecx,DWORD PTR [ecx+0xc8]
  4121ec:	movzx  eax,WORD PTR [ecx+eax*2]
  4121f0:	and    eax,DWORD PTR [ebp+0x10]
  4121f3:	jmp    0x4121f7
  4121f5:	xor    eax,eax
  4121f7:	test   eax,eax
  4121f9:	je     0x4121fe
  4121fb:	xor    eax,eax
  4121fd:	inc    eax
  4121fe:	cmp    BYTE PTR [ebp-0x4],0x0
  412202:	je     0x41220b
  412204:	mov    ecx,DWORD PTR [ebp-0x8]
  412207:	and    DWORD PTR [ecx+0x70],0xfffffffd
  41220b:	leave  
  41220c:	ret    
  41220d:	mov    edi,edi
  41220f:	push   ebp
  412210:	mov    ebp,esp
  412212:	push   0x4
  412214:	push   0x0
  412216:	push   DWORD PTR [ebp+0x8]
  412219:	push   0x0
  41221b:	call   0x4121ba
  412220:	add    esp,0x10
  412223:	pop    ebp
  412224:	ret    
  412225:	mov    edi,edi
  412227:	push   ebp
  412228:	mov    ebp,esp
  41222a:	mov    ecx,DWORD PTR ds:0x43ca0c
  412230:	mov    eax,ds:0x43ca10
  412235:	imul   ecx,ecx,0x14
  412238:	add    ecx,eax
  41223a:	jmp    0x41224d
  41223c:	mov    edx,DWORD PTR [ebp+0x8]
  41223f:	sub    edx,DWORD PTR [eax+0xc]
  412242:	cmp    edx,0x100000
  412248:	jb     0x412253
  41224a:	add    eax,0x14
  41224d:	cmp    eax,ecx
  41224f:	jb     0x41223c
  412251:	xor    eax,eax
  412253:	pop    ebp
  412254:	ret    
  412255:	mov    edi,edi
  412257:	push   ebp
  412258:	mov    ebp,esp
  41225a:	sub    esp,0x10
  41225d:	mov    ecx,DWORD PTR [ebp+0x8]
  412260:	mov    eax,DWORD PTR [ecx+0x10]
  412263:	push   esi
  412264:	mov    esi,DWORD PTR [ebp+0xc]
  412267:	push   edi
  412268:	mov    edi,esi
  41226a:	sub    edi,DWORD PTR [ecx+0xc]
  41226d:	add    esi,0xfffffffc
  412270:	shr    edi,0xf
  412273:	mov    ecx,edi
  412275:	imul   ecx,ecx,0x204
  41227b:	lea    ecx,[ecx+eax*1+0x144]
  412282:	mov    DWORD PTR [ebp-0x10],ecx
  412285:	mov    ecx,DWORD PTR [esi]
  412287:	dec    ecx
  412288:	mov    DWORD PTR [ebp-0x4],ecx
  41228b:	test   cl,0x1
  41228e:	jne    0x412567
  412294:	push   ebx
  412295:	lea    ebx,[ecx+esi*1]
  412298:	mov    edx,DWORD PTR [ebx]
  41229a:	mov    DWORD PTR [ebp-0xc],edx
  41229d:	mov    edx,DWORD PTR [esi-0x4]
  4122a0:	mov    DWORD PTR [ebp-0x8],edx
  4122a3:	mov    edx,DWORD PTR [ebp-0xc]
  4122a6:	mov    DWORD PTR [ebp+0xc],ebx
  4122a9:	test   dl,0x1
  4122ac:	jne    0x412322
  4122ae:	sar    edx,0x4
  4122b1:	dec    edx
  4122b2:	cmp    edx,0x3f
  4122b5:	jbe    0x4122ba
  4122b7:	push   0x3f
  4122b9:	pop    edx
  4122ba:	mov    ecx,DWORD PTR [ebx+0x4]
  4122bd:	cmp    ecx,DWORD PTR [ebx+0x8]
  4122c0:	jne    0x412304
  4122c2:	mov    ebx,0x80000000
  4122c7:	cmp    edx,0x20
  4122ca:	jae    0x4122e5
  4122cc:	mov    ecx,edx
  4122ce:	shr    ebx,cl
  4122d0:	lea    ecx,[edx+eax*1+0x4]
  4122d4:	not    ebx
  4122d6:	and    DWORD PTR [eax+edi*4+0x44],ebx
  4122da:	dec    BYTE PTR [ecx]
  4122dc:	jne    0x412301
  4122de:	mov    ecx,DWORD PTR [ebp+0x8]
  4122e1:	and    DWORD PTR [ecx],ebx
  4122e3:	jmp    0x412301
  4122e5:	lea    ecx,[edx-0x20]
  4122e8:	shr    ebx,cl
  4122ea:	lea    ecx,[edx+eax*1+0x4]
  4122ee:	not    ebx
  4122f0:	and    DWORD PTR [eax+edi*4+0xc4],ebx
  4122f7:	dec    BYTE PTR [ecx]
  4122f9:	jne    0x412301
  4122fb:	mov    ecx,DWORD PTR [ebp+0x8]
  4122fe:	and    DWORD PTR [ecx+0x4],ebx
  412301:	mov    ebx,DWORD PTR [ebp+0xc]
  412304:	mov    edx,DWORD PTR [ebx+0x8]
  412307:	mov    ebx,DWORD PTR [ebx+0x4]
  41230a:	mov    ecx,DWORD PTR [ebp-0x4]
  41230d:	add    ecx,DWORD PTR [ebp-0xc]
  412310:	mov    DWORD PTR [edx+0x4],ebx
  412313:	mov    edx,DWORD PTR [ebp+0xc]
  412316:	mov    ebx,DWORD PTR [edx+0x4]
  412319:	mov    edx,DWORD PTR [edx+0x8]
  41231c:	mov    DWORD PTR [ebx+0x8],edx
  41231f:	mov    DWORD PTR [ebp-0x4],ecx
  412322:	mov    edx,ecx
  412324:	sar    edx,0x4
  412327:	dec    edx
  412328:	cmp    edx,0x3f
  41232b:	jbe    0x412330
  41232d:	push   0x3f
  41232f:	pop    edx
  412330:	mov    ebx,DWORD PTR [ebp-0x8]
  412333:	and    ebx,0x1
  412336:	mov    DWORD PTR [ebp-0xc],ebx
  412339:	jne    0x4123ce
  41233f:	sub    esi,DWORD PTR [ebp-0x8]
  412342:	mov    ebx,DWORD PTR [ebp-0x8]
  412345:	sar    ebx,0x4
  412348:	push   0x3f
  41234a:	mov    DWORD PTR [ebp+0xc],esi
  41234d:	dec    ebx
  41234e:	pop    esi
  41234f:	cmp    ebx,esi
  412351:	jbe    0x412355
  412353:	mov    ebx,esi
  412355:	add    ecx,DWORD PTR [ebp-0x8]
  412358:	mov    edx,ecx
  41235a:	sar    edx,0x4
  41235d:	dec    edx
  41235e:	mov    DWORD PTR [ebp-0x4],ecx
  412361:	cmp    edx,esi
  412363:	jbe    0x412367
  412365:	mov    edx,esi
  412367:	cmp    ebx,edx
  412369:	je     0x4123c9
  41236b:	mov    ecx,DWORD PTR [ebp+0xc]
  41236e:	mov    esi,DWORD PTR [ecx+0x4]
  412371:	cmp    esi,DWORD PTR [ecx+0x8]
  412374:	jne    0x4123b1
  412376:	mov    esi,0x80000000
  41237b:	cmp    ebx,0x20
  41237e:	jae    0x412397
  412380:	mov    ecx,ebx
  412382:	shr    esi,cl
  412384:	not    esi
  412386:	and    DWORD PTR [eax+edi*4+0x44],esi
  41238a:	dec    BYTE PTR [ebx+eax*1+0x4]
  41238e:	jne    0x4123b1
  412390:	mov    ecx,DWORD PTR [ebp+0x8]
  412393:	and    DWORD PTR [ecx],esi
  412395:	jmp    0x4123b1
  412397:	lea    ecx,[ebx-0x20]
  41239a:	shr    esi,cl
  41239c:	not    esi
  41239e:	and    DWORD PTR [eax+edi*4+0xc4],esi
  4123a5:	dec    BYTE PTR [ebx+eax*1+0x4]
  4123a9:	jne    0x4123b1
  4123ab:	mov    ecx,DWORD PTR [ebp+0x8]
  4123ae:	and    DWORD PTR [ecx+0x4],esi
  4123b1:	mov    ecx,DWORD PTR [ebp+0xc]
  4123b4:	mov    esi,DWORD PTR [ecx+0x8]
  4123b7:	mov    ecx,DWORD PTR [ecx+0x4]
  4123ba:	mov    DWORD PTR [esi+0x4],ecx
  4123bd:	mov    ecx,DWORD PTR [ebp+0xc]
  4123c0:	mov    esi,DWORD PTR [ecx+0x4]
  4123c3:	mov    ecx,DWORD PTR [ecx+0x8]
  4123c6:	mov    DWORD PTR [esi+0x8],ecx
  4123c9:	mov    esi,DWORD PTR [ebp+0xc]
  4123cc:	jmp    0x4123d1
  4123ce:	mov    ebx,DWORD PTR [ebp+0x8]
  4123d1:	cmp    DWORD PTR [ebp-0xc],0x0
  4123d5:	jne    0x4123df
  4123d7:	cmp    ebx,edx
  4123d9:	je     0x41245f
  4123df:	mov    ecx,DWORD PTR [ebp-0x10]
  4123e2:	lea    ecx,[ecx+edx*8]
  4123e5:	mov    ebx,DWORD PTR [ecx+0x4]
  4123e8:	mov    DWORD PTR [esi+0x8],ecx
  4123eb:	mov    DWORD PTR [esi+0x4],ebx
  4123ee:	mov    DWORD PTR [ecx+0x4],esi
  4123f1:	mov    ecx,DWORD PTR [esi+0x4]
  4123f4:	mov    DWORD PTR [ecx+0x8],esi
  4123f7:	mov    ecx,DWORD PTR [esi+0x4]
  4123fa:	cmp    ecx,DWORD PTR [esi+0x8]
  4123fd:	jne    0x41245f
  4123ff:	mov    cl,BYTE PTR [edx+eax*1+0x4]
  412403:	mov    BYTE PTR [ebp+0xf],cl
  412406:	inc    cl
  412408:	mov    BYTE PTR [edx+eax*1+0x4],cl
  41240c:	cmp    edx,0x20
  41240f:	jae    0x412436
  412411:	cmp    BYTE PTR [ebp+0xf],0x0
  412415:	jne    0x412425
  412417:	mov    ecx,edx
  412419:	mov    ebx,0x80000000
  41241e:	shr    ebx,cl
  412420:	mov    ecx,DWORD PTR [ebp+0x8]
  412423:	or     DWORD PTR [ecx],ebx
  412425:	mov    ebx,0x80000000
  41242a:	mov    ecx,edx
  41242c:	shr    ebx,cl
  41242e:	lea    eax,[eax+edi*4+0x44]
  412432:	or     DWORD PTR [eax],ebx
  412434:	jmp    0x41245f
  412436:	cmp    BYTE PTR [ebp+0xf],0x0
  41243a:	jne    0x41244c
  41243c:	lea    ecx,[edx-0x20]
  41243f:	mov    ebx,0x80000000
  412444:	shr    ebx,cl
  412446:	mov    ecx,DWORD PTR [ebp+0x8]
  412449:	or     DWORD PTR [ecx+0x4],ebx
  41244c:	lea    ecx,[edx-0x20]
  41244f:	mov    edx,0x80000000
  412454:	shr    edx,cl
  412456:	lea    eax,[eax+edi*4+0xc4]
  41245d:	or     DWORD PTR [eax],edx
  41245f:	mov    eax,DWORD PTR [ebp-0x4]
  412462:	mov    DWORD PTR [esi],eax
  412464:	mov    DWORD PTR [eax+esi*1-0x4],eax
  412468:	mov    eax,DWORD PTR [ebp-0x10]
  41246b:	dec    DWORD PTR [eax]
  41246d:	jne    0x412566
  412473:	mov    eax,ds:0x43c6d8
  412478:	test   eax,eax
  41247a:	je     0x412558
  412480:	mov    ecx,DWORD PTR ds:0x43ca20
  412486:	mov    esi,DWORD PTR ds:0x419314
  41248c:	push   0x4000
  412491:	shl    ecx,0xf
  412494:	add    ecx,DWORD PTR [eax+0xc]
  412497:	mov    ebx,0x8000
  41249c:	push   ebx
  41249d:	push   ecx
  41249e:	call   esi
  4124a0:	mov    ecx,DWORD PTR ds:0x43ca20
  4124a6:	mov    eax,ds:0x43c6d8
  4124ab:	mov    edx,0x80000000
  4124b0:	shr    edx,cl
  4124b2:	or     DWORD PTR [eax+0x8],edx
  4124b5:	mov    eax,ds:0x43c6d8
  4124ba:	mov    eax,DWORD PTR [eax+0x10]
  4124bd:	mov    ecx,DWORD PTR ds:0x43ca20
  4124c3:	and    DWORD PTR [eax+ecx*4+0xc4],0x0
  4124cb:	mov    eax,ds:0x43c6d8
  4124d0:	mov    eax,DWORD PTR [eax+0x10]
  4124d3:	dec    BYTE PTR [eax+0x43]
  4124d6:	mov    eax,ds:0x43c6d8
  4124db:	mov    ecx,DWORD PTR [eax+0x10]
  4124de:	cmp    BYTE PTR [ecx+0x43],0x0
  4124e2:	jne    0x4124ed
  4124e4:	and    DWORD PTR [eax+0x4],0xfffffffe
  4124e8:	mov    eax,ds:0x43c6d8
  4124ed:	cmp    DWORD PTR [eax+0x8],0xffffffff
  4124f1:	jne    0x412558
  4124f3:	push   ebx
  4124f4:	push   0x0
  4124f6:	push   DWORD PTR [eax+0xc]
  4124f9:	call   esi
  4124fb:	mov    eax,ds:0x43c6d8
  412500:	push   DWORD PTR [eax+0x10]
  412503:	push   0x0
  412505:	push   DWORD PTR ds:0x43c544
  41250b:	call   DWORD PTR ds:0x419404
  412511:	mov    ecx,DWORD PTR ds:0x43ca0c
  412517:	mov    eax,ds:0x43c6d8
  41251c:	imul   ecx,ecx,0x14
  41251f:	mov    edx,DWORD PTR ds:0x43ca10
  412525:	sub    ecx,eax
  412527:	lea    ecx,[ecx+edx*1-0x14]
  41252b:	push   ecx
  41252c:	lea    ecx,[eax+0x14]
  41252f:	push   ecx
  412530:	push   eax
  412531:	call   0x411570
  412536:	mov    eax,DWORD PTR [ebp+0x8]
  412539:	add    esp,0xc
  41253c:	dec    DWORD PTR ds:0x43ca0c
  412542:	cmp    eax,DWORD PTR ds:0x43c6d8
  412548:	jbe    0x41254e
  41254a:	sub    DWORD PTR [ebp+0x8],0x14
  41254e:	mov    eax,ds:0x43ca10
  412553:	mov    ds:0x43ca18,eax
  412558:	mov    eax,DWORD PTR [ebp+0x8]
  41255b:	mov    ds:0x43c6d8,eax
  412560:	mov    DWORD PTR ds:0x43ca20,edi
  412566:	pop    ebx
  412567:	pop    edi
  412568:	pop    esi
  412569:	leave  
  41256a:	ret    
  41256b:	mov    eax,ds:0x43ca1c
  412570:	push   esi
  412571:	mov    esi,DWORD PTR ds:0x43ca0c
  412577:	push   edi
  412578:	xor    edi,edi
  41257a:	cmp    esi,eax
  41257c:	jne    0x4125b2
  41257e:	add    eax,0x10
  412581:	imul   eax,eax,0x14
  412584:	push   eax
  412585:	push   DWORD PTR ds:0x43ca10
  41258b:	push   edi
  41258c:	push   DWORD PTR ds:0x43c544
  412592:	call   DWORD PTR ds:0x4194d4
  412598:	cmp    eax,edi
  41259a:	jne    0x4125a0
  41259c:	xor    eax,eax
  41259e:	jmp    0x412618
  4125a0:	add    DWORD PTR ds:0x43ca1c,0x10
  4125a7:	mov    esi,DWORD PTR ds:0x43ca0c
  4125ad:	mov    ds:0x43ca10,eax
  4125b2:	imul   esi,esi,0x14
  4125b5:	add    esi,DWORD PTR ds:0x43ca10
  4125bb:	push   0x41c4
  4125c0:	push   0x8
  4125c2:	push   DWORD PTR ds:0x43c544
  4125c8:	call   DWORD PTR ds:0x4193f8
  4125ce:	mov    DWORD PTR [esi+0x10],eax
  4125d1:	cmp    eax,edi
  4125d3:	je     0x41259c
  4125d5:	push   0x4
  4125d7:	push   0x2000
  4125dc:	push   0x100000
  4125e1:	push   edi
  4125e2:	call   DWORD PTR ds:0x419310
  4125e8:	mov    DWORD PTR [esi+0xc],eax
  4125eb:	cmp    eax,edi
  4125ed:	jne    0x412601
  4125ef:	push   DWORD PTR [esi+0x10]
  4125f2:	push   edi
  4125f3:	push   DWORD PTR ds:0x43c544
  4125f9:	call   DWORD PTR ds:0x419404
  4125ff:	jmp    0x41259c
  412601:	or     DWORD PTR [esi+0x8],0xffffffff
  412605:	mov    DWORD PTR [esi],edi
  412607:	mov    DWORD PTR [esi+0x4],edi
  41260a:	inc    DWORD PTR ds:0x43ca0c
  412610:	mov    eax,DWORD PTR [esi+0x10]
  412613:	or     DWORD PTR [eax],0xffffffff
  412616:	mov    eax,esi
  412618:	pop    edi
  412619:	pop    esi
  41261a:	ret    
  41261b:	mov    edi,edi
  41261d:	push   ebp
  41261e:	mov    ebp,esp
  412620:	push   ecx
  412621:	push   ecx
  412622:	mov    ecx,DWORD PTR [ebp+0x8]
  412625:	mov    eax,DWORD PTR [ecx+0x8]
  412628:	push   ebx
  412629:	push   esi
  41262a:	mov    esi,DWORD PTR [ecx+0x10]
  41262d:	push   edi
  41262e:	xor    ebx,ebx
  412630:	jmp    0x412635
  412632:	add    eax,eax
  412634:	inc    ebx
  412635:	test   eax,eax
  412637:	jge    0x412632
  412639:	mov    eax,ebx
  41263b:	imul   eax,eax,0x204
  412641:	lea    eax,[eax+esi*1+0x144]
  412648:	push   0x3f
  41264a:	mov    DWORD PTR [ebp-0x8],eax
  41264d:	pop    edx
  41264e:	mov    DWORD PTR [eax+0x8],eax
  412651:	mov    DWORD PTR [eax+0x4],eax
  412654:	add    eax,0x8
  412657:	dec    edx
  412658:	jne    0x41264e
  41265a:	push   0x4
  41265c:	mov    edi,ebx
  41265e:	push   0x1000
  412663:	shl    edi,0xf
  412666:	add    edi,DWORD PTR [ecx+0xc]
  412669:	push   0x8000
  41266e:	push   edi
  41266f:	call   DWORD PTR ds:0x419310
  412675:	test   eax,eax
  412677:	jne    0x412681
  412679:	or     eax,0xffffffff
  41267c:	jmp    0x41271e
  412681:	lea    edx,[edi+0x7000]
  412687:	mov    DWORD PTR [ebp-0x4],edx
  41268a:	cmp    edi,edx
  41268c:	ja     0x4126d1
  41268e:	mov    ecx,edx
  412690:	sub    ecx,edi
  412692:	shr    ecx,0xc
  412695:	lea    eax,[edi+0x10]
  412698:	inc    ecx
  412699:	or     DWORD PTR [eax-0x8],0xffffffff
  41269d:	or     DWORD PTR [eax+0xfec],0xffffffff
  4126a4:	lea    edx,[eax+0xffc]
  4126aa:	mov    DWORD PTR [eax],edx
  4126ac:	lea    edx,[eax-0x1004]
  4126b2:	mov    DWORD PTR [eax-0x4],0xff0
  4126b9:	mov    DWORD PTR [eax+0x4],edx
  4126bc:	mov    DWORD PTR [eax+0xfe8],0xff0
  4126c6:	add    eax,0x1000
  4126cb:	dec    ecx
  4126cc:	jne    0x412699
  4126ce:	mov    edx,DWORD PTR [ebp-0x4]
  4126d1:	mov    eax,DWORD PTR [ebp-0x8]
  4126d4:	add    eax,0x1f8
  4126d9:	lea    ecx,[edi+0xc]
  4126dc:	mov    DWORD PTR [eax+0x4],ecx
  4126df:	mov    DWORD PTR [ecx+0x8],eax
  4126e2:	lea    ecx,[edx+0xc]
  4126e5:	mov    DWORD PTR [eax+0x8],ecx
  4126e8:	mov    DWORD PTR [ecx+0x4],eax
  4126eb:	and    DWORD PTR [esi+ebx*4+0x44],0x0
  4126f0:	xor    edi,edi
  4126f2:	inc    edi
  4126f3:	mov    DWORD PTR [esi+ebx*4+0xc4],edi
  4126fa:	mov    al,BYTE PTR [esi+0x43]
  4126fd:	mov    cl,al
  4126ff:	inc    cl
  412701:	test   al,al
  412703:	mov    eax,DWORD PTR [ebp+0x8]
  412706:	mov    BYTE PTR [esi+0x43],cl
  412709:	jne    0x41270e
  41270b:	or     DWORD PTR [eax+0x4],edi
  41270e:	mov    edx,0x80000000
  412713:	mov    ecx,ebx
  412715:	shr    edx,cl
  412717:	not    edx
  412719:	and    DWORD PTR [eax+0x8],edx
  41271c:	mov    eax,ebx
  41271e:	pop    edi
  41271f:	pop    esi
  412720:	pop    ebx
  412721:	leave  
  412722:	ret    
  412723:	mov    edi,edi
  412725:	push   ebp
  412726:	mov    ebp,esp
  412728:	sub    esp,0xc
  41272b:	mov    ecx,DWORD PTR [ebp+0x8]
  41272e:	mov    eax,DWORD PTR [ecx+0x10]
  412731:	push   ebx
  412732:	push   esi
  412733:	mov    esi,DWORD PTR [ebp+0x10]
  412736:	push   edi
  412737:	mov    edi,DWORD PTR [ebp+0xc]
  41273a:	mov    edx,edi
  41273c:	sub    edx,DWORD PTR [ecx+0xc]
  41273f:	add    esi,0x17
  412742:	shr    edx,0xf
  412745:	mov    ecx,edx
  412747:	imul   ecx,ecx,0x204
  41274d:	lea    ecx,[ecx+eax*1+0x144]
  412754:	mov    DWORD PTR [ebp-0xc],ecx
  412757:	mov    ecx,DWORD PTR [edi-0x4]
  41275a:	and    esi,0xfffffff0
  41275d:	dec    ecx
  41275e:	cmp    esi,ecx
  412760:	lea    edi,[ecx+edi*1-0x4]
  412764:	mov    ebx,DWORD PTR [edi]
  412766:	mov    DWORD PTR [ebp+0x10],ecx
  412769:	mov    DWORD PTR [ebp-0x4],ebx
  41276c:	jle    0x4128c7
  412772:	test   bl,0x1
  412775:	jne    0x4128c0
  41277b:	add    ebx,ecx
  41277d:	cmp    esi,ebx
  41277f:	jg     0x4128c0
  412785:	mov    ecx,DWORD PTR [ebp-0x4]
  412788:	sar    ecx,0x4
  41278b:	dec    ecx
  41278c:	mov    DWORD PTR [ebp-0x8],ecx
  41278f:	cmp    ecx,0x3f
  412792:	jbe    0x41279a
  412794:	push   0x3f
  412796:	pop    ecx
  412797:	mov    DWORD PTR [ebp-0x8],ecx
  41279a:	mov    ebx,DWORD PTR [edi+0x4]
  41279d:	cmp    ebx,DWORD PTR [edi+0x8]
  4127a0:	jne    0x4127e5
  4127a2:	mov    ebx,0x80000000
  4127a7:	cmp    ecx,0x20
  4127aa:	jae    0x4127c6
  4127ac:	shr    ebx,cl
  4127ae:	mov    ecx,DWORD PTR [ebp-0x8]
  4127b1:	lea    ecx,[ecx+eax*1+0x4]
  4127b5:	not    ebx
  4127b7:	and    DWORD PTR [eax+edx*4+0x44],ebx
  4127bb:	dec    BYTE PTR [ecx]
  4127bd:	jne    0x4127e5
  4127bf:	mov    ecx,DWORD PTR [ebp+0x8]
  4127c2:	and    DWORD PTR [ecx],ebx
  4127c4:	jmp    0x4127e5
  4127c6:	add    ecx,0xffffffe0
  4127c9:	shr    ebx,cl
  4127cb:	mov    ecx,DWORD PTR [ebp-0x8]
  4127ce:	lea    ecx,[ecx+eax*1+0x4]
  4127d2:	not    ebx
  4127d4:	and    DWORD PTR [eax+edx*4+0xc4],ebx
  4127db:	dec    BYTE PTR [ecx]
  4127dd:	jne    0x4127e5
  4127df:	mov    ecx,DWORD PTR [ebp+0x8]
  4127e2:	and    DWORD PTR [ecx+0x4],ebx
  4127e5:	mov    ecx,DWORD PTR [edi+0x8]
  4127e8:	mov    ebx,DWORD PTR [edi+0x4]
  4127eb:	mov    DWORD PTR [ecx+0x4],ebx
  4127ee:	mov    ecx,DWORD PTR [edi+0x4]
  4127f1:	mov    edi,DWORD PTR [edi+0x8]
  4127f4:	mov    DWORD PTR [ecx+0x8],edi
  4127f7:	mov    ecx,DWORD PTR [ebp+0x10]
  4127fa:	sub    ecx,esi
  4127fc:	add    DWORD PTR [ebp-0x4],ecx
  4127ff:	cmp    DWORD PTR [ebp-0x4],0x0
  412803:	jle    0x4128ae
  412809:	mov    edi,DWORD PTR [ebp-0x4]
  41280c:	mov    ecx,DWORD PTR [ebp+0xc]
  41280f:	sar    edi,0x4
  412812:	dec    edi
  412813:	lea    ecx,[ecx+esi*1-0x4]
  412817:	cmp    edi,0x3f
  41281a:	jbe    0x41281f
  41281c:	push   0x3f
  41281e:	pop    edi
  41281f:	mov    ebx,DWORD PTR [ebp-0xc]
  412822:	lea    ebx,[ebx+edi*8]
  412825:	mov    DWORD PTR [ebp+0x10],ebx
  412828:	mov    ebx,DWORD PTR [ebx+0x4]
  41282b:	mov    DWORD PTR [ecx+0x4],ebx
  41282e:	mov    ebx,DWORD PTR [ebp+0x10]
  412831:	mov    DWORD PTR [ecx+0x8],ebx
  412834:	mov    DWORD PTR [ebx+0x4],ecx
  412837:	mov    ebx,DWORD PTR [ecx+0x4]
  41283a:	mov    DWORD PTR [ebx+0x8],ecx
  41283d:	mov    ebx,DWORD PTR [ecx+0x4]
  412840:	cmp    ebx,DWORD PTR [ecx+0x8]
  412843:	jne    0x41289c
  412845:	mov    cl,BYTE PTR [edi+eax*1+0x4]
  412849:	mov    BYTE PTR [ebp+0x13],cl
  41284c:	inc    cl
  41284e:	mov    BYTE PTR [edi+eax*1+0x4],cl
  412852:	cmp    edi,0x20
  412855:	jae    0x412873
  412857:	cmp    BYTE PTR [ebp+0x13],0x0
  41285b:	jne    0x41286b
  41285d:	mov    ecx,edi
  41285f:	mov    ebx,0x80000000
  412864:	shr    ebx,cl
  412866:	mov    ecx,DWORD PTR [ebp+0x8]
  412869:	or     DWORD PTR [ecx],ebx
  41286b:	lea    eax,[eax+edx*4+0x44]
  41286f:	mov    ecx,edi
  412871:	jmp    0x412893
  412873:	cmp    BYTE PTR [ebp+0x13],0x0
  412877:	jne    0x412889
  412879:	lea    ecx,[edi-0x20]
  41287c:	mov    ebx,0x80000000
  412881:	shr    ebx,cl
  412883:	mov    ecx,DWORD PTR [ebp+0x8]
  412886:	or     DWORD PTR [ecx+0x4],ebx
  412889:	lea    eax,[eax+edx*4+0xc4]
  412890:	lea    ecx,[edi-0x20]
  412893:	mov    edx,0x80000000
  412898:	shr    edx,cl
  41289a:	or     DWORD PTR [eax],edx
  41289c:	mov    edx,DWORD PTR [ebp+0xc]
  41289f:	mov    ecx,DWORD PTR [ebp-0x4]
  4128a2:	lea    eax,[edx+esi*1-0x4]
  4128a6:	mov    DWORD PTR [eax],ecx
  4128a8:	mov    DWORD PTR [ecx+eax*1-0x4],ecx
  4128ac:	jmp    0x4128b1
  4128ae:	mov    edx,DWORD PTR [ebp+0xc]
  4128b1:	lea    eax,[esi+0x1]
  4128b4:	mov    DWORD PTR [edx-0x4],eax
  4128b7:	mov    DWORD PTR [edx+esi*1-0x8],eax
  4128bb:	jmp    0x4129fc
  4128c0:	xor    eax,eax
  4128c2:	jmp    0x4129ff
  4128c7:	jge    0x4129fc
  4128cd:	mov    ebx,DWORD PTR [ebp+0xc]
  4128d0:	sub    DWORD PTR [ebp+0x10],esi
  4128d3:	lea    ecx,[esi+0x1]
  4128d6:	mov    DWORD PTR [ebx-0x4],ecx
  4128d9:	lea    ebx,[ebx+esi*1-0x4]
  4128dd:	mov    esi,DWORD PTR [ebp+0x10]
  4128e0:	sar    esi,0x4
  4128e3:	dec    esi
  4128e4:	mov    DWORD PTR [ebp+0xc],ebx
  4128e7:	mov    DWORD PTR [ebx-0x4],ecx
  4128ea:	cmp    esi,0x3f
  4128ed:	jbe    0x4128f2
  4128ef:	push   0x3f
  4128f1:	pop    esi
  4128f2:	test   BYTE PTR [ebp-0x4],0x1
  4128f6:	jne    0x41297c
  4128fc:	mov    esi,DWORD PTR [ebp-0x4]
  4128ff:	sar    esi,0x4
  412902:	dec    esi
  412903:	cmp    esi,0x3f
  412906:	jbe    0x41290b
  412908:	push   0x3f
  41290a:	pop    esi
  41290b:	mov    ecx,DWORD PTR [edi+0x4]
  41290e:	cmp    ecx,DWORD PTR [edi+0x8]
  412911:	jne    0x412955
  412913:	mov    ebx,0x80000000
  412918:	cmp    esi,0x20
  41291b:	jae    0x412936
  41291d:	mov    ecx,esi
  41291f:	shr    ebx,cl
  412921:	lea    esi,[esi+eax*1+0x4]
  412925:	not    ebx
  412927:	and    DWORD PTR [eax+edx*4+0x44],ebx
  41292b:	dec    BYTE PTR [esi]
  41292d:	jne    0x412952
  41292f:	mov    ecx,DWORD PTR [ebp+0x8]
  412932:	and    DWORD PTR [ecx],ebx
  412934:	jmp    0x412952
  412936:	lea    ecx,[esi-0x20]
  412939:	shr    ebx,cl
  41293b:	lea    ecx,[esi+eax*1+0x4]
  41293f:	not    ebx
  412941:	and    DWORD PTR [eax+edx*4+0xc4],ebx
  412948:	dec    BYTE PTR [ecx]
  41294a:	jne    0x412952
  41294c:	mov    ecx,DWORD PTR [ebp+0x8]
  41294f:	and    DWORD PTR [ecx+0x4],ebx
  412952:	mov    ebx,DWORD PTR [ebp+0xc]
  412955:	mov    ecx,DWORD PTR [edi+0x8]
  412958:	mov    esi,DWORD PTR [edi+0x4]
  41295b:	mov    DWORD PTR [ecx+0x4],esi
  41295e:	mov    esi,DWORD PTR [edi+0x8]
  412961:	mov    ecx,DWORD PTR [edi+0x4]
  412964:	mov    DWORD PTR [ecx+0x8],esi
  412967:	mov    esi,DWORD PTR [ebp+0x10]
  41296a:	add    esi,DWORD PTR [ebp-0x4]
  41296d:	mov    DWORD PTR [ebp+0x10],esi
  412970:	sar    esi,0x4
  412973:	dec    esi
  412974:	cmp    esi,0x3f
  412977:	jbe    0x41297c
  412979:	push   0x3f
  41297b:	pop    esi
  41297c:	mov    ecx,DWORD PTR [ebp-0xc]
  41297f:	lea    ecx,[ecx+esi*8]
  412982:	mov    edi,DWORD PTR [ecx+0x4]
  412985:	mov    DWORD PTR [ebx+0x8],ecx
  412988:	mov    DWORD PTR [ebx+0x4],edi
  41298b:	mov    DWORD PTR [ecx+0x4],ebx
  41298e:	mov    ecx,DWORD PTR [ebx+0x4]
  412991:	mov    DWORD PTR [ecx+0x8],ebx
  412994:	mov    ecx,DWORD PTR [ebx+0x4]
  412997:	cmp    ecx,DWORD PTR [ebx+0x8]
  41299a:	jne    0x4129f3
  41299c:	mov    cl,BYTE PTR [esi+eax*1+0x4]
  4129a0:	mov    BYTE PTR [ebp+0xf],cl
  4129a3:	inc    cl
  4129a5:	mov    BYTE PTR [esi+eax*1+0x4],cl
  4129a9:	cmp    esi,0x20
  4129ac:	jae    0x4129ca
  4129ae:	cmp    BYTE PTR [ebp+0xf],0x0
  4129b2:	jne    0x4129c2
  4129b4:	mov    ecx,esi
  4129b6:	mov    edi,0x80000000
  4129bb:	shr    edi,cl
  4129bd:	mov    ecx,DWORD PTR [ebp+0x8]
  4129c0:	or     DWORD PTR [ecx],edi
  4129c2:	lea    eax,[eax+edx*4+0x44]
  4129c6:	mov    ecx,esi
  4129c8:	jmp    0x4129ea
  4129ca:	cmp    BYTE PTR [ebp+0xf],0x0
  4129ce:	jne    0x4129e0
  4129d0:	lea    ecx,[esi-0x20]
  4129d3:	mov    edi,0x80000000
  4129d8:	shr    edi,cl
  4129da:	mov    ecx,DWORD PTR [ebp+0x8]
  4129dd:	or     DWORD PTR [ecx+0x4],edi
  4129e0:	lea    eax,[eax+edx*4+0xc4]
  4129e7:	lea    ecx,[esi-0x20]
  4129ea:	mov    edx,0x80000000
  4129ef:	shr    edx,cl
  4129f1:	or     DWORD PTR [eax],edx
  4129f3:	mov    eax,DWORD PTR [ebp+0x10]
  4129f6:	mov    DWORD PTR [ebx],eax
  4129f8:	mov    DWORD PTR [eax+ebx*1-0x4],eax
  4129fc:	xor    eax,eax
  4129fe:	inc    eax
  4129ff:	pop    edi
  412a00:	pop    esi
  412a01:	pop    ebx
  412a02:	leave  
  412a03:	ret    
  412a04:	mov    edi,edi
  412a06:	push   ebp
  412a07:	mov    ebp,esp
  412a09:	sub    esp,0x14
  412a0c:	mov    eax,ds:0x43ca0c
  412a11:	mov    ecx,DWORD PTR [ebp+0x8]
  412a14:	imul   eax,eax,0x14
  412a17:	add    eax,DWORD PTR ds:0x43ca10
  412a1d:	add    ecx,0x17
  412a20:	and    ecx,0xfffffff0
  412a23:	mov    DWORD PTR [ebp-0x10],ecx
  412a26:	sar    ecx,0x4
  412a29:	push   ebx
  412a2a:	dec    ecx
  412a2b:	cmp    ecx,0x20
  412a2e:	push   esi
  412a2f:	push   edi
  412a30:	jge    0x412a3d
  412a32:	or     esi,0xffffffff
  412a35:	shr    esi,cl
  412a37:	or     DWORD PTR [ebp-0x8],0xffffffff
  412a3b:	jmp    0x412a4a
  412a3d:	add    ecx,0xffffffe0
  412a40:	or     edx,0xffffffff
  412a43:	xor    esi,esi
  412a45:	shr    edx,cl
  412a47:	mov    DWORD PTR [ebp-0x8],edx
  412a4a:	mov    ecx,DWORD PTR ds:0x43ca18
  412a50:	mov    ebx,ecx
  412a52:	jmp    0x412a65
  412a54:	mov    edx,DWORD PTR [ebx+0x4]
  412a57:	mov    edi,DWORD PTR [ebx]
  412a59:	and    edx,DWORD PTR [ebp-0x8]
  412a5c:	and    edi,esi
  412a5e:	or     edx,edi
  412a60:	jne    0x412a6c
  412a62:	add    ebx,0x14
  412a65:	mov    DWORD PTR [ebp+0x8],ebx
  412a68:	cmp    ebx,eax
  412a6a:	jb     0x412a54
  412a6c:	cmp    ebx,eax
  412a6e:	jne    0x412aef
  412a70:	mov    ebx,DWORD PTR ds:0x43ca10
  412a76:	jmp    0x412a89
  412a78:	mov    edx,DWORD PTR [ebx+0x4]
  412a7b:	mov    edi,DWORD PTR [ebx]
  412a7d:	and    edx,DWORD PTR [ebp-0x8]
  412a80:	and    edi,esi
  412a82:	or     edx,edi
  412a84:	jne    0x412a90
  412a86:	add    ebx,0x14
  412a89:	mov    DWORD PTR [ebp+0x8],ebx
  412a8c:	cmp    ebx,ecx
  412a8e:	jb     0x412a78
  412a90:	cmp    ebx,ecx
  412a92:	jne    0x412aef
  412a94:	jmp    0x412aa2
  412a96:	cmp    DWORD PTR [ebx+0x8],0x0
  412a9a:	jne    0x412aa6
  412a9c:	add    ebx,0x14
  412a9f:	mov    DWORD PTR [ebp+0x8],ebx
  412aa2:	cmp    ebx,eax
  412aa4:	jb     0x412a96
  412aa6:	cmp    ebx,eax
  412aa8:	jne    0x412adb
  412aaa:	mov    ebx,DWORD PTR ds:0x43ca10
  412ab0:	jmp    0x412abb
  412ab2:	cmp    DWORD PTR [ebx+0x8],0x0
  412ab6:	jne    0x412ac2
  412ab8:	add    ebx,0x14
  412abb:	mov    DWORD PTR [ebp+0x8],ebx
  412abe:	cmp    ebx,ecx
  412ac0:	jb     0x412ab2
  412ac2:	cmp    ebx,ecx
  412ac4:	jne    0x412adb
  412ac6:	call   0x41256b
  412acb:	mov    ebx,eax
  412acd:	mov    DWORD PTR [ebp+0x8],ebx
  412ad0:	test   ebx,ebx
  412ad2:	jne    0x412adb
  412ad4:	xor    eax,eax
  412ad6:	jmp    0x412ce4
  412adb:	push   ebx
  412adc:	call   0x41261b
  412ae1:	pop    ecx
  412ae2:	mov    ecx,DWORD PTR [ebx+0x10]
  412ae5:	mov    DWORD PTR [ecx],eax
  412ae7:	mov    eax,DWORD PTR [ebx+0x10]
  412aea:	cmp    DWORD PTR [eax],0xffffffff
  412aed:	je     0x412ad4
  412aef:	mov    DWORD PTR ds:0x43ca18,ebx
  412af5:	mov    eax,DWORD PTR [ebx+0x10]
  412af8:	mov    edx,DWORD PTR [eax]
  412afa:	mov    DWORD PTR [ebp-0x4],edx
  412afd:	cmp    edx,0xffffffff
  412b00:	je     0x412b16
  412b02:	mov    ecx,DWORD PTR [eax+edx*4+0xc4]
  412b09:	mov    edi,DWORD PTR [eax+edx*4+0x44]
  412b0d:	and    ecx,DWORD PTR [ebp-0x8]
  412b10:	and    edi,esi
  412b12:	or     ecx,edi
  412b14:	jne    0x412b3f
  412b16:	and    DWORD PTR [ebp-0x4],0x0
  412b1a:	mov    edx,DWORD PTR [eax+0xc4]
  412b20:	lea    ecx,[eax+0x44]
  412b23:	mov    edi,DWORD PTR [ecx]
  412b25:	and    edx,DWORD PTR [ebp-0x8]
  412b28:	and    edi,esi
  412b2a:	or     edx,edi
  412b2c:	jne    0x412b3c
  412b2e:	inc    DWORD PTR [ebp-0x4]
  412b31:	mov    edx,DWORD PTR [ecx+0x84]
  412b37:	add    ecx,0x4
  412b3a:	jmp    0x412b23
  412b3c:	mov    edx,DWORD PTR [ebp-0x4]
  412b3f:	mov    ecx,edx
  412b41:	imul   ecx,ecx,0x204
  412b47:	lea    ecx,[ecx+eax*1+0x144]
  412b4e:	mov    DWORD PTR [ebp-0xc],ecx
  412b51:	mov    ecx,DWORD PTR [eax+edx*4+0x44]
  412b55:	xor    edi,edi
  412b57:	and    ecx,esi
  412b59:	jne    0x412b6d
  412b5b:	mov    ecx,DWORD PTR [eax+edx*4+0xc4]
  412b62:	and    ecx,DWORD PTR [ebp-0x8]
  412b65:	push   0x20
  412b67:	pop    edi
  412b68:	jmp    0x412b6d
  412b6a:	add    ecx,ecx
  412b6c:	inc    edi
  412b6d:	test   ecx,ecx
  412b6f:	jge    0x412b6a
  412b71:	mov    ecx,DWORD PTR [ebp-0xc]
  412b74:	mov    edx,DWORD PTR [ecx+edi*8+0x4]
  412b78:	mov    ecx,DWORD PTR [edx]
  412b7a:	sub    ecx,DWORD PTR [ebp-0x10]
  412b7d:	mov    esi,ecx
  412b7f:	sar    esi,0x4
  412b82:	dec    esi
  412b83:	cmp    esi,0x3f
  412b86:	mov    DWORD PTR [ebp-0x8],ecx
  412b89:	jle    0x412b8e
  412b8b:	push   0x3f
  412b8d:	pop    esi
  412b8e:	cmp    esi,edi
  412b90:	je     0x412c97
  412b96:	mov    ecx,DWORD PTR [edx+0x4]
  412b99:	cmp    ecx,DWORD PTR [edx+0x8]
  412b9c:	jne    0x412bfa
  412b9e:	cmp    edi,0x20
  412ba1:	mov    ebx,0x80000000
  412ba6:	jge    0x412bce
  412ba8:	mov    ecx,edi
  412baa:	shr    ebx,cl
  412bac:	mov    ecx,DWORD PTR [ebp-0x4]
  412baf:	lea    edi,[eax+edi*1+0x4]
  412bb3:	not    ebx
  412bb5:	mov    DWORD PTR [ebp-0x14],ebx
  412bb8:	and    ebx,DWORD PTR [eax+ecx*4+0x44]
  412bbc:	mov    DWORD PTR [eax+ecx*4+0x44],ebx
  412bc0:	dec    BYTE PTR [edi]
  412bc2:	jne    0x412bf7
  412bc4:	mov    ecx,DWORD PTR [ebp-0x14]
  412bc7:	mov    ebx,DWORD PTR [ebp+0x8]
  412bca:	and    DWORD PTR [ebx],ecx
  412bcc:	jmp    0x412bfa
  412bce:	lea    ecx,[edi-0x20]
  412bd1:	shr    ebx,cl
  412bd3:	mov    ecx,DWORD PTR [ebp-0x4]
  412bd6:	lea    ecx,[eax+ecx*4+0xc4]
  412bdd:	lea    edi,[eax+edi*1+0x4]
  412be1:	not    ebx
  412be3:	and    DWORD PTR [ecx],ebx
  412be5:	dec    BYTE PTR [edi]
  412be7:	mov    DWORD PTR [ebp-0x14],ebx
  412bea:	jne    0x412bf7
  412bec:	mov    ebx,DWORD PTR [ebp+0x8]
  412bef:	mov    ecx,DWORD PTR [ebp-0x14]
  412bf2:	and    DWORD PTR [ebx+0x4],ecx
  412bf5:	jmp    0x412bfa
  412bf7:	mov    ebx,DWORD PTR [ebp+0x8]
  412bfa:	cmp    DWORD PTR [ebp-0x8],0x0
  412bfe:	mov    ecx,DWORD PTR [edx+0x8]
  412c01:	mov    edi,DWORD PTR [edx+0x4]
  412c04:	mov    DWORD PTR [ecx+0x4],edi
  412c07:	mov    ecx,DWORD PTR [edx+0x4]
  412c0a:	mov    edi,DWORD PTR [edx+0x8]
  412c0d:	mov    DWORD PTR [ecx+0x8],edi
  412c10:	je     0x412ca3
  412c16:	mov    ecx,DWORD PTR [ebp-0xc]
  412c19:	lea    ecx,[ecx+esi*8]
  412c1c:	mov    edi,DWORD PTR [ecx+0x4]
  412c1f:	mov    DWORD PTR [edx+0x8],ecx
  412c22:	mov    DWORD PTR [edx+0x4],edi
  412c25:	mov    DWORD PTR [ecx+0x4],edx
  412c28:	mov    ecx,DWORD PTR [edx+0x4]
  412c2b:	mov    DWORD PTR [ecx+0x8],edx
  412c2e:	mov    ecx,DWORD PTR [edx+0x4]
  412c31:	cmp    ecx,DWORD PTR [edx+0x8]
  412c34:	jne    0x412c94
  412c36:	mov    cl,BYTE PTR [esi+eax*1+0x4]
  412c3a:	mov    BYTE PTR [ebp+0xb],cl
  412c3d:	inc    cl
  412c3f:	cmp    esi,0x20
  412c42:	mov    BYTE PTR [esi+eax*1+0x4],cl
  412c46:	jge    0x412c6b
  412c48:	cmp    BYTE PTR [ebp+0xb],0x0
  412c4c:	jne    0x412c59
  412c4e:	mov    edi,0x80000000
  412c53:	mov    ecx,esi
  412c55:	shr    edi,cl
  412c57:	or     DWORD PTR [ebx],edi
  412c59:	mov    ecx,esi
  412c5b:	mov    edi,0x80000000
  412c60:	shr    edi,cl
  412c62:	mov    ecx,DWORD PTR [ebp-0x4]
  412c65:	or     DWORD PTR [eax+ecx*4+0x44],edi
  412c69:	jmp    0x412c94
  412c6b:	cmp    BYTE PTR [ebp+0xb],0x0
  412c6f:	jne    0x412c7e
  412c71:	lea    ecx,[esi-0x20]
  412c74:	mov    edi,0x80000000
  412c79:	shr    edi,cl
  412c7b:	or     DWORD PTR [ebx+0x4],edi
  412c7e:	mov    ecx,DWORD PTR [ebp-0x4]
  412c81:	lea    edi,[eax+ecx*4+0xc4]
  412c88:	lea    ecx,[esi-0x20]
  412c8b:	mov    esi,0x80000000
  412c90:	shr    esi,cl
  412c92:	or     DWORD PTR [edi],esi
  412c94:	mov    ecx,DWORD PTR [ebp-0x8]
  412c97:	test   ecx,ecx
  412c99:	je     0x412ca6
  412c9b:	mov    DWORD PTR [edx],ecx
  412c9d:	mov    DWORD PTR [ecx+edx*1-0x4],ecx
  412ca1:	jmp    0x412ca6
  412ca3:	mov    ecx,DWORD PTR [ebp-0x8]
  412ca6:	mov    esi,DWORD PTR [ebp-0x10]
  412ca9:	add    edx,ecx
  412cab:	lea    ecx,[esi+0x1]
  412cae:	mov    DWORD PTR [edx],ecx
  412cb0:	mov    DWORD PTR [edx+esi*1-0x4],ecx
  412cb4:	mov    esi,DWORD PTR [ebp-0xc]
  412cb7:	mov    ecx,DWORD PTR [esi]
  412cb9:	lea    edi,[ecx+0x1]
  412cbc:	mov    DWORD PTR [esi],edi
  412cbe:	test   ecx,ecx
  412cc0:	jne    0x412cdc
  412cc2:	cmp    ebx,DWORD PTR ds:0x43c6d8
  412cc8:	jne    0x412cdc
  412cca:	mov    ecx,DWORD PTR [ebp-0x4]
  412ccd:	cmp    ecx,DWORD PTR ds:0x43ca20
  412cd3:	jne    0x412cdc
  412cd5:	and    DWORD PTR ds:0x43c6d8,0x0
  412cdc:	mov    ecx,DWORD PTR [ebp-0x4]
  412cdf:	mov    DWORD PTR [eax],ecx
  412ce1:	lea    eax,[edx+0x4]
  412ce4:	pop    edi
  412ce5:	pop    esi
  412ce6:	pop    ebx
  412ce7:	leave  
  412ce8:	ret    
  412ce9:	mov    edi,edi
  412ceb:	push   ebp
  412cec:	mov    ebp,esp
  412cee:	sub    esp,0x328
  412cf4:	mov    ds:0x43c7e8,eax
  412cf9:	mov    DWORD PTR ds:0x43c7e4,ecx
  412cff:	mov    DWORD PTR ds:0x43c7e0,edx
  412d05:	mov    DWORD PTR ds:0x43c7dc,ebx
  412d0b:	mov    DWORD PTR ds:0x43c7d8,esi
  412d11:	mov    DWORD PTR ds:0x43c7d4,edi
  412d17:	data16 mov WORD PTR ds:0x43c800,ss
  412d1e:	data16 mov WORD PTR ds:0x43c7f4,cs
  412d25:	data16 mov WORD PTR ds:0x43c7d0,ds
  412d2c:	data16 mov WORD PTR ds:0x43c7cc,es
  412d33:	data16 mov WORD PTR ds:0x43c7c8,fs
  412d3a:	data16 mov WORD PTR ds:0x43c7c4,gs
  412d41:	pushf  
  412d42:	pop    DWORD PTR ds:0x43c7f8
  412d48:	mov    eax,DWORD PTR [ebp+0x0]
  412d4b:	mov    ds:0x43c7ec,eax
  412d50:	mov    eax,DWORD PTR [ebp+0x4]
  412d53:	mov    ds:0x43c7f0,eax
  412d58:	lea    eax,[ebp+0x8]
  412d5b:	mov    ds:0x43c7fc,eax
  412d60:	mov    eax,DWORD PTR [ebp-0x320]
  412d66:	mov    DWORD PTR ds:0x43c738,0x10001
  412d70:	mov    eax,ds:0x43c7f0
  412d75:	mov    ds:0x43c6ec,eax
  412d7a:	mov    DWORD PTR ds:0x43c6e0,0xc0000409
  412d84:	mov    DWORD PTR ds:0x43c6e4,0x1
  412d8e:	mov    eax,ds:0x423d68
  412d93:	mov    DWORD PTR [ebp-0x328],eax
  412d99:	mov    eax,ds:0x423d6c
  412d9e:	mov    DWORD PTR [ebp-0x324],eax
  412da4:	call   DWORD PTR ds:0x419424
  412daa:	mov    ds:0x43c730,eax
  412daf:	push   0x1
  412db1:	call   0x40efab
  412db6:	pop    ecx
  412db7:	push   0x0
  412db9:	call   DWORD PTR ds:0x419498
  412dbf:	push   0x41ed0c
  412dc4:	call   DWORD PTR ds:0x419280
  412dca:	cmp    DWORD PTR ds:0x43c730,0x0
  412dd1:	jne    0x412ddb
  412dd3:	push   0x1
  412dd5:	call   0x40efab
  412dda:	pop    ecx
  412ddb:	push   0xc0000409
  412de0:	call   DWORD PTR ds:0x41937c
  412de6:	push   eax
  412de7:	call   DWORD PTR ds:0x419494
  412ded:	leave  
  412dee:	ret    
  412def:	push   0x10
  412df1:	push   0x41f110
  412df6:	call   0x40a868
  412dfb:	xor    eax,eax
  412dfd:	mov    ebx,DWORD PTR [ebp+0x8]
  412e00:	xor    edi,edi
  412e02:	cmp    ebx,edi
  412e04:	setne  al
  412e07:	cmp    eax,edi
  412e09:	jne    0x412e28
  412e0b:	call   0x4087a4
  412e10:	mov    DWORD PTR [eax],0x16
  412e16:	push   edi
  412e17:	push   edi
  412e18:	push   edi
  412e19:	push   edi
  412e1a:	push   edi
  412e1b:	call   0x40873c
  412e20:	add    esp,0x14
  412e23:	or     eax,0xffffffff
  412e26:	jmp    0x412e7b
  412e28:	cmp    DWORD PTR ds:0x43ca28,0x3
  412e2f:	jne    0x412e69
  412e31:	push   0x4
  412e33:	call   0x40f60b
  412e38:	pop    ecx
  412e39:	mov    DWORD PTR [ebp-0x4],edi
  412e3c:	push   ebx
  412e3d:	call   0x412225
  412e42:	pop    ecx
  412e43:	mov    DWORD PTR [ebp-0x20],eax
  412e46:	cmp    eax,edi
  412e48:	je     0x412e55
  412e4a:	mov    esi,DWORD PTR [ebx-0x4]
  412e4d:	sub    esi,0x9
  412e50:	mov    DWORD PTR [ebp-0x1c],esi
  412e53:	jmp    0x412e58
  412e55:	mov    esi,DWORD PTR [ebp-0x1c]
  412e58:	mov    DWORD PTR [ebp-0x4],0xfffffffe
  412e5f:	call   0x412e89
  412e64:	cmp    DWORD PTR [ebp-0x20],edi
  412e67:	jne    0x412e79
  412e69:	push   ebx
  412e6a:	push   edi
  412e6b:	push   DWORD PTR ds:0x43c544
  412e71:	call   DWORD PTR ds:0x419408
  412e77:	mov    esi,eax
  412e79:	mov    eax,esi
  412e7b:	call   0x40a8ad
  412e80:	ret    
  412e81:	xor    edi,edi
  412e83:	mov    ebx,DWORD PTR [ebp+0x8]
  412e86:	mov    esi,DWORD PTR [ebp-0x1c]
  412e89:	push   0x4
  412e8b:	call   0x40f531
  412e90:	pop    ecx
  412e91:	ret    
  412e92:	mov    edi,edi
  412e94:	push   ebp
  412e95:	mov    ebp,esp
  412e97:	sub    esp,0xc
  412e9a:	mov    eax,ds:0x423d68
  412e9f:	xor    eax,ebp
  412ea1:	mov    DWORD PTR [ebp-0x4],eax
  412ea4:	push   0x6
  412ea6:	lea    eax,[ebp-0xc]
  412ea9:	push   eax
  412eaa:	push   0x1004
  412eaf:	push   DWORD PTR [ebp+0x8]
  412eb2:	mov    BYTE PTR [ebp-0x6],0x0
  412eb6:	call   DWORD PTR ds:0x4194e4
  412ebc:	test   eax,eax
  412ebe:	jne    0x412ec5
  412ec0:	or     eax,0xffffffff
  412ec3:	jmp    0x412ecf
  412ec5:	lea    eax,[ebp-0xc]
  412ec8:	push   eax
  412ec9:	call   0x411bf8
  412ece:	pop    ecx
  412ecf:	mov    ecx,DWORD PTR [ebp-0x4]
  412ed2:	xor    ecx,ebp
  412ed4:	call   0x40efb3
  412ed9:	leave  
  412eda:	ret    
  412edb:	mov    edi,edi
  412edd:	push   ebp
  412ede:	mov    ebp,esp
  412ee0:	sub    esp,0x34
  412ee3:	mov    eax,ds:0x423d68
  412ee8:	xor    eax,ebp
  412eea:	mov    DWORD PTR [ebp-0x4],eax
  412eed:	mov    eax,DWORD PTR [ebp+0x10]
  412ef0:	mov    ecx,DWORD PTR [ebp+0x18]
  412ef3:	mov    DWORD PTR [ebp-0x28],eax
  412ef6:	mov    eax,DWORD PTR [ebp+0x14]
  412ef9:	push   ebx
  412efa:	mov    DWORD PTR [ebp-0x30],eax
  412efd:	mov    eax,DWORD PTR [eax]
  412eff:	push   esi
  412f00:	mov    DWORD PTR [ebp-0x24],eax
  412f03:	mov    eax,DWORD PTR [ebp+0x8]
  412f06:	push   edi
  412f07:	xor    edi,edi
  412f09:	mov    DWORD PTR [ebp-0x34],ecx
  412f0c:	mov    DWORD PTR [ebp-0x20],edi
  412f0f:	mov    DWORD PTR [ebp-0x2c],edi
  412f12:	cmp    eax,DWORD PTR [ebp+0xc]
  412f15:	je     0x41307a
  412f1b:	mov    esi,DWORD PTR ds:0x419374
  412f21:	lea    ecx,[ebp-0x18]
  412f24:	push   ecx
  412f25:	push   eax
  412f26:	call   esi
  412f28:	mov    ebx,DWORD PTR ds:0x4192d8
  412f2e:	test   eax,eax
  412f30:	je     0x412f90
  412f32:	cmp    DWORD PTR [ebp-0x18],0x1
  412f36:	jne    0x412f90
  412f38:	lea    eax,[ebp-0x18]
  412f3b:	push   eax
  412f3c:	push   DWORD PTR [ebp+0xc]
  412f3f:	call   esi
  412f41:	test   eax,eax
  412f43:	je     0x412f90
  412f45:	cmp    DWORD PTR [ebp-0x18],0x1
  412f49:	jne    0x412f90
  412f4b:	mov    esi,DWORD PTR [ebp-0x24]
  412f4e:	mov    DWORD PTR [ebp-0x2c],0x1
  412f55:	cmp    esi,0xffffffff
  412f58:	jne    0x412f66
  412f5a:	push   DWORD PTR [ebp-0x28]
  412f5d:	call   0x40ef20
  412f62:	mov    esi,eax
  412f64:	pop    ecx
  412f65:	inc    esi
  412f66:	cmp    esi,edi
  412f68:	jle    0x412fc5
  412f6a:	cmp    esi,0x7ffffff0
  412f70:	ja     0x412fc5
  412f72:	lea    eax,[esi+esi*1+0x8]
  412f76:	cmp    eax,0x400
  412f7b:	ja     0x412fac
  412f7d:	call   0x413090
  412f82:	mov    eax,esp
  412f84:	cmp    eax,edi
  412f86:	je     0x412fc0
  412f88:	mov    DWORD PTR [eax],0xcccc
  412f8e:	jmp    0x412fbd
  412f90:	push   edi
  412f91:	push   edi
  412f92:	push   DWORD PTR [ebp-0x24]
  412f95:	push   DWORD PTR [ebp-0x28]
  412f98:	push   0x1
  412f9a:	push   DWORD PTR [ebp+0x8]
  412f9d:	call   ebx
  412f9f:	mov    esi,eax
  412fa1:	cmp    esi,edi
  412fa3:	jne    0x412f68
  412fa5:	xor    eax,eax
  412fa7:	jmp    0x41307d
  412fac:	push   eax
  412fad:	call   0x40f011
  412fb2:	pop    ecx
  412fb3:	cmp    eax,edi
  412fb5:	je     0x412fc0
  412fb7:	mov    DWORD PTR [eax],0xdddd
  412fbd:	add    eax,0x8
  412fc0:	mov    DWORD PTR [ebp-0x1c],eax
  412fc3:	jmp    0x412fc8
  412fc5:	mov    DWORD PTR [ebp-0x1c],edi
  412fc8:	cmp    DWORD PTR [ebp-0x1c],edi
  412fcb:	je     0x412fa5
  412fcd:	lea    eax,[esi+esi*1]
  412fd0:	push   eax
  412fd1:	push   edi
  412fd2:	push   DWORD PTR [ebp-0x1c]
  412fd5:	call   0x40cc70
  412fda:	add    esp,0xc
  412fdd:	push   esi
  412fde:	push   DWORD PTR [ebp-0x1c]
  412fe1:	push   DWORD PTR [ebp-0x24]
  412fe4:	push   DWORD PTR [ebp-0x28]
  412fe7:	push   0x1
  412fe9:	push   DWORD PTR [ebp+0x8]
  412fec:	call   ebx
  412fee:	test   eax,eax
  412ff0:	je     0x413071
  412ff2:	mov    ebx,DWORD PTR [ebp-0x34]
  412ff5:	cmp    ebx,edi
  412ff7:	je     0x413016
  412ff9:	push   edi
  412ffa:	push   edi
  412ffb:	push   DWORD PTR [ebp+0x1c]
  412ffe:	push   ebx
  412fff:	push   esi
  413000:	push   DWORD PTR [ebp-0x1c]
  413003:	push   edi
  413004:	push   DWORD PTR [ebp+0xc]
  413007:	call   DWORD PTR ds:0x4192dc
  41300d:	test   eax,eax
  41300f:	je     0x413071
  413011:	mov    DWORD PTR [ebp-0x20],ebx
  413014:	jmp    0x413071
  413016:	mov    ebx,DWORD PTR ds:0x4192dc
  41301c:	cmp    DWORD PTR [ebp-0x2c],edi
  41301f:	jne    0x413035
  413021:	push   edi
  413022:	push   edi
  413023:	push   edi
  413024:	push   edi
  413025:	push   esi
  413026:	push   DWORD PTR [ebp-0x1c]
  413029:	push   edi
  41302a:	push   DWORD PTR [ebp+0xc]
  41302d:	call   ebx
  41302f:	mov    esi,eax
  413031:	cmp    esi,edi
  413033:	je     0x413071
  413035:	push   esi
  413036:	push   0x1
  413038:	call   0x408832
  41303d:	pop    ecx
  41303e:	pop    ecx
  41303f:	mov    DWORD PTR [ebp-0x20],eax
  413042:	cmp    eax,edi
  413044:	je     0x413071
  413046:	push   edi
  413047:	push   edi
  413048:	push   esi
  413049:	push   eax
  41304a:	push   esi
  41304b:	push   DWORD PTR [ebp-0x1c]
  41304e:	push   edi
  41304f:	push   DWORD PTR [ebp+0xc]
  413052:	call   ebx
  413054:	cmp    eax,edi
  413056:	jne    0x413066
  413058:	push   DWORD PTR [ebp-0x20]
  41305b:	call   0x40f63e
  413060:	pop    ecx
  413061:	mov    DWORD PTR [ebp-0x20],edi
  413064:	jmp    0x413071
  413066:	cmp    DWORD PTR [ebp-0x24],0xffffffff
  41306a:	je     0x413071
  41306c:	mov    ecx,DWORD PTR [ebp-0x30]
  41306f:	mov    DWORD PTR [ecx],eax
  413071:	push   DWORD PTR [ebp-0x1c]
  413074:	call   0x40f6cc
  413079:	pop    ecx
  41307a:	mov    eax,DWORD PTR [ebp-0x20]
  41307d:	lea    esp,[ebp-0x40]
  413080:	pop    edi
  413081:	pop    esi
  413082:	pop    ebx
  413083:	mov    ecx,DWORD PTR [ebp-0x4]
  413086:	xor    ecx,ebp
  413088:	call   0x40efb3
  41308d:	leave  
  41308e:	ret    
  41308f:	int3   
  413090:	push   ecx
  413091:	lea    ecx,[esp+0x8]
  413095:	sub    ecx,eax
  413097:	and    ecx,0xf
  41309a:	add    eax,ecx
  41309c:	sbb    ecx,ecx
  41309e:	or     eax,ecx
  4130a0:	pop    ecx
  4130a1:	jmp    0x415f20
  4130a6:	push   ecx
  4130a7:	lea    ecx,[esp+0x8]
  4130ab:	sub    ecx,eax
  4130ad:	and    ecx,0x7
  4130b0:	add    eax,ecx
  4130b2:	sbb    ecx,ecx
  4130b4:	or     eax,ecx
  4130b6:	pop    ecx
  4130b7:	jmp    0x415f20
  4130bc:	mov    edi,edi
  4130be:	push   ebp
  4130bf:	mov    ebp,esp
  4130c1:	sub    esp,0x10
  4130c4:	push   ebx
  4130c5:	xor    ebx,ebx
  4130c7:	push   esi
  4130c8:	push   edi
  4130c9:	cmp    DWORD PTR [ebp+0x10],ebx
  4130cc:	je     0x4131a7
  4130d2:	push   DWORD PTR [ebp+0x14]
  4130d5:	lea    ecx,[ebp-0x10]
  4130d8:	call   0x4046f4
  4130dd:	cmp    DWORD PTR [ebp+0x8],ebx
  4130e0:	jne    0x413110
  4130e2:	call   0x4087a4
  4130e7:	push   ebx
  4130e8:	push   ebx
  4130e9:	push   ebx
  4130ea:	push   ebx
  4130eb:	push   ebx
  4130ec:	mov    DWORD PTR [eax],0x16
  4130f2:	call   0x40873c
  4130f7:	add    esp,0x14
  4130fa:	cmp    BYTE PTR [ebp-0x4],bl
  4130fd:	je     0x413106
  4130ff:	mov    eax,DWORD PTR [ebp-0x8]
  413102:	and    DWORD PTR [eax+0x70],0xfffffffd
  413106:	mov    eax,0x7fffffff
  41310b:	jmp    0x4131a9
  413110:	mov    edi,DWORD PTR [ebp+0xc]
  413113:	cmp    edi,ebx
  413115:	je     0x4130e2
  413117:	mov    esi,0x7fffffff
  41311c:	cmp    DWORD PTR [ebp+0x10],esi
  41311f:	jbe    0x413149
  413121:	call   0x4087a4
  413126:	push   ebx
  413127:	push   ebx
  413128:	push   ebx
  413129:	push   ebx
  41312a:	push   ebx
  41312b:	mov    DWORD PTR [eax],0x16
  413131:	call   0x40873c
  413136:	add    esp,0x14
  413139:	cmp    BYTE PTR [ebp-0x4],bl
  41313c:	je     0x413145
  41313e:	mov    eax,DWORD PTR [ebp-0x8]
  413141:	and    DWORD PTR [eax+0x70],0xfffffffd
  413145:	mov    eax,esi
  413147:	jmp    0x4131a9
  413149:	mov    eax,DWORD PTR [ebp-0x10]
  41314c:	cmp    DWORD PTR [eax+0x14],ebx
  41314f:	jne    0x41316e
  413151:	push   DWORD PTR [ebp+0x10]
  413154:	push   edi
  413155:	push   DWORD PTR [ebp+0x8]
  413158:	call   0x415f50
  41315d:	add    esp,0xc
  413160:	cmp    BYTE PTR [ebp-0x4],bl
  413163:	je     0x4131a9
  413165:	mov    ecx,DWORD PTR [ebp-0x8]
  413168:	and    DWORD PTR [ecx+0x70],0xfffffffd
  41316c:	jmp    0x4131a9
  41316e:	mov    eax,DWORD PTR [ebp+0x8]
  413171:	movzx  eax,BYTE PTR [eax]
  413174:	lea    ecx,[ebp-0x10]
  413177:	push   ecx
  413178:	push   eax
  413179:	call   0x4112dc
  41317e:	inc    DWORD PTR [ebp+0x8]
  413181:	mov    esi,eax
  413183:	movzx  eax,BYTE PTR [edi]
  413186:	lea    ecx,[ebp-0x10]
  413189:	push   ecx
  41318a:	push   eax
  41318b:	call   0x4112dc
  413190:	add    esp,0x10
  413193:	inc    edi
  413194:	dec    DWORD PTR [ebp+0x10]
  413197:	je     0x4131a1
  413199:	cmp    esi,ebx
  41319b:	je     0x4131a1
  41319d:	cmp    esi,eax
  41319f:	je     0x41316e
  4131a1:	sub    esi,eax
  4131a3:	mov    eax,esi
  4131a5:	jmp    0x413160
  4131a7:	xor    eax,eax
  4131a9:	pop    edi
  4131aa:	pop    esi
  4131ab:	pop    ebx
  4131ac:	leave  
  4131ad:	ret    
  4131ae:	mov    edi,edi
  4131b0:	push   ebp
  4131b1:	mov    ebp,esp
  4131b3:	push   ebx
  4131b4:	push   esi
  4131b5:	mov    esi,DWORD PTR [ebp+0x8]
  4131b8:	push   edi
  4131b9:	xor    edi,edi
  4131bb:	or     ebx,0xffffffff
  4131be:	cmp    esi,edi
  4131c0:	jne    0x4131de
  4131c2:	call   0x4087a4
  4131c7:	push   edi
  4131c8:	push   edi
  4131c9:	push   edi
  4131ca:	push   edi
  4131cb:	push   edi
  4131cc:	mov    DWORD PTR [eax],0x16
  4131d2:	call   0x40873c
  4131d7:	add    esp,0x14
  4131da:	or     eax,ebx
  4131dc:	jmp    0x413220
  4131de:	test   BYTE PTR [esi+0xc],0x83
  4131e2:	je     0x41321b
  4131e4:	push   esi
  4131e5:	call   0x41028d
  4131ea:	push   esi
  4131eb:	mov    ebx,eax
  4131ed:	call   0x41611a
  4131f2:	push   esi
  4131f3:	call   0x410484
  4131f8:	push   eax
  4131f9:	call   0x41604d
  4131fe:	add    esp,0x10
  413201:	test   eax,eax
  413203:	jge    0x41320a
  413205:	or     ebx,0xffffffff
  413208:	jmp    0x41321b
  41320a:	mov    eax,DWORD PTR [esi+0x1c]
  41320d:	cmp    eax,edi
  41320f:	je     0x41321b
  413211:	push   eax
  413212:	call   0x40f63e
  413217:	pop    ecx
  413218:	mov    DWORD PTR [esi+0x1c],edi
  41321b:	mov    DWORD PTR [esi+0xc],edi
  41321e:	mov    eax,ebx
  413220:	pop    edi
  413221:	pop    esi
  413222:	pop    ebx
  413223:	pop    ebp
  413224:	ret    
  413225:	push   0xc
  413227:	push   0x41f130
  41322c:	call   0x40a868
  413231:	or     DWORD PTR [ebp-0x1c],0xffffffff
  413235:	xor    eax,eax
  413237:	mov    esi,DWORD PTR [ebp+0x8]
  41323a:	xor    edi,edi
  41323c:	cmp    esi,edi
  41323e:	setne  al
  413241:	cmp    eax,edi
  413243:	jne    0x413262
  413245:	call   0x4087a4
  41324a:	mov    DWORD PTR [eax],0x16
  413250:	push   edi
  413251:	push   edi
  413252:	push   edi
  413253:	push   edi
  413254:	push   edi
  413255:	call   0x40873c
  41325a:	add    esp,0x14
  41325d:	or     eax,0xffffffff
  413260:	jmp    0x41326e
  413262:	test   BYTE PTR [esi+0xc],0x40
  413266:	je     0x413274
  413268:	mov    DWORD PTR [esi+0xc],edi
  41326b:	mov    eax,DWORD PTR [ebp-0x1c]
  41326e:	call   0x40a8ad
  413273:	ret    
  413274:	push   esi
  413275:	call   0x409a7b
  41327a:	pop    ecx
  41327b:	mov    DWORD PTR [ebp-0x4],edi
  41327e:	push   esi
  41327f:	call   0x4131ae
  413284:	pop    ecx
  413285:	mov    DWORD PTR [ebp-0x1c],eax
  413288:	mov    DWORD PTR [ebp-0x4],0xfffffffe
  41328f:	call   0x413299
  413294:	jmp    0x41326b
  413296:	mov    esi,DWORD PTR [ebp+0x8]
  413299:	push   esi
  41329a:	call   0x409aee
  41329f:	pop    ecx
  4132a0:	ret    
  4132a1:	mov    edi,edi
  4132a3:	push   ebp
  4132a4:	mov    ebp,esp
  4132a6:	mov    eax,0x1ae4
  4132ab:	call   0x415f20
  4132b0:	mov    eax,ds:0x423d68
  4132b5:	xor    eax,ebp
  4132b7:	mov    DWORD PTR [ebp-0x4],eax
  4132ba:	mov    eax,DWORD PTR [ebp+0xc]
  4132bd:	push   esi
  4132be:	xor    esi,esi
  4132c0:	mov    DWORD PTR [ebp-0x1acc],eax
  4132c6:	mov    DWORD PTR [ebp-0x1ac8],esi
  4132cc:	mov    DWORD PTR [ebp-0x1ad0],esi
  4132d2:	cmp    DWORD PTR [ebp+0x10],esi
  4132d5:	jne    0x4132de
  4132d7:	xor    eax,eax
  4132d9:	jmp    0x4139c7
  4132de:	cmp    eax,esi
  4132e0:	jne    0x413309
  4132e2:	call   0x4087b7
  4132e7:	mov    DWORD PTR [eax],esi
  4132e9:	call   0x4087a4
  4132ee:	push   esi
  4132ef:	push   esi
  4132f0:	push   esi
  4132f1:	push   esi
  4132f2:	push   esi
  4132f3:	mov    DWORD PTR [eax],0x16
  4132f9:	call   0x40873c
  4132fe:	add    esp,0x14
  413301:	or     eax,0xffffffff
  413304:	jmp    0x4139c7
  413309:	push   ebx
  41330a:	push   edi
  41330b:	mov    edi,DWORD PTR [ebp+0x8]
  41330e:	mov    eax,edi
  413310:	sar    eax,0x5
  413313:	lea    esi,[eax*4+0x43ca40]
  41331a:	mov    eax,DWORD PTR [esi]
  41331c:	and    edi,0x1f
  41331f:	shl    edi,0x6
  413322:	add    eax,edi
  413324:	mov    bl,BYTE PTR [eax+0x24]
  413327:	add    bl,bl
  413329:	sar    bl,1
  41332b:	mov    DWORD PTR [ebp-0x1ad8],esi
  413331:	mov    BYTE PTR [ebp-0x1ad9],bl
  413337:	cmp    bl,0x2
  41333a:	je     0x413341
  41333c:	cmp    bl,0x1
  41333f:	jne    0x413371
  413341:	mov    ecx,DWORD PTR [ebp+0x10]
  413344:	not    ecx
  413346:	test   cl,0x1
  413349:	jne    0x413371
  41334b:	call   0x4087b7
  413350:	xor    esi,esi
  413352:	mov    DWORD PTR [eax],esi
  413354:	call   0x4087a4
  413359:	push   esi
  41335a:	push   esi
  41335b:	push   esi
  41335c:	push   esi
  41335d:	push   esi
  41335e:	mov    DWORD PTR [eax],0x16
  413364:	call   0x40873c
  413369:	add    esp,0x14
  41336c:	jmp    0x4139b4
  413371:	test   BYTE PTR [eax+0x4],0x20
  413375:	je     0x413388
  413377:	push   0x2
  413379:	push   0x0
  41337b:	push   0x0
  41337d:	push   DWORD PTR [ebp+0x8]
  413380:	call   0x413b91
  413385:	add    esp,0x10
  413388:	push   DWORD PTR [ebp+0x8]
  41338b:	call   0x410420
  413390:	pop    ecx
  413391:	test   eax,eax
  413393:	je     0x413636
  413399:	mov    eax,DWORD PTR [esi]
  41339b:	test   BYTE PTR [edi+eax*1+0x4],0x80
  4133a0:	je     0x413636
  4133a6:	call   0x408be5
  4133ab:	mov    eax,DWORD PTR [eax+0x6c]
  4133ae:	xor    ecx,ecx
  4133b0:	cmp    DWORD PTR [eax+0x14],ecx
  4133b3:	lea    eax,[ebp-0x1ae4]
  4133b9:	sete   cl
  4133bc:	push   eax
  4133bd:	mov    eax,DWORD PTR [esi]
  4133bf:	push   DWORD PTR [edi+eax*1]
  4133c2:	mov    DWORD PTR [ebp-0x1ae0],ecx
  4133c8:	call   DWORD PTR ds:0x4194f0
  4133ce:	test   eax,eax
  4133d0:	je     0x413636
  4133d6:	xor    ecx,ecx
  4133d8:	cmp    DWORD PTR [ebp-0x1ae0],ecx
  4133de:	je     0x4133e8
  4133e0:	test   bl,bl
  4133e2:	je     0x413638
  4133e8:	call   DWORD PTR ds:0x4194ec
  4133ee:	mov    ebx,DWORD PTR [ebp-0x1acc]
  4133f4:	mov    DWORD PTR [ebp-0x1ae4],eax
  4133fa:	xor    eax,eax
  4133fc:	mov    DWORD PTR [ebp-0x1ac4],eax
  413402:	cmp    DWORD PTR [ebp+0x10],eax
  413405:	jbe    0x41394d
  41340b:	mov    DWORD PTR [ebp-0x1abc],eax
  413411:	mov    al,BYTE PTR [ebp-0x1ad9]
  413417:	test   al,al
  413419:	jne    0x413586
  41341f:	mov    cl,BYTE PTR [ebx]
  413421:	mov    esi,DWORD PTR [ebp-0x1ad8]
  413427:	xor    eax,eax
  413429:	cmp    cl,0xa
  41342c:	sete   al
  41342f:	mov    DWORD PTR [ebp-0x1ae0],eax
  413435:	mov    eax,DWORD PTR [esi]
  413437:	add    eax,edi
  413439:	cmp    DWORD PTR [eax+0x38],0x0
  41343d:	je     0x413454
  41343f:	mov    dl,BYTE PTR [eax+0x34]
  413442:	mov    BYTE PTR [ebp-0xc],dl
  413445:	mov    BYTE PTR [ebp-0xb],cl
  413448:	and    DWORD PTR [eax+0x38],0x0
  41344c:	push   0x2
  41344e:	lea    eax,[ebp-0xc]
  413451:	push   eax
  413452:	jmp    0x41349f
  413454:	movsx  eax,cl
  413457:	push   eax
  413458:	call   0x4107db
  41345d:	pop    ecx
  41345e:	test   eax,eax
  413460:	je     0x41349c
  413462:	mov    ecx,DWORD PTR [ebp-0x1acc]
  413468:	sub    ecx,ebx
  41346a:	add    ecx,DWORD PTR [ebp+0x10]
  41346d:	xor    eax,eax
  41346f:	inc    eax
  413470:	cmp    ecx,eax
  413472:	jbe    0x41361d
  413478:	push   0x2
  41347a:	lea    eax,[ebp-0x1ac0]
  413480:	push   ebx
  413481:	push   eax
  413482:	call   0x416327
  413487:	add    esp,0xc
  41348a:	cmp    eax,0xffffffff
  41348d:	je     0x413944
  413493:	inc    ebx
  413494:	inc    DWORD PTR [ebp-0x1abc]
  41349a:	jmp    0x4134b7
  41349c:	push   0x1
  41349e:	push   ebx
  41349f:	lea    eax,[ebp-0x1ac0]
  4134a5:	push   eax
  4134a6:	call   0x416327
  4134ab:	add    esp,0xc
  4134ae:	cmp    eax,0xffffffff
  4134b1:	je     0x413944
  4134b7:	xor    eax,eax
  4134b9:	push   eax
  4134ba:	push   eax
  4134bb:	push   0x5
  4134bd:	lea    ecx,[ebp-0xc]
  4134c0:	push   ecx
  4134c1:	push   0x1
  4134c3:	lea    ecx,[ebp-0x1ac0]
  4134c9:	push   ecx
  4134ca:	push   eax
  4134cb:	push   DWORD PTR [ebp-0x1ae4]
  4134d1:	inc    ebx
  4134d2:	inc    DWORD PTR [ebp-0x1abc]
  4134d8:	call   DWORD PTR ds:0x4192dc
  4134de:	mov    esi,eax
  4134e0:	test   esi,esi
  4134e2:	je     0x413944
  4134e8:	push   0x0
  4134ea:	lea    eax,[ebp-0x1ac4]
  4134f0:	push   eax
  4134f1:	push   esi
  4134f2:	lea    eax,[ebp-0xc]
  4134f5:	push   eax
  4134f6:	mov    eax,DWORD PTR [ebp-0x1ad8]
  4134fc:	mov    eax,DWORD PTR [eax]
  4134fe:	push   DWORD PTR [edi+eax*1]
  413501:	call   DWORD PTR ds:0x4192b0
  413507:	test   eax,eax
  413509:	je     0x413938
  41350f:	mov    eax,DWORD PTR [ebp-0x1abc]
  413515:	mov    ecx,DWORD PTR [ebp-0x1ad0]
  41351b:	add    eax,ecx
  41351d:	cmp    DWORD PTR [ebp-0x1ac4],esi
  413523:	mov    DWORD PTR [ebp-0x1ac8],eax
  413529:	jl     0x413944
  41352f:	cmp    DWORD PTR [ebp-0x1ae0],0x0
  413536:	je     0x413609
  41353c:	push   0x0
  41353e:	lea    eax,[ebp-0x1ac4]
  413544:	push   eax
  413545:	push   0x1
  413547:	lea    eax,[ebp-0xc]
  41354a:	push   eax
  41354b:	mov    eax,DWORD PTR [ebp-0x1ad8]
  413551:	mov    eax,DWORD PTR [eax]
  413553:	mov    BYTE PTR [ebp-0xc],0xd
  413557:	push   DWORD PTR [edi+eax*1]
  41355a:	call   DWORD PTR ds:0x4192b0
  413560:	test   eax,eax
  413562:	je     0x413938
  413568:	cmp    DWORD PTR [ebp-0x1ac4],0x1
  41356f:	jl     0x413944
  413575:	inc    DWORD PTR [ebp-0x1ad0]
  41357b:	inc    DWORD PTR [ebp-0x1ac8]
  413581:	jmp    0x413609
  413586:	cmp    al,0x1
  413588:	je     0x41358e
  41358a:	cmp    al,0x2
  41358c:	jne    0x4135af
  41358e:	movzx  esi,WORD PTR [ebx]
  413591:	xor    ecx,ecx
  413593:	cmp    si,0xa
  413597:	sete   cl
  41359a:	inc    ebx
  41359b:	inc    ebx
  41359c:	add    DWORD PTR [ebp-0x1abc],0x2
  4135a3:	mov    DWORD PTR [ebp-0x1ac0],esi
  4135a9:	mov    DWORD PTR [ebp-0x1ae0],ecx
  4135af:	cmp    al,0x1
  4135b1:	je     0x4135b7
  4135b3:	cmp    al,0x2
  4135b5:	jne    0x413609
  4135b7:	push   DWORD PTR [ebp-0x1ac0]
  4135bd:	call   0x41614b
  4135c2:	pop    ecx
  4135c3:	cmp    ax,WORD PTR [ebp-0x1ac0]
  4135ca:	jne    0x413938
  4135d0:	add    DWORD PTR [ebp-0x1ac8],0x2
  4135d7:	cmp    DWORD PTR [ebp-0x1ae0],0x0
  4135de:	je     0x413609
  4135e0:	push   0xd
  4135e2:	pop    eax
  4135e3:	push   eax
  4135e4:	mov    DWORD PTR [ebp-0x1ac0],eax
  4135ea:	call   0x41614b
  4135ef:	pop    ecx
  4135f0:	cmp    ax,WORD PTR [ebp-0x1ac0]
  4135f7:	jne    0x413938
  4135fd:	inc    DWORD PTR [ebp-0x1ac8]
  413603:	inc    DWORD PTR [ebp-0x1ad0]
  413609:	mov    eax,DWORD PTR [ebp+0x10]
  41360c:	cmp    DWORD PTR [ebp-0x1abc],eax
  413612:	jb     0x413411
  413618:	jmp    0x413944
  41361d:	mov    ecx,DWORD PTR [esi]
  41361f:	mov    dl,BYTE PTR [ebx]
  413621:	inc    DWORD PTR [ebp-0x1ac8]
  413627:	mov    BYTE PTR [edi+ecx*1+0x34],dl
  41362b:	mov    ecx,DWORD PTR [esi]
  41362d:	mov    DWORD PTR [edi+ecx*1+0x38],eax
  413631:	jmp    0x413944
  413636:	xor    ecx,ecx
  413638:	mov    eax,DWORD PTR [esi]
  41363a:	add    eax,edi
  41363c:	test   BYTE PTR [eax+0x4],0x80
  413640:	je     0x413905
  413646:	mov    eax,DWORD PTR [ebp-0x1acc]
  41364c:	mov    DWORD PTR [ebp-0x1ac0],ecx
  413652:	test   bl,bl
  413654:	jne    0x413724
  41365a:	mov    DWORD PTR [ebp-0x1ac4],eax
  413660:	cmp    DWORD PTR [ebp+0x10],ecx
  413663:	jbe    0x413989
  413669:	jmp    0x413671
  41366b:	mov    esi,DWORD PTR [ebp-0x1ad8]
  413671:	mov    ecx,DWORD PTR [ebp-0x1ac4]
  413677:	and    DWORD PTR [ebp-0x1abc],0x0
  41367e:	sub    ecx,DWORD PTR [ebp-0x1acc]
  413684:	lea    eax,[ebp-0x1ab8]
  41368a:	cmp    ecx,DWORD PTR [ebp+0x10]
  41368d:	jae    0x4136c8
  41368f:	mov    edx,DWORD PTR [ebp-0x1ac4]
  413695:	inc    DWORD PTR [ebp-0x1ac4]
  41369b:	mov    dl,BYTE PTR [edx]
  41369d:	inc    ecx
  41369e:	cmp    dl,0xa
  4136a1:	jne    0x4136b3
  4136a3:	inc    DWORD PTR [ebp-0x1ad0]
  4136a9:	mov    BYTE PTR [eax],0xd
  4136ac:	inc    eax
  4136ad:	inc    DWORD PTR [ebp-0x1abc]
  4136b3:	mov    BYTE PTR [eax],dl
  4136b5:	inc    eax
  4136b6:	inc    DWORD PTR [ebp-0x1abc]
  4136bc:	cmp    DWORD PTR [ebp-0x1abc],0x13ff
  4136c6:	jb     0x41368a
  4136c8:	mov    ebx,eax
  4136ca:	lea    eax,[ebp-0x1ab8]
  4136d0:	sub    ebx,eax
  4136d2:	push   0x0
  4136d4:	lea    eax,[ebp-0x1ad4]
  4136da:	push   eax
  4136db:	push   ebx
  4136dc:	lea    eax,[ebp-0x1ab8]
  4136e2:	push   eax
  4136e3:	mov    eax,DWORD PTR [esi]
  4136e5:	push   DWORD PTR [edi+eax*1]
  4136e8:	call   DWORD PTR ds:0x4192b0
  4136ee:	test   eax,eax
  4136f0:	je     0x413938
  4136f6:	mov    eax,DWORD PTR [ebp-0x1ad4]
  4136fc:	add    DWORD PTR [ebp-0x1ac8],eax
  413702:	cmp    eax,ebx
  413704:	jl     0x413944
  41370a:	mov    eax,DWORD PTR [ebp-0x1ac4]
  413710:	sub    eax,DWORD PTR [ebp-0x1acc]
  413716:	cmp    eax,DWORD PTR [ebp+0x10]
  413719:	jb     0x41366b
  41371f:	jmp    0x413944
  413724:	mov    DWORD PTR [ebp-0x1abc],eax
  41372a:	cmp    bl,0x2
  41372d:	jne    0x413804
  413733:	cmp    DWORD PTR [ebp+0x10],ecx
  413736:	jbe    0x413989
  41373c:	jmp    0x413744
  41373e:	mov    esi,DWORD PTR [ebp-0x1ad8]
  413744:	mov    ecx,DWORD PTR [ebp-0x1abc]
  41374a:	and    DWORD PTR [ebp-0x1ac4],0x0
  413751:	sub    ecx,DWORD PTR [ebp-0x1acc]
  413757:	lea    eax,[ebp-0x1ab8]
  41375d:	cmp    ecx,DWORD PTR [ebp+0x10]
  413760:	jae    0x4137a8
  413762:	mov    edx,DWORD PTR [ebp-0x1abc]
  413768:	add    DWORD PTR [ebp-0x1abc],0x2
  41376f:	movzx  edx,WORD PTR [edx]
  413772:	inc    ecx
  413773:	inc    ecx
  413774:	cmp    dx,0xa
  413778:	jne    0x413790
  41377a:	add    DWORD PTR [ebp-0x1ad0],0x2
  413781:	push   0xd
  413783:	pop    ebx
  413784:	mov    WORD PTR [eax],bx
  413787:	inc    eax
  413788:	inc    eax
  413789:	add    DWORD PTR [ebp-0x1ac4],0x2
  413790:	add    DWORD PTR [ebp-0x1ac4],0x2
  413797:	mov    WORD PTR [eax],dx
  41379a:	inc    eax
  41379b:	inc    eax
  41379c:	cmp    DWORD PTR [ebp-0x1ac4],0x13fe
  4137a6:	jb     0x41375d
  4137a8:	mov    ebx,eax
  4137aa:	lea    eax,[ebp-0x1ab8]
  4137b0:	sub    ebx,eax
  4137b2:	push   0x0
  4137b4:	lea    eax,[ebp-0x1ad4]
  4137ba:	push   eax
  4137bb:	push   ebx
  4137bc:	lea    eax,[ebp-0x1ab8]
  4137c2:	push   eax
  4137c3:	mov    eax,DWORD PTR [esi]
  4137c5:	push   DWORD PTR [edi+eax*1]
  4137c8:	call   DWORD PTR ds:0x4192b0
  4137ce:	test   eax,eax
  4137d0:	je     0x413938
  4137d6:	mov    eax,DWORD PTR [ebp-0x1ad4]
  4137dc:	add    DWORD PTR [ebp-0x1ac8],eax
  4137e2:	cmp    eax,ebx
  4137e4:	jl     0x413944
  4137ea:	mov    eax,DWORD PTR [ebp-0x1abc]
  4137f0:	sub    eax,DWORD PTR [ebp-0x1acc]
  4137f6:	cmp    eax,DWORD PTR [ebp+0x10]
  4137f9:	jb     0x41373e
  4137ff:	jmp    0x413944
  413804:	cmp    DWORD PTR [ebp+0x10],ecx
  413807:	jbe    0x413989
  41380d:	mov    ecx,DWORD PTR [ebp-0x1abc]
  413813:	and    DWORD PTR [ebp-0x1ac4],0x0
  41381a:	sub    ecx,DWORD PTR [ebp-0x1acc]
  413820:	push   0x2
  413822:	lea    eax,[ebp-0x6b8]
  413828:	pop    esi
  413829:	cmp    ecx,DWORD PTR [ebp+0x10]
  41382c:	jae    0x41386a
  41382e:	mov    edx,DWORD PTR [ebp-0x1abc]
  413834:	movzx  edx,WORD PTR [edx]
  413837:	add    DWORD PTR [ebp-0x1abc],esi
  41383d:	add    ecx,esi
  41383f:	cmp    dx,0xa
  413843:	jne    0x413853
  413845:	push   0xd
  413847:	pop    ebx
  413848:	mov    WORD PTR [eax],bx
  41384b:	add    eax,esi
  41384d:	add    DWORD PTR [ebp-0x1ac4],esi
  413853:	add    DWORD PTR [ebp-0x1ac4],esi
  413859:	mov    WORD PTR [eax],dx
  41385c:	add    eax,esi
  41385e:	cmp    DWORD PTR [ebp-0x1ac4],0x6a8
  413868:	jb     0x413829
  41386a:	xor    esi,esi
  41386c:	push   esi
  41386d:	push   esi
  41386e:	push   0xd55
  413873:	lea    ecx,[ebp-0x1410]
  413879:	push   ecx
  41387a:	lea    ecx,[ebp-0x6b8]
  413880:	sub    eax,ecx
  413882:	cdq    
  413883:	sub    eax,edx
  413885:	sar    eax,1
  413887:	push   eax
  413888:	mov    eax,ecx
  41388a:	push   eax
  41388b:	push   esi
  41388c:	push   0xfde9
  413891:	call   DWORD PTR ds:0x4192dc
  413897:	mov    ebx,eax
  413899:	cmp    ebx,esi
  41389b:	je     0x413938
  4138a1:	push   0x0
  4138a3:	lea    eax,[ebp-0x1ad4]
  4138a9:	push   eax
  4138aa:	mov    eax,ebx
  4138ac:	sub    eax,esi
  4138ae:	push   eax
  4138af:	lea    eax,[ebp+esi*1-0x1410]
  4138b6:	push   eax
  4138b7:	mov    eax,DWORD PTR [ebp-0x1ad8]
  4138bd:	mov    eax,DWORD PTR [eax]
  4138bf:	push   DWORD PTR [edi+eax*1]
  4138c2:	call   DWORD PTR ds:0x4192b0
  4138c8:	test   eax,eax
  4138ca:	je     0x4138d8
  4138cc:	add    esi,DWORD PTR [ebp-0x1ad4]
  4138d2:	cmp    ebx,esi
  4138d4:	jg     0x4138a1
  4138d6:	jmp    0x4138e4
  4138d8:	call   DWORD PTR ds:0x41927c
  4138de:	mov    DWORD PTR [ebp-0x1ac0],eax
  4138e4:	cmp    ebx,esi
  4138e6:	jg     0x413944
  4138e8:	mov    eax,DWORD PTR [ebp-0x1abc]
  4138ee:	sub    eax,DWORD PTR [ebp-0x1acc]
  4138f4:	mov    DWORD PTR [ebp-0x1ac8],eax
  4138fa:	cmp    eax,DWORD PTR [ebp+0x10]
  4138fd:	jb     0x41380d
  413903:	jmp    0x413944
  413905:	push   0x0
  413907:	lea    ecx,[ebp-0x1ad4]
  41390d:	push   ecx
  41390e:	push   DWORD PTR [ebp+0x10]
  413911:	push   DWORD PTR [ebp-0x1acc]
  413917:	push   DWORD PTR [eax]
  413919:	call   DWORD PTR ds:0x4192b0
  41391f:	test   eax,eax
  413921:	je     0x413938
  413923:	mov    eax,DWORD PTR [ebp-0x1ad4]
  413929:	and    DWORD PTR [ebp-0x1ac0],0x0
  413930:	mov    DWORD PTR [ebp-0x1ac8],eax
  413936:	jmp    0x413944
  413938:	call   DWORD PTR ds:0x41927c
  41393e:	mov    DWORD PTR [ebp-0x1ac0],eax
  413944:	cmp    DWORD PTR [ebp-0x1ac8],0x0
  41394b:	jne    0x4139b9
  41394d:	cmp    DWORD PTR [ebp-0x1ac0],0x0
  413954:	je     0x413983
  413956:	push   0x5
  413958:	pop    esi
  413959:	cmp    DWORD PTR [ebp-0x1ac0],esi
  41395f:	jne    0x413975
  413961:	call   0x4087a4
  413966:	mov    DWORD PTR [eax],0x9
  41396c:	call   0x4087b7
  413971:	mov    DWORD PTR [eax],esi
  413973:	jmp    0x4139b4
  413975:	push   DWORD PTR [ebp-0x1ac0]
  41397b:	call   0x4087ca
  413980:	pop    ecx
  413981:	jmp    0x4139b4
  413983:	mov    esi,DWORD PTR [ebp-0x1ad8]
  413989:	mov    eax,DWORD PTR [esi]
  41398b:	test   BYTE PTR [edi+eax*1+0x4],0x40
  413990:	je     0x4139a1
  413992:	mov    eax,DWORD PTR [ebp-0x1acc]
  413998:	cmp    BYTE PTR [eax],0x1a
  41399b:	jne    0x4139a1
  41399d:	xor    eax,eax
  41399f:	jmp    0x4139c5
  4139a1:	call   0x4087a4
  4139a6:	mov    DWORD PTR [eax],0x1c
  4139ac:	call   0x4087b7
  4139b1:	and    DWORD PTR [eax],0x0
  4139b4:	or     eax,0xffffffff
  4139b7:	jmp    0x4139c5
  4139b9:	mov    eax,DWORD PTR [ebp-0x1ac8]
  4139bf:	sub    eax,DWORD PTR [ebp-0x1ad0]
  4139c5:	pop    edi
  4139c6:	pop    ebx
  4139c7:	mov    ecx,DWORD PTR [ebp-0x4]
  4139ca:	xor    ecx,ebp
  4139cc:	pop    esi
  4139cd:	call   0x40efb3
  4139d2:	leave  
  4139d3:	ret    
  4139d4:	push   0x10
  4139d6:	push   0x41f150
  4139db:	call   0x40a868
  4139e0:	mov    eax,DWORD PTR [ebp+0x8]
  4139e3:	cmp    eax,0xfffffffe
  4139e6:	jne    0x413a03
  4139e8:	call   0x4087b7
  4139ed:	and    DWORD PTR [eax],0x0
  4139f0:	call   0x4087a4
  4139f5:	mov    DWORD PTR [eax],0x9
  4139fb:	or     eax,0xffffffff
  4139fe:	jmp    0x413aa0
  413a03:	xor    edi,edi
  413a05:	cmp    eax,edi
  413a07:	jl     0x413a11
  413a09:	cmp    eax,DWORD PTR ds:0x43ca2c
  413a0f:	jb     0x413a32
  413a11:	call   0x4087b7
  413a16:	mov    DWORD PTR [eax],edi
  413a18:	call   0x4087a4
  413a1d:	mov    DWORD PTR [eax],0x9
  413a23:	push   edi
  413a24:	push   edi
  413a25:	push   edi
  413a26:	push   edi
  413a27:	push   edi
  413a28:	call   0x40873c
  413a2d:	add    esp,0x14
  413a30:	jmp    0x4139fb
  413a32:	mov    ecx,eax
  413a34:	sar    ecx,0x5
  413a37:	lea    ebx,[ecx*4+0x43ca40]
  413a3e:	mov    esi,eax
  413a40:	and    esi,0x1f
  413a43:	shl    esi,0x6
  413a46:	mov    ecx,DWORD PTR [ebx]
  413a48:	movsx  ecx,BYTE PTR [ecx+esi*1+0x4]
  413a4d:	and    ecx,0x1
  413a50:	je     0x413a11
  413a52:	push   eax
  413a53:	call   0x41643e
  413a58:	pop    ecx
  413a59:	mov    DWORD PTR [ebp-0x4],edi
  413a5c:	mov    eax,DWORD PTR [ebx]
  413a5e:	test   BYTE PTR [eax+esi*1+0x4],0x1
  413a63:	je     0x413a7b
  413a65:	push   DWORD PTR [ebp+0x10]
  413a68:	push   DWORD PTR [ebp+0xc]
  413a6b:	push   DWORD PTR [ebp+0x8]
  413a6e:	call   0x4132a1
  413a73:	add    esp,0xc
  413a76:	mov    DWORD PTR [ebp-0x1c],eax
  413a79:	jmp    0x413a91
  413a7b:	call   0x4087a4
  413a80:	mov    DWORD PTR [eax],0x9
  413a86:	call   0x4087b7
  413a8b:	mov    DWORD PTR [eax],edi
  413a8d:	or     DWORD PTR [ebp-0x1c],0xffffffff
  413a91:	mov    DWORD PTR [ebp-0x4],0xfffffffe
  413a98:	call   0x413aa6
  413a9d:	mov    eax,DWORD PTR [ebp-0x1c]
  413aa0:	call   0x40a8ad
  413aa5:	ret    
  413aa6:	push   DWORD PTR [ebp+0x8]
  413aa9:	call   0x4164de
  413aae:	pop    ecx
  413aaf:	ret    
  413ab0:	push   0x10
  413ab2:	push   0x41f170
  413ab7:	call   0x40a868
  413abc:	mov    eax,DWORD PTR [ebp+0x8]
  413abf:	cmp    eax,0xfffffffe
  413ac2:	jne    0x413ad7
  413ac4:	call   0x4087a4
  413ac9:	mov    DWORD PTR [eax],0x9
  413acf:	or     eax,0xffffffff
  413ad2:	jmp    0x413b81
  413ad7:	xor    ebx,ebx
  413ad9:	cmp    eax,ebx
  413adb:	jl     0x413ae5
  413add:	cmp    eax,DWORD PTR ds:0x43ca2c
  413ae3:	jb     0x413aff
  413ae5:	call   0x4087a4
  413aea:	mov    DWORD PTR [eax],0x9
  413af0:	push   ebx
  413af1:	push   ebx
  413af2:	push   ebx
  413af3:	push   ebx
  413af4:	push   ebx
  413af5:	call   0x40873c
  413afa:	add    esp,0x14
  413afd:	jmp    0x413acf
  413aff:	mov    ecx,eax
  413b01:	sar    ecx,0x5
  413b04:	lea    edi,[ecx*4+0x43ca40]
  413b0b:	mov    esi,eax
  413b0d:	and    esi,0x1f
  413b10:	shl    esi,0x6
  413b13:	mov    ecx,DWORD PTR [edi]
  413b15:	movsx  ecx,BYTE PTR [esi+ecx*1+0x4]
  413b1a:	and    ecx,0x1
  413b1d:	je     0x413ae5
  413b1f:	push   eax
  413b20:	call   0x41643e
  413b25:	pop    ecx
  413b26:	mov    DWORD PTR [ebp-0x4],ebx
  413b29:	mov    eax,DWORD PTR [edi]
  413b2b:	test   BYTE PTR [esi+eax*1+0x4],0x1
  413b30:	je     0x413b63
  413b32:	push   DWORD PTR [ebp+0x8]
  413b35:	call   0x4163c7
  413b3a:	pop    ecx
  413b3b:	push   eax
  413b3c:	call   DWORD PTR ds:0x4194f4
  413b42:	test   eax,eax
  413b44:	jne    0x413b51
  413b46:	call   DWORD PTR ds:0x41927c
  413b4c:	mov    DWORD PTR [ebp-0x1c],eax
  413b4f:	jmp    0x413b54
  413b51:	mov    DWORD PTR [ebp-0x1c],ebx
  413b54:	cmp    DWORD PTR [ebp-0x1c],ebx
  413b57:	je     0x413b72
  413b59:	call   0x4087b7
  413b5e:	mov    ecx,DWORD PTR [ebp-0x1c]
  413b61:	mov    DWORD PTR [eax],ecx
  413b63:	call   0x4087a4
  413b68:	mov    DWORD PTR [eax],0x9
  413b6e:	or     DWORD PTR [ebp-0x1c],0xffffffff
  413b72:	mov    DWORD PTR [ebp-0x4],0xfffffffe
  413b79:	call   0x413b87
  413b7e:	mov    eax,DWORD PTR [ebp-0x1c]
  413b81:	call   0x40a8ad
  413b86:	ret    
  413b87:	push   DWORD PTR [ebp+0x8]
  413b8a:	call   0x4164de
  413b8f:	pop    ecx
  413b90:	ret    
  413b91:	mov    edi,edi
  413b93:	push   ebp
  413b94:	mov    ebp,esp
  413b96:	push   ecx
  413b97:	push   ecx
  413b98:	mov    eax,DWORD PTR [ebp+0xc]
  413b9b:	push   esi
  413b9c:	mov    esi,DWORD PTR [ebp+0x8]
  413b9f:	mov    DWORD PTR [ebp-0x8],eax
  413ba2:	mov    eax,DWORD PTR [ebp+0x10]
  413ba5:	push   edi
  413ba6:	push   esi
  413ba7:	mov    DWORD PTR [ebp-0x4],eax
  413baa:	call   0x4163c7
  413baf:	or     edi,0xffffffff
  413bb2:	pop    ecx
  413bb3:	cmp    eax,edi
  413bb5:	jne    0x413bc8
  413bb7:	call   0x4087a4
  413bbc:	mov    DWORD PTR [eax],0x9
  413bc2:	mov    eax,edi
  413bc4:	mov    edx,edi
  413bc6:	jmp    0x413c12
  413bc8:	push   DWORD PTR [ebp+0x14]
  413bcb:	lea    ecx,[ebp-0x4]
  413bce:	push   ecx
  413bcf:	push   DWORD PTR [ebp-0x8]
  413bd2:	push   eax
  413bd3:	call   DWORD PTR ds:0x41944c
  413bd9:	mov    DWORD PTR [ebp-0x8],eax
  413bdc:	cmp    eax,edi
  413bde:	jne    0x413bf3
  413be0:	call   DWORD PTR ds:0x41927c
  413be6:	test   eax,eax
  413be8:	je     0x413bf3
  413bea:	push   eax
  413beb:	call   0x4087ca
  413bf0:	pop    ecx
  413bf1:	jmp    0x413bc2
  413bf3:	mov    eax,esi
  413bf5:	sar    eax,0x5
  413bf8:	mov    eax,DWORD PTR [eax*4+0x43ca40]
  413bff:	and    esi,0x1f
  413c02:	shl    esi,0x6
  413c05:	lea    eax,[eax+esi*1+0x4]
  413c09:	and    BYTE PTR [eax],0xfd
  413c0c:	mov    eax,DWORD PTR [ebp-0x8]
  413c0f:	mov    edx,DWORD PTR [ebp-0x4]
  413c12:	pop    edi
  413c13:	pop    esi
  413c14:	leave  
  413c15:	ret    
  413c16:	push   0x14
  413c18:	push   0x41f190
  413c1d:	call   0x40a868
  413c22:	or     esi,0xffffffff
  413c25:	mov    DWORD PTR [ebp-0x24],esi
  413c28:	mov    DWORD PTR [ebp-0x20],esi
  413c2b:	mov    eax,DWORD PTR [ebp+0x8]
  413c2e:	cmp    eax,0xfffffffe
  413c31:	jne    0x413c4f
  413c33:	call   0x4087b7
  413c38:	and    DWORD PTR [eax],0x0
  413c3b:	call   0x4087a4
  413c40:	mov    DWORD PTR [eax],0x9
  413c46:	mov    eax,esi
  413c48:	mov    edx,esi
  413c4a:	jmp    0x413d1f
  413c4f:	xor    edi,edi
  413c51:	cmp    eax,edi
  413c53:	jl     0x413c5d
  413c55:	cmp    eax,DWORD PTR ds:0x43ca2c
  413c5b:	jb     0x413c7e
  413c5d:	call   0x4087b7
  413c62:	mov    DWORD PTR [eax],edi
  413c64:	call   0x4087a4
  413c69:	mov    DWORD PTR [eax],0x9
  413c6f:	push   edi
  413c70:	push   edi
  413c71:	push   edi
  413c72:	push   edi
  413c73:	push   edi
  413c74:	call   0x40873c
  413c79:	add    esp,0x14
  413c7c:	jmp    0x413c46
  413c7e:	mov    ecx,eax
  413c80:	sar    ecx,0x5
  413c83:	lea    ebx,[ecx*4+0x43ca40]
  413c8a:	mov    esi,eax
  413c8c:	and    esi,0x1f
  413c8f:	shl    esi,0x6
  413c92:	mov    ecx,DWORD PTR [ebx]
  413c94:	movsx  ecx,BYTE PTR [ecx+esi*1+0x4]
  413c99:	and    ecx,0x1
  413c9c:	jne    0x413cc4
  413c9e:	call   0x4087b7
  413ca3:	mov    DWORD PTR [eax],edi
  413ca5:	call   0x4087a4
  413caa:	mov    DWORD PTR [eax],0x9
  413cb0:	push   edi
  413cb1:	push   edi
  413cb2:	push   edi
  413cb3:	push   edi
  413cb4:	push   edi
  413cb5:	call   0x40873c
  413cba:	add    esp,0x14
  413cbd:	or     edx,0xffffffff
  413cc0:	mov    eax,edx
  413cc2:	jmp    0x413d1f
  413cc4:	push   eax
  413cc5:	call   0x41643e
  413cca:	pop    ecx
  413ccb:	mov    DWORD PTR [ebp-0x4],edi
  413cce:	mov    eax,DWORD PTR [ebx]
  413cd0:	test   BYTE PTR [eax+esi*1+0x4],0x1
  413cd5:	je     0x413cf3
  413cd7:	push   DWORD PTR [ebp+0x14]
  413cda:	push   DWORD PTR [ebp+0x10]
  413cdd:	push   DWORD PTR [ebp+0xc]
  413ce0:	push   DWORD PTR [ebp+0x8]
  413ce3:	call   0x413b91
  413ce8:	add    esp,0x10
  413ceb:	mov    DWORD PTR [ebp-0x24],eax
  413cee:	mov    DWORD PTR [ebp-0x20],edx
  413cf1:	jmp    0x413d0d
  413cf3:	call   0x4087a4
  413cf8:	mov    DWORD PTR [eax],0x9
  413cfe:	call   0x4087b7
  413d03:	mov    DWORD PTR [eax],edi
  413d05:	or     DWORD PTR [ebp-0x24],0xffffffff
  413d09:	or     DWORD PTR [ebp-0x20],0xffffffff
  413d0d:	mov    DWORD PTR [ebp-0x4],0xfffffffe
  413d14:	call   0x413d25
  413d19:	mov    eax,DWORD PTR [ebp-0x24]
  413d1c:	mov    edx,DWORD PTR [ebp-0x20]
  413d1f:	call   0x40a8ad
  413d24:	ret    
  413d25:	push   DWORD PTR [ebp+0x8]
  413d28:	call   0x4164de
  413d2d:	pop    ecx
  413d2e:	ret    
  413d2f:	mov    edi,edi
  413d31:	push   ebp
  413d32:	mov    ebp,esp
  413d34:	inc    DWORD PTR ds:0x43c008
  413d3a:	push   0x1000
  413d3f:	call   0x4087ed
  413d44:	pop    ecx
  413d45:	mov    ecx,DWORD PTR [ebp+0x8]
  413d48:	mov    DWORD PTR [ecx+0x8],eax
  413d4b:	test   eax,eax
  413d4d:	je     0x413d5c
  413d4f:	or     DWORD PTR [ecx+0xc],0x8
  413d53:	mov    DWORD PTR [ecx+0x18],0x1000
  413d5a:	jmp    0x413d6d
  413d5c:	or     DWORD PTR [ecx+0xc],0x4
  413d60:	lea    eax,[ecx+0x14]
  413d63:	mov    DWORD PTR [ecx+0x8],eax
  413d66:	mov    DWORD PTR [ecx+0x18],0x2
  413d6d:	mov    eax,DWORD PTR [ecx+0x8]
  413d70:	and    DWORD PTR [ecx+0x4],0x0
  413d74:	mov    DWORD PTR [ecx],eax
  413d76:	pop    ebp
  413d77:	ret    
  413d78:	push   ebp
  413d79:	mov    ebp,esp
  413d7b:	push   ebx
  413d7c:	push   esi
  413d7d:	push   edi
  413d7e:	push   ebp
  413d7f:	push   0x0
  413d81:	push   0x0
  413d83:	push   0x413d90
  413d88:	push   DWORD PTR [ebp+0x8]
  413d8b:	call   0x4170de
  413d90:	pop    ebp
  413d91:	pop    edi
  413d92:	pop    esi
  413d93:	pop    ebx
  413d94:	mov    esp,ebp
  413d96:	pop    ebp
  413d97:	ret    
  413d98:	mov    ecx,DWORD PTR [esp+0x4]
  413d9c:	test   DWORD PTR [ecx+0x4],0x6
  413da3:	mov    eax,0x1
  413da8:	je     0x413ddc
  413daa:	mov    eax,DWORD PTR [esp+0x14]
  413dae:	mov    ecx,DWORD PTR [eax-0x4]
  413db1:	xor    ecx,eax
  413db3:	call   0x40efb3
  413db8:	push   ebp
  413db9:	mov    ebp,DWORD PTR [eax+0x10]
  413dbc:	mov    edx,DWORD PTR [eax+0x28]
  413dbf:	push   edx
  413dc0:	mov    edx,DWORD PTR [eax+0x24]
  413dc3:	push   edx
  413dc4:	call   0x413ddd
  413dc9:	add    esp,0x8
  413dcc:	pop    ebp
  413dcd:	mov    eax,DWORD PTR [esp+0x8]
  413dd1:	mov    edx,DWORD PTR [esp+0x10]
  413dd5:	mov    DWORD PTR [edx],eax
  413dd7:	mov    eax,0x3
  413ddc:	ret    
  413ddd:	push   ebx
  413dde:	push   esi
  413ddf:	push   edi
  413de0:	mov    eax,DWORD PTR [esp+0x10]
  413de4:	push   ebp
  413de5:	push   eax
  413de6:	push   0xfffffffe
  413de8:	push   0x413d98
  413ded:	push   DWORD PTR fs:0x0
  413df4:	mov    eax,ds:0x423d68
  413df9:	xor    eax,esp
  413dfb:	push   eax
  413dfc:	lea    eax,[esp+0x4]
  413e00:	mov    fs:0x0,eax
  413e06:	mov    eax,DWORD PTR [esp+0x28]
  413e0a:	mov    ebx,DWORD PTR [eax+0x8]
  413e0d:	mov    esi,DWORD PTR [eax+0xc]
  413e10:	cmp    esi,0xffffffff
  413e13:	je     0x413e4f
  413e15:	cmp    DWORD PTR [esp+0x2c],0xffffffff
  413e1a:	je     0x413e22
  413e1c:	cmp    esi,DWORD PTR [esp+0x2c]
  413e20:	jbe    0x413e4f
  413e22:	lea    esi,[esi+esi*2]
  413e25:	mov    ecx,DWORD PTR [ebx+esi*4]
  413e28:	mov    DWORD PTR [esp+0xc],ecx
  413e2c:	mov    DWORD PTR [eax+0xc],ecx
  413e2f:	cmp    DWORD PTR [ebx+esi*4+0x4],0x0
  413e34:	jne    0x413e4d
  413e36:	push   0x101
  413e3b:	mov    eax,DWORD PTR [ebx+esi*4+0x8]
  413e3f:	call   0x413e8d
  413e44:	mov    eax,DWORD PTR [ebx+esi*4+0x8]
  413e48:	call   0x413eac
  413e4d:	jmp    0x413e06
  413e4f:	mov    ecx,DWORD PTR [esp+0x4]
  413e53:	mov    DWORD PTR fs:0x0,ecx
  413e5a:	add    esp,0x18
  413e5d:	pop    edi
  413e5e:	pop    esi
  413e5f:	pop    ebx
  413e60:	ret    
  413e61:	xor    eax,eax
  413e63:	mov    ecx,DWORD PTR fs:0x0
  413e6a:	cmp    DWORD PTR [ecx+0x4],0x413d98
  413e71:	jne    0x413e83
  413e73:	mov    edx,DWORD PTR [ecx+0xc]
  413e76:	mov    edx,DWORD PTR [edx+0xc]
  413e79:	cmp    DWORD PTR [ecx+0x8],edx
  413e7c:	jne    0x413e83
  413e7e:	mov    eax,0x1
  413e83:	ret    
  413e84:	push   ebx
  413e85:	push   ecx
  413e86:	mov    ebx,0x4243b0
  413e8b:	jmp    0x413e98
  413e8d:	push   ebx
  413e8e:	push   ecx
  413e8f:	mov    ebx,0x4243b0
  413e94:	mov    ecx,DWORD PTR [esp+0xc]
  413e98:	mov    DWORD PTR [ebx+0x8],ecx
  413e9b:	mov    DWORD PTR [ebx+0x4],eax
  413e9e:	mov    DWORD PTR [ebx+0xc],ebp
  413ea1:	push   ebp
  413ea2:	push   ecx
  413ea3:	push   eax
  413ea4:	pop    eax
  413ea5:	pop    ecx
  413ea6:	pop    ebp
  413ea7:	pop    ecx
  413ea8:	pop    ebx
  413ea9:	ret    0x4
  413eac:	call   eax
  413eae:	ret    
  413eaf:	mov    edi,edi
  413eb1:	push   ebp
  413eb2:	mov    ebp,esp
  413eb4:	sub    esp,0x14
  413eb7:	push   esi
  413eb8:	push   edi
  413eb9:	push   DWORD PTR [ebp+0x8]
  413ebc:	lea    ecx,[ebp-0x14]
  413ebf:	call   0x4046f4
  413ec4:	mov    eax,DWORD PTR [ebp+0x10]
  413ec7:	mov    esi,DWORD PTR [ebp+0xc]
  413eca:	xor    edi,edi
  413ecc:	cmp    eax,edi
  413ece:	je     0x413ed2
  413ed0:	mov    DWORD PTR [eax],esi
  413ed2:	cmp    esi,edi
  413ed4:	jne    0x413f02
  413ed6:	call   0x4087a4
  413edb:	push   edi
  413edc:	push   edi
  413edd:	push   edi
  413ede:	push   edi
  413edf:	push   edi
  413ee0:	mov    DWORD PTR [eax],0x16
  413ee6:	call   0x40873c
  413eeb:	add    esp,0x14
  413eee:	cmp    BYTE PTR [ebp-0x8],0x0
  413ef2:	je     0x413efb
  413ef4:	mov    eax,DWORD PTR [ebp-0xc]
  413ef7:	and    DWORD PTR [eax+0x70],0xfffffffd
  413efb:	xor    eax,eax
  413efd:	jmp    0x4140da
  413f02:	cmp    DWORD PTR [ebp+0x14],edi
  413f05:	je     0x413f13
  413f07:	cmp    DWORD PTR [ebp+0x14],0x2
  413f0b:	jl     0x413ed6
  413f0d:	cmp    DWORD PTR [ebp+0x14],0x24
  413f11:	jg     0x413ed6
  413f13:	mov    ecx,DWORD PTR [ebp-0x14]
  413f16:	push   ebx
  413f17:	mov    bl,BYTE PTR [esi]
  413f19:	mov    DWORD PTR [ebp-0x4],edi
  413f1c:	lea    edi,[esi+0x1]
  413f1f:	cmp    DWORD PTR [ecx+0xac],0x1
  413f26:	jle    0x413f3f
  413f28:	lea    eax,[ebp-0x14]
  413f2b:	push   eax
  413f2c:	movzx  eax,bl
  413f2f:	push   0x8
  413f31:	push   eax
  413f32:	call   0x414109
  413f37:	mov    ecx,DWORD PTR [ebp-0x14]
  413f3a:	add    esp,0xc
  413f3d:	jmp    0x413f4f
  413f3f:	mov    edx,DWORD PTR [ecx+0xc8]
  413f45:	movzx  eax,bl
  413f48:	movzx  eax,WORD PTR [edx+eax*2]
  413f4c:	and    eax,0x8
  413f4f:	test   eax,eax
  413f51:	je     0x413f58
  413f53:	mov    bl,BYTE PTR [edi]
  413f55:	inc    edi
  413f56:	jmp    0x413f1f
  413f58:	cmp    bl,0x2d
  413f5b:	jne    0x413f63
  413f5d:	or     DWORD PTR [ebp+0x18],0x2
  413f61:	jmp    0x413f68
  413f63:	cmp    bl,0x2b
  413f66:	jne    0x413f6b
  413f68:	mov    bl,BYTE PTR [edi]
  413f6a:	inc    edi
  413f6b:	mov    eax,DWORD PTR [ebp+0x14]
  413f6e:	test   eax,eax
  413f70:	jl     0x4140c1
  413f76:	cmp    eax,0x1
  413f79:	je     0x4140c1
  413f7f:	cmp    eax,0x24
  413f82:	jg     0x4140c1
  413f88:	test   eax,eax
  413f8a:	jne    0x413fb6
  413f8c:	cmp    bl,0x30
  413f8f:	je     0x413f9a
  413f91:	mov    DWORD PTR [ebp+0x14],0xa
  413f98:	jmp    0x413fce
  413f9a:	mov    al,BYTE PTR [edi]
  413f9c:	cmp    al,0x78
  413f9e:	je     0x413fad
  413fa0:	cmp    al,0x58
  413fa2:	je     0x413fad
  413fa4:	mov    DWORD PTR [ebp+0x14],0x8
  413fab:	jmp    0x413fce
  413fad:	mov    DWORD PTR [ebp+0x14],0x10
  413fb4:	jmp    0x413fc0
  413fb6:	cmp    eax,0x10
  413fb9:	jne    0x413fce
  413fbb:	cmp    bl,0x30
  413fbe:	jne    0x413fce
  413fc0:	mov    al,BYTE PTR [edi]
  413fc2:	cmp    al,0x78
  413fc4:	je     0x413fca
  413fc6:	cmp    al,0x58
  413fc8:	jne    0x413fce
  413fca:	inc    edi
  413fcb:	mov    bl,BYTE PTR [edi]
  413fcd:	inc    edi
  413fce:	mov    esi,DWORD PTR [ecx+0xc8]
  413fd4:	mov    eax,0xffffffff
  413fd9:	xor    edx,edx
  413fdb:	div    DWORD PTR [ebp+0x14]
  413fde:	movzx  ecx,bl
  413fe1:	movzx  ecx,WORD PTR [esi+ecx*2]
  413fe5:	test   cl,0x4
  413fe8:	je     0x413ff2
  413fea:	movsx  ecx,bl
  413fed:	sub    ecx,0x30
  413ff0:	jmp    0x41400d
  413ff2:	test   ecx,0x103
  413ff8:	je     0x41402b
  413ffa:	mov    cl,bl
  413ffc:	sub    cl,0x61
  413fff:	cmp    cl,0x19
  414002:	movsx  ecx,bl
  414005:	ja     0x41400a
  414007:	sub    ecx,0x20
  41400a:	add    ecx,0xffffffc9
  41400d:	cmp    ecx,DWORD PTR [ebp+0x14]
  414010:	jae    0x41402b
  414012:	or     DWORD PTR [ebp+0x18],0x8
  414016:	cmp    DWORD PTR [ebp-0x4],eax
  414019:	jb     0x414042
  41401b:	jne    0x414021
  41401d:	cmp    ecx,edx
  41401f:	jbe    0x414042
  414021:	or     DWORD PTR [ebp+0x18],0x4
  414025:	cmp    DWORD PTR [ebp+0x10],0x0
  414029:	jne    0x41404e
  41402b:	mov    eax,DWORD PTR [ebp+0x18]
  41402e:	dec    edi
  41402f:	test   al,0x8
  414031:	jne    0x414053
  414033:	cmp    DWORD PTR [ebp+0x10],0x0
  414037:	je     0x41403c
  414039:	mov    edi,DWORD PTR [ebp+0xc]
  41403c:	and    DWORD PTR [ebp-0x4],0x0
  414040:	jmp    0x41409d
  414042:	mov    ebx,DWORD PTR [ebp-0x4]
  414045:	imul   ebx,DWORD PTR [ebp+0x14]
  414049:	add    ebx,ecx
  41404b:	mov    DWORD PTR [ebp-0x4],ebx
  41404e:	mov    bl,BYTE PTR [edi]
  414050:	inc    edi
  414051:	jmp    0x413fde
  414053:	mov    esi,0x7fffffff
  414058:	test   al,0x4
  41405a:	jne    0x414077
  41405c:	test   al,0x1
  41405e:	jne    0x41409d
  414060:	and    eax,0x2
  414063:	je     0x41406e
  414065:	cmp    DWORD PTR [ebp-0x4],0x80000000
  41406c:	ja     0x414077
  41406e:	test   eax,eax
  414070:	jne    0x41409d
  414072:	cmp    DWORD PTR [ebp-0x4],esi
  414075:	jbe    0x41409d
  414077:	call   0x4087a4
  41407c:	test   BYTE PTR [ebp+0x18],0x1
  414080:	mov    DWORD PTR [eax],0x22
  414086:	je     0x41408e
  414088:	or     DWORD PTR [ebp-0x4],0xffffffff
  41408c:	jmp    0x41409d
  41408e:	test   BYTE PTR [ebp+0x18],0x2
  414092:	push   0x0
  414094:	pop    eax
  414095:	setne  al
  414098:	add    eax,esi
  41409a:	mov    DWORD PTR [ebp-0x4],eax
  41409d:	mov    eax,DWORD PTR [ebp+0x10]
  4140a0:	test   eax,eax
  4140a2:	je     0x4140a6
  4140a4:	mov    DWORD PTR [eax],edi
  4140a6:	test   BYTE PTR [ebp+0x18],0x2
  4140aa:	je     0x4140af
  4140ac:	neg    DWORD PTR [ebp-0x4]
  4140af:	cmp    BYTE PTR [ebp-0x8],0x0
  4140b3:	je     0x4140bc
  4140b5:	mov    eax,DWORD PTR [ebp-0xc]
  4140b8:	and    DWORD PTR [eax+0x70],0xfffffffd
  4140bc:	mov    eax,DWORD PTR [ebp-0x4]
  4140bf:	jmp    0x4140d9
  4140c1:	mov    eax,DWORD PTR [ebp+0x10]
  4140c4:	test   eax,eax
  4140c6:	je     0x4140ca
  4140c8:	mov    DWORD PTR [eax],esi
  4140ca:	cmp    BYTE PTR [ebp-0x8],0x0
  4140ce:	je     0x4140d7
  4140d0:	mov    eax,DWORD PTR [ebp-0xc]
  4140d3:	and    DWORD PTR [eax+0x70],0xfffffffd
  4140d7:	xor    eax,eax
  4140d9:	pop    ebx
  4140da:	pop    edi
  4140db:	pop    esi
  4140dc:	leave  
  4140dd:	ret    
  4140de:	mov    edi,edi
  4140e0:	push   ebp
  4140e1:	mov    ebp,esp
  4140e3:	xor    eax,eax
  4140e5:	push   eax
  4140e6:	push   DWORD PTR [ebp+0x10]
  4140e9:	push   DWORD PTR [ebp+0xc]
  4140ec:	push   DWORD PTR [ebp+0x8]
  4140ef:	cmp    DWORD PTR ds:0x43bfe4,eax
  4140f5:	jne    0x4140fe
  4140f7:	push   0x423ad8
  4140fc:	jmp    0x4140ff
  4140fe:	push   eax
  4140ff:	call   0x413eaf
  414104:	add    esp,0x14
  414107:	pop    ebp
  414108:	ret    
  414109:	mov    edi,edi
  41410b:	push   ebp
  41410c:	mov    ebp,esp
  41410e:	sub    esp,0x18
  414111:	push   ebx
  414112:	push   DWORD PTR [ebp+0x10]
  414115:	lea    ecx,[ebp-0x18]
  414118:	call   0x4046f4
  41411d:	mov    ebx,DWORD PTR [ebp+0x8]
  414120:	lea    eax,[ebx+0x1]
  414123:	cmp    eax,0x100
  414128:	ja     0x414139
  41412a:	mov    eax,DWORD PTR [ebp-0x18]
  41412d:	mov    eax,DWORD PTR [eax+0xc8]
  414133:	movzx  eax,WORD PTR [eax+ebx*2]
  414137:	jmp    0x4141ae
  414139:	mov    DWORD PTR [ebp+0x8],ebx
  41413c:	sar    DWORD PTR [ebp+0x8],0x8
  414140:	lea    eax,[ebp-0x18]
  414143:	push   eax
  414144:	mov    eax,DWORD PTR [ebp+0x8]
  414147:	and    eax,0xff
  41414c:	push   eax
  41414d:	call   0x4107a3
  414152:	pop    ecx
  414153:	pop    ecx
  414154:	test   eax,eax
  414156:	je     0x41416a
  414158:	mov    al,BYTE PTR [ebp+0x8]
  41415b:	push   0x2
  41415d:	mov    BYTE PTR [ebp-0x8],al
  414160:	mov    BYTE PTR [ebp-0x7],bl
  414163:	mov    BYTE PTR [ebp-0x6],0x0
  414167:	pop    ecx
  414168:	jmp    0x414174
  41416a:	xor    ecx,ecx
  41416c:	mov    BYTE PTR [ebp-0x8],bl
  41416f:	mov    BYTE PTR [ebp-0x7],0x0
  414173:	inc    ecx
  414174:	mov    eax,DWORD PTR [ebp-0x18]
  414177:	push   0x1
  414179:	push   DWORD PTR [eax+0x14]
  41417c:	push   DWORD PTR [eax+0x4]
  41417f:	lea    eax,[ebp-0x4]
  414182:	push   eax
  414183:	push   ecx
  414184:	lea    eax,[ebp-0x8]
  414187:	push   eax
  414188:	lea    eax,[ebp-0x18]
  41418b:	push   0x1
  41418d:	push   eax
  41418e:	call   0x40fc90
  414193:	add    esp,0x20
  414196:	test   eax,eax
  414198:	jne    0x4141aa
  41419a:	cmp    BYTE PTR [ebp-0xc],al
  41419d:	je     0x4141a6
  41419f:	mov    eax,DWORD PTR [ebp-0x10]
  4141a2:	and    DWORD PTR [eax+0x70],0xfffffffd
  4141a6:	xor    eax,eax
  4141a8:	jmp    0x4141be
  4141aa:	movzx  eax,WORD PTR [ebp-0x4]
  4141ae:	and    eax,DWORD PTR [ebp+0xc]
  4141b1:	cmp    BYTE PTR [ebp-0xc],0x0
  4141b5:	je     0x4141be
  4141b7:	mov    ecx,DWORD PTR [ebp-0x10]
  4141ba:	and    DWORD PTR [ecx+0x70],0xfffffffd
  4141be:	pop    ebx
  4141bf:	leave  
  4141c0:	ret    
  4141c1:	mov    edi,edi
  4141c3:	push   ebp
  4141c4:	mov    ebp,esp
  4141c6:	sub    esp,0x2c
  4141c9:	mov    eax,DWORD PTR [ebp+0x8]
  4141cc:	movzx  ecx,WORD PTR [eax+0xa]
  4141d0:	push   ebx
  4141d1:	mov    ebx,ecx
  4141d3:	and    ecx,0x8000
  4141d9:	mov    DWORD PTR [ebp-0x14],ecx
  4141dc:	mov    ecx,DWORD PTR [eax+0x6]
  4141df:	mov    DWORD PTR [ebp-0x20],ecx
  4141e2:	mov    ecx,DWORD PTR [eax+0x2]
  4141e5:	movzx  eax,WORD PTR [eax]
  4141e8:	and    ebx,0x7fff
  4141ee:	sub    ebx,0x3fff
  4141f4:	shl    eax,0x10
  4141f7:	push   edi
  4141f8:	mov    DWORD PTR [ebp-0x1c],ecx
  4141fb:	mov    DWORD PTR [ebp-0x18],eax
  4141fe:	cmp    ebx,0xffffc001
  414204:	jne    0x41422d
  414206:	xor    ebx,ebx
  414208:	xor    eax,eax
  41420a:	cmp    DWORD PTR [ebp+eax*4-0x20],ebx
  41420e:	jne    0x41421d
  414210:	inc    eax
  414211:	cmp    eax,0x3
  414214:	jl     0x41420a
  414216:	xor    eax,eax
  414218:	jmp    0x4146c2
  41421d:	xor    eax,eax
  41421f:	lea    edi,[ebp-0x20]
  414222:	stos   DWORD PTR es:[edi],eax
  414223:	stos   DWORD PTR es:[edi],eax
  414224:	push   0x2
  414226:	stos   DWORD PTR es:[edi],eax
  414227:	pop    eax
  414228:	jmp    0x4146c2
  41422d:	and    DWORD PTR [ebp+0x8],0x0
  414231:	push   esi
  414232:	lea    esi,[ebp-0x20]
  414235:	lea    edi,[ebp-0x2c]
  414238:	movs   DWORD PTR es:[edi],DWORD PTR ds:[esi]
  414239:	movs   DWORD PTR es:[edi],DWORD PTR ds:[esi]
  41423a:	movs   DWORD PTR es:[edi],DWORD PTR ds:[esi]
  41423b:	mov    esi,DWORD PTR ds:0x4243c8
  414241:	dec    esi
  414242:	lea    ecx,[esi+0x1]
  414245:	mov    eax,ecx
  414247:	cdq    
  414248:	and    edx,0x1f
  41424b:	add    eax,edx
  41424d:	sar    eax,0x5
  414250:	mov    edx,ecx
  414252:	and    edx,0x8000001f
  414258:	mov    DWORD PTR [ebp-0x10],ebx
  41425b:	mov    DWORD PTR [ebp-0xc],eax
  41425e:	jns    0x414265
  414260:	dec    edx
  414261:	or     edx,0xffffffe0
  414264:	inc    edx
  414265:	lea    edi,[ebp+eax*4-0x20]
  414269:	push   0x1f
  41426b:	xor    eax,eax
  41426d:	pop    ecx
  41426e:	sub    ecx,edx
  414270:	inc    eax
  414271:	shl    eax,cl
  414273:	mov    DWORD PTR [ebp-0x8],ecx
  414276:	test   DWORD PTR [edi],eax
  414278:	je     0x41430b
  41427e:	mov    eax,DWORD PTR [ebp-0xc]
  414281:	or     edx,0xffffffff
  414284:	shl    edx,cl
  414286:	not    edx
  414288:	test   DWORD PTR [ebp+eax*4-0x20],edx
  41428c:	jmp    0x414293
  41428e:	cmp    DWORD PTR [ebp+eax*4-0x20],0x0
  414293:	jne    0x41429d
  414295:	inc    eax
  414296:	cmp    eax,0x3
  414299:	jl     0x41428e
  41429b:	jmp    0x41430b
  41429d:	mov    eax,esi
  41429f:	cdq    
  4142a0:	push   0x1f
  4142a2:	pop    ecx
  4142a3:	and    edx,ecx
  4142a5:	add    eax,edx
  4142a7:	sar    eax,0x5
  4142aa:	and    esi,0x8000001f
  4142b0:	jns    0x4142b7
  4142b2:	dec    esi
  4142b3:	or     esi,0xffffffe0
  4142b6:	inc    esi
  4142b7:	and    DWORD PTR [ebp-0x4],0x0
  4142bb:	sub    ecx,esi
  4142bd:	xor    edx,edx
  4142bf:	inc    edx
  4142c0:	shl    edx,cl
  4142c2:	lea    ecx,[ebp+eax*4-0x20]
  4142c6:	mov    esi,DWORD PTR [ecx]
  4142c8:	add    esi,edx
  4142ca:	mov    DWORD PTR [ebp+0x8],esi
  4142cd:	mov    esi,DWORD PTR [ecx]
  4142cf:	cmp    DWORD PTR [ebp+0x8],esi
  4142d2:	jb     0x4142f6
  4142d4:	cmp    DWORD PTR [ebp+0x8],edx
  4142d7:	jmp    0x4142f4
  4142d9:	test   ecx,ecx
  4142db:	je     0x414308
  4142dd:	and    DWORD PTR [ebp-0x4],0x0
  4142e1:	lea    ecx,[ebp+eax*4-0x20]
  4142e5:	mov    edx,DWORD PTR [ecx]
  4142e7:	lea    esi,[edx+0x1]
  4142ea:	mov    DWORD PTR [ebp+0x8],esi
  4142ed:	cmp    esi,edx
  4142ef:	jb     0x4142f6
  4142f1:	cmp    esi,0x1
  4142f4:	jae    0x4142fd
  4142f6:	mov    DWORD PTR [ebp-0x4],0x1
  4142fd:	dec    eax
  4142fe:	mov    edx,DWORD PTR [ebp+0x8]
  414301:	mov    DWORD PTR [ecx],edx
  414303:	mov    ecx,DWORD PTR [ebp-0x4]
  414306:	jns    0x4142d9
  414308:	mov    DWORD PTR [ebp+0x8],ecx
  41430b:	mov    ecx,DWORD PTR [ebp-0x8]
  41430e:	or     eax,0xffffffff
  414311:	shl    eax,cl
  414313:	and    DWORD PTR [edi],eax
  414315:	mov    eax,DWORD PTR [ebp-0xc]
  414318:	inc    eax
  414319:	cmp    eax,0x3
  41431c:	jge    0x41432b
  41431e:	push   0x3
  414320:	pop    ecx
  414321:	lea    edi,[ebp+eax*4-0x20]
  414325:	sub    ecx,eax
  414327:	xor    eax,eax
  414329:	rep stos DWORD PTR es:[edi],eax
  41432b:	cmp    DWORD PTR [ebp+0x8],0x0
  41432f:	je     0x414332
  414331:	inc    ebx
  414332:	mov    eax,ds:0x4243c4
  414337:	mov    ecx,eax
  414339:	sub    ecx,DWORD PTR ds:0x4243c8
  41433f:	cmp    ebx,ecx
  414341:	jge    0x414350
  414343:	xor    eax,eax
  414345:	lea    edi,[ebp-0x20]
  414348:	stos   DWORD PTR es:[edi],eax
  414349:	stos   DWORD PTR es:[edi],eax
  41434a:	stos   DWORD PTR es:[edi],eax
  41434b:	jmp    0x41455d
  414350:	cmp    ebx,eax
  414352:	jg     0x414567
  414358:	sub    eax,DWORD PTR [ebp-0x10]
  41435b:	lea    esi,[ebp-0x2c]
  41435e:	mov    ecx,eax
  414360:	lea    edi,[ebp-0x20]
  414363:	movs   DWORD PTR es:[edi],DWORD PTR ds:[esi]
  414364:	cdq    
  414365:	and    edx,0x1f
  414368:	add    eax,edx
  41436a:	movs   DWORD PTR es:[edi],DWORD PTR ds:[esi]
  41436b:	mov    edx,ecx
  41436d:	sar    eax,0x5
  414370:	and    edx,0x8000001f
  414376:	movs   DWORD PTR es:[edi],DWORD PTR ds:[esi]
  414377:	jns    0x41437e
  414379:	dec    edx
  41437a:	or     edx,0xffffffe0
  41437d:	inc    edx
  41437e:	and    DWORD PTR [ebp-0xc],0x0
  414382:	and    DWORD PTR [ebp+0x8],0x0
  414386:	or     edi,0xffffffff
  414389:	mov    ecx,edx
  41438b:	shl    edi,cl
  41438d:	mov    DWORD PTR [ebp-0x4],0x20
  414394:	sub    DWORD PTR [ebp-0x4],edx
  414397:	not    edi
  414399:	mov    ebx,DWORD PTR [ebp+0x8]
  41439c:	lea    ebx,[ebp+ebx*4-0x20]
  4143a0:	mov    esi,DWORD PTR [ebx]
  4143a2:	mov    ecx,esi
  4143a4:	and    ecx,edi
  4143a6:	mov    DWORD PTR [ebp-0x10],ecx
  4143a9:	mov    ecx,edx
  4143ab:	shr    esi,cl
  4143ad:	mov    ecx,DWORD PTR [ebp-0x4]
  4143b0:	or     esi,DWORD PTR [ebp-0xc]
  4143b3:	mov    DWORD PTR [ebx],esi
  4143b5:	mov    esi,DWORD PTR [ebp-0x10]
  4143b8:	shl    esi,cl
  4143ba:	inc    DWORD PTR [ebp+0x8]
  4143bd:	cmp    DWORD PTR [ebp+0x8],0x3
  4143c1:	mov    DWORD PTR [ebp-0xc],esi
  4143c4:	jl     0x414399
  4143c6:	mov    esi,eax
  4143c8:	push   0x2
  4143ca:	shl    esi,0x2
  4143cd:	lea    ecx,[ebp-0x18]
  4143d0:	pop    edx
  4143d1:	sub    ecx,esi
  4143d3:	cmp    edx,eax
  4143d5:	jl     0x4143df
  4143d7:	mov    esi,DWORD PTR [ecx]
  4143d9:	mov    DWORD PTR [ebp+edx*4-0x20],esi
  4143dd:	jmp    0x4143e4
  4143df:	and    DWORD PTR [ebp+edx*4-0x20],0x0
  4143e4:	dec    edx
  4143e5:	sub    ecx,0x4
  4143e8:	test   edx,edx
  4143ea:	jge    0x4143d3
  4143ec:	mov    esi,DWORD PTR ds:0x4243c8
  4143f2:	dec    esi
  4143f3:	lea    ecx,[esi+0x1]
  4143f6:	mov    eax,ecx
  4143f8:	cdq    
  4143f9:	and    edx,0x1f
  4143fc:	add    eax,edx
  4143fe:	sar    eax,0x5
  414401:	mov    edx,ecx
  414403:	and    edx,0x8000001f
  414409:	mov    DWORD PTR [ebp-0xc],eax
  41440c:	jns    0x414413
  41440e:	dec    edx
  41440f:	or     edx,0xffffffe0
  414412:	inc    edx
  414413:	push   0x1f
  414415:	pop    ecx
  414416:	sub    ecx,edx
  414418:	xor    edx,edx
  41441a:	inc    edx
  41441b:	shl    edx,cl
  41441d:	lea    ebx,[ebp+eax*4-0x20]
  414421:	mov    DWORD PTR [ebp-0x10],ecx
  414424:	test   DWORD PTR [ebx],edx
  414426:	je     0x4144ae
  41442c:	or     edx,0xffffffff
  41442f:	shl    edx,cl
  414431:	not    edx
  414433:	test   DWORD PTR [ebp+eax*4-0x20],edx
  414437:	jmp    0x41443e
  414439:	cmp    DWORD PTR [ebp+eax*4-0x20],0x0
  41443e:	jne    0x414448
  414440:	inc    eax
  414441:	cmp    eax,0x3
  414444:	jl     0x414439
  414446:	jmp    0x4144ae
  414448:	mov    eax,esi
  41444a:	cdq    
  41444b:	push   0x1f
  41444d:	pop    ecx
  41444e:	and    edx,ecx
  414450:	add    eax,edx
  414452:	sar    eax,0x5
  414455:	and    esi,0x8000001f
  41445b:	jns    0x414462
  41445d:	dec    esi
  41445e:	or     esi,0xffffffe0
  414461:	inc    esi
  414462:	and    DWORD PTR [ebp+0x8],0x0
  414466:	xor    edx,edx
  414468:	sub    ecx,esi
  41446a:	inc    edx
  41446b:	shl    edx,cl
  41446d:	lea    ecx,[ebp+eax*4-0x20]
  414471:	mov    esi,DWORD PTR [ecx]
  414473:	lea    edi,[esi+edx*1]
  414476:	cmp    edi,esi
  414478:	jb     0x41447e
  41447a:	cmp    edi,edx
  41447c:	jae    0x414485
  41447e:	mov    DWORD PTR [ebp+0x8],0x1
  414485:	mov    DWORD PTR [ecx],edi
  414487:	mov    ecx,DWORD PTR [ebp+0x8]
  41448a:	jmp    0x4144ab
  41448c:	test   ecx,ecx
  41448e:	je     0x4144ae
  414490:	lea    ecx,[ebp+eax*4-0x20]
  414494:	mov    edx,DWORD PTR [ecx]
  414496:	lea    esi,[edx+0x1]
  414499:	xor    edi,edi
  41449b:	cmp    esi,edx
  41449d:	jb     0x4144a4
  41449f:	cmp    esi,0x1
  4144a2:	jae    0x4144a7
  4144a4:	xor    edi,edi
  4144a6:	inc    edi
  4144a7:	mov    DWORD PTR [ecx],esi
  4144a9:	mov    ecx,edi
  4144ab:	dec    eax
  4144ac:	jns    0x41448c
  4144ae:	mov    ecx,DWORD PTR [ebp-0x10]
  4144b1:	or     eax,0xffffffff
  4144b4:	shl    eax,cl
  4144b6:	and    DWORD PTR [ebx],eax
  4144b8:	mov    eax,DWORD PTR [ebp-0xc]
  4144bb:	inc    eax
  4144bc:	cmp    eax,0x3
  4144bf:	jge    0x4144ce
  4144c1:	push   0x3
  4144c3:	pop    ecx
  4144c4:	lea    edi,[ebp+eax*4-0x20]
  4144c8:	sub    ecx,eax
  4144ca:	xor    eax,eax
  4144cc:	rep stos DWORD PTR es:[edi],eax
  4144ce:	mov    ecx,DWORD PTR ds:0x4243cc
  4144d4:	inc    ecx
  4144d5:	mov    eax,ecx
  4144d7:	cdq    
  4144d8:	and    edx,0x1f
  4144db:	add    eax,edx
  4144dd:	mov    edx,ecx
  4144df:	sar    eax,0x5
  4144e2:	and    edx,0x8000001f
  4144e8:	jns    0x4144ef
  4144ea:	dec    edx
  4144eb:	or     edx,0xffffffe0
  4144ee:	inc    edx
  4144ef:	and    DWORD PTR [ebp-0xc],0x0
  4144f3:	and    DWORD PTR [ebp+0x8],0x0
  4144f7:	or     edi,0xffffffff
  4144fa:	mov    ecx,edx
  4144fc:	shl    edi,cl
  4144fe:	mov    DWORD PTR [ebp-0x4],0x20
  414505:	sub    DWORD PTR [ebp-0x4],edx
  414508:	not    edi
  41450a:	mov    ebx,DWORD PTR [ebp+0x8]
  41450d:	lea    ebx,[ebp+ebx*4-0x20]
  414511:	mov    esi,DWORD PTR [ebx]
  414513:	mov    ecx,esi
  414515:	and    ecx,edi
  414517:	mov    DWORD PTR [ebp-0x10],ecx
  41451a:	mov    ecx,edx
  41451c:	shr    esi,cl
  41451e:	mov    ecx,DWORD PTR [ebp-0x4]
  414521:	or     esi,DWORD PTR [ebp-0xc]
  414524:	mov    DWORD PTR [ebx],esi
  414526:	mov    esi,DWORD PTR [ebp-0x10]
  414529:	shl    esi,cl
  41452b:	inc    DWORD PTR [ebp+0x8]
  41452e:	cmp    DWORD PTR [ebp+0x8],0x3
  414532:	mov    DWORD PTR [ebp-0xc],esi
  414535:	jl     0x41450a
  414537:	mov    esi,eax
  414539:	push   0x2
  41453b:	shl    esi,0x2
  41453e:	lea    ecx,[ebp-0x18]
  414541:	pop    edx
  414542:	sub    ecx,esi
  414544:	cmp    edx,eax
  414546:	jl     0x414550
  414548:	mov    esi,DWORD PTR [ecx]
  41454a:	mov    DWORD PTR [ebp+edx*4-0x20],esi
  41454e:	jmp    0x414555
  414550:	and    DWORD PTR [ebp+edx*4-0x20],0x0
  414555:	dec    edx
  414556:	sub    ecx,0x4
  414559:	test   edx,edx
  41455b:	jge    0x414544
  41455d:	push   0x2
  41455f:	xor    ebx,ebx
  414561:	pop    eax
  414562:	jmp    0x4146c1
  414567:	cmp    ebx,DWORD PTR ds:0x4243c0
  41456d:	mov    ecx,DWORD PTR ds:0x4243cc
  414573:	jl     0x414626
  414579:	xor    eax,eax
  41457b:	lea    edi,[ebp-0x20]
  41457e:	stos   DWORD PTR es:[edi],eax
  41457f:	stos   DWORD PTR es:[edi],eax
  414580:	stos   DWORD PTR es:[edi],eax
  414581:	or     DWORD PTR [ebp-0x20],0x80000000
  414588:	mov    eax,ecx
  41458a:	cdq    
  41458b:	and    edx,0x1f
  41458e:	add    eax,edx
  414590:	mov    edx,ecx
  414592:	sar    eax,0x5
  414595:	and    edx,0x8000001f
  41459b:	jns    0x4145a2
  41459d:	dec    edx
  41459e:	or     edx,0xffffffe0
  4145a1:	inc    edx
  4145a2:	and    DWORD PTR [ebp-0xc],0x0
  4145a6:	and    DWORD PTR [ebp+0x8],0x0
  4145aa:	or     edi,0xffffffff
  4145ad:	mov    ecx,edx
  4145af:	shl    edi,cl
  4145b1:	mov    DWORD PTR [ebp-0x4],0x20
  4145b8:	sub    DWORD PTR [ebp-0x4],edx
  4145bb:	not    edi
  4145bd:	mov    ebx,DWORD PTR [ebp+0x8]
  4145c0:	lea    ebx,[ebp+ebx*4-0x20]
  4145c4:	mov    esi,DWORD PTR [ebx]
  4145c6:	mov    ecx,esi
  4145c8:	and    ecx,edi
  4145ca:	mov    DWORD PTR [ebp-0x10],ecx
  4145cd:	mov    ecx,edx
  4145cf:	shr    esi,cl
  4145d1:	mov    ecx,DWORD PTR [ebp-0x4]
  4145d4:	or     esi,DWORD PTR [ebp-0xc]
  4145d7:	mov    DWORD PTR [ebx],esi
  4145d9:	mov    esi,DWORD PTR [ebp-0x10]
  4145dc:	shl    esi,cl
  4145de:	inc    DWORD PTR [ebp+0x8]
  4145e1:	cmp    DWORD PTR [ebp+0x8],0x3
  4145e5:	mov    DWORD PTR [ebp-0xc],esi
  4145e8:	jl     0x4145bd
  4145ea:	mov    esi,eax
  4145ec:	push   0x2
  4145ee:	shl    esi,0x2
  4145f1:	lea    ecx,[ebp-0x18]
  4145f4:	pop    edx
  4145f5:	sub    ecx,esi
  4145f7:	cmp    edx,eax
  4145f9:	jl     0x414603
  4145fb:	mov    esi,DWORD PTR [ecx]
  4145fd:	mov    DWORD PTR [ebp+edx*4-0x20],esi
  414601:	jmp    0x414608
  414603:	and    DWORD PTR [ebp+edx*4-0x20],0x0
  414608:	dec    edx
  414609:	sub    ecx,0x4
  41460c:	test   edx,edx
  41460e:	jge    0x4145f7
  414610:	mov    eax,ds:0x4243c0
  414615:	mov    ecx,DWORD PTR ds:0x4243d4
  41461b:	lea    ebx,[ecx+eax*1]
  41461e:	xor    eax,eax
  414620:	inc    eax
  414621:	jmp    0x4146c1
  414626:	mov    eax,ds:0x4243d4
  41462b:	and    DWORD PTR [ebp-0x20],0x7fffffff
  414632:	add    ebx,eax
  414634:	mov    eax,ecx
  414636:	cdq    
  414637:	and    edx,0x1f
  41463a:	add    eax,edx
  41463c:	mov    edx,ecx
  41463e:	sar    eax,0x5
  414641:	and    edx,0x8000001f
  414647:	jns    0x41464e
  414649:	dec    edx
  41464a:	or     edx,0xffffffe0
  41464d:	inc    edx
  41464e:	and    DWORD PTR [ebp-0xc],0x0
  414652:	and    DWORD PTR [ebp+0x8],0x0
  414656:	or     esi,0xffffffff
  414659:	mov    ecx,edx
  41465b:	shl    esi,cl
  41465d:	mov    DWORD PTR [ebp-0x4],0x20
  414664:	sub    DWORD PTR [ebp-0x4],edx
  414667:	not    esi
  414669:	mov    ecx,DWORD PTR [ebp+0x8]
  41466c:	mov    edi,DWORD PTR [ebp+ecx*4-0x20]
  414670:	mov    ecx,edi
  414672:	and    ecx,esi
  414674:	mov    DWORD PTR [ebp-0x10],ecx
  414677:	mov    ecx,edx
  414679:	shr    edi,cl
  41467b:	mov    ecx,DWORD PTR [ebp+0x8]
  41467e:	or     edi,DWORD PTR [ebp-0xc]
  414681:	mov    DWORD PTR [ebp+ecx*4-0x20],edi
  414685:	mov    edi,DWORD PTR [ebp-0x10]
  414688:	mov    ecx,DWORD PTR [ebp-0x4]
  41468b:	shl    edi,cl
  41468d:	inc    DWORD PTR [ebp+0x8]
  414690:	cmp    DWORD PTR [ebp+0x8],0x3
  414694:	mov    DWORD PTR [ebp-0xc],edi
  414697:	jl     0x414669
  414699:	mov    esi,eax
  41469b:	push   0x2
  41469d:	shl    esi,0x2
  4146a0:	lea    ecx,[ebp-0x18]
  4146a3:	pop    edx
  4146a4:	sub    ecx,esi
  4146a6:	cmp    edx,eax
  4146a8:	jl     0x4146b2
  4146aa:	mov    esi,DWORD PTR [ecx]
  4146ac:	mov    DWORD PTR [ebp+edx*4-0x20],esi
  4146b0:	jmp    0x4146b7
  4146b2:	and    DWORD PTR [ebp+edx*4-0x20],0x0
  4146b7:	dec    edx
  4146b8:	sub    ecx,0x4
  4146bb:	test   edx,edx
  4146bd:	jge    0x4146a6
  4146bf:	xor    eax,eax
  4146c1:	pop    esi
  4146c2:	push   0x1f
  4146c4:	pop    ecx
  4146c5:	sub    ecx,DWORD PTR ds:0x4243cc
  4146cb:	shl    ebx,cl
  4146cd:	mov    ecx,DWORD PTR [ebp-0x14]
  4146d0:	neg    ecx
  4146d2:	sbb    ecx,ecx
  4146d4:	and    ecx,0x80000000
  4146da:	or     ebx,ecx
  4146dc:	mov    ecx,DWORD PTR ds:0x4243d0
  4146e2:	or     ebx,DWORD PTR [ebp-0x20]
  4146e5:	cmp    ecx,0x40
  4146e8:	jne    0x4146f7
  4146ea:	mov    ecx,DWORD PTR [ebp+0xc]
  4146ed:	mov    edx,DWORD PTR [ebp-0x1c]
  4146f0:	mov    DWORD PTR [ecx+0x4],ebx
  4146f3:	mov    DWORD PTR [ecx],edx
  4146f5:	jmp    0x414701
  4146f7:	cmp    ecx,0x20
  4146fa:	jne    0x414701
  4146fc:	mov    ecx,DWORD PTR [ebp+0xc]
  4146ff:	mov    DWORD PTR [ecx],ebx
  414701:	pop    edi
  414702:	pop    ebx
  414703:	leave  
  414704:	ret    
  414705:	mov    edi,edi
  414707:	push   ebp
  414708:	mov    ebp,esp
  41470a:	sub    esp,0x2c
  41470d:	mov    eax,DWORD PTR [ebp+0x8]
  414710:	movzx  ecx,WORD PTR [eax+0xa]
  414714:	push   ebx
  414715:	mov    ebx,ecx
  414717:	and    ecx,0x8000
  41471d:	mov    DWORD PTR [ebp-0x14],ecx
  414720:	mov    ecx,DWORD PTR [eax+0x6]
  414723:	mov    DWORD PTR [ebp-0x20],ecx
  414726:	mov    ecx,DWORD PTR [eax+0x2]
  414729:	movzx  eax,WORD PTR [eax]
  41472c:	and    ebx,0x7fff
  414732:	sub    ebx,0x3fff
  414738:	shl    eax,0x10
  41473b:	push   edi
  41473c:	mov    DWORD PTR [ebp-0x1c],ecx
  41473f:	mov    DWORD PTR [ebp-0x18],eax
  414742:	cmp    ebx,0xffffc001
  414748:	jne    0x414771
  41474a:	xor    ebx,ebx
  41474c:	xor    eax,eax
  41474e:	cmp    DWORD PTR [ebp+eax*4-0x20],ebx
  414752:	jne    0x414761
  414754:	inc    eax
  414755:	cmp    eax,0x3
  414758:	jl     0x41474e
  41475a:	xor    eax,eax
  41475c:	jmp    0x414c06
  414761:	xor    eax,eax
  414763:	lea    edi,[ebp-0x20]
  414766:	stos   DWORD PTR es:[edi],eax
  414767:	stos   DWORD PTR es:[edi],eax
  414768:	push   0x2
  41476a:	stos   DWORD PTR es:[edi],eax
  41476b:	pop    eax
  41476c:	jmp    0x414c06
  414771:	and    DWORD PTR [ebp+0x8],0x0
  414775:	push   esi
  414776:	lea    esi,[ebp-0x20]
  414779:	lea    edi,[ebp-0x2c]
  41477c:	movs   DWORD PTR es:[edi],DWORD PTR ds:[esi]
  41477d:	movs   DWORD PTR es:[edi],DWORD PTR ds:[esi]
  41477e:	movs   DWORD PTR es:[edi],DWORD PTR ds:[esi]
  41477f:	mov    esi,DWORD PTR ds:0x4243e0
  414785:	dec    esi
  414786:	lea    ecx,[esi+0x1]
  414789:	mov    eax,ecx
  41478b:	cdq    
  41478c:	and    edx,0x1f
  41478f:	add    eax,edx
  414791:	sar    eax,0x5
  414794:	mov    edx,ecx
  414796:	and    edx,0x8000001f
  41479c:	mov    DWORD PTR [ebp-0x10],ebx
  41479f:	mov    DWORD PTR [ebp-0xc],eax
  4147a2:	jns    0x4147a9
  4147a4:	dec    edx
  4147a5:	or     edx,0xffffffe0
  4147a8:	inc    edx
  4147a9:	lea    edi,[ebp+eax*4-0x20]
  4147ad:	push   0x1f
  4147af:	xor    eax,eax
  4147b1:	pop    ecx
  4147b2:	sub    ecx,edx
  4147b4:	inc    eax
  4147b5:	shl    eax,cl
  4147b7:	mov    DWORD PTR [ebp-0x8],ecx
  4147ba:	test   DWORD PTR [edi],eax
  4147bc:	je     0x41484f
  4147c2:	mov    eax,DWORD PTR [ebp-0xc]
  4147c5:	or     edx,0xffffffff
  4147c8:	shl    edx,cl
  4147ca:	not    edx
  4147cc:	test   DWORD PTR [ebp+eax*4-0x20],edx
  4147d0:	jmp    0x4147d7
  4147d2:	cmp    DWORD PTR [ebp+eax*4-0x20],0x0
  4147d7:	jne    0x4147e1
  4147d9:	inc    eax
  4147da:	cmp    eax,0x3
  4147dd:	jl     0x4147d2
  4147df:	jmp    0x41484f
  4147e1:	mov    eax,esi
  4147e3:	cdq    
  4147e4:	push   0x1f
  4147e6:	pop    ecx
  4147e7:	and    edx,ecx
  4147e9:	add    eax,edx
  4147eb:	sar    eax,0x5
  4147ee:	and    esi,0x8000001f
  4147f4:	jns    0x4147fb
  4147f6:	dec    esi
  4147f7:	or     esi,0xffffffe0
  4147fa:	inc    esi
  4147fb:	and    DWORD PTR [ebp-0x4],0x0
  4147ff:	sub    ecx,esi
  414801:	xor    edx,edx
  414803:	inc    edx
  414804:	shl    edx,cl
  414806:	lea    ecx,[ebp+eax*4-0x20]
  41480a:	mov    esi,DWORD PTR [ecx]
  41480c:	add    esi,edx
  41480e:	mov    DWORD PTR [ebp+0x8],esi
  414811:	mov    esi,DWORD PTR [ecx]
  414813:	cmp    DWORD PTR [ebp+0x8],esi
  414816:	jb     0x41483a
  414818:	cmp    DWORD PTR [ebp+0x8],edx
  41481b:	jmp    0x414838
  41481d:	test   ecx,ecx
  41481f:	je     0x41484c
  414821:	and    DWORD PTR [ebp-0x4],0x0
  414825:	lea    ecx,[ebp+eax*4-0x20]
  414829:	mov    edx,DWORD PTR [ecx]
  41482b:	lea    esi,[edx+0x1]
  41482e:	mov    DWORD PTR [ebp+0x8],esi
  414831:	cmp    esi,edx
  414833:	jb     0x41483a
  414835:	cmp    esi,0x1
  414838:	jae    0x414841
  41483a:	mov    DWORD PTR [ebp-0x4],0x1
  414841:	dec    eax
  414842:	mov    edx,DWORD PTR [ebp+0x8]
  414845:	mov    DWORD PTR [ecx],edx
  414847:	mov    ecx,DWORD PTR [ebp-0x4]
  41484a:	jns    0x41481d
  41484c:	mov    DWORD PTR [ebp+0x8],ecx
  41484f:	mov    ecx,DWORD PTR [ebp-0x8]
  414852:	or     eax,0xffffffff
  414855:	shl    eax,cl
  414857:	and    DWORD PTR [edi],eax
  414859:	mov    eax,DWORD PTR [ebp-0xc]
  41485c:	inc    eax
  41485d:	cmp    eax,0x3
  414860:	jge    0x41486f
  414862:	push   0x3
  414864:	pop    ecx
  414865:	lea    edi,[ebp+eax*4-0x20]
  414869:	sub    ecx,eax
  41486b:	xor    eax,eax
  41486d:	rep stos DWORD PTR es:[edi],eax
  41486f:	cmp    DWORD PTR [ebp+0x8],0x0
  414873:	je     0x414876
  414875:	inc    ebx
  414876:	mov    eax,ds:0x4243dc
  41487b:	mov    ecx,eax
  41487d:	sub    ecx,DWORD PTR ds:0x4243e0
  414883:	cmp    ebx,ecx
  414885:	jge    0x414894
  414887:	xor    eax,eax
  414889:	lea    edi,[ebp-0x20]
  41488c:	stos   DWORD PTR es:[edi],eax
  41488d:	stos   DWORD PTR es:[edi],eax
  41488e:	stos   DWORD PTR es:[edi],eax
  41488f:	jmp    0x414aa1
  414894:	cmp    ebx,eax
  414896:	jg     0x414aab
  41489c:	sub    eax,DWORD PTR [ebp-0x10]
  41489f:	lea    esi,[ebp-0x2c]
  4148a2:	mov    ecx,eax
  4148a4:	lea    edi,[ebp-0x20]
  4148a7:	movs   DWORD PTR es:[edi],DWORD PTR ds:[esi]
  4148a8:	cdq    
  4148a9:	and    edx,0x1f
  4148ac:	add    eax,edx
  4148ae:	movs   DWORD PTR es:[edi],DWORD PTR ds:[esi]
  4148af:	mov    edx,ecx
  4148b1:	sar    eax,0x5
  4148b4:	and    edx,0x8000001f
  4148ba:	movs   DWORD PTR es:[edi],DWORD PTR ds:[esi]
  4148bb:	jns    0x4148c2
  4148bd:	dec    edx
  4148be:	or     edx,0xffffffe0
  4148c1:	inc    edx
  4148c2:	and    DWORD PTR [ebp-0xc],0x0
  4148c6:	and    DWORD PTR [ebp+0x8],0x0
  4148ca:	or     edi,0xffffffff
  4148cd:	mov    ecx,edx
  4148cf:	shl    edi,cl
  4148d1:	mov    DWORD PTR [ebp-0x4],0x20
  4148d8:	sub    DWORD PTR [ebp-0x4],edx
  4148db:	not    edi
  4148dd:	mov    ebx,DWORD PTR [ebp+0x8]
  4148e0:	lea    ebx,[ebp+ebx*4-0x20]
  4148e4:	mov    esi,DWORD PTR [ebx]
  4148e6:	mov    ecx,esi
  4148e8:	and    ecx,edi
  4148ea:	mov    DWORD PTR [ebp-0x10],ecx
  4148ed:	mov    ecx,edx
  4148ef:	shr    esi,cl
  4148f1:	mov    ecx,DWORD PTR [ebp-0x4]
  4148f4:	or     esi,DWORD PTR [ebp-0xc]
  4148f7:	mov    DWORD PTR [ebx],esi
  4148f9:	mov    esi,DWORD PTR [ebp-0x10]
  4148fc:	shl    esi,cl
  4148fe:	inc    DWORD PTR [ebp+0x8]
  414901:	cmp    DWORD PTR [ebp+0x8],0x3
  414905:	mov    DWORD PTR [ebp-0xc],esi
  414908:	jl     0x4148dd
  41490a:	mov    esi,eax
  41490c:	push   0x2
  41490e:	shl    esi,0x2
  414911:	lea    ecx,[ebp-0x18]
  414914:	pop    edx
  414915:	sub    ecx,esi
  414917:	cmp    edx,eax
  414919:	jl     0x414923
  41491b:	mov    esi,DWORD PTR [ecx]
  41491d:	mov    DWORD PTR [ebp+edx*4-0x20],esi
  414921:	jmp    0x414928
  414923:	and    DWORD PTR [ebp+edx*4-0x20],0x0
  414928:	dec    edx
  414929:	sub    ecx,0x4
  41492c:	test   edx,edx
  41492e:	jge    0x414917
  414930:	mov    esi,DWORD PTR ds:0x4243e0
  414936:	dec    esi
  414937:	lea    ecx,[esi+0x1]
  41493a:	mov    eax,ecx
  41493c:	cdq    
  41493d:	and    edx,0x1f
  414940:	add    eax,edx
  414942:	sar    eax,0x5
  414945:	mov    edx,ecx
  414947:	and    edx,0x8000001f
  41494d:	mov    DWORD PTR [ebp-0xc],eax
  414950:	jns    0x414957
  414952:	dec    edx
  414953:	or     edx,0xffffffe0
  414956:	inc    edx
  414957:	push   0x1f
  414959:	pop    ecx
  41495a:	sub    ecx,edx
  41495c:	xor    edx,edx
  41495e:	inc    edx
  41495f:	shl    edx,cl
  414961:	lea    ebx,[ebp+eax*4-0x20]
  414965:	mov    DWORD PTR [ebp-0x10],ecx
  414968:	test   DWORD PTR [ebx],edx
  41496a:	je     0x4149f2
  414970:	or     edx,0xffffffff
  414973:	shl    edx,cl
  414975:	not    edx
  414977:	test   DWORD PTR [ebp+eax*4-0x20],edx
  41497b:	jmp    0x414982
  41497d:	cmp    DWORD PTR [ebp+eax*4-0x20],0x0
  414982:	jne    0x41498c
  414984:	inc    eax
  414985:	cmp    eax,0x3
  414988:	jl     0x41497d
  41498a:	jmp    0x4149f2
  41498c:	mov    eax,esi
  41498e:	cdq    
  41498f:	push   0x1f
  414991:	pop    ecx
  414992:	and    edx,ecx
  414994:	add    eax,edx
  414996:	sar    eax,0x5
  414999:	and    esi,0x8000001f
  41499f:	jns    0x4149a6
  4149a1:	dec    esi
  4149a2:	or     esi,0xffffffe0
  4149a5:	inc    esi
  4149a6:	and    DWORD PTR [ebp+0x8],0x0
  4149aa:	xor    edx,edx
  4149ac:	sub    ecx,esi
  4149ae:	inc    edx
  4149af:	shl    edx,cl
  4149b1:	lea    ecx,[ebp+eax*4-0x20]
  4149b5:	mov    esi,DWORD PTR [ecx]
  4149b7:	lea    edi,[esi+edx*1]
  4149ba:	cmp    edi,esi
  4149bc:	jb     0x4149c2
  4149be:	cmp    edi,edx
  4149c0:	jae    0x4149c9
  4149c2:	mov    DWORD PTR [ebp+0x8],0x1
  4149c9:	mov    DWORD PTR [ecx],edi
  4149cb:	mov    ecx,DWORD PTR [ebp+0x8]
  4149ce:	jmp    0x4149ef
  4149d0:	test   ecx,ecx
  4149d2:	je     0x4149f2
  4149d4:	lea    ecx,[ebp+eax*4-0x20]
  4149d8:	mov    edx,DWORD PTR [ecx]
  4149da:	lea    esi,[edx+0x1]
  4149dd:	xor    edi,edi
  4149df:	cmp    esi,edx
  4149e1:	jb     0x4149e8
  4149e3:	cmp    esi,0x1
  4149e6:	jae    0x4149eb
  4149e8:	xor    edi,edi
  4149ea:	inc    edi
  4149eb:	mov    DWORD PTR [ecx],esi
  4149ed:	mov    ecx,edi
  4149ef:	dec    eax
  4149f0:	jns    0x4149d0
  4149f2:	mov    ecx,DWORD PTR [ebp-0x10]
  4149f5:	or     eax,0xffffffff
  4149f8:	shl    eax,cl
  4149fa:	and    DWORD PTR [ebx],eax
  4149fc:	mov    eax,DWORD PTR [ebp-0xc]
  4149ff:	inc    eax
  414a00:	cmp    eax,0x3
  414a03:	jge    0x414a12
  414a05:	push   0x3
  414a07:	pop    ecx
  414a08:	lea    edi,[ebp+eax*4-0x20]
  414a0c:	sub    ecx,eax
  414a0e:	xor    eax,eax
  414a10:	rep stos DWORD PTR es:[edi],eax
  414a12:	mov    ecx,DWORD PTR ds:0x4243e4
  414a18:	inc    ecx
  414a19:	mov    eax,ecx
  414a1b:	cdq    
  414a1c:	and    edx,0x1f
  414a1f:	add    eax,edx
  414a21:	mov    edx,ecx
  414a23:	sar    eax,0x5
  414a26:	and    edx,0x8000001f
  414a2c:	jns    0x414a33
  414a2e:	dec    edx
  414a2f:	or     edx,0xffffffe0
  414a32:	inc    edx
  414a33:	and    DWORD PTR [ebp-0xc],0x0
  414a37:	and    DWORD PTR [ebp+0x8],0x0
  414a3b:	or     edi,0xffffffff
  414a3e:	mov    ecx,edx
  414a40:	shl    edi,cl
  414a42:	mov    DWORD PTR [ebp-0x4],0x20
  414a49:	sub    DWORD PTR [ebp-0x4],edx
  414a4c:	not    edi
  414a4e:	mov    ebx,DWORD PTR [ebp+0x8]
  414a51:	lea    ebx,[ebp+ebx*4-0x20]
  414a55:	mov    esi,DWORD PTR [ebx]
  414a57:	mov    ecx,esi
  414a59:	and    ecx,edi
  414a5b:	mov    DWORD PTR [ebp-0x10],ecx
  414a5e:	mov    ecx,edx
  414a60:	shr    esi,cl
  414a62:	mov    ecx,DWORD PTR [ebp-0x4]
  414a65:	or     esi,DWORD PTR [ebp-0xc]
  414a68:	mov    DWORD PTR [ebx],esi
  414a6a:	mov    esi,DWORD PTR [ebp-0x10]
  414a6d:	shl    esi,cl
  414a6f:	inc    DWORD PTR [ebp+0x8]
  414a72:	cmp    DWORD PTR [ebp+0x8],0x3
  414a76:	mov    DWORD PTR [ebp-0xc],esi
  414a79:	jl     0x414a4e
  414a7b:	mov    esi,eax
  414a7d:	push   0x2
  414a7f:	shl    esi,0x2
  414a82:	lea    ecx,[ebp-0x18]
  414a85:	pop    edx
  414a86:	sub    ecx,esi
  414a88:	cmp    edx,eax
  414a8a:	jl     0x414a94
  414a8c:	mov    esi,DWORD PTR [ecx]
  414a8e:	mov    DWORD PTR [ebp+edx*4-0x20],esi
  414a92:	jmp    0x414a99
  414a94:	and    DWORD PTR [ebp+edx*4-0x20],0x0
  414a99:	dec    edx
  414a9a:	sub    ecx,0x4
  414a9d:	test   edx,edx
  414a9f:	jge    0x414a88
  414aa1:	push   0x2
  414aa3:	xor    ebx,ebx
  414aa5:	pop    eax
  414aa6:	jmp    0x414c05
  414aab:	cmp    ebx,DWORD PTR ds:0x4243d8
  414ab1:	mov    ecx,DWORD PTR ds:0x4243e4
  414ab7:	jl     0x414b6a
  414abd:	xor    eax,eax
  414abf:	lea    edi,[ebp-0x20]
  414ac2:	stos   DWORD PTR es:[edi],eax
  414ac3:	stos   DWORD PTR es:[edi],eax
  414ac4:	stos   DWORD PTR es:[edi],eax
  414ac5:	or     DWORD PTR [ebp-0x20],0x80000000
  414acc:	mov    eax,ecx
  414ace:	cdq    
  414acf:	and    edx,0x1f
  414ad2:	add    eax,edx
  414ad4:	mov    edx,ecx
  414ad6:	sar    eax,0x5
  414ad9:	and    edx,0x8000001f
  414adf:	jns    0x414ae6
  414ae1:	dec    edx
  414ae2:	or     edx,0xffffffe0
  414ae5:	inc    edx
  414ae6:	and    DWORD PTR [ebp-0xc],0x0
  414aea:	and    DWORD PTR [ebp+0x8],0x0
  414aee:	or     edi,0xffffffff
  414af1:	mov    ecx,edx
  414af3:	shl    edi,cl
  414af5:	mov    DWORD PTR [ebp-0x4],0x20
  414afc:	sub    DWORD PTR [ebp-0x4],edx
  414aff:	not    edi
  414b01:	mov    ebx,DWORD PTR [ebp+0x8]
  414b04:	lea    ebx,[ebp+ebx*4-0x20]
  414b08:	mov    esi,DWORD PTR [ebx]
  414b0a:	mov    ecx,esi
  414b0c:	and    ecx,edi
  414b0e:	mov    DWORD PTR [ebp-0x10],ecx
  414b11:	mov    ecx,edx
  414b13:	shr    esi,cl
  414b15:	mov    ecx,DWORD PTR [ebp-0x4]
  414b18:	or     esi,DWORD PTR [ebp-0xc]
  414b1b:	mov    DWORD PTR [ebx],esi
  414b1d:	mov    esi,DWORD PTR [ebp-0x10]
  414b20:	shl    esi,cl
  414b22:	inc    DWORD PTR [ebp+0x8]
  414b25:	cmp    DWORD PTR [ebp+0x8],0x3
  414b29:	mov    DWORD PTR [ebp-0xc],esi
  414b2c:	jl     0x414b01
  414b2e:	mov    esi,eax
  414b30:	push   0x2
  414b32:	shl    esi,0x2
  414b35:	lea    ecx,[ebp-0x18]
  414b38:	pop    edx
  414b39:	sub    ecx,esi
  414b3b:	cmp    edx,eax
  414b3d:	jl     0x414b47
  414b3f:	mov    esi,DWORD PTR [ecx]
  414b41:	mov    DWORD PTR [ebp+edx*4-0x20],esi
  414b45:	jmp    0x414b4c
  414b47:	and    DWORD PTR [ebp+edx*4-0x20],0x0
  414b4c:	dec    edx
  414b4d:	sub    ecx,0x4
  414b50:	test   edx,edx
  414b52:	jge    0x414b3b
  414b54:	mov    eax,ds:0x4243d8
  414b59:	mov    ecx,DWORD PTR ds:0x4243ec
  414b5f:	lea    ebx,[ecx+eax*1]
  414b62:	xor    eax,eax
  414b64:	inc    eax
  414b65:	jmp    0x414c05
  414b6a:	mov    eax,ds:0x4243ec
  414b6f:	and    DWORD PTR [ebp-0x20],0x7fffffff
  414b76:	add    ebx,eax
  414b78:	mov    eax,ecx
  414b7a:	cdq    
  414b7b:	and    edx,0x1f
  414b7e:	add    eax,edx
  414b80:	mov    edx,ecx
  414b82:	sar    eax,0x5
  414b85:	and    edx,0x8000001f
  414b8b:	jns    0x414b92
  414b8d:	dec    edx
  414b8e:	or     edx,0xffffffe0
  414b91:	inc    edx
  414b92:	and    DWORD PTR [ebp-0xc],0x0
  414b96:	and    DWORD PTR [ebp+0x8],0x0
  414b9a:	or     esi,0xffffffff
  414b9d:	mov    ecx,edx
  414b9f:	shl    esi,cl
  414ba1:	mov    DWORD PTR [ebp-0x4],0x20
  414ba8:	sub    DWORD PTR [ebp-0x4],edx
  414bab:	not    esi
  414bad:	mov    ecx,DWORD PTR [ebp+0x8]
  414bb0:	mov    edi,DWORD PTR [ebp+ecx*4-0x20]
  414bb4:	mov    ecx,edi
  414bb6:	and    ecx,esi
  414bb8:	mov    DWORD PTR [ebp-0x10],ecx
  414bbb:	mov    ecx,edx
  414bbd:	shr    edi,cl
  414bbf:	mov    ecx,DWORD PTR [ebp+0x8]
  414bc2:	or     edi,DWORD PTR [ebp-0xc]
  414bc5:	mov    DWORD PTR [ebp+ecx*4-0x20],edi
  414bc9:	mov    edi,DWORD PTR [ebp-0x10]
  414bcc:	mov    ecx,DWORD PTR [ebp-0x4]
  414bcf:	shl    edi,cl
  414bd1:	inc    DWORD PTR [ebp+0x8]
  414bd4:	cmp    DWORD PTR [ebp+0x8],0x3
  414bd8:	mov    DWORD PTR [ebp-0xc],edi
  414bdb:	jl     0x414bad
  414bdd:	mov    esi,eax
  414bdf:	push   0x2
  414be1:	shl    esi,0x2
  414be4:	lea    ecx,[ebp-0x18]
  414be7:	pop    edx
  414be8:	sub    ecx,esi
  414bea:	cmp    edx,eax
  414bec:	jl     0x414bf6
  414bee:	mov    esi,DWORD PTR [ecx]
  414bf0:	mov    DWORD PTR [ebp+edx*4-0x20],esi
  414bf4:	jmp    0x414bfb
  414bf6:	and    DWORD PTR [ebp+edx*4-0x20],0x0
  414bfb:	dec    edx
  414bfc:	sub    ecx,0x4
  414bff:	test   edx,edx
  414c01:	jge    0x414bea
  414c03:	xor    eax,eax
  414c05:	pop    esi
  414c06:	push   0x1f
  414c08:	pop    ecx
  414c09:	sub    ecx,DWORD PTR ds:0x4243e4
  414c0f:	shl    ebx,cl
  414c11:	mov    ecx,DWORD PTR [ebp-0x14]
  414c14:	neg    ecx
  414c16:	sbb    ecx,ecx
  414c18:	and    ecx,0x80000000
  414c1e:	or     ebx,ecx
  414c20:	mov    ecx,DWORD PTR ds:0x4243e8
  414c26:	or     ebx,DWORD PTR [ebp-0x20]
  414c29:	cmp    ecx,0x40
  414c2c:	jne    0x414c3b
  414c2e:	mov    ecx,DWORD PTR [ebp+0xc]
  414c31:	mov    edx,DWORD PTR [ebp-0x1c]
  414c34:	mov    DWORD PTR [ecx+0x4],ebx
  414c37:	mov    DWORD PTR [ecx],edx
  414c39:	jmp    0x414c45
  414c3b:	cmp    ecx,0x20
  414c3e:	jne    0x414c45
  414c40:	mov    ecx,DWORD PTR [ebp+0xc]
  414c43:	mov    DWORD PTR [ecx],ebx
  414c45:	pop    edi
  414c46:	pop    ebx
  414c47:	leave  
  414c48:	ret    
  414c49:	mov    edi,edi
  414c4b:	push   ebp
  414c4c:	mov    ebp,esp
  414c4e:	sub    esp,0x7c
  414c51:	mov    eax,ds:0x423d68
  414c56:	xor    eax,ebp
  414c58:	mov    DWORD PTR [ebp-0x4],eax
  414c5b:	mov    eax,DWORD PTR [ebp+0x8]
  414c5e:	push   ebx
  414c5f:	xor    ebx,ebx
  414c61:	push   esi
  414c62:	xor    esi,esi
  414c64:	mov    DWORD PTR [ebp-0x78],eax
  414c67:	mov    eax,DWORD PTR [ebp+0xc]
  414c6a:	inc    esi
  414c6b:	xor    ecx,ecx
  414c6d:	push   edi
  414c6e:	mov    DWORD PTR [ebp-0x70],eax
  414c71:	lea    edi,[ebp-0x20]
  414c74:	mov    DWORD PTR [ebp-0x74],ebx
  414c77:	mov    DWORD PTR [ebp-0x68],esi
  414c7a:	mov    DWORD PTR [ebp-0x4c],ebx
  414c7d:	mov    DWORD PTR [ebp-0x58],ebx
  414c80:	mov    DWORD PTR [ebp-0x5c],ebx
  414c83:	mov    DWORD PTR [ebp-0x60],ebx
  414c86:	mov    DWORD PTR [ebp-0x64],ebx
  414c89:	mov    DWORD PTR [ebp-0x50],ebx
  414c8c:	mov    DWORD PTR [ebp-0x6c],ebx
  414c8f:	cmp    DWORD PTR [ebp+0x24],ebx
  414c92:	jne    0x414cb3
  414c94:	call   0x4087a4
  414c99:	push   ebx
  414c9a:	push   ebx
  414c9b:	push   ebx
  414c9c:	push   ebx
  414c9d:	push   ebx
  414c9e:	mov    DWORD PTR [eax],0x16
  414ca4:	call   0x40873c
  414ca9:	add    esp,0x14
  414cac:	xor    eax,eax
  414cae:	jmp    0x415301
  414cb3:	mov    edx,DWORD PTR [ebp+0x10]
  414cb6:	mov    DWORD PTR [ebp-0x54],edx
  414cb9:	mov    al,BYTE PTR [edx]
  414cbb:	cmp    al,0x20
  414cbd:	je     0x414ccb
  414cbf:	cmp    al,0x9
  414cc1:	je     0x414ccb
  414cc3:	cmp    al,0xa
  414cc5:	je     0x414ccb
  414cc7:	cmp    al,0xd
  414cc9:	jne    0x414cce
  414ccb:	inc    edx
  414ccc:	jmp    0x414cb9
  414cce:	mov    bl,0x30
  414cd0:	mov    al,BYTE PTR [edx]
  414cd2:	inc    edx
  414cd3:	cmp    ecx,0xb
  414cd6:	ja     0x414f0b
  414cdc:	jmp    DWORD PTR [ecx*4+0x415311]
  414ce3:	mov    cl,al
  414ce5:	sub    cl,0x31
  414ce8:	cmp    cl,0x8
  414ceb:	ja     0x414cf3
  414ced:	push   0x3
  414cef:	pop    ecx
  414cf0:	dec    edx
  414cf1:	jmp    0x414cd0
  414cf3:	mov    ecx,DWORD PTR [ebp+0x24]
  414cf6:	mov    ecx,DWORD PTR [ecx]
  414cf8:	mov    ecx,DWORD PTR [ecx+0xbc]
  414cfe:	mov    ecx,DWORD PTR [ecx]
  414d00:	cmp    al,BYTE PTR [ecx]
  414d02:	jne    0x414d09
  414d04:	push   0x5
  414d06:	pop    ecx
  414d07:	jmp    0x414cd0
  414d09:	movsx  eax,al
  414d0c:	sub    eax,0x2b
  414d0f:	je     0x414d2e
  414d11:	dec    eax
  414d12:	dec    eax
  414d13:	je     0x414d22
  414d15:	sub    eax,0x3
  414d18:	jne    0x414ea9
  414d1e:	mov    ecx,esi
  414d20:	jmp    0x414cd0
  414d22:	push   0x2
  414d24:	pop    ecx
  414d25:	mov    DWORD PTR [ebp-0x74],0x8000
  414d2c:	jmp    0x414cd0
  414d2e:	and    DWORD PTR [ebp-0x74],0x0
  414d32:	push   0x2
  414d34:	pop    ecx
  414d35:	jmp    0x414cd0
  414d37:	mov    cl,al
  414d39:	sub    cl,0x31
  414d3c:	mov    DWORD PTR [ebp-0x58],esi
  414d3f:	cmp    cl,0x8
  414d42:	jbe    0x414ced
  414d44:	mov    ecx,DWORD PTR [ebp+0x24]
  414d47:	mov    ecx,DWORD PTR [ecx]
  414d49:	mov    ecx,DWORD PTR [ecx+0xbc]
  414d4f:	mov    ecx,DWORD PTR [ecx]
  414d51:	cmp    al,BYTE PTR [ecx]
  414d53:	jne    0x414d59
  414d55:	push   0x4
  414d57:	jmp    0x414d06
  414d59:	cmp    al,0x2b
  414d5b:	je     0x414d85
  414d5d:	cmp    al,0x2d
  414d5f:	je     0x414d85
  414d61:	cmp    al,bl
  414d63:	je     0x414d1e
  414d65:	cmp    al,0x43
  414d67:	jle    0x414ea9
  414d6d:	cmp    al,0x45
  414d6f:	jle    0x414d81
  414d71:	cmp    al,0x63
  414d73:	jle    0x414ea9
  414d79:	cmp    al,0x65
  414d7b:	jg     0x414ea9
  414d81:	push   0x6
  414d83:	jmp    0x414d06
  414d85:	dec    edx
  414d86:	push   0xb
  414d88:	jmp    0x414d06
  414d8d:	mov    cl,al
  414d8f:	sub    cl,0x31
  414d92:	cmp    cl,0x8
  414d95:	jbe    0x414ced
  414d9b:	mov    ecx,DWORD PTR [ebp+0x24]
  414d9e:	mov    ecx,DWORD PTR [ecx]
  414da0:	mov    ecx,DWORD PTR [ecx+0xbc]
  414da6:	mov    ecx,DWORD PTR [ecx]
  414da8:	cmp    al,BYTE PTR [ecx]
  414daa:	je     0x414d04
  414db0:	cmp    al,bl
  414db2:	je     0x414d1e
  414db8:	mov    edx,DWORD PTR [ebp-0x54]
  414dbb:	jmp    0x414ed4
  414dc0:	mov    DWORD PTR [ebp-0x58],esi
  414dc3:	jmp    0x414ddf
  414dc5:	cmp    al,0x39
  414dc7:	jg     0x414de3
  414dc9:	cmp    DWORD PTR [ebp-0x4c],0x19
  414dcd:	jae    0x414dd9
  414dcf:	inc    DWORD PTR [ebp-0x4c]
  414dd2:	sub    al,bl
  414dd4:	mov    BYTE PTR [edi],al
  414dd6:	inc    edi
  414dd7:	jmp    0x414ddc
  414dd9:	inc    DWORD PTR [ebp-0x50]
  414ddc:	mov    al,BYTE PTR [edx]
  414dde:	inc    edx
  414ddf:	cmp    al,bl
  414de1:	jge    0x414dc5
  414de3:	mov    ecx,DWORD PTR [ebp+0x24]
  414de6:	mov    ecx,DWORD PTR [ecx]
  414de8:	mov    ecx,DWORD PTR [ecx+0xbc]
  414dee:	mov    ecx,DWORD PTR [ecx]
  414df0:	cmp    al,BYTE PTR [ecx]
  414df2:	je     0x414d55
  414df8:	cmp    al,0x2b
  414dfa:	je     0x414d85
  414dfc:	cmp    al,0x2d
  414dfe:	je     0x414d85
  414e00:	jmp    0x414d65
  414e05:	cmp    DWORD PTR [ebp-0x4c],0x0
  414e09:	mov    DWORD PTR [ebp-0x58],esi
  414e0c:	mov    DWORD PTR [ebp-0x5c],esi
  414e0f:	jne    0x414e37
  414e11:	jmp    0x414e19
  414e13:	dec    DWORD PTR [ebp-0x50]
  414e16:	mov    al,BYTE PTR [edx]
  414e18:	inc    edx
  414e19:	cmp    al,bl
  414e1b:	je     0x414e13
  414e1d:	jmp    0x414e37
  414e1f:	cmp    al,0x39
  414e21:	jg     0x414df8
  414e23:	cmp    DWORD PTR [ebp-0x4c],0x19
  414e27:	jae    0x414e34
  414e29:	inc    DWORD PTR [ebp-0x4c]
  414e2c:	sub    al,bl
  414e2e:	mov    BYTE PTR [edi],al
  414e30:	inc    edi
  414e31:	dec    DWORD PTR [ebp-0x50]
  414e34:	mov    al,BYTE PTR [edx]
  414e36:	inc    edx
  414e37:	cmp    al,bl
  414e39:	jge    0x414e1f
  414e3b:	jmp    0x414df8
  414e3d:	sub    al,bl
  414e3f:	mov    DWORD PTR [ebp-0x5c],esi
  414e42:	cmp    al,0x9
  414e44:	ja     0x414db8
  414e4a:	push   0x4
  414e4c:	jmp    0x414cef
  414e51:	lea    ecx,[edx-0x2]
  414e54:	mov    DWORD PTR [ebp-0x54],ecx
  414e57:	mov    cl,al
  414e59:	sub    cl,0x31
  414e5c:	cmp    cl,0x8
  414e5f:	ja     0x414e68
  414e61:	push   0x9
  414e63:	jmp    0x414cef
  414e68:	movsx  eax,al
  414e6b:	sub    eax,0x2b
  414e6e:	je     0x414e90
  414e70:	dec    eax
  414e71:	dec    eax
  414e72:	je     0x414e84
  414e74:	sub    eax,0x3
  414e77:	jne    0x414db8
  414e7d:	push   0x8
  414e7f:	jmp    0x414d06
  414e84:	or     DWORD PTR [ebp-0x68],0xffffffff
  414e88:	push   0x7
  414e8a:	pop    ecx
  414e8b:	jmp    0x414cd0
  414e90:	push   0x7
  414e92:	jmp    0x414d06
  414e97:	mov    DWORD PTR [ebp-0x60],esi
  414e9a:	jmp    0x414e9f
  414e9c:	mov    al,BYTE PTR [edx]
  414e9e:	inc    edx
  414e9f:	cmp    al,bl
  414ea1:	je     0x414e9c
  414ea3:	sub    al,0x31
  414ea5:	cmp    al,0x8
  414ea7:	jbe    0x414e61
  414ea9:	dec    edx
  414eaa:	jmp    0x414ed4
  414eac:	mov    cl,al
  414eae:	sub    cl,0x31
  414eb1:	cmp    cl,0x8
  414eb4:	jbe    0x414e61
  414eb6:	cmp    al,bl
  414eb8:	jmp    0x414e77
  414eba:	cmp    DWORD PTR [ebp+0x20],0x0
  414ebe:	je     0x414f07
  414ec0:	movsx  eax,al
  414ec3:	sub    eax,0x2b
  414ec6:	lea    ecx,[edx-0x1]
  414ec9:	mov    DWORD PTR [ebp-0x54],ecx
  414ecc:	je     0x414e90
  414ece:	dec    eax
  414ecf:	dec    eax
  414ed0:	je     0x414e84
  414ed2:	mov    edx,ecx
  414ed4:	cmp    DWORD PTR [ebp-0x58],0x0
  414ed8:	mov    eax,DWORD PTR [ebp-0x70]
  414edb:	mov    DWORD PTR [eax],edx
  414edd:	je     0x4152bc
  414ee3:	push   0x18
  414ee5:	pop    eax
  414ee6:	cmp    DWORD PTR [ebp-0x4c],eax
  414ee9:	jbe    0x414efb
  414eeb:	cmp    BYTE PTR [ebp-0x9],0x5
  414eef:	jl     0x414ef4
  414ef1:	inc    BYTE PTR [ebp-0x9]
  414ef4:	dec    edi
  414ef5:	inc    DWORD PTR [ebp-0x50]
  414ef8:	mov    DWORD PTR [ebp-0x4c],eax
  414efb:	cmp    DWORD PTR [ebp-0x4c],0x0
  414eff:	jbe    0x4152e3
  414f05:	jmp    0x414f60
  414f07:	push   0xa
  414f09:	pop    ecx
  414f0a:	dec    edx
  414f0b:	cmp    ecx,0xa
  414f0e:	jne    0x414cd0
  414f14:	jmp    0x414ed4
  414f16:	mov    DWORD PTR [ebp-0x60],esi
  414f19:	xor    ecx,ecx
  414f1b:	jmp    0x414f36
  414f1d:	cmp    al,0x39
  414f1f:	jg     0x414f41
  414f21:	imul   ecx,ecx,0xa
  414f24:	movsx  esi,al
  414f27:	lea    ecx,[ecx+esi*1-0x30]
  414f2b:	cmp    ecx,0x1450
  414f31:	jg     0x414f3c
  414f33:	mov    al,BYTE PTR [edx]
  414f35:	inc    edx
  414f36:	cmp    al,bl
  414f38:	jge    0x414f1d
  414f3a:	jmp    0x414f41
  414f3c:	mov    ecx,0x1451
  414f41:	mov    DWORD PTR [ebp-0x64],ecx
  414f44:	jmp    0x414f51
  414f46:	cmp    al,0x39
  414f48:	jg     0x414ea9
  414f4e:	mov    al,BYTE PTR [edx]
  414f50:	inc    edx
  414f51:	cmp    al,bl
  414f53:	jge    0x414f46
  414f55:	jmp    0x414ea9
  414f5a:	dec    DWORD PTR [ebp-0x4c]
  414f5d:	inc    DWORD PTR [ebp-0x50]
  414f60:	dec    edi
  414f61:	cmp    BYTE PTR [edi],0x0
  414f64:	je     0x414f5a
  414f66:	lea    eax,[ebp-0x3c]
  414f69:	push   eax
  414f6a:	push   DWORD PTR [ebp-0x4c]
  414f6d:	lea    eax,[ebp-0x20]
  414f70:	push   eax
  414f71:	call   0x416505
  414f76:	mov    eax,DWORD PTR [ebp-0x64]
  414f79:	xor    edx,edx
  414f7b:	add    esp,0xc
  414f7e:	cmp    DWORD PTR [ebp-0x68],edx
  414f81:	jge    0x414f85
  414f83:	neg    eax
  414f85:	add    eax,DWORD PTR [ebp-0x50]
  414f88:	cmp    DWORD PTR [ebp-0x60],edx
  414f8b:	jne    0x414f90
  414f8d:	add    eax,DWORD PTR [ebp+0x18]
  414f90:	cmp    DWORD PTR [ebp-0x5c],edx
  414f93:	jne    0x414f98
  414f95:	sub    eax,DWORD PTR [ebp+0x1c]
  414f98:	cmp    eax,0x1450
  414f9d:	jg     0x4152c5
  414fa3:	cmp    eax,0xffffebb0
  414fa8:	jl     0x4152dc
  414fae:	mov    ecx,0x424408
  414fb3:	sub    ecx,0x60
  414fb6:	mov    DWORD PTR [ebp-0x54],eax
  414fb9:	cmp    eax,edx
  414fbb:	je     0x4152aa
  414fc1:	jge    0x414fd0
  414fc3:	neg    eax
  414fc5:	mov    ecx,0x424568
  414fca:	mov    DWORD PTR [ebp-0x54],eax
  414fcd:	sub    ecx,0x60
  414fd0:	cmp    DWORD PTR [ebp+0x14],edx
  414fd3:	jne    0x414fdb
  414fd5:	xor    eax,eax
  414fd7:	mov    WORD PTR [ebp-0x3c],ax
  414fdb:	cmp    DWORD PTR [ebp-0x54],edx
  414fde:	je     0x4152aa
  414fe4:	jmp    0x414feb
  414fe6:	mov    ecx,DWORD PTR [ebp-0x7c]
  414fe9:	xor    edx,edx
  414feb:	mov    eax,DWORD PTR [ebp-0x54]
  414fee:	sar    DWORD PTR [ebp-0x54],0x3
  414ff2:	add    ecx,0x54
  414ff5:	and    eax,0x7
  414ff8:	mov    DWORD PTR [ebp-0x7c],ecx
  414ffb:	cmp    eax,edx
  414ffd:	je     0x4152a0
  415003:	imul   eax,eax,0xc
  415006:	add    eax,ecx
  415008:	mov    ebx,eax
  41500a:	mov    eax,0x8000
  41500f:	cmp    WORD PTR [ebx],ax
  415012:	jb     0x415022
  415014:	mov    esi,ebx
  415016:	lea    edi,[ebp-0x48]
  415019:	movs   DWORD PTR es:[edi],DWORD PTR ds:[esi]
  41501a:	movs   DWORD PTR es:[edi],DWORD PTR ds:[esi]
  41501b:	movs   DWORD PTR es:[edi],DWORD PTR ds:[esi]
  41501c:	dec    DWORD PTR [ebp-0x46]
  41501f:	lea    ebx,[ebp-0x48]
  415022:	movzx  ecx,WORD PTR [ebx+0xa]
  415026:	xor    eax,eax
  415028:	mov    DWORD PTR [ebp-0x50],eax
  41502b:	mov    DWORD PTR [ebp-0x2c],eax
  41502e:	mov    DWORD PTR [ebp-0x28],eax
  415031:	mov    DWORD PTR [ebp-0x24],eax
  415034:	mov    eax,DWORD PTR [ebp-0x32]
  415037:	mov    esi,ecx
  415039:	mov    edx,0x7fff
  41503e:	xor    esi,eax
  415040:	and    eax,edx
  415042:	and    ecx,edx
  415044:	and    esi,0x8000
  41504a:	mov    edi,0x7fff
  41504f:	lea    edx,[ecx+eax*1]
  415052:	mov    DWORD PTR [ebp-0x70],esi
  415055:	movzx  edx,dx
  415058:	cmp    ax,di
  41505b:	jae    0x415282
  415061:	cmp    cx,di
  415064:	jae    0x415282
  41506a:	mov    edi,0xbffd
  41506f:	cmp    dx,di
  415072:	ja     0x415282
  415078:	mov    esi,0x3fbf
  41507d:	cmp    dx,si
  415080:	ja     0x41508f
  415082:	xor    eax,eax
  415084:	mov    DWORD PTR [ebp-0x38],eax
  415087:	mov    DWORD PTR [ebp-0x3c],eax
  41508a:	jmp    0x41529d
  41508f:	xor    esi,esi
  415091:	cmp    ax,si
  415094:	jne    0x4150b5
  415096:	inc    edx
  415097:	test   DWORD PTR [ebp-0x34],0x7fffffff
  41509e:	jne    0x4150b5
  4150a0:	cmp    DWORD PTR [ebp-0x38],esi
  4150a3:	jne    0x4150b5
  4150a5:	cmp    DWORD PTR [ebp-0x3c],esi
  4150a8:	jne    0x4150b5
  4150aa:	xor    eax,eax
  4150ac:	mov    WORD PTR [ebp-0x32],ax
  4150b0:	jmp    0x4152a0
  4150b5:	cmp    cx,si
  4150b8:	jne    0x4150db
  4150ba:	inc    edx
  4150bb:	test   DWORD PTR [ebx+0x8],0x7fffffff
  4150c2:	jne    0x4150db
  4150c4:	cmp    DWORD PTR [ebx+0x4],esi
  4150c7:	jne    0x4150db
  4150c9:	cmp    DWORD PTR [ebx],esi
  4150cb:	jne    0x4150db
  4150cd:	mov    DWORD PTR [ebp-0x34],esi
  4150d0:	mov    DWORD PTR [ebp-0x38],esi
  4150d3:	mov    DWORD PTR [ebp-0x3c],esi
  4150d6:	jmp    0x4152a0
  4150db:	mov    DWORD PTR [ebp-0x68],esi
  4150de:	lea    edi,[ebp-0x28]
  4150e1:	mov    DWORD PTR [ebp-0x58],0x5
  4150e8:	mov    eax,DWORD PTR [ebp-0x68]
  4150eb:	mov    ecx,DWORD PTR [ebp-0x58]
  4150ee:	add    eax,eax
  4150f0:	mov    DWORD PTR [ebp-0x64],ecx
  4150f3:	test   ecx,ecx
  4150f5:	jle    0x415149
  4150f7:	lea    eax,[ebp+eax*1-0x3c]
  4150fb:	mov    DWORD PTR [ebp-0x5c],eax
  4150fe:	lea    eax,[ebx+0x8]
  415101:	mov    DWORD PTR [ebp-0x60],eax
  415104:	mov    eax,DWORD PTR [ebp-0x60]
  415107:	mov    ecx,DWORD PTR [ebp-0x5c]
  41510a:	movzx  ecx,WORD PTR [ecx]
  41510d:	movzx  eax,WORD PTR [eax]
  415110:	and    DWORD PTR [ebp-0x4c],0x0
  415114:	imul   eax,ecx
  415117:	mov    ecx,DWORD PTR [edi-0x4]
  41511a:	lea    esi,[ecx+eax*1]
  41511d:	cmp    esi,ecx
  41511f:	jb     0x415125
  415121:	cmp    esi,eax
  415123:	jae    0x41512c
  415125:	mov    DWORD PTR [ebp-0x4c],0x1
  41512c:	cmp    DWORD PTR [ebp-0x4c],0x0
  415130:	mov    DWORD PTR [edi-0x4],esi
  415133:	je     0x415138
  415135:	inc    WORD PTR [edi]
  415138:	add    DWORD PTR [ebp-0x5c],0x2
  41513c:	sub    DWORD PTR [ebp-0x60],0x2
  415140:	dec    DWORD PTR [ebp-0x64]
  415143:	cmp    DWORD PTR [ebp-0x64],0x0
  415147:	jg     0x415104
  415149:	inc    edi
  41514a:	inc    edi
  41514b:	inc    DWORD PTR [ebp-0x68]
  41514e:	dec    DWORD PTR [ebp-0x58]
  415151:	cmp    DWORD PTR [ebp-0x58],0x0
  415155:	jg     0x4150e8
  415157:	add    edx,0xc002
  41515d:	test   dx,dx
  415160:	jle    0x415199
  415162:	mov    edi,DWORD PTR [ebp-0x24]
  415165:	test   edi,edi
  415167:	js     0x415194
  415169:	mov    esi,DWORD PTR [ebp-0x28]
  41516c:	mov    eax,DWORD PTR [ebp-0x2c]
  41516f:	shl    DWORD PTR [ebp-0x2c],1
  415172:	shr    eax,0x1f
  415175:	mov    ecx,esi
  415177:	add    esi,esi
  415179:	or     esi,eax
  41517b:	shr    ecx,0x1f
  41517e:	lea    eax,[edi+edi*1]
  415181:	or     eax,ecx
  415183:	add    edx,0xffff
  415189:	mov    DWORD PTR [ebp-0x28],esi
  41518c:	mov    DWORD PTR [ebp-0x24],eax
  41518f:	test   dx,dx
  415192:	jg     0x415162
  415194:	test   dx,dx
  415197:	jg     0x4151e6
  415199:	add    edx,0xffff
  41519f:	test   dx,dx
  4151a2:	jge    0x4151e6
  4151a4:	mov    eax,edx
  4151a6:	neg    eax
  4151a8:	movzx  esi,ax
  4151ab:	add    edx,esi
  4151ad:	test   BYTE PTR [ebp-0x2c],0x1
  4151b1:	je     0x4151b6
  4151b3:	inc    DWORD PTR [ebp-0x50]
  4151b6:	mov    eax,DWORD PTR [ebp-0x24]
  4151b9:	mov    edi,DWORD PTR [ebp-0x28]
  4151bc:	mov    ecx,DWORD PTR [ebp-0x28]
  4151bf:	shr    DWORD PTR [ebp-0x24],1
  4151c2:	shl    eax,0x1f
  4151c5:	shr    edi,1
  4151c7:	or     edi,eax
  4151c9:	mov    eax,DWORD PTR [ebp-0x2c]
  4151cc:	shl    ecx,0x1f
  4151cf:	shr    eax,1
  4151d1:	or     eax,ecx
  4151d3:	dec    esi
  4151d4:	mov    DWORD PTR [ebp-0x28],edi
  4151d7:	mov    DWORD PTR [ebp-0x2c],eax
  4151da:	jne    0x4151ad
  4151dc:	cmp    DWORD PTR [ebp-0x50],esi
  4151df:	je     0x4151e6
  4151e1:	or     WORD PTR [ebp-0x2c],0x1
  4151e6:	mov    eax,0x8000
  4151eb:	mov    ecx,eax
  4151ed:	cmp    WORD PTR [ebp-0x2c],cx
  4151f1:	ja     0x415204
  4151f3:	mov    ecx,DWORD PTR [ebp-0x2c]
  4151f6:	and    ecx,0x1ffff
  4151fc:	cmp    ecx,0x18000
  415202:	jne    0x415238
  415204:	cmp    DWORD PTR [ebp-0x2a],0xffffffff
  415208:	jne    0x415235
  41520a:	and    DWORD PTR [ebp-0x2a],0x0
  41520e:	cmp    DWORD PTR [ebp-0x26],0xffffffff
  415212:	jne    0x415230
  415214:	and    DWORD PTR [ebp-0x26],0x0
  415218:	mov    ecx,0xffff
  41521d:	cmp    WORD PTR [ebp-0x22],cx
  415221:	jne    0x41522a
  415223:	mov    WORD PTR [ebp-0x22],ax
  415227:	inc    edx
  415228:	jmp    0x415238
  41522a:	inc    WORD PTR [ebp-0x22]
  41522e:	jmp    0x415238
  415230:	inc    DWORD PTR [ebp-0x26]
  415233:	jmp    0x415238
  415235:	inc    DWORD PTR [ebp-0x2a]
  415238:	mov    eax,0x7fff
  41523d:	cmp    dx,ax
  415240:	jb     0x415265
  415242:	xor    eax,eax
  415244:	xor    ecx,ecx
  415246:	cmp    WORD PTR [ebp-0x70],ax
  41524a:	mov    DWORD PTR [ebp-0x38],eax
  41524d:	sete   cl
  415250:	mov    DWORD PTR [ebp-0x3c],eax
  415253:	dec    ecx
  415254:	and    ecx,0x80000000
  41525a:	add    ecx,0x7fff8000
  415260:	mov    DWORD PTR [ebp-0x34],ecx
  415263:	jmp    0x4152a0
  415265:	mov    ax,WORD PTR [ebp-0x2a]
  415269:	or     edx,DWORD PTR [ebp-0x70]
  41526c:	mov    WORD PTR [ebp-0x3c],ax
  415270:	mov    eax,DWORD PTR [ebp-0x28]
  415273:	mov    DWORD PTR [ebp-0x3a],eax
  415276:	mov    eax,DWORD PTR [ebp-0x24]
  415279:	mov    DWORD PTR [ebp-0x36],eax
  41527c:	mov    WORD PTR [ebp-0x32],dx
  415280:	jmp    0x4152a0
  415282:	xor    eax,eax
  415284:	test   si,si
  415287:	sete   al
  41528a:	and    DWORD PTR [ebp-0x38],0x0
  41528e:	dec    eax
  41528f:	and    eax,0x80000000
  415294:	add    eax,0x7fff8000
  415299:	and    DWORD PTR [ebp-0x3c],0x0
  41529d:	mov    DWORD PTR [ebp-0x34],eax
  4152a0:	cmp    DWORD PTR [ebp-0x54],0x0
  4152a4:	jne    0x414fe6
  4152aa:	mov    eax,DWORD PTR [ebp-0x34]
  4152ad:	movzx  ecx,WORD PTR [ebp-0x3c]
  4152b1:	mov    esi,DWORD PTR [ebp-0x3a]
  4152b4:	mov    edx,DWORD PTR [ebp-0x36]
  4152b7:	shr    eax,0x10
  4152ba:	jmp    0x4152eb
  4152bc:	mov    DWORD PTR [ebp-0x6c],0x4
  4152c3:	jmp    0x4152e3
  4152c5:	xor    esi,esi
  4152c7:	mov    eax,0x7fff
  4152cc:	mov    edx,0x80000000
  4152d1:	xor    ecx,ecx
  4152d3:	mov    DWORD PTR [ebp-0x6c],0x2
  4152da:	jmp    0x4152eb
  4152dc:	mov    DWORD PTR [ebp-0x6c],0x1
  4152e3:	xor    ecx,ecx
  4152e5:	xor    eax,eax
  4152e7:	xor    edx,edx
  4152e9:	xor    esi,esi
  4152eb:	mov    edi,DWORD PTR [ebp-0x78]
  4152ee:	or     eax,DWORD PTR [ebp-0x74]
  4152f1:	mov    WORD PTR [edi],cx
  4152f4:	mov    WORD PTR [edi+0xa],ax
  4152f8:	mov    eax,DWORD PTR [ebp-0x6c]
  4152fb:	mov    DWORD PTR [edi+0x2],esi
  4152fe:	mov    DWORD PTR [edi+0x6],edx
  415301:	mov    ecx,DWORD PTR [ebp-0x4]
  415304:	pop    edi
  415305:	pop    esi
  415306:	xor    ecx,ebp
  415308:	pop    ebx
  415309:	call   0x40efb3
  41530e:	leave  
  41530f:	ret    
  415310:	nop
  415311:	jecxz  0x41535f
  415313:	inc    ecx
  415314:	add    BYTE PTR [edi],dh
  415316:	dec    ebp
  415317:	inc    ecx
  415318:	add    BYTE PTR [ebp-0x3fffbeb3],cl
  41531e:	dec    ebp
  41531f:	inc    ecx
  415320:	add    BYTE PTR ds:0x3d00414e,al
  415326:	dec    esi
  415327:	inc    ecx
  415328:	add    BYTE PTR [ecx+0x4e],dl
  41532b:	inc    ecx
  41532c:	add    BYTE PTR [esi+ecx*2+0x4e970041],ch
  415333:	inc    ecx
  415334:	add    BYTE PTR [esi],dl
  415336:	dec    edi
  415337:	inc    ecx
  415338:	add    BYTE PTR [ebx],cl
  41533a:	dec    edi
  41533b:	inc    ecx
  41533c:	add    BYTE PTR [edx-0x74ffbeb2],bh
  415342:	call   DWORD PTR [ebp-0x75]
  415345:	in     al,dx
  415346:	sub    esp,0x74
  415349:	mov    eax,ds:0x423d68
  41534e:	xor    eax,ebp
  415350:	mov    DWORD PTR [ebp-0x4],eax
  415353:	push   ebx
  415354:	mov    ebx,DWORD PTR [ebp+0x1c]
  415357:	push   esi
  415358:	push   edi
  415359:	lea    esi,[ebp+0x8]
  41535c:	lea    edi,[ebp-0x10]
  41535f:	movs   DWORD PTR es:[edi],DWORD PTR ds:[esi]
  415360:	movs   DWORD PTR es:[edi],DWORD PTR ds:[esi]
  415361:	movs   WORD PTR es:[edi],WORD PTR ds:[esi]
  415363:	mov    edx,DWORD PTR [ebp-0x8]
  415366:	mov    ecx,edx
  415368:	mov    eax,0x8000
  41536d:	and    ecx,eax
  41536f:	and    edx,0x7fff
  415375:	mov    DWORD PTR [ebp-0x60],ebx
  415378:	mov    BYTE PTR [ebp-0x30],0xcc
  41537c:	mov    BYTE PTR [ebp-0x2f],0xcc
  415380:	mov    BYTE PTR [ebp-0x2e],0xcc
  415384:	mov    BYTE PTR [ebp-0x2d],0xcc
  415388:	mov    BYTE PTR [ebp-0x2c],0xcc
  41538c:	mov    BYTE PTR [ebp-0x2b],0xcc
  415390:	mov    BYTE PTR [ebp-0x2a],0xcc
  415394:	mov    BYTE PTR [ebp-0x29],0xcc
  415398:	mov    BYTE PTR [ebp-0x28],0xcc
  41539c:	mov    BYTE PTR [ebp-0x27],0xcc
  4153a0:	mov    BYTE PTR [ebp-0x26],0xfb
  4153a4:	mov    BYTE PTR [ebp-0x25],0x3f
  4153a8:	mov    DWORD PTR [ebp-0x74],0x1
  4153af:	mov    DWORD PTR [ebp-0x70],ecx
  4153b2:	test   cx,cx
  4153b5:	je     0x4153bd
  4153b7:	mov    BYTE PTR [ebx+0x2],0x2d
  4153bb:	jmp    0x4153c1
  4153bd:	mov    BYTE PTR [ebx+0x2],0x20
  4153c1:	mov    esi,DWORD PTR [ebp-0xc]
  4153c4:	mov    edi,DWORD PTR [ebp-0x10]
  4153c7:	test   dx,dx
  4153ca:	jne    0x4153fb
  4153cc:	test   esi,esi
  4153ce:	jne    0x4153fb
  4153d0:	test   edi,edi
  4153d2:	jne    0x4153fb
  4153d4:	xor    edx,edx
  4153d6:	cmp    cx,ax
  4153d9:	setne  al
  4153dc:	dec    al
  4153de:	and    al,0xd
  4153e0:	add    al,0x20
  4153e2:	mov    WORD PTR [ebx],dx
  4153e5:	mov    BYTE PTR [ebx+0x2],al
  4153e8:	mov    BYTE PTR [ebx+0x3],0x1
  4153ec:	mov    BYTE PTR [ebx+0x4],0x30
  4153f0:	mov    BYTE PTR [ebx+0x5],dl
  4153f3:	xor    eax,eax
  4153f5:	inc    eax
  4153f6:	jmp    0x415c19
  4153fb:	mov    eax,0x7fff
  415400:	cmp    dx,ax
  415403:	jne    0x4154a8
  415409:	xor    eax,eax
  41540b:	inc    eax
  41540c:	mov    WORD PTR [ebx],ax
  41540f:	mov    eax,0x80000000
  415414:	cmp    esi,eax
  415416:	jne    0x41541c
  415418:	test   edi,edi
  41541a:	je     0x41542b
  41541c:	test   esi,0x40000000
  415422:	jne    0x41542b
  415424:	push   0x41ed2c
  415429:	jmp    0x41547c
  41542b:	test   cx,cx
  41542e:	je     0x415443
  415430:	cmp    esi,0xc0000000
  415436:	jne    0x415443
  415438:	test   edi,edi
  41543a:	jne    0x415477
  41543c:	push   0x41ed24
  415441:	jmp    0x415450
  415443:	cmp    esi,eax
  415445:	jne    0x415477
  415447:	test   edi,edi
  415449:	jne    0x415477
  41544b:	push   0x41ed1c
  415450:	lea    eax,[ebx+0x4]
  415453:	push   0x16
  415455:	push   eax
  415456:	call   0x40eeb7
  41545b:	add    esp,0xc
  41545e:	xor    esi,esi
  415460:	test   eax,eax
  415462:	je     0x415471
  415464:	push   esi
  415465:	push   esi
  415466:	push   esi
  415467:	push   esi
  415468:	push   esi
  415469:	call   0x408614
  41546e:	add    esp,0x14
  415471:	mov    BYTE PTR [ebx+0x3],0x5
  415475:	jmp    0x4154a1
  415477:	push   0x41ed14
  41547c:	lea    eax,[ebx+0x4]
  41547f:	push   0x16
  415481:	push   eax
  415482:	call   0x40eeb7
  415487:	add    esp,0xc
  41548a:	xor    esi,esi
  41548c:	test   eax,eax
  41548e:	je     0x41549d
  415490:	push   esi
  415491:	push   esi
  415492:	push   esi
  415493:	push   esi
  415494:	push   esi
  415495:	call   0x408614
  41549a:	add    esp,0x14
  41549d:	mov    BYTE PTR [ebx+0x3],0x6
  4154a1:	xor    eax,eax
  4154a3:	jmp    0x415c19
  4154a8:	movzx  ecx,dx
  4154ab:	mov    ebx,ecx
  4154ad:	imul   ecx,ecx,0x4d10
  4154b3:	shr    ebx,0x8
  4154b6:	mov    eax,esi
  4154b8:	shr    eax,0x18
  4154bb:	lea    eax,[ebx+eax*2]
  4154be:	imul   eax,eax,0x4d
  4154c1:	lea    eax,[eax+ecx*1-0x134312f4]
  4154c8:	sar    eax,0x10
  4154cb:	movzx  eax,ax
  4154ce:	xor    ecx,ecx
  4154d0:	movsx  ebx,ax
  4154d3:	mov    WORD PTR [ebp-0x20],cx
  4154d7:	mov    ecx,0x424408
  4154dc:	neg    ebx
  4154de:	sub    ecx,0x60
  4154e1:	mov    DWORD PTR [ebp-0x4c],eax
  4154e4:	mov    WORD PTR [ebp-0x16],dx
  4154e8:	mov    DWORD PTR [ebp-0x1a],esi
  4154eb:	mov    DWORD PTR [ebp-0x1e],edi
  4154ee:	mov    DWORD PTR [ebp-0x64],ecx
  4154f1:	test   ebx,ebx
  4154f3:	je     0x415795
  4154f9:	jge    0x415508
  4154fb:	mov    eax,0x424568
  415500:	neg    ebx
  415502:	sub    eax,0x60
  415505:	mov    DWORD PTR [ebp-0x64],eax
  415508:	test   ebx,ebx
  41550a:	je     0x415795
  415510:	add    DWORD PTR [ebp-0x64],0x54
  415514:	mov    ecx,ebx
  415516:	and    ecx,0x7
  415519:	sar    ebx,0x3
  41551c:	test   ecx,ecx
  41551e:	je     0x41578b
  415524:	imul   ecx,ecx,0xc
  415527:	add    ecx,DWORD PTR [ebp-0x64]
  41552a:	mov    eax,ecx
  41552c:	mov    DWORD PTR [ebp-0x44],ecx
  41552f:	mov    ecx,0x8000
  415534:	cmp    WORD PTR [eax],cx
  415537:	jb     0x41554a
  415539:	mov    esi,eax
  41553b:	lea    edi,[ebp-0x3c]
  41553e:	movs   DWORD PTR es:[edi],DWORD PTR ds:[esi]
  41553f:	movs   DWORD PTR es:[edi],DWORD PTR ds:[esi]
  415540:	lea    eax,[ebp-0x3c]
  415543:	movs   DWORD PTR es:[edi],DWORD PTR ds:[esi]
  415544:	dec    DWORD PTR [ebp-0x3a]
  415547:	mov    DWORD PTR [ebp-0x44],eax
  41554a:	movzx  edx,WORD PTR [eax+0xa]
  41554e:	xor    ecx,ecx
  415550:	mov    DWORD PTR [ebp-0x54],ecx
  415553:	mov    DWORD PTR [ebp-0x10],ecx
  415556:	mov    DWORD PTR [ebp-0xc],ecx
  415559:	mov    DWORD PTR [ebp-0x8],ecx
  41555c:	mov    ecx,DWORD PTR [ebp-0x16]
  41555f:	mov    esi,edx
  415561:	xor    esi,ecx
  415563:	and    esi,0x8000
  415569:	mov    DWORD PTR [ebp-0x48],esi
  41556c:	mov    esi,0x7fff
  415571:	and    ecx,esi
  415573:	and    edx,esi
  415575:	lea    esi,[edx+ecx*1]
  415578:	movzx  edi,si
  41557b:	mov    esi,0x7fff
  415580:	cmp    cx,si
  415583:	jae    0x415835
  415589:	cmp    dx,si
  41558c:	jae    0x415835
  415592:	mov    esi,0xbffd
  415597:	cmp    di,si
  41559a:	ja     0x415835
  4155a0:	mov    esi,0x3fbf
  4155a5:	cmp    di,si
  4155a8:	ja     0x4155ba
  4155aa:	xor    esi,esi
  4155ac:	mov    DWORD PTR [ebp-0x18],esi
  4155af:	mov    DWORD PTR [ebp-0x1c],esi
  4155b2:	mov    DWORD PTR [ebp-0x20],esi
  4155b5:	jmp    0x41578d
  4155ba:	xor    esi,esi
  4155bc:	cmp    cx,si
  4155bf:	jne    0x4155e0
  4155c1:	inc    edi
  4155c2:	test   DWORD PTR [ebp-0x18],0x7fffffff
  4155c9:	jne    0x4155e0
  4155cb:	cmp    DWORD PTR [ebp-0x1c],esi
  4155ce:	jne    0x4155e0
  4155d0:	cmp    DWORD PTR [ebp-0x20],esi
  4155d3:	jne    0x4155e0
  4155d5:	xor    eax,eax
  4155d7:	mov    WORD PTR [ebp-0x16],ax
  4155db:	jmp    0x41578d
  4155e0:	cmp    dx,si
  4155e3:	jne    0x4155f8
  4155e5:	inc    edi
  4155e6:	test   DWORD PTR [eax+0x8],0x7fffffff
  4155ed:	jne    0x4155f8
  4155ef:	cmp    DWORD PTR [eax+0x4],esi
  4155f2:	jne    0x4155f8
  4155f4:	cmp    DWORD PTR [eax],esi
  4155f6:	je     0x4155ac
  4155f8:	and    DWORD PTR [ebp-0x58],esi
  4155fb:	lea    esi,[ebp-0xc]
  4155fe:	mov    DWORD PTR [ebp-0x40],0x5
  415605:	mov    ecx,DWORD PTR [ebp-0x58]
  415608:	mov    edx,DWORD PTR [ebp-0x40]
  41560b:	add    ecx,ecx
  41560d:	mov    DWORD PTR [ebp-0x50],edx
  415610:	test   edx,edx
  415612:	jle    0x415669
  415614:	lea    ecx,[ebp+ecx*1-0x20]
  415618:	add    eax,0x8
  41561b:	mov    DWORD PTR [ebp-0x6c],ecx
  41561e:	mov    DWORD PTR [ebp-0x68],eax
  415621:	mov    eax,DWORD PTR [ebp-0x6c]
  415624:	movzx  ecx,WORD PTR [eax]
  415627:	mov    eax,DWORD PTR [ebp-0x68]
  41562a:	movzx  eax,WORD PTR [eax]
  41562d:	mov    edx,DWORD PTR [esi-0x4]
  415630:	imul   ecx,eax
  415633:	and    DWORD PTR [ebp-0x5c],0x0
  415637:	lea    eax,[edx+ecx*1]
  41563a:	cmp    eax,edx
  41563c:	jb     0x415642
  41563e:	cmp    eax,ecx
  415640:	jae    0x415649
  415642:	mov    DWORD PTR [ebp-0x5c],0x1
  415649:	cmp    DWORD PTR [ebp-0x5c],0x0
  41564d:	mov    DWORD PTR [esi-0x4],eax
  415650:	je     0x415655
  415652:	inc    WORD PTR [esi]
  415655:	add    DWORD PTR [ebp-0x6c],0x2
  415659:	sub    DWORD PTR [ebp-0x68],0x2
  41565d:	dec    DWORD PTR [ebp-0x50]
  415660:	cmp    DWORD PTR [ebp-0x50],0x0
  415664:	jg     0x415621
  415666:	mov    eax,DWORD PTR [ebp-0x44]
  415669:	inc    esi
  41566a:	inc    esi
  41566b:	inc    DWORD PTR [ebp-0x58]
  41566e:	dec    DWORD PTR [ebp-0x40]
  415671:	cmp    DWORD PTR [ebp-0x40],0x0
  415675:	jg     0x415605
  415677:	add    edi,0xc002
  41567d:	test   di,di
  415680:	jle    0x4156bd
  415682:	test   DWORD PTR [ebp-0x8],0x80000000
  415689:	jne    0x4156b8
  41568b:	mov    eax,DWORD PTR [ebp-0xc]
  41568e:	mov    ecx,DWORD PTR [ebp-0x10]
  415691:	shl    DWORD PTR [ebp-0x10],1
  415694:	mov    edx,eax
  415696:	add    eax,eax
  415698:	shr    ecx,0x1f
  41569b:	or     eax,ecx
  41569d:	mov    DWORD PTR [ebp-0xc],eax
  4156a0:	mov    eax,DWORD PTR [ebp-0x8]
  4156a3:	shr    edx,0x1f
  4156a6:	add    eax,eax
  4156a8:	or     eax,edx
  4156aa:	add    edi,0xffff
  4156b0:	mov    DWORD PTR [ebp-0x8],eax
  4156b3:	test   di,di
  4156b6:	jg     0x415682
  4156b8:	test   di,di
  4156bb:	jg     0x41570a
  4156bd:	add    edi,0xffff
  4156c3:	test   di,di
  4156c6:	jge    0x41570a
  4156c8:	mov    eax,edi
  4156ca:	neg    eax
  4156cc:	movzx  eax,ax
  4156cf:	add    edi,eax
  4156d1:	test   BYTE PTR [ebp-0x10],0x1
  4156d5:	je     0x4156da
  4156d7:	inc    DWORD PTR [ebp-0x54]
  4156da:	mov    ecx,DWORD PTR [ebp-0x8]
  4156dd:	mov    esi,DWORD PTR [ebp-0xc]
  4156e0:	mov    edx,DWORD PTR [ebp-0xc]
  4156e3:	shr    DWORD PTR [ebp-0x8],1
  4156e6:	shl    ecx,0x1f
  4156e9:	shr    esi,1
  4156eb:	or     esi,ecx
  4156ed:	mov    ecx,DWORD PTR [ebp-0x10]
  4156f0:	shl    edx,0x1f
  4156f3:	shr    ecx,1
  4156f5:	or     ecx,edx
  4156f7:	dec    eax
  4156f8:	mov    DWORD PTR [ebp-0xc],esi
  4156fb:	mov    DWORD PTR [ebp-0x10],ecx
  4156fe:	jne    0x4156d1
  415700:	cmp    DWORD PTR [ebp-0x54],eax
  415703:	je     0x41570a
  415705:	or     WORD PTR [ebp-0x10],0x1
  41570a:	mov    eax,0x8000
  41570f:	mov    ecx,eax
  415711:	cmp    WORD PTR [ebp-0x10],cx
  415715:	ja     0x415728
  415717:	mov    ecx,DWORD PTR [ebp-0x10]
  41571a:	and    ecx,0x1ffff
  415720:	cmp    ecx,0x18000
  415726:	jne    0x41575c
  415728:	cmp    DWORD PTR [ebp-0xe],0xffffffff
  41572c:	jne    0x415759
  41572e:	and    DWORD PTR [ebp-0xe],0x0
  415732:	cmp    DWORD PTR [ebp-0xa],0xffffffff
  415736:	jne    0x415754
  415738:	and    DWORD PTR [ebp-0xa],0x0
  41573c:	mov    ecx,0xffff
  415741:	cmp    WORD PTR [ebp-0x6],cx
  415745:	jne    0x41574e
  415747:	mov    WORD PTR [ebp-0x6],ax
  41574b:	inc    edi
  41574c:	jmp    0x41575c
  41574e:	inc    WORD PTR [ebp-0x6]
  415752:	jmp    0x41575c
  415754:	inc    DWORD PTR [ebp-0xa]
  415757:	jmp    0x41575c
  415759:	inc    DWORD PTR [ebp-0xe]
  41575c:	mov    eax,0x7fff
  415761:	cmp    di,ax
  415764:	jb     0x415815
  41576a:	xor    eax,eax
  41576c:	xor    ecx,ecx
  41576e:	cmp    WORD PTR [ebp-0x48],ax
  415772:	mov    DWORD PTR [ebp-0x1c],eax
  415775:	sete   cl
  415778:	mov    DWORD PTR [ebp-0x20],eax
  41577b:	dec    ecx
  41577c:	and    ecx,0x80000000
  415782:	add    ecx,0x7fff8000
  415788:	mov    DWORD PTR [ebp-0x18],ecx
  41578b:	xor    esi,esi
  41578d:	cmp    ebx,esi
  41578f:	jne    0x415510
  415795:	mov    ecx,DWORD PTR [ebp-0x18]
  415798:	shr    ecx,0x10
  41579b:	mov    edx,0x3fff
  4157a0:	mov    eax,0x7fff
  4157a5:	cmp    cx,dx
  4157a8:	jb     0x415a51
  4157ae:	inc    DWORD PTR [ebp-0x4c]
  4157b1:	xor    edx,edx
  4157b3:	mov    DWORD PTR [ebp-0x50],edx
  4157b6:	mov    DWORD PTR [ebp-0x10],edx
  4157b9:	mov    DWORD PTR [ebp-0xc],edx
  4157bc:	mov    DWORD PTR [ebp-0x8],edx
  4157bf:	mov    edx,DWORD PTR [ebp-0x26]
  4157c2:	movzx  ecx,cx
  4157c5:	mov    ebx,edx
  4157c7:	xor    ebx,ecx
  4157c9:	and    ecx,eax
  4157cb:	and    edx,eax
  4157cd:	and    ebx,0x8000
  4157d3:	mov    edi,eax
  4157d5:	lea    esi,[edx+ecx*1]
  4157d8:	mov    DWORD PTR [ebp-0x5c],ebx
  4157db:	movzx  esi,si
  4157de:	cmp    cx,di
  4157e1:	jae    0x415a33
  4157e7:	cmp    dx,ax
  4157ea:	jae    0x415a33
  4157f0:	mov    eax,0xbffd
  4157f5:	cmp    si,ax
  4157f8:	ja     0x415a33
  4157fe:	mov    eax,0x3fbf
  415803:	cmp    si,ax
  415806:	ja     0x415853
  415808:	xor    eax,eax
  41580a:	mov    DWORD PTR [ebp-0x1c],eax
  41580d:	mov    DWORD PTR [ebp-0x20],eax
  415810:	jmp    0x415a4e
  415815:	mov    ax,WORD PTR [ebp-0xe]
  415819:	or     edi,DWORD PTR [ebp-0x48]
  41581c:	mov    WORD PTR [ebp-0x20],ax
  415820:	mov    eax,DWORD PTR [ebp-0xc]
  415823:	mov    DWORD PTR [ebp-0x1e],eax
  415826:	mov    eax,DWORD PTR [ebp-0x8]
  415829:	mov    DWORD PTR [ebp-0x1a],eax
  41582c:	mov    WORD PTR [ebp-0x16],di
  415830:	jmp    0x41578b
  415835:	xor    eax,eax
  415837:	xor    esi,esi
  415839:	cmp    WORD PTR [ebp-0x48],si
  41583d:	sete   al
  415840:	dec    eax
  415841:	and    eax,0x80000000
  415846:	add    eax,0x7fff8000
  41584b:	mov    DWORD PTR [ebp-0x18],eax
  41584e:	jmp    0x4155af
  415853:	xor    eax,eax
  415855:	cmp    cx,ax
  415858:	jne    0x415877
  41585a:	inc    esi
  41585b:	test   DWORD PTR [ebp-0x18],0x7fffffff
  415862:	jne    0x415877
  415864:	cmp    DWORD PTR [ebp-0x1c],eax
  415867:	jne    0x415877
  415869:	cmp    DWORD PTR [ebp-0x20],eax
  41586c:	jne    0x415877
  41586e:	mov    WORD PTR [ebp-0x16],ax
  415872:	jmp    0x415a51
  415877:	cmp    dx,ax
  41587a:	jne    0x415894
  41587c:	inc    esi
  41587d:	test   DWORD PTR [ebp-0x28],0x7fffffff
  415884:	jne    0x415894
  415886:	cmp    DWORD PTR [ebp-0x2c],eax
  415889:	jne    0x415894
  41588b:	cmp    DWORD PTR [ebp-0x30],eax
  41588e:	je     0x41580a
  415894:	mov    DWORD PTR [ebp-0x58],eax
  415897:	lea    edi,[ebp-0xc]
  41589a:	mov    DWORD PTR [ebp-0x40],0x5
  4158a1:	mov    eax,DWORD PTR [ebp-0x58]
  4158a4:	mov    ecx,DWORD PTR [ebp-0x40]
  4158a7:	add    eax,eax
  4158a9:	mov    DWORD PTR [ebp-0x54],ecx
  4158ac:	test   ecx,ecx
  4158ae:	jle    0x4158fa
  4158b0:	lea    ecx,[ebp-0x28]
  4158b3:	mov    DWORD PTR [ebp-0x48],ecx
  4158b6:	lea    eax,[ebp+eax*1-0x20]
  4158ba:	mov    ecx,DWORD PTR [ebp-0x48]
  4158bd:	movzx  edx,WORD PTR [eax]
  4158c0:	movzx  ecx,WORD PTR [ecx]
  4158c3:	and    DWORD PTR [ebp-0x44],0x0
  4158c7:	imul   ecx,edx
  4158ca:	mov    edx,DWORD PTR [edi-0x4]
  4158cd:	lea    ebx,[edx+ecx*1]
  4158d0:	cmp    ebx,edx
  4158d2:	jb     0x4158d8
  4158d4:	cmp    ebx,ecx
  4158d6:	jae    0x4158df
  4158d8:	mov    DWORD PTR [ebp-0x44],0x1
  4158df:	cmp    DWORD PTR [ebp-0x44],0x0
  4158e3:	mov    DWORD PTR [edi-0x4],ebx
  4158e6:	je     0x4158eb
  4158e8:	inc    WORD PTR [edi]
  4158eb:	sub    DWORD PTR [ebp-0x48],0x2
  4158ef:	inc    eax
  4158f0:	inc    eax
  4158f1:	dec    DWORD PTR [ebp-0x54]
  4158f4:	cmp    DWORD PTR [ebp-0x54],0x0
  4158f8:	jg     0x4158ba
  4158fa:	inc    edi
  4158fb:	inc    edi
  4158fc:	inc    DWORD PTR [ebp-0x58]
  4158ff:	dec    DWORD PTR [ebp-0x40]
  415902:	cmp    DWORD PTR [ebp-0x40],0x0
  415906:	jg     0x4158a1
  415908:	add    esi,0xc002
  41590e:	test   si,si
  415911:	jle    0x41594a
  415913:	mov    edi,DWORD PTR [ebp-0x8]
  415916:	test   edi,edi
  415918:	js     0x415945
  41591a:	mov    eax,DWORD PTR [ebp-0xc]
  41591d:	mov    ecx,DWORD PTR [ebp-0x10]
  415920:	shl    DWORD PTR [ebp-0x10],1
  415923:	mov    edx,eax
  415925:	add    eax,eax
  415927:	shr    ecx,0x1f
  41592a:	or     eax,ecx
  41592c:	mov    DWORD PTR [ebp-0xc],eax
  41592f:	shr    edx,0x1f
  415932:	lea    eax,[edi+edi*1]
  415935:	or     eax,edx
  415937:	add    esi,0xffff
  41593d:	mov    DWORD PTR [ebp-0x8],eax
  415940:	test   si,si
  415943:	jg     0x415913
  415945:	test   si,si
  415948:	jg     0x415997
  41594a:	add    esi,0xffff
  415950:	test   si,si
  415953:	jge    0x415997
  415955:	mov    eax,esi
  415957:	neg    eax
  415959:	movzx  eax,ax
  41595c:	add    esi,eax
  41595e:	test   BYTE PTR [ebp-0x10],0x1
  415962:	je     0x415967
  415964:	inc    DWORD PTR [ebp-0x50]
  415967:	mov    ecx,DWORD PTR [ebp-0x8]
  41596a:	mov    edi,DWORD PTR [ebp-0xc]
  41596d:	mov    edx,DWORD PTR [ebp-0xc]
  415970:	shr    DWORD PTR [ebp-0x8],1
  415973:	shl    ecx,0x1f
  415976:	shr    edi,1
  415978:	or     edi,ecx
  41597a:	mov    ecx,DWORD PTR [ebp-0x10]
  41597d:	shl    edx,0x1f
  415980:	shr    ecx,1
  415982:	or     ecx,edx
  415984:	dec    eax
  415985:	mov    DWORD PTR [ebp-0xc],edi
  415988:	mov    DWORD PTR [ebp-0x10],ecx
  41598b:	jne    0x41595e
  41598d:	cmp    DWORD PTR [ebp-0x50],eax
  415990:	je     0x415997
  415992:	or     WORD PTR [ebp-0x10],0x1
  415997:	mov    eax,0x8000
  41599c:	mov    ecx,eax
  41599e:	cmp    WORD PTR [ebp-0x10],cx
  4159a2:	ja     0x4159b5
  4159a4:	mov    ecx,DWORD PTR [ebp-0x10]
  4159a7:	and    ecx,0x1ffff
  4159ad:	cmp    ecx,0x18000
  4159b3:	jne    0x4159e9
  4159b5:	cmp    DWORD PTR [ebp-0xe],0xffffffff
  4159b9:	jne    0x4159e6
  4159bb:	and    DWORD PTR [ebp-0xe],0x0
  4159bf:	cmp    DWORD PTR [ebp-0xa],0xffffffff
  4159c3:	jne    0x4159e1
  4159c5:	and    DWORD PTR [ebp-0xa],0x0
  4159c9:	mov    ecx,0xffff
  4159ce:	cmp    WORD PTR [ebp-0x6],cx
  4159d2:	jne    0x4159db
  4159d4:	mov    WORD PTR [ebp-0x6],ax
  4159d8:	inc    esi
  4159d9:	jmp    0x4159e9
  4159db:	inc    WORD PTR [ebp-0x6]
  4159df:	jmp    0x4159e9
  4159e1:	inc    DWORD PTR [ebp-0xa]
  4159e4:	jmp    0x4159e9
  4159e6:	inc    DWORD PTR [ebp-0xe]
  4159e9:	mov    eax,0x7fff
  4159ee:	cmp    si,ax
  4159f1:	jb     0x415a16
  4159f3:	xor    eax,eax
  4159f5:	xor    ecx,ecx
  4159f7:	cmp    WORD PTR [ebp-0x5c],ax
  4159fb:	mov    DWORD PTR [ebp-0x1c],eax
  4159fe:	sete   cl
  415a01:	mov    DWORD PTR [ebp-0x20],eax
  415a04:	dec    ecx
  415a05:	and    ecx,0x80000000
  415a0b:	add    ecx,0x7fff8000
  415a11:	mov    DWORD PTR [ebp-0x18],ecx
  415a14:	jmp    0x415a51
  415a16:	mov    ax,WORD PTR [ebp-0xe]
  415a1a:	or     esi,DWORD PTR [ebp-0x5c]
  415a1d:	mov    WORD PTR [ebp-0x20],ax
  415a21:	mov    eax,DWORD PTR [ebp-0xc]
  415a24:	mov    DWORD PTR [ebp-0x1e],eax
  415a27:	mov    eax,DWORD PTR [ebp-0x8]
  415a2a:	mov    DWORD PTR [ebp-0x1a],eax
  415a2d:	mov    WORD PTR [ebp-0x16],si
  415a31:	jmp    0x415a51
  415a33:	xor    eax,eax
  415a35:	test   bx,bx
  415a38:	sete   al
  415a3b:	and    DWORD PTR [ebp-0x1c],0x0
  415a3f:	dec    eax
  415a40:	and    eax,0x80000000
  415a45:	add    eax,0x7fff8000
  415a4a:	and    DWORD PTR [ebp-0x20],0x0
  415a4e:	mov    DWORD PTR [ebp-0x18],eax
  415a51:	test   BYTE PTR [ebp+0x18],0x1
  415a55:	mov    edx,DWORD PTR [ebp-0x60]
  415a58:	mov    eax,DWORD PTR [ebp-0x4c]
  415a5b:	mov    edi,DWORD PTR [ebp+0x14]
  415a5e:	mov    WORD PTR [edx],ax
  415a61:	je     0x415a95
  415a63:	cwde   
  415a64:	add    edi,eax
  415a66:	test   edi,edi
  415a68:	jg     0x415a95
  415a6a:	xor    eax,eax
  415a6c:	mov    WORD PTR [edx],ax
  415a6f:	mov    eax,0x8000
  415a74:	cmp    WORD PTR [ebp-0x70],ax
  415a78:	mov    BYTE PTR [edx+0x3],0x1
  415a7c:	setne  al
  415a7f:	dec    al
  415a81:	and    al,0xd
  415a83:	add    al,0x20
  415a85:	mov    BYTE PTR [edx+0x2],al
  415a88:	mov    BYTE PTR [edx+0x4],0x30
  415a8c:	mov    BYTE PTR [edx+0x5],0x0
  415a90:	jmp    0x4153f3
  415a95:	cmp    edi,0x15
  415a98:	jle    0x415a9d
  415a9a:	push   0x15
  415a9c:	pop    edi
  415a9d:	mov    esi,DWORD PTR [ebp-0x18]
  415aa0:	shr    esi,0x10
  415aa3:	sub    esi,0x3ffe
  415aa9:	xor    eax,eax
  415aab:	mov    WORD PTR [ebp-0x16],ax
  415aaf:	mov    DWORD PTR [ebp-0x44],0x8
  415ab6:	mov    eax,DWORD PTR [ebp-0x20]
  415ab9:	mov    ebx,DWORD PTR [ebp-0x1c]
  415abc:	mov    ecx,DWORD PTR [ebp-0x1c]
  415abf:	shl    DWORD PTR [ebp-0x20],1
  415ac2:	shr    eax,0x1f
  415ac5:	add    ebx,ebx
  415ac7:	or     ebx,eax
  415ac9:	mov    eax,DWORD PTR [ebp-0x18]
  415acc:	shr    ecx,0x1f
  415acf:	add    eax,eax
  415ad1:	or     eax,ecx
  415ad3:	dec    DWORD PTR [ebp-0x44]
  415ad6:	mov    DWORD PTR [ebp-0x1c],ebx
  415ad9:	mov    DWORD PTR [ebp-0x18],eax
  415adc:	jne    0x415ab6
  415ade:	test   esi,esi
  415ae0:	jge    0x415b14
  415ae2:	neg    esi
  415ae4:	and    esi,0xff
  415aea:	jle    0x415b14
  415aec:	mov    eax,DWORD PTR [ebp-0x18]
  415aef:	mov    ebx,DWORD PTR [ebp-0x1c]
  415af2:	mov    ecx,DWORD PTR [ebp-0x1c]
  415af5:	shr    DWORD PTR [ebp-0x18],1
  415af8:	shl    eax,0x1f
  415afb:	shr    ebx,1
  415afd:	or     ebx,eax
  415aff:	mov    eax,DWORD PTR [ebp-0x20]
  415b02:	shl    ecx,0x1f
  415b05:	shr    eax,1
  415b07:	or     eax,ecx
  415b09:	dec    esi
  415b0a:	mov    DWORD PTR [ebp-0x1c],ebx
  415b0d:	mov    DWORD PTR [ebp-0x20],eax
  415b10:	test   esi,esi
  415b12:	jg     0x415aec
  415b14:	lea    eax,[edi+0x1]
  415b17:	lea    ebx,[edx+0x4]
  415b1a:	mov    DWORD PTR [ebp-0x40],ebx
  415b1d:	mov    DWORD PTR [ebp-0x4c],eax
  415b20:	test   eax,eax
  415b22:	jle    0x415bdd
  415b28:	mov    edx,DWORD PTR [ebp-0x20]
  415b2b:	mov    eax,DWORD PTR [ebp-0x1c]
  415b2e:	lea    esi,[ebp-0x20]
  415b31:	lea    edi,[ebp-0x3c]
  415b34:	movs   DWORD PTR es:[edi],DWORD PTR ds:[esi]
  415b35:	movs   DWORD PTR es:[edi],DWORD PTR ds:[esi]
  415b36:	movs   DWORD PTR es:[edi],DWORD PTR ds:[esi]
  415b37:	shl    DWORD PTR [ebp-0x20],1
  415b3a:	mov    edi,DWORD PTR [ebp-0x20]
  415b3d:	shl    DWORD PTR [ebp-0x20],1
  415b40:	shr    edx,0x1f
  415b43:	lea    ecx,[eax+eax*1]
  415b46:	or     ecx,edx
  415b48:	mov    edx,DWORD PTR [ebp-0x18]
  415b4b:	mov    esi,eax
  415b4d:	shr    esi,0x1f
  415b50:	add    edx,edx
  415b52:	or     edx,esi
  415b54:	mov    eax,ecx
  415b56:	lea    esi,[ecx+ecx*1]
  415b59:	shr    eax,0x1f
  415b5c:	lea    ecx,[edx+edx*1]
  415b5f:	mov    edx,DWORD PTR [ebp-0x3c]
  415b62:	shr    edi,0x1f
  415b65:	or     ecx,eax
  415b67:	mov    eax,DWORD PTR [ebp-0x20]
  415b6a:	or     esi,edi
  415b6c:	lea    edi,[edx+eax*1]
  415b6f:	cmp    edi,eax
  415b71:	jb     0x415b77
  415b73:	cmp    edi,edx
  415b75:	jae    0x415b8f
  415b77:	lea    eax,[esi+0x1]
  415b7a:	xor    edx,edx
  415b7c:	cmp    eax,esi
  415b7e:	jb     0x415b85
  415b80:	cmp    eax,0x1
  415b83:	jae    0x415b88
  415b85:	xor    edx,edx
  415b87:	inc    edx
  415b88:	mov    esi,eax
  415b8a:	test   edx,edx
  415b8c:	je     0x415b8f
  415b8e:	inc    ecx
  415b8f:	mov    eax,DWORD PTR [ebp-0x38]
  415b92:	lea    edx,[eax+esi*1]
  415b95:	mov    DWORD PTR [ebp-0x44],edx
  415b98:	cmp    edx,esi
  415b9a:	jb     0x415ba0
  415b9c:	cmp    edx,eax
  415b9e:	jae    0x415ba1
  415ba0:	inc    ecx
  415ba1:	add    ecx,DWORD PTR [ebp-0x34]
  415ba4:	shr    edx,0x1f
  415ba7:	add    ecx,ecx
  415ba9:	or     ecx,edx
  415bab:	lea    esi,[edi+edi*1]
  415bae:	mov    DWORD PTR [ebp-0x20],esi
  415bb1:	mov    esi,DWORD PTR [ebp-0x44]
  415bb4:	mov    DWORD PTR [ebp-0x18],ecx
  415bb7:	shr    ecx,0x18
  415bba:	add    esi,esi
  415bbc:	add    cl,0x30
  415bbf:	mov    eax,edi
  415bc1:	shr    eax,0x1f
  415bc4:	or     esi,eax
  415bc6:	mov    BYTE PTR [ebx],cl
  415bc8:	inc    ebx
  415bc9:	dec    DWORD PTR [ebp-0x4c]
  415bcc:	cmp    DWORD PTR [ebp-0x4c],0x0
  415bd0:	mov    DWORD PTR [ebp-0x1c],esi
  415bd3:	mov    BYTE PTR [ebp-0x15],0x0
  415bd7:	jg     0x415b28
  415bdd:	dec    ebx
  415bde:	mov    al,BYTE PTR [ebx]
  415be0:	dec    ebx
  415be1:	cmp    al,0x35
  415be3:	jge    0x415bf3
  415be5:	mov    ecx,DWORD PTR [ebp-0x40]
  415be8:	jmp    0x415c2e
  415bea:	cmp    BYTE PTR [ebx],0x39
  415bed:	jne    0x415bf8
  415bef:	mov    BYTE PTR [ebx],0x30
  415bf2:	dec    ebx
  415bf3:	cmp    ebx,DWORD PTR [ebp-0x40]
  415bf6:	jae    0x415bea
  415bf8:	mov    eax,DWORD PTR [ebp-0x60]
  415bfb:	cmp    ebx,DWORD PTR [ebp-0x40]
  415bfe:	jae    0x415c04
  415c00:	inc    ebx
  415c01:	inc    WORD PTR [eax]
  415c04:	inc    BYTE PTR [ebx]
  415c06:	sub    bl,al
  415c08:	sub    bl,0x3
  415c0b:	movsx  ecx,bl
  415c0e:	mov    BYTE PTR [eax+0x3],bl
  415c11:	mov    BYTE PTR [ecx+eax*1+0x4],0x0
  415c16:	mov    eax,DWORD PTR [ebp-0x74]
  415c19:	mov    ecx,DWORD PTR [ebp-0x4]
  415c1c:	pop    edi
  415c1d:	pop    esi
  415c1e:	xor    ecx,ebp
  415c20:	pop    ebx
  415c21:	call   0x40efb3
  415c26:	leave  
  415c27:	ret    
  415c28:	cmp    BYTE PTR [ebx],0x30
  415c2b:	jne    0x415c32
  415c2d:	dec    ebx
  415c2e:	cmp    ebx,ecx
  415c30:	jae    0x415c28
  415c32:	mov    eax,DWORD PTR [ebp-0x60]
  415c35:	cmp    ebx,ecx
  415c37:	jae    0x415c06
  415c39:	xor    edx,edx
  415c3b:	mov    WORD PTR [eax],dx
  415c3e:	mov    edx,0x8000
  415c43:	cmp    WORD PTR [ebp-0x70],dx
  415c47:	mov    BYTE PTR [eax+0x3],0x1
  415c4b:	setne  dl
  415c4e:	dec    dl
  415c50:	and    dl,0xd
  415c53:	add    dl,0x20
  415c56:	mov    BYTE PTR [eax+0x2],dl
  415c59:	mov    BYTE PTR [ecx],0x30
  415c5c:	mov    BYTE PTR [eax+0x5],0x0
  415c60:	jmp    0x4153f3
  415c65:	mov    edi,edi
  415c67:	push   ebp
  415c68:	mov    ebp,esp
  415c6a:	sub    esp,0x10
  415c6d:	push   ebx
  415c6e:	push   DWORD PTR [ebp+0x14]
  415c71:	lea    ecx,[ebp-0x10]
  415c74:	call   0x4046f4
  415c79:	mov    ecx,DWORD PTR [ebp+0x10]
  415c7c:	xor    ebx,ebx
  415c7e:	cmp    ecx,ebx
  415c80:	jne    0x415c95
  415c82:	cmp    BYTE PTR [ebp-0x4],bl
  415c85:	je     0x415c8e
  415c87:	mov    eax,DWORD PTR [ebp-0x8]
  415c8a:	and    DWORD PTR [eax+0x70],0xfffffffd
  415c8e:	xor    eax,eax
  415c90:	jmp    0x415d50
  415c95:	cmp    DWORD PTR [ebp+0x8],ebx
  415c98:	jne    0x415cc8
  415c9a:	call   0x4087a4
  415c9f:	push   ebx
  415ca0:	push   ebx
  415ca1:	push   ebx
  415ca2:	push   ebx
  415ca3:	push   ebx
  415ca4:	mov    DWORD PTR [eax],0x16
  415caa:	call   0x40873c
  415caf:	add    esp,0x14
  415cb2:	cmp    BYTE PTR [ebp-0x4],bl
  415cb5:	je     0x415cbe
  415cb7:	mov    eax,DWORD PTR [ebp-0x8]
  415cba:	and    DWORD PTR [eax+0x70],0xfffffffd
  415cbe:	mov    eax,0x7fffffff
  415cc3:	jmp    0x415d50
  415cc8:	cmp    DWORD PTR [ebp+0xc],ebx
  415ccb:	je     0x415c9a
  415ccd:	push   esi
  415cce:	mov    esi,0x7fffffff
  415cd3:	cmp    ecx,esi
  415cd5:	jbe    0x415cf1
  415cd7:	call   0x4087a4
  415cdc:	push   ebx
  415cdd:	push   ebx
  415cde:	push   ebx
  415cdf:	push   ebx
  415ce0:	push   ebx
  415ce1:	mov    DWORD PTR [eax],0x16
  415ce7:	call   0x40873c
  415cec:	add    esp,0x14
  415cef:	jmp    0x415d30
  415cf1:	mov    eax,DWORD PTR [ebp-0xc]
  415cf4:	cmp    DWORD PTR [eax+0x8],ebx
  415cf7:	jne    0x415d0d
  415cf9:	push   DWORD PTR [ebp+0x14]
  415cfc:	push   ecx
  415cfd:	push   DWORD PTR [ebp+0xc]
  415d00:	push   DWORD PTR [ebp+0x8]
  415d03:	call   0x416aa3
  415d08:	add    esp,0x10
  415d0b:	jmp    0x415d43
  415d0d:	push   DWORD PTR [eax+0x4]
  415d10:	push   ecx
  415d11:	push   DWORD PTR [ebp+0xc]
  415d14:	push   ecx
  415d15:	push   DWORD PTR [ebp+0x8]
  415d18:	push   0x1001
  415d1d:	push   DWORD PTR [eax+0xc]
  415d20:	lea    eax,[ebp-0x10]
  415d23:	push   eax
  415d24:	call   0x416a61
  415d29:	add    esp,0x20
  415d2c:	cmp    eax,ebx
  415d2e:	jne    0x415d40
  415d30:	cmp    BYTE PTR [ebp-0x4],bl
  415d33:	je     0x415d3c
  415d35:	mov    eax,DWORD PTR [ebp-0x8]
  415d38:	and    DWORD PTR [eax+0x70],0xfffffffd
  415d3c:	mov    eax,esi
  415d3e:	jmp    0x415d4f
  415d40:	add    eax,0xfffffffe
  415d43:	cmp    BYTE PTR [ebp-0x4],bl
  415d46:	je     0x415d4f
  415d48:	mov    ecx,DWORD PTR [ebp-0x8]
  415d4b:	and    DWORD PTR [ecx+0x70],0xfffffffd
  415d4f:	pop    esi
  415d50:	pop    ebx
  415d51:	leave  
  415d52:	ret    
  415d53:	mov    edi,edi
  415d55:	push   ebp
  415d56:	mov    ebp,esp
  415d58:	push   0x0
  415d5a:	push   DWORD PTR [ebp+0x10]
  415d5d:	push   DWORD PTR [ebp+0xc]
  415d60:	push   DWORD PTR [ebp+0x8]
  415d63:	call   0x415c65
  415d68:	add    esp,0x10
  415d6b:	pop    ebp
  415d6c:	ret    
  415d6d:	mov    edi,edi
  415d6f:	push   ebp
  415d70:	mov    ebp,esp
  415d72:	push   ecx
  415d73:	push   ecx
  415d74:	push   ebx
  415d75:	push   esi
  415d76:	xor    esi,esi
  415d78:	push   edi
  415d79:	mov    edi,DWORD PTR ds:0x43c100
  415d7f:	mov    DWORD PTR [ebp-0x4],esi
  415d82:	mov    eax,DWORD PTR [edi]
  415d84:	cmp    eax,esi
  415d86:	je     0x415ded
  415d88:	mov    ebx,DWORD PTR ds:0x4192dc
  415d8e:	push   esi
  415d8f:	push   esi
  415d90:	push   esi
  415d91:	push   esi
  415d92:	push   0xffffffff
  415d94:	push   eax
  415d95:	push   esi
  415d96:	push   esi
  415d97:	call   ebx
  415d99:	mov    DWORD PTR [ebp-0x8],eax
  415d9c:	cmp    eax,esi
  415d9e:	je     0x415df4
  415da0:	push   0x1
  415da2:	push   eax
  415da3:	call   0x408832
  415da8:	pop    ecx
  415da9:	pop    ecx
  415daa:	mov    DWORD PTR [ebp-0x4],eax
  415dad:	cmp    eax,esi
  415daf:	je     0x415df4
  415db1:	push   esi
  415db2:	push   esi
  415db3:	push   DWORD PTR [ebp-0x8]
  415db6:	push   eax
  415db7:	push   0xffffffff
  415db9:	push   DWORD PTR [edi]
  415dbb:	push   esi
  415dbc:	push   esi
  415dbd:	call   ebx
  415dbf:	test   eax,eax
  415dc1:	je     0x415df9
  415dc3:	lea    eax,[ebp-0x4]
  415dc6:	push   esi
  415dc7:	push   eax
  415dc8:	call   0x416c49
  415dcd:	pop    ecx
  415dce:	pop    ecx
  415dcf:	test   eax,eax
  415dd1:	jge    0x415de4
  415dd3:	cmp    DWORD PTR [ebp-0x4],esi
  415dd6:	je     0x415de4
  415dd8:	push   DWORD PTR [ebp-0x4]
  415ddb:	call   0x40f63e
  415de0:	pop    ecx
  415de1:	mov    DWORD PTR [ebp-0x4],esi
  415de4:	add    edi,0x4
  415de7:	mov    eax,DWORD PTR [edi]
  415de9:	cmp    eax,esi
  415deb:	jne    0x415d8e
  415ded:	xor    eax,eax
  415def:	pop    edi
  415df0:	pop    esi
  415df1:	pop    ebx
  415df2:	leave  
  415df3:	ret    
  415df4:	or     eax,0xffffffff
  415df7:	jmp    0x415def
  415df9:	push   DWORD PTR [ebp-0x4]
  415dfc:	call   0x40f63e
  415e01:	pop    ecx
  415e02:	jmp    0x415df4
  415e04:	mov    edi,edi
  415e06:	push   ebp
  415e07:	mov    ebp,esp
  415e09:	sub    esp,0x328
  415e0f:	mov    eax,ds:0x423d68
  415e14:	xor    eax,ebp
  415e16:	mov    DWORD PTR [ebp-0x4],eax
  415e19:	test   BYTE PTR ds:0x4243f0,0x1
  415e20:	push   esi
  415e21:	je     0x415e2b
  415e23:	push   0xa
  415e25:	call   0x40d280
  415e2a:	pop    ecx
  415e2b:	call   0x40ac5c
  415e30:	test   eax,eax
  415e32:	je     0x415e3c
  415e34:	push   0x16
  415e36:	call   0x40ac69
  415e3b:	pop    ecx
  415e3c:	test   BYTE PTR ds:0x4243f0,0x2
  415e43:	je     0x415f13
  415e49:	mov    DWORD PTR [ebp-0x220],eax
  415e4f:	mov    DWORD PTR [ebp-0x224],ecx
  415e55:	mov    DWORD PTR [ebp-0x228],edx
  415e5b:	mov    DWORD PTR [ebp-0x22c],ebx
  415e61:	mov    DWORD PTR [ebp-0x230],esi
  415e67:	mov    DWORD PTR [ebp-0x234],edi
  415e6d:	data16 mov WORD PTR [ebp-0x208],ss
  415e74:	data16 mov WORD PTR [ebp-0x214],cs
  415e7b:	data16 mov WORD PTR [ebp-0x238],ds
  415e82:	data16 mov WORD PTR [ebp-0x23c],es
  415e89:	data16 mov WORD PTR [ebp-0x240],fs
  415e90:	data16 mov WORD PTR [ebp-0x244],gs
  415e97:	pushf  
  415e98:	pop    DWORD PTR [ebp-0x210]
  415e9e:	mov    esi,DWORD PTR [ebp+0x4]
  415ea1:	lea    eax,[ebp+0x4]
  415ea4:	mov    DWORD PTR [ebp-0x20c],eax
  415eaa:	mov    DWORD PTR [ebp-0x2d0],0x10001
  415eb4:	mov    DWORD PTR [ebp-0x218],esi
  415eba:	mov    eax,DWORD PTR [eax-0x4]
  415ebd:	push   0x50
  415ebf:	mov    DWORD PTR [ebp-0x21c],eax
  415ec5:	lea    eax,[ebp-0x328]
  415ecb:	push   0x0
  415ecd:	push   eax
  415ece:	call   0x40cc70
  415ed3:	lea    eax,[ebp-0x328]
  415ed9:	add    esp,0xc
  415edc:	mov    DWORD PTR [ebp-0x2d8],eax
  415ee2:	lea    eax,[ebp-0x2d0]
  415ee8:	push   0x0
  415eea:	mov    DWORD PTR [ebp-0x328],0x40000015
  415ef4:	mov    DWORD PTR [ebp-0x31c],esi
  415efa:	mov    DWORD PTR [ebp-0x2d4],eax
  415f00:	call   DWORD PTR ds:0x419498
  415f06:	lea    eax,[ebp-0x2d8]
  415f0c:	push   eax
  415f0d:	call   DWORD PTR ds:0x419280
  415f13:	push   0x3
  415f15:	call   0x40d1fe
  415f1a:	int3   
  415f1b:	int3   
  415f1c:	int3   
  415f1d:	int3   
  415f1e:	int3   
  415f1f:	int3   
  415f20:	push   ecx
  415f21:	lea    ecx,[esp+0x4]
  415f25:	sub    ecx,eax
  415f27:	sbb    eax,eax
  415f29:	not    eax
  415f2b:	and    ecx,eax
  415f2d:	mov    eax,esp
  415f2f:	and    eax,0xfffff000
  415f34:	cmp    ecx,eax
  415f36:	jb     0x415f42
  415f38:	mov    eax,ecx
  415f3a:	pop    ecx
  415f3b:	xchg   esp,eax
  415f3c:	mov    eax,DWORD PTR [eax]
  415f3e:	mov    DWORD PTR [esp],eax
  415f41:	ret    
  415f42:	sub    eax,0x1000
  415f47:	test   DWORD PTR [eax],eax
  415f49:	jmp    0x415f34
  415f4b:	int3   
  415f4c:	int3   
  415f4d:	int3   
  415f4e:	int3   
  415f4f:	int3   
  415f50:	push   ebp
  415f51:	mov    ebp,esp
  415f53:	push   edi
  415f54:	push   esi
  415f55:	push   ebx
  415f56:	mov    ecx,DWORD PTR [ebp+0x10]
  415f59:	or     ecx,ecx
  415f5b:	je     0x415faa
  415f5d:	mov    esi,DWORD PTR [ebp+0x8]
  415f60:	mov    edi,DWORD PTR [ebp+0xc]
  415f63:	mov    bh,0x41
  415f65:	mov    bl,0x5a
  415f67:	mov    dh,0x20
  415f69:	lea    ecx,[ecx+0x0]
  415f6c:	mov    ah,BYTE PTR [esi]
  415f6e:	or     ah,ah
  415f70:	mov    al,BYTE PTR [edi]
  415f72:	je     0x415f9b
  415f74:	or     al,al
  415f76:	je     0x415f9b
  415f78:	add    esi,0x1
  415f7b:	add    edi,0x1
  415f7e:	cmp    ah,bh
  415f80:	jb     0x415f88
  415f82:	cmp    ah,bl
  415f84:	ja     0x415f88
  415f86:	add    ah,dh
  415f88:	cmp    al,bh
  415f8a:	jb     0x415f92
  415f8c:	cmp    al,bl
  415f8e:	ja     0x415f92
  415f90:	add    al,dh
  415f92:	cmp    ah,al
  415f94:	jne    0x415fa1
  415f96:	sub    ecx,0x1
  415f99:	jne    0x415f6c
  415f9b:	xor    ecx,ecx
  415f9d:	cmp    ah,al
  415f9f:	je     0x415faa
  415fa1:	mov    ecx,0xffffffff
  415fa6:	jb     0x415faa
  415fa8:	neg    ecx
  415faa:	mov    eax,ecx
  415fac:	pop    ebx
  415fad:	pop    esi
  415fae:	pop    edi
  415faf:	leave  
  415fb0:	ret    
  415fb1:	mov    edi,edi
  415fb3:	push   ebp
  415fb4:	mov    ebp,esp
  415fb6:	push   esi
  415fb7:	mov    esi,DWORD PTR [ebp+0x8]
  415fba:	push   edi
  415fbb:	push   esi
  415fbc:	call   0x4163c7
  415fc1:	pop    ecx
  415fc2:	cmp    eax,0xffffffff
  415fc5:	je     0x416017
  415fc7:	mov    eax,ds:0x43ca40
  415fcc:	cmp    esi,0x1
  415fcf:	jne    0x415fda
  415fd1:	test   BYTE PTR [eax+0x84],0x1
  415fd8:	jne    0x415fe5
  415fda:	cmp    esi,0x2
  415fdd:	jne    0x415ffb
  415fdf:	test   BYTE PTR [eax+0x44],0x1
  415fe3:	je     0x415ffb
  415fe5:	push   0x2
  415fe7:	call   0x4163c7
  415fec:	push   0x1
  415fee:	mov    edi,eax
  415ff0:	call   0x4163c7
  415ff5:	pop    ecx
  415ff6:	pop    ecx
  415ff7:	cmp    eax,edi
  415ff9:	je     0x416017
  415ffb:	push   esi
  415ffc:	call   0x4163c7
  416001:	pop    ecx
  416002:	push   eax
  416003:	call   DWORD PTR ds:0x4192b8
  416009:	test   eax,eax
  41600b:	jne    0x416017
  41600d:	call   DWORD PTR ds:0x41927c
  416013:	mov    edi,eax
  416015:	jmp    0x416019
  416017:	xor    edi,edi
  416019:	push   esi
  41601a:	call   0x416341
  41601f:	mov    eax,esi
  416021:	sar    eax,0x5
  416024:	mov    eax,DWORD PTR [eax*4+0x43ca40]
  41602b:	and    esi,0x1f
  41602e:	shl    esi,0x6
  416031:	pop    ecx
  416032:	mov    BYTE PTR [eax+esi*1+0x4],0x0
  416037:	test   edi,edi
  416039:	je     0x416047
  41603b:	push   edi
  41603c:	call   0x4087ca
  416041:	pop    ecx
  416042:	or     eax,0xffffffff
  416045:	jmp    0x416049
  416047:	xor    eax,eax
  416049:	pop    edi
  41604a:	pop    esi
  41604b:	pop    ebp
  41604c:	ret    
  41604d:	push   0x10
  41604f:	push   0x41f1b0
  416054:	call   0x40a868
  416059:	mov    eax,DWORD PTR [ebp+0x8]
  41605c:	cmp    eax,0xfffffffe
  41605f:	jne    0x41607c
  416061:	call   0x4087b7
  416066:	and    DWORD PTR [eax],0x0
  416069:	call   0x4087a4
  41606e:	mov    DWORD PTR [eax],0x9
  416074:	or     eax,0xffffffff
  416077:	jmp    0x41610a
  41607c:	xor    edi,edi
  41607e:	cmp    eax,edi
  416080:	jl     0x41608a
  416082:	cmp    eax,DWORD PTR ds:0x43ca2c
  416088:	jb     0x4160ab
  41608a:	call   0x4087b7
  41608f:	mov    DWORD PTR [eax],edi
  416091:	call   0x4087a4
  416096:	mov    DWORD PTR [eax],0x9
  41609c:	push   edi
  41609d:	push   edi
  41609e:	push   edi
  41609f:	push   edi
  4160a0:	push   edi
  4160a1:	call   0x40873c
  4160a6:	add    esp,0x14
  4160a9:	jmp    0x416074
  4160ab:	mov    ecx,eax
  4160ad:	sar    ecx,0x5
  4160b0:	lea    ebx,[ecx*4+0x43ca40]
  4160b7:	mov    esi,eax
  4160b9:	and    esi,0x1f
  4160bc:	shl    esi,0x6
  4160bf:	mov    ecx,DWORD PTR [ebx]
  4160c1:	movsx  ecx,BYTE PTR [ecx+esi*1+0x4]
  4160c6:	and    ecx,0x1
  4160c9:	je     0x41608a
  4160cb:	push   eax
  4160cc:	call   0x41643e
  4160d1:	pop    ecx
  4160d2:	mov    DWORD PTR [ebp-0x4],edi
  4160d5:	mov    eax,DWORD PTR [ebx]
  4160d7:	test   BYTE PTR [eax+esi*1+0x4],0x1
  4160dc:	je     0x4160ec
  4160de:	push   DWORD PTR [ebp+0x8]
  4160e1:	call   0x415fb1
  4160e6:	pop    ecx
  4160e7:	mov    DWORD PTR [ebp-0x1c],eax
  4160ea:	jmp    0x4160fb
  4160ec:	call   0x4087a4
  4160f1:	mov    DWORD PTR [eax],0x9
  4160f7:	or     DWORD PTR [ebp-0x1c],0xffffffff
  4160fb:	mov    DWORD PTR [ebp-0x4],0xfffffffe
  416102:	call   0x416110
  416107:	mov    eax,DWORD PTR [ebp-0x1c]
  41610a:	call   0x40a8ad
  41610f:	ret    
  416110:	push   DWORD PTR [ebp+0x8]
  416113:	call   0x4164de
  416118:	pop    ecx
  416119:	ret    
  41611a:	mov    edi,edi
  41611c:	push   ebp
  41611d:	mov    ebp,esp
  41611f:	push   esi
  416120:	mov    esi,DWORD PTR [ebp+0x8]
  416123:	mov    eax,DWORD PTR [esi+0xc]
  416126:	test   al,0x83
  416128:	je     0x416148
  41612a:	test   al,0x8
  41612c:	je     0x416148
  41612e:	push   DWORD PTR [esi+0x8]
  416131:	call   0x40f63e
  416136:	and    DWORD PTR [esi+0xc],0xfffffbf7
  41613d:	xor    eax,eax
  41613f:	pop    ecx
  416140:	mov    DWORD PTR [esi],eax
  416142:	mov    DWORD PTR [esi+0x8],eax
  416145:	mov    DWORD PTR [esi+0x4],eax
  416148:	pop    esi
  416149:	pop    ebp
  41614a:	ret    
  41614b:	mov    edi,edi
  41614d:	push   ebp
  41614e:	mov    ebp,esp
  416150:	sub    esp,0x10
  416153:	mov    eax,ds:0x423d68
  416158:	xor    eax,ebp
  41615a:	mov    DWORD PTR [ebp-0x4],eax
  41615d:	push   esi
  41615e:	xor    esi,esi
  416160:	cmp    DWORD PTR ds:0x424400,esi
  416166:	je     0x4161b7
  416168:	cmp    DWORD PTR ds:0x4246c8,0xfffffffe
  41616f:	jne    0x416176
  416171:	call   0x416e94
  416176:	mov    eax,ds:0x4246c8
  41617b:	cmp    eax,0xffffffff
  41617e:	jne    0x416187
  416180:	mov    eax,0xffff
  416185:	jmp    0x4161f7
  416187:	push   esi
  416188:	lea    ecx,[ebp-0x10]
  41618b:	push   ecx
  41618c:	push   0x1
  41618e:	lea    ecx,[ebp+0x8]
  416191:	push   ecx
  416192:	push   eax
  416193:	call   DWORD PTR ds:0x419500
  416199:	test   eax,eax
  41619b:	jne    0x416204
  41619d:	cmp    DWORD PTR ds:0x424400,0x2
  4161a4:	jne    0x416180
  4161a6:	call   DWORD PTR ds:0x41927c
  4161ac:	cmp    eax,0x78
  4161af:	jne    0x416180
  4161b1:	mov    DWORD PTR ds:0x424400,esi
  4161b7:	push   esi
  4161b8:	push   esi
  4161b9:	push   0x5
  4161bb:	lea    eax,[ebp-0xc]
  4161be:	push   eax
  4161bf:	push   0x1
  4161c1:	lea    eax,[ebp+0x8]
  4161c4:	push   eax
  4161c5:	push   esi
  4161c6:	call   DWORD PTR ds:0x4194fc
  4161cc:	push   eax
  4161cd:	call   DWORD PTR ds:0x4192dc
  4161d3:	mov    ecx,DWORD PTR ds:0x4246c8
  4161d9:	cmp    ecx,0xffffffff
  4161dc:	je     0x416180
  4161de:	push   esi
  4161df:	lea    edx,[ebp-0x10]
  4161e2:	push   edx
  4161e3:	push   eax
  4161e4:	lea    eax,[ebp-0xc]
  4161e7:	push   eax
  4161e8:	push   ecx
  4161e9:	call   DWORD PTR ds:0x4194f8
  4161ef:	test   eax,eax
  4161f1:	je     0x416180
  4161f3:	mov    ax,WORD PTR [ebp+0x8]
  4161f7:	mov    ecx,DWORD PTR [ebp-0x4]
  4161fa:	xor    ecx,ebp
  4161fc:	pop    esi
  4161fd:	call   0x40efb3
  416202:	leave  
  416203:	ret    
  416204:	mov    DWORD PTR ds:0x424400,0x1
  41620e:	jmp    0x4161f3
  416210:	mov    edi,edi
  416212:	push   ebp
  416213:	mov    ebp,esp
  416215:	sub    esp,0x10
  416218:	push   ebx
  416219:	push   esi
  41621a:	mov    esi,DWORD PTR [ebp+0xc]
  41621d:	xor    ebx,ebx
  41621f:	cmp    esi,ebx
  416221:	je     0x416238
  416223:	cmp    DWORD PTR [ebp+0x10],ebx
  416226:	je     0x416238
  416228:	cmp    BYTE PTR [esi],bl
  41622a:	jne    0x41623e
  41622c:	mov    eax,DWORD PTR [ebp+0x8]
  41622f:	cmp    eax,ebx
  416231:	je     0x416238
  416233:	xor    ecx,ecx
  416235:	mov    WORD PTR [eax],cx
  416238:	xor    eax,eax
  41623a:	pop    esi
  41623b:	pop    ebx
  41623c:	leave  
  41623d:	ret    
  41623e:	push   DWORD PTR [ebp+0x14]
  416241:	lea    ecx,[ebp-0x10]
  416244:	call   0x4046f4
  416249:	mov    eax,DWORD PTR [ebp-0x10]
  41624c:	cmp    DWORD PTR [eax+0x14],ebx
  41624f:	jne    0x416270
  416251:	mov    eax,DWORD PTR [ebp+0x8]
  416254:	cmp    eax,ebx
  416256:	je     0x41625f
  416258:	movzx  cx,BYTE PTR [esi]
  41625c:	mov    WORD PTR [eax],cx
  41625f:	cmp    BYTE PTR [ebp-0x4],bl
  416262:	je     0x41626b
  416264:	mov    eax,DWORD PTR [ebp-0x8]
  416267:	and    DWORD PTR [eax+0x70],0xfffffffd
  41626b:	xor    eax,eax
  41626d:	inc    eax
  41626e:	jmp    0x41623a
  416270:	lea    eax,[ebp-0x10]
  416273:	push   eax
  416274:	movzx  eax,BYTE PTR [esi]
  416277:	push   eax
  416278:	call   0x4107a3
  41627d:	pop    ecx
  41627e:	pop    ecx
  41627f:	test   eax,eax
  416281:	je     0x416300
  416283:	mov    eax,DWORD PTR [ebp-0x10]
  416286:	mov    ecx,DWORD PTR [eax+0xac]
  41628c:	cmp    ecx,0x1
  41628f:	jle    0x4162b6
  416291:	cmp    DWORD PTR [ebp+0x10],ecx
  416294:	jl     0x4162b6
  416296:	xor    edx,edx
  416298:	cmp    DWORD PTR [ebp+0x8],ebx
  41629b:	setne  dl
  41629e:	push   edx
  41629f:	push   DWORD PTR [ebp+0x8]
  4162a2:	push   ecx
  4162a3:	push   esi
  4162a4:	push   0x9
  4162a6:	push   DWORD PTR [eax+0x4]
  4162a9:	call   DWORD PTR ds:0x4192d8
  4162af:	test   eax,eax
  4162b1:	mov    eax,DWORD PTR [ebp-0x10]
  4162b4:	jne    0x4162c6
  4162b6:	mov    ecx,DWORD PTR [ebp+0x10]
  4162b9:	cmp    ecx,DWORD PTR [eax+0xac]
  4162bf:	jb     0x4162e1
  4162c1:	cmp    BYTE PTR [esi+0x1],bl
  4162c4:	je     0x4162e1
  4162c6:	mov    eax,DWORD PTR [eax+0xac]
  4162cc:	cmp    BYTE PTR [ebp-0x4],bl
  4162cf:	je     0x41623a
  4162d5:	mov    ecx,DWORD PTR [ebp-0x8]
  4162d8:	and    DWORD PTR [ecx+0x70],0xfffffffd
  4162dc:	jmp    0x41623a
  4162e1:	call   0x4087a4
  4162e6:	mov    DWORD PTR [eax],0x2a
  4162ec:	cmp    BYTE PTR [ebp-0x4],bl
  4162ef:	je     0x4162f8
  4162f1:	mov    eax,DWORD PTR [ebp-0x8]
  4162f4:	and    DWORD PTR [eax+0x70],0xfffffffd
  4162f8:	or     eax,0xffffffff
  4162fb:	jmp    0x41623a
  416300:	xor    eax,eax
  416302:	cmp    DWORD PTR [ebp+0x8],ebx
  416305:	setne  al
  416308:	push   eax
  416309:	push   DWORD PTR [ebp+0x8]
  41630c:	mov    eax,DWORD PTR [ebp-0x10]
  41630f:	push   0x1
  416311:	push   esi
  416312:	push   0x9
  416314:	push   DWORD PTR [eax+0x4]
  416317:	call   DWORD PTR ds:0x4192d8
  41631d:	test   eax,eax
  41631f:	jne    0x41625f
  416325:	jmp    0x4162e1
  416327:	mov    edi,edi
  416329:	push   ebp
  41632a:	mov    ebp,esp
  41632c:	push   0x0
  41632e:	push   DWORD PTR [ebp+0x10]
  416331:	push   DWORD PTR [ebp+0xc]
  416334:	push   DWORD PTR [ebp+0x8]
  416337:	call   0x416210
  41633c:	add    esp,0x10
  41633f:	pop    ebp
  416340:	ret    
  416341:	mov    edi,edi
  416343:	push   ebp
  416344:	mov    ebp,esp
  416346:	mov    ecx,DWORD PTR [ebp+0x8]
  416349:	push   ebx
  41634a:	xor    ebx,ebx
  41634c:	cmp    ecx,ebx
  41634e:	push   esi
  41634f:	push   edi
  416350:	jl     0x4163ad
  416352:	cmp    ecx,DWORD PTR ds:0x43ca2c
  416358:	jae    0x4163ad
  41635a:	mov    eax,ecx
  41635c:	sar    eax,0x5
  41635f:	mov    esi,ecx
  416361:	lea    edi,[eax*4+0x43ca40]
  416368:	mov    eax,DWORD PTR [edi]
  41636a:	and    esi,0x1f
  41636d:	shl    esi,0x6
  416370:	add    eax,esi
  416372:	test   BYTE PTR [eax+0x4],0x1
  416376:	je     0x4163ad
  416378:	cmp    DWORD PTR [eax],0xffffffff
  41637b:	je     0x4163ad
  41637d:	cmp    DWORD PTR ds:0x4231b0,0x1
  416384:	jne    0x4163a3
  416386:	sub    ecx,ebx
  416388:	je     0x41639a
  41638a:	dec    ecx
  41638b:	je     0x416395
  41638d:	dec    ecx
  41638e:	jne    0x4163a3
  416390:	push   ebx
  416391:	push   0xfffffff4
  416393:	jmp    0x41639d
  416395:	push   ebx
  416396:	push   0xfffffff5
  416398:	jmp    0x41639d
  41639a:	push   ebx
  41639b:	push   0xfffffff6
  41639d:	call   DWORD PTR ds:0x419504
  4163a3:	mov    eax,DWORD PTR [edi]
  4163a5:	or     DWORD PTR [esi+eax*1],0xffffffff
  4163a9:	xor    eax,eax
  4163ab:	jmp    0x4163c2
  4163ad:	call   0x4087a4
  4163b2:	mov    DWORD PTR [eax],0x9
  4163b8:	call   0x4087b7
  4163bd:	mov    DWORD PTR [eax],ebx
  4163bf:	or     eax,0xffffffff
  4163c2:	pop    edi
  4163c3:	pop    esi
  4163c4:	pop    ebx
  4163c5:	pop    ebp
  4163c6:	ret    
  4163c7:	mov    edi,edi
  4163c9:	push   ebp
  4163ca:	mov    ebp,esp
  4163cc:	mov    eax,DWORD PTR [ebp+0x8]
  4163cf:	cmp    eax,0xfffffffe
  4163d2:	jne    0x4163ec
  4163d4:	call   0x4087b7
  4163d9:	and    DWORD PTR [eax],0x0
  4163dc:	call   0x4087a4
  4163e1:	mov    DWORD PTR [eax],0x9
  4163e7:	or     eax,0xffffffff
  4163ea:	pop    ebp
  4163eb:	ret    
  4163ec:	push   esi
  4163ed:	xor    esi,esi
  4163ef:	cmp    eax,esi
  4163f1:	jl     0x416415
  4163f3:	cmp    eax,DWORD PTR ds:0x43ca2c
  4163f9:	jae    0x416415
  4163fb:	mov    ecx,eax
  4163fd:	and    eax,0x1f
  416400:	sar    ecx,0x5
  416403:	mov    ecx,DWORD PTR [ecx*4+0x43ca40]
  41640a:	shl    eax,0x6
  41640d:	add    eax,ecx
  41640f:	test   BYTE PTR [eax+0x4],0x1
  416413:	jne    0x416439
  416415:	call   0x4087b7
  41641a:	mov    DWORD PTR [eax],esi
  41641c:	call   0x4087a4
  416421:	push   esi
  416422:	push   esi
  416423:	push   esi
  416424:	push   esi
  416425:	push   esi
  416426:	mov    DWORD PTR [eax],0x9
  41642c:	call   0x40873c
  416431:	add    esp,0x14
  416434:	or     eax,0xffffffff
  416437:	jmp    0x41643b
  416439:	mov    eax,DWORD PTR [eax]
  41643b:	pop    esi
  41643c:	pop    ebp
  41643d:	ret    
  41643e:	push   0xc
  416440:	push   0x41f1d0
  416445:	call   0x40a868
  41644a:	mov    edi,DWORD PTR [ebp+0x8]
  41644d:	mov    eax,edi
  41644f:	sar    eax,0x5
  416452:	mov    esi,edi
  416454:	and    esi,0x1f
  416457:	shl    esi,0x6
  41645a:	add    esi,DWORD PTR [eax*4+0x43ca40]
  416461:	mov    DWORD PTR [ebp-0x1c],0x1
  416468:	xor    ebx,ebx
  41646a:	cmp    DWORD PTR [esi+0x8],ebx
  41646d:	jne    0x4164a5
  41646f:	push   0xa
  416471:	call   0x40f60b
  416476:	pop    ecx
  416477:	mov    DWORD PTR [ebp-0x4],ebx
  41647a:	cmp    DWORD PTR [esi+0x8],ebx
  41647d:	jne    0x416499
  41647f:	push   0xfa0
  416484:	lea    eax,[esi+0xc]
  416487:	push   eax
  416488:	call   0x411f6f
  41648d:	pop    ecx
  41648e:	pop    ecx
  41648f:	test   eax,eax
  416491:	jne    0x416496
  416493:	mov    DWORD PTR [ebp-0x1c],ebx
  416496:	inc    DWORD PTR [esi+0x8]
  416499:	mov    DWORD PTR [ebp-0x4],0xfffffffe
  4164a0:	call   0x4164d5
  4164a5:	cmp    DWORD PTR [ebp-0x1c],ebx
  4164a8:	je     0x4164c7
  4164aa:	mov    eax,edi
  4164ac:	sar    eax,0x5
  4164af:	and    edi,0x1f
  4164b2:	shl    edi,0x6
  4164b5:	mov    eax,DWORD PTR [eax*4+0x43ca40]
  4164bc:	lea    eax,[eax+edi*1+0xc]
  4164c0:	push   eax
  4164c1:	call   DWORD PTR ds:0x4192a0
  4164c7:	mov    eax,DWORD PTR [ebp-0x1c]
  4164ca:	call   0x40a8ad
  4164cf:	ret    
  4164d0:	xor    ebx,ebx
  4164d2:	mov    edi,DWORD PTR [ebp+0x8]
  4164d5:	push   0xa
  4164d7:	call   0x40f531
  4164dc:	pop    ecx
  4164dd:	ret    
  4164de:	mov    edi,edi
  4164e0:	push   ebp
  4164e1:	mov    ebp,esp
  4164e3:	mov    eax,DWORD PTR [ebp+0x8]
  4164e6:	mov    ecx,eax
  4164e8:	and    eax,0x1f
  4164eb:	sar    ecx,0x5
  4164ee:	mov    ecx,DWORD PTR [ecx*4+0x43ca40]
  4164f5:	shl    eax,0x6
  4164f8:	lea    eax,[ecx+eax*1+0xc]
  4164fc:	push   eax
  4164fd:	call   DWORD PTR ds:0x4192bc
  416503:	pop    ebp
  416504:	ret    
  416505:	mov    edi,edi
  416507:	push   ebp
  416508:	mov    ebp,esp
  41650a:	sub    esp,0x18
  41650d:	mov    eax,ds:0x423d68
  416512:	xor    eax,ebp
  416514:	mov    DWORD PTR [ebp-0x4],eax
  416517:	mov    eax,DWORD PTR [ebp+0x10]
  41651a:	push   ebx
  41651b:	push   esi
  41651c:	xor    esi,esi
  41651e:	push   edi
  41651f:	mov    DWORD PTR [ebp-0x18],0x404e
  416526:	mov    DWORD PTR [eax],esi
  416528:	mov    DWORD PTR [eax+0x4],esi
  41652b:	mov    DWORD PTR [eax+0x8],esi
  41652e:	cmp    DWORD PTR [ebp+0xc],esi
  416531:	jbe    0x41667d
  416537:	mov    edx,DWORD PTR [eax]
  416539:	mov    ebx,DWORD PTR [eax+0x4]
  41653c:	mov    esi,eax
  41653e:	lea    edi,[ebp-0x10]
  416541:	movs   DWORD PTR es:[edi],DWORD PTR ds:[esi]
  416542:	movs   DWORD PTR es:[edi],DWORD PTR ds:[esi]
  416543:	movs   DWORD PTR es:[edi],DWORD PTR ds:[esi]
  416544:	mov    ecx,edx
  416546:	shr    ecx,0x1f
  416549:	lea    edi,[edx+edx*1]
  41654c:	lea    edx,[ebx+ebx*1]
  41654f:	or     edx,ecx
  416551:	mov    ecx,DWORD PTR [eax+0x8]
  416554:	mov    esi,ebx
  416556:	shr    esi,0x1f
  416559:	add    ecx,ecx
  41655b:	or     ecx,esi
  41655d:	mov    DWORD PTR [ebp-0x14],edi
  416560:	mov    esi,edi
  416562:	and    DWORD PTR [ebp-0x14],0x0
  416566:	mov    ebx,edx
  416568:	shr    ebx,0x1f
  41656b:	add    ecx,ecx
  41656d:	shr    edi,0x1f
  416570:	or     ecx,ebx
  416572:	mov    ebx,DWORD PTR [ebp-0x10]
  416575:	add    esi,esi
  416577:	add    edx,edx
  416579:	or     edx,edi
  41657b:	lea    edi,[esi+ebx*1]
  41657e:	mov    DWORD PTR [eax],esi
  416580:	mov    DWORD PTR [eax+0x4],edx
  416583:	mov    DWORD PTR [eax+0x8],ecx
  416586:	cmp    edi,esi
  416588:	jb     0x41658e
  41658a:	cmp    edi,ebx
  41658c:	jae    0x416595
  41658e:	mov    DWORD PTR [ebp-0x14],0x1
  416595:	xor    ebx,ebx
  416597:	mov    DWORD PTR [eax],edi
  416599:	cmp    DWORD PTR [ebp-0x14],ebx
  41659c:	je     0x4165b8
  41659e:	lea    esi,[edx+0x1]
  4165a1:	cmp    esi,edx
  4165a3:	jb     0x4165aa
  4165a5:	cmp    esi,0x1
  4165a8:	jae    0x4165ad
  4165aa:	xor    ebx,ebx
  4165ac:	inc    ebx
  4165ad:	mov    DWORD PTR [eax+0x4],esi
  4165b0:	test   ebx,ebx
  4165b2:	je     0x4165b8
  4165b4:	inc    ecx
  4165b5:	mov    DWORD PTR [eax+0x8],ecx
  4165b8:	mov    ecx,DWORD PTR [eax+0x4]
  4165bb:	mov    edx,DWORD PTR [ebp-0xc]
  4165be:	lea    ebx,[ecx+edx*1]
  4165c1:	xor    esi,esi
  4165c3:	cmp    ebx,ecx
  4165c5:	jb     0x4165cb
  4165c7:	cmp    ebx,edx
  4165c9:	jae    0x4165ce
  4165cb:	xor    esi,esi
  4165cd:	inc    esi
  4165ce:	mov    DWORD PTR [eax+0x4],ebx
  4165d1:	test   esi,esi
  4165d3:	je     0x4165d8
  4165d5:	inc    DWORD PTR [eax+0x8]
  4165d8:	mov    ecx,DWORD PTR [ebp-0x8]
  4165db:	add    DWORD PTR [eax+0x8],ecx
  4165de:	and    DWORD PTR [ebp-0x14],0x0
  4165e2:	lea    ecx,[edi+edi*1]
  4165e5:	mov    edx,edi
  4165e7:	shr    edx,0x1f
  4165ea:	lea    edi,[ebx+ebx*1]
  4165ed:	or     edi,edx
  4165ef:	mov    edx,DWORD PTR [eax+0x8]
  4165f2:	mov    esi,ebx
  4165f4:	shr    esi,0x1f
  4165f7:	lea    ebx,[edx+edx*1]
  4165fa:	mov    edx,DWORD PTR [ebp+0x8]
  4165fd:	or     ebx,esi
  4165ff:	mov    DWORD PTR [eax],ecx
  416601:	mov    DWORD PTR [eax+0x4],edi
  416604:	mov    DWORD PTR [eax+0x8],ebx
  416607:	movsx  edx,BYTE PTR [edx]
  41660a:	lea    esi,[ecx+edx*1]
  41660d:	mov    DWORD PTR [ebp-0x10],edx
  416610:	cmp    esi,ecx
  416612:	jb     0x416618
  416614:	cmp    esi,edx
  416616:	jae    0x41661f
  416618:	mov    DWORD PTR [ebp-0x14],0x1
  41661f:	cmp    DWORD PTR [ebp-0x14],0x0
  416623:	mov    DWORD PTR [eax],esi
  416625:	je     0x416643
  416627:	lea    ecx,[edi+0x1]
  41662a:	xor    edx,edx
  41662c:	cmp    ecx,edi
  41662e:	jb     0x416635
  416630:	cmp    ecx,0x1
  416633:	jae    0x416638
  416635:	xor    edx,edx
  416637:	inc    edx
  416638:	mov    DWORD PTR [eax+0x4],ecx
  41663b:	test   edx,edx
  41663d:	je     0x416643
  41663f:	inc    ebx
  416640:	mov    DWORD PTR [eax+0x8],ebx
  416643:	dec    DWORD PTR [ebp+0xc]
  416646:	inc    DWORD PTR [ebp+0x8]
  416649:	cmp    DWORD PTR [ebp+0xc],0x0
  41664d:	ja     0x416537
  416653:	xor    esi,esi
  416655:	jmp    0x41667d
  416657:	mov    ecx,DWORD PTR [eax+0x4]
  41665a:	mov    edx,ecx
  41665c:	shr    edx,0x10
  41665f:	mov    DWORD PTR [eax+0x8],edx
  416662:	mov    edx,DWORD PTR [eax]
  416664:	mov    edi,edx
  416666:	shl    ecx,0x10
  416669:	shr    edi,0x10
  41666c:	or     ecx,edi
  41666e:	shl    edx,0x10
  416671:	add    DWORD PTR [ebp-0x18],0xfff0
  416678:	mov    DWORD PTR [eax+0x4],ecx
  41667b:	mov    DWORD PTR [eax],edx
  41667d:	cmp    DWORD PTR [eax+0x8],esi
  416680:	je     0x416657
  416682:	mov    ebx,0x8000
  416687:	test   DWORD PTR [eax+0x8],ebx
  41668a:	jne    0x4166bc
  41668c:	mov    esi,DWORD PTR [eax]
  41668e:	mov    edi,DWORD PTR [eax+0x4]
  416691:	add    DWORD PTR [ebp-0x18],0xffff
  416698:	mov    ecx,esi
  41669a:	add    esi,esi
  41669c:	shr    ecx,0x1f
  41669f:	mov    DWORD PTR [eax],esi
  4166a1:	lea    esi,[edi+edi*1]
  4166a4:	or     esi,ecx
  4166a6:	mov    ecx,DWORD PTR [eax+0x8]
  4166a9:	mov    edx,edi
  4166ab:	shr    edx,0x1f
  4166ae:	add    ecx,ecx
  4166b0:	or     ecx,edx
  4166b2:	mov    DWORD PTR [eax+0x4],esi
  4166b5:	mov    DWORD PTR [eax+0x8],ecx
  4166b8:	test   ebx,ecx
  4166ba:	je     0x41668c
  4166bc:	mov    cx,WORD PTR [ebp-0x18]
  4166c0:	mov    WORD PTR [eax+0xa],cx
  4166c4:	mov    ecx,DWORD PTR [ebp-0x4]
  4166c7:	pop    edi
  4166c8:	pop    esi
  4166c9:	xor    ecx,ebp
  4166cb:	pop    ebx
  4166cc:	call   0x40efb3
  4166d1:	leave  
  4166d2:	ret    
  4166d3:	mov    edi,edi
  4166d5:	push   ebp
  4166d6:	mov    ebp,esp
  4166d8:	mov    ecx,DWORD PTR [ebp+0x8]
  4166db:	jmp    0x4166e4
  4166dd:	dec    ecx
  4166de:	cmp    BYTE PTR [eax],0x0
  4166e1:	je     0x4166e9
  4166e3:	inc    eax
  4166e4:	test   ecx,ecx
  4166e6:	jne    0x4166dd
  4166e8:	dec    ecx
  4166e9:	mov    eax,DWORD PTR [ebp+0x8]
  4166ec:	sub    eax,ecx
  4166ee:	dec    eax
  4166ef:	pop    ebp
  4166f0:	ret    
  4166f1:	mov    edi,edi
  4166f3:	push   ebp
  4166f4:	mov    ebp,esp
  4166f6:	sub    esp,0x2c
  4166f9:	mov    eax,ds:0x423d68
  4166fe:	xor    eax,ebp
  416700:	mov    DWORD PTR [ebp-0x4],eax
  416703:	mov    eax,DWORD PTR [ebp+0x14]
  416706:	push   ebx
  416707:	push   esi
  416708:	push   edi
  416709:	xor    edi,edi
  41670b:	mov    ebx,edx
  41670d:	mov    esi,ecx
  41670f:	mov    DWORD PTR [ebp-0x24],ebx
  416712:	mov    DWORD PTR [ebp-0x1c],eax
  416715:	cmp    DWORD PTR ds:0x43ca08,edi
  41671b:	jne    0x416755
  41671d:	push   0x1
  41671f:	mov    eax,0x41e288
  416724:	push   eax
  416725:	push   0x1
  416727:	push   eax
  416728:	push   edi
  416729:	push   edi
  41672a:	call   DWORD PTR ds:0x4192f4
  416730:	test   eax,eax
  416732:	je     0x416740
  416734:	mov    DWORD PTR ds:0x43ca08,0x1
  41673e:	jmp    0x416755
  416740:	call   DWORD PTR ds:0x41927c
  416746:	cmp    eax,0x78
  416749:	jne    0x416755
  41674b:	mov    DWORD PTR ds:0x43ca08,0x2
  416755:	cmp    DWORD PTR [ebp+0x10],edi
  416758:	jle    0x416780
  41675a:	push   DWORD PTR [ebp+0x10]
  41675d:	mov    eax,ebx
  41675f:	call   0x4166d3
  416764:	pop    ecx
  416765:	mov    DWORD PTR [ebp+0x10],eax
  416768:	mov    edx,DWORD PTR [ebp+0x18]
  41676b:	cmp    edx,edi
  41676d:	jle    0x41678d
  41676f:	mov    eax,DWORD PTR [ebp-0x1c]
  416772:	push   edx
  416773:	call   0x4166d3
  416778:	mov    edx,eax
  41677a:	pop    ecx
  41677b:	mov    DWORD PTR [ebp+0x18],edx
  41677e:	jmp    0x416792
  416780:	cmp    DWORD PTR [ebp+0x10],0xffffffff
  416784:	jge    0x416768
  416786:	xor    eax,eax
  416788:	jmp    0x416a4f
  41678d:	cmp    edx,0xffffffff
  416790:	jl     0x416786
  416792:	mov    ecx,DWORD PTR ds:0x43ca08
  416798:	cmp    ecx,0x2
  41679b:	je     0x41699a
  4167a1:	cmp    ecx,edi
  4167a3:	je     0x41699a
  4167a9:	xor    eax,eax
  4167ab:	inc    eax
  4167ac:	cmp    ecx,eax
  4167ae:	jne    0x416786
  4167b0:	mov    DWORD PTR [ebp-0x28],edi
  4167b3:	cmp    DWORD PTR [ebp+0x1c],edi
  4167b6:	jne    0x4167c0
  4167b8:	mov    ecx,DWORD PTR [esi]
  4167ba:	mov    ecx,DWORD PTR [ecx+0x4]
  4167bd:	mov    DWORD PTR [ebp+0x1c],ecx
  4167c0:	cmp    DWORD PTR [ebp+0x10],edi
  4167c3:	je     0x4167cd
  4167c5:	cmp    edx,edi
  4167c7:	jne    0x416867
  4167cd:	cmp    DWORD PTR [ebp+0x10],edx
  4167d0:	jne    0x4167da
  4167d2:	push   0x2
  4167d4:	pop    eax
  4167d5:	jmp    0x416a4f
  4167da:	cmp    edx,eax
  4167dc:	jg     0x416a4f
  4167e2:	cmp    DWORD PTR [ebp+0x10],eax
  4167e5:	jle    0x4167eb
  4167e7:	push   0x3
  4167e9:	jmp    0x4167d4
  4167eb:	lea    eax,[ebp-0x18]
  4167ee:	push   eax
  4167ef:	push   DWORD PTR [ebp+0x1c]
  4167f2:	call   DWORD PTR ds:0x419374
  4167f8:	test   eax,eax
  4167fa:	je     0x416786
  4167fc:	cmp    DWORD PTR [ebp+0x10],edi
  4167ff:	jle    0x41682a
  416801:	cmp    DWORD PTR [ebp-0x18],0x2
  416805:	jb     0x4167e7
  416807:	cmp    BYTE PTR [ebp-0x12],0x0
  41680b:	lea    eax,[ebp-0x12]
  41680e:	je     0x4167e7
  416810:	mov    dl,BYTE PTR [eax+0x1]
  416813:	test   dl,dl
  416815:	je     0x4167e7
  416817:	mov    cl,BYTE PTR [ebx]
  416819:	cmp    cl,BYTE PTR [eax]
  41681b:	jb     0x416821
  41681d:	cmp    cl,dl
  41681f:	jbe    0x4167d2
  416821:	inc    eax
  416822:	inc    eax
  416823:	cmp    BYTE PTR [eax],0x0
  416826:	jne    0x416810
  416828:	jmp    0x4167e7
  41682a:	cmp    DWORD PTR [ebp+0x18],edi
  41682d:	jle    0x416867
  41682f:	cmp    DWORD PTR [ebp-0x18],0x2
  416833:	jae    0x41683d
  416835:	xor    eax,eax
  416837:	inc    eax
  416838:	jmp    0x416a4f
  41683d:	cmp    BYTE PTR [ebp-0x12],0x0
  416841:	lea    eax,[ebp-0x12]
  416844:	je     0x416835
  416846:	mov    dl,BYTE PTR [eax+0x1]
  416849:	test   dl,dl
  41684b:	je     0x416835
  41684d:	mov    ecx,DWORD PTR [ebp-0x1c]
  416850:	mov    cl,BYTE PTR [ecx]
  416852:	cmp    cl,BYTE PTR [eax]
  416854:	jb     0x41685e
  416856:	cmp    cl,dl
  416858:	jbe    0x4167d2
  41685e:	inc    eax
  41685f:	inc    eax
  416860:	cmp    BYTE PTR [eax],0x0
  416863:	jne    0x416846
  416865:	jmp    0x416835
  416867:	mov    esi,DWORD PTR ds:0x4192d8
  41686d:	push   edi
  41686e:	push   edi
  41686f:	push   DWORD PTR [ebp+0x10]
  416872:	push   ebx
  416873:	push   0x9
  416875:	push   DWORD PTR [ebp+0x1c]
  416878:	call   esi
  41687a:	mov    ebx,eax
  41687c:	mov    DWORD PTR [ebp-0x2c],ebx
  41687f:	cmp    ebx,edi
  416881:	je     0x416786
  416887:	mov    edi,0x400
  41688c:	test   ebx,ebx
  41688e:	jle    0x4168d0
  416890:	push   0xffffffe0
  416892:	xor    edx,edx
  416894:	pop    eax
  416895:	div    ebx
  416897:	cmp    eax,0x2
  41689a:	jb     0x4168d0
  41689c:	lea    eax,[ebx+ebx*1+0x8]
  4168a0:	cmp    eax,edi
  4168a2:	ja     0x4168b7
  4168a4:	call   0x413090
  4168a9:	mov    eax,esp
  4168ab:	test   eax,eax
  4168ad:	je     0x4168cb
  4168af:	mov    DWORD PTR [eax],0xcccc
  4168b5:	jmp    0x4168c8
  4168b7:	push   eax
  4168b8:	call   0x40f011
  4168bd:	pop    ecx
  4168be:	test   eax,eax
  4168c0:	je     0x4168cb
  4168c2:	mov    DWORD PTR [eax],0xdddd
  4168c8:	add    eax,0x8
  4168cb:	mov    DWORD PTR [ebp-0x20],eax
  4168ce:	jmp    0x4168d4
  4168d0:	and    DWORD PTR [ebp-0x20],0x0
  4168d4:	cmp    DWORD PTR [ebp-0x20],0x0
  4168d8:	je     0x416786
  4168de:	push   ebx
  4168df:	push   DWORD PTR [ebp-0x20]
  4168e2:	push   DWORD PTR [ebp+0x10]
  4168e5:	push   DWORD PTR [ebp-0x24]
  4168e8:	push   0x1
  4168ea:	push   DWORD PTR [ebp+0x1c]
  4168ed:	call   esi
  4168ef:	test   eax,eax
  4168f1:	je     0x416989
  4168f7:	push   0x0
  4168f9:	push   0x0
  4168fb:	push   DWORD PTR [ebp+0x18]
  4168fe:	push   DWORD PTR [ebp-0x1c]
  416901:	push   0x9
  416903:	push   DWORD PTR [ebp+0x1c]
  416906:	call   esi
  416908:	mov    ebx,eax
  41690a:	test   ebx,ebx
  41690c:	je     0x416989
  41690e:	jle    0x416952
  416910:	push   0xffffffe0
  416912:	xor    edx,edx
  416914:	pop    eax
  416915:	div    ebx
  416917:	cmp    eax,0x2
  41691a:	jb     0x416952
  41691c:	lea    eax,[ebx+ebx*1+0x8]
  416920:	cmp    eax,edi
  416922:	ja     0x41693a
  416924:	call   0x413090
  416929:	mov    edi,esp
  41692b:	test   edi,edi
  41692d:	je     0x416989
  41692f:	mov    DWORD PTR [edi],0xcccc
  416935:	add    edi,0x8
  416938:	jmp    0x416954
  41693a:	push   eax
  41693b:	call   0x40f011
  416940:	pop    ecx
  416941:	test   eax,eax
  416943:	je     0x41694e
  416945:	mov    DWORD PTR [eax],0xdddd
  41694b:	add    eax,0x8
  41694e:	mov    edi,eax
  416950:	jmp    0x416954
  416952:	xor    edi,edi
  416954:	test   edi,edi
  416956:	je     0x416989
  416958:	push   ebx
  416959:	push   edi
  41695a:	push   DWORD PTR [ebp+0x18]
  41695d:	push   DWORD PTR [ebp-0x1c]
  416960:	push   0x1
  416962:	push   DWORD PTR [ebp+0x1c]
  416965:	call   esi
  416967:	test   eax,eax
  416969:	je     0x416982
  41696b:	push   ebx
  41696c:	push   edi
  41696d:	push   DWORD PTR [ebp-0x2c]
  416970:	push   DWORD PTR [ebp-0x20]
  416973:	push   DWORD PTR [ebp+0xc]
  416976:	push   DWORD PTR [ebp+0x8]
  416979:	call   DWORD PTR ds:0x4192f4
  41697f:	mov    DWORD PTR [ebp-0x28],eax
  416982:	push   edi
  416983:	call   0x40f6cc
  416988:	pop    ecx
  416989:	push   DWORD PTR [ebp-0x20]
  41698c:	call   0x40f6cc
  416991:	mov    eax,DWORD PTR [ebp-0x28]
  416994:	pop    ecx
  416995:	jmp    0x416a4f
  41699a:	xor    edi,edi
  41699c:	xor    ebx,ebx
  41699e:	cmp    DWORD PTR [ebp+0x8],edi
  4169a1:	jne    0x4169ab
  4169a3:	mov    eax,DWORD PTR [esi]
  4169a5:	mov    eax,DWORD PTR [eax+0x14]
  4169a8:	mov    DWORD PTR [ebp+0x8],eax
  4169ab:	cmp    DWORD PTR [ebp+0x1c],edi
  4169ae:	jne    0x4169b8
  4169b0:	mov    eax,DWORD PTR [esi]
  4169b2:	mov    eax,DWORD PTR [eax+0x4]
  4169b5:	mov    DWORD PTR [ebp+0x1c],eax
  4169b8:	push   DWORD PTR [ebp+0x8]
  4169bb:	call   0x412e92
  4169c0:	mov    esi,eax
  4169c2:	pop    ecx
  4169c3:	cmp    esi,0xffffffff
  4169c6:	je     0x416786
  4169cc:	cmp    esi,DWORD PTR [ebp+0x1c]
  4169cf:	je     0x416a21
  4169d1:	push   0x0
  4169d3:	push   0x0
  4169d5:	lea    eax,[ebp+0x10]
  4169d8:	push   eax
  4169d9:	push   DWORD PTR [ebp-0x24]
  4169dc:	push   esi
  4169dd:	push   DWORD PTR [ebp+0x1c]
  4169e0:	call   0x412edb
  4169e5:	mov    ebx,eax
  4169e7:	add    esp,0x18
  4169ea:	test   ebx,ebx
  4169ec:	je     0x416786
  4169f2:	push   0x0
  4169f4:	push   0x0
  4169f6:	lea    eax,[ebp+0x18]
  4169f9:	push   eax
  4169fa:	push   DWORD PTR [ebp-0x1c]
  4169fd:	push   esi
  4169fe:	push   DWORD PTR [ebp+0x1c]
  416a01:	call   0x412edb
  416a06:	mov    edi,eax
  416a08:	add    esp,0x18
  416a0b:	test   edi,edi
  416a0d:	jne    0x416a1b
  416a0f:	push   ebx
  416a10:	call   0x40f63e
  416a15:	pop    ecx
  416a16:	jmp    0x416786
  416a1b:	mov    DWORD PTR [ebp-0x24],ebx
  416a1e:	mov    DWORD PTR [ebp-0x1c],edi
  416a21:	push   DWORD PTR [ebp+0x18]
  416a24:	push   DWORD PTR [ebp-0x1c]
  416a27:	push   DWORD PTR [ebp+0x10]
  416a2a:	push   DWORD PTR [ebp-0x24]
  416a2d:	push   DWORD PTR [ebp+0xc]
  416a30:	push   DWORD PTR [ebp+0x8]
  416a33:	call   DWORD PTR ds:0x419508
  416a39:	mov    esi,eax
  416a3b:	test   ebx,ebx
  416a3d:	je     0x416a4d
  416a3f:	push   ebx
  416a40:	call   0x40f63e
  416a45:	push   edi
  416a46:	call   0x40f63e
  416a4b:	pop    ecx
  416a4c:	pop    ecx
  416a4d:	mov    eax,esi
  416a4f:	lea    esp,[ebp-0x38]
  416a52:	pop    edi
  416a53:	pop    esi
  416a54:	pop    ebx
  416a55:	mov    ecx,DWORD PTR [ebp-0x4]
  416a58:	xor    ecx,ebp
  416a5a:	call   0x40efb3
  416a5f:	leave  
  416a60:	ret    
  416a61:	mov    edi,edi
  416a63:	push   ebp
  416a64:	mov    ebp,esp
  416a66:	sub    esp,0x10
  416a69:	push   DWORD PTR [ebp+0x8]
  416a6c:	lea    ecx,[ebp-0x10]
  416a6f:	call   0x4046f4
  416a74:	push   DWORD PTR [ebp+0x24]
  416a77:	mov    edx,DWORD PTR [ebp+0x14]
  416a7a:	push   DWORD PTR [ebp+0x20]
  416a7d:	lea    ecx,[ebp-0x10]
  416a80:	push   DWORD PTR [ebp+0x1c]
  416a83:	push   DWORD PTR [ebp+0x18]
  416a86:	push   DWORD PTR [ebp+0x10]
  416a89:	push   DWORD PTR [ebp+0xc]
  416a8c:	call   0x4166f1
  416a91:	add    esp,0x18
  416a94:	cmp    BYTE PTR [ebp-0x4],0x0
  416a98:	je     0x416aa1
  416a9a:	mov    ecx,DWORD PTR [ebp-0x8]
  416a9d:	and    DWORD PTR [ecx+0x70],0xfffffffd
  416aa1:	leave  
  416aa2:	ret    
  416aa3:	mov    edi,edi
  416aa5:	push   ebp
  416aa6:	mov    ebp,esp
  416aa8:	sub    esp,0x10
  416aab:	push   ebx
  416aac:	push   DWORD PTR [ebp+0x14]
  416aaf:	lea    ecx,[ebp-0x10]
  416ab2:	call   0x4046f4
  416ab7:	mov    edx,DWORD PTR [ebp+0x10]
  416aba:	xor    ebx,ebx
  416abc:	cmp    edx,ebx
  416abe:	jne    0x416ad3
  416ac0:	cmp    BYTE PTR [ebp-0x4],bl
  416ac3:	je     0x416acc
  416ac5:	mov    eax,DWORD PTR [ebp-0x8]
  416ac8:	and    DWORD PTR [eax+0x70],0xfffffffd
  416acc:	xor    eax,eax
  416ace:	jmp    0x416b9a
  416ad3:	cmp    DWORD PTR [ebp+0x8],ebx
  416ad6:	jne    0x416b06
  416ad8:	call   0x4087a4
  416add:	push   ebx
  416ade:	push   ebx
  416adf:	push   ebx
  416ae0:	push   ebx
  416ae1:	push   ebx
  416ae2:	mov    DWORD PTR [eax],0x16
  416ae8:	call   0x40873c
  416aed:	add    esp,0x14
  416af0:	cmp    BYTE PTR [ebp-0x4],bl
  416af3:	je     0x416afc
  416af5:	mov    eax,DWORD PTR [ebp-0x8]
  416af8:	and    DWORD PTR [eax+0x70],0xfffffffd
  416afc:	mov    eax,0x7fffffff
  416b01:	jmp    0x416b9a
  416b06:	cmp    DWORD PTR [ebp+0xc],ebx
  416b09:	je     0x416ad8
  416b0b:	push   esi
  416b0c:	mov    esi,0x7fffffff
  416b11:	cmp    edx,esi
  416b13:	jbe    0x416b2f
  416b15:	call   0x4087a4
  416b1a:	push   ebx
  416b1b:	push   ebx
  416b1c:	push   ebx
  416b1d:	push   ebx
  416b1e:	push   ebx
  416b1f:	mov    DWORD PTR [eax],0x16
  416b25:	call   0x40873c
  416b2a:	add    esp,0x14
  416b2d:	jmp    0x416b7a
  416b2f:	mov    eax,DWORD PTR [ebp-0x10]
  416b32:	mov    ecx,DWORD PTR [eax+0x10]
  416b35:	cmp    ecx,ebx
  416b37:	jne    0x416b4e
  416b39:	lea    eax,[ebp-0x10]
  416b3c:	push   eax
  416b3d:	push   edx
  416b3e:	push   DWORD PTR [ebp+0xc]
  416b41:	push   DWORD PTR [ebp+0x8]
  416b44:	call   0x4130bc
  416b49:	add    esp,0x10
  416b4c:	jmp    0x416b8d
  416b4e:	push   DWORD PTR [eax+0x8]
  416b51:	lea    eax,[ebp-0x10]
  416b54:	push   edx
  416b55:	push   DWORD PTR [ebp+0xc]
  416b58:	push   edx
  416b59:	push   DWORD PTR [ebp+0x8]
  416b5c:	push   0x1001
  416b61:	push   ecx
  416b62:	push   eax
  416b63:	call   0x416a61
  416b68:	add    esp,0x20
  416b6b:	cmp    eax,ebx
  416b6d:	jne    0x416b8a
  416b6f:	call   0x4087a4
  416b74:	mov    DWORD PTR [eax],0x16
  416b7a:	cmp    BYTE PTR [ebp-0x4],bl
  416b7d:	je     0x416b86
  416b7f:	mov    eax,DWORD PTR [ebp-0x8]
  416b82:	and    DWORD PTR [eax+0x70],0xfffffffd
  416b86:	mov    eax,esi
  416b88:	jmp    0x416b99
  416b8a:	add    eax,0xfffffffe
  416b8d:	cmp    BYTE PTR [ebp-0x4],bl
  416b90:	je     0x416b99
  416b92:	mov    ecx,DWORD PTR [ebp-0x8]
  416b95:	and    DWORD PTR [ecx+0x70],0xfffffffd
  416b99:	pop    esi
  416b9a:	pop    ebx
  416b9b:	leave  
  416b9c:	ret    
  416b9d:	mov    edi,edi
  416b9f:	push   ebp
  416ba0:	mov    ebp,esp
  416ba2:	push   esi
  416ba3:	mov    esi,DWORD PTR ds:0x43c0f8
  416ba9:	jmp    0x416bcc
  416bab:	push   edi
  416bac:	push   eax
  416bad:	push   DWORD PTR [ebp+0x8]
  416bb0:	call   0x415d53
  416bb5:	add    esp,0xc
  416bb8:	test   eax,eax
  416bba:	jne    0x416bc9
  416bbc:	mov    eax,DWORD PTR [esi]
  416bbe:	mov    al,BYTE PTR [edi+eax*1]
  416bc1:	cmp    al,0x3d
  416bc3:	je     0x416be2
  416bc5:	test   al,al
  416bc7:	je     0x416be2
  416bc9:	add    esi,0x4
  416bcc:	mov    eax,DWORD PTR [esi]
  416bce:	test   eax,eax
  416bd0:	jne    0x416bab
  416bd2:	mov    eax,esi
  416bd4:	sub    eax,DWORD PTR ds:0x43c0f8
  416bda:	sar    eax,0x2
  416bdd:	neg    eax
  416bdf:	pop    esi
  416be0:	pop    ebp
  416be1:	ret    
  416be2:	mov    eax,esi
  416be4:	sub    eax,DWORD PTR ds:0x43c0f8
  416bea:	sar    eax,0x2
  416bed:	jmp    0x416bdf
  416bef:	mov    edi,edi
  416bf1:	push   ebp
  416bf2:	mov    ebp,esp
  416bf4:	push   ecx
  416bf5:	push   edi
  416bf6:	mov    edi,eax
  416bf8:	xor    eax,eax
  416bfa:	mov    ecx,edi
  416bfc:	test   edi,edi
  416bfe:	je     0x416c46
  416c00:	cmp    DWORD PTR [edi],eax
  416c02:	je     0x416c0d
  416c04:	add    ecx,0x4
  416c07:	inc    eax
  416c08:	cmp    DWORD PTR [ecx],0x0
  416c0b:	jne    0x416c04
  416c0d:	push   esi
  416c0e:	inc    eax
  416c0f:	push   0x4
  416c11:	push   eax
  416c12:	call   0x408832
  416c17:	mov    esi,eax
  416c19:	pop    ecx
  416c1a:	pop    ecx
  416c1b:	mov    DWORD PTR [ebp-0x4],esi
  416c1e:	test   esi,esi
  416c20:	jne    0x416c3a
  416c22:	push   0x9
  416c24:	call   0x40cf78
  416c29:	jmp    0x416c39
  416c2b:	push   eax
  416c2c:	call   0x416ee0
  416c31:	mov    DWORD PTR [esi],eax
  416c33:	add    esi,0x4
  416c36:	add    edi,0x4
  416c39:	pop    ecx
  416c3a:	mov    eax,DWORD PTR [edi]
  416c3c:	test   eax,eax
  416c3e:	jne    0x416c2b
  416c40:	and    DWORD PTR [esi],eax
  416c42:	mov    eax,DWORD PTR [ebp-0x4]
  416c45:	pop    esi
  416c46:	pop    edi
  416c47:	leave  
  416c48:	ret    
  416c49:	mov    edi,edi
  416c4b:	push   ebp
  416c4c:	mov    ebp,esp
  416c4e:	sub    esp,0x14
  416c51:	mov    eax,DWORD PTR [ebp+0x8]
  416c54:	push   ebx
  416c55:	xor    ebx,ebx
  416c57:	mov    DWORD PTR [ebp-0xc],ebx
  416c5a:	cmp    eax,ebx
  416c5c:	jne    0x416c7b
  416c5e:	call   0x4087a4
  416c63:	push   ebx
  416c64:	push   ebx
  416c65:	push   ebx
  416c66:	push   ebx
  416c67:	push   ebx
  416c68:	mov    DWORD PTR [eax],0x16
  416c6e:	call   0x40873c
  416c73:	add    esp,0x14
  416c76:	or     eax,0xffffffff
  416c79:	jmp    0x416ce9
  416c7b:	push   esi
  416c7c:	mov    esi,DWORD PTR [eax]
  416c7e:	push   edi
  416c7f:	mov    DWORD PTR [ebp-0x4],esi
  416c82:	cmp    esi,ebx
  416c84:	je     0x416cd9
  416c86:	push   0x3d
  416c88:	push   esi
  416c89:	call   0x416ff1
  416c8e:	mov    edi,eax
  416c90:	pop    ecx
  416c91:	pop    ecx
  416c92:	mov    DWORD PTR [ebp-0x14],edi
  416c95:	cmp    edi,ebx
  416c97:	je     0x416cd9
  416c99:	cmp    esi,edi
  416c9b:	je     0x416cd9
  416c9d:	xor    eax,eax
  416c9f:	cmp    BYTE PTR [edi+0x1],bl
  416ca2:	sete   al
  416ca5:	mov    DWORD PTR [ebp-0x8],eax
  416ca8:	mov    eax,ds:0x43c0f8
  416cad:	cmp    eax,DWORD PTR ds:0x43c0fc
  416cb3:	jne    0x416cbf
  416cb5:	call   0x416bef
  416cba:	mov    ds:0x43c0f8,eax
  416cbf:	cmp    eax,ebx
  416cc1:	jne    0x416d23
  416cc3:	cmp    DWORD PTR [ebp+0xc],ebx
  416cc6:	je     0x416cec
  416cc8:	cmp    DWORD PTR ds:0x43c100,ebx
  416cce:	je     0x416cec
  416cd0:	call   0x415d6d
  416cd5:	test   eax,eax
  416cd7:	je     0x416d23
  416cd9:	call   0x4087a4
  416cde:	mov    DWORD PTR [eax],0x16
  416ce4:	or     eax,0xffffffff
  416ce7:	pop    edi
  416ce8:	pop    esi
  416ce9:	pop    ebx
  416cea:	leave  
  416ceb:	ret    
  416cec:	cmp    DWORD PTR [ebp-0x8],ebx
  416cef:	jne    0x416e8d
  416cf5:	push   0x4
  416cf7:	call   0x4087ed
  416cfc:	pop    ecx
  416cfd:	mov    ds:0x43c0f8,eax
  416d02:	cmp    eax,ebx
  416d04:	je     0x416ce4
  416d06:	mov    DWORD PTR [eax],ebx
  416d08:	cmp    DWORD PTR ds:0x43c100,ebx
  416d0e:	jne    0x416d23
  416d10:	push   0x4
  416d12:	call   0x4087ed
  416d17:	pop    ecx
  416d18:	mov    ds:0x43c100,eax
  416d1d:	cmp    eax,ebx
  416d1f:	je     0x416ce4
  416d21:	mov    DWORD PTR [eax],ebx
  416d23:	mov    esi,DWORD PTR ds:0x43c0f8
  416d29:	mov    DWORD PTR [ebp-0x10],esi
  416d2c:	cmp    esi,ebx
  416d2e:	je     0x416ce4
  416d30:	sub    edi,DWORD PTR [ebp-0x4]
  416d33:	push   DWORD PTR [ebp-0x4]
  416d36:	call   0x416b9d
  416d3b:	mov    edi,eax
  416d3d:	cmp    edi,ebx
  416d3f:	pop    ecx
  416d40:	jl     0x416d94
  416d42:	cmp    DWORD PTR [esi],ebx
  416d44:	je     0x416d94
  416d46:	lea    esi,[esi+edi*4]
  416d49:	push   DWORD PTR [esi]
  416d4b:	call   0x40f63e
  416d50:	pop    ecx
  416d51:	cmp    DWORD PTR [ebp-0x8],ebx
  416d54:	jne    0x416d71
  416d56:	mov    eax,DWORD PTR [ebp-0x4]
  416d59:	mov    DWORD PTR [esi],eax
  416d5b:	mov    eax,DWORD PTR [ebp+0x8]
  416d5e:	mov    DWORD PTR [eax],ebx
  416d60:	jmp    0x416de7
  416d65:	mov    eax,DWORD PTR [esi+0x4]
  416d68:	mov    DWORD PTR [esi],eax
  416d6a:	mov    eax,DWORD PTR [ebp-0x10]
  416d6d:	inc    edi
  416d6e:	lea    esi,[eax+edi*4]
  416d71:	cmp    DWORD PTR [esi],ebx
  416d73:	jne    0x416d65
  416d75:	cmp    edi,0x3fffffff
  416d7b:	jae    0x416de7
  416d7d:	push   0x4
  416d7f:	push   edi
  416d80:	push   DWORD PTR ds:0x43c0f8
  416d86:	call   0x4088cc
  416d8b:	add    esp,0xc
  416d8e:	cmp    eax,ebx
  416d90:	je     0x416de7
  416d92:	jmp    0x416de2
  416d94:	cmp    DWORD PTR [ebp-0x8],ebx
  416d97:	jne    0x416e7f
  416d9d:	cmp    edi,ebx
  416d9f:	jge    0x416da3
  416da1:	neg    edi
  416da3:	lea    eax,[edi+0x2]
  416da6:	cmp    eax,edi
  416da8:	jl     0x416ce4
  416dae:	cmp    eax,0x3fffffff
  416db3:	jae    0x416ce4
  416db9:	push   eax
  416dba:	push   0x4
  416dbc:	push   DWORD PTR ds:0x43c0f8
  416dc2:	call   0x4088cc
  416dc7:	add    esp,0xc
  416dca:	cmp    eax,ebx
  416dcc:	je     0x416ce4
  416dd2:	mov    edx,DWORD PTR [ebp-0x4]
  416dd5:	lea    ecx,[eax+edi*4]
  416dd8:	mov    DWORD PTR [ecx],edx
  416dda:	mov    DWORD PTR [ecx+0x4],ebx
  416ddd:	mov    ecx,DWORD PTR [ebp+0x8]
  416de0:	mov    DWORD PTR [ecx],ebx
  416de2:	mov    ds:0x43c0f8,eax
  416de7:	cmp    DWORD PTR [ebp+0xc],ebx
  416dea:	je     0x416e64
  416dec:	mov    esi,DWORD PTR [ebp-0x4]
  416def:	push   0x1
  416df1:	push   esi
  416df2:	call   0x40ef20
  416df7:	inc    eax
  416df8:	pop    ecx
  416df9:	inc    eax
  416dfa:	push   eax
  416dfb:	call   0x408832
  416e00:	mov    edi,eax
  416e02:	pop    ecx
  416e03:	pop    ecx
  416e04:	cmp    edi,ebx
  416e06:	je     0x416e64
  416e08:	push   esi
  416e09:	push   esi
  416e0a:	call   0x40ef20
  416e0f:	inc    eax
  416e10:	pop    ecx
  416e11:	inc    eax
  416e12:	push   eax
  416e13:	push   edi
  416e14:	call   0x40eeb7
  416e19:	add    esp,0xc
  416e1c:	test   eax,eax
  416e1e:	je     0x416e2d
  416e20:	push   ebx
  416e21:	push   ebx
  416e22:	push   ebx
  416e23:	push   ebx
  416e24:	push   ebx
  416e25:	call   0x408614
  416e2a:	add    esp,0x14
  416e2d:	mov    ecx,DWORD PTR [ebp-0x8]
  416e30:	mov    eax,edi
  416e32:	sub    eax,esi
  416e34:	add    eax,DWORD PTR [ebp-0x14]
  416e37:	mov    BYTE PTR [eax],bl
  416e39:	inc    eax
  416e3a:	neg    ecx
  416e3c:	sbb    ecx,ecx
  416e3e:	not    ecx
  416e40:	and    ecx,eax
  416e42:	push   ecx
  416e43:	push   edi
  416e44:	call   DWORD PTR ds:0x41950c
  416e4a:	test   eax,eax
  416e4c:	jne    0x416e5d
  416e4e:	or     DWORD PTR [ebp-0xc],0xffffffff
  416e52:	call   0x4087a4
  416e57:	mov    DWORD PTR [eax],0x2a
  416e5d:	push   edi
  416e5e:	call   0x40f63e
  416e63:	pop    ecx
  416e64:	cmp    DWORD PTR [ebp-0x8],ebx
  416e67:	je     0x416e77
  416e69:	push   DWORD PTR [ebp-0x4]
  416e6c:	call   0x40f63e
  416e71:	mov    eax,DWORD PTR [ebp+0x8]
  416e74:	pop    ecx
  416e75:	mov    DWORD PTR [eax],ebx
  416e77:	mov    eax,DWORD PTR [ebp-0xc]
  416e7a:	jmp    0x416ce7
  416e7f:	push   DWORD PTR [ebp-0x4]
  416e82:	call   0x40f63e
  416e87:	mov    eax,DWORD PTR [ebp+0x8]
  416e8a:	pop    ecx
  416e8b:	mov    DWORD PTR [eax],ebx
  416e8d:	xor    eax,eax
  416e8f:	jmp    0x416ce7
  416e94:	xor    eax,eax
  416e96:	push   eax
  416e97:	push   eax
  416e98:	push   0x3
  416e9a:	push   eax
  416e9b:	push   0x3
  416e9d:	push   0x40000000
  416ea2:	push   0x41ed34
  416ea7:	call   DWORD PTR ds:0x419510
  416ead:	mov    ds:0x4246c8,eax
  416eb2:	ret    
  416eb3:	mov    eax,ds:0x4246c8
  416eb8:	push   esi
  416eb9:	mov    esi,DWORD PTR ds:0x4192b8
  416ebf:	cmp    eax,0xffffffff
  416ec2:	je     0x416ecc
  416ec4:	cmp    eax,0xfffffffe
  416ec7:	je     0x416ecc
  416ec9:	push   eax
  416eca:	call   esi
  416ecc:	mov    eax,ds:0x4246c4
  416ed1:	cmp    eax,0xffffffff
  416ed4:	je     0x416ede
  416ed6:	cmp    eax,0xfffffffe
  416ed9:	je     0x416ede
  416edb:	push   eax
  416edc:	call   esi
  416ede:	pop    esi
  416edf:	ret    
  416ee0:	mov    edi,edi
  416ee2:	push   ebp
  416ee3:	mov    ebp,esp
  416ee5:	push   ebx
  416ee6:	xor    ebx,ebx
  416ee8:	cmp    DWORD PTR [ebp+0x8],ebx
  416eeb:	jne    0x416ef1
  416eed:	xor    eax,eax
  416eef:	jmp    0x416f32
  416ef1:	push   esi
  416ef2:	push   edi
  416ef3:	push   DWORD PTR [ebp+0x8]
  416ef6:	call   0x40ef20
  416efb:	mov    esi,eax
  416efd:	inc    esi
  416efe:	push   esi
  416eff:	call   0x40f011
  416f04:	mov    edi,eax
  416f06:	pop    ecx
  416f07:	pop    ecx
  416f08:	cmp    edi,ebx
  416f0a:	je     0x416f2e
  416f0c:	push   DWORD PTR [ebp+0x8]
  416f0f:	push   esi
  416f10:	push   edi
  416f11:	call   0x40eeb7
  416f16:	add    esp,0xc
  416f19:	test   eax,eax
  416f1b:	je     0x416f2a
  416f1d:	push   ebx
  416f1e:	push   ebx
  416f1f:	push   ebx
  416f20:	push   ebx
  416f21:	push   ebx
  416f22:	call   0x408614
  416f27:	add    esp,0x14
  416f2a:	mov    eax,edi
  416f2c:	jmp    0x416f30
  416f2e:	xor    eax,eax
  416f30:	pop    edi
  416f31:	pop    esi
  416f32:	pop    ebx
  416f33:	pop    ebp
  416f34:	ret    
  416f35:	mov    edi,edi
  416f37:	push   ebp
  416f38:	mov    ebp,esp
  416f3a:	sub    esp,0x10
  416f3d:	push   ebx
  416f3e:	push   DWORD PTR [ebp+0x10]
  416f41:	lea    ecx,[ebp-0x10]
  416f44:	call   0x4046f4
  416f49:	mov    eax,DWORD PTR [ebp+0x8]
  416f4c:	xor    ebx,ebx
  416f4e:	cmp    eax,ebx
  416f50:	jne    0x416f7a
  416f52:	call   0x4087a4
  416f57:	push   ebx
  416f58:	push   ebx
  416f59:	push   ebx
  416f5a:	push   ebx
  416f5b:	push   ebx
  416f5c:	mov    DWORD PTR [eax],0x16
  416f62:	call   0x40873c
  416f67:	add    esp,0x14
  416f6a:	cmp    BYTE PTR [ebp-0x4],bl
  416f6d:	je     0x416f76
  416f6f:	mov    eax,DWORD PTR [ebp-0x8]
  416f72:	and    DWORD PTR [eax+0x70],0xfffffffd
  416f76:	xor    eax,eax
  416f78:	jmp    0x416fee
  416f7a:	push   esi
  416f7b:	mov    esi,DWORD PTR [ebp-0xc]
  416f7e:	cmp    DWORD PTR [esi+0x8],ebx
  416f81:	jne    0x416fbd
  416f83:	push   DWORD PTR [ebp+0xc]
  416f86:	push   eax
  416f87:	call   0x417020
  416f8c:	pop    ecx
  416f8d:	pop    ecx
  416f8e:	jmp    0x416fd1
  416f90:	movzx  edx,cl
  416f93:	test   BYTE PTR [edx+esi*1+0x1d],0x4
  416f98:	je     0x416fb4
  416f9a:	inc    eax
  416f9b:	mov    dl,BYTE PTR [eax]
  416f9d:	cmp    dl,bl
  416f9f:	je     0x416fdf
  416fa1:	movzx  ecx,cx
  416fa4:	movzx  edx,dl
  416fa7:	shl    ecx,0x8
  416faa:	or     ecx,edx
  416fac:	cmp    DWORD PTR [ebp+0xc],ecx
  416faf:	jne    0x416fbc
  416fb1:	dec    eax
  416fb2:	jmp    0x416fd1
  416fb4:	movzx  edx,cx
  416fb7:	cmp    DWORD PTR [ebp+0xc],edx
  416fba:	je     0x416fc9
  416fbc:	inc    eax
  416fbd:	movzx  cx,BYTE PTR [eax]
  416fc1:	movzx  ecx,cx
  416fc4:	cmp    cx,bx
  416fc7:	jne    0x416f90
  416fc9:	movzx  ecx,cx
  416fcc:	cmp    DWORD PTR [ebp+0xc],ecx
  416fcf:	jne    0x416fdf
  416fd1:	cmp    BYTE PTR [ebp-0x4],bl
  416fd4:	je     0x416fed
  416fd6:	mov    ecx,DWORD PTR [ebp-0x8]
  416fd9:	and    DWORD PTR [ecx+0x70],0xfffffffd
  416fdd:	jmp    0x416fed
  416fdf:	cmp    BYTE PTR [ebp-0x4],bl
  416fe2:	je     0x416feb
  416fe4:	mov    eax,DWORD PTR [ebp-0x8]
  416fe7:	and    DWORD PTR [eax+0x70],0xfffffffd
  416feb:	xor    eax,eax
  416fed:	pop    esi
  416fee:	pop    ebx
  416fef:	leave  
  416ff0:	ret    
  416ff1:	mov    edi,edi
  416ff3:	push   ebp
  416ff4:	mov    ebp,esp
  416ff6:	push   0x0
  416ff8:	push   DWORD PTR [ebp+0xc]
  416ffb:	push   DWORD PTR [ebp+0x8]
  416ffe:	call   0x416f35
  417003:	add    esp,0xc
  417006:	pop    ebp
  417007:	ret    
  417008:	int3   
  417009:	int3   
  41700a:	int3   
  41700b:	int3   
  41700c:	int3   
  41700d:	int3   
  41700e:	int3   
  41700f:	int3   
  417010:	lea    eax,[edx-0x1]
  417013:	pop    ebx
  417014:	ret    
  417015:	lea    esp,[esp+0x0]
  41701c:	lea    esp,[esp+0x0]
  417020:	xor    eax,eax
  417022:	mov    al,BYTE PTR [esp+0x8]
  417026:	push   ebx
  417027:	mov    ebx,eax
  417029:	shl    eax,0x8
  41702c:	mov    edx,DWORD PTR [esp+0x8]
  417030:	test   edx,0x3
  417036:	je     0x41704d
  417038:	mov    cl,BYTE PTR [edx]
  41703a:	add    edx,0x1
  41703d:	cmp    cl,bl
  41703f:	je     0x417010
  417041:	test   cl,cl
  417043:	je     0x417096
  417045:	test   edx,0x3
  41704b:	jne    0x417038
  41704d:	or     ebx,eax
  41704f:	push   edi
  417050:	mov    eax,ebx
  417052:	shl    ebx,0x10
  417055:	push   esi
  417056:	or     ebx,eax
  417058:	mov    ecx,DWORD PTR [edx]
  41705a:	mov    edi,0x7efefeff
  41705f:	mov    eax,ecx
  417061:	mov    esi,edi
  417063:	xor    ecx,ebx
  417065:	add    esi,eax
  417067:	add    edi,ecx
  417069:	xor    ecx,0xffffffff
  41706c:	xor    eax,0xffffffff
  41706f:	xor    ecx,edi
  417071:	xor    eax,esi
  417073:	add    edx,0x4
  417076:	and    ecx,0x81010100
  41707c:	jne    0x41709a
  41707e:	and    eax,0x81010100
  417083:	je     0x417058
  417085:	and    eax,0x1010100
  41708a:	jne    0x417094
  41708c:	and    esi,0x80000000
  417092:	jne    0x417058
  417094:	pop    esi
  417095:	pop    edi
  417096:	pop    ebx
  417097:	xor    eax,eax
  417099:	ret    
  41709a:	mov    eax,DWORD PTR [edx-0x4]
  41709d:	cmp    al,bl
  41709f:	je     0x4170d7
  4170a1:	test   al,al
  4170a3:	je     0x417094
  4170a5:	cmp    ah,bl
  4170a7:	je     0x4170d0
  4170a9:	test   ah,ah
  4170ab:	je     0x417094
  4170ad:	shr    eax,0x10
  4170b0:	cmp    al,bl
  4170b2:	je     0x4170c9
  4170b4:	test   al,al
  4170b6:	je     0x417094
  4170b8:	cmp    ah,bl
  4170ba:	je     0x4170c2
  4170bc:	test   ah,ah
  4170be:	je     0x417094
  4170c0:	jmp    0x417058
  4170c2:	pop    esi
  4170c3:	pop    edi
  4170c4:	lea    eax,[edx-0x1]
  4170c7:	pop    ebx
  4170c8:	ret    
  4170c9:	lea    eax,[edx-0x2]
  4170cc:	pop    esi
  4170cd:	pop    edi
  4170ce:	pop    ebx
  4170cf:	ret    
  4170d0:	lea    eax,[edx-0x3]
  4170d3:	pop    esi
  4170d4:	pop    edi
  4170d5:	pop    ebx
  4170d6:	ret    
  4170d7:	lea    eax,[edx-0x4]
  4170da:	pop    esi
  4170db:	pop    edi
  4170dc:	pop    ebx
  4170dd:	ret    
  4170de:	jmp    DWORD PTR ds:0x419284
  4170e4:	jmp    DWORD PTR ds:0x4193c0
  4170ea:	int3   
  4170eb:	int3   
  4170ec:	int3   
  4170ed:	int3   
  4170ee:	int3   
  4170ef:	int3   
  4170f0:	push   ebp
  4170f1:	mov    ebp,esp
  4170f3:	mov    eax,ds:0x4192bc
  4170f8:	mov    ds:0x43babc,eax
  4170fd:	mov    ecx,DWORD PTR ds:0x4192c0
  417103:	mov    DWORD PTR ds:0x43bac0,ecx
  417109:	mov    edx,DWORD PTR ds:0x4192c4
  41710f:	mov    DWORD PTR ds:0x43bac4,edx
  417115:	mov    eax,ds:0x4192c8
  41711a:	mov    ds:0x43bac8,eax
  41711f:	mov    ecx,DWORD PTR ds:0x4192cc
  417125:	mov    DWORD PTR ds:0x43bacc,ecx
  41712b:	mov    edx,DWORD PTR ds:0x4192d0
  417131:	mov    DWORD PTR ds:0x43bad0,edx
  417137:	pop    ebp
  417138:	ret    
  417139:	int3   
  41713a:	int3   
  41713b:	int3   
  41713c:	int3   
  41713d:	int3   
  41713e:	int3   
  41713f:	int3   
  417140:	push   ebp
  417141:	mov    ebp,esp
  417143:	mov    eax,ds:0x419034
  417148:	mov    ds:0x43bc1c,eax
  41714d:	mov    ecx,DWORD PTR ds:0x419038
  417153:	mov    DWORD PTR ds:0x43bc20,ecx
  417159:	mov    edx,DWORD PTR ds:0x41903c
  41715f:	mov    DWORD PTR ds:0x43bc24,edx
  417165:	pop    ebp
  417166:	ret    
  417167:	int3   
  417168:	int3   
  417169:	int3   
  41716a:	int3   
  41716b:	int3   
  41716c:	int3   
  41716d:	int3   
  41716e:	int3   
  41716f:	int3   
  417170:	push   ebp
  417171:	mov    ebp,esp
  417173:	mov    eax,ds:0x419558
  417178:	mov    ds:0x43b730,eax
  41717d:	mov    ecx,DWORD PTR ds:0x41955c
  417183:	mov    DWORD PTR ds:0x43b734,ecx
  417189:	mov    edx,DWORD PTR ds:0x4196c8
  41718f:	mov    DWORD PTR ds:0x43b738,edx
  417195:	pop    ebp
  417196:	ret    
  417197:	int3   
  417198:	int3   
  417199:	int3   
  41719a:	int3   
  41719b:	int3   
  41719c:	int3   
  41719d:	int3   
  41719e:	int3   
  41719f:	int3   
  4171a0:	push   ebp
  4171a1:	mov    ebp,esp
  4171a3:	mov    eax,ds:0x419318
  4171a8:	mov    ds:0x43bb70,eax
  4171ad:	mov    ecx,DWORD PTR ds:0x419314
  4171b3:	mov    DWORD PTR ds:0x43bb74,ecx
  4171b9:	mov    edx,DWORD PTR ds:0x419310
  4171bf:	mov    DWORD PTR ds:0x43bb78,edx
  4171c5:	mov    eax,ds:0x41930c
  4171ca:	mov    ds:0x43bb7c,eax
  4171cf:	mov    ecx,DWORD PTR ds:0x419308
  4171d5:	mov    DWORD PTR ds:0x43bb80,ecx
  4171db:	mov    edx,DWORD PTR ds:0x419304
  4171e1:	mov    DWORD PTR ds:0x43bb84,edx
  4171e7:	mov    eax,ds:0x419300
  4171ec:	mov    ds:0x43bb88,eax
  4171f1:	mov    ecx,DWORD PTR ds:0x4192fc
  4171f7:	mov    DWORD PTR ds:0x43bb8c,ecx
  4171fd:	mov    edx,DWORD PTR ds:0x4192f8
  417203:	mov    DWORD PTR ds:0x43bb90,edx
  417209:	mov    eax,ds:0x4192f4
  41720e:	mov    ds:0x43bb94,eax
  417213:	mov    ecx,DWORD PTR ds:0x4192f0
  417219:	mov    DWORD PTR ds:0x43bb98,ecx
  41721f:	mov    edx,DWORD PTR ds:0x4192ec
  417225:	mov    DWORD PTR ds:0x43bb9c,edx
  41722b:	mov    eax,ds:0x4192e8
  417230:	mov    ds:0x43bba0,eax
  417235:	mov    ecx,DWORD PTR ds:0x4192e4
  41723b:	mov    DWORD PTR ds:0x43bba4,ecx
  417241:	mov    edx,DWORD PTR ds:0x4192e0
  417247:	mov    DWORD PTR ds:0x43bba8,edx
  41724d:	mov    eax,ds:0x4192dc
  417252:	mov    ds:0x43bbac,eax
  417257:	mov    ecx,DWORD PTR ds:0x4192d8
  41725d:	mov    DWORD PTR ds:0x43bbb0,ecx
  417263:	mov    edx,DWORD PTR ds:0x4192d4
  417269:	mov    DWORD PTR ds:0x43bbb4,edx
  41726f:	mov    eax,ds:0x41929c
  417274:	mov    ds:0x43bbb8,eax
  417279:	mov    ecx,DWORD PTR ds:0x419264
  41727f:	mov    DWORD PTR ds:0x43bbbc,ecx
  417285:	mov    edx,DWORD PTR ds:0x419268
  41728b:	mov    DWORD PTR ds:0x43bbc0,edx
  417291:	mov    eax,ds:0x41926c
  417296:	mov    ds:0x43bbc4,eax
  41729b:	mov    ecx,DWORD PTR ds:0x419270
  4172a1:	mov    DWORD PTR ds:0x43bbc8,ecx
  4172a7:	mov    edx,DWORD PTR ds:0x419274
  4172ad:	mov    DWORD PTR ds:0x43bbcc,edx
  4172b3:	mov    eax,ds:0x419278
  4172b8:	mov    ds:0x43bbd0,eax
  4172bd:	mov    ecx,DWORD PTR ds:0x41927c
  4172c3:	mov    DWORD PTR ds:0x43bbd4,ecx
  4172c9:	mov    edx,DWORD PTR ds:0x419280
  4172cf:	mov    DWORD PTR ds:0x43bbd8,edx
  4172d5:	mov    eax,ds:0x419284
  4172da:	mov    ds:0x43bbdc,eax
  4172df:	mov    ecx,DWORD PTR ds:0x4192c0
  4172e5:	mov    DWORD PTR ds:0x43bbe0,ecx
  4172eb:	mov    edx,DWORD PTR ds:0x419288
  4172f1:	mov    DWORD PTR ds:0x43bbe4,edx
  4172f7:	mov    eax,ds:0x41928c
  4172fc:	mov    ds:0x43bbe8,eax
  417301:	mov    ecx,DWORD PTR ds:0x419290
  417307:	mov    DWORD PTR ds:0x43bbec,ecx
  41730d:	mov    edx,DWORD PTR ds:0x419294
  417313:	mov    DWORD PTR ds:0x43bbf0,edx
  417319:	mov    eax,ds:0x419298
  41731e:	mov    ds:0x43bbf4,eax
  417323:	mov    ecx,DWORD PTR ds:0x419514
  417329:	mov    DWORD PTR ds:0x43bbf8,ecx
  41732f:	mov    edx,DWORD PTR ds:0x4192bc
  417335:	mov    DWORD PTR ds:0x43bbfc,edx
  41733b:	mov    eax,ds:0x4192a0
  417340:	mov    ds:0x43bc00,eax
  417345:	mov    ecx,DWORD PTR ds:0x4192a4
  41734b:	mov    DWORD PTR ds:0x43bc04,ecx
  417351:	mov    edx,DWORD PTR ds:0x4192a8
  417357:	mov    DWORD PTR ds:0x43bc08,edx
  41735d:	mov    eax,ds:0x4192ac
  417362:	mov    ds:0x43bc0c,eax
  417367:	mov    ecx,DWORD PTR ds:0x4192b0
  41736d:	mov    DWORD PTR ds:0x43bc10,ecx
  417373:	mov    edx,DWORD PTR ds:0x4192b4
  417379:	mov    DWORD PTR ds:0x43bc14,edx
  41737f:	mov    eax,ds:0x4192b8
  417384:	mov    ds:0x43bc18,eax
  417389:	pop    ebp
  41738a:	ret    
  41738b:	int3   
  41738c:	int3   
  41738d:	int3   
  41738e:	int3   
  41738f:	int3   
  417390:	push   ebp
  417391:	mov    ebp,esp
  417393:	mov    eax,ds:0x419268
  417398:	mov    ds:0x43befc,eax
  41739d:	mov    ecx,DWORD PTR ds:0x4192c0
  4173a3:	mov    DWORD PTR ds:0x43bf00,ecx
  4173a9:	mov    edx,DWORD PTR ds:0x41932c
  4173af:	mov    DWORD PTR ds:0x43bf04,edx
  4173b5:	mov    eax,ds:0x41927c
  4173ba:	mov    ds:0x43bf08,eax
  4173bf:	mov    ecx,DWORD PTR ds:0x419328
  4173c5:	mov    DWORD PTR ds:0x43bf0c,ecx
  4173cb:	mov    edx,DWORD PTR ds:0x419324
  4173d1:	mov    DWORD PTR ds:0x43bf10,edx
  4173d7:	mov    eax,ds:0x419320
  4173dc:	mov    ds:0x43bf14,eax
  4173e1:	mov    ecx,DWORD PTR ds:0x41931c
  4173e7:	mov    DWORD PTR ds:0x43bf18,ecx
  4173ed:	mov    edx,DWORD PTR ds:0x41926c
  4173f3:	mov    DWORD PTR ds:0x43bf1c,edx
  4173f9:	mov    eax,ds:0x419278
  4173fe:	mov    ds:0x43bf20,eax
  417403:	pop    ebp
  417404:	ret    
  417405:	int3   
  417406:	int3   
  417407:	int3   
  417408:	int3   
  417409:	int3   
  41740a:	int3   
  41740b:	int3   
  41740c:	int3   
  41740d:	int3   
  41740e:	int3   
  41740f:	int3   
  417410:	push   ebp
  417411:	mov    ebp,esp
  417413:	mov    eax,ds:0x419578
  417418:	mov    ds:0x43bc28,eax
  41741d:	mov    ecx,DWORD PTR ds:0x4195a4
  417423:	mov    DWORD PTR ds:0x43bc2c,ecx
  417429:	mov    edx,DWORD PTR ds:0x4195a8
  41742f:	mov    DWORD PTR ds:0x43bc30,edx
  417435:	mov    eax,ds:0x4195ac
  41743a:	mov    ds:0x43bc34,eax
  41743f:	mov    ecx,DWORD PTR ds:0x4195b0
  417445:	mov    DWORD PTR ds:0x43bc38,ecx
  41744b:	mov    edx,DWORD PTR ds:0x4195b4
  417451:	mov    DWORD PTR ds:0x43bc3c,edx
  417457:	mov    eax,ds:0x4195b8
  41745c:	mov    ds:0x43bc40,eax
  417461:	mov    ecx,DWORD PTR ds:0x4195bc
  417467:	mov    DWORD PTR ds:0x43bc44,ecx
  41746d:	mov    edx,DWORD PTR ds:0x4195c0
  417473:	mov    DWORD PTR ds:0x43bc48,edx
  417479:	mov    eax,ds:0x4195c4
  41747e:	mov    ds:0x43bc4c,eax
  417483:	mov    ecx,DWORD PTR ds:0x4195c8
  417489:	mov    DWORD PTR ds:0x43bc50,ecx
  41748f:	mov    edx,DWORD PTR ds:0x4195cc
  417495:	mov    DWORD PTR ds:0x43bc54,edx
  41749b:	mov    eax,ds:0x4195d0
  4174a0:	mov    ds:0x43bc58,eax
  4174a5:	mov    ecx,DWORD PTR ds:0x4195d4
  4174ab:	mov    DWORD PTR ds:0x43bc5c,ecx
  4174b1:	mov    edx,DWORD PTR ds:0x4195d8
  4174b7:	mov    DWORD PTR ds:0x43bc60,edx
  4174bd:	mov    eax,ds:0x4195dc
  4174c2:	mov    ds:0x43bc64,eax
  4174c7:	mov    ecx,DWORD PTR ds:0x4195e0
  4174cd:	mov    DWORD PTR ds:0x43bc68,ecx
  4174d3:	mov    edx,DWORD PTR ds:0x4195e4
  4174d9:	mov    DWORD PTR ds:0x43bc6c,edx
  4174df:	mov    eax,ds:0x4195e8
  4174e4:	mov    ds:0x43bc70,eax
  4174e9:	mov    ecx,DWORD PTR ds:0x4195ec
  4174ef:	mov    DWORD PTR ds:0x43bc74,ecx
  4174f5:	mov    edx,DWORD PTR ds:0x4195f0
  4174fb:	mov    DWORD PTR ds:0x43bc78,edx
  417501:	mov    eax,ds:0x4195f4
  417506:	mov    ds:0x43bc7c,eax
  41750b:	mov    ecx,DWORD PTR ds:0x4195f8
  417511:	mov    DWORD PTR ds:0x43bc80,ecx
  417517:	mov    edx,DWORD PTR ds:0x4195fc
  41751d:	mov    DWORD PTR ds:0x43bc84,edx
  417523:	mov    eax,ds:0x419600
  417528:	mov    ds:0x43bc88,eax
  41752d:	mov    ecx,DWORD PTR ds:0x419604
  417533:	mov    DWORD PTR ds:0x43bc8c,ecx
  417539:	mov    edx,DWORD PTR ds:0x419608
  41753f:	mov    DWORD PTR ds:0x43bc90,edx
  417545:	mov    eax,ds:0x41960c
  41754a:	mov    ds:0x43bc94,eax
  41754f:	mov    ecx,DWORD PTR ds:0x419610
  417555:	mov    DWORD PTR ds:0x43bc98,ecx
  41755b:	mov    edx,DWORD PTR ds:0x419614
  417561:	mov    DWORD PTR ds:0x43bc9c,edx
  417567:	mov    eax,ds:0x419618
  41756c:	mov    ds:0x43bca0,eax
  417571:	mov    ecx,DWORD PTR ds:0x41961c
  417577:	mov    DWORD PTR ds:0x43bca4,ecx
  41757d:	mov    edx,DWORD PTR ds:0x419620
  417583:	mov    DWORD PTR ds:0x43bca8,edx
  417589:	mov    eax,ds:0x419624
  41758e:	mov    ds:0x43bcac,eax
  417593:	mov    ecx,DWORD PTR ds:0x419628
  417599:	mov    DWORD PTR ds:0x43bcb0,ecx
  41759f:	mov    edx,DWORD PTR ds:0x41962c
  4175a5:	mov    DWORD PTR ds:0x43bcb4,edx
  4175ab:	mov    eax,ds:0x419630
  4175b0:	mov    ds:0x43bcb8,eax
  4175b5:	mov    ecx,DWORD PTR ds:0x419634
  4175bb:	mov    DWORD PTR ds:0x43bcbc,ecx
  4175c1:	mov    edx,DWORD PTR ds:0x419638
  4175c7:	mov    DWORD PTR ds:0x43bcc0,edx
  4175cd:	mov    eax,ds:0x41963c
  4175d2:	mov    ds:0x43bcc4,eax
  4175d7:	mov    ecx,DWORD PTR ds:0x419640
  4175dd:	mov    DWORD PTR ds:0x43bcc8,ecx
  4175e3:	mov    edx,DWORD PTR ds:0x419644
  4175e9:	mov    DWORD PTR ds:0x43bccc,edx
  4175ef:	mov    eax,ds:0x419648
  4175f4:	mov    ds:0x43bcd0,eax
  4175f9:	mov    ecx,DWORD PTR ds:0x41964c
  4175ff:	mov    DWORD PTR ds:0x43bcd4,ecx
  417605:	mov    edx,DWORD PTR ds:0x419650
  41760b:	mov    DWORD PTR ds:0x43bcd8,edx
  417611:	mov    eax,ds:0x419654
  417616:	mov    ds:0x43bcdc,eax
  41761b:	mov    ecx,DWORD PTR ds:0x419658
  417621:	mov    DWORD PTR ds:0x43bce0,ecx
  417627:	mov    edx,DWORD PTR ds:0x41965c
  41762d:	mov    DWORD PTR ds:0x43bce4,edx
  417633:	mov    eax,ds:0x419660
  417638:	mov    ds:0x43bce8,eax
  41763d:	mov    ecx,DWORD PTR ds:0x419664
  417643:	mov    DWORD PTR ds:0x43bcec,ecx
  417649:	mov    edx,DWORD PTR ds:0x419668
  41764f:	mov    DWORD PTR ds:0x43bcf0,edx
  417655:	mov    eax,ds:0x41966c
  41765a:	mov    ds:0x43bcf4,eax
  41765f:	mov    ecx,DWORD PTR ds:0x419670
  417665:	mov    DWORD PTR ds:0x43bcf8,ecx
  41766b:	mov    edx,DWORD PTR ds:0x419674
  417671:	mov    DWORD PTR ds:0x43bcfc,edx
  417677:	mov    eax,ds:0x419678
  41767c:	mov    ds:0x43bd00,eax
  417681:	mov    ecx,DWORD PTR ds:0x41967c
  417687:	mov    DWORD PTR ds:0x43bd04,ecx
  41768d:	mov    edx,DWORD PTR ds:0x419680
  417693:	mov    DWORD PTR ds:0x43bd08,edx
  417699:	mov    eax,ds:0x419684
  41769e:	mov    ds:0x43bd0c,eax
  4176a3:	mov    ecx,DWORD PTR ds:0x419688
  4176a9:	mov    DWORD PTR ds:0x43bd10,ecx
  4176af:	mov    edx,DWORD PTR ds:0x41968c
  4176b5:	mov    DWORD PTR ds:0x43bd14,edx
  4176bb:	mov    eax,ds:0x419690
  4176c0:	mov    ds:0x43bd18,eax
  4176c5:	mov    ecx,DWORD PTR ds:0x419694
  4176cb:	mov    DWORD PTR ds:0x43bd1c,ecx
  4176d1:	mov    edx,DWORD PTR ds:0x4196c8
  4176d7:	mov    DWORD PTR ds:0x43bd20,edx
  4176dd:	mov    eax,ds:0x419698
  4176e2:	mov    ds:0x43bd24,eax
  4176e7:	mov    ecx,DWORD PTR ds:0x41969c
  4176ed:	mov    DWORD PTR ds:0x43bd28,ecx
  4176f3:	mov    edx,DWORD PTR ds:0x4196a0
  4176f9:	mov    DWORD PTR ds:0x43bd2c,edx
  4176ff:	mov    eax,ds:0x4196a4
  417704:	mov    ds:0x43bd30,eax
  417709:	mov    ecx,DWORD PTR ds:0x4196a8
  41770f:	mov    DWORD PTR ds:0x43bd34,ecx
  417715:	mov    edx,DWORD PTR ds:0x4196ac
  41771b:	mov    DWORD PTR ds:0x43bd38,edx
  417721:	mov    eax,ds:0x4196b0
  417726:	mov    ds:0x43bd3c,eax
  41772b:	mov    ecx,DWORD PTR ds:0x4196b4
  417731:	mov    DWORD PTR ds:0x43bd40,ecx
  417737:	mov    edx,DWORD PTR ds:0x4196b8
  41773d:	mov    DWORD PTR ds:0x43bd44,edx
  417743:	mov    eax,ds:0x4196bc
  417748:	mov    ds:0x43bd48,eax
  41774d:	mov    ecx,DWORD PTR ds:0x4196c0
  417753:	mov    DWORD PTR ds:0x43bd4c,ecx
  417759:	mov    edx,DWORD PTR ds:0x4196c4
  41775f:	mov    DWORD PTR ds:0x43bd50,edx
  417765:	mov    eax,ds:0x419560
  41776a:	mov    ds:0x43bd54,eax
  41776f:	mov    ecx,DWORD PTR ds:0x4196cc
  417775:	mov    DWORD PTR ds:0x43bd58,ecx
  41777b:	mov    edx,DWORD PTR ds:0x4196d0
  417781:	mov    DWORD PTR ds:0x43bd5c,edx
  417787:	mov    eax,ds:0x4196d4
  41778c:	mov    ds:0x43bd60,eax
  417791:	mov    ecx,DWORD PTR ds:0x4196d8
  417797:	mov    DWORD PTR ds:0x43bd64,ecx
  41779d:	mov    edx,DWORD PTR ds:0x4196dc
  4177a3:	mov    DWORD PTR ds:0x43bd68,edx
  4177a9:	mov    eax,ds:0x4196e0
  4177ae:	mov    ds:0x43bd6c,eax
  4177b3:	mov    ecx,DWORD PTR ds:0x4196e4
  4177b9:	mov    DWORD PTR ds:0x43bd70,ecx
  4177bf:	mov    edx,DWORD PTR ds:0x4196e8
  4177c5:	mov    DWORD PTR ds:0x43bd74,edx
  4177cb:	mov    eax,ds:0x4196ec
  4177d0:	mov    ds:0x43bd78,eax
  4177d5:	mov    ecx,DWORD PTR ds:0x4196f0
  4177db:	mov    DWORD PTR ds:0x43bd7c,ecx
  4177e1:	mov    edx,DWORD PTR ds:0x4196f4
  4177e7:	mov    DWORD PTR ds:0x43bd80,edx
  4177ed:	mov    eax,ds:0x4196f8
  4177f2:	mov    ds:0x43bd84,eax
  4177f7:	mov    ecx,DWORD PTR ds:0x4196fc
  4177fd:	mov    DWORD PTR ds:0x43bd88,ecx
  417803:	mov    edx,DWORD PTR ds:0x419700
  417809:	mov    DWORD PTR ds:0x43bd8c,edx
  41780f:	mov    eax,ds:0x419704
  417814:	mov    ds:0x43bd90,eax
  417819:	mov    ecx,DWORD PTR ds:0x419708
  41781f:	mov    DWORD PTR ds:0x43bd94,ecx
  417825:	mov    edx,DWORD PTR ds:0x41970c
  41782b:	mov    DWORD PTR ds:0x43bd98,edx
  417831:	mov    eax,ds:0x419710
  417836:	mov    ds:0x43bd9c,eax
  41783b:	mov    ecx,DWORD PTR ds:0x419714
  417841:	mov    DWORD PTR ds:0x43bda0,ecx
  417847:	mov    edx,DWORD PTR ds:0x419718
  41784d:	mov    DWORD PTR ds:0x43bda4,edx
  417853:	mov    eax,ds:0x41971c
  417858:	mov    ds:0x43bda8,eax
  41785d:	mov    ecx,DWORD PTR ds:0x419720
  417863:	mov    DWORD PTR ds:0x43bdac,ecx
  417869:	mov    edx,DWORD PTR ds:0x419724
  41786f:	mov    DWORD PTR ds:0x43bdb0,edx
  417875:	mov    eax,ds:0x419728
  41787a:	mov    ds:0x43bdb4,eax
  41787f:	mov    ecx,DWORD PTR ds:0x41972c
  417885:	mov    DWORD PTR ds:0x43bdb8,ecx
  41788b:	mov    edx,DWORD PTR ds:0x419730
  417891:	mov    DWORD PTR ds:0x43bdbc,edx
  417897:	mov    eax,ds:0x419734
  41789c:	mov    ds:0x43bdc0,eax
  4178a1:	mov    ecx,DWORD PTR ds:0x419738
  4178a7:	mov    DWORD PTR ds:0x43bdc4,ecx
  4178ad:	mov    edx,DWORD PTR ds:0x41973c
  4178b3:	mov    DWORD PTR ds:0x43bdc8,edx
  4178b9:	mov    eax,ds:0x419740
  4178be:	mov    ds:0x43bdcc,eax
  4178c3:	mov    ecx,DWORD PTR ds:0x419744
  4178c9:	mov    DWORD PTR ds:0x43bdd0,ecx
  4178cf:	mov    edx,DWORD PTR ds:0x419748
  4178d5:	mov    DWORD PTR ds:0x43bdd4,edx
  4178db:	mov    eax,ds:0x41974c
  4178e0:	mov    ds:0x43bdd8,eax
  4178e5:	mov    ecx,DWORD PTR ds:0x419750
  4178eb:	mov    DWORD PTR ds:0x43bddc,ecx
  4178f1:	mov    edx,DWORD PTR ds:0x419754
  4178f7:	mov    DWORD PTR ds:0x43bde0,edx
  4178fd:	mov    eax,ds:0x419758
  417902:	mov    ds:0x43bde4,eax
  417907:	mov    ecx,DWORD PTR ds:0x41975c
  41790d:	mov    DWORD PTR ds:0x43bde8,ecx
  417913:	mov    edx,DWORD PTR ds:0x419760
  417919:	mov    DWORD PTR ds:0x43bdec,edx
  41791f:	mov    eax,ds:0x419764
  417924:	mov    ds:0x43bdf0,eax
  417929:	mov    ecx,DWORD PTR ds:0x419768
  41792f:	mov    DWORD PTR ds:0x43bdf4,ecx
  417935:	mov    edx,DWORD PTR ds:0x41976c
  41793b:	mov    DWORD PTR ds:0x43bdf8,edx
  417941:	mov    eax,ds:0x419770
  417946:	mov    ds:0x43bdfc,eax
  41794b:	mov    ecx,DWORD PTR ds:0x419774
  417951:	mov    DWORD PTR ds:0x43be00,ecx
  417957:	mov    edx,DWORD PTR ds:0x419778
  41795d:	mov    DWORD PTR ds:0x43be04,edx
  417963:	mov    eax,ds:0x41977c
  417968:	mov    ds:0x43be08,eax
  41796d:	mov    ecx,DWORD PTR ds:0x419780
  417973:	mov    DWORD PTR ds:0x43be0c,ecx
  417979:	mov    edx,DWORD PTR ds:0x419784
  41797f:	mov    DWORD PTR ds:0x43be10,edx
  417985:	mov    eax,ds:0x419788
  41798a:	mov    ds:0x43be14,eax
  41798f:	mov    ecx,DWORD PTR ds:0x41978c
  417995:	mov    DWORD PTR ds:0x43be18,ecx
  41799b:	mov    edx,DWORD PTR ds:0x419790
  4179a1:	mov    DWORD PTR ds:0x43be1c,edx
  4179a7:	mov    eax,ds:0x419794
  4179ac:	mov    ds:0x43be20,eax
  4179b1:	mov    ecx,DWORD PTR ds:0x419798
  4179b7:	mov    DWORD PTR ds:0x43be24,ecx
  4179bd:	mov    edx,DWORD PTR ds:0x41979c
  4179c3:	mov    DWORD PTR ds:0x43be28,edx
  4179c9:	mov    eax,ds:0x4197a0
  4179ce:	mov    ds:0x43be2c,eax
  4179d3:	mov    ecx,DWORD PTR ds:0x4197a4
  4179d9:	mov    DWORD PTR ds:0x43be30,ecx
  4179df:	mov    edx,DWORD PTR ds:0x4197a8
  4179e5:	mov    DWORD PTR ds:0x43be34,edx
  4179eb:	mov    eax,ds:0x4197ac
  4179f0:	mov    ds:0x43be38,eax
  4179f5:	mov    ecx,DWORD PTR ds:0x4197b0
  4179fb:	mov    DWORD PTR ds:0x43be3c,ecx
  417a01:	mov    edx,DWORD PTR ds:0x4197b4
  417a07:	mov    DWORD PTR ds:0x43be40,edx
  417a0d:	mov    eax,ds:0x4197b8
  417a12:	mov    ds:0x43be44,eax
  417a17:	mov    ecx,DWORD PTR ds:0x4197bc
  417a1d:	mov    DWORD PTR ds:0x43be48,ecx
  417a23:	mov    edx,DWORD PTR ds:0x4197c0
  417a29:	mov    DWORD PTR ds:0x43be4c,edx
  417a2f:	mov    eax,ds:0x4197c4
  417a34:	mov    ds:0x43be50,eax
  417a39:	mov    ecx,DWORD PTR ds:0x4197c8
  417a3f:	mov    DWORD PTR ds:0x43be54,ecx
  417a45:	mov    edx,DWORD PTR ds:0x4197cc
  417a4b:	mov    DWORD PTR ds:0x43be58,edx
  417a51:	mov    eax,ds:0x4197d0
  417a56:	mov    ds:0x43be5c,eax
  417a5b:	mov    ecx,DWORD PTR ds:0x4197d4
  417a61:	mov    DWORD PTR ds:0x43be60,ecx
  417a67:	mov    edx,DWORD PTR ds:0x4197d8
  417a6d:	mov    DWORD PTR ds:0x43be64,edx
  417a73:	mov    eax,ds:0x4197dc
  417a78:	mov    ds:0x43be68,eax
  417a7d:	mov    ecx,DWORD PTR ds:0x4197e0
  417a83:	mov    DWORD PTR ds:0x43be6c,ecx
  417a89:	mov    edx,DWORD PTR ds:0x4197e4
  417a8f:	mov    DWORD PTR ds:0x43be70,edx
  417a95:	mov    eax,ds:0x4197e8
  417a9a:	mov    ds:0x43be74,eax
  417a9f:	mov    ecx,DWORD PTR ds:0x4197ec
  417aa5:	mov    DWORD PTR ds:0x43be78,ecx
  417aab:	mov    edx,DWORD PTR ds:0x4197f0
  417ab1:	mov    DWORD PTR ds:0x43be7c,edx
  417ab7:	mov    eax,ds:0x4197f4
  417abc:	mov    ds:0x43be80,eax
  417ac1:	mov    ecx,DWORD PTR ds:0x4197f8
  417ac7:	mov    DWORD PTR ds:0x43be84,ecx
  417acd:	mov    edx,DWORD PTR ds:0x4197fc
  417ad3:	mov    DWORD PTR ds:0x43be88,edx
  417ad9:	mov    eax,ds:0x419800
  417ade:	mov    ds:0x43be8c,eax
  417ae3:	mov    ecx,DWORD PTR ds:0x419804
  417ae9:	mov    DWORD PTR ds:0x43be90,ecx
  417aef:	mov    edx,DWORD PTR ds:0x419808
  417af5:	mov    DWORD PTR ds:0x43be94,edx
  417afb:	mov    eax,ds:0x41980c
  417b00:	mov    ds:0x43be98,eax
  417b05:	mov    ecx,DWORD PTR ds:0x419810
  417b0b:	mov    DWORD PTR ds:0x43be9c,ecx
  417b11:	mov    edx,DWORD PTR ds:0x419814
  417b17:	mov    DWORD PTR ds:0x43bea0,edx
  417b1d:	mov    eax,ds:0x419818
  417b22:	mov    ds:0x43bea4,eax
  417b27:	mov    ecx,DWORD PTR ds:0x41981c
  417b2d:	mov    DWORD PTR ds:0x43bea8,ecx
  417b33:	mov    edx,DWORD PTR ds:0x419820
  417b39:	mov    DWORD PTR ds:0x43beac,edx
  417b3f:	mov    eax,ds:0x419824
  417b44:	mov    ds:0x43beb0,eax
  417b49:	mov    ecx,DWORD PTR ds:0x419828
  417b4f:	mov    DWORD PTR ds:0x43beb4,ecx
  417b55:	mov    edx,DWORD PTR ds:0x4195a0
  417b5b:	mov    DWORD PTR ds:0x43beb8,edx
  417b61:	mov    eax,ds:0x41959c
  417b66:	mov    ds:0x43bebc,eax
  417b6b:	mov    ecx,DWORD PTR ds:0x419598
  417b71:	mov    DWORD PTR ds:0x43bec0,ecx
  417b77:	mov    edx,DWORD PTR ds:0x419594
  417b7d:	mov    DWORD PTR ds:0x43bec4,edx
  417b83:	mov    eax,ds:0x419590
  417b88:	mov    ds:0x43bec8,eax
  417b8d:	mov    ecx,DWORD PTR ds:0x41958c
  417b93:	mov    DWORD PTR ds:0x43becc,ecx
  417b99:	mov    edx,DWORD PTR ds:0x419588
  417b9f:	mov    DWORD PTR ds:0x43bed0,edx
  417ba5:	mov    eax,ds:0x419584
  417baa:	mov    ds:0x43bed4,eax
  417baf:	mov    ecx,DWORD PTR ds:0x419580
  417bb5:	mov    DWORD PTR ds:0x43bed8,ecx
  417bbb:	mov    edx,DWORD PTR ds:0x41955c
  417bc1:	mov    DWORD PTR ds:0x43bedc,edx
  417bc7:	mov    eax,ds:0x41957c
  417bcc:	mov    ds:0x43bee0,eax
  417bd1:	mov    ecx,DWORD PTR ds:0x419540
  417bd7:	mov    DWORD PTR ds:0x43bee4,ecx
  417bdd:	mov    edx,DWORD PTR ds:0x419544
  417be3:	mov    DWORD PTR ds:0x43bee8,edx
  417be9:	mov    eax,ds:0x419548
  417bee:	mov    ds:0x43beec,eax
  417bf3:	mov    ecx,DWORD PTR ds:0x41954c
  417bf9:	mov    DWORD PTR ds:0x43bef0,ecx
  417bff:	mov    edx,DWORD PTR ds:0x419550
  417c05:	mov    DWORD PTR ds:0x43bef4,edx
  417c0b:	mov    eax,ds:0x419554
  417c10:	mov    ds:0x43bef8,eax
  417c15:	pop    ebp
  417c16:	ret    
  417c17:	int3   
  417c18:	int3   
  417c19:	int3   
  417c1a:	int3   
  417c1b:	int3   
  417c1c:	int3   
  417c1d:	int3   
  417c1e:	int3   
  417c1f:	int3   
  417c20:	push   ebp
  417c21:	mov    ebp,esp
  417c23:	mov    eax,ds:0x419254
  417c28:	mov    ds:0x43b938,eax
  417c2d:	mov    ecx,DWORD PTR ds:0x419250
  417c33:	mov    DWORD PTR ds:0x43b93c,ecx
  417c39:	mov    edx,DWORD PTR ds:0x41924c
  417c3f:	mov    DWORD PTR ds:0x43b940,edx
  417c45:	mov    eax,ds:0x419248
  417c4a:	mov    ds:0x43b944,eax
  417c4f:	mov    ecx,DWORD PTR ds:0x419244
  417c55:	mov    DWORD PTR ds:0x43b948,ecx
  417c5b:	mov    edx,DWORD PTR ds:0x419240
  417c61:	mov    DWORD PTR ds:0x43b94c,edx
  417c67:	mov    eax,ds:0x41923c
  417c6c:	mov    ds:0x43b950,eax
  417c71:	mov    ecx,DWORD PTR ds:0x419238
  417c77:	mov    DWORD PTR ds:0x43b954,ecx
  417c7d:	mov    edx,DWORD PTR ds:0x419234
  417c83:	mov    DWORD PTR ds:0x43b958,edx
  417c89:	mov    eax,ds:0x419230
  417c8e:	mov    ds:0x43b95c,eax
  417c93:	mov    ecx,DWORD PTR ds:0x41922c
  417c99:	mov    DWORD PTR ds:0x43b960,ecx
  417c9f:	mov    edx,DWORD PTR ds:0x419228
  417ca5:	mov    DWORD PTR ds:0x43b964,edx
  417cab:	mov    eax,ds:0x419224
  417cb0:	mov    ds:0x43b968,eax
  417cb5:	mov    ecx,DWORD PTR ds:0x419220
  417cbb:	mov    DWORD PTR ds:0x43b96c,ecx
  417cc1:	mov    edx,DWORD PTR ds:0x41921c
  417cc7:	mov    DWORD PTR ds:0x43b970,edx
  417ccd:	mov    eax,ds:0x419218
  417cd2:	mov    ds:0x43b974,eax
  417cd7:	mov    ecx,DWORD PTR ds:0x419214
  417cdd:	mov    DWORD PTR ds:0x43b978,ecx
  417ce3:	mov    edx,DWORD PTR ds:0x419210
  417ce9:	mov    DWORD PTR ds:0x43b97c,edx
  417cef:	mov    eax,ds:0x41920c
  417cf4:	mov    ds:0x43b980,eax
  417cf9:	mov    ecx,DWORD PTR ds:0x419208
  417cff:	mov    DWORD PTR ds:0x43b984,ecx
  417d05:	mov    edx,DWORD PTR ds:0x419204
  417d0b:	mov    DWORD PTR ds:0x43b988,edx
  417d11:	mov    eax,ds:0x419200
  417d16:	mov    ds:0x43b98c,eax
  417d1b:	mov    ecx,DWORD PTR ds:0x4191fc
  417d21:	mov    DWORD PTR ds:0x43b990,ecx
  417d27:	mov    edx,DWORD PTR ds:0x4191f8
  417d2d:	mov    DWORD PTR ds:0x43b994,edx
  417d33:	mov    eax,ds:0x4191f4
  417d38:	mov    ds:0x43b998,eax
  417d3d:	mov    ecx,DWORD PTR ds:0x4191f0
  417d43:	mov    DWORD PTR ds:0x43b99c,ecx
  417d49:	mov    edx,DWORD PTR ds:0x4191ec
  417d4f:	mov    DWORD PTR ds:0x43b9a0,edx
  417d55:	mov    eax,ds:0x4191e8
  417d5a:	mov    ds:0x43b9a4,eax
  417d5f:	mov    ecx,DWORD PTR ds:0x4191e4
  417d65:	mov    DWORD PTR ds:0x43b9a8,ecx
  417d6b:	mov    edx,DWORD PTR ds:0x4191e0
  417d71:	mov    DWORD PTR ds:0x43b9ac,edx
  417d77:	mov    eax,ds:0x4191dc
  417d7c:	mov    ds:0x43b9b0,eax
  417d81:	mov    ecx,DWORD PTR ds:0x4191d8
  417d87:	mov    DWORD PTR ds:0x43b9b4,ecx
  417d8d:	mov    edx,DWORD PTR ds:0x4191d4
  417d93:	mov    DWORD PTR ds:0x43b9b8,edx
  417d99:	mov    eax,ds:0x4191d0
  417d9e:	mov    ds:0x43b9bc,eax
  417da3:	mov    ecx,DWORD PTR ds:0x4191cc
  417da9:	mov    DWORD PTR ds:0x43b9c0,ecx
  417daf:	mov    edx,DWORD PTR ds:0x4191c8
  417db5:	mov    DWORD PTR ds:0x43b9c4,edx
  417dbb:	mov    eax,ds:0x4191c4
  417dc0:	mov    ds:0x43b9c8,eax
  417dc5:	mov    ecx,DWORD PTR ds:0x4191c0
  417dcb:	mov    DWORD PTR ds:0x43b9cc,ecx
  417dd1:	mov    edx,DWORD PTR ds:0x4191bc
  417dd7:	mov    DWORD PTR ds:0x43b9d0,edx
  417ddd:	mov    eax,ds:0x4191b8
  417de2:	mov    ds:0x43b9d4,eax
  417de7:	mov    ecx,DWORD PTR ds:0x4191b4
  417ded:	mov    DWORD PTR ds:0x43b9d8,ecx
  417df3:	mov    edx,DWORD PTR ds:0x419130
  417df9:	mov    DWORD PTR ds:0x43b9dc,edx
  417dff:	mov    eax,ds:0x4190dc
  417e04:	mov    ds:0x43b9e0,eax
  417e09:	mov    ecx,DWORD PTR ds:0x4190e0
  417e0f:	mov    DWORD PTR ds:0x43b9e4,ecx
  417e15:	mov    edx,DWORD PTR ds:0x4190e4
  417e1b:	mov    DWORD PTR ds:0x43b9e8,edx
  417e21:	mov    eax,ds:0x41925c
  417e26:	mov    ds:0x43b9ec,eax
  417e2b:	mov    ecx,DWORD PTR ds:0x4190e8
  417e31:	mov    DWORD PTR ds:0x43b9f0,ecx
  417e37:	mov    edx,DWORD PTR ds:0x4190ec
  417e3d:	mov    DWORD PTR ds:0x43b9f4,edx
  417e43:	mov    eax,ds:0x4190f0
  417e48:	mov    ds:0x43b9f8,eax
  417e4d:	mov    ecx,DWORD PTR ds:0x4190f4
  417e53:	mov    DWORD PTR ds:0x43b9fc,ecx
  417e59:	mov    edx,DWORD PTR ds:0x4190f8
  417e5f:	mov    DWORD PTR ds:0x43ba00,edx
  417e65:	mov    eax,ds:0x4190fc
  417e6a:	mov    ds:0x43ba04,eax
  417e6f:	mov    ecx,DWORD PTR ds:0x419100
  417e75:	mov    DWORD PTR ds:0x43ba08,ecx
  417e7b:	mov    edx,DWORD PTR ds:0x419104
  417e81:	mov    DWORD PTR ds:0x43ba0c,edx
  417e87:	mov    eax,ds:0x419108
  417e8c:	mov    ds:0x43ba10,eax
  417e91:	mov    ecx,DWORD PTR ds:0x41910c
  417e97:	mov    DWORD PTR ds:0x43ba14,ecx
  417e9d:	mov    edx,DWORD PTR ds:0x419110
  417ea3:	mov    DWORD PTR ds:0x43ba18,edx
  417ea9:	mov    eax,ds:0x419114
  417eae:	mov    ds:0x43ba1c,eax
  417eb3:	mov    ecx,DWORD PTR ds:0x419118
  417eb9:	mov    DWORD PTR ds:0x43ba20,ecx
  417ebf:	mov    edx,DWORD PTR ds:0x41911c
  417ec5:	mov    DWORD PTR ds:0x43ba24,edx
  417ecb:	mov    eax,ds:0x419120
  417ed0:	mov    ds:0x43ba28,eax
  417ed5:	mov    ecx,DWORD PTR ds:0x419124
  417edb:	mov    DWORD PTR ds:0x43ba2c,ecx
  417ee1:	mov    edx,DWORD PTR ds:0x419128
  417ee7:	mov    DWORD PTR ds:0x43ba30,edx
  417eed:	mov    eax,ds:0x41912c
  417ef2:	mov    ds:0x43ba34,eax
  417ef7:	mov    ecx,DWORD PTR ds:0x419258
  417efd:	mov    DWORD PTR ds:0x43ba38,ecx
  417f03:	mov    edx,DWORD PTR ds:0x419134
  417f09:	mov    DWORD PTR ds:0x43ba3c,edx
  417f0f:	mov    eax,ds:0x419138
  417f14:	mov    ds:0x43ba40,eax
  417f19:	mov    ecx,DWORD PTR ds:0x41913c
  417f1f:	mov    DWORD PTR ds:0x43ba44,ecx
  417f25:	mov    edx,DWORD PTR ds:0x419140
  417f2b:	mov    DWORD PTR ds:0x43ba48,edx
  417f31:	mov    eax,ds:0x419144
  417f36:	mov    ds:0x43ba4c,eax
  417f3b:	mov    ecx,DWORD PTR ds:0x419148
  417f41:	mov    DWORD PTR ds:0x43ba50,ecx
  417f47:	mov    edx,DWORD PTR ds:0x41914c
  417f4d:	mov    DWORD PTR ds:0x43ba54,edx
  417f53:	mov    eax,ds:0x419150
  417f58:	mov    ds:0x43ba58,eax
  417f5d:	mov    ecx,DWORD PTR ds:0x419154
  417f63:	mov    DWORD PTR ds:0x43ba5c,ecx
  417f69:	mov    edx,DWORD PTR ds:0x419158
  417f6f:	mov    DWORD PTR ds:0x43ba60,edx
  417f75:	mov    eax,ds:0x41915c
  417f7a:	mov    ds:0x43ba64,eax
  417f7f:	mov    ecx,DWORD PTR ds:0x419160
  417f85:	mov    DWORD PTR ds:0x43ba68,ecx
  417f8b:	mov    edx,DWORD PTR ds:0x419164
  417f91:	mov    DWORD PTR ds:0x43ba6c,edx
  417f97:	mov    eax,ds:0x419168
  417f9c:	mov    ds:0x43ba70,eax
  417fa1:	mov    ecx,DWORD PTR ds:0x41916c
  417fa7:	mov    DWORD PTR ds:0x43ba74,ecx
  417fad:	mov    edx,DWORD PTR ds:0x419170
  417fb3:	mov    DWORD PTR ds:0x43ba78,edx
  417fb9:	mov    eax,ds:0x419174
  417fbe:	mov    ds:0x43ba7c,eax
  417fc3:	mov    ecx,DWORD PTR ds:0x419178
  417fc9:	mov    DWORD PTR ds:0x43ba80,ecx
  417fcf:	mov    edx,DWORD PTR ds:0x41917c
  417fd5:	mov    DWORD PTR ds:0x43ba84,edx
  417fdb:	mov    eax,ds:0x419180
  417fe0:	mov    ds:0x43ba88,eax
  417fe5:	mov    ecx,DWORD PTR ds:0x419184
  417feb:	mov    DWORD PTR ds:0x43ba8c,ecx
  417ff1:	mov    edx,DWORD PTR ds:0x419188
  417ff7:	mov    DWORD PTR ds:0x43ba90,edx
  417ffd:	mov    eax,ds:0x41918c
  418002:	mov    ds:0x43ba94,eax
  418007:	mov    ecx,DWORD PTR ds:0x419190
  41800d:	mov    DWORD PTR ds:0x43ba98,ecx
  418013:	mov    edx,DWORD PTR ds:0x419194
  418019:	mov    DWORD PTR ds:0x43ba9c,edx
  41801f:	mov    eax,ds:0x419198
  418024:	mov    ds:0x43baa0,eax
  418029:	mov    ecx,DWORD PTR ds:0x41919c
  41802f:	mov    DWORD PTR ds:0x43baa4,ecx
  418035:	mov    edx,DWORD PTR ds:0x4191a0
  41803b:	mov    DWORD PTR ds:0x43baa8,edx
  418041:	mov    eax,ds:0x4191a4
  418046:	mov    ds:0x43baac,eax
  41804b:	mov    ecx,DWORD PTR ds:0x4191a8
  418051:	mov    DWORD PTR ds:0x43bab0,ecx
  418057:	mov    edx,DWORD PTR ds:0x4191ac
  41805d:	mov    DWORD PTR ds:0x43bab4,edx
  418063:	mov    eax,ds:0x4191b0
  418068:	mov    ds:0x43bab8,eax
  41806d:	pop    ebp
  41806e:	ret    
  41806f:	int3   
  418070:	push   ebp
  418071:	mov    ebp,esp
  418073:	mov    eax,ds:0x41930c
  418078:	mov    ds:0x43b760,eax
  41807d:	mov    ecx,DWORD PTR ds:0x419484
  418083:	mov    DWORD PTR ds:0x43b764,ecx
  418089:	mov    edx,DWORD PTR ds:0x4192b0
  41808f:	mov    DWORD PTR ds:0x43b768,edx
  418095:	mov    eax,ds:0x4192dc
  41809a:	mov    ds:0x43b76c,eax
  41809f:	mov    ecx,DWORD PTR ds:0x419480
  4180a5:	mov    DWORD PTR ds:0x43b770,ecx
  4180ab:	mov    edx,DWORD PTR ds:0x41947c
  4180b1:	mov    DWORD PTR ds:0x43b774,edx
  4180b7:	mov    eax,ds:0x419478
  4180bc:	mov    ds:0x43b778,eax
  4180c1:	mov    ecx,DWORD PTR ds:0x419308
  4180c7:	mov    DWORD PTR ds:0x43b77c,ecx
  4180cd:	mov    edx,DWORD PTR ds:0x419474
  4180d3:	mov    DWORD PTR ds:0x43b780,edx
  4180d9:	mov    eax,ds:0x419314
  4180de:	mov    ds:0x43b784,eax
  4180e3:	mov    ecx,DWORD PTR ds:0x419310
  4180e9:	mov    DWORD PTR ds:0x43b788,ecx
  4180ef:	mov    edx,DWORD PTR ds:0x419470
  4180f5:	mov    DWORD PTR ds:0x43b78c,edx
  4180fb:	mov    eax,ds:0x41946c
  418100:	mov    ds:0x43b790,eax
  418105:	mov    ecx,DWORD PTR ds:0x419468
  41810b:	mov    DWORD PTR ds:0x43b794,ecx
  418111:	mov    edx,DWORD PTR ds:0x419464
  418117:	mov    DWORD PTR ds:0x43b798,edx
  41811d:	mov    eax,ds:0x419290
  418122:	mov    ds:0x43b79c,eax
  418127:	mov    ecx,DWORD PTR ds:0x419460
  41812d:	mov    DWORD PTR ds:0x43b7a0,ecx
  418133:	mov    edx,DWORD PTR ds:0x419318
  418139:	mov    DWORD PTR ds:0x43b7a4,edx
  41813f:	mov    eax,ds:0x41945c
  418144:	mov    ds:0x43b7a8,eax
  418149:	mov    ecx,DWORD PTR ds:0x419458
  41814f:	mov    DWORD PTR ds:0x43b7ac,ecx
  418155:	mov    edx,DWORD PTR ds:0x4192ec
  41815b:	mov    DWORD PTR ds:0x43b7b0,edx
  418161:	mov    eax,ds:0x419454
  418166:	mov    ds:0x43b7b4,eax
  41816b:	mov    ecx,DWORD PTR ds:0x419450
  418171:	mov    DWORD PTR ds:0x43b7b8,ecx
  418177:	mov    edx,DWORD PTR ds:0x41944c
  41817d:	mov    DWORD PTR ds:0x43b7bc,edx
  418183:	mov    eax,ds:0x419448
  418188:	mov    ds:0x43b7c0,eax
  41818d:	mov    ecx,DWORD PTR ds:0x419444
  418193:	mov    DWORD PTR ds:0x43b7c4,ecx
  418199:	mov    edx,DWORD PTR ds:0x419440
  41819f:	mov    DWORD PTR ds:0x43b7c8,edx
  4181a5:	mov    eax,ds:0x41943c
  4181aa:	mov    ds:0x43b7cc,eax
  4181af:	mov    ecx,DWORD PTR ds:0x419438
  4181b5:	mov    DWORD PTR ds:0x43b7d0,ecx
  4181bb:	mov    edx,DWORD PTR ds:0x419434
  4181c1:	mov    DWORD PTR ds:0x43b7d4,edx
  4181c7:	mov    eax,ds:0x419430
  4181cc:	mov    ds:0x43b7d8,eax
  4181d1:	mov    ecx,DWORD PTR ds:0x41942c
  4181d7:	mov    DWORD PTR ds:0x43b7dc,ecx
  4181dd:	mov    edx,DWORD PTR ds:0x4192c0
  4181e3:	mov    DWORD PTR ds:0x43b7e0,edx
  4181e9:	mov    eax,ds:0x419428
  4181ee:	mov    ds:0x43b7e4,eax
  4181f3:	mov    ecx,DWORD PTR ds:0x419424
  4181f9:	mov    DWORD PTR ds:0x43b7e8,ecx
  4181ff:	mov    edx,DWORD PTR ds:0x419420
  418205:	mov    DWORD PTR ds:0x43b7ec,edx
  41820b:	mov    eax,ds:0x41941c
  418210:	mov    ds:0x43b7f0,eax
  418215:	mov    ecx,DWORD PTR ds:0x419418
  41821b:	mov    DWORD PTR ds:0x43b7f4,ecx
  418221:	mov    edx,DWORD PTR ds:0x419320
  418227:	mov    DWORD PTR ds:0x43b7f8,edx
  41822d:	mov    eax,ds:0x419414
  418232:	mov    ds:0x43b7fc,eax
  418237:	mov    ecx,DWORD PTR ds:0x419410
  41823d:	mov    DWORD PTR ds:0x43b800,ecx
  418243:	mov    edx,DWORD PTR ds:0x41940c
  418249:	mov    DWORD PTR ds:0x43b804,edx
  41824f:	mov    eax,ds:0x4192bc
  418254:	mov    ds:0x43b808,eax
  418259:	mov    ecx,DWORD PTR ds:0x4192f0
  41825f:	mov    DWORD PTR ds:0x43b80c,ecx
  418265:	mov    edx,DWORD PTR ds:0x4192a4
  41826b:	mov    DWORD PTR ds:0x43b810,edx
  418271:	mov    eax,ds:0x419408
  418276:	mov    ds:0x43b814,eax
  41827b:	mov    ecx,DWORD PTR ds:0x419404
  418281:	mov    DWORD PTR ds:0x43b818,ecx
  418287:	mov    edx,DWORD PTR ds:0x419400
  41828d:	mov    DWORD PTR ds:0x43b81c,edx
  418293:	mov    eax,ds:0x4193fc
  418298:	mov    ds:0x43b820,eax
  41829d:	mov    ecx,DWORD PTR ds:0x4193f8
  4182a3:	mov    DWORD PTR ds:0x43b824,ecx
  4182a9:	mov    edx,DWORD PTR ds:0x4193f4
  4182af:	mov    DWORD PTR ds:0x43b828,edx
  4182b5:	mov    eax,ds:0x4193f0
  4182ba:	mov    ds:0x43b82c,eax
  4182bf:	mov    ecx,DWORD PTR ds:0x4193ec
  4182c5:	mov    DWORD PTR ds:0x43b830,ecx
  4182cb:	mov    edx,DWORD PTR ds:0x4193e8
  4182d1:	mov    DWORD PTR ds:0x43b834,edx
  4182d7:	mov    eax,ds:0x4193e4
  4182dc:	mov    ds:0x43b838,eax
  4182e1:	mov    ecx,DWORD PTR ds:0x4193e0
  4182e7:	mov    DWORD PTR ds:0x43b83c,ecx
  4182ed:	mov    edx,DWORD PTR ds:0x4193dc
  4182f3:	mov    DWORD PTR ds:0x43b840,edx
  4182f9:	mov    eax,ds:0x4193d8
  4182fe:	mov    ds:0x43b844,eax
  418303:	mov    ecx,DWORD PTR ds:0x4193d4
  418309:	mov    DWORD PTR ds:0x43b848,ecx
  41830f:	mov    edx,DWORD PTR ds:0x4192f8
  418315:	mov    DWORD PTR ds:0x43b84c,edx
  41831b:	mov    eax,ds:0x4193d0
  418320:	mov    ds:0x43b850,eax
  418325:	mov    ecx,DWORD PTR ds:0x419300
  41832b:	mov    DWORD PTR ds:0x43b854,ecx
  418331:	mov    edx,DWORD PTR ds:0x4193cc
  418337:	mov    DWORD PTR ds:0x43b858,edx
  41833d:	mov    eax,ds:0x4193c8
  418342:	mov    ds:0x43b85c,eax
  418347:	mov    ecx,DWORD PTR ds:0x4193c4
  41834d:	mov    DWORD PTR ds:0x43b860,ecx
  418353:	mov    DWORD PTR ds:0x43b864,0x4170e4
  41835d:	mov    edx,DWORD PTR ds:0x4193bc
  418363:	mov    DWORD PTR ds:0x43b868,edx
  418369:	mov    eax,ds:0x4192b4
  41836e:	mov    ds:0x43b86c,eax
  418373:	mov    ecx,DWORD PTR ds:0x4193b8
  418379:	mov    DWORD PTR ds:0x43b870,ecx
  41837f:	mov    edx,DWORD PTR ds:0x419268
  418385:	mov    DWORD PTR ds:0x43b874,edx
  41838b:	mov    eax,ds:0x4193b4
  418390:	mov    ds:0x43b878,eax
  418395:	mov    ecx,DWORD PTR ds:0x41926c
  41839b:	mov    DWORD PTR ds:0x43b87c,ecx
  4183a1:	mov    edx,DWORD PTR ds:0x419270
  4183a7:	mov    DWORD PTR ds:0x43b880,edx
  4183ad:	mov    eax,ds:0x4193b0
  4183b2:	mov    ds:0x43b884,eax
  4183b7:	mov    ecx,DWORD PTR ds:0x4193ac
  4183bd:	mov    DWORD PTR ds:0x43b888,ecx
  4183c3:	mov    edx,DWORD PTR ds:0x4192e0
  4183c9:	mov    DWORD PTR ds:0x43b88c,edx
  4183cf:	mov    eax,ds:0x4193a8
  4183d4:	mov    ds:0x43b890,eax
  4183d9:	mov    ecx,DWORD PTR ds:0x41927c
  4183df:	mov    DWORD PTR ds:0x43b894,ecx
  4183e5:	mov    edx,DWORD PTR ds:0x4193a4
  4183eb:	mov    DWORD PTR ds:0x43b898,edx
  4183f1:	mov    eax,ds:0x4193a0
  4183f6:	mov    ds:0x43b89c,eax
  4183fb:	mov    ecx,DWORD PTR ds:0x41939c
  418401:	mov    DWORD PTR ds:0x43b8a0,ecx
  418407:	mov    edx,DWORD PTR ds:0x419398
  41840d:	mov    DWORD PTR ds:0x43b8a4,edx
  418413:	mov    eax,ds:0x419394
  418418:	mov    ds:0x43b8a8,eax
  41841d:	mov    ecx,DWORD PTR ds:0x419390
  418423:	mov    DWORD PTR ds:0x43b8ac,ecx
  418429:	mov    edx,DWORD PTR ds:0x41938c
  41842f:	mov    DWORD PTR ds:0x43b8b0,edx
  418435:	mov    eax,ds:0x419388
  41843a:	mov    ds:0x43b8b4,eax
  41843f:	mov    ecx,DWORD PTR ds:0x419294
  418445:	mov    DWORD PTR ds:0x43b8b8,ecx
  41844b:	mov    edx,DWORD PTR ds:0x419384
  418451:	mov    DWORD PTR ds:0x43b8bc,edx
  418457:	mov    eax,ds:0x419380
  41845c:	mov    ds:0x43b8c0,eax
  418461:	mov    ecx,DWORD PTR ds:0x41937c
  418467:	mov    DWORD PTR ds:0x43b8c4,ecx
  41846d:	mov    edx,DWORD PTR ds:0x419378
  418473:	mov    DWORD PTR ds:0x43b8c8,edx
  418479:	mov    eax,ds:0x419374
  41847e:	mov    ds:0x43b8cc,eax
  418483:	mov    ecx,DWORD PTR ds:0x4192d4
  418489:	mov    DWORD PTR ds:0x43b8d0,ecx
  41848f:	mov    edx,DWORD PTR ds:0x419370
  418495:	mov    DWORD PTR ds:0x43b8d4,edx
  41849b:	mov    eax,ds:0x419278
  4184a0:	mov    ds:0x43b8d8,eax
  4184a5:	mov    ecx,DWORD PTR ds:0x41936c
  4184ab:	mov    DWORD PTR ds:0x43b8dc,ecx
  4184b1:	mov    edx,DWORD PTR ds:0x419368
  4184b7:	mov    DWORD PTR ds:0x43b8e0,edx
  4184bd:	mov    eax,ds:0x419364
  4184c2:	mov    ds:0x43b8e4,eax
  4184c7:	mov    ecx,DWORD PTR ds:0x4192a8
  4184cd:	mov    DWORD PTR ds:0x43b8e8,ecx
  4184d3:	mov    edx,DWORD PTR ds:0x4192ac
  4184d9:	mov    DWORD PTR ds:0x43b8ec,edx
  4184df:	mov    eax,ds:0x419360
  4184e4:	mov    ds:0x43b8f0,eax
  4184e9:	mov    ecx,DWORD PTR ds:0x41935c
  4184ef:	mov    DWORD PTR ds:0x43b8f4,ecx
  4184f5:	mov    edx,DWORD PTR ds:0x419358
  4184fb:	mov    DWORD PTR ds:0x43b8f8,edx
  418501:	mov    eax,ds:0x419354
  418506:	mov    ds:0x43b8fc,eax
  41850b:	mov    ecx,DWORD PTR ds:0x419350
  418511:	mov    DWORD PTR ds:0x43b900,ecx
  418517:	mov    edx,DWORD PTR ds:0x41934c
  41851d:	mov    DWORD PTR ds:0x43b904,edx
  418523:	mov    eax,ds:0x4192a0
  418528:	mov    ds:0x43b908,eax
  41852d:	mov    ecx,DWORD PTR ds:0x419348
  418533:	mov    DWORD PTR ds:0x43b90c,ecx
  418539:	mov    edx,DWORD PTR ds:0x419344
  41853f:	mov    DWORD PTR ds:0x43b910,edx
  418545:	mov    eax,ds:0x419514
  41854a:	mov    ds:0x43b914,eax
  41854f:	mov    ecx,DWORD PTR ds:0x419298
  418555:	mov    DWORD PTR ds:0x43b918,ecx
  41855b:	mov    edx,DWORD PTR ds:0x419340
  418561:	mov    DWORD PTR ds:0x43b91c,edx
  418567:	mov    eax,ds:0x41933c
  41856c:	mov    ds:0x43b920,eax
  418571:	mov    ecx,DWORD PTR ds:0x419338
  418577:	mov    DWORD PTR ds:0x43b924,ecx
  41857d:	mov    edx,DWORD PTR ds:0x419334
  418583:	mov    DWORD PTR ds:0x43b928,edx
  418589:	mov    eax,ds:0x4192f4
  41858e:	mov    ds:0x43b92c,eax
  418593:	mov    ecx,DWORD PTR ds:0x4192b8
  418599:	mov    DWORD PTR ds:0x43b930,ecx
  41859f:	mov    edx,DWORD PTR ds:0x419330
  4185a5:	mov    DWORD PTR ds:0x43b934,edx
  4185ab:	pop    ebp
  4185ac:	ret    
  4185ad:	int3   
  4185ae:	int3   
  4185af:	int3   
  4185b0:	push   ebp
  4185b1:	mov    ebp,esp
  4185b3:	mov    eax,ds:0x419040
  4185b8:	mov    ds:0x43bf38,eax
  4185bd:	mov    ecx,DWORD PTR ds:0x419000
  4185c3:	mov    DWORD PTR ds:0x43bf3c,ecx
  4185c9:	mov    edx,DWORD PTR ds:0x419004
  4185cf:	mov    DWORD PTR ds:0x43bf40,edx
  4185d5:	mov    eax,ds:0x419008
  4185da:	mov    ds:0x43bf44,eax
  4185df:	mov    ecx,DWORD PTR ds:0x41900c
  4185e5:	mov    DWORD PTR ds:0x43bf48,ecx
  4185eb:	mov    edx,DWORD PTR ds:0x419034
  4185f1:	mov    DWORD PTR ds:0x43bf4c,edx
  4185f7:	mov    eax,ds:0x419010
  4185fc:	mov    ds:0x43bf50,eax
  418601:	mov    ecx,DWORD PTR ds:0x419038
  418607:	mov    DWORD PTR ds:0x43bf54,ecx
  41860d:	mov    edx,DWORD PTR ds:0x419014
  418613:	mov    DWORD PTR ds:0x43bf58,edx
  418619:	mov    eax,ds:0x419018
  41861e:	mov    ds:0x43bf5c,eax
  418623:	mov    ecx,DWORD PTR ds:0x41901c
  418629:	mov    DWORD PTR ds:0x43bf60,ecx
  41862f:	mov    edx,DWORD PTR ds:0x419020
  418635:	mov    DWORD PTR ds:0x43bf64,edx
  41863b:	mov    eax,ds:0x419024
  418640:	mov    ds:0x43bf68,eax
  418645:	mov    ecx,DWORD PTR ds:0x419028
  41864b:	mov    DWORD PTR ds:0x43bf6c,ecx
  418651:	mov    edx,DWORD PTR ds:0x41902c
  418657:	mov    DWORD PTR ds:0x43bf70,edx
  41865d:	mov    eax,ds:0x419030
  418662:	mov    ds:0x43bf74,eax
  418667:	mov    ecx,DWORD PTR ds:0x41903c
  41866d:	mov    DWORD PTR ds:0x43bf78,ecx
  418673:	pop    ebp
  418674:	ret    
  418675:	int3   
  418676:	int3   
  418677:	int3   
  418678:	int3   
  418679:	int3   
  41867a:	int3   
  41867b:	int3   
  41867c:	int3   
  41867d:	int3   
  41867e:	int3   
  41867f:	int3   
  418680:	push   ebp
  418681:	mov    ebp,esp
  418683:	mov    eax,ds:0x419318
  418688:	mov    ds:0x43badc,eax
  41868d:	pop    ebp
  41868e:	ret    
  41868f:	int3   
  418690:	push   ebp
  418691:	mov    ebp,esp
  418693:	mov    eax,ds:0x419874
  418698:	mov    ds:0x43b73c,eax
  41869d:	mov    ecx,DWORD PTR ds:0x419870
  4186a3:	mov    DWORD PTR ds:0x43b740,ecx
  4186a9:	mov    edx,DWORD PTR ds:0x41986c
  4186af:	mov    DWORD PTR ds:0x43b744,edx
  4186b5:	mov    eax,ds:0x419868
  4186ba:	mov    ds:0x43b748,eax
  4186bf:	mov    ecx,DWORD PTR ds:0x419864
  4186c5:	mov    DWORD PTR ds:0x43b74c,ecx
  4186cb:	mov    edx,DWORD PTR ds:0x419860
  4186d1:	mov    DWORD PTR ds:0x43b750,edx
  4186d7:	mov    eax,ds:0x41985c
  4186dc:	mov    ds:0x43b754,eax
  4186e1:	mov    ecx,DWORD PTR ds:0x419858
  4186e7:	mov    DWORD PTR ds:0x43b758,ecx
  4186ed:	mov    DWORD PTR ds:0x43b75c,0x403e90
  4186f7:	pop    ebp
  4186f8:	ret    
  4186f9:	int3   
  4186fa:	int3   
  4186fb:	int3   
  4186fc:	int3   
  4186fd:	int3   
  4186fe:	int3   
  4186ff:	int3   
  418700:	push   ebp
  418701:	mov    ebp,esp
  418703:	mov    eax,ds:0x4190a0
  418708:	mov    ds:0x43bae0,eax
  41870d:	mov    ecx,DWORD PTR ds:0x41909c
  418713:	mov    DWORD PTR ds:0x43bae4,ecx
  418719:	mov    edx,DWORD PTR ds:0x419098
  41871f:	mov    DWORD PTR ds:0x43bae8,edx
  418725:	mov    eax,ds:0x419094
  41872a:	mov    ds:0x43baec,eax
  41872f:	mov    ecx,DWORD PTR ds:0x419090
  418735:	mov    DWORD PTR ds:0x43baf0,ecx
  41873b:	mov    edx,DWORD PTR ds:0x419068
  418741:	mov    DWORD PTR ds:0x43baf4,edx
  418747:	mov    eax,ds:0x419048
  41874c:	mov    ds:0x43baf8,eax
  418751:	mov    ecx,DWORD PTR ds:0x41904c
  418757:	mov    DWORD PTR ds:0x43bafc,ecx
  41875d:	mov    edx,DWORD PTR ds:0x419050
  418763:	mov    DWORD PTR ds:0x43bb00,edx
  418769:	mov    eax,ds:0x419054
  41876e:	mov    ds:0x43bb04,eax
  418773:	mov    ecx,DWORD PTR ds:0x419058
  418779:	mov    DWORD PTR ds:0x43bb08,ecx
  41877f:	mov    edx,DWORD PTR ds:0x41905c
  418785:	mov    DWORD PTR ds:0x43bb0c,edx
  41878b:	mov    eax,ds:0x419060
  418790:	mov    ds:0x43bb10,eax
  418795:	mov    ecx,DWORD PTR ds:0x419064
  41879b:	mov    DWORD PTR ds:0x43bb14,ecx
  4187a1:	mov    edx,DWORD PTR ds:0x4190d0
  4187a7:	mov    DWORD PTR ds:0x43bb18,edx
  4187ad:	mov    eax,ds:0x41906c
  4187b2:	mov    ds:0x43bb1c,eax
  4187b7:	mov    ecx,DWORD PTR ds:0x419070
  4187bd:	mov    DWORD PTR ds:0x43bb20,ecx
  4187c3:	mov    edx,DWORD PTR ds:0x419074
  4187c9:	mov    DWORD PTR ds:0x43bb24,edx
  4187cf:	mov    eax,ds:0x419078
  4187d4:	mov    ds:0x43bb28,eax
  4187d9:	mov    ecx,DWORD PTR ds:0x41907c
  4187df:	mov    DWORD PTR ds:0x43bb2c,ecx
  4187e5:	mov    edx,DWORD PTR ds:0x419080
  4187eb:	mov    DWORD PTR ds:0x43bb30,edx
  4187f1:	mov    eax,ds:0x419084
  4187f6:	mov    ds:0x43bb34,eax
  4187fb:	mov    ecx,DWORD PTR ds:0x419088
  418801:	mov    DWORD PTR ds:0x43bb38,ecx
  418807:	mov    edx,DWORD PTR ds:0x41908c
  41880d:	mov    DWORD PTR ds:0x43bb3c,edx
  418813:	mov    eax,ds:0x4190d4
  418818:	mov    ds:0x43bb40,eax
  41881d:	mov    ecx,DWORD PTR ds:0x4190cc
  418823:	mov    DWORD PTR ds:0x43bb44,ecx
  418829:	mov    edx,DWORD PTR ds:0x4190c8
  41882f:	mov    DWORD PTR ds:0x43bb48,edx
  418835:	mov    eax,ds:0x4190c4
  41883a:	mov    ds:0x43bb4c,eax
  41883f:	mov    ecx,DWORD PTR ds:0x4190c0
  418845:	mov    DWORD PTR ds:0x43bb50,ecx
  41884b:	mov    edx,DWORD PTR ds:0x4190bc
  418851:	mov    DWORD PTR ds:0x43bb54,edx
  418857:	mov    eax,ds:0x4190b8
  41885c:	mov    ds:0x43bb58,eax
  418861:	mov    ecx,DWORD PTR ds:0x4190b4
  418867:	mov    DWORD PTR ds:0x43bb5c,ecx
  41886d:	mov    edx,DWORD PTR ds:0x4190b0
  418873:	mov    DWORD PTR ds:0x43bb60,edx
  418879:	mov    eax,ds:0x4190ac
  41887e:	mov    ds:0x43bb64,eax
  418883:	mov    ecx,DWORD PTR ds:0x4190a8
  418889:	mov    DWORD PTR ds:0x43bb68,ecx
  41888f:	mov    edx,DWORD PTR ds:0x4190a4
  418895:	mov    DWORD PTR ds:0x43bb6c,edx
  41889b:	pop    ebp
  41889c:	ret    
  41889d:	int3   
  41889e:	int3   
  41889f:	int3   
  4188a0:	push   ebp
  4188a1:	mov    ebp,esp
  4188a3:	mov    eax,ds:0x419564
  4188a8:	mov    ds:0x43bf24,eax
  4188ad:	mov    ecx,DWORD PTR ds:0x419568
  4188b3:	mov    DWORD PTR ds:0x43bf28,ecx
  4188b9:	mov    edx,DWORD PTR ds:0x41956c
  4188bf:	mov    DWORD PTR ds:0x43bf2c,edx
  4188c5:	mov    eax,ds:0x419570
  4188ca:	mov    ds:0x43bf30,eax
  4188cf:	mov    ecx,DWORD PTR ds:0x419574
  4188d5:	mov    DWORD PTR ds:0x43bf34,ecx
  4188db:	pop    ebp
  4188dc:	ret    
  4188dd:	int3   
  4188de:	int3   
  4188df:	int3   
  4188e0:	push   ebp
  4188e1:	mov    ebp,esp
  4188e3:	mov    eax,ds:0x41951c
  4188e8:	mov    ds:0x43bad4,eax
  4188ed:	mov    ecx,DWORD PTR ds:0x419538
  4188f3:	mov    DWORD PTR ds:0x43bad8,ecx
  4188f9:	pop    ebp
  4188fa:	ret    
  4188fb:	int3   
  4188fc:	int3   
  4188fd:	int3   
  4188fe:	int3   
  4188ff:	int3   
  418900:	push   ebp
  418901:	mov    ebp,esp
  418903:	mov    eax,ds:0x419534
  418908:	mov    ds:0x43b718,eax
  41890d:	mov    ecx,DWORD PTR ds:0x419530
  418913:	mov    DWORD PTR ds:0x43b71c,ecx
  418919:	mov    edx,DWORD PTR ds:0x41952c
  41891f:	mov    DWORD PTR ds:0x43b720,edx
  418925:	mov    eax,ds:0x419528
  41892a:	mov    ds:0x43b724,eax
  41892f:	mov    ecx,DWORD PTR ds:0x419524
  418935:	mov    DWORD PTR ds:0x43b728,ecx
  41893b:	mov    edx,DWORD PTR ds:0x419520
  418941:	mov    DWORD PTR ds:0x43b72c,edx
  418947:	pop    ebp
  418948:	ret    
  418949:	int3   
  41894a:	int3   
  41894b:	int3   
  41894c:	int3   
  41894d:	int3   
  41894e:	int3   
  41894f:	int3   
  418950:	push   ebp
  418951:	mov    ebp,esp
  418953:	push   0x40
  418955:	push   0x1000
  41895a:	push   0x6ba
  41895f:	push   0x0
  418961:	call   DWORD PTR ds:0x419310
  418967:	mov    ds:0x43b714,eax
  41896c:	pop    ebp
  41896d:	ret    
