
a3e2d43835bd65f34b541521dd690f0a0a57056a375e5a9d31c09e810bee22cf.exe:     file format pei-i386


Disassembly of section .text:

00401000 <.text>:
  401000:	mov    edi,edi
  401002:	push   ebp
  401003:	mov    ebp,esp
  401005:	sub    esp,0x30
  401008:	push   edx
  401009:	push   DWORD PTR [edx+0x2c8]
  40100f:	push   edi
  401010:	push   DWORD PTR [edx+0x290]
  401016:	call   0x401960
  40101b:	add    esp,0xc
  40101e:	pop    edx
  40101f:	push   edx
  401020:	lea    ebx,[edx]
  401022:	push   ebx
  401023:	push   0x40304c
  401028:	pop    eax
  401029:	call   DWORD PTR cs:[eax]
  40102c:	test   eax,eax
  40102e:	jne    0x401020
  401030:	pop    edx
  401031:	push   edx
  401032:	push   0x0
  401034:	push   0x403024
  401039:	pop    eax
  40103a:	call   DWORD PTR cs:[eax]
  40103d:	pop    edx
  40103e:	sub    esp,0xffffffd0
  401041:	mov    ebp,DWORD PTR [esp]
  401044:	add    esp,0x4
  401047:	ret    
  401048:	mov    edi,edi
  40104a:	push   ebp
  40104b:	mov    ebp,esp
  40104d:	sub    esp,0x40
  401050:	push   edx
  401051:	mov    ebx,0x0
  401056:	push   ebx
  401057:	push   0x40306c
  40105c:	pop    eax
  40105d:	call   DWORD PTR cs:[eax]
  401060:	pop    edx
  401061:	push   edx
  401062:	push   ebx
  401063:	push   edi
  401064:	call   0x401000
  401069:	add    esp,0x8
  40106c:	pop    edx
  40106d:	push   edx
  40106e:	push   0x403010
  401073:	pop    eax
  401074:	call   DWORD PTR cs:[eax]
  401077:	pop    edx
  401078:	sub    esp,0xffffffc0
  40107b:	mov    ebp,DWORD PTR [esp]
  40107e:	add    esp,0x4
  401081:	ret    
	...
  40108a:	add    BYTE PTR [eax],al
  40108c:	mov    edi,edi
  40108e:	pusha  
  40108f:	push   ebp
  401090:	mov    ebp,esp
  401092:	sub    esp,0x34
  401095:	push   edx
  401096:	push   0x0
  401098:	push   0x403014
  40109d:	pop    eax
  40109e:	call   DWORD PTR cs:[eax]
  4010a1:	pop    edx
  4010a2:	test   eax,eax
  4010a4:	je     0x4010a7
  4010a6:	ret    
  4010a7:	push   edx
  4010a8:	push   ecx
  4010a9:	push   edi
  4010aa:	push   eax
  4010ab:	call   0x401908
  4010b0:	add    esp,0xc
  4010b3:	pop    edx
  4010b4:	push   edx
  4010b5:	push   0x0
  4010b7:	push   0x403000
  4010bc:	pop    eax
  4010bd:	call   DWORD PTR cs:[eax]
  4010c0:	pop    edx
  4010c1:	mov    edi,0x40304c
  4010c6:	mov    edi,DWORD PTR [edi]
  4010c8:	push   edi
  4010c9:	push   DWORD PTR [edx+0x180]
  4010cf:	pop    esi
  4010d0:	call   esi
  4010d2:	sub    esp,0xffffffcc
  4010d5:	mov    ebp,DWORD PTR [esp]
  4010d8:	add    esp,0x4
  4010db:	ret    
  4010dc:	jb     0x40108c
  4010e2:	add    BYTE PTR [eax],al
  4010e4:	mov    edi,edi
  4010e6:	push   ebp
  4010e7:	mov    ebp,esp
  4010e9:	sub    esp,0x2c
  4010ec:	push   edx
  4010ed:	push   DWORD PTR [edx+0x31c]
  4010f3:	push   DWORD PTR [edx+0x4f0]
  4010f9:	push   DWORD PTR [edx+0x1e0]
  4010ff:	call   0x401384
  401104:	add    esp,0xc
  401107:	pop    edx
  401108:	push   edx
  401109:	push   0x0
  40110b:	push   0x403040
  401110:	pop    eax
  401111:	call   DWORD PTR cs:[eax]
  401114:	pop    edx
  401115:	push   edx
  401116:	mov    eax,0x0
  40111b:	push   eax
  40111c:	push   0x403024
  401121:	pop    eax
  401122:	call   DWORD PTR cs:[eax]
  401125:	pop    edx
  401126:	sub    esp,0xffffffd4
  401129:	mov    ebp,DWORD PTR [esp]
  40112c:	add    esp,0x4
  40112f:	ret    
	...
  401138:	mov    edi,edi
  40113a:	push   ebp
  40113b:	mov    ebp,esp
  40113d:	sub    esp,0x54
  401140:	push   edx
  401141:	push   DWORD PTR [edx+0x38c]
  401147:	push   DWORD PTR [edx+0x454]
  40114d:	call   0x4016c0
  401152:	add    esp,0x8
  401155:	pop    edx
  401156:	push   edx
  401157:	push   0x0
  401159:	push   0x40300c
  40115e:	pop    eax
  40115f:	call   DWORD PTR cs:[eax]
  401162:	pop    edx
  401163:	push   edx
  401164:	mov    edx,0x0
  401169:	push   edx
  40116a:	push   0x40306c
  40116f:	pop    eax
  401170:	call   DWORD PTR cs:[eax]
  401173:	pop    edx
  401174:	sub    esp,0xffffffac
  401177:	mov    ebp,DWORD PTR [esp]
  40117a:	add    esp,0x4
  40117d:	ret    
	...
  401186:	add    BYTE PTR [eax],al
  401188:	mov    edi,edi
  40118a:	push   ebp
  40118b:	mov    ebp,esp
  40118d:	sub    esp,0x60
  401190:	push   edx
  401191:	mov    edx,0x0
  401196:	push   edx
  401197:	push   0x40300c
  40119c:	pop    eax
  40119d:	call   DWORD PTR cs:[eax]
  4011a0:	pop    edx
  4011a1:	push   edx
  4011a2:	push   DWORD PTR [edx+0x5c4]
  4011a8:	push   DWORD PTR [edx+0x1f0]
  4011ae:	push   DWORD PTR [edx+0x3c]
  4011b1:	call   0x4011d4
  4011b6:	add    esp,0xc
  4011b9:	pop    edx
  4011ba:	push   edx
  4011bb:	push   0x0
  4011bd:	push   0x40306c
  4011c2:	pop    eax
  4011c3:	call   DWORD PTR cs:[eax]
  4011c6:	pop    edx
  4011c7:	sub    esp,0xffffffa0
  4011ca:	mov    ebp,DWORD PTR [esp]
  4011cd:	add    esp,0x4
  4011d0:	ret    
  4011d1:	add    BYTE PTR [eax],al
  4011d3:	add    BYTE PTR [ebx-0x1374aa01],cl
  4011d9:	sub    esp,0x48
  4011dc:	push   edx
  4011dd:	push   edi
  4011de:	push   DWORD PTR [edx+0x320]
  4011e4:	push   ecx
  4011e5:	push   ebx
  4011e6:	call   0x401cbc
  4011eb:	add    esp,0x10
  4011ee:	pop    edx
  4011ef:	push   edx
  4011f0:	push   0x0
  4011f2:	push   0x403004
  4011f7:	pop    eax
  4011f8:	call   DWORD PTR cs:[eax]
  4011fb:	pop    edx
  4011fc:	push   edx
  4011fd:	mov    edx,0x0
  401202:	push   edx
  401203:	push   0x403080
  401208:	pop    eax
  401209:	call   DWORD PTR cs:[eax]
  40120c:	pop    edx
  40120d:	sub    esp,0xffffffb8
  401210:	mov    ebp,DWORD PTR [esp]
  401213:	add    esp,0x4
  401216:	ret    
  401217:	add    BYTE PTR [ebx-0x1374aa01],cl
  40121d:	sub    esp,0x30
  401220:	push   edx
  401221:	push   DWORD PTR [edx+0x2a8]
  401227:	push   ebx
  401228:	call   0x401b9c
  40122d:	add    esp,0x8
  401230:	pop    edx
  401231:	push   edx
  401232:	push   0x403010
  401237:	pop    eax
  401238:	call   DWORD PTR cs:[eax]
  40123b:	pop    edx
  40123c:	push   edx
  40123d:	push   0x0
  40123f:	push   0x40303c
  401244:	pop    eax
  401245:	call   DWORD PTR cs:[eax]
  401248:	pop    edx
  401249:	sub    esp,0xffffffd0
  40124c:	mov    ebp,DWORD PTR [esp]
  40124f:	add    esp,0x4
  401252:	ret    
	...
  40125b:	add    BYTE PTR [ebx-0x1374aa01],cl
  401261:	sub    esp,0x50
  401264:	push   edx
  401265:	push   0x6b0
  40126a:	mov    esi,0x6b0
  40126f:	push   esi
  401270:	push   0x40000
  401275:	push   0x403028
  40127a:	pop    esi
  40127b:	push   DWORD PTR [esi]
  40127d:	sub    DWORD PTR [esp],0x2
  401281:	push   0x40302c
  401286:	pop    esi
  401287:	pop    DWORD PTR [esi]
  401289:	push   0x40302c
  40128e:	pop    eax
  40128f:	call   DWORD PTR cs:[eax]
  401292:	xchg   DWORD PTR [esp],eax
  401295:	mov    edx,eax
  401297:	pop    eax
  401298:	mov    DWORD PTR [edx+0x180],eax
  40129e:	mov    ecx,DWORD PTR [edx+0x180]
  4012a4:	lea    ecx,[ecx]
  4012a6:	sub    esi,esi
  4012a8:	dec    esi
  4012a9:	and    esi,0x401e91
  4012af:	mov    eax,DWORD PTR [esi]
  4012b1:	mov    DWORD PTR [ecx],eax
  4012b3:	add    esi,0x1
  4012b6:	add    ecx,0x1
  4012b9:	mov    eax,0x88a29212
  4012be:	xor    ebx,ebx
  4012c0:	mov    edi,eax
  4012c2:	xor    edi,DWORD PTR [esi]
  4012c4:	sub    edi,0x1
  4012c7:	mov    DWORD PTR [ecx],edi
  4012c9:	push   DWORD PTR [ecx]
  4012cb:	mov    eax,0xfffffffc
  4012d0:	sub    esi,eax
  4012d2:	sub    ecx,eax
  4012d4:	pop    eax
  4012d5:	bswap  eax
  4012d7:	add    ebx,0x4
  4012da:	cmp    ebx,0x6b0
  4012e0:	jne    0x4012c0
  4012e2:	push   edx
  4012e3:	mov    ebx,0x0
  4012e8:	push   ebx
  4012e9:	push   0x403040
  4012ee:	pop    eax
  4012ef:	call   DWORD PTR cs:[eax]
  4012f2:	pop    edx
  4012f3:	sub    esp,0xffffffb0
  4012f6:	pop    ebp
  4012f7:	ret    
  4012f8:	add    BYTE PTR [eax],al
  4012fa:	add    BYTE PTR [eax],al
  4012fc:	mov    edi,edi
  4012fe:	push   ebp
  4012ff:	mov    ebp,esp
  401301:	sub    esp,0x60
  401304:	push   edx
  401305:	push   0x0
  401307:	push   0x403014
  40130c:	pop    eax
  40130d:	call   DWORD PTR cs:[eax]
  401310:	pop    edx
  401311:	push   edx
  401312:	push   ebx
  401313:	push   esi
  401314:	push   DWORD PTR [edx+0x580]
  40131a:	push   DWORD PTR [edx+0x598]
  401320:	call   0x40151c
  401325:	add    esp,0x10
  401328:	pop    edx
  401329:	push   edx
  40132a:	push   0x403010
  40132f:	pop    eax
  401330:	call   DWORD PTR cs:[eax]
  401333:	pop    edx
  401334:	sub    esp,0xffffffa0
  401337:	mov    ebp,DWORD PTR [esp]
  40133a:	add    esp,0x4
  40133d:	ret    
  40133e:	add    BYTE PTR [eax],al
  401340:	mov    edi,edi
  401342:	push   ebp
  401343:	mov    ebp,esp
  401345:	sub    esp,0x44
  401348:	push   edx
  401349:	push   0x0
  40134b:	push   0x40300c
  401350:	pop    eax
  401351:	call   DWORD PTR cs:[eax]
  401354:	pop    edx
  401355:	push   edx
  401356:	push   ecx
  401357:	push   eax
  401358:	push   DWORD PTR [edx+0x8]
  40135b:	call   0x401dec
  401360:	add    esp,0xc
  401363:	pop    edx
  401364:	push   edx
  401365:	push   0x0
  401367:	push   0x403040
  40136c:	pop    eax
  40136d:	call   DWORD PTR cs:[eax]
  401370:	pop    edx
  401371:	sub    esp,0xffffffbc
  401374:	mov    ebp,DWORD PTR [esp]
  401377:	add    esp,0x4
  40137a:	ret    
	...
  401383:	add    BYTE PTR [ebx-0x1374aa01],cl
  401389:	sub    esp,0x60
  40138c:	push   edx
  40138d:	mov    eax,0x0
  401392:	push   eax
  401393:	push   0x40300c
  401398:	pop    eax
  401399:	call   DWORD PTR cs:[eax]
  40139c:	pop    edx
  40139d:	push   edx
  40139e:	push   DWORD PTR [edx+0x18c]
  4013a4:	push   edi
  4013a5:	push   DWORD PTR [edx+0x32c]
  4013ab:	call   0x4012fc
  4013b0:	add    esp,0xc
  4013b3:	pop    edx
  4013b4:	push   edx
  4013b5:	push   0x0
  4013b7:	push   0x403080
  4013bc:	pop    eax
  4013bd:	call   DWORD PTR cs:[eax]
  4013c0:	pop    edx
  4013c1:	sub    esp,0xffffffa0
  4013c4:	mov    ebp,DWORD PTR [esp]
  4013c7:	add    esp,0x4
  4013ca:	ret    
	...
  4013d3:	add    BYTE PTR [ebx-0x1374aa01],cl
  4013d9:	sub    esp,0x40
  4013dc:	push   edx
  4013dd:	push   0x403048
  4013e2:	pop    eax
  4013e3:	call   DWORD PTR cs:[eax]
  4013e6:	pop    edx
  4013e7:	push   edx
  4013e8:	push   DWORD PTR [edx+0x544]
  4013ee:	push   esi
  4013ef:	call   0x401b0c
  4013f4:	add    esp,0x8
  4013f7:	pop    edx
  4013f8:	push   edx
  4013f9:	mov    eax,0x0
  4013fe:	push   eax
  4013ff:	push   0x40305c
  401404:	pop    eax
  401405:	call   DWORD PTR cs:[eax]
  401408:	pop    edx
  401409:	sub    esp,0xffffffc0
  40140c:	mov    ebp,DWORD PTR [esp]
  40140f:	add    esp,0x4
  401412:	ret    
  401413:	add    BYTE PTR [ebx-0x1374aa01],cl
  401419:	sub    esp,0x24
  40141c:	push   edx
  40141d:	push   ebx
  40141e:	push   DWORD PTR [edx+0x4c0]
  401424:	push   eax
  401425:	call   0x4014dc
  40142a:	add    esp,0xc
  40142d:	pop    edx
  40142e:	push   edx
  40142f:	mov    eax,0x0
  401434:	push   eax
  401435:	push   0x40301c
  40143a:	pop    eax
  40143b:	call   DWORD PTR cs:[eax]
  40143e:	pop    edx
  40143f:	push   edx
  401440:	lea    eax,[edx]
  401442:	push   eax
  401443:	push   0x40304c
  401448:	pop    eax
  401449:	call   DWORD PTR cs:[eax]
  40144c:	test   eax,eax
  40144e:	jne    0x401440
  401450:	pop    edx
  401451:	sub    esp,0xffffffdc
  401454:	mov    ebp,DWORD PTR [esp]
  401457:	add    esp,0x4
  40145a:	ret    
  40145b:	add    BYTE PTR [ebx-0x1374aa01],cl
  401461:	sub    esp,0x20
  401464:	push   edx
  401465:	push   ecx
  401466:	push   edi
  401467:	call   0x401a68
  40146c:	add    esp,0x8
  40146f:	pop    edx
  401470:	push   edx
  401471:	push   0x0
  401473:	push   0x40306c
  401478:	pop    eax
  401479:	call   DWORD PTR cs:[eax]
  40147c:	pop    edx
  40147d:	push   edx
  40147e:	push   0x0
  401480:	push   0x403080
  401485:	pop    eax
  401486:	call   DWORD PTR cs:[eax]
  401489:	pop    edx
  40148a:	sub    esp,0xffffffe0
  40148d:	mov    ebp,DWORD PTR [esp]
  401490:	add    esp,0x4
  401493:	ret    
  401494:	add    BYTE PTR [eax],al
  401496:	add    BYTE PTR [eax],al
  401498:	xor    eax,eax
  40149a:	add    eax,0x47e000
  40149f:	push   eax
  4014a0:	xor    ecx,ecx
  4014a2:	or     ecx,0x403094
  4014a8:	and    WORD PTR [ecx],0x0
  4014ac:	push   DWORD PTR [ecx]
  4014ae:	pop    eax
  4014af:	mov    edx,eax
  4014b1:	push   0x3c
  4014b3:	add    DWORD PTR [esp],eax
  4014b6:	pop    ecx
  4014b7:	xor    eax,eax
  4014b9:	push   DWORD PTR [eax+ecx*1]
  4014bc:	pop    eax
  4014bd:	mov    edx,DWORD PTR [eax+edx*1+0x1c]
  4014c1:	ror    edx,0x8
  4014c4:	xor    eax,eax
  4014c6:	or     al,0x50
  4014c8:	cmp    al,dl
  4014ca:	pop    edx
  4014cb:	ja     0x4014d6
  4014cd:	nop
  4014ce:	nop
  4014cf:	nop
  4014d0:	nop
  4014d1:	jmp    0x4010dc
  4014d6:	push   0x0
  4014d8:	pop    esp
  4014d9:	sti    
  4014da:	sub    esp,DWORD PTR [ebx-0x75]
  4014dd:	call   DWORD PTR [ebp-0x75]
  4014e0:	in     al,dx
  4014e1:	sub    esp,0x4c
  4014e4:	push   edx
  4014e5:	push   0x0
  4014e7:	push   0x403024
  4014ec:	pop    eax
  4014ed:	call   DWORD PTR cs:[eax]
  4014f0:	pop    edx
  4014f1:	push   edx
  4014f2:	push   DWORD PTR [edx+0x130]
  4014f8:	push   ecx
  4014f9:	call   0x40125c
  4014fe:	add    esp,0x8
  401501:	pop    edx
  401502:	push   edx
  401503:	push   0x0
  401505:	push   0x40306c
  40150a:	pop    eax
  40150b:	call   DWORD PTR cs:[eax]
  40150e:	pop    edx
  40150f:	sub    esp,0xffffffb4
  401512:	mov    ebp,DWORD PTR [esp]
  401515:	add    esp,0x4
  401518:	ret    
  401519:	add    BYTE PTR [eax],al
  40151b:	add    BYTE PTR [ebx-0x1374aa01],cl
  401521:	sub    esp,0x24
  401524:	push   edx
  401525:	push   0x0
  401527:	push   0x40303c
  40152c:	pop    eax
  40152d:	call   DWORD PTR cs:[eax]
  401530:	pop    edx
  401531:	push   edx
  401532:	push   edi
  401533:	push   DWORD PTR [edx+0xb8]
  401539:	push   DWORD PTR [edx+0x2f0]
  40153f:	call   0x401188
  401544:	add    esp,0xc
  401547:	pop    edx
  401548:	push   edx
  401549:	push   0x0
  40154b:	push   0x40306c
  401550:	pop    eax
  401551:	call   DWORD PTR cs:[eax]
  401554:	pop    edx
  401555:	sub    esp,0xffffffdc
  401558:	mov    ebp,DWORD PTR [esp]
  40155b:	add    esp,0x4
  40155e:	ret    
	...
  40156b:	add    BYTE PTR [ebx-0x1374aa01],cl
  401571:	sub    esp,0x20
  401574:	push   edx
  401575:	push   esi
  401576:	push   DWORD PTR [edx+0x2b4]
  40157c:	push   edi
  40157d:	call   0x401048
  401582:	add    esp,0xc
  401585:	pop    edx
  401586:	push   edx
  401587:	push   0x0
  401589:	push   0x403004
  40158e:	pop    eax
  40158f:	call   DWORD PTR cs:[eax]
  401592:	pop    edx
  401593:	push   edx
  401594:	push   0x0
  401596:	push   0x403000
  40159b:	pop    eax
  40159c:	call   DWORD PTR cs:[eax]
  40159f:	pop    edx
  4015a0:	sub    esp,0xffffffe0
  4015a3:	mov    ebp,DWORD PTR [esp]
  4015a6:	add    esp,0x4
  4015a9:	ret    
  4015aa:	add    BYTE PTR [eax],al
  4015ac:	mov    edi,edi
  4015ae:	push   ebp
  4015af:	mov    ebp,esp
  4015b1:	sub    esp,0x48
  4015b4:	push   edx
  4015b5:	push   DWORD PTR [edx+0x11c]
  4015bb:	push   DWORD PTR [edx+0x2cc]
  4015c1:	push   esi
  4015c2:	push   DWORD PTR [edx+0x36c]
  4015c8:	call   0x4017e4
  4015cd:	add    esp,0x10
  4015d0:	pop    edx
  4015d1:	push   edx
  4015d2:	push   0x0
  4015d4:	push   0x403080
  4015d9:	pop    eax
  4015da:	call   DWORD PTR cs:[eax]
  4015dd:	pop    edx
  4015de:	push   edx
  4015df:	push   0x403010
  4015e4:	pop    eax
  4015e5:	call   DWORD PTR cs:[eax]
  4015e8:	pop    edx
  4015e9:	sub    esp,0xffffffb8
  4015ec:	mov    ebp,DWORD PTR [esp]
  4015ef:	add    esp,0x4
  4015f2:	ret    
  4015f3:	add    BYTE PTR [ebx-0x1374aa01],cl
  4015f9:	sub    esp,0x54
  4015fc:	push   edx
  4015fd:	push   ecx
  4015fe:	push   edi
  4015ff:	push   edi
  401600:	push   edi
  401601:	call   0x401d48
  401606:	add    esp,0x10
  401609:	pop    edx
  40160a:	push   edx
  40160b:	push   0x0
  40160d:	push   0x40306c
  401612:	pop    eax
  401613:	call   DWORD PTR cs:[eax]
  401616:	pop    edx
  401617:	push   edx
  401618:	push   0x0
  40161a:	push   0x40303c
  40161f:	pop    eax
  401620:	call   DWORD PTR cs:[eax]
  401623:	pop    edx
  401624:	sub    esp,0xffffffac
  401627:	mov    ebp,DWORD PTR [esp]
  40162a:	add    esp,0x4
  40162d:	ret    
  40162e:	add    BYTE PTR [eax],al
  401630:	mov    edi,edi
  401632:	push   ebp
  401633:	mov    ebp,esp
  401635:	sub    esp,0x4c
  401638:	push   edx
  401639:	push   DWORD PTR [edx+0x5d8]
  40163f:	push   esi
  401640:	call   0x401138
  401645:	add    esp,0x8
  401648:	pop    edx
  401649:	push   edx
  40164a:	mov    esi,0x0
  40164f:	push   esi
  401650:	push   0x40301c
  401655:	pop    eax
  401656:	call   DWORD PTR cs:[eax]
  401659:	pop    edx
  40165a:	push   edx
  40165b:	mov    ecx,0x0
  401660:	push   ecx
  401661:	push   0x40306c
  401666:	pop    eax
  401667:	call   DWORD PTR cs:[eax]
  40166a:	pop    edx
  40166b:	sub    esp,0xffffffb4
  40166e:	mov    ebp,DWORD PTR [esp]
  401671:	add    esp,0x4
  401674:	ret    
  401675:	add    BYTE PTR [eax],al
  401677:	add    BYTE PTR [ebx-0x1374aa01],cl
  40167d:	sub    esp,0x44
  401680:	push   edx
  401681:	mov    eax,0x0
  401686:	push   eax
  401687:	push   0x40306c
  40168c:	pop    eax
  40168d:	call   DWORD PTR cs:[eax]
  401690:	pop    edx
  401691:	push   edx
  401692:	push   esi
  401693:	push   eax
  401694:	call   0x401798
  401699:	add    esp,0x8
  40169c:	pop    edx
  40169d:	push   edx
  40169e:	mov    edi,0x0
  4016a3:	push   edi
  4016a4:	push   0x403040
  4016a9:	pop    eax
  4016aa:	call   DWORD PTR cs:[eax]
  4016ad:	pop    edx
  4016ae:	sub    esp,0xffffffbc
  4016b1:	mov    ebp,DWORD PTR [esp]
  4016b4:	add    esp,0x4
  4016b7:	ret    
	...
  4016c0:	mov    edi,edi
  4016c2:	push   ebp
  4016c3:	mov    ebp,esp
  4016c5:	sub    esp,0x50
  4016c8:	push   edx
  4016c9:	mov    esi,0x0
  4016ce:	push   esi
  4016cf:	push   0x403018
  4016d4:	pop    eax
  4016d5:	call   DWORD PTR cs:[eax]
  4016d8:	pop    edx
  4016d9:	push   edx
  4016da:	push   DWORD PTR [edx+0x5bc]
  4016e0:	push   edi
  4016e1:	call   0x40156c
  4016e6:	add    esp,0x8
  4016e9:	pop    edx
  4016ea:	push   edx
  4016eb:	mov    eax,0x0
  4016f0:	push   eax
  4016f1:	push   0x403000
  4016f6:	pop    eax
  4016f7:	call   DWORD PTR cs:[eax]
  4016fa:	pop    edx
  4016fb:	sub    esp,0xffffffb0
  4016fe:	mov    ebp,DWORD PTR [esp]
  401701:	add    esp,0x4
  401704:	ret    
  401705:	add    BYTE PTR [eax],al
  401707:	add    BYTE PTR [ebx-0x1374aa01],cl
  40170d:	sub    esp,0x34
  401710:	push   edx
  401711:	push   0x0
  401713:	push   0x403014
  401718:	pop    eax
  401719:	call   DWORD PTR cs:[eax]
  40171c:	pop    edx
  40171d:	push   edx
  40171e:	push   esi
  40171f:	push   DWORD PTR [edx+0x43c]
  401725:	push   DWORD PTR [edx+0x2b4]
  40172b:	push   ebx
  40172c:	call   0x4018c8
  401731:	add    esp,0x10
  401734:	pop    edx
  401735:	push   edx
  401736:	mov    ecx,0x0
  40173b:	push   ecx
  40173c:	push   0x403024
  401741:	pop    eax
  401742:	call   DWORD PTR cs:[eax]
  401745:	pop    edx
  401746:	sub    esp,0xffffffcc
  401749:	mov    ebp,DWORD PTR [esp]
  40174c:	add    esp,0x4
  40174f:	ret    
  401750:	add    BYTE PTR [eax],al
  401752:	add    BYTE PTR [eax],al
  401754:	mov    edi,edi
  401756:	push   ebp
  401757:	mov    ebp,esp
  401759:	sub    esp,0x48
  40175c:	push   edx
  40175d:	push   DWORD PTR [edx+0x18]
  401760:	push   ebx
  401761:	push   DWORD PTR [edx+0x588]
  401767:	call   0x401e30
  40176c:	add    esp,0xc
  40176f:	pop    edx
  401770:	push   edx
  401771:	push   0x0
  401773:	push   0x403040
  401778:	pop    eax
  401779:	call   DWORD PTR cs:[eax]
  40177c:	pop    edx
  40177d:	push   edx
  40177e:	mov    ebx,0x0
  401783:	push   ebx
  401784:	push   0x40300c
  401789:	pop    eax
  40178a:	call   DWORD PTR cs:[eax]
  40178d:	pop    edx
  40178e:	sub    esp,0xffffffb8
  401791:	mov    ebp,DWORD PTR [esp]
  401794:	add    esp,0x4
  401797:	ret    
  401798:	mov    edi,edi
  40179a:	push   ebp
  40179b:	mov    ebp,esp
  40179d:	sub    esp,0x54
  4017a0:	push   edx
  4017a1:	push   DWORD PTR [edx+0x210]
  4017a7:	push   eax
  4017a8:	push   DWORD PTR [edx+0x2c0]
  4017ae:	call   0x4019e8
  4017b3:	add    esp,0xc
  4017b6:	pop    edx
  4017b7:	push   edx
  4017b8:	push   0x0
  4017ba:	push   0x40303c
  4017bf:	pop    eax
  4017c0:	call   DWORD PTR cs:[eax]
  4017c3:	pop    edx
  4017c4:	push   edx
  4017c5:	mov    esi,0x0
  4017ca:	push   esi
  4017cb:	push   0x403080
  4017d0:	pop    eax
  4017d1:	call   DWORD PTR cs:[eax]
  4017d4:	pop    edx
  4017d5:	sub    esp,0xffffffac
  4017d8:	mov    ebp,DWORD PTR [esp]
  4017db:	add    esp,0x4
  4017de:	ret    
  4017df:	add    BYTE PTR [eax],al
  4017e1:	add    BYTE PTR [eax],al
  4017e3:	add    BYTE PTR [ebx-0x1374aa01],cl
  4017e9:	sub    esp,0x50
  4017ec:	push   edx
  4017ed:	push   0x0
  4017ef:	push   0x403040
  4017f4:	pop    eax
  4017f5:	call   DWORD PTR cs:[eax]
  4017f8:	pop    edx
  4017f9:	push   edx
  4017fa:	push   DWORD PTR [edx+0x370]
  401800:	push   DWORD PTR [edx+0x4a0]
  401806:	call   0x401d9c
  40180b:	add    esp,0x8
  40180e:	pop    edx
  40180f:	push   edx
  401810:	mov    ebx,0x0
  401815:	push   ebx
  401816:	push   0x40303c
  40181b:	pop    eax
  40181c:	call   DWORD PTR cs:[eax]
  40181f:	pop    edx
  401820:	sub    esp,0xffffffb0
  401823:	mov    ebp,DWORD PTR [esp]
  401826:	add    esp,0x4
  401829:	ret    
	...
  40183a:	add    BYTE PTR [eax],al
  40183c:	mov    edi,edi
  40183e:	push   ebp
  40183f:	mov    ebp,esp
  401841:	sub    esp,0x48
  401844:	push   edx
  401845:	push   eax
  401846:	push   DWORD PTR [edx+0xcc]
  40184c:	call   0x401754
  401851:	add    esp,0x8
  401854:	pop    edx
  401855:	push   edx
  401856:	push   0x0
  401858:	push   0x403000
  40185d:	pop    eax
  40185e:	call   DWORD PTR cs:[eax]
  401861:	pop    edx
  401862:	push   edx
  401863:	push   0x403010
  401868:	pop    eax
  401869:	call   DWORD PTR cs:[eax]
  40186c:	pop    edx
  40186d:	sub    esp,0xffffffb8
  401870:	mov    ebp,DWORD PTR [esp]
  401873:	add    esp,0x4
  401876:	ret    
  401877:	add    BYTE PTR [eax],al
  401879:	add    BYTE PTR [eax],al
  40187b:	add    BYTE PTR [ebx-0x1374aa01],cl
  401881:	sub    esp,0x4c
  401884:	push   edx
  401885:	mov    ebx,0x0
  40188a:	push   ebx
  40188b:	push   0x40300c
  401890:	pop    eax
  401891:	call   DWORD PTR cs:[eax]
  401894:	pop    edx
  401895:	push   edx
  401896:	push   DWORD PTR [edx+0x5f8]
  40189c:	push   DWORD PTR [edx+0x14c]
  4018a2:	call   0x40145c
  4018a7:	add    esp,0x8
  4018aa:	pop    edx
  4018ab:	push   edx
  4018ac:	mov    eax,0x0
  4018b1:	push   eax
  4018b2:	push   0x403018
  4018b7:	pop    eax
  4018b8:	call   DWORD PTR cs:[eax]
  4018bb:	pop    edx
  4018bc:	sub    esp,0xffffffb4
  4018bf:	mov    ebp,DWORD PTR [esp]
  4018c2:	add    esp,0x4
  4018c5:	ret    
  4018c6:	add    BYTE PTR [eax],al
  4018c8:	mov    edi,edi
  4018ca:	push   ebp
  4018cb:	mov    ebp,esp
  4018cd:	sub    esp,0x58
  4018d0:	push   edx
  4018d1:	push   eax
  4018d2:	push   edi
  4018d3:	push   esi
  4018d4:	push   eax
  4018d5:	call   0x401ab8
  4018da:	add    esp,0x10
  4018dd:	pop    edx
  4018de:	push   edx
  4018df:	lea    ebx,[edx]
  4018e1:	push   ebx
  4018e2:	push   0x40304c
  4018e7:	pop    eax
  4018e8:	call   DWORD PTR cs:[eax]
  4018eb:	test   eax,eax
  4018ed:	jne    0x4018df
  4018ef:	pop    edx
  4018f0:	push   edx
  4018f1:	push   0x0
  4018f3:	push   0x403040
  4018f8:	pop    eax
  4018f9:	call   DWORD PTR cs:[eax]
  4018fc:	pop    edx
  4018fd:	sub    esp,0xffffffa8
  401900:	mov    ebp,DWORD PTR [esp]
  401903:	add    esp,0x4
  401906:	ret    
  401907:	add    BYTE PTR [ebx-0x1374aa01],cl
  40190d:	sub    esp,0x20
  401910:	push   edx
  401911:	push   DWORD PTR [edx+0x57c]
  401917:	push   DWORD PTR [edx+0x20c]
  40191d:	push   DWORD PTR [edx+0x3ac]
  401923:	push   DWORD PTR [edx+0x80]
  401929:	call   0x401b5c
  40192e:	add    esp,0x10
  401931:	pop    edx
  401932:	push   edx
  401933:	push   0x0
  401935:	push   0x40300c
  40193a:	pop    eax
  40193b:	call   DWORD PTR cs:[eax]
  40193e:	pop    edx
  40193f:	push   edx
  401940:	mov    edx,0x0
  401945:	push   edx
  401946:	push   0x40301c
  40194b:	pop    eax
  40194c:	call   DWORD PTR cs:[eax]
  40194f:	pop    edx
  401950:	sub    esp,0xffffffe0
  401953:	mov    ebp,DWORD PTR [esp]
  401956:	add    esp,0x4
  401959:	ret    
  40195a:	add    BYTE PTR [eax],al
  40195c:	add    BYTE PTR [eax],al
  40195e:	add    BYTE PTR [eax],al
  401960:	mov    edi,edi
  401962:	push   ebp
  401963:	mov    ebp,esp
  401965:	sub    esp,0x50
  401968:	push   edx
  401969:	mov    edx,0x0
  40196e:	push   edx
  40196f:	push   0x403018
  401974:	pop    eax
  401975:	call   DWORD PTR cs:[eax]
  401978:	pop    edx
  401979:	push   edx
  40197a:	push   ecx
  40197b:	push   esi
  40197c:	call   0x40187c
  401981:	add    esp,0x8
  401984:	pop    edx
  401985:	push   edx
  401986:	push   0x403048
  40198b:	pop    eax
  40198c:	call   DWORD PTR cs:[eax]
  40198f:	pop    edx
  401990:	sub    esp,0xffffffb0
  401993:	mov    ebp,DWORD PTR [esp]
  401996:	add    esp,0x4
  401999:	ret    
  40199a:	add    BYTE PTR [eax],al
  40199c:	mov    edi,edi
  40199e:	push   ebp
  40199f:	mov    ebp,esp
  4019a1:	sub    esp,0x28
  4019a4:	push   edx
  4019a5:	push   ecx
  4019a6:	push   DWORD PTR [edx+0x4bc]
  4019ac:	push   ebx
  4019ad:	call   0x40183c
  4019b2:	add    esp,0xc
  4019b5:	pop    edx
  4019b6:	push   edx
  4019b7:	mov    edi,0x0
  4019bc:	push   edi
  4019bd:	push   0x403018
  4019c2:	pop    eax
  4019c3:	call   DWORD PTR cs:[eax]
  4019c6:	pop    edx
  4019c7:	push   edx
  4019c8:	lea    esi,[edx]
  4019ca:	push   esi
  4019cb:	push   0x40304c
  4019d0:	pop    eax
  4019d1:	call   DWORD PTR cs:[eax]
  4019d4:	test   eax,eax
  4019d6:	jne    0x4019c8
  4019d8:	pop    edx
  4019d9:	sub    esp,0xffffffd8
  4019dc:	mov    ebp,DWORD PTR [esp]
  4019df:	add    esp,0x4
  4019e2:	ret    
  4019e3:	add    BYTE PTR [eax],al
  4019e5:	add    BYTE PTR [eax],al
  4019e7:	add    BYTE PTR [ebx-0x1374aa01],cl
  4019ed:	sub    esp,0x48
  4019f0:	push   edx
  4019f1:	push   ebx
  4019f2:	push   eax
  4019f3:	push   esi
  4019f4:	push   DWORD PTR [edx+0x1f8]
  4019fa:	call   0x4013d4
  4019ff:	add    esp,0x10
  401a02:	pop    edx
  401a03:	push   edx
  401a04:	push   0x403010
  401a09:	pop    eax
  401a0a:	call   DWORD PTR cs:[eax]
  401a0d:	pop    edx
  401a0e:	push   edx
  401a0f:	push   0x0
  401a11:	push   0x40300c
  401a16:	pop    eax
  401a17:	call   DWORD PTR cs:[eax]
  401a1a:	pop    edx
  401a1b:	sub    esp,0xffffffb8
  401a1e:	mov    ebp,DWORD PTR [esp]
  401a21:	add    esp,0x4
  401a24:	ret    
  401a25:	add    BYTE PTR [eax],al
  401a27:	add    BYTE PTR [ebx-0x1374aa01],cl
  401a2d:	sub    esp,0x30
  401a30:	push   edx
  401a31:	push   ecx
  401a32:	push   edi
  401a33:	push   esi
  401a34:	call   0x401630
  401a39:	add    esp,0xc
  401a3c:	pop    edx
  401a3d:	push   edx
  401a3e:	push   0x0
  401a40:	push   0x403040
  401a45:	pop    eax
  401a46:	call   DWORD PTR cs:[eax]
  401a49:	pop    edx
  401a4a:	push   edx
  401a4b:	push   0x0
  401a4d:	push   0x403000
  401a52:	pop    eax
  401a53:	call   DWORD PTR cs:[eax]
  401a56:	pop    edx
  401a57:	sub    esp,0xffffffd0
  401a5a:	mov    ebp,DWORD PTR [esp]
  401a5d:	add    esp,0x4
  401a60:	ret    
  401a61:	add    BYTE PTR [eax],al
  401a63:	add    BYTE PTR [eax],al
  401a65:	add    BYTE PTR [eax],al
  401a67:	add    BYTE PTR [ebx-0x1374aa01],cl
  401a6d:	sub    esp,0x54
  401a70:	push   edx
  401a71:	push   DWORD PTR [edx+0x490]
  401a77:	push   DWORD PTR [edx+0x2c0]
  401a7d:	push   esi
  401a7e:	push   DWORD PTR [edx+0x2b0]
  401a84:	call   0x401218
  401a89:	add    esp,0x10
  401a8c:	pop    edx
  401a8d:	push   edx
  401a8e:	push   0x0
  401a90:	push   0x40303c
  401a95:	pop    eax
  401a96:	call   DWORD PTR cs:[eax]
  401a99:	pop    edx
  401a9a:	push   edx
  401a9b:	mov    ebx,0x0
  401aa0:	push   ebx
  401aa1:	push   0x403040
  401aa6:	pop    eax
  401aa7:	call   DWORD PTR cs:[eax]
  401aaa:	pop    edx
  401aab:	sub    esp,0xffffffac
  401aae:	mov    ebp,DWORD PTR [esp]
  401ab1:	add    esp,0x4
  401ab4:	ret    
  401ab5:	add    BYTE PTR [eax],al
  401ab7:	add    BYTE PTR [ebx-0x1374aa01],cl
  401abd:	sub    esp,0x44
  401ac0:	push   edx
  401ac1:	push   esi
  401ac2:	push   DWORD PTR [edx+0x234]
  401ac8:	push   DWORD PTR [edx+0x37c]
  401ace:	push   DWORD PTR [edx+0x46c]
  401ad4:	call   0x401a28
  401ad9:	add    esp,0x10
  401adc:	pop    edx
  401add:	push   edx
  401ade:	mov    ebx,0x0
  401ae3:	push   ebx
  401ae4:	push   0x40306c
  401ae9:	pop    eax
  401aea:	call   DWORD PTR cs:[eax]
  401aed:	pop    edx
  401aee:	push   edx
  401aef:	push   0x0
  401af1:	push   0x40306c
  401af6:	pop    eax
  401af7:	call   DWORD PTR cs:[eax]
  401afa:	pop    edx
  401afb:	sub    esp,0xffffffbc
  401afe:	mov    ebp,DWORD PTR [esp]
  401b01:	add    esp,0x4
  401b04:	ret    
  401b05:	add    BYTE PTR [eax],al
  401b07:	add    BYTE PTR [eax],al
  401b09:	add    BYTE PTR [eax],al
  401b0b:	add    BYTE PTR [ebx-0x1374aa01],cl
  401b11:	sub    esp,0x54
  401b14:	push   edx
  401b15:	push   DWORD PTR [edx+0x4b0]
  401b1b:	push   ebx
  401b1c:	push   DWORD PTR [edx+0x46c]
  401b22:	push   DWORD PTR [edx+0x37c]
  401b28:	call   0x401414
  401b2d:	add    esp,0x10
  401b30:	pop    edx
  401b31:	push   edx
  401b32:	mov    esi,0x0
  401b37:	push   esi
  401b38:	push   0x40301c
  401b3d:	pop    eax
  401b3e:	call   DWORD PTR cs:[eax]
  401b41:	pop    edx
  401b42:	push   edx
  401b43:	push   0x403048
  401b48:	pop    eax
  401b49:	call   DWORD PTR cs:[eax]
  401b4c:	pop    edx
  401b4d:	sub    esp,0xffffffac
  401b50:	mov    ebp,DWORD PTR [esp]
  401b53:	add    esp,0x4
  401b56:	ret    
  401b57:	add    BYTE PTR [eax],al
  401b59:	add    BYTE PTR [eax],al
  401b5b:	add    BYTE PTR [ebx-0x1374aa01],cl
  401b61:	sub    esp,0x54
  401b64:	push   edx
  401b65:	push   0x0
  401b67:	push   0x403014
  401b6c:	pop    eax
  401b6d:	call   DWORD PTR cs:[eax]
  401b70:	pop    edx
  401b71:	push   edx
  401b72:	push   edi
  401b73:	push   edi
  401b74:	push   DWORD PTR [edx+0x424]
  401b7a:	call   0x401708
  401b7f:	add    esp,0xc
  401b82:	pop    edx
  401b83:	push   edx
  401b84:	push   0x0
  401b86:	push   0x40306c
  401b8b:	pop    eax
  401b8c:	call   DWORD PTR cs:[eax]
  401b8f:	pop    edx
  401b90:	sub    esp,0xffffffac
  401b93:	mov    ebp,DWORD PTR [esp]
  401b96:	add    esp,0x4
  401b99:	ret    
  401b9a:	add    BYTE PTR [eax],al
  401b9c:	mov    edi,edi
  401b9e:	push   ebp
  401b9f:	mov    ebp,esp
  401ba1:	sub    esp,0x5c
  401ba4:	push   edx
  401ba5:	push   DWORD PTR [edx+0x268]
  401bab:	push   ecx
  401bac:	push   ecx
  401bad:	call   0x4015ac
  401bb2:	add    esp,0xc
  401bb5:	pop    edx
  401bb6:	push   edx
  401bb7:	push   0x403010
  401bbc:	pop    eax
  401bbd:	call   DWORD PTR cs:[eax]
  401bc0:	pop    edx
  401bc1:	push   edx
  401bc2:	push   0x0
  401bc4:	push   0x40306c
  401bc9:	pop    eax
  401bca:	call   DWORD PTR cs:[eax]
  401bcd:	pop    edx
  401bce:	sub    esp,0xffffffa4
  401bd1:	mov    ebp,DWORD PTR [esp]
  401bd4:	add    esp,0x4
  401bd7:	ret    
  401bd8:	mov    edi,edi
  401bda:	push   ebp
  401bdb:	mov    ebp,esp
  401bdd:	sub    esp,0x54
  401be0:	push   edx
  401be1:	push   0x0
  401be3:	push   0x403018
  401be8:	pop    eax
  401be9:	call   DWORD PTR cs:[eax]
  401bec:	pop    edx
  401bed:	push   edx
  401bee:	push   DWORD PTR [edx+0x4d4]
  401bf4:	push   DWORD PTR [edx+0x480]
  401bfa:	push   eax
  401bfb:	push   DWORD PTR [edx+0xc]
  401bfe:	call   0x401c74
  401c03:	add    esp,0x10
  401c06:	pop    edx
  401c07:	push   edx
  401c08:	mov    edi,0x0
  401c0d:	push   edi
  401c0e:	push   0x403018
  401c13:	pop    eax
  401c14:	call   DWORD PTR cs:[eax]
  401c17:	pop    edx
  401c18:	sub    esp,0xffffffac
  401c1b:	mov    ebp,DWORD PTR [esp]
  401c1e:	add    esp,0x4
  401c21:	ret    
  401c22:	add    BYTE PTR [eax],al
  401c24:	mov    edi,edi
  401c26:	push   ebp
  401c27:	mov    ebp,esp
  401c29:	sub    esp,0x30
  401c2c:	push   edx
  401c2d:	lea    edx,[edx]
  401c2f:	push   edx
  401c30:	push   0x40304c
  401c35:	pop    eax
  401c36:	call   DWORD PTR cs:[eax]
  401c39:	test   eax,eax
  401c3b:	jne    0x401c2d
  401c3d:	pop    edx
  401c3e:	push   edx
  401c3f:	push   DWORD PTR [edx+0x34]
  401c42:	push   DWORD PTR [edx+0x90]
  401c48:	push   edi
  401c49:	call   0x401d08
  401c4e:	add    esp,0xc
  401c51:	pop    edx
  401c52:	push   edx
  401c53:	lea    eax,[edx]
  401c55:	push   eax
  401c56:	push   0x40304c
  401c5b:	pop    eax
  401c5c:	call   DWORD PTR cs:[eax]
  401c5f:	test   eax,eax
  401c61:	jne    0x401c53
  401c63:	pop    edx
  401c64:	sub    esp,0xffffffd0
  401c67:	mov    ebp,DWORD PTR [esp]
  401c6a:	add    esp,0x4
  401c6d:	ret    
  401c6e:	add    BYTE PTR [eax],al
  401c70:	add    BYTE PTR [eax],al
  401c72:	add    BYTE PTR [eax],al
  401c74:	mov    edi,edi
  401c76:	push   ebp
  401c77:	mov    ebp,esp
  401c79:	sub    esp,0x38
  401c7c:	push   edx
  401c7d:	push   esi
  401c7e:	push   eax
  401c7f:	call   0x4015f4
  401c84:	add    esp,0x8
  401c87:	pop    edx
  401c88:	push   edx
  401c89:	mov    edx,0x0
  401c8e:	push   edx
  401c8f:	push   0x403000
  401c94:	pop    eax
  401c95:	call   DWORD PTR cs:[eax]
  401c98:	pop    edx
  401c99:	push   edx
  401c9a:	mov    ecx,0x0
  401c9f:	push   ecx
  401ca0:	push   0x403004
  401ca5:	pop    eax
  401ca6:	call   DWORD PTR cs:[eax]
  401ca9:	pop    edx
  401caa:	sub    esp,0xffffffc8
  401cad:	mov    ebp,DWORD PTR [esp]
  401cb0:	add    esp,0x4
  401cb3:	ret    
	...
  401cbc:	mov    edi,edi
  401cbe:	push   ebp
  401cbf:	mov    ebp,esp
  401cc1:	sub    esp,0x50
  401cc4:	push   edx
  401cc5:	mov    ebx,0x0
  401cca:	push   ebx
  401ccb:	push   0x403040
  401cd0:	pop    eax
  401cd1:	call   DWORD PTR cs:[eax]
  401cd4:	pop    edx
  401cd5:	push   edx
  401cd6:	push   esi
  401cd7:	push   ebx
  401cd8:	push   DWORD PTR [edx+0x4e8]
  401cde:	push   DWORD PTR [edx+0x3c8]
  401ce4:	call   0x401bd8
  401ce9:	add    esp,0x10
  401cec:	pop    edx
  401ced:	push   edx
  401cee:	push   0x0
  401cf0:	push   0x403014
  401cf5:	pop    eax
  401cf6:	call   DWORD PTR cs:[eax]
  401cf9:	pop    edx
  401cfa:	sub    esp,0xffffffb0
  401cfd:	mov    ebp,DWORD PTR [esp]
  401d00:	add    esp,0x4
  401d03:	ret    
  401d04:	add    BYTE PTR [eax],al
  401d06:	add    BYTE PTR [eax],al
  401d08:	mov    edi,edi
  401d0a:	push   ebp
  401d0b:	mov    ebp,esp
  401d0d:	sub    esp,0x44
  401d10:	push   edx
  401d11:	push   0x0
  401d13:	push   0x403080
  401d18:	pop    eax
  401d19:	call   DWORD PTR cs:[eax]
  401d1c:	pop    edx
  401d1d:	push   edx
  401d1e:	push   edi
  401d1f:	push   esi
  401d20:	push   esi
  401d21:	push   DWORD PTR [edx+0x498]
  401d27:	call   0x401340
  401d2c:	add    esp,0x10
  401d2f:	pop    edx
  401d30:	push   edx
  401d31:	push   0x0
  401d33:	push   0x40305c
  401d38:	pop    eax
  401d39:	call   DWORD PTR cs:[eax]
  401d3c:	pop    edx
  401d3d:	sub    esp,0xffffffbc
  401d40:	mov    ebp,DWORD PTR [esp]
  401d43:	add    esp,0x4
  401d46:	ret    
  401d47:	add    BYTE PTR [ebx-0x1374aa01],cl
  401d4d:	sub    esp,0x2c
  401d50:	push   edx
  401d51:	mov    ebx,0x0
  401d56:	push   ebx
  401d57:	push   0x403004
  401d5c:	pop    eax
  401d5d:	call   DWORD PTR cs:[eax]
  401d60:	pop    edx
  401d61:	push   edx
  401d62:	push   DWORD PTR [edx+0x1e8]
  401d68:	push   DWORD PTR [edx+0x470]
  401d6e:	push   DWORD PTR [edx+0x230]
  401d74:	push   DWORD PTR [edx+0x64]
  401d77:	call   0x401678
  401d7c:	add    esp,0x10
  401d7f:	pop    edx
  401d80:	push   edx
  401d81:	push   0x0
  401d83:	push   0x403040
  401d88:	pop    eax
  401d89:	call   DWORD PTR cs:[eax]
  401d8c:	pop    edx
  401d8d:	sub    esp,0xffffffd4
  401d90:	mov    ebp,DWORD PTR [esp]
  401d93:	add    esp,0x4
  401d96:	ret    
  401d97:	add    BYTE PTR [eax],al
  401d99:	add    BYTE PTR [eax],al
  401d9b:	add    BYTE PTR [ebx-0x1374aa01],cl
  401da1:	sub    esp,0x40
  401da4:	push   edx
  401da5:	mov    ecx,0x0
  401daa:	push   ecx
  401dab:	push   0x40303c
  401db0:	pop    eax
  401db1:	call   DWORD PTR cs:[eax]
  401db4:	pop    edx
  401db5:	push   edx
  401db6:	push   DWORD PTR [edx+0x390]
  401dbc:	push   DWORD PTR [edx+0x1e4]
  401dc2:	call   0x401c24
  401dc7:	add    esp,0x8
  401dca:	pop    edx
  401dcb:	push   edx
  401dcc:	push   0x0
  401dce:	push   0x403018
  401dd3:	pop    eax
  401dd4:	call   DWORD PTR cs:[eax]
  401dd7:	pop    edx
  401dd8:	sub    esp,0xffffffc0
  401ddb:	mov    ebp,DWORD PTR [esp]
  401dde:	add    esp,0x4
  401de1:	ret    
	...
  401dea:	add    BYTE PTR [eax],al
  401dec:	mov    edi,edi
  401dee:	push   ebp
  401def:	mov    ebp,esp
  401df1:	sub    esp,0x4c
  401df4:	push   edx
  401df5:	push   esi
  401df6:	push   edi
  401df7:	call   0x40199c
  401dfc:	add    esp,0x8
  401dff:	pop    edx
  401e00:	push   edx
  401e01:	mov    ecx,0x0
  401e06:	push   ecx
  401e07:	push   0x403014
  401e0c:	pop    eax
  401e0d:	call   DWORD PTR cs:[eax]
  401e10:	pop    edx
  401e11:	push   edx
  401e12:	mov    ecx,0x0
  401e17:	push   ecx
  401e18:	push   0x403018
  401e1d:	pop    eax
  401e1e:	call   DWORD PTR cs:[eax]
  401e21:	pop    edx
  401e22:	sub    esp,0xffffffb4
  401e25:	mov    ebp,DWORD PTR [esp]
  401e28:	add    esp,0x4
  401e2b:	ret    
  401e2c:	add    BYTE PTR [eax],al
  401e2e:	add    BYTE PTR [eax],al
  401e30:	mov    edi,edi
  401e32:	push   ebp
  401e33:	mov    ebp,esp
  401e35:	sub    esp,0x20
  401e38:	push   edx
  401e39:	push   ebx
  401e3a:	push   eax
  401e3b:	push   DWORD PTR [edx+0x1fc]
  401e41:	call   0x4010e4
  401e46:	add    esp,0xc
  401e49:	pop    edx
  401e4a:	push   edx
  401e4b:	push   0x0
  401e4d:	push   0x40300c
  401e52:	pop    eax
  401e53:	call   DWORD PTR cs:[eax]
  401e56:	pop    edx
  401e57:	push   edx
  401e58:	lea    edi,[edx]
  401e5a:	push   edi
  401e5b:	push   0x40304c
  401e60:	pop    eax
  401e61:	call   DWORD PTR cs:[eax]
  401e64:	test   eax,eax
  401e66:	jne    0x401e58
  401e68:	pop    edx
  401e69:	sub    esp,0xffffffe0
  401e6c:	mov    ebp,DWORD PTR [esp]
  401e6f:	add    esp,0x4
  401e72:	ret    
  401e73:	add    BYTE PTR [eax],al
  401e75:	add    BYTE PTR [eax],al
  401e77:	add    BYTE PTR [edx],dl
  401e79:	pop    esp
  401e7a:	adc    ah,bl
  401e7c:	add    DWORD PTR [eax],ecx
  401e7e:	or     al,al
  401e80:	jmp    0x72573d1d
  401e85:	mov    WORD PTR [edx],ds
  401e87:	sub    al,0x5d
  401e89:	popa   
  401e8a:	cmps   BYTE PTR ds:[esi],BYTE PTR es:[edi]
  401e8b:	sbb    al,0x93
  401e8d:	sbb    al,0xce
  401e8f:	hlt    
  401e90:	repnz (bad)
  401e93:	outs   dx,DWORD PTR ds:[esi]
  401e94:	pop    esi
  401e95:	xchg   esi,eax
  401e97:	add    DWORD PTR [ecx],eax
  401e99:	mov    esi,0xc6c70101
  401e9f:	add    DWORD PTR [ecx],eax
  401ea1:	jecxz  0x401e84
  401ea3:	jg     0x401ee1
  401ea5:	retf   
  401ea6:	push   ebp
  401ea7:	lahf   
  401ea8:	popa   
  401ea9:	xor    al,0x79
  401eab:	es stos BYTE PTR es:[edi],al
  401ead:	mov    ebp,0x83c4f4e6
  401eb2:	dec    esp
  401eb3:	gs jb  0x401f19
  401eb6:	or     BYTE PTR [esi],bl
  401eb8:	push   esi
  401eb9:	jns    0x401ed8
  401ebb:	push   edi
  401ebc:	add    BYTE PTR [ecx],cl
  401ebe:	ins    DWORD PTR es:[edi],dx
  401ebf:	xor    al,0x34
  401ec1:	shr    DWORD PTR [eax],1
  401ec3:	fild   DWORD PTR [eax+0xae44703]
  401ec9:	scas   al,BYTE PTR es:[edi]
  401eca:	sub    DWORD PTR [ecx-0x9fab844],eax
  401ed0:	sub    edi,DWORD PTR [eax+0x762e1d]
  401ed6:	pop    esi
  401ed7:	mov    esi,eax
  401ed9:	dec    ebp
  401eda:	test   al,0xf5
  401edc:	mov    ebx,DWORD PTR [ebp-0x52]
  401edf:	call   0xf24331d6
  401ee4:	popa   
  401ee5:	jmp    0x401ea2
  401ee7:	imul   esi,ebp,0x6a
  401eea:	push   cs
  401eeb:	popf   
  401eec:	mov    ds:0x2e0190,eax
  401ef1:	sub    ebp,DWORD PTR [esi]
  401ef3:	or     DWORD PTR [edi],ebx
  401ef5:	cmp    BYTE PTR [eax],al
  401ef7:	(bad)  
  401ef8:	xor    al,0x6d
  401efa:	adc    BYTE PTR [ebx-0x6b],0x53
  401efe:	imul   ebp,DWORD PTR [esp+esi*2],0xe1a03ec
  401f05:	or     eax,0x363c3807
  401f0a:	push   ebx
  401f0b:	add    bh,BYTE PTR [eax-0x18]
  401f0e:	into   
  401f0f:	or     al,0xd6
  401f11:	cmp    ebx,ebp
  401f13:	jmp    0x50a94d5c
  401f18:	push   0x18
  401f1a:	imul   esp,DWORD PTR [eax+0x6c010016],0x10a997a0
  401f24:	loope  0x401f1e
  401f26:	(bad)  
  401f27:	adc    dl,BYTE PTR [eax]
  401f29:	push   ebp
  401f2a:	add    DWORD PTR [eax+0x14],edx
  401f2d:	mov    al,0x60
  401f2f:	je     0x401ee0
  401f31:	inc    DWORD PTR [ebp+0x5f]
  401f34:	call   esp
  401f36:	add    ebp,esi
  401f38:	add    al,0x7a
  401f3a:	sub    ch,BYTE PTR [edi]
  401f3c:	test   BYTE PTR [eax],0x1
  401f3f:	pop    eax
  401f40:	aad    0x6f
  401f42:	mov    dl,0x7a
  401f44:	or     ebp,eax
  401f46:	adc    al,0x52
  401f48:	and    al,0x34
  401f4a:	jmp    0x23b2088
  401f4f:	mov    es,ecx
  401f51:	sub    BYTE PTR [ebx-0x6e],0x8b
  401f55:	dec    DWORD PTR [ecx-0x5600c29c]
  401f5b:	jg     0x401f4c
  401f5d:	cmp    BYTE PTR [ecx+eiz*8],ah
  401f60:	sub    BYTE PTR [ecx],al
  401f62:	or     eax,0x754c5eff
  401f67:	gs test eax,0x7d00570f
  401f6d:	or     BYTE PTR [eax],al
  401f6f:	rol    DWORD PTR [eax],cl
  401f71:	out    0xf1,eax
  401f73:	mov    al,0xfc
  401f75:	push   edi
  401f76:	add    DWORD PTR [eax+0x42b2d4a3],ecx
  401f7c:	lea    esp,[esi-0x62]
  401f7f:	inc    esi
  401f80:	adc    cl,BYTE PTR [ebp-0x31a99cdf]
  401f86:	pusha  
  401f87:	and    al,BYTE PTR [ecx]
  401f89:	xor    DWORD PTR [ebp+0x6f32002c],ebx
  401f8f:	pop    esp
  401f90:	pop    eax
  401f91:	mov    ebx,0x74970031
  401f96:	and    DWORD PTR [edi+edi*8+0x2e744455],ebp
  401f9d:	cmp    al,0x3d
  401f9f:	sub    ecx,esp
  401fa1:	adc    al,0x5c
  401fa3:	cmp    DWORD PTR [ebx+0x39ab5805],ebp
  401fa9:	push   ebp
  401faa:	pop    edx
  401fab:	cmp    DWORD PTR [edx],eax
  401fad:	xchg   DWORD PTR [ebx-0x23],ebx
  401fb0:	test   al,0xa4
  401fb2:	push   esi
  401fb3:	movs   DWORD PTR es:[edi],DWORD PTR ds:[esi]
  401fb4:	je     0x401f50
  401fb6:	pop    eax
  401fb7:	cmps   DWORD PTR ds:[esi],DWORD PTR es:[edi]
  401fb8:	aad    0x6a
  401fba:	retf   0x64c2
  401fbd:	xor    edi,0x7654c224
  401fc3:	test   BYTE PTR [edi-0x84babc8],ch
  401fc9:	das    
  401fca:	mov    bh,0xb1
  401fcc:	add    eax,0x5d41ec74
  401fd1:	xor    al,BYTE PTR [eax+eiz*2+0x6]
  401fd5:	add    bl,al
  401fd7:	dec    ecx
  401fd8:	icebp  
  401fd9:	add    BYTE PTR [ebp-0x692b1f41],dh
  401fdf:	call   0x8b831f1e
  401fe4:	inc    edi
  401fe5:	and    ch,cl
  401fe7:	xor    cl,BYTE PTR [ecx+0x20101c8]
  401fed:	cld    
  401fee:	adc    al,0xf
  401ff0:	adc    ecx,DWORD PTR [ebx+0x4741c0b]
  401ff6:	cmps   DWORD PTR ds:[esi],DWORD PTR es:[edi]
  401ff7:	push   ebx
  401ff8:	xchg   DWORD PTR [ebx+0xc01db87],ebp
  401ffe:	add    eax,0x56563a03
  402003:	cmp    eax,0xa65804ad
  402008:	fs xchg ecx,eax
  40200a:	cwde   
  40200b:	shl    bl,0x53
  40200e:	shl    DWORD PTR [ecx+0x0],cl
  402011:	rep movs BYTE PTR es:[edi],BYTE PTR ds:[esi]
  402013:	movs   DWORD PTR es:[edi],DWORD PTR ds:[esi]
  402014:	(bad)  
  402015:	sar    DWORD PTR [edx],cl
  402017:	(bad)  
  402018:	xchg   edx,eax
  402019:	xlat   BYTE PTR ds:[ebx]
  40201a:	retf   
  40201b:	jbe    0x402088
  40201d:	push   0x9
  40201f:	call   0xaa2ad5
  402024:	add    BYTE PTR [ecx],al
  402026:	pop    ecx
  402027:	push   0x41c100
  40202c:	xchg   edi,eax
  40202d:	sub    eax,0xfb8ba91c
  402032:	ja     0x4020af
  402034:	mov    esi,0xf0e80964
  402039:	out    dx,eax
  40203a:	fs xor BYTE PTR ss:[ecx+eax*1],al
  40203f:	xor    BYTE PTR [ebp+0x74],ch
  402042:	retf   0x8b54
  402045:	inc    eax
  402046:	dec    ebp
  402047:	mov    dl,0x54
  402049:	pop    eax
  40204a:	ins    DWORD PTR es:[edi],dx
  40204b:	pop    esp
  40204c:	mov    dl,0xc
  40204e:	in     al,dx
  40204f:	jl     0x401fe0
  402051:	js     0x40207c
  402053:	mov    BYTE PTR [esi+0x2b38b0d7],bh
  402059:	daa    
  40205a:	sti    
  40205b:	mov    eax,ds:0x8929309
  402060:	xchg   ebp,eax
  402061:	xchg   ecx,eax
  402062:	sahf   
  402063:	pop    ebp
  402064:	mov    WORD PTR [ecx],sp
  402067:	arpl   WORD PTR [ebp-0x6d],cx
  40206a:	(bad)  
  40206b:	adc    al,0x75
  40206d:	and    BYTE PTR [ecx],al
  40206f:	mov    ebx,DWORD PTR [eax-0x6f]
  402072:	mov    edx,0xa9ff8338
  402077:	sbb    al,0x90
  402079:	stos   BYTE PTR es:[edi],al
  40207a:	and    al,ch
  40207c:	adc    al,0x8
  40207e:	xchg   edi,eax
  40207f:	pop    eax
  402080:	mov    DWORD PTR [esi+0x51],esi
  402083:	xchg   ebp,eax
  402084:	cmp    DWORD PTR [ecx+0x24185eb9],ebx
  40208a:	add    DWORD PTR [esi+edi*4-0x70],ebx
  40208e:	and    DWORD PTR [ecx+0x7701005a],eax
  402094:	psrlq  mm1,QWORD PTR [esi+0x2104b22b]
  40209b:	(bad)  
  40209c:	and    al,0x4
  40209e:	add    edi,edi
  4020a0:	je     0x4020a2
  4020a2:	and    DWORD PTR [esp+ecx*8],esp
  4020a5:	rol    BYTE PTR [ebx+edx*2],0xdb
  4020a9:	div    edi
  4020ab:	std    
  4020ac:	pop    esp
  4020ad:	dec    eax
  4020ae:	cmp    al,0xbc
  4020b0:	jbe    0x4020b5
  4020b2:	add    DWORD PTR [ebp-0xaff3d8a],eax
  4020b8:	jbe    0x402045
  4020ba:	hlt    
  4020bb:	inc    DWORD PTR [esi+0xfef8a8c]
  4020c1:	test   DWORD PTR [ebx-0x7d8fc004],esp
  4020c7:	xchg   ebp,eax
  4020c8:	mov    dl,BYTE PTR [ebx+0x5c]
  4020cb:	mov    dl,BYTE PTR [ebp+0x74035185]
  4020d1:	and    DWORD PTR [edi-0x78],esp
  4020d4:	movs   DWORD PTR es:[edi],DWORD PTR ds:[esi]
  4020d5:	(bad)  [esi+ebx*2-0x7a]
  4020d9:	shl    BYTE PTR [esi+0x7b09867e],1
  4020df:	in     eax,0xa5
  4020e1:	and    al,0x0
  4020e3:	or     ah,BYTE PTR [edi+ecx*4+0x5ab3d56]
  4020ea:	pop    eax
  4020eb:	test   eax,0x4b8057dc
  4020f0:	(bad)  
  4020f1:	pushf  
  4020f2:	sbb    al,0xd6
  4020f4:	ror    BYTE PTR [eax],1
  4020f6:	mov    eax,0x2b261113
  4020fb:	xchg   edi,eax
  4020fc:	ja     0x40212d
  4020fe:	mov    cl,0x74
  402100:	rol    BYTE PTR [ebp+0x24047581],0xc8
  402107:	pop    es
  402108:	ja     0x4020af
  40210a:	and    eax,0x2ec40302
  40210f:	add    BYTE PTR [ebx-0x5574ce25],cl
  402115:	pop    eax
  402116:	movs   BYTE PTR es:[edi],BYTE PTR ds:[esi]
  402117:	mov    esi,0xb8004b1f
  40211c:	mov    dl,0xff
  40211e:	add    eax,0xa9a10f08
  402123:	pop    ebx
  402124:	or     ebx,edx
  402126:	inc    esp
  402127:	dec    esp
  402128:	out    0xda,eax
  40212a:	in     eax,dx
  40212b:	sub    BYTE PTR [ebp+ecx*2+0x5f],dh
  40212f:	jmp    0x402162
  402131:	bound  esi,QWORD PTR [esi+ecx*8-0x60]
  402135:	test   DWORD PTR [ebx-0x52],esp
  402138:	out    dx,al
  402139:	jns    0x4020c5
  40213b:	inc    edi
  40213c:	test   DWORD PTR [ecx+eax*1],esi
  40213f:	mov    ebx,DWORD PTR [ebx]
  402141:	and    BYTE PTR [ebp+0x3c8b8b8e],ah
  402147:	mov    al,ds:0x85010000
  40214c:	push   esi
  40214d:	mov    ecx,0x85778a
  402152:	add    DWORD PTR [ebx],eax
  402154:	jb     0x40217f
  402156:	and    DWORD PTR [ebx],ecx
  402158:	add    bl,bh
  40215a:	stos   BYTE PTR es:[edi],al
  40215b:	mov    BYTE PTR [ebx+ebx*8],bh
  40215e:	add    dl,BYTE PTR [esi+0x386f3adb]
  402164:	push   edx
  402165:	inc    ecx
  402166:	adc    DWORD PTR [eax],eax
  402168:	aas    
  402169:	xchg   DWORD PTR [edx+0x53],ebp
  40216c:	push   eax
  40216d:	push   0x6f
  40216f:	cmp    BYTE PTR [eax+edi*8],al
  402172:	adc    DWORD PTR [eax],eax
  402174:	aas    
  402175:	test   DWORD PTR [ebx+esi*2+0x111000],eax
  40217c:	fist   DWORD PTR [ecx+0x58]
  40217f:	add    BYTE PTR [ebp+0xc],dl
  402182:	push   edi
  402183:	or     al,0x52
  402185:	daa    
  402186:	loop   0x402184
  402188:	rcl    BYTE PTR [edx+0x21d2621a],cl
  40218e:	in     al,dx
  40218f:	mov    al,0x29
  402191:	mov    bh,0xc8
  402193:	cmps   BYTE PTR ds:[esi],BYTE PTR es:[edi]
  402194:	call   0x2588:0x6edd3104
  40219b:	sbb    BYTE PTR [eax+esi*1+0x2],dh
  40219f:	adc    al,0x8
  4021a1:	sbb    eax,0x45995e0d
  4021a6:	popa   
  4021a7:	mov    DWORD PTR [eax],ecx
  4021a9:	mov    esp,0x4c34ae03
  4021ae:	imul   esp,DWORD PTR [eax],0x835850ff
  4021b4:	clc    
  4021b5:	add    al,0x55
  4021b7:	pop    ss
  4021b8:	mov    bl,0x3f
  4021ba:	imul   esp,DWORD PTR [eax],0x815850ff
  4021c0:	adc    al,0x24
  4021c2:	and    eax,0x578114
  4021c7:	push   esi
  4021c8:	sbb    al,0xff
  4021ca:	test   eax,0xa60f00
  4021cf:	add    cl,BYTE PTR [ecx+0x3904bf9c]
  4021d5:	fwait
  4021d6:	mov    ds:0x4ed8868a,al
  4021db:	cli    
  4021dc:	push   sp
  4021de:	xor    BYTE PTR [esi+0x76],cl
  4021e1:	or     ah,BYTE PTR [eax+edi*2+0x7a]
  4021e5:	adc    edx,DWORD PTR [ecx]
  4021e7:	mov    ecx,0xff0463f3
  4021ec:	(bad)  
  4021ed:	inc    DWORD PTR [ebp-0x20]
  4021f0:	(bad)  
  4021f1:	jmp    0x4021f4
  4021f3:	call   0xe23f68f6
  4021f8:	mov    edi,0xff56b1b9
  4021fd:	(bad)  
  4021fe:	jmp    0x3921d9
  402203:	jae    0x40220b
  402205:	arpl   WORD PTR [esi+0x8f632f4],di
  40220b:	mov    ecx,0xff20dc24
  402210:	(bad)  
  402211:	push   DWORD PTR [ebx+0x1]
  402214:	je     0x402223
  402216:	and    esi,DWORD PTR ds:0xcbff7401
  40221c:	jle    0x4021d6
  40221e:	xchg   edx,eax
  40221f:	or     BYTE PTR [esi+edi*1],dh
  402222:	les    esp,FWORD PTR [ebx]
  402224:	(bad)
  402227:	sub    DWORD PTR [eax-0x2a26ba80],ecx
  40222d:	pop    esp
  40222e:	aam    0x6
  402230:	dec    esi
  402231:	add    eax,0xfebd38b0
  402236:	stos   DWORD PTR es:[edi],eax
  402237:	shl    DWORD PTR [edi],0x50
  40223a:	sahf   
  40223b:	ds mov ebx,ebp
  40223e:	add    eax,ebp
  402240:	lahf   
  402241:	inc    esi
  402242:	call   DWORD PTR [ebp+0x59bab7f8]
  402248:	mov    eax,ds:0x5656ebae
  40224d:	or     al,0x1
  40224f:	call   0x863f68e1
  402254:	mov    dl,0xe8
  402256:	push   0x750000a6
  40225b:	mov    ebx,ebx
  40225d:	arpl   WORD PTR [esi-0x19],di
  402260:	and    eax,0x7a4c2848
  402265:	inc    ecx
  402266:	and    DWORD PTR [ecx+0x303da01d],edi
  40226c:	mov    ecx,0x30b90302
  402271:	cmp    al,0x3d
  402273:	sub    BYTE PTR [ecx+0x28b92120],bh
  402279:	cmp    al,0x3d
  40227b:	and    BYTE PTR [ecx+0x20b90504],bh
  402281:	cmp    al,0x3d
  402283:	sbb    BYTE PTR [ecx+0x18b94140],bh
  402289:	cmp    al,0x3d
  40228b:	adc    BYTE PTR [ecx+0x10b90504],bh
  402291:	cmp    al,0x3d
  402293:	or     BYTE PTR [ecx+0x8b94140],bh
  402299:	cmp    al,0x3d
  40229b:	add    BYTE PTR [ebx+0x60489bc1],cl
  4022a1:	idiv   ebp
  4022a3:	sub    al,0xc3
  4022a5:	sub    eax,0x7d43e867
  4022aa:	add    DWORD PTR [edi],ecx
  4022ac:	arpl   WORD PTR [edi+0x28],bp
  4022af:	push   cs
  4022b0:	push   DWORD PTR [ebx+esi*2+0x54]
  4022b4:	ins    DWORD PTR es:[edi],dx
  4022b5:	lods   al,BYTE PTR ds:[esi]
  4022b6:	stc    
  4022b7:	call   0x60e58a67
  4022bc:	call   DWORD PTR [ebp+0x68]
  4022bf:	je     0x402279
  4022c1:	dec    eax
  4022c2:	std    
  4022c3:	xchg   esp,eax
  4022c4:	add    BYTE PTR [ecx+0x14],bh
  4022c7:	fistp  DWORD PTR [ebx*1+0x505c5069]
  4022ce:	push   esp
  4022cf:	repz push ebp
  4022d1:	inc    eax
  4022d2:	sbb    al,BYTE PTR ds:0x2f0cab74
  4022d8:	mov    eax,0xa4e83961
  4022dd:	mov    ebx,0x202444c2
  4022e2:	lods   al,BYTE PTR ds:[esi]
  4022e3:	fmul   st(1),st
  4022e5:	test   DWORD PTR [edx+0x18bf889],esi
  4022eb:	movs   DWORD PTR es:[edi],DWORD PTR fs:[esi]
  4022ed:	movs   DWORD PTR es:[edi],DWORD PTR ds:[esi]
  4022ee:	sbb    DWORD PTR [ecx+0x2cfa8b64],esp
  4022f4:	push   ecx
  4022f5:	push   0x70205169
  4022fa:	push   esp
  4022fb:	repz push ebp
  4022fd:	inc    eax
  4022fe:	into   
  4022ff:	pop    ecx
  402300:	inc    edi
  402301:	fmul   QWORD PTR [ebp+0x434287e8]
  402307:	jae    0x4022ac
  402309:	movs   BYTE PTR es:[edi],BYTE PTR ds:[esi]
  40230a:	rcl    BYTE PTR [edx-0x20],0x8b
  40230e:	add    DWORD PTR [eax],ebx
  402310:	cs and al,0x6d
  402313:	out    dx,al
  402314:	ret    
  402315:	pusha  
  402316:	loop   0x402347
  402318:	inc    ecx
  402319:	add    esp,DWORD PTR cs:[eax]
  40231c:	test   BYTE PTR [ebp+0x33006827],ah
  402322:	les    ebp,FWORD PTR [edx+0x0]
  402325:	push   0xea3fff63
  40232a:	nop
  40232b:	lea    ebp,[ebx-0x13fdaca5]
  402331:	add    dh,cl
  402333:	adc    BYTE PTR [ecx-0x4],cl
  402336:	inc    edx
  402337:	and    BYTE PTR [edi+0x3c8b41c4],ch
  40233d:	inc    eax
  40233e:	xchg   al,al
  402340:	je     0x402303
  402342:	inc    esi
  402343:	and    BYTE PTR [ebx-0x2e945686],dl
  402349:	xchg   BYTE PTR [esi-0x565594a0],dh
  40234f:	dec    ebx
  402350:	fs mov cl,0xe1
  402353:	sbb    DWORD PTR [eax],0x55
  402356:	mov    dh,BYTE PTR [esi+eiz*1+0x38]
  40235a:	jle    0x402343
  40235c:	adc    al,0x2
  40235e:	fst    QWORD PTR [eax]
  402360:	inc    edx
  402361:	xchg   ebx,eax
  402362:	pusha  
  402363:	imul   esi,DWORD PTR ds:0x8208f42d,0x1a
  40236a:	je     0x402357
  40236c:	xor    bl,dl
  40236e:	pop    ecx
  40236f:	or     DWORD PTR [eax-0xa48801],eax
  402375:	inc    ebp
  402376:	and    al,0xe
  402378:	cwde   
  402379:	add    DWORD PTR [edx+0x49],esp
  40237c:	ret    
  40237d:	pop    esp
  40237e:	outs   dx,DWORD PTR ds:[esi]
  40237f:	cld    
  402380:	lea    edx,ds:0xb9520401
  402386:	jmp    0x3f0:0x5e5a00e8
  40238d:	clc    
  40238e:	aam    0xcb
  402390:	retf   
  402391:	jbe    0x4023bf
  402393:	dec    esi
  402394:	lds    ebp,FWORD PTR [eax]
  402396:	jne    0x4023e9
  402398:	jbe    0x4023bf
  40239a:	and    BYTE PTR [eax],ch
  40239c:	adc    DWORD PTR [ecx],ebp
  40239e:	fiadd  DWORD PTR [edi+ebx*2-0x39db5caf]
  4023a5:	dec    ebp
  4023a6:	cld    
  4023a7:	int    0xa
  4023a9:	push   es
  4023aa:	das    
  4023ab:	mov    bl,0xc1
  4023ad:	rol    DWORD PTR [eax],1
  4023af:	bound  ebp,QWORD PTR [edx]
  4023b1:	jecxz  0x4023bc
  4023b3:	scas   eax,DWORD PTR es:[edi]
  4023b4:	or     eax,0x1e0401e1
  4023b9:	sbb    al,0x5b
  4023bb:	push   ss
  4023bc:	add    BYTE PTR [ebp+0x19],ch
  4023bf:	push   ds
  4023c0:	pop    es
  4023c1:	jp     0x402417
  4023c3:	xor    eax,0x7144f672
  4023c8:	pop    ebp
  4023c9:	stos   DWORD PTR es:[edi],eax
  4023ca:	push   esp
  4023cb:	pop    esi
  4023cc:	jne    0x402413
  4023ce:	inc    esp
  4023cf:	je     0x4023e9
  4023d1:	xchg   ebp,eax
  4023d2:	imul   esp,DWORD PTR ds:0xf1bae1d,0x0
  4023d9:	pushw  ds
  4023db:	sbb    BYTE PTR [eax+eiz*1],dl
  4023de:	add    eax,0x8c7f258d
  4023e3:	xchg   ecx,eax
  4023e4:	repz fstp TBYTE PTR [edx+0x5c]
  4023e8:	nop
  4023e9:	jmp    0xa6976219
  4023ee:	push   esi
  4023ef:	push   ecx
  4023f0:	data16 sbb BYTE PTR [ecx],cl
  4023f3:	pop    eax
  4023f4:	add    eax,0xbc066295
  4023f9:	jbe    0x402422
  4023fb:	call   0x24f6b056
  402400:	add    edi,0x3c2481d4
  402406:	imul   eax,DWORD PTR [edi],0x59
  402409:	loope  0x402461
  40240b:	push   ds
  40240c:	mov    WORD PTR [edx+ebp*2+0x485d3906],gs
  402413:	push   ss
  402414:	daa    
  402415:	repz hlt 
  402417:	sbb    ch,BYTE PTR [ebx-0x436a55e6]
  40241d:	repz fmul st(0),st
  402420:	pop    ecx
  402421:	sahf   
  402422:	movs   DWORD PTR es:[edi],DWORD PTR ds:[esi]
  402423:	push   esp
  402424:	cmp    edx,DWORD PTR [ebx-0x7a]
  402427:	pop    ss
  402428:	mov    bl,0x1
  40242b:	sahf   
  40242c:	mov    ch,0xd8
  40242e:	retf   
  40242f:	sub    eax,0xac5c083
  402434:	xor    al,0x61
  402436:	xor    eax,0x1048919
  40243b:	add    BYTE PTR [ebp+0x10],bl
  40243e:	add    DWORD PTR [eax+0x0],ebp
  402441:	add    BYTE PTR [ecx],al
  402443:	add    BYTE PTR [ebx+0x66355266],ch
  402449:	mov    edx,0x9e903cf4
  40244e:	retf   0x8a55
  402451:	cmp    DWORD PTR [ebp+0x51],edi
  402454:	frstor [ebx+edx*1-0x12]
  402458:	and    ebx,0xee5e8d05
  40245e:	jnp    0x402401
  402460:	clc    
  402461:	sbb    al,0x7d
  402463:	add    eax,ebp
  402465:	loop   0x402444
  402467:	push   0x33
  402469:	push   es
  40246a:	mov    eax,0xca17365b
  40246f:	push   ebp
  402470:	into   
  402471:	inc    ecx
  402472:	xchg   esp,eax
  402473:	adc    esp,DWORD PTR [edx+0x55]
  402476:	stc    
  402477:	adc    al,ch
  402479:	and    bh,BYTE PTR [ebx-0x1134cad1]
  40247f:	xor    DWORD PTR [edi],0xffffffb8
  402482:	(bad)  
  402483:	icebp  
  402484:	adc    eax,0x4921a617
  402489:	jle    0x40249f
  40248b:	loope  0x402454
  40248d:	xor    DWORD PTR [ecx+0x14],ebp
  402490:	push   0x68
  402492:	pop    eax
  402493:	push   0x10
  402495:	jmp    FWORD PTR [ecx+0x72a7e110]
  40249b:	addr16 adc al,0x54
  40249e:	add    BYTE PTR [edi+eiz*2],al
  4024a1:	jge    0x402438
  4024a3:	pop    DWORD PTR [ecx]
  4024a5:	add    BYTE PTR [ecx],al
  4024a7:	push   esi
  4024a8:	push   edi
  4024a9:	xchg   edi,eax
  4024aa:	test   eax,0x69003d73
  4024af:	jmp    0x283:0x6a015520
  4024b6:	imul   ebp,DWORD PTR [ecx+0x6b],0x68
  4024ba:	imul   eax,DWORD PTR [ecx],0xffd8806a
  4024c0:	push   ebp
  4024c1:	and    al,0xa6
  4024c3:	xchg   ecx,eax
  4024c4:	sti    
  4024c5:	push   esi
  4024c6:	add    BYTE PTR [edi+eax*1],al
  4024c9:	adc    ecx,ecx
  4024cb:	cmp    al,0xd0
  4024cd:	sti    
  4024ce:	cs jb  0x40246f
  4024d1:	shl    BYTE PTR [edi-0xb66109b],cl
  4024d7:	loop   0x4024a1
  4024d9:	loope  0x4024bc
  4024db:	push   ebp
  4024dc:	sub    DWORD PTR [eax-0x25043153],ebx
  4024e2:	xchg   edx,eax
  4024e3:	mov    ebx,0xc55d6c53
  4024e8:	mov    ch,0xe9
  4024ea:	xor    al,0xf0
  4024ec:	or     bh,BYTE PTR [esp+eiz*8-0x63]
  4024f0:	add    BYTE PTR [esi-0x4a],dh
  4024f3:	xor    DWORD PTR [esi-0x23],ebx
  4024f6:	xor    al,0xbd
  4024f8:	sub    BYTE PTR [ebx],ch
  4024fa:	sub    ebx,DWORD PTR [edi]
  4024fc:	add    ecx,0xffffff8c
  4024ff:	and    bh,BYTE PTR ds:0xab15ed5
  402505:	ret    
  402506:	pop    ebp
  402507:	add    BYTE PTR [ebp-0x39960da3],bl
  40250d:	xchg   ecx,eax
  40250e:	dec    ebp
  40250f:	fwait
  402510:	les    ecx,FWORD PTR [edx-0x6a]
  402513:	sbb    ebx,ebp
  402515:	mov    edi,0x933fb701
  40251a:	add    DWORD PTR [eax],eax
  40251c:	add    BYTE PTR [eax],al
  40251e:	add    DWORD PTR [eax],eax
  402520:	add    BYTE PTR [eax],al
  402522:	add    DWORD PTR [eax],eax
  402524:	add    BYTE PTR [eax],al
  402526:	add    DWORD PTR [eax],eax
  402528:	add    BYTE PTR [eax],al
  40252a:	add    DWORD PTR [eax],eax
  40252c:	add    BYTE PTR [eax],al
  40252e:	add    DWORD PTR [eax],eax
  402530:	add    BYTE PTR [esi-0x22],bl
  402533:	add    BYTE PTR [eax],al
  402535:	add    BYTE PTR [ecx],ah
  402537:	add    eax,0x57f00
  40253c:	add    eax,0xf0e7faa3
  402541:	add    al,0x94
  402543:	xchg   esp,eax
  402544:	add    dl,BYTE PTR [edx-0xefe2b9c]
  40254a:	jp     0x40257b
  40254c:	jae    0x402560
  40254e:	mov    dl,0x96
  402550:	addr16 mov al,ds:0x171f
  402554:	mov    BYTE PTR [ecx+0x2b776e02],ah
  40255a:	ret    
  40255b:	(bad)  
  40255c:	cmp    DWORD PTR [esi+0x144d900b],0x67
  402563:	or     eax,0x88259025
