
a58f2c83caedc9f1ddbe12eb00c13197a35d3ac9d13197a1e88ce4570a29f502.exe:     file format pei-i386


Disassembly of section .text:

004cd000 <.text>:
  4cd000:	pop    edi
  4cd001:	xor    eax,eax
  4cd003:	call   DWORD PTR [eax*8+0x4cf76c]
  4cd00a:	push   edi
  4cd00b:	pop    edi
  4cd00c:	jmp    DWORD PTR [esp-0x4]
  4cd010:	mov    edi,edi
  4cd012:	push   ebp
  4cd013:	mov    ebp,esp
  4cd015:	sub    esp,0x30
  4cd018:	mov    eax,0x4d00c4
  4cd01d:	mov    DWORD PTR [ebp-0xc],ebx
  4cd020:	push   eax
  4cd021:	push   DWORD PTR [eax+0x10]
  4cd024:	push   DWORD PTR [eax+0x15c]
  4cd02a:	push   ebx
  4cd02b:	push   DWORD PTR [eax+0x88]
  4cd031:	call   0x4cd060
  4cd036:	add    esp,0x10
  4cd039:	pop    eax
  4cd03a:	push   eax
  4cd03b:	push   0x0
  4cd03d:	call   0x4cdda4
  4cd042:	pop    eax
  4cd043:	push   eax
  4cd044:	call   0x4cd5b4
  4cd049:	pop    eax
  4cd04a:	add    esp,0x30
  4cd04d:	pop    ebp
  4cd04e:	ret    
  4cd04f:	add    BYTE PTR [edi+0x33],bl
  4cd052:	sar    bh,0x14
  4cd055:	lds    ecx,FWORD PTR [eax-0x9]
  4cd058:	dec    esp
  4cd059:	add    BYTE PTR [edi+0x5f],dl
  4cd05c:	jmp    DWORD PTR [esp-0x4]
  4cd060:	mov    edi,edi
  4cd062:	push   ebp
  4cd063:	mov    ebp,esp
  4cd065:	sub    esp,0x5c
  4cd068:	lea    ecx,ds:0x4d01a4
  4cd06e:	add    ebx,DWORD PTR [ecx-0x118]
  4cd074:	push   ecx
  4cd075:	push   DWORD PTR [ecx+0x158]
  4cd07b:	push   edi
  4cd07c:	push   ebx
  4cd07d:	call   0x4cd770
  4cd082:	add    esp,0xc
  4cd085:	pop    ecx
  4cd086:	push   ecx
  4cd087:	push   0x0
  4cd089:	call   0x4cd3fc
  4cd08e:	pop    ecx
  4cd08f:	push   ecx
  4cd090:	push   0x0
  4cd092:	call   0x4cd000
  4cd097:	pop    ecx
  4cd098:	add    esp,0x5c
  4cd09b:	pop    ebp
  4cd09c:	ret    
  4cd09d:	add    BYTE PTR [eax],al
  4cd09f:	add    BYTE PTR [ebx-0x1374aa01],cl
  4cd0a5:	sub    esp,0x54
  4cd0a8:	lea    ebx,ds:0x4d0190
  4cd0ae:	sbb    ecx,DWORD PTR [ebp-0xc]
  4cd0b1:	call   0x4cdd44
  4cd0b6:	push   ebx
  4cd0b7:	push   edx
  4cd0b8:	push   edx
  4cd0b9:	push   esi
  4cd0ba:	call   0x4cdf50
  4cd0bf:	add    esp,0xc
  4cd0c2:	pop    ebx
  4cd0c3:	mov    ecx,0x0
  4cd0c8:	push   ecx
  4cd0c9:	call   0x4cd000
  4cd0ce:	add    esp,0x54
  4cd0d1:	pop    ebp
  4cd0d2:	ret    
  4cd0d3:	add    BYTE PTR [edi+0x33],bl
  4cd0d6:	sar    bh,0x14
  4cd0d9:	(bad)  
  4cd0dc:	dec    esp
  4cd0dd:	add    BYTE PTR [edi+0x5f],dl
  4cd0e0:	jmp    DWORD PTR [esp-0x4]
  4cd0e4:	mov    edi,edi
  4cd0e6:	push   ebp
  4cd0e7:	mov    ebp,esp
  4cd0e9:	sub    esp,0x24
  4cd0ec:	mov    ebx,0x4d019c
  4cd0f1:	sbb    DWORD PTR [ebp-0x14],esi
  4cd0f4:	push   0x0
  4cd0f6:	call   0x4cdf00
  4cd0fb:	push   ebx
  4cd0fc:	push   DWORD PTR [ebx+0x58]
  4cd0ff:	push   eax
  4cd100:	push   DWORD PTR [ebx+0x24]
  4cd103:	push   DWORD PTR [ebx+0x19c]
  4cd109:	call   0x4cd7b4
  4cd10e:	add    esp,0x10
  4cd111:	pop    ebx
  4cd112:	mov    edi,0x4cf718
  4cd117:	mov    edi,DWORD PTR [edi]
  4cd119:	push   edi
  4cd11a:	push   DWORD PTR [ebx-0x164]
  4cd120:	pop    edi
  4cd121:	call   edi
  4cd123:	add    esp,0x24
  4cd126:	pop    ebp
  4cd127:	ret    
  4cd128:	pop    edi
  4cd129:	xor    eax,eax
  4cd12b:	call   DWORD PTR [eax*8+0x4cf720]
  4cd132:	push   edi
  4cd133:	pop    edi
  4cd134:	jmp    DWORD PTR [esp-0x4]
  4cd138:	mov    edi,edi
  4cd13a:	push   ebp
  4cd13b:	mov    ebp,esp
  4cd13d:	sub    esp,0x28
  4cd140:	mov    ecx,0x4d0054
  4cd145:	add    DWORD PTR [ebp-0x24],0x20d1
  4cd14c:	push   ecx
  4cd14d:	push   DWORD PTR [ecx+0x160]
  4cd153:	push   DWORD PTR [ecx+0xa4]
  4cd159:	push   edi
  4cd15a:	call   0x4cdf10
  4cd15f:	add    esp,0xc
  4cd162:	pop    ecx
  4cd163:	push   ecx
  4cd164:	mov    esi,0x0
  4cd169:	push   esi
  4cd16a:	call   0x4cd634
  4cd16f:	pop    ecx
  4cd170:	push   ecx
  4cd171:	mov    ebx,0x0
  4cd176:	push   ebx
  4cd177:	call   0x4cdda4
  4cd17c:	pop    ecx
  4cd17d:	add    esp,0x28
  4cd180:	pop    ebp
  4cd181:	ret    
  4cd182:	add    BYTE PTR [eax],al
  4cd184:	mov    edi,edi
  4cd186:	push   ebp
  4cd187:	mov    ebp,esp
  4cd189:	sub    esp,0x44
  4cd18c:	mov    edx,0x4d01e4
  4cd191:	sbb    DWORD PTR [edx-0xd4],ecx
  4cd197:	push   edx
  4cd198:	mov    esi,0x0
  4cd19d:	push   esi
  4cd19e:	call   0x4cd634
  4cd1a3:	pop    edx
  4cd1a4:	push   edx
  4cd1a5:	push   esi
  4cd1a6:	push   edi
  4cd1a7:	call   0x4cdb68
  4cd1ac:	add    esp,0x8
  4cd1af:	pop    edx
  4cd1b0:	push   edx
  4cd1b1:	push   0xfffffff4
  4cd1b3:	call   0x4cdbac
  4cd1b8:	pop    edx
  4cd1b9:	add    esp,0x44
  4cd1bc:	pop    ebp
  4cd1bd:	ret    
  4cd1be:	add    BYTE PTR [eax],al
  4cd1c0:	mov    edi,edi
  4cd1c2:	push   ebp
  4cd1c3:	mov    ebp,esp
  4cd1c5:	sub    esp,0x3c
  4cd1c8:	lea    eax,ds:0x4d0144
  4cd1ce:	adc    edi,DWORD PTR [eax-0x40]
  4cd1d1:	push   eax
  4cd1d2:	push   0x0
  4cd1d4:	call   0x4cd634
  4cd1d9:	pop    eax
  4cd1da:	push   eax
  4cd1db:	push   esi
  4cd1dc:	push   DWORD PTR [eax+0x180]
  4cd1e2:	call   0x4cd4c0
  4cd1e7:	add    esp,0x8
  4cd1ea:	pop    eax
  4cd1eb:	push   eax
  4cd1ec:	mov    edx,0x0
  4cd1f1:	push   edx
  4cd1f2:	call   0x4cddb4
  4cd1f7:	pop    eax
  4cd1f8:	add    esp,0x3c
  4cd1fb:	pop    ebp
  4cd1fc:	ret    
  4cd1fd:	add    BYTE PTR [eax],al
  4cd1ff:	add    BYTE PTR [ebx-0x1374aa01],cl
  4cd205:	sub    esp,0x24
  4cd208:	lea    esi,[ecx+0x24]
  4cd20b:	sbb    DWORD PTR [esi+0xd4],ecx
  4cd211:	mov    edx,0x0
  4cd216:	push   edx
  4cd217:	call   0x4cdf00
  4cd21c:	push   esi
  4cd21d:	push   eax
  4cd21e:	push   DWORD PTR [esi+0x130]
  4cd224:	call   0x4cd010
  4cd229:	add    esp,0x8
  4cd22c:	pop    esi
  4cd22d:	lea    ebx,[esi-0xa8]
  4cd233:	push   ebx
  4cd234:	call   0x4cdd34
  4cd239:	test   eax,eax
  4cd23b:	jne    0x4cd22e
  4cd23d:	add    esp,0x24
  4cd240:	pop    ebp
  4cd241:	ret    
  4cd242:	add    BYTE PTR [eax],al
  4cd244:	mov    edi,edi
  4cd246:	push   ebp
  4cd247:	mov    ebp,esp
  4cd249:	sub    esp,0x30
  4cd24c:	lea    esi,[edi+0xa8]
  4cd252:	xor    DWORD PTR [esi-0x7c],0x50
  4cd256:	lea    eax,[esi-0xb0]
  4cd25c:	push   eax
  4cd25d:	call   0x4cdd34
  4cd262:	test   eax,eax
  4cd264:	jne    0x4cd257
  4cd266:	push   esi
  4cd267:	push   DWORD PTR [esi+0xa0]
  4cd26d:	push   edx
  4cd26e:	push   eax
  4cd26f:	call   0x4ce038
  4cd274:	add    esp,0xc
  4cd277:	pop    esi
  4cd278:	lea    edi,[esi-0xb0]
  4cd27e:	push   edi
  4cd27f:	call   0x4cdd34
  4cd284:	test   eax,eax
  4cd286:	jne    0x4cd279
  4cd288:	add    esp,0x30
  4cd28b:	pop    ebp
  4cd28c:	ret    
  4cd28d:	add    BYTE PTR [eax],al
  4cd28f:	add    BYTE PTR [ebx-0x1374aa01],cl
  4cd295:	sub    esp,0x4c
  4cd298:	lea    edi,[edx-0x6c]
  4cd29b:	add    DWORD PTR [ebp-0x38],edx
  4cd29e:	push   edi
  4cd29f:	push   edx
  4cd2a0:	push   esi
  4cd2a1:	call   0x4cd8f0
  4cd2a6:	add    esp,0x8
  4cd2a9:	pop    edi
  4cd2aa:	push   edi
  4cd2ab:	mov    edx,0x0
  4cd2b0:	push   edx
  4cd2b1:	call   0x4cd3ec
  4cd2b6:	pop    edi
  4cd2b7:	push   edi
  4cd2b8:	call   0x4cdd44
  4cd2bd:	pop    edi
  4cd2be:	add    esp,0x4c
  4cd2c1:	pop    ebp
  4cd2c2:	ret    
  4cd2c3:	add    BYTE PTR [edi+0x33],bl
  4cd2c6:	sar    bh,0x14
  4cd2c9:	lds    edi,FWORD PTR [eax-0x9]
  4cd2cc:	dec    esp
  4cd2cd:	add    BYTE PTR [edi+0x5f],dl
  4cd2d0:	jmp    DWORD PTR [esp-0x4]
  4cd2d4:	mov    edi,edi
  4cd2d6:	push   ebp
  4cd2d7:	mov    ebp,esp
  4cd2d9:	sub    esp,0x24
  4cd2dc:	lea    edx,[ebx+0xc]
  4cd2df:	adc    edi,DWORD PTR [edx-0x120]
  4cd2e5:	push   edx
  4cd2e6:	push   eax
  4cd2e7:	push   DWORD PTR [edx+0x118]
  4cd2ed:	push   esi
  4cd2ee:	push   DWORD PTR [edx+0x24]
  4cd2f1:	call   0x4cdcbc
  4cd2f6:	add    esp,0x10
  4cd2f9:	pop    edx
  4cd2fa:	push   edx
  4cd2fb:	push   0x0
  4cd2fd:	call   0x4cd634
  4cd302:	pop    edx
  4cd303:	push   edx
  4cd304:	call   0x4cdee0
  4cd309:	pop    edx
  4cd30a:	add    esp,0x24
  4cd30d:	pop    ebp
  4cd30e:	ret    
  4cd30f:	add    BYTE PTR [ebx-0x1374aa01],cl
  4cd315:	sub    esp,0x20
  4cd318:	lea    ebx,[edx-0x84]
  4cd31e:	or     edx,DWORD PTR [ebx+0xe4]
  4cd324:	mov    edi,0x0
  4cd329:	push   edi
  4cd32a:	call   0x4cdf00
  4cd32f:	push   ebx
  4cd330:	push   ecx
  4cd331:	push   DWORD PTR [ebx+0x174]
  4cd337:	push   DWORD PTR [ebx+0x144]
  4cd33d:	push   DWORD PTR [ebx+0x17c]
  4cd343:	call   0x4cd868
  4cd348:	add    esp,0x10
  4cd34b:	pop    ebx
  4cd34c:	push   0x0
  4cd34e:	call   0x4cdf00
  4cd353:	add    esp,0x20
  4cd356:	pop    ebp
  4cd357:	ret    
  4cd358:	pop    edi
  4cd359:	xor    eax,eax
  4cd35b:	call   DWORD PTR [eax*8+0x4cf788]
  4cd362:	push   edi
  4cd363:	pop    edi
  4cd364:	jmp    DWORD PTR [esp-0x4]
  4cd368:	mov    edi,edi
  4cd36a:	push   ebp
  4cd36b:	mov    ebp,esp
  4cd36d:	sub    esp,0x24
  4cd370:	lea    eax,ds:0x4d0020
  4cd376:	cmp    eax,0x6424
  4cd37b:	je     0x4cd36b
  4cd37d:	push   eax
  4cd37e:	push   DWORD PTR [eax+0x80]
  4cd384:	push   edi
  4cd385:	push   edi
  4cd386:	push   DWORD PTR [eax+0x7c]
  4cd389:	call   0x4cd0a0
  4cd38e:	add    esp,0x10
  4cd391:	pop    eax
  4cd392:	push   eax
  4cd393:	mov    ebx,0x0
  4cd398:	push   ebx
  4cd399:	call   0x4cdd94
  4cd39e:	pop    eax
  4cd39f:	push   eax
  4cd3a0:	push   0x0
  4cd3a2:	call   0x4cdda4
  4cd3a7:	pop    eax
  4cd3a8:	add    esp,0x24
  4cd3ab:	pop    ebp
  4cd3ac:	ret    
  4cd3ad:	add    BYTE PTR [eax],al
  4cd3af:	add    BYTE PTR [ebx-0x1374aa01],cl
  4cd3b5:	sub    esp,0x48
  4cd3b8:	lea    edi,[ebx-0x2c]
  4cd3bb:	sbb    ebx,edx
  4cd3bd:	push   edi
  4cd3be:	push   0x0
  4cd3c0:	call   0x4cdd94
  4cd3c5:	pop    edi
  4cd3c6:	push   edi
  4cd3c7:	push   eax
  4cd3c8:	push   DWORD PTR [edi+0x1dc]
  4cd3ce:	push   ebx
  4cd3cf:	push   ebx
  4cd3d0:	call   0x4cd1c0
  4cd3d5:	add    esp,0x10
  4cd3d8:	pop    edi
  4cd3d9:	push   edi
  4cd3da:	mov    edi,0x0
  4cd3df:	push   edi
  4cd3e0:	call   0x4cdf00
  4cd3e5:	pop    edi
  4cd3e6:	add    esp,0x48
  4cd3e9:	pop    ebp
  4cd3ea:	ret    
  4cd3eb:	add    BYTE PTR [edi+0x33],bl
  4cd3ee:	sar    bh,0x14
  4cd3f1:	lds    ecx,FWORD PTR [edi+esi*8+0x4c]
  4cd3f5:	add    BYTE PTR [edi+0x5f],dl
  4cd3f8:	jmp    DWORD PTR [esp-0x4]
  4cd3fc:	pop    edi
  4cd3fd:	xor    eax,eax
  4cd3ff:	call   DWORD PTR [eax*8+0x4cf710]
  4cd406:	push   edi
  4cd407:	pop    edi
  4cd408:	jmp    DWORD PTR [esp-0x4]
  4cd40c:	pop    edi
  4cd40d:	xor    eax,eax
  4cd40f:	call   DWORD PTR [eax*8+0x4cf774]
  4cd416:	push   edi
  4cd417:	pop    edi
  4cd418:	jmp    DWORD PTR [esp-0x4]
  4cd41c:	mov    edi,edi
  4cd41e:	push   ebp
  4cd41f:	mov    ebp,esp
  4cd421:	sub    esp,0x28
  4cd424:	lea    edi,[esi+0xf0]
  4cd42a:	mov    DWORD PTR [edi-0x30],0x643e
  4cd431:	push   edi
  4cd432:	push   ecx
  4cd433:	push   DWORD PTR [edi+0x178]
  4cd439:	call   0x4cd644
  4cd43e:	add    esp,0x8
  4cd441:	pop    edi
  4cd442:	push   edi
  4cd443:	call   0x4cd5b4
  4cd448:	pop    edi
  4cd449:	push   edi
  4cd44a:	push   0x0
  4cd44c:	call   0x4cd624
  4cd451:	pop    edi
  4cd452:	add    esp,0x28
  4cd455:	pop    ebp
  4cd456:	ret    
  4cd457:	add    BYTE PTR [ebx-0x1374aa01],cl
  4cd45d:	sub    esp,0x48
  4cd460:	lea    edi,[eax-0x14]
  4cd463:	and    DWORD PTR [edi+0xe0],edi
  4cd469:	push   edi
  4cd46a:	mov    edi,0x0
  4cd46f:	push   edi
  4cd470:	call   0x4cdda4
  4cd475:	pop    edi
  4cd476:	push   edi
  4cd477:	push   ebx
  4cd478:	push   DWORD PTR [edi+0x1d4]
  4cd47e:	push   edx
  4cd47f:	push   ecx
  4cd480:	call   0x4ce070
  4cd485:	add    esp,0x10
  4cd488:	pop    edi
  4cd489:	push   edi
  4cd48a:	lea    ecx,[edi-0xe8]
  4cd490:	push   ecx
  4cd491:	call   0x4cdd34
  4cd496:	test   eax,eax
  4cd498:	jne    0x4cd48a
  4cd49a:	pop    edi
  4cd49b:	add    esp,0x48
  4cd49e:	pop    ebp
  4cd49f:	ret    
  4cd4a0:	pop    edi
  4cd4a1:	xor    eax,eax
  4cd4a3:	call   DWORD PTR [eax*8+0x4cf740]
  4cd4aa:	push   edi
  4cd4ab:	pop    edi
  4cd4ac:	jmp    DWORD PTR [esp-0x4]
  4cd4b0:	pop    edi
  4cd4b1:	xor    eax,eax
  4cd4b3:	call   DWORD PTR [eax*8+0x4cf754]
  4cd4ba:	push   edi
  4cd4bb:	pop    edi
  4cd4bc:	jmp    DWORD PTR [esp-0x4]
  4cd4c0:	mov    edi,edi
  4cd4c2:	push   ebp
  4cd4c3:	mov    ebp,esp
  4cd4c5:	sub    esp,0x3c
  4cd4c8:	lea    ecx,ds:0x4d00f0
  4cd4ce:	mov    esi,edi
  4cd4d0:	push   ecx
  4cd4d1:	mov    edi,0x0
  4cd4d6:	push   edi
  4cd4d7:	call   0x4cdf00
  4cd4dc:	pop    ecx
  4cd4dd:	push   ecx
  4cd4de:	push   DWORD PTR [ecx+0x168]
  4cd4e4:	push   ebx
  4cd4e5:	push   esi
  4cd4e6:	push   edx
  4cd4e7:	call   0x4cd8b4
  4cd4ec:	add    esp,0x10
  4cd4ef:	pop    ecx
  4cd4f0:	push   ecx
  4cd4f1:	call   0x4cd5b4
  4cd4f6:	pop    ecx
  4cd4f7:	add    esp,0x3c
  4cd4fa:	pop    ebp
  4cd4fb:	ret    
  4cd4fc:	pop    edi
  4cd4fd:	xor    eax,eax
  4cd4ff:	call   DWORD PTR [eax*8+0x4cf780]
  4cd506:	push   edi
  4cd507:	pop    edi
  4cd508:	jmp    DWORD PTR [esp-0x4]
  4cd50c:	pop    edi
  4cd50d:	xor    eax,eax
  4cd50f:	call   DWORD PTR [eax*8+0x4cf760]
  4cd516:	push   edi
  4cd517:	pop    edi
  4cd518:	jmp    DWORD PTR [esp-0x4]
  4cd51c:	push   edi
  4cd51d:	xor    edi,edi
  4cd51f:	push   edi
  4cd520:	push   edi
  4cd521:	push   edi
  4cd522:	push   edi
  4cd523:	call   0x4cdbac
  4cd528:	sub    esp,0x4
  4cd52b:	call   0x4cd5c4
  4cd530:	push   0x2
  4cd532:	xor    eax,eax
  4cd534:	xor    eax,0x4d00a0
  4cd539:	push   0x0
  4cd53b:	inc    DWORD PTR ds:0x4d00a6
  4cd541:	push   eax
  4cd542:	call   0x4cd564
  4cd547:	pop    edi
  4cd548:	lea    edi,[eax+0x3b]
  4cd54b:	mov    edi,DWORD PTR [edi]
  4cd54d:	lea    eax,[eax+edi*1]
  4cd550:	add    eax,0x28
  4cd553:	mov    eax,DWORD PTR [eax]
  4cd555:	pusha  
  4cd556:	mov    ah,0x30
  4cd558:	sub    al,ah
  4cd55a:	jb     0x4cd562
  4cd55c:	jg     0x4cd0e4
  4cd562:	popa   
  4cd563:	ret    
  4cd564:	pop    edi
  4cd565:	xor    eax,eax
  4cd567:	call   DWORD PTR [eax*8+0x4cf734]
  4cd56e:	push   edi
  4cd56f:	pop    edi
  4cd570:	jmp    DWORD PTR [esp-0x4]
  4cd574:	mov    edi,edi
  4cd576:	push   ebp
  4cd577:	mov    ebp,esp
  4cd579:	sub    esp,0x34
  4cd57c:	mov    edi,0x4d0134
  4cd581:	and    DWORD PTR [ebp-0x18],0xffffc0ad
  4cd588:	push   edi
  4cd589:	push   0x0
  4cd58b:	call   0x4cddb4
  4cd590:	pop    edi
  4cd591:	push   edi
  4cd592:	push   DWORD PTR [edi+0xd8]
  4cd598:	push   DWORD PTR [edi+0x124]
  4cd59e:	call   0x4cd5e4
  4cd5a3:	add    esp,0x8
  4cd5a6:	pop    edi
  4cd5a7:	push   edi
  4cd5a8:	call   0x4cd5b4
  4cd5ad:	pop    edi
  4cd5ae:	add    esp,0x34
  4cd5b1:	pop    ebp
  4cd5b2:	ret    
  4cd5b3:	add    BYTE PTR [edi+0x33],bl
  4cd5b6:	sar    bh,0x14
  4cd5b9:	lds    edx,FWORD PTR [edi+esi*8]
  4cd5bc:	dec    esp
  4cd5bd:	add    BYTE PTR [edi+0x5f],dl
  4cd5c0:	jmp    DWORD PTR [esp-0x4]
  4cd5c4:	pop    edi
  4cd5c5:	xor    eax,eax
  4cd5c7:	call   DWORD PTR [eax*8+0x4cf700]
  4cd5ce:	push   edi
  4cd5cf:	pop    edi
  4cd5d0:	jmp    DWORD PTR [esp-0x4]
  4cd5d4:	pop    edi
  4cd5d5:	xor    eax,eax
  4cd5d7:	call   DWORD PTR [eax*8+0x4cf6e8]
  4cd5de:	push   edi
  4cd5df:	pop    edi
  4cd5e0:	jmp    DWORD PTR [esp-0x4]
  4cd5e4:	mov    edi,edi
  4cd5e6:	push   ebp
  4cd5e7:	mov    ebp,esp
  4cd5e9:	sub    esp,0x20
  4cd5ec:	lea    esi,ds:0x4d01a4
  4cd5f2:	xor    edx,edi
  4cd5f4:	push   esi
  4cd5f5:	push   DWORD PTR [esi+0x1b8]
  4cd5fb:	push   edx
  4cd5fc:	call   0x4cdd54
  4cd601:	add    esp,0x8
  4cd604:	pop    esi
  4cd605:	lea    edx,[esi-0x1a4]
  4cd60b:	push   edx
  4cd60c:	call   0x4cdd34
  4cd611:	test   eax,eax
  4cd613:	jne    0x4cd606
  4cd615:	push   0x0
  4cd617:	call   0x4cdd94
  4cd61c:	add    esp,0x20
  4cd61f:	pop    ebp
  4cd620:	ret    
  4cd621:	add    BYTE PTR [eax],al
  4cd623:	add    BYTE PTR [edi+0x33],bl
  4cd626:	sar    bh,0x14
  4cd629:	lds    eax,FWORD PTR [edi+esi*8]
  4cd62c:	dec    esp
  4cd62d:	add    BYTE PTR [edi+0x5f],dl
  4cd630:	jmp    DWORD PTR [esp-0x4]
  4cd634:	pop    edi
  4cd635:	xor    eax,eax
  4cd637:	call   DWORD PTR [eax*8+0x4cf6ec]
  4cd63e:	push   edi
  4cd63f:	pop    edi
  4cd640:	jmp    DWORD PTR [esp-0x4]
  4cd644:	mov    edi,edi
  4cd646:	push   ebp
  4cd647:	mov    ebp,esp
  4cd649:	sub    esp,0x40
  4cd64c:	lea    ebx,ds:0x4d0128
  4cd652:	and    DWORD PTR [ebx-0x28],0xffffff89
  4cd656:	mov    ecx,0x0
  4cd65b:	push   ecx
  4cd65c:	call   0x4cdda4
  4cd661:	push   ebx
  4cd662:	push   DWORD PTR [ebx+0x1f0]
  4cd668:	push   eax
  4cd669:	call   0x4cd3b0
  4cd66e:	add    esp,0x8
  4cd671:	pop    ebx
  4cd672:	mov    edx,0x0
  4cd677:	push   edx
  4cd678:	call   0x4cdf00
  4cd67d:	add    esp,0x40
  4cd680:	pop    ebp
  4cd681:	ret    
  4cd682:	add    BYTE PTR [eax],al
  4cd684:	mov    edi,edi
  4cd686:	push   ebp
  4cd687:	mov    ebp,esp
  4cd689:	sub    esp,0x5c
  4cd68c:	lea    ecx,ds:0x4d0164
  4cd692:	adc    DWORD PTR [ebp-0x40],0x59af
  4cd699:	push   ecx
  4cd69a:	push   DWORD PTR [ecx+0x194]
  4cd6a0:	push   DWORD PTR [ecx+0x194]
  4cd6a6:	push   eax
  4cd6a7:	push   edi
  4cd6a8:	call   0x4cde2c
  4cd6ad:	add    esp,0x10
  4cd6b0:	pop    ecx
  4cd6b1:	push   ecx
  4cd6b2:	push   0x0
  4cd6b4:	call   0x4cd3ec
  4cd6b9:	pop    ecx
  4cd6ba:	push   ecx
  4cd6bb:	lea    edi,[ecx-0x164]
  4cd6c1:	push   edi
  4cd6c2:	call   0x4cdd34
  4cd6c7:	test   eax,eax
  4cd6c9:	jne    0x4cd6bb
  4cd6cb:	pop    ecx
  4cd6cc:	add    esp,0x5c
  4cd6cf:	pop    ebp
  4cd6d0:	ret    
  4cd6d1:	add    BYTE PTR [eax],al
  4cd6d3:	add    BYTE PTR [edi+0x33],bl
  4cd6d6:	sar    bh,0x14
  4cd6d9:	(bad)
  4cd6dc:	dec    esp
  4cd6dd:	add    BYTE PTR [edi+0x5f],dl
  4cd6e0:	jmp    DWORD PTR [esp-0x4]
  4cd6e4:	mov    edi,edi
  4cd6e6:	push   ebp
  4cd6e7:	mov    ebp,esp
  4cd6e9:	sub    esp,0x28
  4cd6ec:	lea    eax,ds:0x4d01a0
  4cd6f2:	or     DWORD PTR [ebp-0x10],0xffffffa9
  4cd6f6:	push   eax
  4cd6f7:	push   edi
  4cd6f8:	push   DWORD PTR [eax+0x78]
  4cd6fb:	call   0x4cd574
  4cd700:	add    esp,0x8
  4cd703:	pop    eax
  4cd704:	push   eax
  4cd705:	call   0x4cd5b4
  4cd70a:	pop    eax
  4cd70b:	push   eax
  4cd70c:	mov    ecx,0x0
  4cd711:	push   ecx
  4cd712:	call   0x4cdd94
  4cd717:	pop    eax
  4cd718:	add    esp,0x28
  4cd71b:	pop    ebp
  4cd71c:	ret    
  4cd71d:	add    BYTE PTR [eax],al
  4cd71f:	add    BYTE PTR [edi+0x33],bl
  4cd722:	sar    bh,0x14
  4cd725:	lds    edi,FWORD PTR [edi+esi*8]
  4cd728:	dec    esp
  4cd729:	add    BYTE PTR [edi+0x5f],dl
  4cd72c:	jmp    DWORD PTR [esp-0x4]
  4cd730:	mov    edi,edi
  4cd732:	push   ebp
  4cd733:	mov    ebp,esp
  4cd735:	sub    esp,0x34
  4cd738:	lea    edi,ds:0x4d00bc
  4cd73e:	xor    DWORD PTR [ebp-0x24],0xffffff82
  4cd742:	push   edi
  4cd743:	push   DWORD PTR [edi+0x138]
  4cd749:	push   esi
  4cd74a:	call   0x4cdad4
  4cd74f:	add    esp,0x8
  4cd752:	pop    edi
  4cd753:	push   edi
  4cd754:	push   0x0
  4cd756:	call   0x4cd3ec
  4cd75b:	pop    edi
  4cd75c:	push   edi
  4cd75d:	mov    edx,0x0
  4cd762:	push   edx
  4cd763:	call   0x4cdda4
  4cd768:	pop    edi
  4cd769:	add    esp,0x34
  4cd76c:	pop    ebp
  4cd76d:	ret    
  4cd76e:	add    BYTE PTR [eax],al
  4cd770:	mov    edi,edi
  4cd772:	push   ebp
  4cd773:	mov    ebp,esp
  4cd775:	sub    esp,0x24
  4cd778:	mov    edi,0x4d0104
  4cd77d:	mov    DWORD PTR [edi+0xe8],edx
  4cd783:	push   edi
  4cd784:	mov    eax,0x0
  4cd789:	push   eax
  4cd78a:	call   0x4cddb4
  4cd78f:	pop    edi
  4cd790:	push   edi
  4cd791:	push   DWORD PTR [edi+0x44]
  4cd794:	push   ebx
  4cd795:	push   DWORD PTR [edi+0xd0]
  4cd79b:	push   ebx
  4cd79c:	call   0x4cd9bc
  4cd7a1:	add    esp,0x10
  4cd7a4:	pop    edi
  4cd7a5:	push   edi
  4cd7a6:	push   0x0
  4cd7a8:	call   0x4cd3fc
  4cd7ad:	pop    edi
  4cd7ae:	add    esp,0x24
  4cd7b1:	pop    ebp
  4cd7b2:	ret    
  4cd7b3:	add    BYTE PTR [ebx-0x1374aa01],cl
  4cd7b9:	sub    esp,0x50
  4cd7bc:	lea    ecx,[ebx-0xc8]
  4cd7c2:	sub    ebx,0x3f28
  4cd7c8:	push   ecx
  4cd7c9:	mov    esi,0x0
  4cd7ce:	push   esi
  4cd7cf:	call   0x4cd624
  4cd7d4:	pop    ecx
  4cd7d5:	push   ecx
  4cd7d6:	push   eax
  4cd7d7:	push   esi
  4cd7d8:	push   DWORD PTR [ecx+0x7c]
  4cd7db:	push   edx
  4cd7dc:	call   0x4cdb20
  4cd7e1:	add    esp,0x10
  4cd7e4:	pop    ecx
  4cd7e5:	push   ecx
  4cd7e6:	mov    ebx,0x0
  4cd7eb:	push   ebx
  4cd7ec:	call   0x4cd634
  4cd7f1:	pop    ecx
  4cd7f2:	add    esp,0x50
  4cd7f5:	pop    ebp
  4cd7f6:	ret    
  4cd7f7:	add    BYTE PTR [ebx-0x1374aa01],cl
  4cd7fd:	sub    esp,0x3c
  4cd800:	lea    edi,ds:0x4d0008
  4cd806:	or     ebx,esi
  4cd808:	push   edi
  4cd809:	mov    edx,0x0
  4cd80e:	push   edx
  4cd80f:	call   0x4cd000
  4cd814:	pop    edi
  4cd815:	push   edi
  4cd816:	push   DWORD PTR [edi+0x160]
  4cd81c:	push   eax
  4cd81d:	call   0x4cd244
  4cd822:	add    esp,0x8
  4cd825:	pop    edi
  4cd826:	push   edi
  4cd827:	call   0x4cdd44
  4cd82c:	pop    edi
  4cd82d:	add    esp,0x3c
  4cd830:	pop    ebp
  4cd831:	ret    
  4cd832:	add    BYTE PTR [eax],al
  4cd834:	mov    edi,edi
  4cd836:	push   ebp
  4cd837:	mov    ebp,esp
  4cd839:	sub    esp,0x24
  4cd83c:	mov    eax,0x4d0170
  4cd841:	or     DWORD PTR [ebp-0x18],0xffffff95
  4cd845:	push   eax
  4cd846:	push   0x0
  4cd848:	call   0x4cd3ec
  4cd84d:	pop    eax
  4cd84e:	push   eax
  4cd84f:	push   ebx
  4cd850:	push   ebx
  4cd851:	call   0x4cda48
  4cd856:	add    esp,0x8
  4cd859:	pop    eax
  4cd85a:	push   eax
  4cd85b:	push   0x0
  4cd85d:	call   0x4cd3ec
  4cd862:	pop    eax
  4cd863:	add    esp,0x24
  4cd866:	pop    ebp
  4cd867:	ret    
  4cd868:	mov    edi,edi
  4cd86a:	push   ebp
  4cd86b:	mov    ebp,esp
  4cd86d:	sub    esp,0x24
  4cd870:	lea    eax,[ebx+0x90]
  4cd876:	sub    DWORD PTR [eax-0xe8],0x59
  4cd87d:	push   eax
  4cd87e:	call   0x4cdee0
  4cd883:	pop    eax
  4cd884:	push   eax
  4cd885:	push   DWORD PTR [eax+0x144]
  4cd88b:	push   DWORD PTR [eax+0x1e8]
  4cd891:	call   0x4cd458
  4cd896:	add    esp,0x8
  4cd899:	pop    eax
  4cd89a:	push   eax
  4cd89b:	lea    esi,[eax-0xfc]
  4cd8a1:	push   esi
  4cd8a2:	call   0x4cdd34
  4cd8a7:	test   eax,eax
  4cd8a9:	jne    0x4cd89b
  4cd8ab:	pop    eax
  4cd8ac:	add    esp,0x24
  4cd8af:	pop    ebp
  4cd8b0:	ret    
  4cd8b1:	add    BYTE PTR [eax],al
  4cd8b3:	add    BYTE PTR [ebx-0x1374aa01],cl
  4cd8b9:	sub    esp,0x20
  4cd8bc:	lea    edi,[ecx+0x20]
  4cd8bf:	mov    ebx,edi
  4cd8c1:	push   edi
  4cd8c2:	push   DWORD PTR [edi+0x10]
  4cd8c5:	push   DWORD PTR [edi+0x198]
  4cd8cb:	call   0x4cd6e4
  4cd8d0:	add    esp,0x8
  4cd8d3:	pop    edi
  4cd8d4:	push   edi
  4cd8d5:	call   0x4cd5b4
  4cd8da:	pop    edi
  4cd8db:	push   edi
  4cd8dc:	mov    esi,0x0
  4cd8e1:	push   esi
  4cd8e2:	call   0x4cddb4
  4cd8e7:	pop    edi
  4cd8e8:	add    esp,0x20
  4cd8eb:	pop    ebp
  4cd8ec:	ret    
  4cd8ed:	add    BYTE PTR [eax],al
  4cd8ef:	add    BYTE PTR [ebx-0x1374aa01],cl
  4cd8f5:	sub    esp,0x3c
  4cd8f8:	xor    edx,0xffffffe5
  4cd8fb:	lea    edx,[edi-0x24]
  4cd8fe:	push   edx
  4cd8ff:	push   0x6a8
  4cd904:	push   0x6a8
  4cd909:	mov    eax,0x40001
  4cd90e:	push   eax
  4cd90f:	mov    ebx,0x86295c76
  4cd914:	push   DWORD PTR [ebx+0x7a239a86]
  4cd91a:	sub    DWORD PTR [esp],0x2
  4cd91e:	mov    ebx,0x4cf734
  4cd923:	pop    DWORD PTR [ebx]
  4cd925:	call   0x4cd564
  4cd92a:	xchg   DWORD PTR [esp],eax
  4cd92d:	mov    edx,eax
  4cd92f:	pop    DWORD PTR [edx+0x18]
  4cd932:	mov    eax,DWORD PTR [edx+0x18]
  4cd935:	lea    esi,[eax]
  4cd937:	sub    ecx,ecx
  4cd939:	dec    ecx
  4cd93a:	and    ecx,0x4cf038
  4cd940:	mov    edi,0x631a7e54
  4cd945:	xor    eax,eax
  4cd947:	xor    ebx,ebx
  4cd949:	push   DWORD PTR [ecx+ebx*1]
  4cd94c:	sub    DWORD PTR [esp],edi
  4cd94f:	pop    DWORD PTR [esi+ebx*2]
  4cd952:	dec    DWORD PTR [esi]
  4cd954:	xor    edi,edi
  4cd956:	add    edi,DWORD PTR [ecx]
  4cd958:	add    ecx,0x4
  4cd95b:	add    esi,0x4
  4cd95e:	add    eax,0x4
  4cd961:	cmp    eax,0x6a8
  4cd966:	jne    0x4cd947
  4cd968:	push   edx
  4cd969:	call   0x4cdc14
  4cd96e:	pop    edx
  4cd96f:	add    esp,0x3c
  4cd972:	pop    ebp
  4cd973:	ret    
  4cd974:	pop    edi
  4cd975:	xor    eax,eax
  4cd977:	call   DWORD PTR [eax*8+0x4cf784]
  4cd97e:	push   edi
  4cd97f:	pop    edi
  4cd980:	jmp    DWORD PTR [esp-0x4]
  4cd984:	mov    edi,edi
  4cd986:	push   ebp
  4cd987:	mov    ebp,esp
  4cd989:	sub    esp,0x48
  4cd98c:	mov    ecx,0x4d014c
  4cd991:	cmp    ecx,0x3c18
  4cd997:	jb     0x4cd987
  4cd999:	push   ecx
  4cd99a:	push   edi
  4cd99b:	push   eax
  4cd99c:	call   0x4cddc4
  4cd9a1:	add    esp,0x8
  4cd9a4:	pop    ecx
  4cd9a5:	push   ecx
  4cd9a6:	push   0x0
  4cd9a8:	call   0x4cdd94
  4cd9ad:	pop    ecx
  4cd9ae:	push   ecx
  4cd9af:	call   0x4cdc14
  4cd9b4:	pop    ecx
  4cd9b5:	add    esp,0x48
  4cd9b8:	pop    ebp
  4cd9b9:	ret    
  4cd9ba:	add    BYTE PTR [eax],al
  4cd9bc:	mov    edi,edi
  4cd9be:	push   ebp
  4cd9bf:	mov    ebp,esp
  4cd9c1:	sub    esp,0x1c
  4cd9c4:	mov    edx,0x4d00f0
  4cd9c9:	sbb    DWORD PTR [ebp-0x10],0x41
  4cd9cd:	push   edx
  4cd9ce:	call   0x4cdee0
  4cd9d3:	pop    edx
  4cd9d4:	push   edx
  4cd9d5:	push   DWORD PTR [edx+0x178]
  4cd9db:	push   DWORD PTR [edx+0x48]
  4cd9de:	call   0x4cd310
  4cd9e3:	add    esp,0x8
  4cd9e6:	pop    edx
  4cd9e7:	push   edx
  4cd9e8:	lea    esi,[edx-0xf0]
  4cd9ee:	push   esi
  4cd9ef:	call   0x4cdd34
  4cd9f4:	test   eax,eax
  4cd9f6:	jne    0x4cd9e8
  4cd9f8:	pop    edx
  4cd9f9:	add    esp,0x1c
  4cd9fc:	pop    ebp
  4cd9fd:	ret    
  4cd9fe:	add    BYTE PTR [eax],al
  4cda00:	mov    edi,edi
  4cda02:	push   ebp
  4cda03:	mov    ebp,esp
  4cda05:	sub    esp,0x44
  4cda08:	lea    edi,ds:0x4d0060
  4cda0e:	or     ebx,0x41b0
  4cda14:	push   edi
  4cda15:	push   eax
  4cda16:	push   DWORD PTR [edi+0x1cc]
  4cda1c:	push   DWORD PTR [edi+0x128]
  4cda22:	call   0x4cdbcc
  4cda27:	add    esp,0xc
  4cda2a:	pop    edi
  4cda2b:	push   edi
  4cda2c:	push   0xfffffff4
  4cda2e:	call   0x4cdbac
  4cda33:	pop    edi
  4cda34:	push   edi
  4cda35:	mov    edi,0xfffffff4
  4cda3a:	push   edi
  4cda3b:	call   0x4cdbac
  4cda40:	pop    edi
  4cda41:	add    esp,0x44
  4cda44:	pop    ebp
  4cda45:	ret    
  4cda46:	add    BYTE PTR [eax],al
  4cda48:	mov    edi,edi
  4cda4a:	push   ebp
  4cda4b:	mov    ebp,esp
  4cda4d:	sub    esp,0x28
  4cda50:	lea    esi,ds:0x4d0034
  4cda56:	or     edi,DWORD PTR [esi+0x134]
  4cda5c:	lea    ebx,[esi-0x34]
  4cda5f:	push   ebx
  4cda60:	call   0x4cdd34
  4cda65:	test   eax,eax
  4cda67:	jne    0x4cda5d
  4cda69:	push   esi
  4cda6a:	push   DWORD PTR [esi+0xdc]
  4cda70:	push   edx
  4cda71:	push   DWORD PTR [esi+0x1ec]
  4cda77:	push   edi
  4cda78:	call   0x4cd730
  4cda7d:	add    esp,0x10
  4cda80:	pop    esi
  4cda81:	call   0x4cd5b4
  4cda86:	add    esp,0x28
  4cda89:	pop    ebp
  4cda8a:	ret    
  4cda8b:	add    BYTE PTR [ebx-0x1374aa01],cl
  4cda91:	sub    esp,0x48
  4cda94:	mov    edx,0x4d0104
  4cda99:	adc    DWORD PTR [edx],0xffffffee
  4cda9c:	push   edx
  4cda9d:	call   0x4cd5b4
  4cdaa2:	pop    edx
  4cdaa3:	push   edx
  4cdaa4:	push   edi
  4cdaa5:	push   esi
  4cdaa6:	push   DWORD PTR [edx+0x40]
  4cdaa9:	call   0x4ce004
  4cdaae:	add    esp,0xc
  4cdab1:	pop    edx
  4cdab2:	push   edx
  4cdab3:	mov    eax,0xfffffff4
  4cdab8:	push   eax
  4cdab9:	call   0x4cdbac
  4cdabe:	pop    edx
  4cdabf:	add    esp,0x48
  4cdac2:	pop    ebp
  4cdac3:	ret    
  4cdac4:	pop    edi
  4cdac5:	xor    eax,eax
  4cdac7:	call   DWORD PTR [eax*8+0x4cf764]
  4cdace:	push   edi
  4cdacf:	pop    edi
  4cdad0:	jmp    DWORD PTR [esp-0x4]
  4cdad4:	mov    edi,edi
  4cdad6:	push   ebp
  4cdad7:	mov    ebp,esp
  4cdad9:	sub    esp,0x34
  4cdadc:	lea    esi,ds:0x4d006c
  4cdae2:	or     edx,DWORD PTR [ebp-0x8]
  4cdae5:	push   esi
  4cdae6:	push   DWORD PTR [esi+0x1e0]
  4cdaec:	push   ebx
  4cdaed:	push   DWORD PTR [esi+0x1f4]
  4cdaf3:	call   0x4cdf84
  4cdaf8:	add    esp,0xc
  4cdafb:	pop    esi
  4cdafc:	call   0x4cdee0
  4cdb01:	push   0x0
  4cdb03:	call   0x4cdda4
  4cdb08:	add    esp,0x34
  4cdb0b:	pop    ebp
  4cdb0c:	ret    
  4cdb0d:	add    BYTE PTR [eax],al
  4cdb0f:	add    BYTE PTR [edi+0x33],bl
  4cdb12:	sar    bh,0x14
  4cdb15:	lds    edi,FWORD PTR [edi+esi*8+0x4c]
  4cdb19:	add    BYTE PTR [edi+0x5f],dl
  4cdb1c:	jmp    DWORD PTR [esp-0x4]
  4cdb20:	mov    edi,edi
  4cdb22:	push   ebp
  4cdb23:	mov    ebp,esp
  4cdb25:	sub    esp,0x38
  4cdb28:	lea    eax,ds:0x4d0050
  4cdb2e:	xor    edi,ebx
  4cdb30:	push   eax
  4cdb31:	push   ecx
  4cdb32:	push   DWORD PTR [eax+0x1d4]
  4cdb38:	call   0x4cda8c
  4cdb3d:	add    esp,0x8
  4cdb40:	pop    eax
  4cdb41:	push   eax
  4cdb42:	call   0x4cdd44
  4cdb47:	pop    eax
  4cdb48:	push   eax
  4cdb49:	push   0x0
  4cdb4b:	call   0x4cdd94
  4cdb50:	pop    eax
  4cdb51:	add    esp,0x38
  4cdb54:	pop    ebp
  4cdb55:	ret    
  4cdb56:	add    BYTE PTR [eax],al
  4cdb58:	pop    edi
  4cdb59:	xor    eax,eax
  4cdb5b:	call   DWORD PTR [eax*8+0x4cf744]
  4cdb62:	push   edi
  4cdb63:	pop    edi
  4cdb64:	jmp    DWORD PTR [esp-0x4]
  4cdb68:	mov    edi,edi
  4cdb6a:	push   ebp
  4cdb6b:	mov    ebp,esp
  4cdb6d:	sub    esp,0x58
  4cdb70:	lea    ecx,ds:0x4d0040
  4cdb76:	sbb    DWORD PTR [ebp-0x58],0xffffa8bd
  4cdb7d:	push   ecx
  4cdb7e:	push   edi
  4cdb7f:	push   DWORD PTR [ecx+0x90]
  4cdb85:	call   0x4cd7f8
  4cdb8a:	add    esp,0x8
  4cdb8d:	pop    ecx
  4cdb8e:	push   ecx
  4cdb8f:	push   0x0
  4cdb91:	call   0x4cd000
  4cdb96:	pop    ecx
  4cdb97:	push   ecx
  4cdb98:	mov    eax,0x0
  4cdb9d:	push   eax
  4cdb9e:	call   0x4cd000
  4cdba3:	pop    ecx
  4cdba4:	add    esp,0x58
  4cdba7:	pop    ebp
  4cdba8:	ret    
  4cdba9:	add    BYTE PTR [eax],al
  4cdbab:	add    BYTE PTR [edi+0x33],bl
  4cdbae:	sar    bh,0x14
  4cdbb1:	lds    ecx,FWORD PTR [edi+esi*8]
  4cdbb4:	dec    esp
  4cdbb5:	add    BYTE PTR [edi+0x5f],dl
  4cdbb8:	jmp    DWORD PTR [esp-0x4]
  4cdbbc:	pop    edi
  4cdbbd:	xor    eax,eax
  4cdbbf:	call   DWORD PTR [eax*8+0x4cf768]
  4cdbc6:	push   edi
  4cdbc7:	pop    edi
  4cdbc8:	jmp    DWORD PTR [esp-0x4]
  4cdbcc:	mov    edi,edi
  4cdbce:	push   ebp
  4cdbcf:	mov    ebp,esp
  4cdbd1:	sub    esp,0x24
  4cdbd4:	lea    edx,[edi+0xf4]
  4cdbda:	or     ebx,0x46ab
  4cdbe0:	push   edx
  4cdbe1:	push   DWORD PTR [edx+0x1c]
  4cdbe4:	push   eax
  4cdbe5:	push   esi
  4cdbe6:	push   DWORD PTR [edx+0x1d8]
  4cdbec:	call   0x4cddf0
  4cdbf1:	add    esp,0x10
  4cdbf4:	pop    edx
  4cdbf5:	push   edx
  4cdbf6:	mov    esi,0x0
  4cdbfb:	push   esi
  4cdbfc:	call   0x4cd000
  4cdc01:	pop    edx
  4cdc02:	push   edx
  4cdc03:	mov    ecx,0x0
  4cdc08:	push   ecx
  4cdc09:	call   0x4cd634
  4cdc0e:	pop    edx
  4cdc0f:	add    esp,0x24
  4cdc12:	pop    ebp
  4cdc13:	ret    
  4cdc14:	pop    edi
  4cdc15:	xor    eax,eax
  4cdc17:	call   DWORD PTR [eax*8+0x4cf71c]
  4cdc1e:	push   edi
  4cdc1f:	pop    edi
  4cdc20:	jmp    DWORD PTR [esp-0x4]
  4cdc24:	pop    edi
  4cdc25:	xor    eax,eax
  4cdc27:	call   DWORD PTR [eax*8+0x4cf750]
  4cdc2e:	push   edi
  4cdc2f:	pop    edi
  4cdc30:	jmp    DWORD PTR [esp-0x4]
  4cdc34:	mov    edi,edi
  4cdc36:	push   ebp
  4cdc37:	mov    ebp,esp
  4cdc39:	sub    esp,0x38
  4cdc3c:	lea    ecx,[eax+0xac]
  4cdc42:	or     DWORD PTR [ebp-0x8],eax
  4cdc45:	push   ecx
  4cdc46:	push   0x0
  4cdc48:	call   0x4cd3ec
  4cdc4d:	pop    ecx
  4cdc4e:	push   ecx
  4cdc4f:	push   DWORD PTR [ecx+0x70]
  4cdc52:	push   DWORD PTR [ecx+0xd0]
  4cdc58:	call   0x4cda00
  4cdc5d:	add    esp,0x8
  4cdc60:	pop    ecx
  4cdc61:	push   ecx
  4cdc62:	mov    ebx,0xfffffff4
  4cdc67:	push   ebx
  4cdc68:	call   0x4cdbac
  4cdc6d:	pop    ecx
  4cdc6e:	add    esp,0x38
  4cdc71:	pop    ebp
  4cdc72:	ret    
  4cdc73:	add    BYTE PTR [ebx-0x1374aa01],cl
  4cdc79:	sub    esp,0x5c
  4cdc7c:	mov    edx,0x4d0044
  4cdc81:	or     DWORD PTR [ebp-0x28],0xffffc6ab
  4cdc88:	push   edx
  4cdc89:	push   ebx
  4cdc8a:	push   ebx
  4cdc8b:	push   DWORD PTR [edx+0xdc]
  4cdc91:	push   DWORD PTR [edx+0x1b8]
  4cdc97:	call   0x4cdcfc
  4cdc9c:	add    esp,0x10
  4cdc9f:	pop    edx
  4cdca0:	push   edx
  4cdca1:	mov    edx,0x0
  4cdca6:	push   edx
  4cdca7:	call   0x4cd3ec
  4cdcac:	pop    edx
  4cdcad:	push   edx
  4cdcae:	push   0x0
  4cdcb0:	call   0x4cd634
  4cdcb5:	pop    edx
  4cdcb6:	add    esp,0x5c
  4cdcb9:	pop    ebp
  4cdcba:	ret    
  4cdcbb:	add    BYTE PTR [ebx-0x1374aa01],cl
  4cdcc1:	sub    esp,0x58
  4cdcc4:	lea    eax,[edx-0xac]
  4cdcca:	and    ebx,DWORD PTR [ebp-0x34]
  4cdccd:	push   eax
  4cdcce:	push   esi
  4cdccf:	push   edi
  4cdcd0:	push   esi
  4cdcd1:	call   0x4cd684
  4cdcd6:	add    esp,0xc
  4cdcd9:	pop    eax
  4cdcda:	push   eax
  4cdcdb:	mov    edi,0x0
  4cdce0:	push   edi
  4cdce1:	call   0x4cd3ec
  4cdce6:	pop    eax
  4cdce7:	push   eax
  4cdce8:	mov    edx,0x0
  4cdced:	push   edx
  4cdcee:	call   0x4cd3fc
  4cdcf3:	pop    eax
  4cdcf4:	add    esp,0x58
  4cdcf7:	pop    ebp
  4cdcf8:	ret    
  4cdcf9:	add    BYTE PTR [eax],al
  4cdcfb:	add    BYTE PTR [ebx-0x1374aa01],cl
  4cdd01:	sub    esp,0x38
  4cdd04:	lea    ebx,[edx+0xdc]
  4cdd0a:	xor    DWORD PTR [ebx-0x8],edi
  4cdd0d:	push   ebx
  4cdd0e:	push   DWORD PTR [ebx+0xd0]
  4cdd14:	push   ecx
  4cdd15:	push   ecx
  4cdd16:	push   eax
  4cdd17:	call   0x4cd2d4
  4cdd1c:	add    esp,0x10
  4cdd1f:	pop    ebx
  4cdd20:	push   0x0
  4cdd22:	call   0x4cd3ec
  4cdd27:	call   0x4cdee0
  4cdd2c:	add    esp,0x38
  4cdd2f:	pop    ebp
  4cdd30:	ret    
  4cdd31:	add    BYTE PTR [eax],al
  4cdd33:	add    BYTE PTR [edi+0x33],bl
  4cdd36:	sar    bh,0x14
  4cdd39:	lds    ebx,FWORD PTR [eax]
  4cdd3b:	test   DWORD PTR [eax+eax*1+0x57],0x2464ff5f
  4cdd43:	cld    
  4cdd44:	pop    edi
  4cdd45:	xor    eax,eax
  4cdd47:	call   DWORD PTR [eax*8+0x4cf708]
  4cdd4e:	push   edi
  4cdd4f:	pop    edi
  4cdd50:	jmp    DWORD PTR [esp-0x4]
  4cdd54:	mov    edi,edi
  4cdd56:	push   ebp
  4cdd57:	mov    ebp,esp
  4cdd59:	sub    esp,0x44
  4cdd5c:	lea    ebx,ds:0x4d003c
  4cdd62:	xor    ecx,DWORD PTR [ebp-0x20]
  4cdd65:	push   ebx
  4cdd66:	push   DWORD PTR [ebx+0xe0]
  4cdd6c:	push   DWORD PTR [ebx+0x84]
  4cdd72:	push   ecx
  4cdd73:	call   0x4cd368
  4cdd78:	add    esp,0xc
  4cdd7b:	pop    ebx
  4cdd7c:	push   0x0
  4cdd7e:	call   0x4cd000
  4cdd83:	mov    edx,0x0
  4cdd88:	push   edx
  4cdd89:	call   0x4cdf00
  4cdd8e:	add    esp,0x44
  4cdd91:	pop    ebp
  4cdd92:	ret    
  4cdd93:	add    BYTE PTR [edi+0x33],bl
  4cdd96:	sar    bh,0x14
  4cdd99:	lds    ebp,FWORD PTR [edi+esi*8]
  4cdd9c:	dec    esp
  4cdd9d:	add    BYTE PTR [edi+0x5f],dl
  4cdda0:	jmp    DWORD PTR [esp-0x4]
  4cdda4:	pop    edi
  4cdda5:	xor    eax,eax
  4cdda7:	call   DWORD PTR [eax*8+0x4cf728]
  4cddae:	push   edi
  4cddaf:	pop    edi
  4cddb0:	jmp    DWORD PTR [esp-0x4]
  4cddb4:	pop    edi
  4cddb5:	xor    eax,eax
  4cddb7:	call   DWORD PTR [eax*8+0x4cf758]
  4cddbe:	push   edi
  4cddbf:	pop    edi
  4cddc0:	jmp    DWORD PTR [esp-0x4]
  4cddc4:	mov    edi,edi
  4cddc6:	push   ebp
  4cddc7:	mov    ebp,esp
  4cddc9:	sub    esp,0x60
  4cddcc:	mov    esi,0x4d0070
  4cddd1:	or     ecx,edi
  4cddd3:	call   0x4cdd44
  4cddd8:	push   esi
  4cddd9:	push   ebx
  4cddda:	push   ebx
  4cdddb:	call   0x4cd41c
  4cdde0:	add    esp,0x8
  4cdde3:	pop    esi
  4cdde4:	call   0x4cdee0
  4cdde9:	add    esp,0x60
  4cddec:	pop    ebp
  4cdded:	ret    
  4cddee:	add    BYTE PTR [eax],al
  4cddf0:	mov    edi,edi
  4cddf2:	push   ebp
  4cddf3:	mov    ebp,esp
  4cddf5:	sub    esp,0x4c
  4cddf8:	mov    ecx,0x4d0084
  4cddfd:	mov    edi,edx
  4cddff:	push   ecx
  4cde00:	call   0x4cdee0
  4cde05:	pop    ecx
  4cde06:	push   ecx
  4cde07:	push   DWORD PTR [ecx+0x1c8]
  4cde0d:	push   DWORD PTR [ecx+0x178]
  4cde13:	push   edi
  4cde14:	call   0x4cd200
  4cde19:	add    esp,0xc
  4cde1c:	pop    ecx
  4cde1d:	push   ecx
  4cde1e:	push   0x0
  4cde20:	call   0x4cdd94
  4cde25:	pop    ecx
  4cde26:	add    esp,0x4c
  4cde29:	pop    ebp
  4cde2a:	ret    
  4cde2b:	add    BYTE PTR [ebx-0x1374aa01],cl
  4cde31:	sub    esp,0x48
  4cde34:	lea    eax,ds:0x4d01dc
  4cde3a:	adc    edx,0xfffff871
  4cde40:	push   eax
  4cde41:	push   DWORD PTR [eax+0x19c]
  4cde47:	push   esi
  4cde48:	call   0x4cd184
  4cde4d:	add    esp,0x8
  4cde50:	pop    eax
  4cde51:	push   eax
  4cde52:	mov    ecx,0x0
  4cde57:	push   ecx
  4cde58:	call   0x4cd3ec
  4cde5d:	pop    eax
  4cde5e:	push   eax
  4cde5f:	call   0x4cdd44
  4cde64:	pop    eax
  4cde65:	add    esp,0x48
  4cde68:	pop    ebp
  4cde69:	ret    
  4cde6a:	add    BYTE PTR [eax],al
  4cde6c:	pop    edi
  4cde6d:	xor    eax,eax
  4cde6f:	call   DWORD PTR [eax*8+0x4cf770]
  4cde76:	push   edi
  4cde77:	pop    edi
  4cde78:	jmp    DWORD PTR [esp-0x4]
  4cde7c:	pop    edi
  4cde7d:	xor    eax,eax
  4cde7f:	call   DWORD PTR [eax*8+0x4cf6f0]
  4cde86:	push   edi
  4cde87:	pop    edi
  4cde88:	jmp    DWORD PTR [esp-0x4]
  4cde8c:	pop    edi
  4cde8d:	xor    eax,eax
  4cde8f:	call   DWORD PTR [eax*8+0x4cf75c]
  4cde96:	push   edi
  4cde97:	pop    edi
  4cde98:	jmp    DWORD PTR [esp-0x4]
  4cde9c:	mov    edi,edi
  4cde9e:	push   ebp
  4cde9f:	mov    ebp,esp
  4cdea1:	sub    esp,0x34
  4cdea4:	mov    edx,0x4d00b0
  4cdea9:	cmp    edx,0x285b
  4cdeaf:	jb     0x4cde9f
  4cdeb1:	push   edx
  4cdeb2:	mov    ebx,0x0
  4cdeb7:	push   ebx
  4cdeb8:	call   0x4cdf00
  4cdebd:	pop    edx
  4cdebe:	push   edx
  4cdebf:	push   esi
  4cdec0:	push   DWORD PTR [edx+0x110]
  4cdec6:	call   0x4cd290
  4cdecb:	add    esp,0x8
  4cdece:	pop    edx
  4cdecf:	push   edx
  4cded0:	push   0xfffffff4
  4cded2:	call   0x4cdbac
  4cded7:	pop    edx
  4cded8:	add    esp,0x34
  4cdedb:	pop    ebp
  4cdedc:	ret    
  4cdedd:	add    BYTE PTR [eax],al
  4cdedf:	add    BYTE PTR [edi+0x33],bl
  4cdee2:	sar    bh,0x14
  4cdee5:	lds    esi,FWORD PTR [eax]
  4cdee7:	test   DWORD PTR [eax+eax*1+0x57],0x2464ff5f
  4cdeef:	cld    
  4cdef0:	pop    edi
  4cdef1:	xor    eax,eax
  4cdef3:	call   DWORD PTR [eax*8+0x4cf6f8]
  4cdefa:	push   edi
  4cdefb:	pop    edi
  4cdefc:	jmp    DWORD PTR [esp-0x4]
  4cdf00:	pop    edi
  4cdf01:	xor    eax,eax
  4cdf03:	call   DWORD PTR [eax*8+0x4cf724]
  4cdf0a:	push   edi
  4cdf0b:	pop    edi
  4cdf0c:	jmp    DWORD PTR [esp-0x4]
  4cdf10:	mov    edi,edi
  4cdf12:	push   ebp
  4cdf13:	mov    ebp,esp
  4cdf15:	sub    esp,0x1c
  4cdf18:	lea    esi,ds:0x4d0054
  4cdf1e:	cmp    esi,0x6971
  4cdf24:	jb     0x4cdf13
  4cdf26:	push   esi
  4cdf27:	push   DWORD PTR [esi+0x148]
  4cdf2d:	push   DWORD PTR [esi+0xb0]
  4cdf33:	call   0x4cd834
  4cdf38:	add    esp,0x8
  4cdf3b:	pop    esi
  4cdf3c:	push   0xfffffff4
  4cdf3e:	call   0x4cdbac
  4cdf43:	push   0x0
  4cdf45:	call   0x4cdf00
  4cdf4a:	add    esp,0x1c
  4cdf4d:	pop    ebp
  4cdf4e:	ret    
  4cdf4f:	add    BYTE PTR [ebx-0x1374aa01],cl
  4cdf55:	sub    esp,0x3c
  4cdf58:	mov    edi,0x4d0188
  4cdf5d:	adc    DWORD PTR [edi+0x34],edi
  4cdf60:	push   edi
  4cdf61:	push   DWORD PTR [edi+0x24]
  4cdf64:	push   esi
  4cdf65:	call   0x4cde9c
  4cdf6a:	add    esp,0x8
  4cdf6d:	pop    edi
  4cdf6e:	push   edi
  4cdf6f:	push   0x0
  4cdf71:	call   0x4cd3fc
  4cdf76:	pop    edi
  4cdf77:	push   edi
  4cdf78:	call   0x4cdee0
  4cdf7d:	pop    edi
  4cdf7e:	add    esp,0x3c
  4cdf81:	pop    ebp
  4cdf82:	ret    
  4cdf83:	add    BYTE PTR [ebx-0x1374aa01],cl
  4cdf89:	sub    esp,0x60
  4cdf8c:	mov    eax,0x4d0058
  4cdf91:	sbb    esi,DWORD PTR [ebp-0x8]
  4cdf94:	push   eax
  4cdf95:	push   DWORD PTR [eax+0xe8]
  4cdf9b:	push   edx
  4cdf9c:	push   DWORD PTR [eax+0x1c0]
  4cdfa2:	push   DWORD PTR [eax+0xb0]
  4cdfa8:	call   0x4cdc34
  4cdfad:	add    esp,0x10
  4cdfb0:	pop    eax
  4cdfb1:	push   eax
  4cdfb2:	push   0x0
  4cdfb4:	call   0x4cddb4
  4cdfb9:	pop    eax
  4cdfba:	push   eax
  4cdfbb:	call   0x4cdc14
  4cdfc0:	pop    eax
  4cdfc1:	add    esp,0x60
  4cdfc4:	pop    ebp
  4cdfc5:	ret    
  4cdfc6:	add    BYTE PTR [eax],al
  4cdfc8:	mov    edi,edi
  4cdfca:	push   ebp
  4cdfcb:	mov    ebp,esp
  4cdfcd:	sub    esp,0x4c
  4cdfd0:	lea    esi,ds:0x4d006c
  4cdfd6:	adc    edi,DWORD PTR [esi+0x28]
  4cdfd9:	push   esi
  4cdfda:	push   eax
  4cdfdb:	push   ecx
  4cdfdc:	push   DWORD PTR [esi+0xe8]
  4cdfe2:	push   ebx
  4cdfe3:	call   0x4cd138
  4cdfe8:	add    esp,0x10
  4cdfeb:	pop    esi
  4cdfec:	mov    edx,0x0
  4cdff1:	push   edx
  4cdff2:	call   0x4cdf00
  4cdff7:	call   0x4cdee0
  4cdffc:	add    esp,0x4c
  4cdfff:	pop    ebp
  4ce000:	ret    
  4ce001:	add    BYTE PTR [eax],al
  4ce003:	add    BYTE PTR [ebx-0x1374aa01],cl
  4ce009:	sub    esp,0x50
  4ce00c:	lea    ebx,ds:0x4d0110
  4ce012:	or     edi,esi
  4ce014:	push   ebx
  4ce015:	push   DWORD PTR [ebx+0x5c]
  4ce018:	push   eax
  4ce019:	call   0x4cdfc8
  4ce01e:	add    esp,0x8
  4ce021:	pop    ebx
  4ce022:	mov    edx,0x0
  4ce027:	push   edx
  4ce028:	call   0x4cdda4
  4ce02d:	call   0x4cdee0
  4ce032:	add    esp,0x50
  4ce035:	pop    ebp
  4ce036:	ret    
  4ce037:	add    BYTE PTR [ebx-0x1374aa01],cl
  4ce03d:	sub    esp,0x30
  4ce040:	mov    ebx,0x4d00e4
  4ce045:	add    edi,DWORD PTR [ebx-0x28]
  4ce048:	push   0x0
  4ce04a:	call   0x4cdda4
  4ce04f:	push   ebx
  4ce050:	push   ecx
  4ce051:	push   DWORD PTR [ebx+0x1d0]
  4ce057:	push   ecx
  4ce058:	call   0x4cd984
  4ce05d:	add    esp,0xc
  4ce060:	pop    ebx
  4ce061:	push   0x0
  4ce063:	call   0x4cd624
  4ce068:	add    esp,0x30
  4ce06b:	pop    ebp
  4ce06c:	ret    
  4ce06d:	add    BYTE PTR [eax],al
  4ce06f:	add    BYTE PTR [ebx-0x1374aa01],cl
  4ce075:	sub    esp,0x50
  4ce078:	mov    eax,0x4d016c
  4ce07d:	sub    edi,esi
  4ce07f:	push   eax
  4ce080:	push   0x0
  4ce082:	call   0x4cd3fc
  4ce087:	pop    eax
  4ce088:	push   eax
  4ce089:	push   DWORD PTR [eax+0x50]
  4ce08c:	push   DWORD PTR [eax+0x98]
  4ce092:	call   0x4cdc74
  4ce097:	add    esp,0x8
  4ce09a:	pop    eax
  4ce09b:	push   eax
  4ce09c:	mov    edx,0x0
  4ce0a1:	push   edx
  4ce0a2:	call   0x4cdf00
  4ce0a7:	pop    eax
  4ce0a8:	add    esp,0x50
  4ce0ab:	pop    ebp
  4ce0ac:	ret    
  4ce0ad:	add    BYTE PTR [eax],al
	...
