
a7259531bbdf91aaf9525399384359ac9faf25ab2ebaef03dbe40236f1f0fec4.exe:     file format pei-i386


Disassembly of section .text:

004c1000 <.text>:
  4c1000:	mov    edi,edi
  4c1002:	push   ebp
  4c1003:	mov    ebp,esp
  4c1005:	sub    esp,0x5c
  4c1008:	lea    eax,[ecx+0x48]
  4c100b:	mov    esi,DWORD PTR [ebp-0xc]
  4c100e:	push   eax
  4c100f:	mov    ecx,0x0
  4c1014:	push   ecx
  4c1015:	call   0x4c186c
  4c101a:	pop    eax
  4c101b:	push   eax
  4c101c:	push   DWORD PTR [eax+0x15c]
  4c1022:	push   ebx
  4c1023:	push   ecx
  4c1024:	call   0x4c1228
  4c1029:	add    esp,0xc
  4c102c:	pop    eax
  4c102d:	push   eax
  4c102e:	call   0x4c1c20
  4c1033:	pop    eax
  4c1034:	add    esp,0x5c
  4c1037:	pop    ebp
  4c1038:	ret    
  4c1039:	add    BYTE PTR [eax],al
  4c103b:	add    BYTE PTR [edi-0x1],bl
  4c103e:	adc    eax,0x4c2778
  4c1043:	push   edi
  4c1044:	repz ret 0x0
  4c1048:	pop    edi
  4c1049:	call   DWORD PTR ds:0x4c2728
  4c104f:	push   edi
  4c1050:	repz ret 0x0
  4c1054:	mov    edi,edi
  4c1056:	push   ebp
  4c1057:	mov    ebp,esp
  4c1059:	sub    esp,0x44
  4c105c:	lea    esi,[eax-0x64]
  4c105f:	sub    ecx,DWORD PTR [ebp-0x40]
  4c1062:	push   esi
  4c1063:	push   DWORD PTR [esi+0x148]
  4c1069:	push   eax
  4c106a:	push   ebx
  4c106b:	push   eax
  4c106c:	call   0x4c1eb8
  4c1071:	add    esp,0x10
  4c1074:	pop    esi
  4c1075:	call   0x4c14e4
  4c107a:	mov    ecx,0x0
  4c107f:	push   ecx
  4c1080:	call   0x4c1e08
  4c1085:	add    esp,0x44
  4c1088:	pop    ebp
  4c1089:	ret    
  4c108a:	add    BYTE PTR [eax],al
  4c108c:	pop    edi
  4c108d:	call   DWORD PTR ds:0x4c2774
  4c1093:	push   edi
  4c1094:	repz ret 0x0
  4c1098:	mov    edi,edi
  4c109a:	push   ebp
  4c109b:	mov    ebp,esp
  4c109d:	sub    esp,0x58
  4c10a0:	lea    edx,ds:0x4c3088
  4c10a6:	xor    esi,edi
  4c10a8:	push   edx
  4c10a9:	push   ecx
  4c10aa:	push   DWORD PTR [edx+0x68]
  4c10ad:	push   esi
  4c10ae:	push   DWORD PTR [edx+0x90]
  4c10b4:	call   0x4c1afc
  4c10b9:	add    esp,0x10
  4c10bc:	pop    edx
  4c10bd:	push   edx
  4c10be:	lea    edi,[edx-0x88]
  4c10c4:	push   edi
  4c10c5:	call   0x4c198c
  4c10ca:	test   eax,eax
  4c10cc:	jne    0x4c10be
  4c10ce:	pop    edx
  4c10cf:	mov    ecx,0x4c272c
  4c10d4:	mov    ecx,DWORD PTR [ecx]
  4c10d6:	push   ecx
  4c10d7:	push   DWORD PTR [edx-0x1c]
  4c10da:	pop    edi
  4c10db:	call   edi
  4c10dd:	add    esp,0x58
  4c10e0:	pop    ebp
  4c10e1:	ret    
  4c10e2:	add    BYTE PTR [eax],al
  4c10e4:	mov    edi,edi
  4c10e6:	push   ebp
  4c10e7:	mov    ebp,esp
  4c10e9:	sub    esp,0x54
  4c10ec:	lea    eax,[ecx-0xd8]
  4c10f2:	or     esi,DWORD PTR [eax+0x2c]
  4c10f5:	push   eax
  4c10f6:	push   DWORD PTR [eax+0x15c]
  4c10fc:	push   DWORD PTR [eax+0x4]
  4c10ff:	call   0x4c180c
  4c1104:	add    esp,0x8
  4c1107:	pop    eax
  4c1108:	push   eax
  4c1109:	call   0x4c1c20
  4c110e:	pop    eax
  4c110f:	push   eax
  4c1110:	mov    edx,0x0
  4c1115:	push   edx
  4c1116:	call   0x4c1aa8
  4c111b:	pop    eax
  4c111c:	add    esp,0x54
  4c111f:	pop    ebp
  4c1120:	ret    
  4c1121:	add    BYTE PTR [eax],al
  4c1123:	add    BYTE PTR [edi-0x1],bl
  4c1126:	adc    eax,0x4c277c
  4c112b:	push   edi
  4c112c:	repz ret 0x0
  4c1130:	mov    edi,edi
  4c1132:	push   ebp
  4c1133:	mov    ebp,esp
  4c1135:	sub    esp,0x50
  4c1138:	lea    ebx,[edi+0x110]
  4c113e:	cmp    ebx,0x4db6
  4c1144:	je     0x4c1133
  4c1146:	push   ebx
  4c1147:	push   edi
  4c1148:	push   eax
  4c1149:	call   0x4c1748
  4c114e:	add    esp,0x8
  4c1151:	pop    ebx
  4c1152:	push   0x0
  4c1154:	call   0x4c1aa8
  4c1159:	mov    edi,0x0
  4c115e:	push   edi
  4c115f:	call   0x4c1b80
  4c1164:	add    esp,0x50
  4c1167:	pop    ebp
  4c1168:	ret    
  4c1169:	add    BYTE PTR [eax],al
  4c116b:	add    BYTE PTR [ebx-0x1374aa01],cl
  4c1171:	sub    esp,0x54
  4c1174:	mov    edi,0x4c3028
  4c1179:	adc    DWORD PTR [edi+0x74],eax
  4c117c:	push   edi
  4c117d:	push   DWORD PTR [edi+0x84]
  4c1183:	push   DWORD PTR [edi+0xc4]
  4c1189:	push   DWORD PTR [edi+0x1c]
  4c118c:	call   0x4c1bd0
  4c1191:	add    esp,0xc
  4c1194:	pop    edi
  4c1195:	push   edi
  4c1196:	call   0x4c14e4
  4c119b:	pop    edi
  4c119c:	push   edi
  4c119d:	push   0x0
  4c119f:	call   0x4c1e08
  4c11a4:	pop    edi
  4c11a5:	add    esp,0x54
  4c11a8:	pop    ebp
  4c11a9:	ret    
  4c11aa:	add    BYTE PTR [eax],al
  4c11ac:	mov    edi,edi
  4c11ae:	push   ebp
  4c11af:	mov    ebp,esp
  4c11b1:	sub    esp,0x44
  4c11b4:	lea    esi,[ecx+0x70]
  4c11b7:	adc    ecx,0xfffffff7
  4c11ba:	push   esi
  4c11bb:	push   DWORD PTR [esi+0x18]
  4c11be:	push   DWORD PTR [esi+0x130]
  4c11c4:	call   0x4c1878
  4c11c9:	add    esp,0x8
  4c11cc:	pop    esi
  4c11cd:	mov    edx,0x0
  4c11d2:	push   edx
  4c11d3:	call   0x4c18b8
  4c11d8:	push   0x0
  4c11da:	call   0x4c126c
  4c11df:	add    esp,0x44
  4c11e2:	pop    ebp
  4c11e3:	ret    
  4c11e4:	mov    edi,edi
  4c11e6:	push   ebp
  4c11e7:	mov    ebp,esp
  4c11e9:	sub    esp,0x2c
  4c11ec:	lea    eax,[ecx+0x30]
  4c11ef:	and    DWORD PTR [eax+0xa4],ecx
  4c11f5:	push   eax
  4c11f6:	mov    ecx,0x0
  4c11fb:	push   ecx
  4c11fc:	call   0x4c1b80
  4c1201:	pop    eax
  4c1202:	push   eax
  4c1203:	push   edx
  4c1204:	push   DWORD PTR [eax+0xf8]
  4c120a:	push   edx
  4c120b:	push   DWORD PTR [eax+0xe4]
  4c1211:	call   0x4c1b3c
  4c1216:	add    esp,0x10
  4c1219:	pop    eax
  4c121a:	push   eax
  4c121b:	push   0x0
  4c121d:	call   0x4c1a84
  4c1222:	pop    eax
  4c1223:	add    esp,0x2c
  4c1226:	pop    ebp
  4c1227:	ret    
  4c1228:	mov    edi,edi
  4c122a:	push   ebp
  4c122b:	mov    ebp,esp
  4c122d:	sub    esp,0x2c
  4c1230:	lea    edx,ds:0x4c31cc
  4c1236:	and    DWORD PTR [ebp-0x10],0x4bef
  4c123d:	push   edx
  4c123e:	mov    eax,0x0
  4c1243:	push   eax
  4c1244:	call   0x4c18b8
  4c1249:	pop    edx
  4c124a:	push   edx
  4c124b:	push   edi
  4c124c:	push   eax
  4c124d:	push   DWORD PTR [edx+0xdc]
  4c1253:	push   eax
  4c1254:	call   0x4c1670
  4c1259:	add    esp,0x10
  4c125c:	pop    edx
  4c125d:	push   edx
  4c125e:	call   0x4c1854
  4c1263:	pop    edx
  4c1264:	add    esp,0x2c
  4c1267:	pop    ebp
  4c1268:	ret    
  4c1269:	add    BYTE PTR [eax],al
  4c126b:	add    BYTE PTR [edi-0x1],bl
  4c126e:	adc    eax,0x4c2760
  4c1273:	push   edi
  4c1274:	repz ret 0x0
  4c1278:	mov    edi,edi
  4c127a:	push   ebp
  4c127b:	mov    ebp,esp
  4c127d:	sub    esp,0x34
  4c1280:	lea    ecx,[edi+0xcc]
  4c1286:	cmp    ecx,0x7cea
  4c128c:	jbe    0x4c127b
  4c128e:	push   ecx
  4c128f:	push   0x0
  4c1291:	call   0x4c126c
  4c1296:	pop    ecx
  4c1297:	push   ecx
  4c1298:	push   DWORD PTR [ecx+0xc4]
  4c129e:	push   edx
  4c129f:	push   esi
  4c12a0:	push   edi
  4c12a1:	call   0x4c1998
  4c12a6:	add    esp,0x10
  4c12a9:	pop    ecx
  4c12aa:	push   ecx
  4c12ab:	lea    edi,[ecx-0x11c]
  4c12b1:	push   edi
  4c12b2:	call   0x4c198c
  4c12b7:	test   eax,eax
  4c12b9:	jne    0x4c12ab
  4c12bb:	pop    ecx
  4c12bc:	add    esp,0x34
  4c12bf:	pop    ebp
  4c12c0:	ret    
  4c12c1:	add    BYTE PTR [eax],al
  4c12c3:	add    BYTE PTR [edi-0x1],bl
  4c12c6:	adc    eax,0x4c2710
  4c12cb:	push   edi
  4c12cc:	repz ret 0x0
  4c12d0:	mov    edi,edi
  4c12d2:	push   ebp
  4c12d3:	mov    ebp,esp
  4c12d5:	sub    esp,0x28
  4c12d8:	mov    edi,0x4c31f4
  4c12dd:	or     ecx,DWORD PTR [ebp-0xc]
  4c12e0:	push   edi
  4c12e1:	push   DWORD PTR [edi+0x90]
  4c12e7:	push   DWORD PTR [edi+0x54]
  4c12ea:	push   DWORD PTR [edi+0x1e8]
  4c12f0:	call   0x4c1458
  4c12f5:	add    esp,0xc
  4c12f8:	pop    edi
  4c12f9:	push   edi
  4c12fa:	mov    eax,0x0
  4c12ff:	push   eax
  4c1300:	call   0x4c1aa8
  4c1305:	pop    edi
  4c1306:	push   edi
  4c1307:	push   0x0
  4c1309:	call   0x4c14f0
  4c130e:	pop    edi
  4c130f:	add    esp,0x28
  4c1312:	pop    ebp
  4c1313:	ret    
  4c1314:	mov    edi,edi
  4c1316:	push   ebp
  4c1317:	mov    ebp,esp
  4c1319:	sub    esp,0x38
  4c131c:	lea    ebx,[eax-0x178]
  4c1322:	and    DWORD PTR [ebx+0x7c],ebx
  4c1325:	push   ebx
  4c1326:	push   edi
  4c1327:	push   DWORD PTR [ebx+0xa0]
  4c132d:	push   edx
  4c132e:	push   edx
  4c132f:	call   0x4c1938
  4c1334:	add    esp,0x10
  4c1337:	pop    ebx
  4c1338:	call   0x4c1e60
  4c133d:	call   0x4c14e4
  4c1342:	add    esp,0x38
  4c1345:	pop    ebp
  4c1346:	ret    
  4c1347:	add    BYTE PTR [ebx-0x1374aa01],cl
  4c134d:	sub    esp,0x50
  4c1350:	mov    edx,0x4c3060
  4c1355:	sbb    DWORD PTR [edx+0x90],0x2b1c
  4c135f:	push   edx
  4c1360:	mov    edx,0x0
  4c1365:	push   edx
  4c1366:	call   0x4c1d6c
  4c136b:	pop    edx
  4c136c:	push   edx
  4c136d:	push   edi
  4c136e:	push   eax
  4c136f:	push   DWORD PTR [edx+0x1d0]
  4c1375:	push   DWORD PTR [edx+0x3c]
  4c1378:	call   0x4c149c
  4c137d:	add    esp,0x10
  4c1380:	pop    edx
  4c1381:	push   edx
  4c1382:	mov    ecx,0x0
  4c1387:	push   ecx
  4c1388:	call   0x4c1aa8
  4c138d:	pop    edx
  4c138e:	add    esp,0x50
  4c1391:	pop    ebp
  4c1392:	ret    
  4c1393:	add    BYTE PTR [ebx-0x1374aa01],cl
  4c1399:	sub    esp,0x30
  4c139c:	mov    edi,0x4c3140
  4c13a1:	xor    ecx,ebx
  4c13a3:	push   edi
  4c13a4:	push   ebx
  4c13a5:	push   DWORD PTR [edi+0x2c]
  4c13a8:	call   0x4c178c
  4c13ad:	add    esp,0x8
  4c13b0:	pop    edi
  4c13b1:	push   edi
  4c13b2:	lea    edi,[edi-0x140]
  4c13b8:	push   edi
  4c13b9:	call   0x4c198c
  4c13be:	test   eax,eax
  4c13c0:	jne    0x4c13b2
  4c13c2:	pop    edi
  4c13c3:	push   edi
  4c13c4:	mov    esi,0x0
  4c13c9:	push   esi
  4c13ca:	call   0x4c126c
  4c13cf:	pop    edi
  4c13d0:	add    esp,0x30
  4c13d3:	pop    ebp
  4c13d4:	ret    
  4c13d5:	add    BYTE PTR [eax],al
  4c13d7:	add    BYTE PTR [ebx-0x1374aa01],cl
  4c13dd:	sub    esp,0x24
  4c13e0:	lea    eax,ds:0x4c30d4
  4c13e6:	sub    ecx,edx
  4c13e8:	push   eax
  4c13e9:	push   0x0
  4c13eb:	call   0x4c1e08
  4c13f0:	pop    eax
  4c13f1:	push   eax
  4c13f2:	push   DWORD PTR [eax+0x3c]
  4c13f5:	push   ecx
  4c13f6:	call   0x4c1054
  4c13fb:	add    esp,0x8
  4c13fe:	pop    eax
  4c13ff:	push   eax
  4c1400:	call   0x4c1e60
  4c1405:	pop    eax
  4c1406:	add    esp,0x24
  4c1409:	pop    ebp
  4c140a:	ret    
  4c140b:	add    BYTE PTR [ebx-0x1374aa01],cl
  4c1411:	sub    esp,0x44
  4c1414:	lea    ebx,[esi-0x114]
  4c141a:	mov    DWORD PTR [ebx+0xe4],0xfffffff4
  4c1424:	mov    ecx,0x0
  4c1429:	push   ecx
  4c142a:	call   0x4c14f0
  4c142f:	push   ebx
  4c1430:	push   DWORD PTR [ebx+0x164]
  4c1436:	push   DWORD PTR [ebx+0x1ac]
  4c143c:	call   0x4c116c
  4c1441:	add    esp,0x8
  4c1444:	pop    ebx
  4c1445:	mov    edi,0x0
  4c144a:	push   edi
  4c144b:	call   0x4c1aa8
  4c1450:	add    esp,0x44
  4c1453:	pop    ebp
  4c1454:	ret    
  4c1455:	add    BYTE PTR [eax],al
  4c1457:	add    BYTE PTR [ebx-0x1374aa01],cl
  4c145d:	sub    esp,0x48
  4c1460:	mov    ebx,0x4c31ac
  4c1465:	sbb    edi,DWORD PTR [ebx-0x10c]
  4c146b:	mov    ecx,0x0
  4c1470:	push   ecx
  4c1471:	call   0x4c126c
  4c1476:	push   ebx
  4c1477:	push   edi
  4c1478:	push   DWORD PTR [ebx+0x30]
  4c147b:	call   0x4c1cc4
  4c1480:	add    esp,0x8
  4c1483:	pop    ebx
  4c1484:	push   0xfffffff4
  4c1486:	call   0x4c1cb8
  4c148b:	add    esp,0x48
  4c148e:	pop    ebp
  4c148f:	ret    
  4c1490:	pop    edi
  4c1491:	call   DWORD PTR ds:0x4c273c
  4c1497:	push   edi
  4c1498:	repz ret 0x0
  4c149c:	mov    edi,edi
  4c149e:	push   ebp
  4c149f:	mov    ebp,esp
  4c14a1:	sub    esp,0x1c
  4c14a4:	mov    edi,0x4c3164
  4c14a9:	cmp    edi,0x46c7
  4c14af:	je     0x4c149f
  4c14b1:	push   edi
  4c14b2:	mov    ebx,0x0
  4c14b7:	push   ebx
  4c14b8:	call   0x4c186c
  4c14bd:	pop    edi
  4c14be:	push   edi
  4c14bf:	push   ebx
  4c14c0:	push   DWORD PTR [edi+0xf4]
  4c14c6:	push   esi
  4c14c7:	push   ecx
  4c14c8:	call   0x4c13d8
  4c14cd:	add    esp,0x10
  4c14d0:	pop    edi
  4c14d1:	push   edi
  4c14d2:	mov    ebx,0x0
  4c14d7:	push   ebx
  4c14d8:	call   0x4c1d6c
  4c14dd:	pop    edi
  4c14de:	add    esp,0x1c
  4c14e1:	pop    ebp
  4c14e2:	ret    
  4c14e3:	add    BYTE PTR [edi-0x1],bl
  4c14e6:	adc    eax,0x4c2720
  4c14eb:	push   edi
  4c14ec:	repz ret 0x0
  4c14f0:	pop    edi
  4c14f1:	call   DWORD PTR ds:0x4c2744
  4c14f7:	push   edi
  4c14f8:	repz ret 0x0
  4c14fc:	mov    edi,edi
  4c14fe:	push   ebp
  4c14ff:	mov    ebp,esp
  4c1501:	sub    esp,0x60
  4c1504:	lea    ecx,[eax-0x44]
  4c1507:	and    DWORD PTR [ecx+0x130],0x74
  4c150e:	push   ecx
  4c150f:	push   0xfffffff4
  4c1511:	call   0x4c1cb8
  4c1516:	pop    ecx
  4c1517:	push   ecx
  4c1518:	push   DWORD PTR [ecx+0x150]
  4c151e:	push   DWORD PTR [ecx+0xf4]
  4c1524:	push   DWORD PTR [ecx+0x164]
  4c152a:	push   esi
  4c152b:	call   0x4c11ac
  4c1530:	add    esp,0x10
  4c1533:	pop    ecx
  4c1534:	push   ecx
  4c1535:	mov    edx,0x0
  4c153a:	push   edx
  4c153b:	call   0x4c14f0
  4c1540:	pop    ecx
  4c1541:	add    esp,0x60
  4c1544:	pop    ebp
  4c1545:	ret    
  4c1546:	add    BYTE PTR [eax],al
  4c1548:	pop    edi
  4c1549:	call   DWORD PTR ds:0x4c26ec
  4c154f:	push   edi
  4c1550:	repz ret 0x0
  4c1554:	mov    edi,edi
  4c1556:	push   ebp
  4c1557:	mov    ebp,esp
  4c1559:	sub    esp,0x4c
  4c155c:	lea    ebx,[esi-0x188]
  4c1562:	and    ecx,DWORD PTR [ebx+0xb4]
  4c1568:	mov    ecx,0x0
  4c156d:	push   ecx
  4c156e:	call   0x4c1b80
  4c1573:	push   ebx
  4c1574:	push   edi
  4c1575:	push   edi
  4c1576:	push   DWORD PTR [ebx+0xf4]
  4c157c:	call   0x4c1e6c
  4c1581:	add    esp,0xc
  4c1584:	pop    ebx
  4c1585:	mov    ecx,0x0
  4c158a:	push   ecx
  4c158b:	call   0x4c1e08
  4c1590:	add    esp,0x4c
  4c1593:	pop    ebp
  4c1594:	ret    
  4c1595:	add    BYTE PTR [eax],al
  4c1597:	add    BYTE PTR [edi+0x6a],dl
  4c159a:	add    BYTE PTR [edx+0x0],ch
  4c159d:	push   0x0
  4c159f:	push   0x0
  4c15a1:	call   0x4c1aa8
  4c15a6:	sub    esp,0xfffffff8
  4c15a9:	call   0x4c1aa8
  4c15ae:	push   0x4c30a0
  4c15b3:	pop    eax
  4c15b4:	push   0x2
  4c15b6:	push   0x0
  4c15b8:	dec    DWORD PTR ds:0x4c30a7
  4c15be:	push   eax
  4c15bf:	call   0x4c17c8
  4c15c4:	pop    edi
  4c15c5:	mov    edi,DWORD PTR [eax+0x3b]
  4c15c8:	lea    eax,[eax+edi*1]
  4c15cb:	add    eax,0x28
  4c15ce:	mov    eax,DWORD PTR [eax]
  4c15d0:	pusha  
  4c15d1:	mov    ah,0x30
  4c15d3:	sub    al,ah
  4c15d5:	jb     0x4c15dd
  4c15d7:	jg     0x4c1098
  4c15dd:	popa   
  4c15de:	ret    
  4c15df:	add    BYTE PTR [edi-0x1],bl
  4c15e2:	adc    eax,0x4c276c
  4c15e7:	push   edi
  4c15e8:	repz ret 0x0
  4c15ec:	mov    edi,edi
  4c15ee:	push   ebp
  4c15ef:	mov    ebp,esp
  4c15f1:	sub    esp,0x34
  4c15f4:	mov    edx,0x4c3000
  4c15f9:	or     DWORD PTR [ebp-0x30],edi
  4c15fc:	push   edx
  4c15fd:	push   edi
  4c15fe:	push   DWORD PTR [edx+0x140]
  4c1604:	push   esi
  4c1605:	call   0x4c12d0
  4c160a:	add    esp,0xc
  4c160d:	pop    edx
  4c160e:	push   edx
  4c160f:	call   0x4c14e4
  4c1614:	pop    edx
  4c1615:	push   edx
  4c1616:	call   0x4c1e60
  4c161b:	pop    edx
  4c161c:	add    esp,0x34
  4c161f:	pop    ebp
  4c1620:	ret    
  4c1621:	add    BYTE PTR [eax],al
  4c1623:	add    BYTE PTR [ebx-0x1374aa01],cl
  4c1629:	sub    esp,0x54
  4c162c:	lea    ecx,ds:0x4c317c
  4c1632:	or     DWORD PTR [ecx-0x40],esi
  4c1635:	push   ecx
  4c1636:	lea    edx,[ecx-0x17c]
  4c163c:	push   edx
  4c163d:	call   0x4c198c
  4c1642:	test   eax,eax
  4c1644:	jne    0x4c1636
  4c1646:	pop    ecx
  4c1647:	push   ecx
  4c1648:	push   esi
  4c1649:	push   DWORD PTR [ecx+0x18]
  4c164c:	push   DWORD PTR [ecx+0x150]
  4c1652:	push   DWORD PTR [ecx]
  4c1654:	call   0x4c1c78
  4c1659:	add    esp,0x10
  4c165c:	pop    ecx
  4c165d:	push   ecx
  4c165e:	mov    esi,0x0
  4c1663:	push   esi
  4c1664:	call   0x4c1d6c
  4c1669:	pop    ecx
  4c166a:	add    esp,0x54
  4c166d:	pop    ebp
  4c166e:	ret    
  4c166f:	add    BYTE PTR [ebx-0x1374aa01],cl
  4c1675:	sub    esp,0x54
  4c1678:	lea    ecx,ds:0x4c3020
  4c167e:	or     ebx,0x34d1
  4c1684:	push   ecx
  4c1685:	push   DWORD PTR [ecx+0x1a4]
  4c168b:	push   eax
  4c168c:	push   DWORD PTR [ecx+0x64]
  4c168f:	push   edi
  4c1690:	call   0x4c11e4
  4c1695:	add    esp,0x10
  4c1698:	pop    ecx
  4c1699:	push   ecx
  4c169a:	mov    edx,0x0
  4c169f:	push   edx
  4c16a0:	call   0x4c14f0
  4c16a5:	pop    ecx
  4c16a6:	push   ecx
  4c16a7:	mov    edi,0x0
  4c16ac:	push   edi
  4c16ad:	call   0x4c18b8
  4c16b2:	pop    ecx
  4c16b3:	add    esp,0x54
  4c16b6:	pop    ebp
  4c16b7:	ret    
  4c16b8:	mov    edi,edi
  4c16ba:	push   ebp
  4c16bb:	mov    ebp,esp
  4c16bd:	sub    esp,0x44
  4c16c0:	lea    eax,[edi-0x180]
  4c16c6:	sub    ecx,0x30d4
  4c16cc:	push   eax
  4c16cd:	mov    ecx,0x0
  4c16d2:	push   ecx
  4c16d3:	call   0x4c186c
  4c16d8:	pop    eax
  4c16d9:	push   eax
  4c16da:	push   DWORD PTR [eax+0x118]
  4c16e0:	push   edx
  4c16e1:	call   0x4c17d4
  4c16e6:	add    esp,0x8
  4c16e9:	pop    eax
  4c16ea:	push   eax
  4c16eb:	push   0x0
  4c16ed:	call   0x4c1aa8
  4c16f2:	pop    eax
  4c16f3:	add    esp,0x44
  4c16f6:	pop    ebp
  4c16f7:	ret    
  4c16f8:	pop    edi
  4c16f9:	call   DWORD PTR ds:0x4c2734
  4c16ff:	push   edi
  4c1700:	repz ret 0x0
  4c1704:	mov    edi,edi
  4c1706:	push   ebp
  4c1707:	mov    ebp,esp
  4c1709:	sub    esp,0x3c
  4c170c:	lea    edi,ds:0x4c30a8
  4c1712:	mov    DWORD PTR [ebp-0x14],eax
  4c1715:	push   edi
  4c1716:	mov    edx,0x0
  4c171b:	push   edx
  4c171c:	call   0x4c186c
  4c1721:	pop    edi
  4c1722:	push   edi
  4c1723:	push   DWORD PTR [edi+0xcc]
  4c1729:	push   ecx
  4c172a:	push   DWORD PTR [edi+0xd8]
  4c1730:	call   0x4c18c4
  4c1735:	add    esp,0xc
  4c1738:	pop    edi
  4c1739:	push   edi
  4c173a:	push   0x0
  4c173c:	call   0x4c18b8
  4c1741:	pop    edi
  4c1742:	add    esp,0x3c
  4c1745:	pop    ebp
  4c1746:	ret    
  4c1747:	add    BYTE PTR [ebx-0x1374aa01],cl
  4c174d:	sub    esp,0x34
  4c1750:	lea    edi,[ebx-0xf8]
  4c1756:	cmp    edi,0x57d
  4c175c:	jb     0x4c174b
  4c175e:	push   edi
  4c175f:	call   0x4c14e4
  4c1764:	pop    edi
  4c1765:	push   edi
  4c1766:	push   DWORD PTR [edi+0x1e4]
  4c176c:	push   ebx
  4c176d:	push   DWORD PTR [edi+0x58]
  4c1770:	call   0x4c1278
  4c1775:	add    esp,0xc
  4c1778:	pop    edi
  4c1779:	push   edi
  4c177a:	mov    esi,0xfffffff4
  4c177f:	push   esi
  4c1780:	call   0x4c1cb8
  4c1785:	pop    edi
  4c1786:	add    esp,0x34
  4c1789:	pop    ebp
  4c178a:	ret    
  4c178b:	add    BYTE PTR [ebx-0x1374aa01],cl
  4c1791:	sub    esp,0x30
  4c1794:	lea    edx,ds:0x4c3100
  4c179a:	sub    DWORD PTR [ebp-0x18],edi
  4c179d:	push   edx
  4c179e:	push   0x0
  4c17a0:	call   0x4c1b80
  4c17a5:	pop    edx
  4c17a6:	push   edx
  4c17a7:	push   DWORD PTR [edx+0x144]
  4c17ad:	push   ecx
  4c17ae:	push   DWORD PTR [edx+0x14]
  4c17b1:	call   0x4c1624
  4c17b6:	add    esp,0xc
  4c17b9:	pop    edx
  4c17ba:	push   edx
  4c17bb:	call   0x4c14e4
  4c17c0:	pop    edx
  4c17c1:	add    esp,0x30
  4c17c4:	pop    ebp
  4c17c5:	ret    
  4c17c6:	add    BYTE PTR [eax],al
  4c17c8:	pop    edi
  4c17c9:	call   DWORD PTR ds:0x4c26e8
  4c17cf:	push   edi
  4c17d0:	repz ret 0x0
  4c17d4:	mov    edi,edi
  4c17d6:	push   ebp
  4c17d7:	mov    ebp,esp
  4c17d9:	sub    esp,0x38
  4c17dc:	lea    esi,[eax+0x1a8]
  4c17e2:	xor    DWORD PTR [ebp-0x18],edi
  4c17e5:	push   esi
  4c17e6:	push   ecx
  4c17e7:	push   DWORD PTR [esi+0x1a8]
  4c17ed:	push   ecx
  4c17ee:	call   0x4c1b8c
  4c17f3:	add    esp,0xc
  4c17f6:	pop    esi
  4c17f7:	push   0x0
  4c17f9:	call   0x4c1d6c
  4c17fe:	push   0x0
  4c1800:	call   0x4c1e08
  4c1805:	add    esp,0x38
  4c1808:	pop    ebp
  4c1809:	ret    
  4c180a:	add    BYTE PTR [eax],al
  4c180c:	mov    edi,edi
  4c180e:	push   ebp
  4c180f:	mov    ebp,esp
  4c1811:	sub    esp,0x34
  4c1814:	lea    edx,[eax+0xe0]
  4c181a:	mov    ecx,DWORD PTR [ebp-0x34]
  4c181d:	push   edx
  4c181e:	push   DWORD PTR [edx+0x34]
  4c1821:	push   DWORD PTR [edx+0x178]
  4c1827:	push   ebx
  4c1828:	call   0x4c1ef0
  4c182d:	add    esp,0xc
  4c1830:	pop    edx
  4c1831:	push   edx
  4c1832:	push   0xfffffff4
  4c1834:	call   0x4c1cb8
  4c1839:	pop    edx
  4c183a:	push   edx
  4c183b:	push   0x0
  4c183d:	call   0x4c14f0
  4c1842:	pop    edx
  4c1843:	add    esp,0x34
  4c1846:	pop    ebp
  4c1847:	ret    
  4c1848:	pop    edi
  4c1849:	call   DWORD PTR ds:0x4c2740
  4c184f:	push   edi
  4c1850:	repz ret 0x0
  4c1854:	pop    edi
  4c1855:	call   DWORD PTR ds:0x4c26fc
  4c185b:	push   edi
  4c185c:	repz ret 0x0
  4c1860:	pop    edi
  4c1861:	call   DWORD PTR ds:0x4c2730
  4c1867:	push   edi
  4c1868:	repz ret 0x0
  4c186c:	pop    edi
  4c186d:	call   DWORD PTR ds:0x4c26f0
  4c1873:	push   edi
  4c1874:	repz ret 0x0
  4c1878:	mov    edi,edi
  4c187a:	push   ebp
  4c187b:	mov    ebp,esp
  4c187d:	sub    esp,0x3c
  4c1880:	lea    edi,ds:0x4c30d4
  4c1886:	add    edx,esi
  4c1888:	push   edi
  4c1889:	call   0x4c1e60
  4c188e:	pop    edi
  4c188f:	push   edi
  4c1890:	push   DWORD PTR [edi+0xc0]
  4c1896:	push   DWORD PTR [edi+0x1c8]
  4c189c:	push   DWORD PTR [edi+0x24]
  4c189f:	call   0x4c1a38
  4c18a4:	add    esp,0xc
  4c18a7:	pop    edi
  4c18a8:	push   edi
  4c18a9:	push   0x0
  4c18ab:	call   0x4c126c
  4c18b0:	pop    edi
  4c18b1:	add    esp,0x3c
  4c18b4:	pop    ebp
  4c18b5:	ret    
  4c18b6:	add    BYTE PTR [eax],al
  4c18b8:	pop    edi
  4c18b9:	call   DWORD PTR ds:0x4c2754
  4c18bf:	push   edi
  4c18c0:	repz ret 0x0
  4c18c4:	mov    edi,edi
  4c18c6:	push   ebp
  4c18c7:	mov    ebp,esp
  4c18c9:	sub    esp,0x30
  4c18cc:	lea    eax,[edi+0x12c]
  4c18d2:	or     DWORD PTR [eax-0x184],esi
  4c18d8:	push   eax
  4c18d9:	push   DWORD PTR [eax+0x180]
  4c18df:	push   DWORD PTR [eax+0x64]
  4c18e2:	call   0x4c1314
  4c18e7:	add    esp,0x8
  4c18ea:	pop    eax
  4c18eb:	push   eax
  4c18ec:	call   0x4c1e60
  4c18f1:	pop    eax
  4c18f2:	push   eax
  4c18f3:	push   0x0
  4c18f5:	call   0x4c14f0
  4c18fa:	pop    eax
  4c18fb:	add    esp,0x30
  4c18fe:	pop    ebp
  4c18ff:	ret    
  4c1900:	mov    edi,edi
  4c1902:	push   ebp
  4c1903:	mov    ebp,esp
  4c1905:	sub    esp,0x50
  4c1908:	mov    edi,0x4c3108
  4c190d:	adc    esi,DWORD PTR [ebp-0x10]
  4c1910:	push   edi
  4c1911:	push   DWORD PTR [edi+0x60]
  4c1914:	push   edx
  4c1915:	call   0x4c1d14
  4c191a:	add    esp,0x8
  4c191d:	pop    edi
  4c191e:	push   edi
  4c191f:	call   0x4c1e60
  4c1924:	pop    edi
  4c1925:	push   edi
  4c1926:	mov    ecx,0x0
  4c192b:	push   ecx
  4c192c:	call   0x4c14f0
  4c1931:	pop    edi
  4c1932:	add    esp,0x50
  4c1935:	pop    ebp
  4c1936:	ret    
  4c1937:	add    BYTE PTR [ebx-0x1374aa01],cl
  4c193d:	sub    esp,0x30
  4c1940:	mov    edi,0x4c3110
  4c1945:	and    DWORD PTR [edi+0x88],0xffffde76
  4c194f:	push   edi
  4c1950:	push   ebx
  4c1951:	push   DWORD PTR [edi+0x194]
  4c1957:	push   DWORD PTR [edi+0xac]
  4c195d:	push   esi
  4c195e:	call   0x4c1ab4
  4c1963:	add    esp,0x10
  4c1966:	pop    edi
  4c1967:	push   edi
  4c1968:	mov    edi,0x0
  4c196d:	push   edi
  4c196e:	call   0x4c126c
  4c1973:	pop    edi
  4c1974:	push   edi
  4c1975:	lea    eax,[edi-0x110]
  4c197b:	push   eax
  4c197c:	call   0x4c198c
  4c1981:	test   eax,eax
  4c1983:	jne    0x4c1975
  4c1985:	pop    edi
  4c1986:	add    esp,0x30
  4c1989:	pop    ebp
  4c198a:	ret    
  4c198b:	add    BYTE PTR [edi-0x1],bl
  4c198e:	adc    eax,0x4c272c
  4c1993:	push   edi
  4c1994:	repz ret 0x0
  4c1998:	mov    edi,edi
  4c199a:	push   ebp
  4c199b:	mov    ebp,esp
  4c199d:	sub    esp,0x2c
  4c19a0:	mov    ebx,0x4c3100
  4c19a5:	xor    DWORD PTR [ebp-0x14],esi
  4c19a8:	mov    ecx,0x0
  4c19ad:	push   ecx
  4c19ae:	call   0x4c1e08
  4c19b3:	push   ebx
  4c19b4:	push   DWORD PTR [ebx+0xf0]
  4c19ba:	push   DWORD PTR [ebx+0x6c]
  4c19bd:	push   DWORD PTR [ebx+0x64]
  4c19c0:	call   0x4c1704
  4c19c5:	add    esp,0xc
  4c19c8:	pop    ebx
  4c19c9:	mov    edx,0x0
  4c19ce:	push   edx
  4c19cf:	call   0x4c1b80
  4c19d4:	add    esp,0x2c
  4c19d7:	pop    ebp
  4c19d8:	ret    
  4c19d9:	add    BYTE PTR [eax],al
  4c19db:	add    BYTE PTR [edi-0x1],bl
  4c19de:	adc    eax,0x4c275c
  4c19e3:	push   edi
  4c19e4:	repz ret 0x0
  4c19e8:	mov    edi,edi
  4c19ea:	push   ebp
  4c19eb:	mov    ebp,esp
  4c19ed:	sub    esp,0x24
  4c19f0:	mov    eax,0x4c3110
  4c19f5:	mov    DWORD PTR [eax+0x24],0x6084
  4c19fc:	push   eax
  4c19fd:	mov    ebx,0x0
  4c1a02:	push   ebx
  4c1a03:	call   0x4c1aa8
  4c1a08:	pop    eax
  4c1a09:	push   eax
  4c1a0a:	push   DWORD PTR [eax+0xfc]
  4c1a10:	push   esi
  4c1a11:	call   0x4c14fc
  4c1a16:	add    esp,0x8
  4c1a19:	pop    eax
  4c1a1a:	push   eax
  4c1a1b:	mov    ebx,0x0
  4c1a20:	push   ebx
  4c1a21:	call   0x4c126c
  4c1a26:	pop    eax
  4c1a27:	add    esp,0x24
  4c1a2a:	pop    ebp
  4c1a2b:	ret    
  4c1a2c:	pop    edi
  4c1a2d:	call   DWORD PTR ds:0x4c2768
  4c1a33:	push   edi
  4c1a34:	repz ret 0x0
  4c1a38:	mov    edi,edi
  4c1a3a:	push   ebp
  4c1a3b:	mov    ebp,esp
  4c1a3d:	sub    esp,0x28
  4c1a40:	lea    esi,ds:0x4c3194
  4c1a46:	mov    ecx,DWORD PTR [ebp-0x14]
  4c1a49:	push   esi
  4c1a4a:	push   ecx
  4c1a4b:	push   DWORD PTR [esi+0x68]
  4c1a4e:	push   DWORD PTR [esi+0x1ac]
  4c1a54:	call   0x4c1c2c
  4c1a59:	add    esp,0xc
  4c1a5c:	pop    esi
  4c1a5d:	mov    ecx,0x0
  4c1a62:	push   ecx
  4c1a63:	call   0x4c1a84
  4c1a68:	mov    edi,0x0
  4c1a6d:	push   edi
  4c1a6e:	call   0x4c1d6c
  4c1a73:	add    esp,0x28
  4c1a76:	pop    ebp
  4c1a77:	ret    
  4c1a78:	pop    edi
  4c1a79:	call   DWORD PTR ds:0x4c2780
  4c1a7f:	push   edi
  4c1a80:	repz ret 0x0
  4c1a84:	pop    edi
  4c1a85:	call   DWORD PTR ds:0x4c2714
  4c1a8b:	push   edi
  4c1a8c:	repz ret 0x0
  4c1a90:	pop    edi
  4c1a91:	call   DWORD PTR ds:0x4c2748
  4c1a97:	push   edi
  4c1a98:	repz ret 0x0
  4c1a9c:	pop    edi
  4c1a9d:	call   DWORD PTR ds:0x4c2788
  4c1aa3:	push   edi
  4c1aa4:	repz ret 0x0
  4c1aa8:	pop    edi
  4c1aa9:	call   DWORD PTR ds:0x4c26f8
  4c1aaf:	push   edi
  4c1ab0:	repz ret 0x0
  4c1ab4:	mov    edi,edi
  4c1ab6:	push   ebp
  4c1ab7:	mov    ebp,esp
  4c1ab9:	sub    esp,0x34
  4c1abc:	lea    esi,ds:0x4c31ec
  4c1ac2:	adc    DWORD PTR [esi-0x17c],0xffffff9e
  4c1ac9:	push   esi
  4c1aca:	push   DWORD PTR [esi+0x174]
  4c1ad0:	push   edi
  4c1ad1:	push   ebx
  4c1ad2:	call   0x4c1d78
  4c1ad7:	add    esp,0xc
  4c1ada:	pop    esi
  4c1adb:	call   0x4c1c20
  4c1ae0:	mov    edi,0x0
  4c1ae5:	push   edi
  4c1ae6:	call   0x4c1a84
  4c1aeb:	add    esp,0x34
  4c1aee:	pop    ebp
  4c1aef:	ret    
  4c1af0:	pop    edi
  4c1af1:	call   DWORD PTR ds:0x4c2708
  4c1af7:	push   edi
  4c1af8:	repz ret 0x0
  4c1afc:	mov    edi,edi
  4c1afe:	push   ebp
  4c1aff:	mov    ebp,esp
  4c1b01:	sub    esp,0x44
  4c1b04:	lea    edi,ds:0x4c3064
  4c1b0a:	adc    DWORD PTR [edi+0x158],0xffffff94
  4c1b11:	push   edi
  4c1b12:	call   0x4c14e4
  4c1b17:	pop    edi
  4c1b18:	push   edi
  4c1b19:	push   ebx
  4c1b1a:	push   DWORD PTR [edi+0x174]
  4c1b20:	call   0x4c15ec
  4c1b25:	add    esp,0x8
  4c1b28:	pop    edi
  4c1b29:	push   edi
  4c1b2a:	mov    edi,0x0
  4c1b2f:	push   edi
  4c1b30:	call   0x4c1d6c
  4c1b35:	pop    edi
  4c1b36:	add    esp,0x44
  4c1b39:	pop    ebp
  4c1b3a:	ret    
  4c1b3b:	add    BYTE PTR [ebx-0x1374aa01],cl
  4c1b41:	sub    esp,0x3c
  4c1b44:	lea    edi,ds:0x4c3038
  4c1b4a:	mov    esi,eax
  4c1b4c:	push   edi
  4c1b4d:	push   DWORD PTR [edi+0x158]
  4c1b53:	push   DWORD PTR [edi+0x40]
  4c1b56:	push   DWORD PTR [edi+0xe8]
  4c1b5c:	call   0x4c1130
  4c1b61:	add    esp,0xc
  4c1b64:	pop    edi
  4c1b65:	push   edi
  4c1b66:	push   0x0
  4c1b68:	call   0x4c126c
  4c1b6d:	pop    edi
  4c1b6e:	push   edi
  4c1b6f:	mov    edx,0x0
  4c1b74:	push   edx
  4c1b75:	call   0x4c1e08
  4c1b7a:	pop    edi
  4c1b7b:	add    esp,0x3c
  4c1b7e:	pop    ebp
  4c1b7f:	ret    
  4c1b80:	pop    edi
  4c1b81:	call   DWORD PTR ds:0x4c2700
  4c1b87:	push   edi
  4c1b88:	repz ret 0x0
  4c1b8c:	mov    edi,edi
  4c1b8e:	push   ebp
  4c1b8f:	mov    ebp,esp
  4c1b91:	sub    esp,0x2c
  4c1b94:	mov    edx,0x4c3054
  4c1b99:	sub    DWORD PTR [edx+0x68],esi
  4c1b9c:	push   edx
  4c1b9d:	mov    eax,0xfffffff4
  4c1ba2:	push   eax
  4c1ba3:	call   0x4c1cb8
  4c1ba8:	pop    edx
  4c1ba9:	push   edx
  4c1baa:	push   DWORD PTR [edx+0x108]
  4c1bb0:	push   edi
  4c1bb1:	push   ecx
  4c1bb2:	call   0x4c1e20
  4c1bb7:	add    esp,0xc
  4c1bba:	pop    edx
  4c1bbb:	push   edx
  4c1bbc:	mov    ecx,0x0
  4c1bc1:	push   ecx
  4c1bc2:	call   0x4c1b80
  4c1bc7:	pop    edx
  4c1bc8:	add    esp,0x2c
  4c1bcb:	pop    ebp
  4c1bcc:	ret    
  4c1bcd:	add    BYTE PTR [eax],al
  4c1bcf:	add    BYTE PTR [ebx-0x1374aa01],cl
  4c1bd5:	sub    esp,0x40
  4c1bd8:	mov    ecx,0x4c3120
  4c1bdd:	adc    esi,DWORD PTR [ebp-0x40]
  4c1be0:	push   ecx
  4c1be1:	push   0x0
  4c1be3:	call   0x4c1a84
  4c1be8:	pop    ecx
  4c1be9:	push   ecx
  4c1bea:	push   edx
  4c1beb:	push   DWORD PTR [ecx+0x134]
  4c1bf1:	call   0x4c19e8
  4c1bf6:	add    esp,0x8
  4c1bf9:	pop    ecx
  4c1bfa:	push   ecx
  4c1bfb:	push   0xfffffff4
  4c1bfd:	call   0x4c1cb8
  4c1c02:	pop    ecx
  4c1c03:	add    esp,0x40
  4c1c06:	pop    ebp
  4c1c07:	ret    
  4c1c08:	pop    edi
  4c1c09:	call   DWORD PTR ds:0x4c2750
  4c1c0f:	push   edi
  4c1c10:	repz ret 0x0
  4c1c14:	pop    edi
  4c1c15:	call   DWORD PTR ds:0x4c2764
  4c1c1b:	push   edi
  4c1c1c:	repz ret 0x0
  4c1c20:	pop    edi
  4c1c21:	call   DWORD PTR ds:0x4c271c
  4c1c27:	push   edi
  4c1c28:	repz ret 0x0
  4c1c2c:	mov    edi,edi
  4c1c2e:	push   ebp
  4c1c2f:	mov    ebp,esp
  4c1c31:	sub    esp,0x5c
  4c1c34:	lea    ebx,ds:0x4c30a4
  4c1c3a:	sbb    DWORD PTR [ebx+0xbc],0xb
  4c1c41:	push   0x0
  4c1c43:	call   0x4c14f0
  4c1c48:	push   ebx
  4c1c49:	push   DWORD PTR [ebx+0x10c]
  4c1c4f:	push   DWORD PTR [ebx+0x1ec]
  4c1c55:	push   eax
  4c1c56:	push   edx
  4c1c57:	call   0x4c1394
  4c1c5c:	add    esp,0x10
  4c1c5f:	pop    ebx
  4c1c60:	call   0x4c1e60
  4c1c65:	add    esp,0x5c
  4c1c68:	pop    ebp
  4c1c69:	ret    
  4c1c6a:	add    BYTE PTR [eax],al
  4c1c6c:	pop    edi
  4c1c6d:	call   DWORD PTR ds:0x4c2770
  4c1c73:	push   edi
  4c1c74:	repz ret 0x0
  4c1c78:	mov    edi,edi
  4c1c7a:	push   ebp
  4c1c7b:	mov    ebp,esp
  4c1c7d:	sub    esp,0x60
  4c1c80:	lea    esi,[ecx+0x50]
  4c1c83:	xor    ebx,0xffffffcd
  4c1c86:	mov    ebx,0x0
  4c1c8b:	push   ebx
  4c1c8c:	call   0x4c1d6c
  4c1c91:	push   esi
  4c1c92:	push   DWORD PTR [esi+0x140]
  4c1c98:	push   DWORD PTR [esi+0x3c]
  4c1c9b:	push   edi
  4c1c9c:	call   0x4c1348
  4c1ca1:	add    esp,0xc
  4c1ca4:	pop    esi
  4c1ca5:	mov    eax,0x0
  4c1caa:	push   eax
  4c1cab:	call   0x4c14f0
  4c1cb0:	add    esp,0x60
  4c1cb3:	pop    ebp
  4c1cb4:	ret    
  4c1cb5:	add    BYTE PTR [eax],al
  4c1cb7:	add    BYTE PTR [edi-0x1],bl
  4c1cba:	adc    eax,0x4c2718
  4c1cbf:	push   edi
  4c1cc0:	repz ret 0x0
  4c1cc4:	mov    edi,edi
  4c1cc6:	push   ebp
  4c1cc7:	mov    ebp,esp
  4c1cc9:	sub    esp,0x2c
  4c1ccc:	lea    edi,ds:0x4c31a4
  4c1cd2:	or     ebx,DWORD PTR [edi+0x20]
  4c1cd5:	push   edi
  4c1cd6:	mov    esi,0x0
  4c1cdb:	push   esi
  4c1cdc:	call   0x4c18b8
  4c1ce1:	pop    edi
  4c1ce2:	push   edi
  4c1ce3:	push   DWORD PTR [edi+0x128]
  4c1ce9:	push   ecx
  4c1cea:	push   edx
  4c1ceb:	push   DWORD PTR [edi+0x64]
  4c1cee:	call   0x4c16b8
  4c1cf3:	add    esp,0x10
  4c1cf6:	pop    edi
  4c1cf7:	push   edi
  4c1cf8:	push   0x0
  4c1cfa:	call   0x4c14f0
  4c1cff:	pop    edi
  4c1d00:	add    esp,0x2c
  4c1d03:	pop    ebp
  4c1d04:	ret    
  4c1d05:	add    BYTE PTR [eax],al
  4c1d07:	add    BYTE PTR [edi-0x1],bl
  4c1d0a:	adc    eax,0x4c2784
  4c1d0f:	push   edi
  4c1d10:	repz ret 0x0
  4c1d14:	mov    edi,edi
  4c1d16:	push   ebp
  4c1d17:	mov    ebp,esp
  4c1d19:	sub    esp,0x4c
  4c1d1c:	lea    ecx,ds:0x4c30e0
  4c1d22:	adc    eax,DWORD PTR [ecx+0x64]
  4c1d25:	push   ecx
  4c1d26:	push   0x0
  4c1d28:	call   0x4c14f0
  4c1d2d:	pop    ecx
  4c1d2e:	push   ecx
  4c1d2f:	push   ebx
  4c1d30:	push   DWORD PTR [ecx+0x140]
  4c1d36:	push   DWORD PTR [ecx+0x138]
  4c1d3c:	call   0x4c10e4
  4c1d41:	add    esp,0xc
  4c1d44:	pop    ecx
  4c1d45:	push   ecx
  4c1d46:	call   0x4c14e4
  4c1d4b:	pop    ecx
  4c1d4c:	add    esp,0x4c
  4c1d4f:	pop    ebp
  4c1d50:	ret    
  4c1d51:	add    BYTE PTR [eax],al
  4c1d53:	add    BYTE PTR [edi-0x1],bl
  4c1d56:	adc    eax,0x4c26f4
  4c1d5b:	push   edi
  4c1d5c:	repz ret 0x0
  4c1d60:	pop    edi
  4c1d61:	call   DWORD PTR ds:0x4c2758
  4c1d67:	push   edi
  4c1d68:	repz ret 0x0
  4c1d6c:	pop    edi
  4c1d6d:	call   DWORD PTR ds:0x4c270c
  4c1d73:	push   edi
  4c1d74:	repz ret 0x0
  4c1d78:	mov    edi,edi
  4c1d7a:	push   ebp
  4c1d7b:	mov    ebp,esp
  4c1d7d:	sub    esp,0x4c
  4c1d80:	mov    DWORD PTR [esi-0xd4],0x52b1
  4c1d8a:	lea    eax,[esi-0x13c]
  4c1d90:	push   eax
  4c1d91:	push   0x6a8
  4c1d96:	push   0x6a8
  4c1d9b:	mov    esi,0x40001
  4c1da0:	push   esi
  4c1da1:	mov    eax,0x86288c8a
  4c1da6:	push   DWORD PTR [eax+0x7a239a86]
  4c1dac:	sub    DWORD PTR [esp],0x2
  4c1db0:	mov    eax,0x4c26e8
  4c1db5:	pop    DWORD PTR [eax]
  4c1db7:	call   0x4c17c8
  4c1dbc:	xchg   DWORD PTR [esp],eax
  4c1dbf:	pop    DWORD PTR [eax-0x44]
  4c1dc2:	mov    ebx,DWORD PTR [eax-0x44]
  4c1dc5:	lea    ebx,[ebx]
  4c1dc7:	sub    ecx,ecx
  4c1dc9:	dec    ecx
  4c1dca:	and    ecx,0x4c2038
  4c1dd0:	mov    esi,0x45a8d3e7
  4c1dd5:	push   0x6a8
  4c1dda:	pop    edx
  4c1ddb:	xor    edi,edi
  4c1ddd:	push   DWORD PTR [ecx+edi*1]
  4c1de0:	sub    DWORD PTR [esp],esi
  4c1de3:	pop    DWORD PTR [ebx+edi*2]
  4c1de6:	dec    DWORD PTR [ebx]
  4c1de8:	xor    esi,esi
  4c1dea:	add    esi,DWORD PTR [ecx]
  4c1dec:	add    ecx,0x4
  4c1def:	add    ebx,0x4
  4c1df2:	sub    edx,0x4
  4c1df5:	cmp    edx,0x0
  4c1df8:	jne    0x4c1ddb
  4c1dfa:	push   eax
  4c1dfb:	call   0x4c1c20
  4c1e00:	pop    eax
  4c1e01:	add    esp,0x4c
  4c1e04:	pop    ebp
  4c1e05:	ret    
  4c1e06:	add    BYTE PTR [eax],al
  4c1e08:	pop    edi
  4c1e09:	call   DWORD PTR ds:0x4c2724
  4c1e0f:	push   edi
  4c1e10:	repz ret 0x0
  4c1e14:	pop    edi
  4c1e15:	call   DWORD PTR ds:0x4c274c
  4c1e1b:	push   edi
  4c1e1c:	repz ret 0x0
  4c1e20:	mov    edi,edi
  4c1e22:	push   ebp
  4c1e23:	mov    ebp,esp
  4c1e25:	sub    esp,0x40
  4c1e28:	lea    ebx,[edx+0x94]
  4c1e2e:	adc    DWORD PTR [ebx-0x48],esi
  4c1e31:	push   0x0
  4c1e33:	call   0x4c126c
  4c1e38:	push   ebx
  4c1e39:	push   esi
  4c1e3a:	push   DWORD PTR [ebx+0x24]
  4c1e3d:	push   eax
  4c1e3e:	push   DWORD PTR [ebx+0xac]
  4c1e44:	call   0x4c1900
  4c1e49:	add    esp,0x10
  4c1e4c:	pop    ebx
  4c1e4d:	mov    eax,0x0
  4c1e52:	push   eax
  4c1e53:	call   0x4c186c
  4c1e58:	add    esp,0x40
  4c1e5b:	pop    ebp
  4c1e5c:	ret    
  4c1e5d:	add    BYTE PTR [eax],al
  4c1e5f:	add    BYTE PTR [edi-0x1],bl
  4c1e62:	adc    eax,0x4c2704
  4c1e67:	push   edi
  4c1e68:	repz ret 0x0
  4c1e6c:	mov    edi,edi
  4c1e6e:	push   ebp
  4c1e6f:	mov    ebp,esp
  4c1e71:	sub    esp,0x60
  4c1e74:	lea    esi,ds:0x4c3178
  4c1e7a:	mov    DWORD PTR [ebp-0x50],edi
  4c1e7d:	push   esi
  4c1e7e:	push   DWORD PTR [esi+0x160]
  4c1e84:	push   DWORD PTR [esi+0x180]
  4c1e8a:	push   edx
  4c1e8b:	push   edx
  4c1e8c:	call   0x4c140c
  4c1e91:	add    esp,0x10
  4c1e94:	pop    esi
  4c1e95:	mov    eax,0x0
  4c1e9a:	push   eax
  4c1e9b:	call   0x4c1b80
  4c1ea0:	lea    edx,[esi-0x178]
  4c1ea6:	push   edx
  4c1ea7:	call   0x4c198c
  4c1eac:	test   eax,eax
  4c1eae:	jne    0x4c1ea1
  4c1eb0:	add    esp,0x60
  4c1eb3:	pop    ebp
  4c1eb4:	ret    
  4c1eb5:	add    BYTE PTR [eax],al
  4c1eb7:	add    BYTE PTR [ebx-0x1374aa01],cl
  4c1ebd:	sub    esp,0x48
  4c1ec0:	lea    ecx,ds:0x4c30cc
  4c1ec6:	sub    esi,0x6b
  4c1ec9:	push   ecx
  4c1eca:	push   0x0
  4c1ecc:	call   0x4c1d6c
  4c1ed1:	pop    ecx
  4c1ed2:	push   ecx
  4c1ed3:	push   DWORD PTR [ecx+0x1a4]
  4c1ed9:	push   edx
  4c1eda:	call   0x4c1000
  4c1edf:	add    esp,0x8
  4c1ee2:	pop    ecx
  4c1ee3:	push   ecx
  4c1ee4:	call   0x4c1c20
  4c1ee9:	pop    ecx
  4c1eea:	add    esp,0x48
  4c1eed:	pop    ebp
  4c1eee:	ret    
  4c1eef:	add    BYTE PTR [ebx-0x1374aa01],cl
  4c1ef5:	sub    esp,0x50
  4c1ef8:	lea    esi,ds:0x4c31c0
  4c1efe:	or     edi,0xffffa076
  4c1f04:	lea    edi,[esi-0x1c0]
  4c1f0a:	push   edi
  4c1f0b:	call   0x4c198c
  4c1f10:	test   eax,eax
  4c1f12:	jne    0x4c1f05
  4c1f14:	push   esi
  4c1f15:	push   DWORD PTR [esi+0xd4]
  4c1f1b:	push   edi
  4c1f1c:	push   DWORD PTR [esi+0x140]
  4c1f22:	push   edi
  4c1f23:	call   0x4c1554
  4c1f28:	add    esp,0x10
  4c1f2b:	pop    esi
  4c1f2c:	push   0x0
  4c1f2e:	call   0x4c126c
  4c1f33:	add    esp,0x50
  4c1f36:	pop    ebp
  4c1f37:	ret    
