
ae08220fd740e4e2c2b9b41acb7991c04350e3ecdb15d678b5b0ccd0054526cf.exe:     file format pei-i386


Disassembly of section .text:

00401000 <.text>:
  401000:	mov    edi,edi
  401002:	push   ebp
  401003:	mov    ebp,esp
  401005:	sub    esp,0x40
  401008:	push   edx
  401009:	push   ebx
  40100a:	push   DWORD PTR [edx+0x284]
  401010:	call   0x401a14
  401015:	add    esp,0x8
  401018:	pop    edx
  401019:	push   edx
  40101a:	mov    ebx,0x0
  40101f:	push   ebx
  401020:	push   0x403030
  401025:	pop    eax
  401026:	call   DWORD PTR cs:[eax]
  401029:	pop    edx
  40102a:	push   edx
  40102b:	push   0x0
  40102d:	push   0x40304c
  401032:	pop    eax
  401033:	call   DWORD PTR cs:[eax]
  401036:	pop    edx
  401037:	sub    esp,0xffffffc0
  40103a:	mov    ebp,DWORD PTR [esp]
  40103d:	add    esp,0x4
  401040:	ret    
  401041:	add    BYTE PTR [eax],al
  401043:	add    BYTE PTR [ebx-0x1374aa01],cl
  401049:	sub    esp,0x2c
  40104c:	push   edx
  40104d:	push   0x403048
  401052:	pop    eax
  401053:	call   DWORD PTR cs:[eax]
  401056:	pop    edx
  401057:	push   edx
  401058:	push   ebx
  401059:	push   DWORD PTR [edx+0x598]
  40105f:	call   0x401788
  401064:	add    esp,0x8
  401067:	pop    edx
  401068:	push   edx
  401069:	mov    edx,0x0
  40106e:	push   edx
  40106f:	push   0x40300c
  401074:	pop    eax
  401075:	call   DWORD PTR cs:[eax]
  401078:	pop    edx
  401079:	sub    esp,0xffffffd4
  40107c:	mov    ebp,DWORD PTR [esp]
  40107f:	add    esp,0x4
  401082:	ret    
  401083:	add    BYTE PTR [edi],cl
  401085:	sbb    BYTE PTR [esi+0x0],0x0
  40108c:	mov    edi,edi
  40108e:	push   ebp
  40108f:	mov    ebp,esp
  401091:	sub    esp,0x40
  401094:	push   edx
  401095:	push   DWORD PTR [edx+0x254]
  40109b:	push   ecx
  40109c:	push   DWORD PTR [edx+0x5a0]
  4010a2:	call   0x401adc
  4010a7:	add    esp,0xc
  4010aa:	pop    edx
  4010ab:	push   edx
  4010ac:	mov    ecx,0x0
  4010b1:	push   ecx
  4010b2:	push   0x403030
  4010b7:	pop    eax
  4010b8:	call   DWORD PTR cs:[eax]
  4010bb:	pop    edx
  4010bc:	push   edx
  4010bd:	mov    esi,0x0
  4010c2:	push   esi
  4010c3:	push   0x403024
  4010c8:	pop    eax
  4010c9:	call   DWORD PTR cs:[eax]
  4010cc:	pop    edx
  4010cd:	sub    esp,0xffffffc0
  4010d0:	mov    ebp,DWORD PTR [esp]
  4010d3:	add    esp,0x4
  4010d6:	ret    
  4010d7:	add    BYTE PTR [eax],al
  4010d9:	add    BYTE PTR [eax],al
  4010db:	add    BYTE PTR [ebx-0x1374aa01],cl
  4010e1:	sub    esp,0x2c
  4010e4:	push   edx
  4010e5:	push   DWORD PTR [edx+0x23c]
  4010eb:	push   DWORD PTR [edx+0x558]
  4010f1:	push   ecx
  4010f2:	call   0x401944
  4010f7:	add    esp,0xc
  4010fa:	pop    edx
  4010fb:	push   edx
  4010fc:	mov    ebx,0x0
  401101:	push   ebx
  401102:	push   0x40304c
  401107:	pop    eax
  401108:	call   DWORD PTR cs:[eax]
  40110b:	pop    edx
  40110c:	push   edx
  40110d:	lea    edx,[edx]
  40110f:	push   edx
  401110:	push   0x403000
  401115:	pop    eax
  401116:	call   DWORD PTR cs:[eax]
  401119:	test   eax,eax
  40111b:	jne    0x40110d
  40111d:	pop    edx
  40111e:	sub    esp,0xffffffd4
  401121:	mov    ebp,DWORD PTR [esp]
  401124:	add    esp,0x4
  401127:	ret    
  401128:	mov    edi,edi
  40112a:	pusha  
  40112b:	push   ebp
  40112c:	mov    ebp,esp
  40112e:	sub    esp,0x38
  401131:	push   edx
  401132:	mov    ebx,0x0
  401137:	push   ebx
  401138:	push   0x40302c
  40113d:	pop    eax
  40113e:	call   DWORD PTR cs:[eax]
  401141:	pop    edx
  401142:	test   eax,eax
  401144:	je     0x401147
  401146:	ret    
  401147:	push   edx
  401148:	mov    ebx,0x0
  40114d:	push   ebx
  40114e:	push   0x40304c
  401153:	pop    eax
  401154:	call   DWORD PTR cs:[eax]
  401157:	pop    edx
  401158:	push   edx
  401159:	push   eax
  40115a:	push   DWORD PTR [edx+0x390]
  401160:	push   esi
  401161:	push   ebx
  401162:	call   0x4015dc
  401167:	add    esp,0x10
  40116a:	pop    edx
  40116b:	mov    ecx,0x403000
  401170:	mov    ecx,DWORD PTR [ecx]
  401172:	push   ecx
  401173:	push   DWORD PTR [edx+0xd4]
  401179:	pop    ebx
  40117a:	call   ebx
  40117c:	sub    esp,0xffffffc8
  40117f:	mov    ebp,DWORD PTR [esp]
  401182:	add    esp,0x4
  401185:	ret    
  401186:	add    BYTE PTR [eax],al
  401188:	mov    edi,edi
  40118a:	push   ebp
  40118b:	mov    ebp,esp
  40118d:	sub    esp,0x24
  401190:	push   edx
  401191:	lea    edi,[edx]
  401193:	push   edi
  401194:	push   0x403000
  401199:	pop    eax
  40119a:	call   DWORD PTR cs:[eax]
  40119d:	test   eax,eax
  40119f:	jne    0x401191
  4011a1:	pop    edx
  4011a2:	push   edx
  4011a3:	push   esi
  4011a4:	push   DWORD PTR [edx+0x308]
  4011aa:	push   DWORD PTR [edx+0x40]
  4011ad:	call   0x401a5c
  4011b2:	add    esp,0xc
  4011b5:	pop    edx
  4011b6:	push   edx
  4011b7:	push   0x0
  4011b9:	push   0x403080
  4011be:	pop    eax
  4011bf:	call   DWORD PTR cs:[eax]
  4011c2:	pop    edx
  4011c3:	sub    esp,0xffffffdc
  4011c6:	mov    ebp,DWORD PTR [esp]
  4011c9:	add    esp,0x4
  4011cc:	ret    
	...
  4011d9:	add    BYTE PTR [eax],al
  4011db:	add    BYTE PTR [ebx-0x1374aa01],cl
  4011e1:	sub    esp,0x34
  4011e4:	push   edx
  4011e5:	push   ecx
  4011e6:	push   edi
  4011e7:	call   0x401550
  4011ec:	add    esp,0x8
  4011ef:	pop    edx
  4011f0:	push   edx
  4011f1:	mov    edx,0x0
  4011f6:	push   edx
  4011f7:	push   0x40304c
  4011fc:	pop    eax
  4011fd:	call   DWORD PTR cs:[eax]
  401200:	pop    edx
  401201:	push   edx
  401202:	lea    ebx,[edx]
  401204:	push   ebx
  401205:	push   0x403000
  40120a:	pop    eax
  40120b:	call   DWORD PTR cs:[eax]
  40120e:	test   eax,eax
  401210:	jne    0x401202
  401212:	pop    edx
  401213:	sub    esp,0xffffffcc
  401216:	mov    ebp,DWORD PTR [esp]
  401219:	add    esp,0x4
  40121c:	ret    
  40121d:	add    BYTE PTR [eax],al
  40121f:	add    BYTE PTR [eax],al
  401221:	add    BYTE PTR [eax],al
  401223:	add    BYTE PTR [ebx-0x1374aa01],cl
  401229:	sub    esp,0x28
  40122c:	push   edx
  40122d:	push   DWORD PTR [edx+0x308]
  401233:	push   DWORD PTR [edx+0x188]
  401239:	push   ecx
  40123a:	push   DWORD PTR [edx+0x2d8]
  401240:	call   0x401678
  401245:	add    esp,0x10
  401248:	pop    edx
  401249:	push   edx
  40124a:	mov    eax,0x0
  40124f:	push   eax
  401250:	push   0x40303c
  401255:	pop    eax
  401256:	call   DWORD PTR cs:[eax]
  401259:	pop    edx
  40125a:	push   edx
  40125b:	push   0x0
  40125d:	push   0x403080
  401262:	pop    eax
  401263:	call   DWORD PTR cs:[eax]
  401266:	pop    edx
  401267:	sub    esp,0xffffffd8
  40126a:	mov    ebp,DWORD PTR [esp]
  40126d:	add    esp,0x4
  401270:	ret    
  401271:	add    BYTE PTR [eax],al
  401273:	add    BYTE PTR [ebx-0x1374aa01],cl
  401279:	sub    esp,0x40
  40127c:	push   edx
  40127d:	push   0x0
  40127f:	push   0x40300c
  401284:	pop    eax
  401285:	call   DWORD PTR cs:[eax]
  401288:	pop    edx
  401289:	push   edx
  40128a:	push   DWORD PTR [edx+0x338]
  401290:	push   ecx
  401291:	call   0x4016b8
  401296:	add    esp,0x8
  401299:	pop    edx
  40129a:	push   edx
  40129b:	push   0x0
  40129d:	push   0x403028
  4012a2:	pop    eax
  4012a3:	call   DWORD PTR cs:[eax]
  4012a6:	pop    edx
  4012a7:	sub    esp,0xffffffc0
  4012aa:	mov    ebp,DWORD PTR [esp]
  4012ad:	add    esp,0x4
  4012b0:	ret    
	...
  4012c5:	add    BYTE PTR [eax],al
  4012c7:	add    BYTE PTR [ebx-0x1374aa01],cl
  4012cd:	sub    esp,0x20
  4012d0:	push   edx
  4012d1:	push   0x0
  4012d3:	push   0x403080
  4012d8:	pop    eax
  4012d9:	call   DWORD PTR cs:[eax]
  4012dc:	pop    edx
  4012dd:	push   edx
  4012de:	push   DWORD PTR [edx+0x370]
  4012e4:	push   DWORD PTR [edx+0x2cc]
  4012ea:	push   eax
  4012eb:	push   DWORD PTR [edx+0xac]
  4012f1:	call   0x401c10
  4012f6:	add    esp,0x10
  4012f9:	pop    edx
  4012fa:	push   edx
  4012fb:	push   0x0
  4012fd:	push   0x403030
  401302:	pop    eax
  401303:	call   DWORD PTR cs:[eax]
  401306:	pop    edx
  401307:	sub    esp,0xffffffe0
  40130a:	mov    ebp,DWORD PTR [esp]
  40130d:	add    esp,0x4
  401310:	ret    
  401311:	add    BYTE PTR [eax],al
  401313:	add    BYTE PTR [ebx-0x1374aa01],cl
  401319:	sub    esp,0x44
  40131c:	push   edx
  40131d:	push   0x0
  40131f:	push   0x403024
  401324:	pop    eax
  401325:	call   DWORD PTR cs:[eax]
  401328:	pop    edx
  401329:	push   edx
  40132a:	push   DWORD PTR [edx+0x1a4]
  401330:	push   ecx
  401331:	push   DWORD PTR [edx+0x3ac]
  401337:	call   0x401188
  40133c:	add    esp,0xc
  40133f:	pop    edx
  401340:	push   edx
  401341:	mov    edi,0x0
  401346:	push   edi
  401347:	push   0x403034
  40134c:	pop    eax
  40134d:	call   DWORD PTR cs:[eax]
  401350:	pop    edx
  401351:	sub    esp,0xffffffbc
  401354:	mov    ebp,DWORD PTR [esp]
  401357:	add    esp,0x4
  40135a:	ret    
  40135b:	add    BYTE PTR [eax],al
  40135d:	add    BYTE PTR [eax],al
  40135f:	add    BYTE PTR [ebx-0x1374aa01],cl
  401365:	sub    esp,0x4c
  401368:	push   edx
  401369:	push   DWORD PTR [edx+0x304]
  40136f:	push   eax
  401370:	push   ecx
  401371:	push   eax
  401372:	call   0x401704
  401377:	add    esp,0x10
  40137a:	pop    edx
  40137b:	push   edx
  40137c:	push   0x0
  40137e:	push   0x403060
  401383:	pop    eax
  401384:	call   DWORD PTR cs:[eax]
  401387:	pop    edx
  401388:	push   edx
  401389:	push   0x0
  40138b:	push   0x403060
  401390:	pop    eax
  401391:	call   DWORD PTR cs:[eax]
  401394:	pop    edx
  401395:	sub    esp,0xffffffb4
  401398:	mov    ebp,DWORD PTR [esp]
  40139b:	add    esp,0x4
  40139e:	ret    
  40139f:	add    BYTE PTR [ebx-0x1374aa01],cl
  4013a5:	sub    esp,0x50
  4013a8:	push   edx
  4013a9:	push   0x0
  4013ab:	push   0x403024
  4013b0:	pop    eax
  4013b1:	call   DWORD PTR cs:[eax]
  4013b4:	pop    edx
  4013b5:	push   edx
  4013b6:	push   DWORD PTR [edx+0x4]
  4013b9:	push   edi
  4013ba:	push   DWORD PTR [edx+0x288]
  4013c0:	call   0x4012c8
  4013c5:	add    esp,0xc
  4013c8:	pop    edx
  4013c9:	push   edx
  4013ca:	lea    edx,[edx]
  4013cc:	push   edx
  4013cd:	push   0x403000
  4013d2:	pop    eax
  4013d3:	call   DWORD PTR cs:[eax]
  4013d6:	test   eax,eax
  4013d8:	jne    0x4013ca
  4013da:	pop    edx
  4013db:	sub    esp,0xffffffb0
  4013de:	mov    ebp,DWORD PTR [esp]
  4013e1:	add    esp,0x4
  4013e4:	ret    
  4013e5:	add    BYTE PTR [eax],al
  4013e7:	add    BYTE PTR [ebx-0x1374aa01],cl
  4013ed:	sub    esp,0x38
  4013f0:	push   edx
  4013f1:	push   0x0
  4013f3:	push   0x403028
  4013f8:	pop    eax
  4013f9:	call   DWORD PTR cs:[eax]
  4013fc:	pop    edx
  4013fd:	push   edx
  4013fe:	push   DWORD PTR [edx+0x490]
  401404:	push   edi
  401405:	push   DWORD PTR [edx+0xb0]
  40140b:	push   DWORD PTR [edx+0x3d0]
  401411:	call   0x401e70
  401416:	add    esp,0x10
  401419:	pop    edx
  40141a:	push   edx
  40141b:	push   0x403048
  401420:	pop    eax
  401421:	call   DWORD PTR cs:[eax]
  401424:	pop    edx
  401425:	sub    esp,0xffffffc8
  401428:	mov    ebp,DWORD PTR [esp]
  40142b:	add    esp,0x4
  40142e:	ret    
	...
  401437:	add    BYTE PTR [ebx-0x1374aa01],cl
  40143d:	sub    esp,0x50
  401440:	push   edx
  401441:	mov    ebx,0x0
  401446:	push   ebx
  401447:	push   0x403020
  40144c:	pop    eax
  40144d:	call   DWORD PTR cs:[eax]
  401450:	pop    edx
  401451:	push   edx
  401452:	push   DWORD PTR [edx+0x378]
  401458:	push   DWORD PTR [edx+0x58c]
  40145e:	push   ecx
  40145f:	call   0x40150c
  401464:	add    esp,0xc
  401467:	pop    edx
  401468:	push   edx
  401469:	push   0x0
  40146b:	push   0x403060
  401470:	pop    eax
  401471:	call   DWORD PTR cs:[eax]
  401474:	pop    edx
  401475:	sub    esp,0xffffffb0
  401478:	mov    ebp,DWORD PTR [esp]
  40147b:	add    esp,0x4
  40147e:	ret    
  40147f:	add    BYTE PTR [ebx-0x1374aa01],cl
  401485:	sub    esp,0x40
  401488:	push   edx
  401489:	push   DWORD PTR [edx+0x244]
  40148f:	push   ecx
  401490:	call   0x401438
  401495:	add    esp,0x8
  401498:	pop    edx
  401499:	push   edx
  40149a:	mov    esi,0x0
  40149f:	push   esi
  4014a0:	push   0x403024
  4014a5:	pop    eax
  4014a6:	call   DWORD PTR cs:[eax]
  4014a9:	pop    edx
  4014aa:	push   edx
  4014ab:	push   0x403048
  4014b0:	pop    eax
  4014b1:	call   DWORD PTR cs:[eax]
  4014b4:	pop    edx
  4014b5:	sub    esp,0xffffffc0
  4014b8:	mov    ebp,DWORD PTR [esp]
  4014bb:	add    esp,0x4
  4014be:	ret    
  4014bf:	add    BYTE PTR [ebx],ch
  4014c1:	rol    BYTE PTR [ecx+0x47f000c2],cl
  4014c7:	add    BYTE PTR [edx+0x33],dl
  4014ca:	leave  
  4014cb:	or     ecx,0x403094
  4014d1:	and    WORD PTR [ecx],0x0
  4014d5:	push   DWORD PTR [ecx]
  4014d7:	pop    eax
  4014d8:	mov    edx,eax
  4014da:	push   0x3c
  4014dc:	add    DWORD PTR [esp],eax
  4014df:	pop    ecx
  4014e0:	push   eax
  4014e1:	mov    edi,esp
  4014e3:	mov    esi,ecx
  4014e5:	movs   DWORD PTR es:[edi],DWORD PTR ds:[esi]
  4014e6:	pop    eax
  4014e7:	mov    edx,DWORD PTR [eax+edx*1+0x1c]
  4014eb:	ror    edx,0x8
  4014ee:	xor    eax,eax
  4014f0:	or     al,0x80
  4014f2:	cmp    al,dl
  4014f4:	pop    edx
  4014f5:	ja     0x401500
  4014f7:	nop
  4014f8:	nop
  4014f9:	nop
  4014fa:	nop
  4014fb:	jmp    0x401084
  401500:	xor    esp,esp
  401502:	int    0x3
	...
  40150c:	mov    edi,edi
  40150e:	push   ebp
  40150f:	mov    ebp,esp
  401511:	sub    esp,0x30
  401514:	push   edx
  401515:	push   0x403048
  40151a:	pop    eax
  40151b:	call   DWORD PTR cs:[eax]
  40151e:	pop    edx
  40151f:	push   edx
  401520:	push   edi
  401521:	push   esi
  401522:	push   DWORD PTR [edx+0x354]
  401528:	push   DWORD PTR [edx+0x28c]
  40152e:	call   0x401d40
  401533:	add    esp,0x10
  401536:	pop    edx
  401537:	push   edx
  401538:	push   0x0
  40153a:	push   0x403024
  40153f:	pop    eax
  401540:	call   DWORD PTR cs:[eax]
  401543:	pop    edx
  401544:	sub    esp,0xffffffd0
  401547:	mov    ebp,DWORD PTR [esp]
  40154a:	add    esp,0x4
  40154d:	ret    
  40154e:	add    BYTE PTR [eax],al
  401550:	mov    edi,edi
  401552:	push   ebp
  401553:	mov    ebp,esp
  401555:	sub    esp,0x60
  401558:	push   edx
  401559:	push   esi
  40155a:	push   esi
  40155b:	push   esi
  40155c:	push   DWORD PTR [edx+0x45c]
  401562:	call   0x4013a0
  401567:	add    esp,0x10
  40156a:	pop    edx
  40156b:	push   edx
  40156c:	push   0x0
  40156e:	push   0x40302c
  401573:	pop    eax
  401574:	call   DWORD PTR cs:[eax]
  401577:	pop    edx
  401578:	push   edx
  401579:	lea    edx,[edx]
  40157b:	push   edx
  40157c:	push   0x403000
  401581:	pop    eax
  401582:	call   DWORD PTR cs:[eax]
  401585:	test   eax,eax
  401587:	jne    0x401579
  401589:	pop    edx
  40158a:	sub    esp,0xffffffa0
  40158d:	mov    ebp,DWORD PTR [esp]
  401590:	add    esp,0x4
  401593:	ret    
  401594:	mov    edi,edi
  401596:	push   ebp
  401597:	mov    ebp,esp
  401599:	sub    esp,0x48
  40159c:	push   edx
  40159d:	push   DWORD PTR [edx+0x24]
  4015a0:	push   DWORD PTR [edx+0x4b0]
  4015a6:	push   edi
  4015a7:	push   DWORD PTR [edx+0x360]
  4015ad:	call   0x401274
  4015b2:	add    esp,0x10
  4015b5:	pop    edx
  4015b6:	push   edx
  4015b7:	push   0x403048
  4015bc:	pop    eax
  4015bd:	call   DWORD PTR cs:[eax]
  4015c0:	pop    edx
  4015c1:	push   edx
  4015c2:	push   0x0
  4015c4:	push   0x40300c
  4015c9:	pop    eax
  4015ca:	call   DWORD PTR cs:[eax]
  4015cd:	pop    edx
  4015ce:	sub    esp,0xffffffb8
  4015d1:	mov    ebp,DWORD PTR [esp]
  4015d4:	add    esp,0x4
  4015d7:	ret    
  4015d8:	add    BYTE PTR [eax],al
  4015da:	add    BYTE PTR [eax],al
  4015dc:	mov    edi,edi
  4015de:	push   ebp
  4015df:	mov    ebp,esp
  4015e1:	sub    esp,0x38
  4015e4:	push   edx
  4015e5:	push   0x0
  4015e7:	push   0x40304c
  4015ec:	pop    eax
  4015ed:	call   DWORD PTR cs:[eax]
  4015f0:	pop    edx
  4015f1:	push   edx
  4015f2:	push   DWORD PTR [edx+0x1fc]
  4015f8:	push   DWORD PTR [edx+0x1f4]
  4015fe:	call   0x4017d0
  401603:	add    esp,0x8
  401606:	pop    edx
  401607:	push   edx
  401608:	push   0x403008
  40160d:	pop    eax
  40160e:	call   DWORD PTR cs:[eax]
  401611:	pop    edx
  401612:	sub    esp,0xffffffc8
  401615:	mov    ebp,DWORD PTR [esp]
  401618:	add    esp,0x4
  40161b:	ret    
  40161c:	add    BYTE PTR [eax],al
  40161e:	add    BYTE PTR [eax],al
  401620:	mov    edi,edi
  401622:	push   ebp
  401623:	mov    ebp,esp
  401625:	sub    esp,0x58
  401628:	push   edx
  401629:	push   DWORD PTR [edx+0x220]
  40162f:	push   DWORD PTR [edx+0x24c]
  401635:	push   DWORD PTR [edx+0x2b4]
  40163b:	push   ecx
  40163c:	call   0x401480
  401641:	add    esp,0x10
  401644:	pop    edx
  401645:	push   edx
  401646:	push   0x0
  401648:	push   0x40304c
  40164d:	pop    eax
  40164e:	call   DWORD PTR cs:[eax]
  401651:	pop    edx
  401652:	push   edx
  401653:	push   0x403008
  401658:	pop    eax
  401659:	call   DWORD PTR cs:[eax]
  40165c:	pop    edx
  40165d:	sub    esp,0xffffffa8
  401660:	mov    ebp,DWORD PTR [esp]
  401663:	add    esp,0x4
  401666:	ret    
	...
  401677:	add    BYTE PTR [ebx-0x1374aa01],cl
  40167d:	sub    esp,0x58
  401680:	push   edx
  401681:	push   edi
  401682:	push   DWORD PTR [edx+0x12c]
  401688:	call   0x401314
  40168d:	add    esp,0x8
  401690:	pop    edx
  401691:	push   edx
  401692:	push   0x0
  401694:	push   0x403034
  401699:	pop    eax
  40169a:	call   DWORD PTR cs:[eax]
  40169d:	pop    edx
  40169e:	push   edx
  40169f:	push   0x0
  4016a1:	push   0x40304c
  4016a6:	pop    eax
  4016a7:	call   DWORD PTR cs:[eax]
  4016aa:	pop    edx
  4016ab:	sub    esp,0xffffffa8
  4016ae:	mov    ebp,DWORD PTR [esp]
  4016b1:	add    esp,0x4
  4016b4:	ret    
  4016b5:	add    BYTE PTR [eax],al
  4016b7:	add    BYTE PTR [ebx-0x1374aa01],cl
  4016bd:	sub    esp,0x34
  4016c0:	push   edx
  4016c1:	push   DWORD PTR [edx+0x1bc]
  4016c7:	push   DWORD PTR [edx+0x1b0]
  4016cd:	push   eax
  4016ce:	push   DWORD PTR [edx+0x1f8]
  4016d4:	call   0x4018fc
  4016d9:	add    esp,0x10
  4016dc:	pop    edx
  4016dd:	push   edx
  4016de:	push   0x0
  4016e0:	push   0x403020
  4016e5:	pop    eax
  4016e6:	call   DWORD PTR cs:[eax]
  4016e9:	pop    edx
  4016ea:	push   edx
  4016eb:	push   0x0
  4016ed:	push   0x403030
  4016f2:	pop    eax
  4016f3:	call   DWORD PTR cs:[eax]
  4016f6:	pop    edx
  4016f7:	sub    esp,0xffffffcc
  4016fa:	mov    ebp,DWORD PTR [esp]
  4016fd:	add    esp,0x4
  401700:	ret    
  401701:	add    BYTE PTR [eax],al
  401703:	add    BYTE PTR [ebx-0x1374aa01],cl
  401709:	sub    esp,0x50
  40170c:	push   edx
  40170d:	push   0x0
  40170f:	push   0x40303c
  401714:	pop    eax
  401715:	call   DWORD PTR cs:[eax]
  401718:	pop    edx
  401719:	push   edx
  40171a:	push   DWORD PTR [edx+0x59c]
  401720:	push   ecx
  401721:	call   0x401c60
  401726:	add    esp,0x8
  401729:	pop    edx
  40172a:	push   edx
  40172b:	push   0x0
  40172d:	push   0x403058
  401732:	pop    eax
  401733:	call   DWORD PTR cs:[eax]
  401736:	pop    edx
  401737:	sub    esp,0xffffffb0
  40173a:	mov    ebp,DWORD PTR [esp]
  40173d:	add    esp,0x4
  401740:	ret    
  401741:	add    BYTE PTR [eax],al
  401743:	add    BYTE PTR [eax],al
  401745:	add    BYTE PTR [eax],al
  401747:	add    BYTE PTR [ebx-0x1374aa01],cl
  40174d:	sub    esp,0x4c
  401750:	push   edx
  401751:	push   edi
  401752:	push   DWORD PTR [edx+0x47c]
  401758:	push   esi
  401759:	call   0x401bc4
  40175e:	add    esp,0xc
  401761:	pop    edx
  401762:	push   edx
  401763:	mov    esi,0x0
  401768:	push   esi
  401769:	push   0x403034
  40176e:	pop    eax
  40176f:	call   DWORD PTR cs:[eax]
  401772:	pop    edx
  401773:	push   edx
  401774:	push   0x403048
  401779:	pop    eax
  40177a:	call   DWORD PTR cs:[eax]
  40177d:	pop    edx
  40177e:	sub    esp,0xffffffb4
  401781:	mov    ebp,DWORD PTR [esp]
  401784:	add    esp,0x4
  401787:	ret    
  401788:	mov    edi,edi
  40178a:	push   ebp
  40178b:	mov    ebp,esp
  40178d:	sub    esp,0x44
  401790:	push   edx
  401791:	push   ebx
  401792:	push   edi
  401793:	push   ebx
  401794:	call   0x401d00
  401799:	add    esp,0xc
  40179c:	pop    edx
  40179d:	push   edx
  40179e:	lea    edi,[edx]
  4017a0:	push   edi
  4017a1:	push   0x403000
  4017a6:	pop    eax
  4017a7:	call   DWORD PTR cs:[eax]
  4017aa:	test   eax,eax
  4017ac:	jne    0x40179e
  4017ae:	pop    edx
  4017af:	push   edx
  4017b0:	lea    edx,[edx]
  4017b2:	push   edx
  4017b3:	push   0x403000
  4017b8:	pop    eax
  4017b9:	call   DWORD PTR cs:[eax]
  4017bc:	test   eax,eax
  4017be:	jne    0x4017b0
  4017c0:	pop    edx
  4017c1:	sub    esp,0xffffffbc
  4017c4:	mov    ebp,DWORD PTR [esp]
  4017c7:	add    esp,0x4
  4017ca:	ret    
  4017cb:	add    BYTE PTR [eax],al
  4017cd:	add    BYTE PTR [eax],al
  4017cf:	add    BYTE PTR [ebx-0x1374aa01],cl
  4017d5:	sub    esp,0x28
  4017d8:	push   edx
  4017d9:	push   0x0
  4017db:	push   0x403028
  4017e0:	pop    eax
  4017e1:	call   DWORD PTR cs:[eax]
  4017e4:	pop    edx
  4017e5:	push   edx
  4017e6:	push   eax
  4017e7:	push   DWORD PTR [edx+0xb0]
  4017ed:	call   0x401000
  4017f2:	add    esp,0x8
  4017f5:	pop    edx
  4017f6:	push   edx
  4017f7:	mov    edi,0x0
  4017fc:	push   edi
  4017fd:	push   0x40302c
  401802:	pop    eax
  401803:	call   DWORD PTR cs:[eax]
  401806:	pop    edx
  401807:	sub    esp,0xffffffd8
  40180a:	mov    ebp,DWORD PTR [esp]
  40180d:	add    esp,0x4
  401810:	ret    
  401811:	add    BYTE PTR [eax],al
  401813:	add    BYTE PTR [ebx-0x1374aa01],cl
  401819:	sub    esp,0x50
  40181c:	push   edx
  40181d:	push   DWORD PTR [edx+0x208]
  401823:	push   DWORD PTR [edx+0x164]
  401829:	call   0x401748
  40182e:	add    esp,0x8
  401831:	pop    edx
  401832:	push   edx
  401833:	push   0x0
  401835:	push   0x403060
  40183a:	pop    eax
  40183b:	call   DWORD PTR cs:[eax]
  40183e:	pop    edx
  40183f:	push   edx
  401840:	mov    edi,0x0
  401845:	push   edi
  401846:	push   0x403028
  40184b:	pop    eax
  40184c:	call   DWORD PTR cs:[eax]
  40184f:	pop    edx
  401850:	sub    esp,0xffffffb0
  401853:	mov    ebp,DWORD PTR [esp]
  401856:	add    esp,0x4
  401859:	ret    
	...
  40186a:	add    BYTE PTR [eax],al
  40186c:	mov    edi,edi
  40186e:	push   ebp
  40186f:	mov    ebp,esp
  401871:	sub    esp,0x2c
  401874:	push   edx
  401875:	mov    edx,0x0
  40187a:	push   edx
  40187b:	push   0x403058
  401880:	pop    eax
  401881:	call   DWORD PTR cs:[eax]
  401884:	pop    edx
  401885:	push   edx
  401886:	push   ecx
  401887:	push   ecx
  401888:	call   0x4019d0
  40188d:	add    esp,0x8
  401890:	pop    edx
  401891:	push   edx
  401892:	mov    ecx,0x0
  401897:	push   ecx
  401898:	push   0x403080
  40189d:	pop    eax
  40189e:	call   DWORD PTR cs:[eax]
  4018a1:	pop    edx
  4018a2:	sub    esp,0xffffffd4
  4018a5:	mov    ebp,DWORD PTR [esp]
  4018a8:	add    esp,0x4
  4018ab:	ret    
  4018ac:	add    BYTE PTR [eax],al
  4018ae:	add    BYTE PTR [eax],al
  4018b0:	mov    edi,edi
  4018b2:	push   ebp
  4018b3:	mov    ebp,esp
  4018b5:	sub    esp,0x38
  4018b8:	push   edx
  4018b9:	push   0x403008
  4018be:	pop    eax
  4018bf:	call   DWORD PTR cs:[eax]
  4018c2:	pop    edx
  4018c3:	push   edx
  4018c4:	push   DWORD PTR [edx+0x5f0]
  4018ca:	push   DWORD PTR [edx+0x2a4]
  4018d0:	push   DWORD PTR [edx+0x554]
  4018d6:	push   ecx
  4018d7:	call   0x401b28
  4018dc:	add    esp,0x10
  4018df:	pop    edx
  4018e0:	push   edx
  4018e1:	push   0x0
  4018e3:	push   0x403030
  4018e8:	pop    eax
  4018e9:	call   DWORD PTR cs:[eax]
  4018ec:	pop    edx
  4018ed:	sub    esp,0xffffffc8
  4018f0:	mov    ebp,DWORD PTR [esp]
  4018f3:	add    esp,0x4
  4018f6:	ret    
  4018f7:	add    BYTE PTR [eax],al
  4018f9:	add    BYTE PTR [eax],al
  4018fb:	add    BYTE PTR [ebx-0x1374aa01],cl
  401901:	sub    esp,0x24
  401904:	push   edx
  401905:	push   0x403008
  40190a:	pop    eax
  40190b:	call   DWORD PTR cs:[eax]
  40190e:	pop    edx
  40190f:	push   edx
  401910:	push   DWORD PTR [edx+0x1d0]
  401916:	push   DWORD PTR [edx+0x16c]
  40191c:	push   DWORD PTR [edx+0x5e0]
  401922:	push   eax
  401923:	call   0x401620
  401928:	add    esp,0x10
  40192b:	pop    edx
  40192c:	push   edx
  40192d:	push   0x0
  40192f:	push   0x40303c
  401934:	pop    eax
  401935:	call   DWORD PTR cs:[eax]
  401938:	pop    edx
  401939:	sub    esp,0xffffffdc
  40193c:	mov    ebp,DWORD PTR [esp]
  40193f:	add    esp,0x4
  401942:	ret    
  401943:	add    BYTE PTR [ebx-0x1374aa01],cl
  401949:	sub    esp,0x40
  40194c:	push   edx
  40194d:	push   DWORD PTR [edx+0x428]
  401953:	push   DWORD PTR [edx+0x414]
  401959:	push   edi
  40195a:	call   0x40186c
  40195f:	add    esp,0xc
  401962:	pop    edx
  401963:	push   edx
  401964:	mov    ecx,0x0
  401969:	push   ecx
  40196a:	push   0x403020
  40196f:	pop    eax
  401970:	call   DWORD PTR cs:[eax]
  401973:	pop    edx
  401974:	push   edx
  401975:	push   0x0
  401977:	push   0x40303c
  40197c:	pop    eax
  40197d:	call   DWORD PTR cs:[eax]
  401980:	pop    edx
  401981:	sub    esp,0xffffffc0
  401984:	mov    ebp,DWORD PTR [esp]
  401987:	add    esp,0x4
  40198a:	ret    
  40198b:	add    BYTE PTR [ebx-0x1374aa01],cl
  401991:	sub    esp,0x24
  401994:	push   edx
  401995:	mov    eax,0x0
  40199a:	push   eax
  40199b:	push   0x40302c
  4019a0:	pop    eax
  4019a1:	call   DWORD PTR cs:[eax]
  4019a4:	pop    edx
  4019a5:	push   edx
  4019a6:	push   DWORD PTR [edx+0x164]
  4019ac:	push   ecx
  4019ad:	push   ecx
  4019ae:	push   ecx
  4019af:	call   0x401594
  4019b4:	add    esp,0x10
  4019b7:	pop    edx
  4019b8:	push   edx
  4019b9:	push   0x0
  4019bb:	push   0x403024
  4019c0:	pop    eax
  4019c1:	call   DWORD PTR cs:[eax]
  4019c4:	pop    edx
  4019c5:	sub    esp,0xffffffdc
  4019c8:	mov    ebp,DWORD PTR [esp]
  4019cb:	add    esp,0x4
  4019ce:	ret    
  4019cf:	add    BYTE PTR [ebx-0x1374aa01],cl
  4019d5:	sub    esp,0x34
  4019d8:	push   edx
  4019d9:	push   DWORD PTR [edx+0x574]
  4019df:	push   esi
  4019e0:	push   edi
  4019e1:	push   edi
  4019e2:	call   0x4018b0
  4019e7:	add    esp,0x10
  4019ea:	pop    edx
  4019eb:	push   edx
  4019ec:	push   0x0
  4019ee:	push   0x40302c
  4019f3:	pop    eax
  4019f4:	call   DWORD PTR cs:[eax]
  4019f7:	pop    edx
  4019f8:	push   edx
  4019f9:	push   0x0
  4019fb:	push   0x403028
  401a00:	pop    eax
  401a01:	call   DWORD PTR cs:[eax]
  401a04:	pop    edx
  401a05:	sub    esp,0xffffffcc
  401a08:	mov    ebp,DWORD PTR [esp]
  401a0b:	add    esp,0x4
  401a0e:	ret    
  401a0f:	add    BYTE PTR [eax],al
  401a11:	add    BYTE PTR [eax],al
  401a13:	add    BYTE PTR [ebx-0x1374aa01],cl
  401a19:	sub    esp,0x2c
  401a1c:	push   edx
  401a1d:	push   0x0
  401a1f:	push   0x403020
  401a24:	pop    eax
  401a25:	call   DWORD PTR cs:[eax]
  401a28:	pop    edx
  401a29:	push   edx
  401a2a:	push   DWORD PTR [edx+0x52c]
  401a30:	push   ebx
  401a31:	push   DWORD PTR [edx+0x4]
  401a34:	call   0x401360
  401a39:	add    esp,0xc
  401a3c:	pop    edx
  401a3d:	push   edx
  401a3e:	lea    edx,[edx]
  401a40:	push   edx
  401a41:	push   0x403000
  401a46:	pop    eax
  401a47:	call   DWORD PTR cs:[eax]
  401a4a:	test   eax,eax
  401a4c:	jne    0x401a3e
  401a4e:	pop    edx
  401a4f:	sub    esp,0xffffffd4
  401a52:	mov    ebp,DWORD PTR [esp]
  401a55:	add    esp,0x4
  401a58:	ret    
  401a59:	add    BYTE PTR [eax],al
  401a5b:	add    BYTE PTR [ebx-0x1374aa01],cl
  401a61:	sub    esp,0x58
  401a64:	push   edx
  401a65:	push   0x0
  401a67:	push   0x40303c
  401a6c:	pop    eax
  401a6d:	call   DWORD PTR cs:[eax]
  401a70:	pop    edx
  401a71:	push   edx
  401a72:	push   ecx
  401a73:	push   ecx
  401a74:	push   edi
  401a75:	push   DWORD PTR [edx+0x3c4]
  401a7b:	call   0x40108c
  401a80:	add    esp,0x10
  401a83:	pop    edx
  401a84:	push   edx
  401a85:	push   0x0
  401a87:	push   0x40303c
  401a8c:	pop    eax
  401a8d:	call   DWORD PTR cs:[eax]
  401a90:	pop    edx
  401a91:	sub    esp,0xffffffa8
  401a94:	mov    ebp,DWORD PTR [esp]
  401a97:	add    esp,0x4
  401a9a:	ret    
  401a9b:	add    BYTE PTR [ebx-0x1374aa01],cl
  401aa1:	sub    esp,0x34
  401aa4:	push   edx
  401aa5:	push   DWORD PTR [edx+0xcc]
  401aab:	push   edi
  401aac:	call   0x401d90
  401ab1:	add    esp,0x8
  401ab4:	pop    edx
  401ab5:	push   edx
  401ab6:	push   0x0
  401ab8:	push   0x40304c
  401abd:	pop    eax
  401abe:	call   DWORD PTR cs:[eax]
  401ac1:	pop    edx
  401ac2:	push   edx
  401ac3:	push   0x0
  401ac5:	push   0x40300c
  401aca:	pop    eax
  401acb:	call   DWORD PTR cs:[eax]
  401ace:	pop    edx
  401acf:	sub    esp,0xffffffcc
  401ad2:	mov    ebp,DWORD PTR [esp]
  401ad5:	add    esp,0x4
  401ad8:	ret    
  401ad9:	add    BYTE PTR [eax],al
  401adb:	add    BYTE PTR [ebx-0x1374aa01],cl
  401ae1:	sub    esp,0x48
  401ae4:	push   edx
  401ae5:	push   0x0
  401ae7:	push   0x403030
  401aec:	pop    eax
  401aed:	call   DWORD PTR cs:[eax]
  401af0:	pop    edx
  401af1:	push   edx
  401af2:	push   DWORD PTR [edx+0xac]
  401af8:	push   DWORD PTR [edx+0x34c]
  401afe:	push   eax
  401aff:	push   edi
  401b00:	call   0x40198c
  401b05:	add    esp,0x10
  401b08:	pop    edx
  401b09:	push   edx
  401b0a:	mov    esi,0x0
  401b0f:	push   esi
  401b10:	push   0x40303c
  401b15:	pop    eax
  401b16:	call   DWORD PTR cs:[eax]
  401b19:	pop    edx
  401b1a:	sub    esp,0xffffffb8
  401b1d:	mov    ebp,DWORD PTR [esp]
  401b20:	add    esp,0x4
  401b23:	ret    
  401b24:	add    BYTE PTR [eax],al
  401b26:	add    BYTE PTR [eax],al
  401b28:	mov    edi,edi
  401b2a:	push   ebp
  401b2b:	mov    ebp,esp
  401b2d:	sub    esp,0x2c
  401b30:	push   edx
  401b31:	push   0x6b0
  401b36:	push   0x6b0
  401b3b:	mov    eax,0x40000
  401b40:	push   eax
  401b41:	push   0x403040
  401b46:	pop    edi
  401b47:	push   DWORD PTR [edi]
  401b49:	sub    DWORD PTR [esp],0x2
  401b4d:	push   0x403044
  401b52:	pop    edi
  401b53:	pop    DWORD PTR [edi]
  401b55:	push   0x403044
  401b5a:	pop    eax
  401b5b:	call   DWORD PTR cs:[eax]
  401b5e:	xchg   DWORD PTR [esp],eax
  401b61:	mov    edx,eax
  401b63:	pop    esi
  401b64:	mov    DWORD PTR [edx+0xd4],esi
  401b6a:	mov    ebx,DWORD PTR [edx+0xd4]
  401b70:	lea    ecx,[ebx]
  401b72:	sub    eax,eax
  401b74:	dec    eax
  401b75:	and    eax,0x401ec5
  401b7a:	mov    edi,DWORD PTR [eax]
  401b7c:	mov    DWORD PTR [ecx],edi
  401b7e:	add    eax,0x3
  401b81:	add    ecx,0x3
  401b84:	mov    edi,0x6a719112
  401b89:	push   0x6b0
  401b8e:	pop    esi
  401b8f:	mov    ebx,edi
  401b91:	xor    ebx,DWORD PTR [eax]
  401b93:	sub    ebx,0x1
  401b96:	mov    DWORD PTR [ecx],ebx
  401b98:	push   DWORD PTR [ecx]
  401b9a:	mov    edi,0xfffffffc
  401b9f:	sub    eax,edi
  401ba1:	sub    ecx,edi
  401ba3:	pop    edi
  401ba4:	bswap  edi
  401ba6:	sub    esi,0x4
  401ba9:	cmp    esi,0x0
  401bac:	jne    0x401b8f
  401bae:	push   edx
  401baf:	push   0x403048
  401bb4:	pop    eax
  401bb5:	call   DWORD PTR cs:[eax]
  401bb8:	pop    edx
  401bb9:	sub    esp,0xffffffd4
  401bbc:	pop    ebp
  401bbd:	ret    
  401bbe:	add    BYTE PTR [eax],al
  401bc0:	add    BYTE PTR [eax],al
  401bc2:	add    BYTE PTR [eax],al
  401bc4:	mov    edi,edi
  401bc6:	push   ebp
  401bc7:	mov    ebp,esp
  401bc9:	sub    esp,0x24
  401bcc:	push   edx
  401bcd:	mov    esi,0x0
  401bd2:	push   esi
  401bd3:	push   0x403058
  401bd8:	pop    eax
  401bd9:	call   DWORD PTR cs:[eax]
  401bdc:	pop    edx
  401bdd:	push   edx
  401bde:	push   ecx
  401bdf:	push   DWORD PTR [edx+0x44]
  401be2:	push   DWORD PTR [edx+0x520]
  401be8:	push   eax
  401be9:	call   0x401ddc
  401bee:	add    esp,0x10
  401bf1:	pop    edx
  401bf2:	push   edx
  401bf3:	mov    eax,0x0
  401bf8:	push   eax
  401bf9:	push   0x403060
  401bfe:	pop    eax
  401bff:	call   DWORD PTR cs:[eax]
  401c02:	pop    edx
  401c03:	sub    esp,0xffffffdc
  401c06:	mov    ebp,DWORD PTR [esp]
  401c09:	add    esp,0x4
  401c0c:	ret    
  401c0d:	add    BYTE PTR [eax],al
  401c0f:	add    BYTE PTR [ebx-0x1374aa01],cl
  401c15:	sub    esp,0x3c
  401c18:	push   edx
  401c19:	push   DWORD PTR [edx+0x478]
  401c1f:	push   DWORD PTR [edx+0x1b8]
  401c25:	push   DWORD PTR [edx+0x258]
  401c2b:	push   esi
  401c2c:	call   0x4013e8
  401c31:	add    esp,0x10
  401c34:	pop    edx
  401c35:	push   edx
  401c36:	push   0x0
  401c38:	push   0x403024
  401c3d:	pop    eax
  401c3e:	call   DWORD PTR cs:[eax]
  401c41:	pop    edx
  401c42:	push   edx
  401c43:	mov    eax,0x0
  401c48:	push   eax
  401c49:	push   0x40304c
  401c4e:	pop    eax
  401c4f:	call   DWORD PTR cs:[eax]
  401c52:	pop    edx
  401c53:	sub    esp,0xffffffc4
  401c56:	mov    ebp,DWORD PTR [esp]
  401c59:	add    esp,0x4
  401c5c:	ret    
  401c5d:	add    BYTE PTR [eax],al
  401c5f:	add    BYTE PTR [ebx-0x1374aa01],cl
  401c65:	sub    esp,0x2c
  401c68:	push   edx
  401c69:	push   DWORD PTR [edx+0x578]
  401c6f:	push   DWORD PTR [edx+0x538]
  401c75:	push   DWORD PTR [edx+0x270]
  401c7b:	call   0x4011dc
  401c80:	add    esp,0xc
  401c83:	pop    edx
  401c84:	push   edx
  401c85:	push   0x0
  401c87:	push   0x40303c
  401c8c:	pop    eax
  401c8d:	call   DWORD PTR cs:[eax]
  401c90:	pop    edx
  401c91:	push   edx
  401c92:	push   0x403008
  401c97:	pop    eax
  401c98:	call   DWORD PTR cs:[eax]
  401c9b:	pop    edx
  401c9c:	sub    esp,0xffffffd4
  401c9f:	mov    ebp,DWORD PTR [esp]
  401ca2:	add    esp,0x4
  401ca5:	ret    
	...
  401cae:	add    BYTE PTR [eax],al
  401cb0:	mov    edi,edi
  401cb2:	push   ebp
  401cb3:	mov    ebp,esp
  401cb5:	sub    esp,0x24
  401cb8:	push   edx
  401cb9:	mov    eax,0x0
  401cbe:	push   eax
  401cbf:	push   0x403030
  401cc4:	pop    eax
  401cc5:	call   DWORD PTR cs:[eax]
  401cc8:	pop    edx
  401cc9:	push   edx
  401cca:	push   DWORD PTR [edx+0x470]
  401cd0:	push   DWORD PTR [edx+0x1dc]
  401cd6:	push   DWORD PTR [edx+0x7c]
  401cd9:	push   eax
  401cda:	call   0x401044
  401cdf:	add    esp,0x10
  401ce2:	pop    edx
  401ce3:	push   edx
  401ce4:	mov    ebx,0x0
  401ce9:	push   ebx
  401cea:	push   0x40302c
  401cef:	pop    eax
  401cf0:	call   DWORD PTR cs:[eax]
  401cf3:	pop    edx
  401cf4:	sub    esp,0xffffffdc
  401cf7:	mov    ebp,DWORD PTR [esp]
  401cfa:	add    esp,0x4
  401cfd:	ret    
  401cfe:	add    BYTE PTR [eax],al
  401d00:	mov    edi,edi
  401d02:	push   ebp
  401d03:	mov    ebp,esp
  401d05:	sub    esp,0x50
  401d08:	push   edx
  401d09:	push   edi
  401d0a:	push   eax
  401d0b:	call   0x401814
  401d10:	add    esp,0x8
  401d13:	pop    edx
  401d14:	push   edx
  401d15:	push   0x403048
  401d1a:	pop    eax
  401d1b:	call   DWORD PTR cs:[eax]
  401d1e:	pop    edx
  401d1f:	push   edx
  401d20:	mov    ebx,0x0
  401d25:	push   ebx
  401d26:	push   0x403034
  401d2b:	pop    eax
  401d2c:	call   DWORD PTR cs:[eax]
  401d2f:	pop    edx
  401d30:	sub    esp,0xffffffb0
  401d33:	mov    ebp,DWORD PTR [esp]
  401d36:	add    esp,0x4
  401d39:	ret    
  401d3a:	add    BYTE PTR [eax],al
  401d3c:	add    BYTE PTR [eax],al
  401d3e:	add    BYTE PTR [eax],al
  401d40:	mov    edi,edi
  401d42:	push   ebp
  401d43:	mov    ebp,esp
  401d45:	sub    esp,0x28
  401d48:	push   edx
  401d49:	push   DWORD PTR [edx+0xf4]
  401d4f:	push   DWORD PTR [edx+0x1d8]
  401d55:	push   ecx
  401d56:	call   0x401a9c
  401d5b:	add    esp,0xc
  401d5e:	pop    edx
  401d5f:	push   edx
  401d60:	push   0x0
  401d62:	push   0x403034
  401d67:	pop    eax
  401d68:	call   DWORD PTR cs:[eax]
  401d6b:	pop    edx
  401d6c:	push   edx
  401d6d:	push   0x0
  401d6f:	push   0x403034
  401d74:	pop    eax
  401d75:	call   DWORD PTR cs:[eax]
  401d78:	pop    edx
  401d79:	sub    esp,0xffffffd8
  401d7c:	mov    ebp,DWORD PTR [esp]
  401d7f:	add    esp,0x4
  401d82:	ret    
	...
  401d8f:	add    BYTE PTR [ebx-0x1374aa01],cl
  401d95:	sub    esp,0x34
  401d98:	push   edx
  401d99:	push   DWORD PTR [edx+0x50c]
  401d9f:	push   DWORD PTR [edx+0x464]
  401da5:	call   0x401cb0
  401daa:	add    esp,0x8
  401dad:	pop    edx
  401dae:	push   edx
  401daf:	push   0x0
  401db1:	push   0x403080
  401db6:	pop    eax
  401db7:	call   DWORD PTR cs:[eax]
  401dba:	pop    edx
  401dbb:	push   edx
  401dbc:	push   0x0
  401dbe:	push   0x403024
  401dc3:	pop    eax
  401dc4:	call   DWORD PTR cs:[eax]
  401dc7:	pop    edx
  401dc8:	sub    esp,0xffffffcc
  401dcb:	mov    ebp,DWORD PTR [esp]
  401dce:	add    esp,0x4
  401dd1:	ret    
	...
  401dda:	add    BYTE PTR [eax],al
  401ddc:	mov    edi,edi
  401dde:	push   ebp
  401ddf:	mov    ebp,esp
  401de1:	sub    esp,0x60
  401de4:	push   edx
  401de5:	push   0x0
  401de7:	push   0x403060
  401dec:	pop    eax
  401ded:	call   DWORD PTR cs:[eax]
  401df0:	pop    edx
  401df1:	push   edx
  401df2:	push   DWORD PTR [edx+0x154]
  401df8:	push   ecx
  401df9:	call   0x401e20
  401dfe:	add    esp,0x8
  401e01:	pop    edx
  401e02:	push   edx
  401e03:	mov    edi,0x0
  401e08:	push   edi
  401e09:	push   0x403034
  401e0e:	pop    eax
  401e0f:	call   DWORD PTR cs:[eax]
  401e12:	pop    edx
  401e13:	sub    esp,0xffffffa0
  401e16:	mov    ebp,DWORD PTR [esp]
  401e19:	add    esp,0x4
  401e1c:	ret    
  401e1d:	add    BYTE PTR [eax],al
  401e1f:	add    BYTE PTR [ebx-0x1374aa01],cl
  401e25:	sub    esp,0x34
  401e28:	push   edx
  401e29:	mov    ecx,0x0
  401e2e:	push   ecx
  401e2f:	push   0x40304c
  401e34:	pop    eax
  401e35:	call   DWORD PTR cs:[eax]
  401e38:	pop    edx
  401e39:	push   edx
  401e3a:	push   DWORD PTR [edx+0x520]
  401e40:	push   DWORD PTR [edx+0x20c]
  401e46:	push   eax
  401e47:	push   edi
  401e48:	call   0x4010dc
  401e4d:	add    esp,0x10
  401e50:	pop    edx
  401e51:	push   edx
  401e52:	lea    edx,[edx]
  401e54:	push   edx
  401e55:	push   0x403000
  401e5a:	pop    eax
  401e5b:	call   DWORD PTR cs:[eax]
  401e5e:	test   eax,eax
  401e60:	jne    0x401e52
  401e62:	pop    edx
  401e63:	sub    esp,0xffffffcc
  401e66:	mov    ebp,DWORD PTR [esp]
  401e69:	add    esp,0x4
  401e6c:	ret    
  401e6d:	add    BYTE PTR [eax],al
  401e6f:	add    BYTE PTR [ebx-0x1374aa01],cl
  401e75:	sub    esp,0x44
  401e78:	push   edx
  401e79:	push   eax
  401e7a:	push   esi
  401e7b:	push   esi
  401e7c:	call   0x401224
  401e81:	add    esp,0xc
  401e84:	pop    edx
  401e85:	push   edx
  401e86:	mov    edi,0x0
  401e8b:	push   edi
  401e8c:	push   0x403058
  401e91:	pop    eax
  401e92:	call   DWORD PTR cs:[eax]
  401e95:	pop    edx
  401e96:	push   edx
  401e97:	push   0x403048
  401e9c:	pop    eax
  401e9d:	call   DWORD PTR cs:[eax]
  401ea0:	pop    edx
  401ea1:	sub    esp,0xffffffbc
  401ea4:	mov    ebp,DWORD PTR [esp]
  401ea7:	add    esp,0x4
  401eaa:	ret    
  401eab:	add    BYTE PTR [esp+ecx*1],ch
  401eae:	xchg   ecx,eax
  401eaf:	or     al,0xa2
  401eb1:	in     eax,0x21
  401eb3:	push   esp
  401eb4:	movs   DWORD PTR es:[edi],DWORD PTR ds:[esi]
  401eb5:	mov    ebx,0x8fedf56a
  401eba:	dec    edi
  401ebb:	rcr    DWORD PTR [ebx+0x626caa29],1
  401ec1:	or     al,0x55
  401ec3:	jns    0x401ed0
  401ec5:	bswap  eax
  401ec7:	std    
  401ec8:	out    dx,eax
  401ec9:	sahf   
  401eca:	mov    ecx,0xc7c70097
  401ecf:	add    DWORD PTR [eax],eax
  401ed1:	mov    edi,0xc6e30001
  401ed7:	jg     0x401f1a
  401ed9:	retf   0xa27e
  401edc:	mov    ebp,0x310580a8
  401ee1:	imul   esi,eax,0xffffffe2
  401ee4:	add    DWORD PTR ds:0x251691a3,ecx
  401eea:	gs ins BYTE PTR es:[edi],dx
  401eec:	pop    eax
  401eed:	push   edi
  401eee:	inc    eax
  401eef:	push   ss
  401ef0:	or     DWORD PTR [edx+0x32],eax
  401ef3:	imul   ecx,DWORD PTR [ecx],0xffffffff
  401ef6:	mov    edx,0xbcd552e7
  401efb:	ins    BYTE PTR es:[edi],dx
  401efc:	mov    esi,0x81d8533b
  401f01:	push   esp
  401f02:	js     0x401efb
  401f04:	pop    edx
  401f05:	call   0xf444a4fa
  401f0a:	mov    ch,0xa0
  401f0c:	jge    0x401ef2
  401f0e:	adc    BYTE PTR [eax],al
  401f10:	add    DWORD PTR [eax],edx
  401f12:	adc    al,0x1d
  401f14:	sbb    ebp,DWORD PTR [edi+0x468a0000]
  401f1a:	(bad)  
  401f1b:	adc    BYTE PTR [esi+edx*4],dl
  401f1e:	and    eax,0x60f2ae1
  401f23:	call   0x3110:0x20092406
  401f2a:	sbb    edx,DWORD PTR [edi+0x76dd5ba9]
  401f30:	ins    DWORD PTR es:[edi],dx
  401f31:	mov    DWORD PTR [eax+0x13],esp
  401f34:	xor    eax,0x2102650d
  401f39:	add    BYTE PTR [edx+eax*1],al
  401f3c:	and    eax,0x5c1d9a32
  401f41:	jbe    0x401f58
  401f43:	push   eax
  401f44:	add    BYTE PTR [edx+0x702b6291],0xc4
  401f4b:	xchg   ebx,eax
  401f4c:	adc    DWORD PTR [eax],eax
  401f4e:	add    al,ah
  401f50:	cmps   DWORD PTR ds:[esi],DWORD PTR es:[edi]
  401f51:	push   0xff6b6a00
  401f56:	push   ebp
  401f57:	push   ss
  401f58:	pushf  
  401f59:	lods   eax,DWORD PTR ds:[esi]
  401f5a:	cli    
  401f5b:	cdq    
  401f5c:	cwde   
  401f5d:	add    eax,0xb5dedbf8
  401f62:	aam    0xf9
  401f64:	stc    
  401f65:	aam    0xf
  401f67:	sub    eax,0xcffb9a7
  401f6c:	push   esi
  401f6d:	ret    
  401f6e:	call   0xc428ad00
  401f73:	stc    
  401f74:	add    al,BYTE PTR [edi-0x238cdecc]
  401f7a:	jl     0x401fd6
  401f7c:	add    eax,0x3f6f00fb
  401f81:	call   0x6ab2aa86
  401f86:	add    BYTE PTR [edi+0x6b],ch
  401f89:	call   FWORD PTR [edi]
  401f8b:	pushf  
  401f8c:	cmp    al,0x8a
  401f8e:	stos   BYTE PTR es:[edi],al
  401f8f:	sub    BYTE PTR [eax+ebx*1+0x3c6b3d97],ah
  401f96:	adc    eax,0x47cca74
  401f9b:	push   ecx
  401f9c:	push   es
  401f9d:	pop    es
  401f9e:	(bad)  [ecx+0x78]
  401fa1:	cmps   DWORD PTR ds:[esi],DWORD PTR es:[edi]
  401fa2:	add    BYTE PTR [ecx-0x364fb057],ch
  401fa8:	loope  0x401f92
  401faa:	sbb    dh,bl
  401fac:	int3   
  401fad:	cmp    al,0x8d
  401faf:	pop    es
  401fb0:	add    ebp,ebx
  401fb2:	retf   
  401fb3:	push   es
  401fb4:	push   edi
  401fb5:	test   DWORD PTR [esi+0x73],0x22581962
  401fbc:	inc    ecx
  401fbd:	dec    ecx
  401fbe:	mov    dl,0x4e
  401fc0:	ins    DWORD PTR es:[edi],dx
  401fc1:	loope  0x401fd8
  401fc3:	sbb    al,0x69
  401fc5:	xor    al,0x6a
  401fc7:	xor    al,0x0
  401fc9:	jno    0x40202b
  401fcb:	push   ebx
  401fcc:	push   ebx
  401fcd:	push   es
  401fce:	pusha  
  401fcf:	je     0x401fc6
  401fd1:	jl     0x401fd8
  401fd3:	stos   DWORD PTR es:[edi],eax
  401fd4:	aas    
  401fd5:	push   esp
  401fd6:	cmp    ebp,DWORD PTR [esi]
  401fd8:	push   ebx
  401fd9:	add    DWORD PTR [eax],ecx
  401fdb:	ds aas 
  401fdd:	push   cs
  401fde:	add    ch,BYTE PTR [esp+eax*1+0x77e1cddc]
  401fe5:	cmp    al,0x2f
  401fe7:	or     BYTE PTR [esi-0xe],bl
  401fea:	jmp    DWORD PTR [ebx-0x49a93d2c]
  401ff0:	je     0x401f80
  401ff2:	mov    bh,0x93
  401ff4:	xchg   esp,eax
  401ff5:	lods   eax,DWORD PTR cs:[esi]
  401ff7:	xor    esi,DWORD PTR [edi-0x577bc9f]
  401ffd:	sbb    esi,esi
  401fff:	dec    BYTE PTR [esi-0x29]
  402002:	test   BYTE PTR [edi+0x72a00e52],bh
  402008:	ss dec ebx
  40200a:	ret    0x8e1c
  40200d:	xchg   edi,edi
  40200f:	jnp    0x401fe4
  402011:	out    0xc4,eax
  402013:	test   DWORD PTR [ecx],eax
  402015:	(bad)  
  402016:	pop    ebx
  402017:	arpl   bx,ax
  402019:	in     al,dx
  40201a:	arpl   WORD PTR [ebp+0x76],si
  40201d:	call   0x14bb6446
  402022:	push   DWORD PTR [ebp+0x66]
  402025:	je     0x402092
  402027:	jnp    0x402031
  402029:	test   al,dl
  40202b:	inc    eax
  40202c:	fmul   QWORD PTR [edi+0x50253a9]
  402032:	test   ecx,ebx
  402034:	cmp    DWORD PTR [ebp+0x6],edx
  402037:	push   es
  402038:	push   edi
  402039:	pop    es
  40203a:	or     BYTE PTR [ebx],dh
  40203c:	ins    DWORD PTR es:[edi],dx
  40203d:	int3   
  40203e:	add    cl,BYTE PTR [eax+ebx*2]
  402041:	or     BYTE PTR [ebx-0x8],cl
  402044:	aas    
  402045:	das    
  402046:	mov    al,ds:0xc5a758ff
  40204b:	jo     0x402098
  40204d:	dec    ecx
  40204e:	mov    edx,0x29e958bd
  402053:	mov    DWORD PTR [ecx],0x1e88ae9
  402059:	xor    DWORD PTR [eax+0x186968],0x28760000
  402063:	push   esi
  402064:	ficom  DWORD PTR [ebx-0x78e6f002]
  40206a:	dec    DWORD PTR [ebx-0x220c9fff]
  402070:	add    al,0xff
  402072:	add    BYTE PTR fs:[ecx-0x75],bl
  402076:	inc    eax
  402077:	cmp    al,0x80
  402079:	add    BYTE PTR [edi+0x34146061],al
  40207f:	(bad)
  402083:	scas   eax,DWORD PTR es:[edi]
  402084:	jnp    0x40206d
  402086:	and    al,0x88
  402088:	dec    ecx
  402089:	sbb    BYTE PTR [edi-0x3477a706],al
  40208f:	shl    al,0xef
  402092:	mov    bl,BYTE PTR [eax+0x6d]
  402095:	out    dx,eax
  402096:	out    dx,eax
  402097:	cmp    DWORD PTR [esi-0x9],edx
  40209a:	inc    esi
  40209b:	imul   edi,DWORD PTR [eax+0x44],0xa1190ea1
  4020a2:	fs xchg edx,ecx
  4020a5:	xor    BYTE PTR [ecx+0x65767178],cl
  4020ab:	push   esp
  4020ac:	std    
  4020ad:	jbe    0x4020ac
  4020af:	or     BYTE PTR [ecx],al
  4020b1:	pop    edi
  4020b2:	jmp    0x7e1c:0x79bdd2b0
  4020b9:	je     0x402057
  4020bb:	mov    dh,0x3a
  4020bd:	call   0x791a5a12
  4020c2:	pop    eax
  4020c3:	add    al,0x3
  4020c5:	pop    eax
  4020c6:	js     0x4020bc
  4020c8:	mov    eax,DWORD PTR gs:[esi+eiz*1]
  4020cc:	in     al,dx
  4020cd:	add    BYTE PTR [edi+0x424010f],ch
  4020d3:	cmp    BYTE PTR [edx+0x64500424],cl
  4020d9:	(bad)  
  4020da:	out    0x14,eax
  4020dc:	in     al,dx
  4020dd:	xor    bl,al
  4020df:	inc    ebp
  4020e0:	dec    ebx
  4020e1:	mov    BYTE PTR [ebp+0xb],al
  4020e4:	xor    DWORD PTR [esi+0x7472b98b],0xf8f70373
  4020ee:	or     bh,dl
  4020f0:	mov    al,BYTE PTR [ecx-0x70916601]
  4020f6:	test   al,0x7a
  4020f8:	test   eax,0xb6c37e53
  4020fd:	adc    DWORD PTR [ebx-0x56],0x235457a9
  402104:	fisub  DWORD PTR [esi]
  402106:	adc    BYTE PTR [esi-0x9],dl
  402109:	fwait
  40210a:	mov    BYTE PTR [esi],ah
  40210c:	sub    edi,DWORD PTR [esi]
  40210e:	dec    BYTE PTR [eax]
  402110:	xlat   BYTE PTR ds:[ebx]
  402111:	or     BYTE PTR [ebx+0x4b],0x91
  402115:	fisub  DWORD PTR [edi+0x543f7f]
  40211b:	or     DWORD PTR [edi+0x7],edx
  40211e:	or     BYTE PTR [edx+ebx*8],bh
  402121:	or     dl,al
  402123:	aas    
  402124:	push   ecx
  402125:	adc    eax,0x657cd8d
  40212a:	movs   BYTE PTR es:[edi],BYTE PTR ds:[esi]
  40212b:	xchg   ebx,eax
  40212c:	pop    ebx
  40212d:	cdq    
  40212e:	or     al,dl
  402130:	mov    ch,0x9e
  402132:	add    al,0x57
  402134:	add    DWORD PTR [ecx+0xd70019b],ebp
  40213a:	inc    esp
  40213b:	add    eax,DWORD PTR [eax]
  40213d:	popa   
  40213e:	jb     0x40213b
  402140:	(bad)  
  402141:	jg     0x4021b8
  402143:	std    
  402144:	mov    dh,BYTE PTR [ebx+ebp*2+0x0]
  402148:	test   eax,0xa9f8f1c
  40214d:	hlt    
  40214e:	push   esi
  40214f:	or     eax,0xb10f0a02
  402154:	or     DWORD PTR [edi-0x29aaaaff],ebp
  40215a:	cmp    DWORD PTR [ebx-0x8],eax
  40215d:	dec    ecx
  40215e:	loop   0x4020fb
  402160:	mov    ds:0x78605cea,al
  402165:	sar    ch,1
  402167:	pop    esp
  402168:	adc    BYTE PTR [eax],ah
  40216a:	aaa    
  40216b:	ja     0x4021c3
  40216d:	cmp    edx,edx
  40216f:	mov    esi,0x590f8494
  402174:	add    al,0xa4
  402176:	add    BYTE PTR [eax],al
  402178:	add    DWORD PTR [ebx-0x495ed1ee],ecx
  40217e:	mov    eax,DWORD PTR [ebp-0x7e7bf08e]
  402184:	add    BYTE PTR [edi+ecx*1-0x7452080b],0xf8
  40218c:	cld    
  40218d:	jo     0x40218c
  40218f:	js     0x4021df
  402191:	add    BYTE PTR [edx+0x543b0351],ch
  402197:	lods   al,BYTE PTR ds:[esi]
  402198:	imul   edx,DWORD PTR [edx+ebp*2],0xf8835850
  40219f:	add    al,0x55
  4021a1:	add    BYTE PTR [edi+0x6a14693f],0x50
  4021a8:	pop    eax
  4021a9:	adc    DWORD PTR [esp],0x57811425
  4021b0:	add    BYTE PTR [esi+0x1c],dl
  4021b3:	jmp    FWORD PTR [ecx-0x859f100]
  4021b9:	jno    0x40217f
  4021bb:	add    al,0xdd
  4021bd:	add    dl,bh
  4021bf:	inc    esp
  4021c0:	ins    DWORD PTR es:[edi],dx
  4021c1:	cmp    ah,cl
  4021c3:	mov    eax,0xe54462f2
  4021c8:	int3   
  4021c9:	lods   eax,DWORD PTR ds:[esi]
  4021ca:	push   esi
  4021cb:	mov    ah,0x7d
  4021cd:	adc    eax,0xff0ea6ff
  4021d2:	and    al,0x1c
  4021d4:	sbb    al,0xe3
  4021d6:	out    dx,al
  4021d7:	pop    ecx
  4021d8:	xlat   BYTE PTR ds:[ebx]
  4021d9:	stos   BYTE PTR es:[edi],al
  4021da:	mov    BYTE PTR [ebx],0x56
  4021dd:	jbe    0x4021f3
  4021df:	jb     0x4021af
  4021e1:	cmp    BYTE PTR [edx+0x41],dl
  4021e4:	adc    DWORD PTR [eax],eax
  4021e6:	aas    
  4021e7:	mov    bl,0x6a
  4021e9:	push   ebx
  4021ea:	push   eax
  4021eb:	dec    esi
  4021ed:	cmp    BYTE PTR [eax+edi*8],al
  4021f0:	adc    DWORD PTR [eax],eax
  4021f2:	aas    
  4021f3:	mov    cl,0x84
  4021f5:	jae    0x4021f7
  4021f7:	adc    BYTE PTR [ecx],dl
  4021f9:	add    bl,bl
  4021fb:	push   ecx
  4021fc:	pop    eax
  4021fd:	add    BYTE PTR [ebp+0xc],dl
  402200:	push   edi
  402201:	or     al,0xa7
  402203:	push   esp
  402204:	ficom  WORD PTR [ecx-0x491c24d4]
  40220a:	test   eax,0x21cde36e
  40220f:	pushf  
  402210:	jae    0x4021e8
  402212:	scas   al,BYTE PTR es:[edi]
  402213:	les    ecx,FWORD PTR [edi-0x15]
  402216:	mov    edi,0xe89b497e
  40221b:	mov    eax,DWORD PTR [ecx]
  40221d:	call   0xec3f691d
  402222:	push   edx
  402223:	pop    ds
  402224:	push   ds
  402225:	mov    ecx,0xff0a17ff
  40222a:	(bad)  
  40222b:	jmp    FWORD PTR [eax+0x1e1f846]
  402231:	pop    es
  402232:	push   ecx
  402233:	adc    dh,0xe8
  402236:	add    BYTE PTR [edx+ebx*2-0x6124348c],cl
  40223d:	cmp    eax,0xe801d08b
  402242:	into   
  402243:	inc    esi
  402244:	inc    edi
  402246:	fs (bad) 
  402248:	jb     0x40228b
  40224a:	pop    ss
  40224b:	inc    ecx
  40224c:	mov    esi,0xf2bfcae8
  402251:	scas   eax,DWORD PTR es:[edi]
  402252:	ds aaa 
  402254:	rol    BYTE PTR [eax],0x54
  402257:	in     al,0x2a
  402259:	add    eax,0x808923c5
  40225e:	sar    DWORD PTR [eax-0x79],0x98
  402262:	cvtdq2ps xmm1,xmm3
  402265:	dec    esi
  402266:	sub    al,0xf2
  402268:	dec    eax
  402269:	add    DWORD PTR [eax],ebx
  40226b:	mov    al,0xbe
  40226d:	stc    
  40226e:	int3   
  40226f:	inc    eax
  402270:	or     edi,DWORD PTR [ecx-0x8123dc]
  402276:	(bad)  
  402277:	(bad)  
  402278:	out    dx,eax
  402279:	dec    eax
  40227a:	repz ret 
  40227c:	or     DWORD PTR [ebp+0xe],ebx
  40227f:	pop    es
  402280:	or     DWORD PTR [ecx-0x9149af],edi
  402286:	(bad)  
  402287:	jmp    DWORD PTR [ebp-0x857fe9]
  40228d:	jg     0x4022f1
  40228f:	sub    eax,0x3c9e9551
  402294:	xchg   ecx,eax
  402295:	mov    al,ds:0xc8a739f4
  40229a:	rcl    DWORD PTR [ecx+0x1],0x48
  40229e:	push   esp
  40229f:	mov    DWORD PTR [edx+0x1004876],ecx
  4022a5:	dec    eax
  4022a6:	jbe    0x402239
  4022a8:	xchg   edx,eax
  4022a9:	push   esp
  4022aa:	dec    eax
  4022ab:	add    BYTE PTR [ecx],al
  4022ad:	dec    eax
  4022ae:	push   esp
  4022af:	cdq    
  4022b0:	call   0x7048:0x1004870
  4022b7:	mov    eax,ds:0x4834a2
  4022bc:	add    DWORD PTR [eax+0x34],ecx
  4022bf:	test   eax,0x4870aa
  4022c4:	add    DWORD PTR [eax+0x70],ecx
  4022c7:	mov    cl,0xb2
  4022c9:	xor    al,0x48
  4022cb:	add    BYTE PTR [ecx],al
  4022cd:	dec    eax
  4022ce:	xor    al,0xb9
  4022d0:	mov    WORD PTR [ebp-0x255d3cef],?
  4022d6:	mov    esp,0x91094dc7
  4022db:	mov    al,bh
  4022dd:	adc    dh,BYTE PTR [eax+eax*1-0x74]
  4022e1:	jge    0x402337
  4022e3:	mov    al,BYTE PTR [ebp+0x42207b21]
  4022e9:	(bad)  
  4022ea:	je     0x4022eb
  4022ec:	add    DWORD PTR [ecx+0x3b],esp
  4022ef:	mov    BYTE PTR [eax-0x6b],ah
  4022f2:	pop    ebp
  4022f3:	mov    edx,DWORD PTR [edx-0x49]
  4022f6:	and    BYTE PTR [ebx-0x7724cf40],dh
  4022fc:	add    DWORD PTR [eax],edi
  4022fe:	inc    ebp
  4022ff:	mov    ecx,DWORD PTR ds:0xa9af3b00
  402305:	adc    ebx,DWORD PTR [ecx+0x5c]
  402308:	fsub   QWORD PTR [ecx-0x34b20e4d]
  40230e:	clc    
  40230f:	mov    eax,DWORD PTR [ecx]
  402311:	dec    eax
  402312:	mov    cl,0xac
  402314:	popa   
  402315:	test   eax,0x8776f8c3
  40231a:	popf   
  40231b:	and    BYTE PTR ds:0xc6e90cbd,al
  402321:	sbb    BYTE PTR [eax],al
  402323:	add    BYTE PTR [ecx],al
  402325:	mov    ebp,DWORD PTR [eax-0x73]
  402328:	jle    0x402342
  40232a:	mov    eax,DWORD PTR [eax]
  40232c:	or     eax,0xa9ae3b00
  402331:	adc    ecx,DWORD PTR [ebp+0x4102b500]
  402337:	add    eax,0x4004cedc
  40233c:	or     al,0x2e
  40233e:	stos   DWORD PTR es:[edi],eax
  40233f:	sub    bh,BYTE PTR [eax-0x6f0c5a9c]
  402345:	inc    eax
  402346:	sub    al,0x79
  402348:	movs   DWORD PTR es:[edi],DWORD PTR ds:[esi]
  402349:	dec    esp
  40234a:	shl    DWORD PTR [ebx-0x33],0x83
  40234e:	pusha  
  40234f:	ret    
  402350:	imul   esp,DWORD PTR [eax+eax*1],0xd2310120
  402357:	add    ch,BYTE PTR [ebx-0x64]
  40235a:	cmp    edi,edi
  40235c:	test   eax,0x8dd8e114
  402361:	fsub   st,st(3)
  402363:	add    BYTE PTR [eax+0x74],ah
  402366:	pop    ss
  402367:	jo     0x4023a2
  402369:	inc    edi
  40236a:	retf   
  40236b:	or     BYTE PTR [eax+0x11cc3c0],dh
  402371:	rol    BYTE PTR ds:0x4684b54b,0x54
  402378:	add    BYTE PTR [ecx-0x6a41b3ac],bh
  40237e:	mov    dh,BYTE PTR [esi-0x626a754f]
  402384:	call   0x4d24:0x351db91
  40238b:	cmc    
  40238c:	push   ecx
  40238d:	xchg   ebp,eax
  40238e:	popa   
  40238f:	ret    
  402390:	mov    ds:0xf25449ea,al
  402395:	cmps   DWORD PTR ds:[esi],DWORD PTR es:[edi]
  402396:	sbb    cl,BYTE PTR [edx-0x33861654]
  40239c:	and    al,0x0
  40239e:	xchg   dh,al
  4023a0:	std    
  4023a1:	cmps   BYTE PTR ds:[esi],BYTE PTR es:[edi]
  4023a2:	mov    ebx,DWORD PTR [eax+esi*2]
  4023a5:	add    DWORD PTR ds:0x6130d425,ebp
  4023ab:	xchg   BYTE PTR [esp+edx*1+0x50],al
  4023af:	add    cl,dh
  4023b1:	sub    DWORD PTR [esi],esp
  4023b3:	jp     0x402374
  4023b5:	push   edx
  4023b6:	cmp    al,0x46
  4023b8:	jmp    0x14424a8
  4023bd:	pop    edx
  4023be:	call   0x723c17db
  4023c3:	enter  0x5ef4,0xa0
  4023c7:	jbe    0x402444
  4023c9:	pop    ebx
  4023ca:	add    BYTE PTR [edi+0x58],ah
  4023cd:	or     BYTE PTR [edi+0x26],bl
  4023d0:	gs add al,bh
  4023d3:	retf   0x88bc
  4023d6:	icebp  
  4023d7:	sbb    eax,0xb63e6540
  4023dc:	cdq    
  4023dd:	cwde   
  4023de:	dec    ebx
  4023df:	out    0xed,al
  4023e1:	popa   
  4023e2:	dec    edx
  4023e3:	cmp    esp,DWORD PTR [ebp+0x16f8a81]
  4023e9:	push   0x741bab60
  4023ee:	or     BYTE PTR cs:0x12040743,cl
  4023f5:	daa    
  4023f6:	xchg   edx,eax
  4023f7:	cmp    eax,0x16947a50
  4023fc:	jl     0x402392
  4023fe:	jp     0x402451
  402400:	push   esp
  402401:	jp     0x402397
  402403:	jl     0x40243f
  402405:	stos   BYTE PTR es:[edi],al
  402406:	test   DWORD PTR [eax+0x2],ebp
  402409:	outs   dx,BYTE PTR ds:[esi]
  40240a:	push   ds
  40240b:	sub    ecx,DWORD PTR [edi]
  40240d:	adc    bl,BYTE PTR [ecx]
  40240f:	sbb    DWORD PTR [ebx],eax
  402411:	and    esi,DWORD PTR [esi]
  402413:	xchg   edi,eax
  402414:	test   eax,0xc9b6d758
  402419:	or     al,bh
  40241b:	add    eax,0x66cb9a05
  402420:	bound  edx,QWORD PTR [esi]
  402422:	xchg   ebp,eax
  402423:	add    DWORD PTR [eax-0x59],ebx
  402426:	push   es
  402427:	push   ebx
  402428:	add    eax,0xbf5a5f3a
  40242d:	and    DWORD PTR [edx+0x50],ebp
  402430:	add    DWORD PTR [ebx-0x45933e6],ecx
  402436:	cdq    
  402437:	add    BYTE PTR [ecx],al
  402439:	adc    ch,BYTE PTR [ebp-0x5b66a27a]
  40243f:	inc    edi
  402440:	retf   
  402441:	bound  ebx,QWORD PTR [eax-0x2c]
  402444:	repnz push edx
  402446:	jbe    0x40242b
  402448:	ret    
  402449:	call   0x1b4f2a0
  40244e:	cmps   DWORD PTR ds:[esi],DWORD PTR es:[edi]
  40244f:	call   FWORD PTR [eax-0x59]
  402452:	sub    DWORD PTR [edi],eax
  402454:	leave  
  402455:	loop   0x4023f2
  402457:	push   esp
  402458:	pop    eax
  402459:	adc    dh,BYTE PTR [esp+eiz*8]
  40245c:	ja     0x4024b3
  40245e:	sar    bh,1
  402460:	pop    esi
  402461:	lea    eax,[ebp-0x12]
  402464:	hlt    
  402465:	test   DWORD PTR [ecx-0x2fdf332c],ecx
  40246b:	ficomp WORD PTR [eax+edx*1+0x24]
  40246f:	inc    esp
  402470:	add    DWORD PTR [eax],eax
  402472:	add    BYTE PTR [eax+0x69],ch
  402475:	add    BYTE PTR [eax],al
  402477:	add    ah,al
  402479:	xor    si,si
  40247c:	xchg   ecx,eax
  40247d:	mov    DWORD PTR [ebx],ebp
  40247f:	cdq    
  402480:	cmp    eax,0xe255dce0
  402485:	adc    ah,BYTE PTR [ebp+0x640a6ee7]
  40248b:	rol    BYTE PTR [ecx],1
  40248d:	sti    
  40248e:	out    dx,eax
  40248f:	arpl   dx,dx
  402491:	adc    ebp,DWORD PTR [edi-0x1]
  402494:	mov    DWORD PTR [ebp+0x75],esi
  402497:	sub    BYTE PTR [ebp-0x13],cl
  40249a:	dec    ebx
  40249b:	and    eax,0x24523716
  4024a0:	jns    0x40243b
  4024a2:	jmp    0x40251a
  4024a4:	loop   0x4024b9
  4024a6:	dec    ebp
  4024a7:	movs   DWORD PTR es:[edi],DWORD PTR ds:[esi]
  4024a8:	xchg   ecx,eax
  4024a9:	sar    DWORD PTR [ecx+edx*4+0x554b0b6d],cl
  4024b0:	jno    0x40252c
  4024b2:	sub    esp,ebx
  4024b4:	ret    
  4024b5:	sub    eax,DWORD PTR [ecx]
  4024b7:	mov    dh,0x21
  4024b9:	call   FWORD PTR [ecx-0x6bdbb010]
  4024bf:	mov    BYTE PTR [edi+0x0],ch
  4024c2:	jge    0x40245f
  4024c4:	adc    DWORD PTR [eax],eax
  4024c6:	aas    
  4024c7:	outs   dx,BYTE PTR ds:[esi]
  4024c8:	imul   ebp,DWORD PTR [eax-0x5a63efab],0x7e
  4024cf:	in     al,dx
  4024d0:	jmp    0x8ccc1555
  4024d5:	cld    
  4024d6:	imul   eax,DWORD PTR [eax],0xdcfc6806
  4024dc:	add    edi,edi
  4024de:	push   ebp
  4024df:	and    DWORD PTR [ebx+0x55],ecx
  4024e2:	xchg   edi,eax
  4024e3:	rol    DWORD PTR [ecx+0x6e000068],cl
  4024e9:	push   0x0
  4024eb:	push   0x68
  4024ed:	push   0x8001036a
  4024f2:	aas    
  4024f3:	(bad)  
  4024f4:	test   eax,0xc1c40173
  4024f9:	and    BYTE PTR [edx*2-0x4a66f3c],0x2e
  402501:	mov    ds:0x5ec06144,eax
  402506:	(bad)  
  402507:	aam    0x4a
  402509:	jno    0x40253d
  40250b:	into   
  40250c:	bound  esp,QWORD PTR [ebp+0x76]
  40250f:	aam    0x1e
  402511:	sbb    edx,DWORD PTR [ecx-0x7c]
  402514:	sub    ebp,DWORD PTR [ebp+0x52]
  402517:	pop    edi
  402518:	lds    edx,FWORD PTR [edx+0x27b3bc5d]
  40251e:	dec    esi
  40251f:	xchg   DWORD PTR [ecx+0x6e],ecx
  402522:	mov    eax,0xadfbd425
  402527:	jns    0x4024de
  402529:	xchg   ebx,eax
  40252a:	adc    DWORD PTR [esi],esi
  40252c:	sub    al,0x8f
  40252e:	xchg   edx,eax
  40252f:	lea    esi,[eax-0x5c713a9c]
  402535:	cmp    ch,dh
  402537:	aas    
  402538:	adc    al,0xa6
  40253a:	movs   DWORD PTR es:[edi],DWORD PTR ds:[esi]
  40253b:	cmps   BYTE PTR ds:[esi],BYTE PTR es:[edi]
  40253c:	lea    esp,[edi-0x3ad51cf8]
  402542:	add    al,0xd7
  402544:	jnp    0x402503
  402546:	push   ds
  402547:	clc    
  402548:	xchg   DWORD PTR [ebx+0x12602],edx
  40254e:	add    BYTE PTR [edi+0x1],dh
  402554:	add    DWORD PTR [eax],eax
  402556:	add    BYTE PTR [eax],al
  402558:	add    DWORD PTR [eax],eax
  40255a:	add    BYTE PTR [eax],al
  40255c:	add    DWORD PTR [eax],eax
  40255e:	add    BYTE PTR [eax],al
  402560:	add    DWORD PTR [eax],eax
  402562:	add    BYTE PTR [eax],al
  402564:	add    DWORD PTR [edx+0x72],ebp
  402567:	add    BYTE PTR [ecx],al
  402569:	jb     0x4025b5
  40256b:	add    eax,0x42004
  402570:	add    DWORD PTR [edi+0x7b27347b],eax
  402576:	add    DWORD PTR [eax],0x44
  402579:	xchg   ah,al
  40257b:	lds    esi,FWORD PTR [ecx+ecx*1-0x1b6c5cd]
  402582:	mov    eax,0x624ec8ec
  402587:	pop    ss
  402588:	adc    al,0x70
  40258a:	add    bh,ch
  40258c:	popf   
  40258d:	mov    cs,WORD PTR [edx]
  40258f:	stc    
  402590:	mov    al,0x63
  402592:	cli    
  402593:	in     eax,dx
  402594:	push   es
  402595:	adc    BYTE PTR [edi],bl
  402597:	mov    eax,ds:0xaa163dec
