
b8d519e06018f5920e7417f8c65040bacf1c3addcf399fa32db23cca519a74ef.exe:     file format pei-i386


Disassembly of section .text:

00401000 <.text>:
  401000:	mov    edi,edi
  401002:	push   ebp
  401003:	mov    ebp,esp
  401005:	sub    esp,0x40
  401008:	push   edx
  401009:	push   0x403008
  40100e:	pop    eax
  40100f:	call   DWORD PTR cs:[eax]
  401012:	pop    edx
  401013:	push   edx
  401014:	push   edi
  401015:	push   ebx
  401016:	call   0x401b3c
  40101b:	add    esp,0x8
  40101e:	pop    edx
  40101f:	push   edx
  401020:	mov    edi,0x0
  401025:	push   edi
  401026:	push   0x403034
  40102b:	pop    eax
  40102c:	call   DWORD PTR cs:[eax]
  40102f:	pop    edx
  401030:	sub    esp,0xffffffc0
  401033:	mov    ebp,DWORD PTR [esp]
  401036:	add    esp,0x4
  401039:	ret    
	...
  401046:	add    BYTE PTR [eax],al
  401048:	mov    edi,edi
  40104a:	push   ebp
  40104b:	mov    ebp,esp
  40104d:	sub    esp,0x58
  401050:	push   edx
  401051:	mov    ecx,0x0
  401056:	push   ecx
  401057:	push   0x403000
  40105c:	pop    eax
  40105d:	call   DWORD PTR cs:[eax]
  401060:	pop    edx
  401061:	push   edx
  401062:	push   DWORD PTR [edx+0x80]
  401068:	push   DWORD PTR [edx+0x180]
  40106e:	push   ecx
  40106f:	call   0x401ce4
  401074:	add    esp,0xc
  401077:	pop    edx
  401078:	push   edx
  401079:	push   0x0
  40107b:	push   0x403064
  401080:	pop    eax
  401081:	call   DWORD PTR cs:[eax]
  401084:	pop    edx
  401085:	sub    esp,0xffffffa8
  401088:	mov    ebp,DWORD PTR [esp]
  40108b:	add    esp,0x4
  40108e:	ret    
  40108f:	add    BYTE PTR [edi],cl
  401091:	xchg   DWORD PTR [edx],eax
  401093:	add    BYTE PTR [eax],al
  401095:	add    BYTE PTR [eax],al
  401097:	add    BYTE PTR [ebx-0x74aa9f01],cl
  40109d:	in     al,dx
  40109e:	sub    esp,0x5c
  4010a1:	push   edx
  4010a2:	push   0x0
  4010a4:	push   0x403024
  4010a9:	pop    eax
  4010aa:	call   DWORD PTR cs:[eax]
  4010ad:	pop    edx
  4010ae:	test   eax,eax
  4010b0:	je     0x4010b3
  4010b2:	ret    
  4010b3:	push   edx
  4010b4:	push   0x0
  4010b6:	push   0x403024
  4010bb:	pop    eax
  4010bc:	call   DWORD PTR cs:[eax]
  4010bf:	pop    edx
  4010c0:	push   edx
  4010c1:	push   ebx
  4010c2:	push   esi
  4010c3:	call   0x401a18
  4010c8:	add    esp,0x8
  4010cb:	pop    edx
  4010cc:	mov    esi,0x40301c
  4010d1:	mov    esi,DWORD PTR [esi]
  4010d3:	push   esi
  4010d4:	push   DWORD PTR [edx+0x1d4]
  4010da:	pop    esi
  4010db:	call   esi
  4010dd:	sub    esp,0xffffffa4
  4010e0:	mov    ebp,DWORD PTR [esp]
  4010e3:	add    esp,0x4
  4010e6:	ret    
  4010e7:	add    BYTE PTR [eax],al
  4010e9:	add    BYTE PTR [eax],al
  4010eb:	add    BYTE PTR [ebx-0x1374aa01],cl
  4010f1:	sub    esp,0x5c
  4010f4:	push   edx
  4010f5:	push   edi
  4010f6:	push   DWORD PTR [edx+0x218]
  4010fc:	call   0x401a54
  401101:	add    esp,0x8
  401104:	pop    edx
  401105:	push   edx
  401106:	mov    ecx,0x0
  40110b:	push   ecx
  40110c:	push   0x403024
  401111:	pop    eax
  401112:	call   DWORD PTR cs:[eax]
  401115:	pop    edx
  401116:	push   edx
  401117:	push   0x40303c
  40111c:	pop    eax
  40111d:	call   DWORD PTR cs:[eax]
  401120:	pop    edx
  401121:	sub    esp,0xffffffa4
  401124:	mov    ebp,DWORD PTR [esp]
  401127:	add    esp,0x4
  40112a:	ret    
  40112b:	add    BYTE PTR [ebx-0x1374aa01],cl
  401131:	sub    esp,0x5c
  401134:	push   edx
  401135:	push   0x0
  401137:	push   0x403034
  40113c:	pop    eax
  40113d:	call   DWORD PTR cs:[eax]
  401140:	pop    edx
  401141:	push   edx
  401142:	push   ebx
  401143:	push   DWORD PTR [edx+0xf4]
  401149:	push   edi
  40114a:	call   0x401af4
  40114f:	add    esp,0xc
  401152:	pop    edx
  401153:	push   edx
  401154:	push   0x40303c
  401159:	pop    eax
  40115a:	call   DWORD PTR cs:[eax]
  40115d:	pop    edx
  40115e:	sub    esp,0xffffffa4
  401161:	mov    ebp,DWORD PTR [esp]
  401164:	add    esp,0x4
  401167:	ret    
  401168:	mov    edi,edi
  40116a:	push   ebp
  40116b:	mov    ebp,esp
  40116d:	sub    esp,0x54
  401170:	push   edx
  401171:	push   DWORD PTR [edx+0x12c]
  401177:	push   ebx
  401178:	call   0x401a9c
  40117d:	add    esp,0x8
  401180:	pop    edx
  401181:	push   edx
  401182:	mov    ebx,0x0
  401187:	push   ebx
  401188:	push   0x403078
  40118d:	pop    eax
  40118e:	call   DWORD PTR cs:[eax]
  401191:	pop    edx
  401192:	push   edx
  401193:	mov    esi,0x0
  401198:	push   esi
  401199:	push   0x403030
  40119e:	pop    eax
  40119f:	call   DWORD PTR cs:[eax]
  4011a2:	pop    edx
  4011a3:	sub    esp,0xffffffac
  4011a6:	mov    ebp,DWORD PTR [esp]
  4011a9:	add    esp,0x4
  4011ac:	ret    
  4011ad:	add    BYTE PTR [eax],al
  4011af:	add    BYTE PTR [eax],al
  4011b1:	add    BYTE PTR [eax],al
  4011b3:	add    BYTE PTR [ebx-0x1374aa01],cl
  4011b9:	sub    esp,0x30
  4011bc:	push   edx
  4011bd:	push   0x0
  4011bf:	push   0x40300c
  4011c4:	pop    eax
  4011c5:	call   DWORD PTR cs:[eax]
  4011c8:	pop    edx
  4011c9:	push   edx
  4011ca:	push   esi
  4011cb:	push   DWORD PTR [edx+0x10]
  4011ce:	call   0x401048
  4011d3:	add    esp,0x8
  4011d6:	pop    edx
  4011d7:	push   edx
  4011d8:	mov    edi,0x0
  4011dd:	push   edi
  4011de:	push   0x403000
  4011e3:	pop    eax
  4011e4:	call   DWORD PTR cs:[eax]
  4011e7:	pop    edx
  4011e8:	sub    esp,0xffffffd0
  4011eb:	mov    ebp,DWORD PTR [esp]
  4011ee:	add    esp,0x4
  4011f1:	ret    
  4011f2:	add    BYTE PTR [eax],al
  4011f4:	add    BYTE PTR [eax],al
  4011f6:	add    BYTE PTR [eax],al
  4011f8:	mov    edi,edi
  4011fa:	push   ebp
  4011fb:	mov    ebp,esp
  4011fd:	sub    esp,0x24
  401200:	push   edx
  401201:	push   0x6b0
  401206:	push   0x6b0
  40120b:	push   0x40000
  401210:	push   0x403004
  401215:	pop    eax
  401216:	push   DWORD PTR [eax]
  401218:	sub    DWORD PTR [esp],0x2
  40121c:	push   0x403044
  401221:	pop    eax
  401222:	pop    DWORD PTR [eax]
  401224:	push   0x403044
  401229:	pop    eax
  40122a:	call   DWORD PTR cs:[eax]
  40122d:	xchg   DWORD PTR [esp],eax
  401230:	mov    edx,eax
  401232:	pop    ebx
  401233:	mov    DWORD PTR [edx+0x1d4],ebx
  401239:	mov    eax,DWORD PTR [edx+0x1d4]
  40123f:	lea    eax,[eax]
  401241:	sub    ebx,ebx
  401243:	dec    ebx
  401244:	and    ebx,0x401e69
  40124a:	mov    edi,DWORD PTR [ebx]
  40124c:	mov    DWORD PTR [eax],edi
  40124e:	add    ebx,0x3
  401251:	add    eax,0x3
  401254:	mov    edi,0x6a719112
  401259:	xor    ecx,ecx
  40125b:	add    ecx,0x6b0
  401261:	test   ecx,ecx
  401263:	je     0x401281
  401265:	add    ecx,0xfffffffc
  401268:	mov    esi,edi
  40126a:	xor    esi,DWORD PTR [ebx]
  40126c:	sub    esi,0x1
  40126f:	mov    DWORD PTR [eax],esi
  401271:	push   DWORD PTR [eax]
  401273:	mov    edi,0xfffffffc
  401278:	sub    ebx,edi
  40127a:	sub    eax,edi
  40127c:	pop    edi
  40127d:	bswap  edi
  40127f:	jmp    0x401261
  401281:	push   edx
  401282:	push   0x403008
  401287:	pop    eax
  401288:	call   DWORD PTR cs:[eax]
  40128b:	pop    edx
  40128c:	sub    esp,0xffffffdc
  40128f:	pop    ebp
  401290:	ret    
	...
  4012a5:	add    BYTE PTR [eax],al
  4012a7:	add    BYTE PTR [ebx-0x1374aa01],cl
  4012ad:	sub    esp,0x4c
  4012b0:	push   edx
  4012b1:	push   0x0
  4012b3:	push   0x403038
  4012b8:	pop    eax
  4012b9:	call   DWORD PTR cs:[eax]
  4012bc:	pop    edx
  4012bd:	push   edx
  4012be:	push   DWORD PTR [edx+0x414]
  4012c4:	push   DWORD PTR [edx+0x4c]
  4012c7:	call   0x4018bc
  4012cc:	add    esp,0x8
  4012cf:	pop    edx
  4012d0:	push   edx
  4012d1:	mov    ecx,0x0
  4012d6:	push   ecx
  4012d7:	push   0x403018
  4012dc:	pop    eax
  4012dd:	call   DWORD PTR cs:[eax]
  4012e0:	pop    edx
  4012e1:	sub    esp,0xffffffb4
  4012e4:	mov    ebp,DWORD PTR [esp]
  4012e7:	add    esp,0x4
  4012ea:	ret    
  4012eb:	add    BYTE PTR [ebx-0x1374aa01],cl
  4012f1:	sub    esp,0x38
  4012f4:	push   edx
  4012f5:	lea    edi,[edx]
  4012f7:	push   edi
  4012f8:	push   0x40301c
  4012fd:	pop    eax
  4012fe:	call   DWORD PTR cs:[eax]
  401301:	test   eax,eax
  401303:	jne    0x4012f5
  401305:	pop    edx
  401306:	push   edx
  401307:	push   ebx
  401308:	push   DWORD PTR [edx+0x254]
  40130e:	call   0x401168
  401313:	add    esp,0x8
  401316:	pop    edx
  401317:	push   edx
  401318:	push   0x0
  40131a:	push   0x403024
  40131f:	pop    eax
  401320:	call   DWORD PTR cs:[eax]
  401323:	pop    edx
  401324:	sub    esp,0xffffffc8
  401327:	mov    ebp,DWORD PTR [esp]
  40132a:	add    esp,0x4
  40132d:	ret    
  40132e:	add    BYTE PTR [eax],al
  401330:	mov    edi,edi
  401332:	push   ebp
  401333:	mov    ebp,esp
  401335:	sub    esp,0x3c
  401338:	push   edx
  401339:	push   0x40303c
  40133e:	pop    eax
  40133f:	call   DWORD PTR cs:[eax]
  401342:	pop    edx
  401343:	push   edx
  401344:	push   edi
  401345:	push   ebx
  401346:	push   ebx
  401347:	push   DWORD PTR [edx+0x434]
  40134d:	call   0x401610
  401352:	add    esp,0x10
  401355:	pop    edx
  401356:	push   edx
  401357:	push   0x40303c
  40135c:	pop    eax
  40135d:	call   DWORD PTR cs:[eax]
  401360:	pop    edx
  401361:	sub    esp,0xffffffc4
  401364:	mov    ebp,DWORD PTR [esp]
  401367:	add    esp,0x4
  40136a:	ret    
  40136b:	add    BYTE PTR [eax],al
  40136d:	add    BYTE PTR [eax],al
  40136f:	add    BYTE PTR [ebx-0x1374aa01],cl
  401375:	sub    esp,0x20
  401378:	push   edx
  401379:	push   DWORD PTR [edx+0x460]
  40137f:	push   DWORD PTR [edx+0x5c4]
  401385:	call   0x4011f8
  40138a:	add    esp,0x8
  40138d:	pop    edx
  40138e:	push   edx
  40138f:	push   0x0
  401391:	push   0x403018
  401396:	pop    eax
  401397:	call   DWORD PTR cs:[eax]
  40139a:	pop    edx
  40139b:	push   edx
  40139c:	mov    ecx,0x0
  4013a1:	push   ecx
  4013a2:	push   0x40306c
  4013a7:	pop    eax
  4013a8:	call   DWORD PTR cs:[eax]
  4013ab:	pop    edx
  4013ac:	sub    esp,0xffffffe0
  4013af:	mov    ebp,DWORD PTR [esp]
  4013b2:	add    esp,0x4
  4013b5:	ret    
  4013b6:	add    BYTE PTR [eax],al
  4013b8:	add    BYTE PTR [eax],al
  4013ba:	add    BYTE PTR [eax],al
  4013bc:	mov    edi,edi
  4013be:	push   ebp
  4013bf:	mov    ebp,esp
  4013c1:	sub    esp,0x4c
  4013c4:	push   edx
  4013c5:	push   ecx
  4013c6:	push   edi
  4013c7:	call   0x4018fc
  4013cc:	add    esp,0x8
  4013cf:	pop    edx
  4013d0:	push   edx
  4013d1:	lea    edx,[edx]
  4013d3:	push   edx
  4013d4:	push   0x40301c
  4013d9:	pop    eax
  4013da:	call   DWORD PTR cs:[eax]
  4013dd:	test   eax,eax
  4013df:	jne    0x4013d1
  4013e1:	pop    edx
  4013e2:	push   edx
  4013e3:	lea    esi,[edx]
  4013e5:	push   esi
  4013e6:	push   0x40301c
  4013eb:	pop    eax
  4013ec:	call   DWORD PTR cs:[eax]
  4013ef:	test   eax,eax
  4013f1:	jne    0x4013e3
  4013f3:	pop    edx
  4013f4:	sub    esp,0xffffffb4
  4013f7:	mov    ebp,DWORD PTR [esp]
  4013fa:	add    esp,0x4
  4013fd:	ret    
  4013fe:	add    BYTE PTR [eax],al
  401400:	mov    edi,edi
  401402:	push   ebp
  401403:	mov    ebp,esp
  401405:	sub    esp,0x20
  401408:	push   edx
  401409:	push   ecx
  40140a:	push   ebx
  40140b:	call   0x401988
  401410:	add    esp,0x8
  401413:	pop    edx
  401414:	push   edx
  401415:	lea    esi,[edx]
  401417:	push   esi
  401418:	push   0x40301c
  40141d:	pop    eax
  40141e:	call   DWORD PTR cs:[eax]
  401421:	test   eax,eax
  401423:	jne    0x401415
  401425:	pop    edx
  401426:	push   edx
  401427:	lea    esi,[edx]
  401429:	push   esi
  40142a:	push   0x40301c
  40142f:	pop    eax
  401430:	call   DWORD PTR cs:[eax]
  401433:	test   eax,eax
  401435:	jne    0x401427
  401437:	pop    edx
  401438:	sub    esp,0xffffffe0
  40143b:	mov    ebp,DWORD PTR [esp]
  40143e:	add    esp,0x4
  401441:	ret    
  401442:	add    BYTE PTR [eax],al
  401444:	mov    edi,edi
  401446:	push   ebp
  401447:	mov    ebp,esp
  401449:	sub    esp,0x58
  40144c:	push   edx
  40144d:	push   edi
  40144e:	push   DWORD PTR [edx+0x5ec]
  401454:	call   0x401654
  401459:	add    esp,0x8
  40145c:	pop    edx
  40145d:	push   edx
  40145e:	push   0x403008
  401463:	pop    eax
  401464:	call   DWORD PTR cs:[eax]
  401467:	pop    edx
  401468:	push   edx
  401469:	push   0x0
  40146b:	push   0x40306c
  401470:	pop    eax
  401471:	call   DWORD PTR cs:[eax]
  401474:	pop    edx
  401475:	sub    esp,0xffffffa8
  401478:	mov    ebp,DWORD PTR [esp]
  40147b:	add    esp,0x4
  40147e:	ret    
  40147f:	add    BYTE PTR [eax],al
  401481:	add    BYTE PTR [eax],al
  401483:	add    BYTE PTR [edx+0x0],ch
  401486:	add    DWORD PTR [esp],0x47d000
  40148d:	push   DWORD PTR ds:0x40309c
  401493:	pop    eax
  401494:	xor    ax,ax
  401497:	adc    eax,DWORD PTR [eax+0x3c]
  40149a:	cmp    BYTE PTR [eax+0x1d],0x80
  40149e:	jb     0x4014a6
  4014a0:	pop    edx
  4014a1:	jmp    0x401090
  4014a6:	xor    esp,esp
  4014a8:	int    0x3
	...
  4014b6:	add    BYTE PTR [eax],al
  4014b8:	mov    edi,edi
  4014ba:	push   ebp
  4014bb:	mov    ebp,esp
  4014bd:	sub    esp,0x38
  4014c0:	push   edx
  4014c1:	push   0x0
  4014c3:	push   0x403024
  4014c8:	pop    eax
  4014c9:	call   DWORD PTR cs:[eax]
  4014cc:	pop    edx
  4014cd:	push   edx
  4014ce:	push   DWORD PTR [edx+0x468]
  4014d4:	push   eax
  4014d5:	push   DWORD PTR [edx+0x40c]
  4014db:	push   esi
  4014dc:	call   0x401c18
  4014e1:	add    esp,0x10
  4014e4:	pop    edx
  4014e5:	push   edx
  4014e6:	push   0x0
  4014e8:	push   0x403020
  4014ed:	pop    eax
  4014ee:	call   DWORD PTR cs:[eax]
  4014f1:	pop    edx
  4014f2:	sub    esp,0xffffffc8
  4014f5:	mov    ebp,DWORD PTR [esp]
  4014f8:	add    esp,0x4
  4014fb:	ret    
  4014fc:	add    BYTE PTR [eax],al
  4014fe:	add    BYTE PTR [eax],al
  401500:	mov    edi,edi
  401502:	push   ebp
  401503:	mov    ebp,esp
  401505:	sub    esp,0x30
  401508:	push   edx
  401509:	push   ebx
  40150a:	push   DWORD PTR [edx+0x474]
  401510:	push   edi
  401511:	push   DWORD PTR [edx+0x3cc]
  401517:	call   0x401544
  40151c:	add    esp,0x10
  40151f:	pop    edx
  401520:	push   edx
  401521:	push   0x0
  401523:	push   0x403038
  401528:	pop    eax
  401529:	call   DWORD PTR cs:[eax]
  40152c:	pop    edx
  40152d:	push   edx
  40152e:	push   0x0
  401530:	push   0x403038
  401535:	pop    eax
  401536:	call   DWORD PTR cs:[eax]
  401539:	pop    edx
  40153a:	sub    esp,0xffffffd0
  40153d:	mov    ebp,DWORD PTR [esp]
  401540:	add    esp,0x4
  401543:	ret    
  401544:	mov    edi,edi
  401546:	push   ebp
  401547:	mov    ebp,esp
  401549:	sub    esp,0x60
  40154c:	push   edx
  40154d:	mov    eax,0x0
  401552:	push   eax
  401553:	push   0x403030
  401558:	pop    eax
  401559:	call   DWORD PTR cs:[eax]
  40155c:	pop    edx
  40155d:	push   edx
  40155e:	push   esi
  40155f:	push   DWORD PTR [edx+0x260]
  401565:	push   DWORD PTR [edx+0x574]
  40156b:	call   0x401000
  401570:	add    esp,0xc
  401573:	pop    edx
  401574:	push   edx
  401575:	lea    edx,[edx]
  401577:	push   edx
  401578:	push   0x40301c
  40157d:	pop    eax
  40157e:	call   DWORD PTR cs:[eax]
  401581:	test   eax,eax
  401583:	jne    0x401575
  401585:	pop    edx
  401586:	sub    esp,0xffffffa0
  401589:	mov    ebp,DWORD PTR [esp]
  40158c:	add    esp,0x4
  40158f:	ret    
  401590:	add    BYTE PTR [eax],al
  401592:	add    BYTE PTR [eax],al
  401594:	mov    edi,edi
  401596:	push   ebp
  401597:	mov    ebp,esp
  401599:	sub    esp,0x24
  40159c:	push   edx
  40159d:	push   DWORD PTR [edx+0x5a0]
  4015a3:	push   DWORD PTR [edx+0x24]
  4015a6:	push   eax
  4015a7:	call   0x4011b4
  4015ac:	add    esp,0xc
  4015af:	pop    edx
  4015b0:	push   edx
  4015b1:	push   0x0
  4015b3:	push   0x40300c
  4015b8:	pop    eax
  4015b9:	call   DWORD PTR cs:[eax]
  4015bc:	pop    edx
  4015bd:	push   edx
  4015be:	push   0x0
  4015c0:	push   0x403038
  4015c5:	pop    eax
  4015c6:	call   DWORD PTR cs:[eax]
  4015c9:	pop    edx
  4015ca:	sub    esp,0xffffffdc
  4015cd:	mov    ebp,DWORD PTR [esp]
  4015d0:	add    esp,0x4
  4015d3:	ret    
  4015d4:	mov    edi,edi
  4015d6:	push   ebp
  4015d7:	mov    ebp,esp
  4015d9:	sub    esp,0x34
  4015dc:	push   edx
  4015dd:	push   esi
  4015de:	push   edi
  4015df:	push   esi
  4015e0:	call   0x401d78
  4015e5:	add    esp,0xc
  4015e8:	pop    edx
  4015e9:	push   edx
  4015ea:	mov    edi,0x0
  4015ef:	push   edi
  4015f0:	push   0x403020
  4015f5:	pop    eax
  4015f6:	call   DWORD PTR cs:[eax]
  4015f9:	pop    edx
  4015fa:	push   edx
  4015fb:	push   0x403008
  401600:	pop    eax
  401601:	call   DWORD PTR cs:[eax]
  401604:	pop    edx
  401605:	sub    esp,0xffffffcc
  401608:	mov    ebp,DWORD PTR [esp]
  40160b:	add    esp,0x4
  40160e:	ret    
  40160f:	add    BYTE PTR [ebx-0x1374aa01],cl
  401615:	sub    esp,0x40
  401618:	push   edx
  401619:	mov    esi,0x0
  40161e:	push   esi
  40161f:	push   0x403038
  401624:	pop    eax
  401625:	call   DWORD PTR cs:[eax]
  401628:	pop    edx
  401629:	push   edx
  40162a:	push   esi
  40162b:	push   eax
  40162c:	push   DWORD PTR [edx+0xf4]
  401632:	call   0x401740
  401637:	add    esp,0xc
  40163a:	pop    edx
  40163b:	push   edx
  40163c:	push   0x0
  40163e:	push   0x40300c
  401643:	pop    eax
  401644:	call   DWORD PTR cs:[eax]
  401647:	pop    edx
  401648:	sub    esp,0xffffffc0
  40164b:	mov    ebp,DWORD PTR [esp]
  40164e:	add    esp,0x4
  401651:	ret    
  401652:	add    BYTE PTR [eax],al
  401654:	mov    edi,edi
  401656:	push   ebp
  401657:	mov    ebp,esp
  401659:	sub    esp,0x24
  40165c:	push   edx
  40165d:	mov    edx,0x0
  401662:	push   edx
  401663:	push   0x40306c
  401668:	pop    eax
  401669:	call   DWORD PTR cs:[eax]
  40166c:	pop    edx
  40166d:	push   edx
  40166e:	push   DWORD PTR [edx+0x594]
  401674:	push   DWORD PTR [edx+0x378]
  40167a:	push   DWORD PTR [edx+0x154]
  401680:	call   0x401ca4
  401685:	add    esp,0xc
  401688:	pop    edx
  401689:	push   edx
  40168a:	mov    edx,0x0
  40168f:	push   edx
  401690:	push   0x403020
  401695:	pop    eax
  401696:	call   DWORD PTR cs:[eax]
  401699:	pop    edx
  40169a:	sub    esp,0xffffffdc
  40169d:	mov    ebp,DWORD PTR [esp]
  4016a0:	add    esp,0x4
  4016a3:	ret    
	...
  4016b0:	mov    edi,edi
  4016b2:	push   ebp
  4016b3:	mov    ebp,esp
  4016b5:	sub    esp,0x3c
  4016b8:	push   edx
  4016b9:	push   0x0
  4016bb:	push   0x403078
  4016c0:	pop    eax
  4016c1:	call   DWORD PTR cs:[eax]
  4016c4:	pop    edx
  4016c5:	push   edx
  4016c6:	push   DWORD PTR [edx+0xf0]
  4016cc:	push   DWORD PTR [edx+0x250]
  4016d2:	push   edi
  4016d3:	call   0x401bcc
  4016d8:	add    esp,0xc
  4016db:	pop    edx
  4016dc:	push   edx
  4016dd:	mov    ebx,0x0
  4016e2:	push   ebx
  4016e3:	push   0x403024
  4016e8:	pop    eax
  4016e9:	call   DWORD PTR cs:[eax]
  4016ec:	pop    edx
  4016ed:	sub    esp,0xffffffc4
  4016f0:	mov    ebp,DWORD PTR [esp]
  4016f3:	add    esp,0x4
  4016f6:	ret    
  4016f7:	add    BYTE PTR [ebx-0x1374aa01],cl
  4016fd:	sub    esp,0x3c
  401700:	push   edx
  401701:	push   0x0
  401703:	push   0x403018
  401708:	pop    eax
  401709:	call   DWORD PTR cs:[eax]
  40170c:	pop    edx
  40170d:	push   edx
  40170e:	push   DWORD PTR [edx+0x57c]
  401714:	push   eax
  401715:	push   DWORD PTR [edx+0x164]
  40171b:	push   eax
  40171c:	call   0x401db8
  401721:	add    esp,0x10
  401724:	pop    edx
  401725:	push   edx
  401726:	push   0x0
  401728:	push   0x403024
  40172d:	pop    eax
  40172e:	call   DWORD PTR cs:[eax]
  401731:	pop    edx
  401732:	sub    esp,0xffffffc4
  401735:	mov    ebp,DWORD PTR [esp]
  401738:	add    esp,0x4
  40173b:	ret    
  40173c:	add    BYTE PTR [eax],al
  40173e:	add    BYTE PTR [eax],al
  401740:	mov    edi,edi
  401742:	push   ebp
  401743:	mov    ebp,esp
  401745:	sub    esp,0x38
  401748:	push   edx
  401749:	push   DWORD PTR [edx+0x24c]
  40174f:	push   eax
  401750:	push   DWORD PTR [edx+0x428]
  401756:	push   ecx
  401757:	call   0x401400
  40175c:	add    esp,0x10
  40175f:	pop    edx
  401760:	push   edx
  401761:	push   0x0
  401763:	push   0x403000
  401768:	pop    eax
  401769:	call   DWORD PTR cs:[eax]
  40176c:	pop    edx
  40176d:	push   edx
  40176e:	mov    edx,0x0
  401773:	push   edx
  401774:	push   0x403038
  401779:	pop    eax
  40177a:	call   DWORD PTR cs:[eax]
  40177d:	pop    edx
  40177e:	sub    esp,0xffffffc8
  401781:	mov    ebp,DWORD PTR [esp]
  401784:	add    esp,0x4
  401787:	ret    
	...
  401790:	mov    edi,edi
  401792:	push   ebp
  401793:	mov    ebp,esp
  401795:	sub    esp,0x20
  401798:	push   edx
  401799:	push   DWORD PTR [edx+0x230]
  40179f:	push   eax
  4017a0:	push   edi
  4017a1:	call   0x4013bc
  4017a6:	add    esp,0xc
  4017a9:	pop    edx
  4017aa:	push   edx
  4017ab:	mov    esi,0x0
  4017b0:	push   esi
  4017b1:	push   0x403064
  4017b6:	pop    eax
  4017b7:	call   DWORD PTR cs:[eax]
  4017ba:	pop    edx
  4017bb:	push   edx
  4017bc:	push   0x0
  4017be:	push   0x403030
  4017c3:	pop    eax
  4017c4:	call   DWORD PTR cs:[eax]
  4017c7:	pop    edx
  4017c8:	sub    esp,0xffffffe0
  4017cb:	mov    ebp,DWORD PTR [esp]
  4017ce:	add    esp,0x4
  4017d1:	ret    
  4017d2:	add    BYTE PTR [eax],al
  4017d4:	add    BYTE PTR [eax],al
  4017d6:	add    BYTE PTR [eax],al
  4017d8:	mov    edi,edi
  4017da:	push   ebp
  4017db:	mov    ebp,esp
  4017dd:	sub    esp,0x2c
  4017e0:	push   edx
  4017e1:	mov    ebx,0x0
  4017e6:	push   ebx
  4017e7:	push   0x403020
  4017ec:	pop    eax
  4017ed:	call   DWORD PTR cs:[eax]
  4017f0:	pop    edx
  4017f1:	push   edx
  4017f2:	push   DWORD PTR [edx+0x3c4]
  4017f8:	push   DWORD PTR [edx+0x158]
  4017fe:	push   ecx
  4017ff:	call   0x401370
  401804:	add    esp,0xc
  401807:	pop    edx
  401808:	push   edx
  401809:	mov    ebx,0x0
  40180e:	push   ebx
  40180f:	push   0x403030
  401814:	pop    eax
  401815:	call   DWORD PTR cs:[eax]
  401818:	pop    edx
  401819:	sub    esp,0xffffffd4
  40181c:	mov    ebp,DWORD PTR [esp]
  40181f:	add    esp,0x4
  401822:	ret    
  401823:	add    BYTE PTR [ebx-0x1374aa01],cl
  401829:	sub    esp,0x58
  40182c:	push   edx
  40182d:	push   DWORD PTR [edx+0x584]
  401833:	push   DWORD PTR [edx+0x550]
  401839:	push   edi
  40183a:	call   0x40112c
  40183f:	add    esp,0xc
  401842:	pop    edx
  401843:	push   edx
  401844:	mov    edi,0x0
  401849:	push   edi
  40184a:	push   0x403030
  40184f:	pop    eax
  401850:	call   DWORD PTR cs:[eax]
  401853:	pop    edx
  401854:	push   edx
  401855:	push   0x0
  401857:	push   0x403024
  40185c:	pop    eax
  40185d:	call   DWORD PTR cs:[eax]
  401860:	pop    edx
  401861:	sub    esp,0xffffffa8
  401864:	mov    ebp,DWORD PTR [esp]
  401867:	add    esp,0x4
  40186a:	ret    
  40186b:	add    BYTE PTR [ebx-0x1374aa01],cl
  401871:	sub    esp,0x38
  401874:	push   edx
  401875:	lea    edx,[edx]
  401877:	push   edx
  401878:	push   0x40301c
  40187d:	pop    eax
  40187e:	call   DWORD PTR cs:[eax]
  401881:	test   eax,eax
  401883:	jne    0x401875
  401885:	pop    edx
  401886:	push   edx
  401887:	push   ebx
  401888:	push   esi
  401889:	call   0x401824
  40188e:	add    esp,0x8
  401891:	pop    edx
  401892:	push   edx
  401893:	mov    edx,0x0
  401898:	push   edx
  401899:	push   0x403038
  40189e:	pop    eax
  40189f:	call   DWORD PTR cs:[eax]
  4018a2:	pop    edx
  4018a3:	sub    esp,0xffffffc8
  4018a6:	mov    ebp,DWORD PTR [esp]
  4018a9:	add    esp,0x4
  4018ac:	ret    
	...
  4018b9:	add    BYTE PTR [eax],al
  4018bb:	add    BYTE PTR [ebx-0x1374aa01],cl
  4018c1:	sub    esp,0x2c
  4018c4:	push   edx
  4018c5:	push   0x0
  4018c7:	push   0x403000
  4018cc:	pop    eax
  4018cd:	call   DWORD PTR cs:[eax]
  4018d0:	pop    edx
  4018d1:	push   edx
  4018d2:	push   eax
  4018d3:	push   ebx
  4018d4:	call   0x401594
  4018d9:	add    esp,0x8
  4018dc:	pop    edx
  4018dd:	push   edx
  4018de:	mov    eax,0x0
  4018e3:	push   eax
  4018e4:	push   0x403018
  4018e9:	pop    eax
  4018ea:	call   DWORD PTR cs:[eax]
  4018ed:	pop    edx
  4018ee:	sub    esp,0xffffffd4
  4018f1:	mov    ebp,DWORD PTR [esp]
  4018f4:	add    esp,0x4
  4018f7:	ret    
  4018f8:	add    BYTE PTR [eax],al
  4018fa:	add    BYTE PTR [eax],al
  4018fc:	mov    edi,edi
  4018fe:	push   ebp
  4018ff:	mov    ebp,esp
  401901:	sub    esp,0x3c
  401904:	push   edx
  401905:	push   DWORD PTR [edx+0x2d0]
  40190b:	push   ecx
  40190c:	push   DWORD PTR [edx+0x288]
  401912:	push   ecx
  401913:	call   0x401e04
  401918:	add    esp,0x10
  40191b:	pop    edx
  40191c:	push   edx
  40191d:	push   0x0
  40191f:	push   0x403000
  401924:	pop    eax
  401925:	call   DWORD PTR cs:[eax]
  401928:	pop    edx
  401929:	push   edx
  40192a:	lea    eax,[edx]
  40192c:	push   eax
  40192d:	push   0x40301c
  401932:	pop    eax
  401933:	call   DWORD PTR cs:[eax]
  401936:	test   eax,eax
  401938:	jne    0x40192a
  40193a:	pop    edx
  40193b:	sub    esp,0xffffffc4
  40193e:	mov    ebp,DWORD PTR [esp]
  401941:	add    esp,0x4
  401944:	ret    
  401945:	add    BYTE PTR [eax],al
  401947:	add    BYTE PTR [ebx-0x1374aa01],cl
  40194d:	sub    esp,0x54
  401950:	push   edx
  401951:	push   0x0
  401953:	push   0x403040
  401958:	pop    eax
  401959:	call   DWORD PTR cs:[eax]
  40195c:	pop    edx
  40195d:	push   edx
  40195e:	push   ebx
  40195f:	push   DWORD PTR [edx+0x5b8]
  401965:	push   ebx
  401966:	call   0x4016b0
  40196b:	add    esp,0xc
  40196e:	pop    edx
  40196f:	push   edx
  401970:	push   0x0
  401972:	push   0x403040
  401977:	pop    eax
  401978:	call   DWORD PTR cs:[eax]
  40197b:	pop    edx
  40197c:	sub    esp,0xffffffac
  40197f:	mov    ebp,DWORD PTR [esp]
  401982:	add    esp,0x4
  401985:	ret    
  401986:	add    BYTE PTR [eax],al
  401988:	mov    edi,edi
  40198a:	push   ebp
  40198b:	mov    ebp,esp
  40198d:	sub    esp,0x4c
  401990:	push   edx
  401991:	push   0x0
  401993:	push   0x403000
  401998:	pop    eax
  401999:	call   DWORD PTR cs:[eax]
  40199c:	pop    edx
  40199d:	push   edx
  40199e:	push   DWORD PTR [edx+0x4bc]
  4019a4:	push   esi
  4019a5:	push   DWORD PTR [edx+0x490]
  4019ab:	push   DWORD PTR [edx+0xf0]
  4019b1:	call   0x4012a8
  4019b6:	add    esp,0x10
  4019b9:	pop    edx
  4019ba:	push   edx
  4019bb:	mov    ebx,0x0
  4019c0:	push   ebx
  4019c1:	push   0x403018
  4019c6:	pop    eax
  4019c7:	call   DWORD PTR cs:[eax]
  4019ca:	pop    edx
  4019cb:	sub    esp,0xffffffb4
  4019ce:	mov    ebp,DWORD PTR [esp]
  4019d1:	add    esp,0x4
  4019d4:	ret    
  4019d5:	add    BYTE PTR [eax],al
  4019d7:	add    BYTE PTR [ebx-0x1374aa01],cl
  4019dd:	sub    esp,0x20
  4019e0:	push   edx
  4019e1:	push   0x0
  4019e3:	push   0x403064
  4019e8:	pop    eax
  4019e9:	call   DWORD PTR cs:[eax]
  4019ec:	pop    edx
  4019ed:	push   edx
  4019ee:	push   edi
  4019ef:	push   DWORD PTR [edx+0x388]
  4019f5:	push   ecx
  4019f6:	call   0x401948
  4019fb:	add    esp,0xc
  4019fe:	pop    edx
  4019ff:	push   edx
  401a00:	push   0x0
  401a02:	push   0x403020
  401a07:	pop    eax
  401a08:	call   DWORD PTR cs:[eax]
  401a0b:	pop    edx
  401a0c:	sub    esp,0xffffffe0
  401a0f:	mov    ebp,DWORD PTR [esp]
  401a12:	add    esp,0x4
  401a15:	ret    
  401a16:	add    BYTE PTR [eax],al
  401a18:	mov    edi,edi
  401a1a:	push   ebp
  401a1b:	mov    ebp,esp
  401a1d:	sub    esp,0x40
  401a20:	push   edx
  401a21:	push   DWORD PTR [edx+0x1d0]
  401a27:	push   edi
  401a28:	push   edi
  401a29:	call   0x401444
  401a2e:	add    esp,0xc
  401a31:	pop    edx
  401a32:	push   edx
  401a33:	push   0x40303c
  401a38:	pop    eax
  401a39:	call   DWORD PTR cs:[eax]
  401a3c:	pop    edx
  401a3d:	push   edx
  401a3e:	push   0x0
  401a40:	push   0x403020
  401a45:	pop    eax
  401a46:	call   DWORD PTR cs:[eax]
  401a49:	pop    edx
  401a4a:	sub    esp,0xffffffc0
  401a4d:	mov    ebp,DWORD PTR [esp]
  401a50:	add    esp,0x4
  401a53:	ret    
  401a54:	mov    edi,edi
  401a56:	push   ebp
  401a57:	mov    ebp,esp
  401a59:	sub    esp,0x3c
  401a5c:	push   edx
  401a5d:	mov    edi,0x0
  401a62:	push   edi
  401a63:	push   0x403018
  401a68:	pop    eax
  401a69:	call   DWORD PTR cs:[eax]
  401a6c:	pop    edx
  401a6d:	push   edx
  401a6e:	push   eax
  401a6f:	push   eax
  401a70:	push   DWORD PTR [edx+0x598]
  401a76:	call   0x4012ec
  401a7b:	add    esp,0xc
  401a7e:	pop    edx
  401a7f:	push   edx
  401a80:	mov    edi,0x0
  401a85:	push   edi
  401a86:	push   0x403024
  401a8b:	pop    eax
  401a8c:	call   DWORD PTR cs:[eax]
  401a8f:	pop    edx
  401a90:	sub    esp,0xffffffc4
  401a93:	mov    ebp,DWORD PTR [esp]
  401a96:	add    esp,0x4
  401a99:	ret    
  401a9a:	add    BYTE PTR [eax],al
  401a9c:	mov    edi,edi
  401a9e:	push   ebp
  401a9f:	mov    ebp,esp
  401aa1:	sub    esp,0x28
  401aa4:	push   edx
  401aa5:	push   esi
  401aa6:	push   DWORD PTR [edx+0x130]
  401aac:	push   DWORD PTR [edx+0x3c4]
  401ab2:	push   DWORD PTR [edx+0x2e8]
  401ab8:	call   0x4019d8
  401abd:	add    esp,0x10
  401ac0:	pop    edx
  401ac1:	push   edx
  401ac2:	mov    edx,0x0
  401ac7:	push   edx
  401ac8:	push   0x403040
  401acd:	pop    eax
  401ace:	call   DWORD PTR cs:[eax]
  401ad1:	pop    edx
  401ad2:	push   edx
  401ad3:	mov    eax,0x0
  401ad8:	push   eax
  401ad9:	push   0x40300c
  401ade:	pop    eax
  401adf:	call   DWORD PTR cs:[eax]
  401ae2:	pop    edx
  401ae3:	sub    esp,0xffffffd8
  401ae6:	mov    ebp,DWORD PTR [esp]
  401ae9:	add    esp,0x4
  401aec:	ret    
  401aed:	add    BYTE PTR [eax],al
  401aef:	add    BYTE PTR [eax],al
  401af1:	add    BYTE PTR [eax],al
  401af3:	add    BYTE PTR [ebx-0x1374aa01],cl
  401af9:	sub    esp,0x1c
  401afc:	push   edx
  401afd:	mov    edx,0x0
  401b02:	push   edx
  401b03:	push   0x40306c
  401b08:	pop    eax
  401b09:	call   DWORD PTR cs:[eax]
  401b0c:	pop    edx
  401b0d:	push   edx
  401b0e:	push   DWORD PTR [edx+0x74]
  401b11:	push   eax
  401b12:	push   DWORD PTR [edx+0x5b4]
  401b18:	call   0x401d30
  401b1d:	add    esp,0xc
  401b20:	pop    edx
  401b21:	push   edx
  401b22:	mov    ebx,0x0
  401b27:	push   ebx
  401b28:	push   0x403064
  401b2d:	pop    eax
  401b2e:	call   DWORD PTR cs:[eax]
  401b31:	pop    edx
  401b32:	sub    esp,0xffffffe4
  401b35:	mov    ebp,DWORD PTR [esp]
  401b38:	add    esp,0x4
  401b3b:	ret    
  401b3c:	mov    edi,edi
  401b3e:	push   ebp
  401b3f:	mov    ebp,esp
  401b41:	sub    esp,0x60
  401b44:	push   edx
  401b45:	push   ecx
  401b46:	push   ecx
  401b47:	call   0x401b80
  401b4c:	add    esp,0x8
  401b4f:	pop    edx
  401b50:	push   edx
  401b51:	lea    eax,[edx]
  401b53:	push   eax
  401b54:	push   0x40301c
  401b59:	pop    eax
  401b5a:	call   DWORD PTR cs:[eax]
  401b5d:	test   eax,eax
  401b5f:	jne    0x401b51
  401b61:	pop    edx
  401b62:	push   edx
  401b63:	push   0x0
  401b65:	push   0x403018
  401b6a:	pop    eax
  401b6b:	call   DWORD PTR cs:[eax]
  401b6e:	pop    edx
  401b6f:	sub    esp,0xffffffa0
  401b72:	mov    ebp,DWORD PTR [esp]
  401b75:	add    esp,0x4
  401b78:	ret    
  401b79:	add    BYTE PTR [eax],al
  401b7b:	add    BYTE PTR [eax],al
  401b7d:	add    BYTE PTR [eax],al
  401b7f:	add    BYTE PTR [ebx-0x1374aa01],cl
  401b85:	sub    esp,0x38
  401b88:	push   edx
  401b89:	mov    edx,0x0
  401b8e:	push   edx
  401b8f:	push   0x403024
  401b94:	pop    eax
  401b95:	call   DWORD PTR cs:[eax]
  401b98:	pop    edx
  401b99:	push   edx
  401b9a:	push   DWORD PTR [edx+0x18c]
  401ba0:	push   eax
  401ba1:	push   ecx
  401ba2:	call   0x401790
  401ba7:	add    esp,0xc
  401baa:	pop    edx
  401bab:	push   edx
  401bac:	mov    ebx,0x0
  401bb1:	push   ebx
  401bb2:	push   0x403030
  401bb7:	pop    eax
  401bb8:	call   DWORD PTR cs:[eax]
  401bbb:	pop    edx
  401bbc:	sub    esp,0xffffffc8
  401bbf:	mov    ebp,DWORD PTR [esp]
  401bc2:	add    esp,0x4
  401bc5:	ret    
  401bc6:	add    BYTE PTR [eax],al
  401bc8:	add    BYTE PTR [eax],al
  401bca:	add    BYTE PTR [eax],al
  401bcc:	mov    edi,edi
  401bce:	push   ebp
  401bcf:	mov    ebp,esp
  401bd1:	sub    esp,0x54
  401bd4:	push   edx
  401bd5:	push   0x0
  401bd7:	push   0x403020
  401bdc:	pop    eax
  401bdd:	call   DWORD PTR cs:[eax]
  401be0:	pop    edx
  401be1:	push   edx
  401be2:	push   ebx
  401be3:	push   esi
  401be4:	push   esi
  401be5:	push   edi
  401be6:	call   0x4014b8
  401beb:	add    esp,0x10
  401bee:	pop    edx
  401bef:	push   edx
  401bf0:	lea    edx,[edx]
  401bf2:	push   edx
  401bf3:	push   0x40301c
  401bf8:	pop    eax
  401bf9:	call   DWORD PTR cs:[eax]
  401bfc:	test   eax,eax
  401bfe:	jne    0x401bf0
  401c00:	pop    edx
  401c01:	sub    esp,0xffffffac
  401c04:	mov    ebp,DWORD PTR [esp]
  401c07:	add    esp,0x4
  401c0a:	ret    
	...
  401c17:	add    BYTE PTR [ebx-0x1374aa01],cl
  401c1d:	sub    esp,0x3c
  401c20:	push   edx
  401c21:	push   0x0
  401c23:	push   0x403034
  401c28:	pop    eax
  401c29:	call   DWORD PTR cs:[eax]
  401c2c:	pop    edx
  401c2d:	push   edx
  401c2e:	push   edi
  401c2f:	push   eax
  401c30:	call   0x401500
  401c35:	add    esp,0x8
  401c38:	pop    edx
  401c39:	push   edx
  401c3a:	push   0x40303c
  401c3f:	pop    eax
  401c40:	call   DWORD PTR cs:[eax]
  401c43:	pop    edx
  401c44:	sub    esp,0xffffffc4
  401c47:	mov    ebp,DWORD PTR [esp]
  401c4a:	add    esp,0x4
  401c4d:	ret    
  401c4e:	add    BYTE PTR [eax],al
  401c50:	add    BYTE PTR [eax],al
  401c52:	add    BYTE PTR [eax],al
  401c54:	mov    edi,edi
  401c56:	push   ebp
  401c57:	mov    ebp,esp
  401c59:	sub    esp,0x40
  401c5c:	push   edx
  401c5d:	lea    edx,[edx]
  401c5f:	push   edx
  401c60:	push   0x40301c
  401c65:	pop    eax
  401c66:	call   DWORD PTR cs:[eax]
  401c69:	test   eax,eax
  401c6b:	jne    0x401c5d
  401c6d:	pop    edx
  401c6e:	push   edx
  401c6f:	push   edi
  401c70:	push   DWORD PTR [edx+0x57c]
  401c76:	push   DWORD PTR [edx+0x1d0]
  401c7c:	push   DWORD PTR [edx+0x574]
  401c82:	call   0x4015d4
  401c87:	add    esp,0x10
  401c8a:	pop    edx
  401c8b:	push   edx
  401c8c:	push   0x0
  401c8e:	push   0x40306c
  401c93:	pop    eax
  401c94:	call   DWORD PTR cs:[eax]
  401c97:	pop    edx
  401c98:	sub    esp,0xffffffc0
  401c9b:	mov    ebp,DWORD PTR [esp]
  401c9e:	add    esp,0x4
  401ca1:	ret    
  401ca2:	add    BYTE PTR [eax],al
  401ca4:	mov    edi,edi
  401ca6:	push   ebp
  401ca7:	mov    ebp,esp
  401ca9:	sub    esp,0x34
  401cac:	push   edx
  401cad:	push   DWORD PTR [edx+0x8]
  401cb0:	push   esi
  401cb1:	push   eax
  401cb2:	call   0x401c54
  401cb7:	add    esp,0xc
  401cba:	pop    edx
  401cbb:	push   edx
  401cbc:	push   0x40303c
  401cc1:	pop    eax
  401cc2:	call   DWORD PTR cs:[eax]
  401cc5:	pop    edx
  401cc6:	push   edx
  401cc7:	mov    edx,0x0
  401ccc:	push   edx
  401ccd:	push   0x403040
  401cd2:	pop    eax
  401cd3:	call   DWORD PTR cs:[eax]
  401cd6:	pop    edx
  401cd7:	sub    esp,0xffffffcc
  401cda:	mov    ebp,DWORD PTR [esp]
  401cdd:	add    esp,0x4
  401ce0:	ret    
  401ce1:	add    BYTE PTR [eax],al
  401ce3:	add    BYTE PTR [ebx-0x1374aa01],cl
  401ce9:	sub    esp,0x60
  401cec:	push   edx
  401ced:	push   ebx
  401cee:	push   DWORD PTR [edx+0x45c]
  401cf4:	push   DWORD PTR [edx+0xb0]
  401cfa:	call   0x4017d8
  401cff:	add    esp,0xc
  401d02:	pop    edx
  401d03:	push   edx
  401d04:	mov    edi,0x0
  401d09:	push   edi
  401d0a:	push   0x403040
  401d0f:	pop    eax
  401d10:	call   DWORD PTR cs:[eax]
  401d13:	pop    edx
  401d14:	push   edx
  401d15:	mov    edi,0x0
  401d1a:	push   edi
  401d1b:	push   0x403020
  401d20:	pop    eax
  401d21:	call   DWORD PTR cs:[eax]
  401d24:	pop    edx
  401d25:	sub    esp,0xffffffa0
  401d28:	mov    ebp,DWORD PTR [esp]
  401d2b:	add    esp,0x4
  401d2e:	ret    
  401d2f:	add    BYTE PTR [ebx-0x1374aa01],cl
  401d35:	sub    esp,0x50
  401d38:	push   edx
  401d39:	push   DWORD PTR [edx+0x1bc]
  401d3f:	push   edi
  401d40:	push   eax
  401d41:	push   DWORD PTR [edx+0x1b0]
  401d47:	call   0x401330
  401d4c:	add    esp,0x10
  401d4f:	pop    edx
  401d50:	push   edx
  401d51:	push   0x0
  401d53:	push   0x403030
  401d58:	pop    eax
  401d59:	call   DWORD PTR cs:[eax]
  401d5c:	pop    edx
  401d5d:	push   edx
  401d5e:	mov    esi,0x0
  401d63:	push   esi
  401d64:	push   0x403064
  401d69:	pop    eax
  401d6a:	call   DWORD PTR cs:[eax]
  401d6d:	pop    edx
  401d6e:	sub    esp,0xffffffb0
  401d71:	mov    ebp,DWORD PTR [esp]
  401d74:	add    esp,0x4
  401d77:	ret    
  401d78:	mov    edi,edi
  401d7a:	push   ebp
  401d7b:	mov    ebp,esp
  401d7d:	sub    esp,0x60
  401d80:	push   edx
  401d81:	push   0x0
  401d83:	push   0x403034
  401d88:	pop    eax
  401d89:	call   DWORD PTR cs:[eax]
  401d8c:	pop    edx
  401d8d:	push   edx
  401d8e:	push   eax
  401d8f:	push   DWORD PTR [edx+0x40c]
  401d95:	call   0x4010ec
  401d9a:	add    esp,0x8
  401d9d:	pop    edx
  401d9e:	push   edx
  401d9f:	push   0x0
  401da1:	push   0x40306c
  401da6:	pop    eax
  401da7:	call   DWORD PTR cs:[eax]
  401daa:	pop    edx
  401dab:	sub    esp,0xffffffa0
  401dae:	mov    ebp,DWORD PTR [esp]
  401db1:	add    esp,0x4
  401db4:	ret    
  401db5:	add    BYTE PTR [eax],al
  401db7:	add    BYTE PTR [ebx-0x1374aa01],cl
  401dbd:	sub    esp,0x44
  401dc0:	push   edx
  401dc1:	push   DWORD PTR [edx+0x310]
  401dc7:	push   DWORD PTR [edx+0x55c]
  401dcd:	push   ebx
  401dce:	call   0x40186c
  401dd3:	add    esp,0xc
  401dd6:	pop    edx
  401dd7:	push   edx
  401dd8:	push   0x0
  401dda:	push   0x40300c
  401ddf:	pop    eax
  401de0:	call   DWORD PTR cs:[eax]
  401de3:	pop    edx
  401de4:	push   edx
  401de5:	mov    eax,0x0
  401dea:	push   eax
  401deb:	push   0x403040
  401df0:	pop    eax
  401df1:	call   DWORD PTR cs:[eax]
  401df4:	pop    edx
  401df5:	sub    esp,0xffffffbc
  401df8:	mov    ebp,DWORD PTR [esp]
  401dfb:	add    esp,0x4
  401dfe:	ret    
  401dff:	add    BYTE PTR [eax],al
  401e01:	add    BYTE PTR [eax],al
  401e03:	add    BYTE PTR [ebx-0x1374aa01],cl
  401e09:	sub    esp,0x28
  401e0c:	push   edx
  401e0d:	push   esi
  401e0e:	push   DWORD PTR [edx+0x1a0]
  401e14:	push   ebx
  401e15:	push   ebx
  401e16:	call   0x4016f8
  401e1b:	add    esp,0x10
  401e1e:	pop    edx
  401e1f:	push   edx
  401e20:	mov    eax,0x0
  401e25:	push   eax
  401e26:	push   0x403000
  401e2b:	pop    eax
  401e2c:	call   DWORD PTR cs:[eax]
  401e2f:	pop    edx
  401e30:	push   edx
  401e31:	push   0x0
  401e33:	push   0x403030
  401e38:	pop    eax
  401e39:	call   DWORD PTR cs:[eax]
  401e3c:	pop    edx
  401e3d:	sub    esp,0xffffffd8
  401e40:	mov    ebp,DWORD PTR [esp]
  401e43:	add    esp,0x4
  401e46:	ret    
	...
  401e4f:	add    ch,bl
  401e51:	sub    ebp,DWORD PTR [esi]
  401e53:	pop    ebp
  401e54:	sar    BYTE PTR [esi-0x16],0x1d
  401e58:	fs int3 
  401e5a:	mov    al,0x6d
  401e5c:	cmp    DWORD PTR [ebp+0x4ac59374],esi
  401e62:	(bad)  
  401e63:	pop    edx
  401e64:	jno    0x401ebf
  401e66:	in     al,0x79
  401e68:	xchg   esi,eax
  401e69:	bswap  eax
  401e6b:	std    
  401e6c:	out    dx,eax
  401e6d:	sahf   
  401e6e:	mov    ecx,0xc7c70097
  401e73:	add    DWORD PTR [eax],eax
  401e75:	mov    edi,0xc6e30001
  401e7b:	jg     0x401ebe
  401e7d:	retf   0xa27e
  401e80:	mov    ebp,0x310580a8
  401e85:	imul   esi,eax,0xffffffe2
  401e88:	add    DWORD PTR ds:0x251691a3,ecx
  401e8e:	gs ins BYTE PTR es:[edi],dx
  401e90:	pop    eax
  401e91:	push   edi
  401e92:	inc    eax
  401e93:	push   ss
  401e94:	or     DWORD PTR [edx+0x32],eax
  401e97:	imul   ecx,DWORD PTR [ecx],0xffffffff
  401e9a:	mov    edx,0xbcd552e7
  401e9f:	ins    BYTE PTR es:[edi],dx
  401ea0:	mov    esi,0x81d8533b
  401ea5:	push   esp
  401ea6:	js     0x401e9f
  401ea8:	pop    edx
  401ea9:	call   0xf444a49e
  401eae:	mov    ch,0xa0
  401eb0:	jge    0x401e96
  401eb2:	adc    BYTE PTR [eax],al
  401eb4:	add    DWORD PTR [eax],edx
  401eb6:	adc    al,0x1d
  401eb8:	sbb    ebp,DWORD PTR [edi+0x468a0000]
  401ebe:	(bad)  
  401ebf:	adc    BYTE PTR [esi+edx*4],dl
  401ec2:	and    eax,0x60f2ae1
  401ec7:	call   0x3110:0x20092406
  401ece:	sbb    edx,DWORD PTR [edi+0x76dd5ba9]
  401ed4:	ins    DWORD PTR es:[edi],dx
  401ed5:	mov    DWORD PTR [eax+0x13],esp
  401ed8:	xor    eax,0x2102650d
  401edd:	add    BYTE PTR [edx+eax*1],al
  401ee0:	and    eax,0x5c1d9a32
  401ee5:	jbe    0x401efc
  401ee7:	push   eax
  401ee8:	add    BYTE PTR [edx+0x702b6291],0xc4
  401eef:	xchg   ebx,eax
  401ef0:	adc    DWORD PTR [eax],eax
  401ef2:	add    al,ah
  401ef4:	cmps   DWORD PTR ds:[esi],DWORD PTR es:[edi]
  401ef5:	push   0xff6b6a00
  401efa:	push   ebp
  401efb:	push   ss
  401efc:	pushf  
  401efd:	lods   eax,DWORD PTR ds:[esi]
  401efe:	cli    
  401eff:	cdq    
  401f00:	cwde   
  401f01:	add    eax,0xb5dedbf8
  401f06:	aam    0xf9
  401f08:	stc    
  401f09:	aam    0xf
  401f0b:	sub    eax,0xcffb9a7
  401f10:	push   esi
  401f11:	ret    
  401f12:	call   0xc428aca4
  401f17:	stc    
  401f18:	add    al,BYTE PTR [edi-0x238cdecc]
  401f1e:	jl     0x401f7a
  401f20:	add    eax,0x3f6f00fb
  401f25:	call   0x6ab2aa2a
  401f2a:	add    BYTE PTR [edi+0x6b],ch
  401f2d:	call   FWORD PTR [edi]
  401f2f:	pushf  
  401f30:	cmp    al,0x8a
  401f32:	stos   BYTE PTR es:[edi],al
  401f33:	sub    BYTE PTR [eax+ebx*1+0x3c6b3d97],ah
  401f3a:	adc    eax,0x47cca74
  401f3f:	push   ecx
  401f40:	push   es
  401f41:	pop    es
  401f42:	(bad)  [ecx+0x78]
  401f45:	cmps   DWORD PTR ds:[esi],DWORD PTR es:[edi]
  401f46:	add    BYTE PTR [ecx-0x364fb057],ch
  401f4c:	loope  0x401f36
  401f4e:	sbb    dh,bl
  401f50:	int3   
  401f51:	cmp    al,0x8d
  401f53:	pop    es
  401f54:	add    ebp,ebx
  401f56:	retf   
  401f57:	push   es
  401f58:	push   edi
  401f59:	test   DWORD PTR [esi+0x73],0x22581962
  401f60:	inc    ecx
  401f61:	dec    ecx
  401f62:	mov    dl,0x4e
  401f64:	ins    DWORD PTR es:[edi],dx
  401f65:	loope  0x401f7c
  401f67:	sbb    al,0x69
  401f69:	xor    al,0x6a
  401f6b:	xor    al,0x0
  401f6d:	jno    0x401fcf
  401f6f:	push   ebx
  401f70:	push   ebx
  401f71:	push   es
  401f72:	pusha  
  401f73:	je     0x401f6a
  401f75:	jl     0x401f7c
  401f77:	stos   DWORD PTR es:[edi],eax
  401f78:	aas    
  401f79:	push   esp
  401f7a:	cmp    ebp,DWORD PTR [esi]
  401f7c:	push   ebx
  401f7d:	add    DWORD PTR [eax],ecx
  401f7f:	ds aas 
  401f81:	push   cs
  401f82:	add    ch,BYTE PTR [esp+eax*1+0x77e1cddc]
  401f89:	cmp    al,0x2f
  401f8b:	or     BYTE PTR [esi-0xe],bl
  401f8e:	jmp    DWORD PTR [ebx-0x49a93d2c]
  401f94:	je     0x401f24
  401f96:	mov    bh,0x93
  401f98:	xchg   esp,eax
  401f99:	lods   eax,DWORD PTR cs:[esi]
  401f9b:	xor    esi,DWORD PTR [edi-0x577bc9f]
  401fa1:	sbb    esi,esi
  401fa3:	dec    BYTE PTR [esi-0x29]
  401fa6:	test   BYTE PTR [edi+0x72a00e52],bh
  401fac:	ss dec ebx
  401fae:	ret    0x8e1c
  401fb1:	xchg   edi,edi
  401fb3:	jnp    0x401f88
  401fb5:	out    0xc4,eax
  401fb7:	test   DWORD PTR [ecx],eax
  401fb9:	(bad)  
  401fba:	pop    ebx
  401fbb:	arpl   bx,ax
  401fbd:	in     al,dx
  401fbe:	arpl   WORD PTR [ebp+0x76],si
  401fc1:	call   0x14bb63ea
  401fc6:	push   DWORD PTR [ebp+0x66]
  401fc9:	je     0x402036
  401fcb:	jnp    0x401fd5
  401fcd:	test   al,dl
  401fcf:	inc    eax
  401fd0:	fmul   QWORD PTR [edi+0x50253a9]
  401fd6:	test   ecx,ebx
  401fd8:	cmp    DWORD PTR [ebp+0x6],edx
  401fdb:	push   es
  401fdc:	push   edi
  401fdd:	pop    es
  401fde:	or     BYTE PTR [ebx],dh
  401fe0:	ins    DWORD PTR es:[edi],dx
  401fe1:	int3   
  401fe2:	add    cl,BYTE PTR [eax+ebx*2]
  401fe5:	or     BYTE PTR [ebx-0x8],cl
  401fe8:	aas    
  401fe9:	das    
  401fea:	mov    al,ds:0xc5a758ff
  401fef:	jo     0x40203c
  401ff1:	dec    ecx
  401ff2:	mov    edx,0x29e958bd
  401ff7:	mov    DWORD PTR [ecx],0x1e88ae9
  401ffd:	xor    DWORD PTR [eax+0x186968],0x28760000
  402007:	push   esi
  402008:	ficom  DWORD PTR [ebx-0x78e6f002]
  40200e:	dec    DWORD PTR [ebx-0x220c9fff]
  402014:	add    al,0xff
  402016:	add    BYTE PTR fs:[ecx-0x75],bl
  40201a:	inc    eax
  40201b:	cmp    al,0x80
  40201d:	add    BYTE PTR [edi+0x34146061],al
  402023:	(bad)
  402027:	scas   eax,DWORD PTR es:[edi]
  402028:	jnp    0x402011
  40202a:	and    al,0x88
  40202c:	dec    ecx
  40202d:	sbb    BYTE PTR [edi-0x3477a706],al
  402033:	shl    al,0xef
  402036:	mov    bl,BYTE PTR [eax+0x6d]
  402039:	out    dx,eax
  40203a:	out    dx,eax
  40203b:	cmp    DWORD PTR [esi-0x9],edx
  40203e:	inc    esi
  40203f:	imul   edi,DWORD PTR [eax+0x44],0xa1190ea1
  402046:	fs xchg edx,ecx
  402049:	xor    BYTE PTR [ecx+0x65767178],cl
  40204f:	push   esp
  402050:	std    
  402051:	jbe    0x402050
  402053:	or     BYTE PTR [ecx],al
  402055:	pop    edi
  402056:	jmp    0x7e1c:0x79bdd2b0
  40205d:	je     0x401ffb
  40205f:	mov    dh,0x3a
  402061:	call   0x791a59b6
  402066:	pop    eax
  402067:	add    al,0x3
  402069:	pop    eax
  40206a:	js     0x402060
  40206c:	mov    eax,DWORD PTR gs:[esi+eiz*1]
  402070:	in     al,dx
  402071:	add    BYTE PTR [edi+0x424010f],ch
  402077:	cmp    BYTE PTR [edx+0x64500424],cl
  40207d:	(bad)  
  40207e:	out    0x14,eax
  402080:	in     al,dx
  402081:	xor    bl,al
  402083:	inc    ebp
  402084:	dec    ebx
  402085:	mov    BYTE PTR [ebp+0xb],al
  402088:	xor    DWORD PTR [esi+0x7472b98b],0xf8f70373
  402092:	or     bh,dl
  402094:	mov    al,BYTE PTR [ecx-0x70916601]
  40209a:	test   al,0x7a
  40209c:	test   eax,0xb6c37e53
  4020a1:	adc    DWORD PTR [ebx-0x56],0x235457a9
  4020a8:	fisub  DWORD PTR [esi]
  4020aa:	adc    BYTE PTR [esi-0x9],dl
  4020ad:	fwait
  4020ae:	mov    BYTE PTR [esi],ah
  4020b0:	sub    edi,DWORD PTR [esi]
  4020b2:	dec    BYTE PTR [eax]
  4020b4:	xlat   BYTE PTR ds:[ebx]
  4020b5:	or     BYTE PTR [ebx+0x4b],0x91
  4020b9:	fisub  DWORD PTR [edi+0x543f7f]
  4020bf:	or     DWORD PTR [edi+0x7],edx
  4020c2:	or     BYTE PTR [edx+ebx*8],bh
  4020c5:	or     dl,al
  4020c7:	aas    
  4020c8:	push   ecx
  4020c9:	adc    eax,0x657cd8d
  4020ce:	movs   BYTE PTR es:[edi],BYTE PTR ds:[esi]
  4020cf:	xchg   ebx,eax
  4020d0:	pop    ebx
  4020d1:	cdq    
  4020d2:	or     al,dl
  4020d4:	mov    ch,0x9e
  4020d6:	add    al,0x57
  4020d8:	add    DWORD PTR [ecx+0xd70019b],ebp
  4020de:	inc    esp
  4020df:	add    eax,DWORD PTR [eax]
  4020e1:	popa   
  4020e2:	jb     0x4020df
  4020e4:	(bad)  
  4020e5:	jg     0x40215c
  4020e7:	std    
  4020e8:	mov    dh,BYTE PTR [ebx+ebp*2+0x0]
  4020ec:	test   eax,0xa9f8f1c
  4020f1:	hlt    
  4020f2:	push   esi
  4020f3:	or     eax,0xb10f0a02
  4020f8:	or     DWORD PTR [edi-0x29aaaaff],ebp
  4020fe:	cmp    DWORD PTR [ebx-0x8],eax
  402101:	dec    ecx
  402102:	loop   0x40209f
  402104:	mov    ds:0x78605cea,al
  402109:	sar    ch,1
  40210b:	pop    esp
  40210c:	adc    BYTE PTR [eax],ah
  40210e:	aaa    
  40210f:	ja     0x402167
  402111:	cmp    edx,edx
  402113:	mov    esi,0x590f8494
  402118:	add    al,0xa4
  40211a:	add    BYTE PTR [eax],al
  40211c:	add    DWORD PTR [ebx-0x495ed1ee],ecx
  402122:	mov    eax,DWORD PTR [ebp-0x7e7bf08e]
  402128:	add    BYTE PTR [edi+ecx*1-0x7452080b],0xf8
  402130:	cld    
  402131:	jo     0x402130
  402133:	js     0x402183
  402135:	add    BYTE PTR [edx+0x543b0351],ch
  40213b:	lods   al,BYTE PTR ds:[esi]
  40213c:	imul   edx,DWORD PTR [edx+ebp*2],0xf8835850
  402143:	add    al,0x55
  402145:	add    BYTE PTR [edi+0x6a14693f],0x50
  40214c:	pop    eax
  40214d:	adc    DWORD PTR [esp],0x57811425
  402154:	add    BYTE PTR [esi+0x1c],dl
  402157:	jmp    FWORD PTR [ecx-0x859f100]
  40215d:	jno    0x402123
  40215f:	add    al,0xdd
  402161:	add    dl,bh
  402163:	inc    esp
  402164:	ins    DWORD PTR es:[edi],dx
  402165:	cmp    ah,cl
  402167:	mov    eax,0xe54462f2
  40216c:	int3   
  40216d:	lods   eax,DWORD PTR ds:[esi]
  40216e:	push   esi
  40216f:	mov    ah,0x7d
  402171:	adc    eax,0xff0ea6ff
  402176:	and    al,0x1c
  402178:	sbb    al,0xe3
  40217a:	out    dx,al
  40217b:	pop    ecx
  40217c:	xlat   BYTE PTR ds:[ebx]
  40217d:	stos   BYTE PTR es:[edi],al
  40217e:	mov    BYTE PTR [ebx],0x56
  402181:	jbe    0x402197
  402183:	jb     0x402153
  402185:	cmp    BYTE PTR [edx+0x41],dl
  402188:	adc    DWORD PTR [eax],eax
  40218a:	aas    
  40218b:	mov    bl,0x6a
  40218d:	push   ebx
  40218e:	push   eax
  40218f:	dec    esi
  402191:	cmp    BYTE PTR [eax+edi*8],al
  402194:	adc    DWORD PTR [eax],eax
  402196:	aas    
  402197:	mov    cl,0x84
  402199:	jae    0x40219b
  40219b:	adc    BYTE PTR [ecx],dl
  40219d:	add    bl,bl
  40219f:	push   ecx
  4021a0:	pop    eax
  4021a1:	add    BYTE PTR [ebp+0xc],dl
  4021a4:	push   edi
  4021a5:	or     al,0xa7
  4021a7:	push   esp
  4021a8:	ficom  WORD PTR [ecx-0x491c24d4]
  4021ae:	test   eax,0x21cde36e
  4021b3:	pushf  
  4021b4:	jae    0x40218c
  4021b6:	scas   al,BYTE PTR es:[edi]
  4021b7:	les    ecx,FWORD PTR [edi-0x15]
  4021ba:	mov    edi,0xe89b497e
  4021bf:	mov    eax,DWORD PTR [ecx]
  4021c1:	call   0xec3f68c1
  4021c6:	push   edx
  4021c7:	pop    ds
  4021c8:	push   ds
  4021c9:	mov    ecx,0xff0a17ff
  4021ce:	(bad)  
  4021cf:	jmp    FWORD PTR [eax+0x1e1f846]
  4021d5:	pop    es
  4021d6:	push   ecx
  4021d7:	adc    dh,0xe8
  4021da:	add    BYTE PTR [edx+ebx*2-0x6124348c],cl
  4021e1:	cmp    eax,0xe801d08b
  4021e6:	into   
  4021e7:	inc    esi
  4021e8:	inc    edi
  4021ea:	fs (bad) 
  4021ec:	jb     0x40222f
  4021ee:	pop    ss
  4021ef:	inc    ecx
  4021f0:	mov    esi,0xf2bfcae8
  4021f5:	scas   eax,DWORD PTR es:[edi]
  4021f6:	ds aaa 
  4021f8:	rol    BYTE PTR [eax],0x54
  4021fb:	in     al,0x2a
  4021fd:	add    eax,0x808923c5
  402202:	sar    DWORD PTR [eax-0x79],0x98
  402206:	cvtdq2ps xmm1,xmm3
  402209:	dec    esi
  40220a:	sub    al,0xf2
  40220c:	dec    eax
  40220d:	add    DWORD PTR [eax],ebx
  40220f:	mov    al,0xbe
  402211:	stc    
  402212:	int3   
  402213:	inc    eax
  402214:	or     edi,DWORD PTR [ecx-0x8123dc]
  40221a:	(bad)  
  40221b:	(bad)  
  40221c:	out    dx,eax
  40221d:	dec    eax
  40221e:	repz ret 
  402220:	or     DWORD PTR [ebp+0xe],ebx
  402223:	pop    es
  402224:	or     DWORD PTR [ecx-0x9149af],edi
  40222a:	(bad)  
  40222b:	jmp    DWORD PTR [ebp-0x857fe9]
  402231:	jg     0x402295
  402233:	sub    eax,0x3c9e9551
  402238:	xchg   ecx,eax
  402239:	mov    al,ds:0xc8a739f4
  40223e:	rcl    DWORD PTR [ecx+0x1],0x48
  402242:	push   esp
  402243:	mov    DWORD PTR [edx+0x1004876],ecx
  402249:	dec    eax
  40224a:	jbe    0x4021dd
  40224c:	xchg   edx,eax
  40224d:	push   esp
  40224e:	dec    eax
  40224f:	add    BYTE PTR [ecx],al
  402251:	dec    eax
  402252:	push   esp
  402253:	cdq    
  402254:	call   0x7048:0x1004870
  40225b:	mov    eax,ds:0x4834a2
  402260:	add    DWORD PTR [eax+0x34],ecx
  402263:	test   eax,0x4870aa
  402268:	add    DWORD PTR [eax+0x70],ecx
  40226b:	mov    cl,0xb2
  40226d:	xor    al,0x48
  40226f:	add    BYTE PTR [ecx],al
  402271:	dec    eax
  402272:	xor    al,0xb9
  402274:	mov    WORD PTR [ebp-0x255d3cef],?
  40227a:	mov    esp,0x91094dc7
  40227f:	mov    al,bh
  402281:	adc    dh,BYTE PTR [eax+eax*1-0x74]
  402285:	jge    0x4022db
  402287:	mov    al,BYTE PTR [ebp+0x42207b21]
  40228d:	(bad)  
  40228e:	je     0x40228f
  402290:	add    DWORD PTR [ecx+0x3b],esp
  402293:	mov    BYTE PTR [eax-0x6b],ah
  402296:	pop    ebp
  402297:	mov    edx,DWORD PTR [edx-0x49]
  40229a:	and    BYTE PTR [ebx-0x7724cf40],dh
  4022a0:	add    DWORD PTR [eax],edi
  4022a2:	inc    ebp
  4022a3:	mov    ecx,DWORD PTR ds:0xa9af3b00
  4022a9:	adc    ebx,DWORD PTR [ecx+0x5c]
  4022ac:	fsub   QWORD PTR [ecx-0x34b20e4d]
  4022b2:	clc    
  4022b3:	mov    eax,DWORD PTR [ecx]
  4022b5:	dec    eax
  4022b6:	mov    cl,0xac
  4022b8:	popa   
  4022b9:	test   eax,0x8776f8c3
  4022be:	popf   
  4022bf:	and    BYTE PTR ds:0xc6e90cbd,al
  4022c5:	sbb    BYTE PTR [eax],al
  4022c7:	add    BYTE PTR [ecx],al
  4022c9:	mov    ebp,DWORD PTR [eax-0x73]
  4022cc:	jle    0x4022e6
  4022ce:	mov    eax,DWORD PTR [eax]
  4022d0:	or     eax,0xa9ae3b00
  4022d5:	adc    ecx,DWORD PTR [ebp+0x4102b500]
  4022db:	add    eax,0x4004cedc
  4022e0:	or     al,0x2e
  4022e2:	stos   DWORD PTR es:[edi],eax
  4022e3:	sub    bh,BYTE PTR [eax-0x6f0c5a9c]
  4022e9:	inc    eax
  4022ea:	sub    al,0x79
  4022ec:	movs   DWORD PTR es:[edi],DWORD PTR ds:[esi]
  4022ed:	dec    esp
  4022ee:	shl    DWORD PTR [ebx-0x33],0x83
  4022f2:	pusha  
  4022f3:	ret    
  4022f4:	imul   esp,DWORD PTR [eax+eax*1],0xd2310120
  4022fb:	add    ch,BYTE PTR [ebx-0x64]
  4022fe:	cmp    edi,edi
  402300:	test   eax,0x8dd8e114
  402305:	fsub   st,st(3)
  402307:	add    BYTE PTR [eax+0x74],ah
  40230a:	pop    ss
  40230b:	jo     0x402346
  40230d:	inc    edi
  40230e:	retf   
  40230f:	or     BYTE PTR [eax+0x11cc3c0],dh
  402315:	rol    BYTE PTR ds:0x4684b54b,0x54
  40231c:	add    BYTE PTR [ecx-0x6a41b3ac],bh
  402322:	mov    dh,BYTE PTR [esi-0x626a754f]
  402328:	call   0x4d24:0x351db91
  40232f:	cmc    
  402330:	push   ecx
  402331:	xchg   ebp,eax
  402332:	popa   
  402333:	ret    
  402334:	mov    ds:0xf25449ea,al
  402339:	cmps   DWORD PTR ds:[esi],DWORD PTR es:[edi]
  40233a:	sbb    cl,BYTE PTR [edx-0x33861654]
  402340:	and    al,0x0
  402342:	xchg   dh,al
  402344:	std    
  402345:	cmps   BYTE PTR ds:[esi],BYTE PTR es:[edi]
  402346:	mov    ebx,DWORD PTR [eax+esi*2]
  402349:	add    DWORD PTR ds:0x6130d425,ebp
  40234f:	xchg   BYTE PTR [esp+edx*1+0x50],al
  402353:	add    cl,dh
  402355:	sub    DWORD PTR [esi],esp
  402357:	jp     0x402318
  402359:	push   edx
  40235a:	cmp    al,0x46
  40235c:	jmp    0x144244c
  402361:	pop    edx
  402362:	call   0x723c177f
  402367:	enter  0x5ef4,0xa0
  40236b:	jbe    0x4023e8
  40236d:	pop    ebx
  40236e:	add    BYTE PTR [edi+0x58],ah
  402371:	or     BYTE PTR [edi+0x26],bl
  402374:	gs add al,bh
  402377:	retf   0x88bc
  40237a:	icebp  
  40237b:	sbb    eax,0xb63e6540
  402380:	cdq    
  402381:	cwde   
  402382:	dec    ebx
  402383:	out    0xed,al
  402385:	popa   
  402386:	dec    edx
  402387:	cmp    esp,DWORD PTR [ebp+0x16f8a81]
  40238d:	push   0x741bab60
  402392:	or     BYTE PTR cs:0x12040743,cl
  402399:	daa    
  40239a:	xchg   edx,eax
  40239b:	cmp    eax,0x16947a50
  4023a0:	jl     0x402336
  4023a2:	jp     0x4023f5
  4023a4:	push   esp
  4023a5:	jp     0x40233b
  4023a7:	jl     0x4023e3
  4023a9:	stos   BYTE PTR es:[edi],al
  4023aa:	test   DWORD PTR [eax+0x2],ebp
  4023ad:	outs   dx,BYTE PTR ds:[esi]
  4023ae:	push   ds
  4023af:	sub    ecx,DWORD PTR [edi]
  4023b1:	adc    bl,BYTE PTR [ecx]
  4023b3:	sbb    DWORD PTR [ebx],eax
  4023b5:	and    esi,DWORD PTR [esi]
  4023b7:	xchg   edi,eax
  4023b8:	test   eax,0xc9b6d758
  4023bd:	or     al,bh
  4023bf:	add    eax,0x66cb9a05
  4023c4:	bound  edx,QWORD PTR [esi]
  4023c6:	xchg   ebp,eax
  4023c7:	add    DWORD PTR [eax-0x59],ebx
  4023ca:	push   es
  4023cb:	push   ebx
  4023cc:	add    eax,0xbf5a5f3a
  4023d1:	and    DWORD PTR [edx+0x50],ebp
  4023d4:	add    DWORD PTR [ebx-0x45933e6],ecx
  4023da:	cdq    
  4023db:	add    BYTE PTR [ecx],al
  4023dd:	adc    ch,BYTE PTR [ebp-0x5b66a27a]
  4023e3:	inc    edi
  4023e4:	retf   
  4023e5:	bound  ebx,QWORD PTR [eax-0x2c]
  4023e8:	repnz push edx
  4023ea:	jbe    0x4023cf
  4023ec:	ret    
  4023ed:	call   0x1b4f244
  4023f2:	cmps   DWORD PTR ds:[esi],DWORD PTR es:[edi]
  4023f3:	call   FWORD PTR [eax-0x59]
  4023f6:	sub    DWORD PTR [edi],eax
  4023f8:	leave  
  4023f9:	loop   0x402396
  4023fb:	push   esp
  4023fc:	pop    eax
  4023fd:	adc    dh,BYTE PTR [esp+eiz*8]
  402400:	ja     0x402457
  402402:	sar    bh,1
  402404:	pop    esi
  402405:	lea    eax,[ebp-0x12]
  402408:	hlt    
  402409:	test   DWORD PTR [ecx-0x2fdf332c],ecx
  40240f:	ficomp WORD PTR [eax+edx*1+0x24]
  402413:	inc    esp
  402414:	add    DWORD PTR [eax],eax
  402416:	add    BYTE PTR [eax+0x69],ch
  402419:	add    BYTE PTR [eax],al
  40241b:	add    ah,al
  40241d:	xor    si,si
  402420:	xchg   ecx,eax
  402421:	mov    DWORD PTR [ebx],ebp
  402423:	cdq    
  402424:	cmp    eax,0xe255dce0
  402429:	adc    ah,BYTE PTR [ebp+0x640a6ee7]
  40242f:	rol    BYTE PTR [ecx],1
  402431:	sti    
  402432:	out    dx,eax
  402433:	arpl   dx,dx
  402435:	adc    ebp,DWORD PTR [edi-0x1]
  402438:	mov    DWORD PTR [ebp+0x75],esi
  40243b:	sub    BYTE PTR [ebp-0x13],cl
  40243e:	dec    ebx
  40243f:	and    eax,0x24523716
  402444:	jns    0x4023df
  402446:	jmp    0x4024be
  402448:	loop   0x40245d
  40244a:	dec    ebp
  40244b:	movs   DWORD PTR es:[edi],DWORD PTR ds:[esi]
  40244c:	xchg   ecx,eax
  40244d:	sar    DWORD PTR [ecx+edx*4+0x554b0b6d],cl
  402454:	jno    0x4024d0
  402456:	sub    esp,ebx
  402458:	ret    
  402459:	sub    eax,DWORD PTR [ecx]
  40245b:	mov    dh,0x21
  40245d:	call   FWORD PTR [ecx-0x6bdbb010]
  402463:	mov    BYTE PTR [edi+0x0],ch
  402466:	jge    0x402403
  402468:	adc    DWORD PTR [eax],eax
  40246a:	aas    
  40246b:	outs   dx,BYTE PTR ds:[esi]
  40246c:	imul   ebp,DWORD PTR [eax-0x5a63efab],0x7e
  402473:	in     al,dx
  402474:	jmp    0x8ccc14f9
  402479:	cld    
  40247a:	imul   eax,DWORD PTR [eax],0xdcfc6806
  402480:	add    edi,edi
  402482:	push   ebp
  402483:	and    DWORD PTR [ebx+0x55],ecx
  402486:	xchg   edi,eax
  402487:	rol    DWORD PTR [ecx+0x6e000068],cl
  40248d:	push   0x0
  40248f:	push   0x68
  402491:	push   0x8001036a
  402496:	aas    
  402497:	(bad)  
  402498:	test   eax,0xc1c40173
  40249d:	and    BYTE PTR [edx*2-0x4a66f3c],0x2e
  4024a5:	mov    ds:0x5ec06144,eax
  4024aa:	(bad)  
  4024ab:	aam    0x4a
  4024ad:	jno    0x4024e1
  4024af:	into   
  4024b0:	bound  esp,QWORD PTR [ebp+0x76]
  4024b3:	aam    0x1e
  4024b5:	sbb    edx,DWORD PTR [ecx-0x7c]
  4024b8:	sub    ebp,DWORD PTR [ebp+0x52]
  4024bb:	pop    edi
  4024bc:	lds    edx,FWORD PTR [edx+0x27b3bc5d]
  4024c2:	dec    esi
  4024c3:	xchg   DWORD PTR [ecx+0x6e],ecx
  4024c6:	mov    eax,0xadfbd425
  4024cb:	jns    0x402482
  4024cd:	xchg   ebx,eax
  4024ce:	adc    DWORD PTR [esi],esi
  4024d0:	sub    al,0x8f
  4024d2:	xchg   edx,eax
  4024d3:	lea    esi,[eax-0x5c713a9c]
  4024d9:	cmp    ch,dh
  4024db:	aas    
  4024dc:	adc    al,0xa6
  4024de:	movs   DWORD PTR es:[edi],DWORD PTR ds:[esi]
  4024df:	cmps   BYTE PTR ds:[esi],BYTE PTR es:[edi]
  4024e0:	lea    esp,[edi-0x3ad51cf8]
  4024e6:	add    al,0xd7
  4024e8:	jnp    0x4024a7
  4024ea:	push   ds
  4024eb:	clc    
  4024ec:	xchg   DWORD PTR [ebx+0x12602],edx
  4024f2:	add    BYTE PTR [edi+0x1],dh
  4024f8:	add    DWORD PTR [eax],eax
  4024fa:	add    BYTE PTR [eax],al
  4024fc:	add    DWORD PTR [eax],eax
  4024fe:	add    BYTE PTR [eax],al
  402500:	add    DWORD PTR [eax],eax
  402502:	add    BYTE PTR [eax],al
  402504:	add    DWORD PTR [eax],eax
  402506:	add    BYTE PTR [eax],al
  402508:	add    DWORD PTR [edx-0x6ffeff70],esi
  40250e:	xchg   edx,eax
  40250f:	add    eax,0x42004
  402514:	add    DWORD PTR [edi+0x7b27347b],eax
  40251a:	add    DWORD PTR [eax],0x2b
  40251d:	xchg   DWORD PTR [eax],ecx
  40251f:	in     al,dx
  402520:	inc    edx
  402521:	pop    ss
  402522:	fsubr  st(2),st
  402524:	stos   DWORD PTR es:[edi],eax
  402525:	jo     0x40256e
  402527:	mov    DWORD PTR [ebx-0x18],esi
  40252a:	ja     0x40252a
  40252c:	pop    ebp
  40252d:	cmp    esp,DWORD PTR [ecx-0x7c563cd7]
  402533:	movs   BYTE PTR es:[edi],BYTE PTR ds:[esi]
  402534:	jmp    0x22b5:0xd6dadd9c
  40253b:	fincstp 
  40253d:	jge    0x4024fa
  40253f:	.byte 0xd8
