
bfa6c845edd0b1cc722ebd7e16a554336a30607c15a97a1faa4f0194b58688d6.exe:     file format pei-i386


Disassembly of section .text:

00401000 <.text>:
  401000:	mov    edi,edi
  401002:	push   ebp
  401003:	mov    ebp,esp
  401005:	sub    esp,0x38
  401008:	push   edx
  401009:	push   esi
  40100a:	push   DWORD PTR [edx+0xb4]
  401010:	push   DWORD PTR [edx+0xf8]
  401016:	call   0x401ba8
  40101b:	add    esp,0xc
  40101e:	pop    edx
  40101f:	push   edx
  401020:	lea    edx,[edx]
  401022:	push   edx
  401023:	push   0x40304c
  401028:	pop    eax
  401029:	call   DWORD PTR cs:[eax]
  40102c:	test   eax,eax
  40102e:	jne    0x401020
  401030:	pop    edx
  401031:	push   edx
  401032:	mov    eax,0x0
  401037:	push   eax
  401038:	push   0x403000
  40103d:	pop    eax
  40103e:	call   DWORD PTR cs:[eax]
  401041:	pop    edx
  401042:	sub    esp,0xffffffc8
  401045:	mov    ebp,DWORD PTR [esp]
  401048:	add    esp,0x4
  40104b:	ret    
  40104c:	add    BYTE PTR [eax],al
  40104e:	add    BYTE PTR [eax],al
  401050:	mov    edi,edi
  401052:	push   ebp
  401053:	mov    ebp,esp
  401055:	sub    esp,0x38
  401058:	push   edx
  401059:	lea    ebx,[edx]
  40105b:	push   ebx
  40105c:	push   0x40304c
  401061:	pop    eax
  401062:	call   DWORD PTR cs:[eax]
  401065:	test   eax,eax
  401067:	jne    0x401059
  401069:	pop    edx
  40106a:	push   edx
  40106b:	push   DWORD PTR [edx+0x114]
  401071:	push   DWORD PTR [edx+0x4d0]
  401077:	push   eax
  401078:	call   0x401dbc
  40107d:	add    esp,0xc
  401080:	pop    edx
  401081:	push   edx
  401082:	push   0x0
  401084:	push   0x403000
  401089:	pop    eax
  40108a:	call   DWORD PTR cs:[eax]
  40108d:	pop    edx
  40108e:	sub    esp,0xffffffc8
  401091:	mov    ebp,DWORD PTR [esp]
  401094:	add    esp,0x4
  401097:	ret    
  401098:	add    BYTE PTR [eax],al
  40109a:	add    BYTE PTR [eax],al
  40109c:	mov    edi,edi
  40109e:	push   ebp
  40109f:	mov    ebp,esp
  4010a1:	sub    esp,0x24
  4010a4:	push   edx
  4010a5:	push   0x0
  4010a7:	push   0x403004
  4010ac:	pop    eax
  4010ad:	call   DWORD PTR cs:[eax]
  4010b0:	pop    edx
  4010b1:	push   edx
  4010b2:	push   DWORD PTR [edx+0x1ec]
  4010b8:	push   ecx
  4010b9:	push   DWORD PTR [edx+0x4e8]
  4010bf:	push   DWORD PTR [edx+0x308]
  4010c5:	call   0x401910
  4010ca:	add    esp,0x10
  4010cd:	pop    edx
  4010ce:	push   edx
  4010cf:	push   0x0
  4010d1:	push   0x40306c
  4010d6:	pop    eax
  4010d7:	call   DWORD PTR cs:[eax]
  4010da:	pop    edx
  4010db:	sub    esp,0xffffffdc
  4010de:	mov    ebp,DWORD PTR [esp]
  4010e1:	add    esp,0x4
  4010e4:	ret    
  4010e5:	add    BYTE PTR [eax],al
  4010e7:	add    BYTE PTR [ebx-0x74aa9f01],cl
  4010ed:	in     al,dx
  4010ee:	sub    esp,0x58
  4010f1:	push   edx
  4010f2:	mov    edi,0x0
  4010f7:	push   edi
  4010f8:	push   0x40303c
  4010fd:	pop    eax
  4010fe:	call   DWORD PTR cs:[eax]
  401101:	pop    edx
  401102:	test   eax,eax
  401104:	je     0x401107
  401106:	ret    
  401107:	push   edx
  401108:	mov    ebx,0x0
  40110d:	push   ebx
  40110e:	push   0x40300c
  401113:	pop    eax
  401114:	call   DWORD PTR cs:[eax]
  401117:	pop    edx
  401118:	push   edx
  401119:	push   eax
  40111a:	push   edi
  40111b:	push   DWORD PTR [edx+0x244]
  401121:	call   0x401a30
  401126:	add    esp,0xc
  401129:	pop    edx
  40112a:	mov    edi,0x40304c
  40112f:	mov    edi,DWORD PTR [edi]
  401131:	push   edi
  401132:	push   DWORD PTR [edx+0x3b0]
  401138:	pop    edi
  401139:	call   edi
  40113b:	sub    esp,0xffffffa8
  40113e:	mov    ebp,DWORD PTR [esp]
  401141:	add    esp,0x4
  401144:	ret    
  401145:	add    BYTE PTR [eax],al
  401147:	add    BYTE PTR [edi],cl
  401149:	sbb    BYTE PTR [edx+0xffffff],0x0
  401150:	mov    edi,edi
  401152:	push   ebp
  401153:	mov    ebp,esp
  401155:	sub    esp,0x28
  401158:	push   edx
  401159:	push   DWORD PTR [edx+0x11c]
  40115f:	push   ebx
  401160:	call   0x401d74
  401165:	add    esp,0x8
  401168:	pop    edx
  401169:	push   edx
  40116a:	mov    esi,0x0
  40116f:	push   esi
  401170:	push   0x403068
  401175:	pop    eax
  401176:	call   DWORD PTR cs:[eax]
  401179:	pop    edx
  40117a:	push   edx
  40117b:	mov    esi,0x0
  401180:	push   esi
  401181:	push   0x403024
  401186:	pop    eax
  401187:	call   DWORD PTR cs:[eax]
  40118a:	pop    edx
  40118b:	sub    esp,0xffffffd8
  40118e:	mov    ebp,DWORD PTR [esp]
  401191:	add    esp,0x4
  401194:	ret    
	...
  4011a9:	add    BYTE PTR [eax],al
  4011ab:	add    BYTE PTR [ebx-0x1374aa01],cl
  4011b1:	sub    esp,0x30
  4011b4:	push   edx
  4011b5:	push   0x0
  4011b7:	push   0x403024
  4011bc:	pop    eax
  4011bd:	call   DWORD PTR cs:[eax]
  4011c0:	pop    edx
  4011c1:	push   edx
  4011c2:	push   edi
  4011c3:	push   DWORD PTR [edx+0x1c]
  4011c6:	push   eax
  4011c7:	call   0x401150
  4011cc:	add    esp,0xc
  4011cf:	pop    edx
  4011d0:	push   edx
  4011d1:	push   0x0
  4011d3:	push   0x40300c
  4011d8:	pop    eax
  4011d9:	call   DWORD PTR cs:[eax]
  4011dc:	pop    edx
  4011dd:	sub    esp,0xffffffd0
  4011e0:	mov    ebp,DWORD PTR [esp]
  4011e3:	add    esp,0x4
  4011e6:	ret    
	...
  4011ef:	add    BYTE PTR [ebx-0x1374aa01],cl
  4011f5:	sub    esp,0x2c
  4011f8:	push   edx
  4011f9:	mov    esi,0x0
  4011fe:	push   esi
  4011ff:	push   0x403010
  401204:	pop    eax
  401205:	call   DWORD PTR cs:[eax]
  401208:	pop    edx
  401209:	push   edx
  40120a:	push   DWORD PTR [edx+0x278]
  401210:	push   ebx
  401211:	push   eax
  401212:	push   esi
  401213:	call   0x4019a0
  401218:	add    esp,0x10
  40121b:	pop    edx
  40121c:	push   edx
  40121d:	mov    edi,0x0
  401222:	push   edi
  401223:	push   0x403030
  401228:	pop    eax
  401229:	call   DWORD PTR cs:[eax]
  40122c:	pop    edx
  40122d:	sub    esp,0xffffffd4
  401230:	mov    ebp,DWORD PTR [esp]
  401233:	add    esp,0x4
  401236:	ret    
  401237:	add    BYTE PTR [ebx-0x1374aa01],cl
  40123d:	sub    esp,0x5c
  401240:	push   edx
  401241:	lea    edx,[edx]
  401243:	push   edx
  401244:	push   0x40304c
  401249:	pop    eax
  40124a:	call   DWORD PTR cs:[eax]
  40124d:	test   eax,eax
  40124f:	jne    0x401241
  401251:	pop    edx
  401252:	push   edx
  401253:	push   DWORD PTR [edx+0x3ec]
  401259:	push   DWORD PTR [edx+0xd8]
  40125f:	push   esi
  401260:	call   0x4013a0
  401265:	add    esp,0xc
  401268:	pop    edx
  401269:	push   edx
  40126a:	mov    esi,0x0
  40126f:	push   esi
  401270:	push   0x403030
  401275:	pop    eax
  401276:	call   DWORD PTR cs:[eax]
  401279:	pop    edx
  40127a:	sub    esp,0xffffffa4
  40127d:	mov    ebp,DWORD PTR [esp]
  401280:	add    esp,0x4
  401283:	ret    
	...
  40128c:	mov    edi,edi
  40128e:	push   ebp
  40128f:	mov    ebp,esp
  401291:	sub    esp,0x40
  401294:	push   edx
  401295:	push   ecx
  401296:	push   ebx
  401297:	call   0x40170c
  40129c:	add    esp,0x8
  40129f:	pop    edx
  4012a0:	push   edx
  4012a1:	push   0x0
  4012a3:	push   0x403024
  4012a8:	pop    eax
  4012a9:	call   DWORD PTR cs:[eax]
  4012ac:	pop    edx
  4012ad:	push   edx
  4012ae:	mov    esi,0x0
  4012b3:	push   esi
  4012b4:	push   0x403008
  4012b9:	pop    eax
  4012ba:	call   DWORD PTR cs:[eax]
  4012bd:	pop    edx
  4012be:	sub    esp,0xffffffc0
  4012c1:	mov    ebp,DWORD PTR [esp]
  4012c4:	add    esp,0x4
  4012c7:	ret    
  4012c8:	add    BYTE PTR [eax],al
  4012ca:	add    BYTE PTR [eax],al
  4012cc:	mov    edi,edi
  4012ce:	push   ebp
  4012cf:	mov    ebp,esp
  4012d1:	sub    esp,0x3c
  4012d4:	push   edx
  4012d5:	push   0x0
  4012d7:	push   0x403024
  4012dc:	pop    eax
  4012dd:	call   DWORD PTR cs:[eax]
  4012e0:	pop    edx
  4012e1:	push   edx
  4012e2:	push   DWORD PTR [edx+0x568]
  4012e8:	push   ebx
  4012e9:	call   0x401870
  4012ee:	add    esp,0x8
  4012f1:	pop    edx
  4012f2:	push   edx
  4012f3:	push   0x0
  4012f5:	push   0x403008
  4012fa:	pop    eax
  4012fb:	call   DWORD PTR cs:[eax]
  4012fe:	pop    edx
  4012ff:	sub    esp,0xffffffc4
  401302:	mov    ebp,DWORD PTR [esp]
  401305:	add    esp,0x4
  401308:	ret    
  401309:	add    BYTE PTR [eax],al
  40130b:	add    BYTE PTR [ebx-0x1374aa01],cl
  401311:	sub    esp,0x54
  401314:	push   edx
  401315:	push   DWORD PTR [edx+0x18]
  401318:	push   DWORD PTR [edx+0x478]
  40131e:	push   edi
  40131f:	call   0x401ad8
  401324:	add    esp,0xc
  401327:	pop    edx
  401328:	push   edx
  401329:	push   0x0
  40132b:	push   0x40303c
  401330:	pop    eax
  401331:	call   DWORD PTR cs:[eax]
  401334:	pop    edx
  401335:	push   edx
  401336:	mov    ecx,0x0
  40133b:	push   ecx
  40133c:	push   0x403024
  401341:	pop    eax
  401342:	call   DWORD PTR cs:[eax]
  401345:	pop    edx
  401346:	sub    esp,0xffffffac
  401349:	mov    ebp,DWORD PTR [esp]
  40134c:	add    esp,0x4
  40134f:	ret    
  401350:	add    BYTE PTR [eax],al
  401352:	add    BYTE PTR [eax],al
  401354:	mov    edi,edi
  401356:	push   ebp
  401357:	mov    ebp,esp
  401359:	sub    esp,0x50
  40135c:	push   edx
  40135d:	mov    esi,0x0
  401362:	push   esi
  401363:	push   0x403030
  401368:	pop    eax
  401369:	call   DWORD PTR cs:[eax]
  40136c:	pop    edx
  40136d:	push   edx
  40136e:	push   DWORD PTR [edx+0x408]
  401374:	push   esi
  401375:	push   DWORD PTR [edx+0x2ac]
  40137b:	push   DWORD PTR [edx+0xa4]
  401381:	call   0x4011ac
  401386:	add    esp,0x10
  401389:	pop    edx
  40138a:	push   edx
  40138b:	push   0x403034
  401390:	pop    eax
  401391:	call   DWORD PTR cs:[eax]
  401394:	pop    edx
  401395:	sub    esp,0xffffffb0
  401398:	mov    ebp,DWORD PTR [esp]
  40139b:	add    esp,0x4
  40139e:	ret    
  40139f:	add    BYTE PTR [ebx-0x1374aa01],cl
  4013a5:	sub    esp,0x38
  4013a8:	push   edx
  4013a9:	push   0x403034
  4013ae:	pop    eax
  4013af:	call   DWORD PTR cs:[eax]
  4013b2:	pop    edx
  4013b3:	push   edx
  4013b4:	push   ebx
  4013b5:	push   eax
  4013b6:	push   DWORD PTR [edx+0x554]
  4013bc:	push   esi
  4013bd:	call   0x40159c
  4013c2:	add    esp,0x10
  4013c5:	pop    edx
  4013c6:	push   edx
  4013c7:	push   0x0
  4013c9:	push   0x403068
  4013ce:	pop    eax
  4013cf:	call   DWORD PTR cs:[eax]
  4013d2:	pop    edx
  4013d3:	sub    esp,0xffffffc8
  4013d6:	mov    ebp,DWORD PTR [esp]
  4013d9:	add    esp,0x4
  4013dc:	ret    
  4013dd:	add    BYTE PTR [eax],al
  4013df:	add    BYTE PTR [ebx-0x1374aa01],cl
  4013e5:	sub    esp,0x60
  4013e8:	push   edx
  4013e9:	push   0x0
  4013eb:	push   0x40303c
  4013f0:	pop    eax
  4013f1:	call   DWORD PTR cs:[eax]
  4013f4:	pop    edx
  4013f5:	push   edx
  4013f6:	push   DWORD PTR [edx+0x36c]
  4013fc:	push   DWORD PTR [edx+0x4e0]
  401402:	push   DWORD PTR [edx+0x154]
  401408:	call   0x401000
  40140d:	add    esp,0xc
  401410:	pop    edx
  401411:	push   edx
  401412:	lea    ecx,[edx]
  401414:	push   ecx
  401415:	push   0x40304c
  40141a:	pop    eax
  40141b:	call   DWORD PTR cs:[eax]
  40141e:	test   eax,eax
  401420:	jne    0x401412
  401422:	pop    edx
  401423:	sub    esp,0xffffffa0
  401426:	mov    ebp,DWORD PTR [esp]
  401429:	add    esp,0x4
  40142c:	ret    
	...
  401435:	add    BYTE PTR [eax],al
  401437:	add    BYTE PTR [ebx],ch
  401439:	rol    BYTE PTR [ecx+0x47f000c2],cl
  40143f:	add    BYTE PTR [edx+0x33],dl
  401442:	leave  
  401443:	or     ecx,0x403090
  401449:	and    WORD PTR [ecx],0x0
  40144d:	push   DWORD PTR [ecx]
  40144f:	pop    eax
  401450:	mov    edx,eax
  401452:	push   0x3c
  401454:	add    DWORD PTR [esp],eax
  401457:	pop    ecx
  401458:	push   eax
  401459:	mov    edi,esp
  40145b:	mov    esi,ecx
  40145d:	movs   DWORD PTR es:[edi],DWORD PTR ds:[esi]
  40145e:	pop    eax
  40145f:	mov    edx,DWORD PTR [eax+edx*1+0x1c]
  401463:	ror    edx,0x8
  401466:	xor    eax,eax
  401468:	or     al,0x80
  40146a:	cmp    al,dl
  40146c:	pop    edx
  40146d:	ja     0x401478
  40146f:	nop
  401470:	nop
  401471:	nop
  401472:	nop
  401473:	jmp    0x401148
  401478:	xor    esp,esp
  40147a:	int    0x3
  40147c:	mov    edi,edi
  40147e:	push   ebp
  40147f:	mov    ebp,esp
  401481:	sub    esp,0x3c
  401484:	push   edx
  401485:	mov    ebx,0x0
  40148a:	push   ebx
  40148b:	push   0x40305c
  401490:	pop    eax
  401491:	call   DWORD PTR cs:[eax]
  401494:	pop    edx
  401495:	push   edx
  401496:	push   edi
  401497:	push   DWORD PTR [edx+0x3c8]
  40149d:	call   0x401758
  4014a2:	add    esp,0x8
  4014a5:	pop    edx
  4014a6:	push   edx
  4014a7:	push   0x0
  4014a9:	push   0x403024
  4014ae:	pop    eax
  4014af:	call   DWORD PTR cs:[eax]
  4014b2:	pop    edx
  4014b3:	sub    esp,0xffffffc4
  4014b6:	mov    ebp,DWORD PTR [esp]
  4014b9:	add    esp,0x4
  4014bc:	ret    
  4014bd:	add    BYTE PTR [eax],al
  4014bf:	add    BYTE PTR [ebx-0x1374aa01],cl
  4014c5:	sub    esp,0x28
  4014c8:	push   edx
  4014c9:	mov    esi,0x0
  4014ce:	push   esi
  4014cf:	push   0x403010
  4014d4:	pop    eax
  4014d5:	call   DWORD PTR cs:[eax]
  4014d8:	pop    edx
  4014d9:	push   edx
  4014da:	push   DWORD PTR [edx+0x144]
  4014e0:	push   edi
  4014e1:	push   ebx
  4014e2:	call   0x401b68
  4014e7:	add    esp,0xc
  4014ea:	pop    edx
  4014eb:	push   edx
  4014ec:	lea    ebx,[edx]
  4014ee:	push   ebx
  4014ef:	push   0x40304c
  4014f4:	pop    eax
  4014f5:	call   DWORD PTR cs:[eax]
  4014f8:	test   eax,eax
  4014fa:	jne    0x4014ec
  4014fc:	pop    edx
  4014fd:	sub    esp,0xffffffd8
  401500:	mov    ebp,DWORD PTR [esp]
  401503:	add    esp,0x4
  401506:	ret    
  401507:	add    BYTE PTR [eax],al
  401509:	add    BYTE PTR [eax],al
  40150b:	add    BYTE PTR [ebx-0x1374aa01],cl
  401511:	sub    esp,0x58
  401514:	push   edx
  401515:	push   0x0
  401517:	push   0x403004
  40151c:	pop    eax
  40151d:	call   DWORD PTR cs:[eax]
  401520:	pop    edx
  401521:	push   edx
  401522:	push   DWORD PTR [edx+0x2f4]
  401528:	push   DWORD PTR [edx+0x250]
  40152e:	call   0x401bf0
  401533:	add    esp,0x8
  401536:	pop    edx
  401537:	push   edx
  401538:	push   0x0
  40153a:	push   0x40305c
  40153f:	pop    eax
  401540:	call   DWORD PTR cs:[eax]
  401543:	pop    edx
  401544:	sub    esp,0xffffffa8
  401547:	mov    ebp,DWORD PTR [esp]
  40154a:	add    esp,0x4
  40154d:	ret    
  40154e:	add    BYTE PTR [eax],al
  401550:	add    BYTE PTR [eax],al
  401552:	add    BYTE PTR [eax],al
  401554:	mov    edi,edi
  401556:	push   ebp
  401557:	mov    ebp,esp
  401559:	sub    esp,0x50
  40155c:	push   edx
  40155d:	push   DWORD PTR [edx+0x3e0]
  401563:	push   DWORD PTR [edx+0x5c0]
  401569:	call   0x4016c4
  40156e:	add    esp,0x8
  401571:	pop    edx
  401572:	push   edx
  401573:	push   0x0
  401575:	push   0x403024
  40157a:	pop    eax
  40157b:	call   DWORD PTR cs:[eax]
  40157e:	pop    edx
  40157f:	push   edx
  401580:	mov    ecx,0x0
  401585:	push   ecx
  401586:	push   0x40306c
  40158b:	pop    eax
  40158c:	call   DWORD PTR cs:[eax]
  40158f:	pop    edx
  401590:	sub    esp,0xffffffb0
  401593:	mov    ebp,DWORD PTR [esp]
  401596:	add    esp,0x4
  401599:	ret    
  40159a:	add    BYTE PTR [eax],al
  40159c:	mov    edi,edi
  40159e:	push   ebp
  40159f:	mov    ebp,esp
  4015a1:	sub    esp,0x1c
  4015a4:	push   edx
  4015a5:	lea    edx,[edx]
  4015a7:	push   edx
  4015a8:	push   0x40304c
  4015ad:	pop    eax
  4015ae:	call   DWORD PTR cs:[eax]
  4015b1:	test   eax,eax
  4015b3:	jne    0x4015a5
  4015b5:	pop    edx
  4015b6:	push   edx
  4015b7:	push   DWORD PTR [edx+0x3e8]
  4015bd:	push   DWORD PTR [edx+0x2cc]
  4015c3:	push   edi
  4015c4:	call   0x401b20
  4015c9:	add    esp,0xc
  4015cc:	pop    edx
  4015cd:	push   edx
  4015ce:	mov    eax,0x0
  4015d3:	push   eax
  4015d4:	push   0x403008
  4015d9:	pop    eax
  4015da:	call   DWORD PTR cs:[eax]
  4015dd:	pop    edx
  4015de:	sub    esp,0xffffffe4
  4015e1:	mov    ebp,DWORD PTR [esp]
  4015e4:	add    esp,0x4
  4015e7:	ret    
  4015e8:	mov    edi,edi
  4015ea:	push   ebp
  4015eb:	mov    ebp,esp
  4015ed:	sub    esp,0x40
  4015f0:	push   edx
  4015f1:	push   eax
  4015f2:	push   ecx
  4015f3:	call   0x401d28
  4015f8:	add    esp,0x8
  4015fb:	pop    edx
  4015fc:	push   edx
  4015fd:	mov    ecx,0x0
  401602:	push   ecx
  401603:	push   0x403024
  401608:	pop    eax
  401609:	call   DWORD PTR cs:[eax]
  40160c:	pop    edx
  40160d:	push   edx
  40160e:	mov    edi,0x0
  401613:	push   edi
  401614:	push   0x403008
  401619:	pop    eax
  40161a:	call   DWORD PTR cs:[eax]
  40161d:	pop    edx
  40161e:	sub    esp,0xffffffc0
  401621:	mov    ebp,DWORD PTR [esp]
  401624:	add    esp,0x4
  401627:	ret    
	...
  401630:	mov    edi,edi
  401632:	push   ebp
  401633:	mov    ebp,esp
  401635:	sub    esp,0x5c
  401638:	push   edx
  401639:	mov    edx,0x0
  40163e:	push   edx
  40163f:	push   0x40303c
  401644:	pop    eax
  401645:	call   DWORD PTR cs:[eax]
  401648:	pop    edx
  401649:	push   edx
  40164a:	push   DWORD PTR [edx+0x2c]
  40164d:	push   esi
  40164e:	push   edi
  40164f:	call   0x40130c
  401654:	add    esp,0xc
  401657:	pop    edx
  401658:	push   edx
  401659:	push   0x0
  40165b:	push   0x40303c
  401660:	pop    eax
  401661:	call   DWORD PTR cs:[eax]
  401664:	pop    edx
  401665:	sub    esp,0xffffffa4
  401668:	mov    ebp,DWORD PTR [esp]
  40166b:	add    esp,0x4
  40166e:	ret    
	...
  40167b:	add    BYTE PTR [ebx-0x1374aa01],cl
  401681:	sub    esp,0x24
  401684:	push   edx
  401685:	mov    edx,0x0
  40168a:	push   edx
  40168b:	push   0x403010
  401690:	pop    eax
  401691:	call   DWORD PTR cs:[eax]
  401694:	pop    edx
  401695:	push   edx
  401696:	push   eax
  401697:	push   DWORD PTR [edx+0xc4]
  40169d:	call   0x4014c0
  4016a2:	add    esp,0x8
  4016a5:	pop    edx
  4016a6:	push   edx
  4016a7:	mov    ecx,0x0
  4016ac:	push   ecx
  4016ad:	push   0x403068
  4016b2:	pop    eax
  4016b3:	call   DWORD PTR cs:[eax]
  4016b6:	pop    edx
  4016b7:	sub    esp,0xffffffdc
  4016ba:	mov    ebp,DWORD PTR [esp]
  4016bd:	add    esp,0x4
  4016c0:	ret    
  4016c1:	add    BYTE PTR [eax],al
  4016c3:	add    BYTE PTR [ebx-0x1374aa01],cl
  4016c9:	sub    esp,0x58
  4016cc:	push   edx
  4016cd:	push   DWORD PTR [edx+0x13c]
  4016d3:	push   DWORD PTR [edx+0x234]
  4016d9:	push   esi
  4016da:	push   ebx
  4016db:	call   0x401824
  4016e0:	add    esp,0x10
  4016e3:	pop    edx
  4016e4:	push   edx
  4016e5:	mov    eax,0x0
  4016ea:	push   eax
  4016eb:	push   0x403008
  4016f0:	pop    eax
  4016f1:	call   DWORD PTR cs:[eax]
  4016f4:	pop    edx
  4016f5:	push   edx
  4016f6:	push   0x0
  4016f8:	push   0x403024
  4016fd:	pop    eax
  4016fe:	call   DWORD PTR cs:[eax]
  401701:	pop    edx
  401702:	sub    esp,0xffffffa8
  401705:	mov    ebp,DWORD PTR [esp]
  401708:	add    esp,0x4
  40170b:	ret    
  40170c:	mov    edi,edi
  40170e:	push   ebp
  40170f:	mov    ebp,esp
  401711:	sub    esp,0x4c
  401714:	push   edx
  401715:	push   DWORD PTR [edx+0x2d0]
  40171b:	push   DWORD PTR [edx+0x45c]
  401721:	push   eax
  401722:	push   esi
  401723:	call   0x4019e0
  401728:	add    esp,0x10
  40172b:	pop    edx
  40172c:	push   edx
  40172d:	mov    edi,0x0
  401732:	push   edi
  401733:	push   0x40300c
  401738:	pop    eax
  401739:	call   DWORD PTR cs:[eax]
  40173c:	pop    edx
  40173d:	push   edx
  40173e:	push   0x0
  401740:	push   0x403030
  401745:	pop    eax
  401746:	call   DWORD PTR cs:[eax]
  401749:	pop    edx
  40174a:	sub    esp,0xffffffb4
  40174d:	mov    ebp,DWORD PTR [esp]
  401750:	add    esp,0x4
  401753:	ret    
  401754:	add    BYTE PTR [eax],al
  401756:	add    BYTE PTR [eax],al
  401758:	mov    edi,edi
  40175a:	push   ebp
  40175b:	mov    ebp,esp
  40175d:	sub    esp,0x24
  401760:	push   edx
  401761:	push   DWORD PTR [edx+0x25c]
  401767:	push   DWORD PTR [edx+0x1ac]
  40176d:	call   0x401c94
  401772:	add    esp,0x8
  401775:	pop    edx
  401776:	push   edx
  401777:	mov    ebx,0x0
  40177c:	push   ebx
  40177d:	push   0x403010
  401782:	pop    eax
  401783:	call   DWORD PTR cs:[eax]
  401786:	pop    edx
  401787:	push   edx
  401788:	push   0x0
  40178a:	push   0x403000
  40178f:	pop    eax
  401790:	call   DWORD PTR cs:[eax]
  401793:	pop    edx
  401794:	sub    esp,0xffffffdc
  401797:	mov    ebp,DWORD PTR [esp]
  40179a:	add    esp,0x4
  40179d:	ret    
  40179e:	add    BYTE PTR [eax],al
  4017a0:	mov    edi,edi
  4017a2:	push   ebp
  4017a3:	mov    ebp,esp
  4017a5:	sub    esp,0x24
  4017a8:	push   edx
  4017a9:	push   0x403020
  4017ae:	pop    eax
  4017af:	call   DWORD PTR cs:[eax]
  4017b2:	pop    edx
  4017b3:	push   edx
  4017b4:	push   eax
  4017b5:	push   ebx
  4017b6:	push   ecx
  4017b7:	push   eax
  4017b8:	call   0x401a7c
  4017bd:	add    esp,0x10
  4017c0:	pop    edx
  4017c1:	push   edx
  4017c2:	mov    ebx,0x0
  4017c7:	push   ebx
  4017c8:	push   0x40305c
  4017cd:	pop    eax
  4017ce:	call   DWORD PTR cs:[eax]
  4017d1:	pop    edx
  4017d2:	sub    esp,0xffffffdc
  4017d5:	mov    ebp,DWORD PTR [esp]
  4017d8:	add    esp,0x4
  4017db:	ret    
  4017dc:	add    BYTE PTR [eax],al
  4017de:	add    BYTE PTR [eax],al
  4017e0:	mov    edi,edi
  4017e2:	push   ebp
  4017e3:	mov    ebp,esp
  4017e5:	sub    esp,0x24
  4017e8:	push   edx
  4017e9:	push   DWORD PTR [edx+0x584]
  4017ef:	push   esi
  4017f0:	call   0x401e44
  4017f5:	add    esp,0x8
  4017f8:	pop    edx
  4017f9:	push   edx
  4017fa:	mov    ebx,0x0
  4017ff:	push   ebx
  401800:	push   0x403004
  401805:	pop    eax
  401806:	call   DWORD PTR cs:[eax]
  401809:	pop    edx
  40180a:	push   edx
  40180b:	push   0x0
  40180d:	push   0x403000
  401812:	pop    eax
  401813:	call   DWORD PTR cs:[eax]
  401816:	pop    edx
  401817:	sub    esp,0xffffffdc
  40181a:	mov    ebp,DWORD PTR [esp]
  40181d:	add    esp,0x4
  401820:	ret    
  401821:	add    BYTE PTR [eax],al
  401823:	add    BYTE PTR [ebx-0x1374aa01],cl
  401829:	sub    esp,0x34
  40182c:	push   edx
  40182d:	push   esi
  40182e:	push   DWORD PTR [edx+0x12c]
  401834:	push   DWORD PTR [edx+0x4fc]
  40183a:	call   0x4018b4
  40183f:	add    esp,0xc
  401842:	pop    edx
  401843:	push   edx
  401844:	mov    edi,0x0
  401849:	push   edi
  40184a:	push   0x403030
  40184f:	pop    eax
  401850:	call   DWORD PTR cs:[eax]
  401853:	pop    edx
  401854:	push   edx
  401855:	push   0x0
  401857:	push   0x403068
  40185c:	pop    eax
  40185d:	call   DWORD PTR cs:[eax]
  401860:	pop    edx
  401861:	sub    esp,0xffffffcc
  401864:	mov    ebp,DWORD PTR [esp]
  401867:	add    esp,0x4
  40186a:	ret    
  40186b:	add    BYTE PTR [eax],al
  40186d:	add    BYTE PTR [eax],al
  40186f:	add    BYTE PTR [ebx-0x1374aa01],cl
  401875:	sub    esp,0x5c
  401878:	push   edx
  401879:	push   ecx
  40187a:	push   DWORD PTR [edx+0x398]
  401880:	push   edi
  401881:	push   ecx
  401882:	call   0x40147c
  401887:	add    esp,0x10
  40188a:	pop    edx
  40188b:	push   edx
  40188c:	mov    edi,0x0
  401891:	push   edi
  401892:	push   0x403000
  401897:	pop    eax
  401898:	call   DWORD PTR cs:[eax]
  40189b:	pop    edx
  40189c:	push   edx
  40189d:	push   0x0
  40189f:	push   0x403000
  4018a4:	pop    eax
  4018a5:	call   DWORD PTR cs:[eax]
  4018a8:	pop    edx
  4018a9:	sub    esp,0xffffffa4
  4018ac:	mov    ebp,DWORD PTR [esp]
  4018af:	add    esp,0x4
  4018b2:	ret    
  4018b3:	add    BYTE PTR [ebx-0x1374aa01],cl
  4018b9:	sub    esp,0x60
  4018bc:	push   edx
  4018bd:	mov    ebx,0x0
  4018c2:	push   ebx
  4018c3:	push   0x403068
  4018c8:	pop    eax
  4018c9:	call   DWORD PTR cs:[eax]
  4018cc:	pop    edx
  4018cd:	push   edx
  4018ce:	push   DWORD PTR [edx+0x3b4]
  4018d4:	push   DWORD PTR [edx+0x460]
  4018da:	push   DWORD PTR [edx+0x394]
  4018e0:	push   DWORD PTR [edx+0x2f8]
  4018e6:	call   0x401958
  4018eb:	add    esp,0x10
  4018ee:	pop    edx
  4018ef:	push   edx
  4018f0:	mov    edi,0x0
  4018f5:	push   edi
  4018f6:	push   0x403008
  4018fb:	pop    eax
  4018fc:	call   DWORD PTR cs:[eax]
  4018ff:	pop    edx
  401900:	sub    esp,0xffffffa0
  401903:	mov    ebp,DWORD PTR [esp]
  401906:	add    esp,0x4
  401909:	ret    
  40190a:	add    BYTE PTR [eax],al
  40190c:	add    BYTE PTR [eax],al
  40190e:	add    BYTE PTR [eax],al
  401910:	mov    edi,edi
  401912:	push   ebp
  401913:	mov    ebp,esp
  401915:	sub    esp,0x58
  401918:	push   edx
  401919:	mov    edx,0x0
  40191e:	push   edx
  40191f:	push   0x40305c
  401924:	pop    eax
  401925:	call   DWORD PTR cs:[eax]
  401928:	pop    edx
  401929:	push   edx
  40192a:	push   DWORD PTR [edx+0x2f4]
  401930:	push   eax
  401931:	call   0x4017a0
  401936:	add    esp,0x8
  401939:	pop    edx
  40193a:	push   edx
  40193b:	mov    eax,0x0
  401940:	push   eax
  401941:	push   0x403008
  401946:	pop    eax
  401947:	call   DWORD PTR cs:[eax]
  40194a:	pop    edx
  40194b:	sub    esp,0xffffffa8
  40194e:	mov    ebp,DWORD PTR [esp]
  401951:	add    esp,0x4
  401954:	ret    
  401955:	add    BYTE PTR [eax],al
  401957:	add    BYTE PTR [ebx-0x1374aa01],cl
  40195d:	sub    esp,0x58
  401960:	push   edx
  401961:	mov    edi,0x0
  401966:	push   edi
  401967:	push   0x403024
  40196c:	pop    eax
  40196d:	call   DWORD PTR cs:[eax]
  401970:	pop    edx
  401971:	push   edx
  401972:	push   DWORD PTR [edx+0x418]
  401978:	push   eax
  401979:	push   esi
  40197a:	push   ecx
  40197b:	call   0x401dfc
  401980:	add    esp,0x10
  401983:	pop    edx
  401984:	push   edx
  401985:	mov    eax,0x0
  40198a:	push   eax
  40198b:	push   0x403038
  401990:	pop    eax
  401991:	call   DWORD PTR cs:[eax]
  401994:	pop    edx
  401995:	sub    esp,0xffffffa8
  401998:	mov    ebp,DWORD PTR [esp]
  40199b:	add    esp,0x4
  40199e:	ret    
  40199f:	add    BYTE PTR [ebx-0x1374aa01],cl
  4019a5:	sub    esp,0x40
  4019a8:	push   edx
  4019a9:	push   eax
  4019aa:	push   DWORD PTR [edx]
  4019ac:	push   DWORD PTR [edx+0x40c]
  4019b2:	call   0x40128c
  4019b7:	add    esp,0xc
  4019ba:	pop    edx
  4019bb:	push   edx
  4019bc:	push   0x0
  4019be:	push   0x403038
  4019c3:	pop    eax
  4019c4:	call   DWORD PTR cs:[eax]
  4019c7:	pop    edx
  4019c8:	push   edx
  4019c9:	push   0x403034
  4019ce:	pop    eax
  4019cf:	call   DWORD PTR cs:[eax]
  4019d2:	pop    edx
  4019d3:	sub    esp,0xffffffc0
  4019d6:	mov    ebp,DWORD PTR [esp]
  4019d9:	add    esp,0x4
  4019dc:	ret    
  4019dd:	add    BYTE PTR [eax],al
  4019df:	add    BYTE PTR [ebx-0x1374aa01],cl
  4019e5:	sub    esp,0x48
  4019e8:	push   edx
  4019e9:	lea    eax,[edx]
  4019eb:	push   eax
  4019ec:	push   0x40304c
  4019f1:	pop    eax
  4019f2:	call   DWORD PTR cs:[eax]
  4019f5:	test   eax,eax
  4019f7:	jne    0x4019e9
  4019f9:	pop    edx
  4019fa:	push   edx
  4019fb:	push   esi
  4019fc:	push   DWORD PTR [edx+0x60]
  4019ff:	push   DWORD PTR [edx+0x460]
  401a05:	call   0x4015e8
  401a0a:	add    esp,0xc
  401a0d:	pop    edx
  401a0e:	push   edx
  401a0f:	mov    eax,0x0
  401a14:	push   eax
  401a15:	push   0x40306c
  401a1a:	pop    eax
  401a1b:	call   DWORD PTR cs:[eax]
  401a1e:	pop    edx
  401a1f:	sub    esp,0xffffffb8
  401a22:	mov    ebp,DWORD PTR [esp]
  401a25:	add    esp,0x4
  401a28:	ret    
  401a29:	add    BYTE PTR [eax],al
  401a2b:	add    BYTE PTR [eax],al
  401a2d:	add    BYTE PTR [eax],al
  401a2f:	add    BYTE PTR [ebx-0x1374aa01],cl
  401a35:	sub    esp,0x44
  401a38:	push   edx
  401a39:	mov    ecx,0x0
  401a3e:	push   ecx
  401a3f:	push   0x403010
  401a44:	pop    eax
  401a45:	call   DWORD PTR cs:[eax]
  401a48:	pop    edx
  401a49:	push   edx
  401a4a:	push   ebx
  401a4b:	push   DWORD PTR [edx+0x470]
  401a51:	push   DWORD PTR [edx+0x8]
  401a54:	push   edi
  401a55:	call   0x4017e0
  401a5a:	add    esp,0x10
  401a5d:	pop    edx
  401a5e:	push   edx
  401a5f:	mov    esi,0x0
  401a64:	push   esi
  401a65:	push   0x403010
  401a6a:	pop    eax
  401a6b:	call   DWORD PTR cs:[eax]
  401a6e:	pop    edx
  401a6f:	sub    esp,0xffffffbc
  401a72:	mov    ebp,DWORD PTR [esp]
  401a75:	add    esp,0x4
  401a78:	ret    
  401a79:	add    BYTE PTR [eax],al
  401a7b:	add    BYTE PTR [ebx-0x1374aa01],cl
  401a81:	sub    esp,0x5c
  401a84:	push   edx
  401a85:	push   0x0
  401a87:	push   0x403038
  401a8c:	pop    eax
  401a8d:	call   DWORD PTR cs:[eax]
  401a90:	pop    edx
  401a91:	push   edx
  401a92:	push   eax
  401a93:	push   edi
  401a94:	push   DWORD PTR [edx+0x1b8]
  401a9a:	call   0x401e88
  401a9f:	add    esp,0xc
  401aa2:	pop    edx
  401aa3:	push   edx
  401aa4:	mov    esi,0x0
  401aa9:	push   esi
  401aaa:	push   0x40303c
  401aaf:	pop    eax
  401ab0:	call   DWORD PTR cs:[eax]
  401ab3:	pop    edx
  401ab4:	sub    esp,0xffffffa4
  401ab7:	mov    ebp,DWORD PTR [esp]
  401aba:	add    esp,0x4
  401abd:	ret    
	...
  401ad6:	add    BYTE PTR [eax],al
  401ad8:	mov    edi,edi
  401ada:	push   ebp
  401adb:	mov    ebp,esp
  401add:	sub    esp,0x38
  401ae0:	push   edx
  401ae1:	push   DWORD PTR [edx+0x3bc]
  401ae7:	push   ecx
  401ae8:	push   DWORD PTR [edx+0x7c]
  401aeb:	call   0x401554
  401af0:	add    esp,0xc
  401af3:	pop    edx
  401af4:	push   edx
  401af5:	mov    edi,0x0
  401afa:	push   edi
  401afb:	push   0x403010
  401b00:	pop    eax
  401b01:	call   DWORD PTR cs:[eax]
  401b04:	pop    edx
  401b05:	push   edx
  401b06:	mov    ecx,0x0
  401b0b:	push   ecx
  401b0c:	push   0x403024
  401b11:	pop    eax
  401b12:	call   DWORD PTR cs:[eax]
  401b15:	pop    edx
  401b16:	sub    esp,0xffffffc8
  401b19:	mov    ebp,DWORD PTR [esp]
  401b1c:	add    esp,0x4
  401b1f:	ret    
  401b20:	mov    edi,edi
  401b22:	push   ebp
  401b23:	mov    ebp,esp
  401b25:	sub    esp,0x24
  401b28:	push   edx
  401b29:	mov    edi,0x0
  401b2e:	push   edi
  401b2f:	push   0x403008
  401b34:	pop    eax
  401b35:	call   DWORD PTR cs:[eax]
  401b38:	pop    edx
  401b39:	push   edx
  401b3a:	push   DWORD PTR [edx+0x3c4]
  401b40:	push   edi
  401b41:	push   edi
  401b42:	push   DWORD PTR [edx+0x3a0]
  401b48:	call   0x40167c
  401b4d:	add    esp,0x10
  401b50:	pop    edx
  401b51:	push   edx
  401b52:	push   0x0
  401b54:	push   0x40300c
  401b59:	pop    eax
  401b5a:	call   DWORD PTR cs:[eax]
  401b5d:	pop    edx
  401b5e:	sub    esp,0xffffffdc
  401b61:	mov    ebp,DWORD PTR [esp]
  401b64:	add    esp,0x4
  401b67:	ret    
  401b68:	mov    edi,edi
  401b6a:	push   ebp
  401b6b:	mov    ebp,esp
  401b6d:	sub    esp,0x20
  401b70:	push   edx
  401b71:	push   ecx
  401b72:	push   DWORD PTR [edx+0x4ac]
  401b78:	call   0x401050
  401b7d:	add    esp,0x8
  401b80:	pop    edx
  401b81:	push   edx
  401b82:	push   0x0
  401b84:	push   0x403030
  401b89:	pop    eax
  401b8a:	call   DWORD PTR cs:[eax]
  401b8d:	pop    edx
  401b8e:	push   edx
  401b8f:	push   0x0
  401b91:	push   0x403000
  401b96:	pop    eax
  401b97:	call   DWORD PTR cs:[eax]
  401b9a:	pop    edx
  401b9b:	sub    esp,0xffffffe0
  401b9e:	mov    ebp,DWORD PTR [esp]
  401ba1:	add    esp,0x4
  401ba4:	ret    
  401ba5:	add    BYTE PTR [eax],al
  401ba7:	add    BYTE PTR [ebx-0x1374aa01],cl
  401bad:	sub    esp,0x38
  401bb0:	push   edx
  401bb1:	push   ebx
  401bb2:	push   ecx
  401bb3:	push   DWORD PTR [edx+0x148]
  401bb9:	call   0x40150c
  401bbe:	add    esp,0xc
  401bc1:	pop    edx
  401bc2:	push   edx
  401bc3:	mov    edi,0x0
  401bc8:	push   edi
  401bc9:	push   0x403024
  401bce:	pop    eax
  401bcf:	call   DWORD PTR cs:[eax]
  401bd2:	pop    edx
  401bd3:	push   edx
  401bd4:	lea    edx,[edx]
  401bd6:	push   edx
  401bd7:	push   0x40304c
  401bdc:	pop    eax
  401bdd:	call   DWORD PTR cs:[eax]
  401be0:	test   eax,eax
  401be2:	jne    0x401bd4
  401be4:	pop    edx
  401be5:	sub    esp,0xffffffc8
  401be8:	mov    ebp,DWORD PTR [esp]
  401beb:	add    esp,0x4
  401bee:	ret    
  401bef:	add    BYTE PTR [ebx-0x1374aa01],cl
  401bf5:	sub    esp,0x5c
  401bf8:	push   edx
  401bf9:	push   0x6b0
  401bfe:	mov    ecx,0x6b0
  401c03:	push   ecx
  401c04:	push   0x40000
  401c09:	push   0x40302c
  401c0e:	pop    ecx
  401c0f:	push   DWORD PTR [ecx]
  401c11:	sub    DWORD PTR [esp],0x2
  401c15:	push   0x403028
  401c1a:	pop    ecx
  401c1b:	pop    DWORD PTR [ecx]
  401c1d:	push   0x403028
  401c22:	pop    eax
  401c23:	call   DWORD PTR cs:[eax]
  401c26:	xchg   DWORD PTR [esp],eax
  401c29:	mov    edx,eax
  401c2b:	pop    ebx
  401c2c:	mov    DWORD PTR [edx+0x3b0],ebx
  401c32:	mov    edi,DWORD PTR [edx+0x3b0]
  401c38:	mov    edi,edi
  401c3a:	sub    ebx,ebx
  401c3c:	dec    ebx
  401c3d:	and    ebx,0x401ee9
  401c43:	mov    esi,DWORD PTR [ebx]
  401c45:	mov    DWORD PTR [edi],esi
  401c47:	add    ebx,0x3
  401c4a:	add    edi,0x3
  401c4d:	mov    esi,0x6a719112
  401c52:	xor    ecx,ecx
  401c54:	cmp    ecx,0x6b0
  401c5a:	je     0x401c78
  401c5c:	sub    ecx,0xfffffffc
  401c5f:	mov    eax,esi
  401c61:	xor    eax,DWORD PTR [ebx]
  401c63:	sub    eax,0x1
  401c66:	mov    DWORD PTR [edi],eax
  401c68:	push   DWORD PTR [edi]
  401c6a:	mov    esi,0xfffffffc
  401c6f:	sub    ebx,esi
  401c71:	sub    edi,esi
  401c73:	pop    esi
  401c74:	bswap  esi
  401c76:	jmp    0x401c54
  401c78:	push   edx
  401c79:	push   0x0
  401c7b:	push   0x40300c
  401c80:	pop    eax
  401c81:	call   DWORD PTR cs:[eax]
  401c84:	pop    edx
  401c85:	sub    esp,0xffffffa4
  401c88:	pop    ebp
  401c89:	ret    
	...
  401c92:	add    BYTE PTR [eax],al
  401c94:	mov    edi,edi
  401c96:	push   ebp
  401c97:	mov    ebp,esp
  401c99:	sub    esp,0x2c
  401c9c:	push   edx
  401c9d:	push   ecx
  401c9e:	push   DWORD PTR [edx+0x80]
  401ca4:	push   DWORD PTR [edx+0x3ac]
  401caa:	push   ecx
  401cab:	call   0x4011f0
  401cb0:	add    esp,0x10
  401cb3:	pop    edx
  401cb4:	push   edx
  401cb5:	push   0x0
  401cb7:	push   0x403024
  401cbc:	pop    eax
  401cbd:	call   DWORD PTR cs:[eax]
  401cc0:	pop    edx
  401cc1:	push   edx
  401cc2:	mov    edi,0x0
  401cc7:	push   edi
  401cc8:	push   0x403038
  401ccd:	pop    eax
  401cce:	call   DWORD PTR cs:[eax]
  401cd1:	pop    edx
  401cd2:	sub    esp,0xffffffd4
  401cd5:	mov    ebp,DWORD PTR [esp]
  401cd8:	add    esp,0x4
  401cdb:	ret    
	...
  401ce4:	mov    edi,edi
  401ce6:	push   ebp
  401ce7:	mov    ebp,esp
  401ce9:	sub    esp,0x28
  401cec:	push   edx
  401ced:	push   0x0
  401cef:	push   0x403068
  401cf4:	pop    eax
  401cf5:	call   DWORD PTR cs:[eax]
  401cf8:	pop    edx
  401cf9:	push   edx
  401cfa:	push   esi
  401cfb:	push   edi
  401cfc:	call   0x4013e0
  401d01:	add    esp,0x8
  401d04:	pop    edx
  401d05:	push   edx
  401d06:	lea    esi,[edx]
  401d08:	push   esi
  401d09:	push   0x40304c
  401d0e:	pop    eax
  401d0f:	call   DWORD PTR cs:[eax]
  401d12:	test   eax,eax
  401d14:	jne    0x401d06
  401d16:	pop    edx
  401d17:	sub    esp,0xffffffd8
  401d1a:	mov    ebp,DWORD PTR [esp]
  401d1d:	add    esp,0x4
  401d20:	ret    
  401d21:	add    BYTE PTR [eax],al
  401d23:	add    BYTE PTR [eax],al
  401d25:	add    BYTE PTR [eax],al
  401d27:	add    BYTE PTR [ebx-0x1374aa01],cl
  401d2d:	sub    esp,0x38
  401d30:	push   edx
  401d31:	push   0x0
  401d33:	push   0x40305c
  401d38:	pop    eax
  401d39:	call   DWORD PTR cs:[eax]
  401d3c:	pop    edx
  401d3d:	push   edx
  401d3e:	push   ebx
  401d3f:	push   DWORD PTR [edx+0x2b0]
  401d45:	push   DWORD PTR [edx+0x364]
  401d4b:	push   ecx
  401d4c:	call   0x40109c
  401d51:	add    esp,0x10
  401d54:	pop    edx
  401d55:	push   edx
  401d56:	push   0x403020
  401d5b:	pop    eax
  401d5c:	call   DWORD PTR cs:[eax]
  401d5f:	pop    edx
  401d60:	sub    esp,0xffffffc8
  401d63:	mov    ebp,DWORD PTR [esp]
  401d66:	add    esp,0x4
  401d69:	ret    
	...
  401d72:	add    BYTE PTR [eax],al
  401d74:	mov    edi,edi
  401d76:	push   ebp
  401d77:	mov    ebp,esp
  401d79:	sub    esp,0x60
  401d7c:	push   edx
  401d7d:	push   esi
  401d7e:	push   DWORD PTR [edx+0x38c]
  401d84:	push   DWORD PTR [edx+0x60]
  401d87:	call   0x401ce4
  401d8c:	add    esp,0xc
  401d8f:	pop    edx
  401d90:	push   edx
  401d91:	mov    esi,0x0
  401d96:	push   esi
  401d97:	push   0x403008
  401d9c:	pop    eax
  401d9d:	call   DWORD PTR cs:[eax]
  401da0:	pop    edx
  401da1:	push   edx
  401da2:	mov    eax,0x0
  401da7:	push   eax
  401da8:	push   0x403004
  401dad:	pop    eax
  401dae:	call   DWORD PTR cs:[eax]
  401db1:	pop    edx
  401db2:	sub    esp,0xffffffa0
  401db5:	mov    ebp,DWORD PTR [esp]
  401db8:	add    esp,0x4
  401dbb:	ret    
  401dbc:	mov    edi,edi
  401dbe:	push   ebp
  401dbf:	mov    ebp,esp
  401dc1:	sub    esp,0x58
  401dc4:	push   edx
  401dc5:	push   DWORD PTR [edx+0x104]
  401dcb:	push   ecx
  401dcc:	call   0x401354
  401dd1:	add    esp,0x8
  401dd4:	pop    edx
  401dd5:	push   edx
  401dd6:	mov    eax,0x0
  401ddb:	push   eax
  401ddc:	push   0x40305c
  401de1:	pop    eax
  401de2:	call   DWORD PTR cs:[eax]
  401de5:	pop    edx
  401de6:	push   edx
  401de7:	push   0x403020
  401dec:	pop    eax
  401ded:	call   DWORD PTR cs:[eax]
  401df0:	pop    edx
  401df1:	sub    esp,0xffffffa8
  401df4:	mov    ebp,DWORD PTR [esp]
  401df7:	add    esp,0x4
  401dfa:	ret    
  401dfb:	add    BYTE PTR [ebx-0x1374aa01],cl
  401e01:	sub    esp,0x48
  401e04:	push   edx
  401e05:	push   DWORD PTR [edx+0x5cc]
  401e0b:	push   DWORD PTR [edx+0x100]
  401e11:	call   0x4012cc
  401e16:	add    esp,0x8
  401e19:	pop    edx
  401e1a:	push   edx
  401e1b:	push   0x0
  401e1d:	push   0x403004
  401e22:	pop    eax
  401e23:	call   DWORD PTR cs:[eax]
  401e26:	pop    edx
  401e27:	push   edx
  401e28:	mov    edx,0x0
  401e2d:	push   edx
  401e2e:	push   0x40306c
  401e33:	pop    eax
  401e34:	call   DWORD PTR cs:[eax]
  401e37:	pop    edx
  401e38:	sub    esp,0xffffffb8
  401e3b:	mov    ebp,DWORD PTR [esp]
  401e3e:	add    esp,0x4
  401e41:	ret    
  401e42:	add    BYTE PTR [eax],al
  401e44:	mov    edi,edi
  401e46:	push   ebp
  401e47:	mov    ebp,esp
  401e49:	sub    esp,0x54
  401e4c:	push   edx
  401e4d:	mov    esi,0x0
  401e52:	push   esi
  401e53:	push   0x403030
  401e58:	pop    eax
  401e59:	call   DWORD PTR cs:[eax]
  401e5c:	pop    edx
  401e5d:	push   edx
  401e5e:	push   ebx
  401e5f:	push   DWORD PTR [edx+0x470]
  401e65:	push   DWORD PTR [edx+0x68]
  401e68:	call   0x401630
  401e6d:	add    esp,0xc
  401e70:	pop    edx
  401e71:	push   edx
  401e72:	push   0x0
  401e74:	push   0x403008
  401e79:	pop    eax
  401e7a:	call   DWORD PTR cs:[eax]
  401e7d:	pop    edx
  401e7e:	sub    esp,0xffffffac
  401e81:	mov    ebp,DWORD PTR [esp]
  401e84:	add    esp,0x4
  401e87:	ret    
  401e88:	mov    edi,edi
  401e8a:	push   ebp
  401e8b:	mov    ebp,esp
  401e8d:	sub    esp,0x48
  401e90:	push   edx
  401e91:	mov    esi,0x0
  401e96:	push   esi
  401e97:	push   0x403000
  401e9c:	pop    eax
  401e9d:	call   DWORD PTR cs:[eax]
  401ea0:	pop    edx
  401ea1:	push   edx
  401ea2:	push   DWORD PTR [edx+0x3bc]
  401ea8:	push   DWORD PTR [edx+0x2ac]
  401eae:	push   ebx
  401eaf:	call   0x401238
  401eb4:	add    esp,0xc
  401eb7:	pop    edx
  401eb8:	push   edx
  401eb9:	push   0x0
  401ebb:	push   0x403030
  401ec0:	pop    eax
  401ec1:	call   DWORD PTR cs:[eax]
  401ec4:	pop    edx
  401ec5:	sub    esp,0xffffffb8
  401ec8:	mov    ebp,DWORD PTR [esp]
  401ecb:	add    esp,0x4
  401ece:	ret    
  401ecf:	add    BYTE PTR [edi+0x20fcfd81],dh
  401ed5:	pusha  
  401ed6:	sub    al,0x14
  401ed8:	pop    ss
  401ed9:	lea    esi,[edx]
  401edb:	jmp    0xc1cd:0x3451a4e7
  401ee2:	ins    DWORD PTR es:[edi],dx
  401ee3:	repz std 
  401ee5:	fidiv  WORD PTR [esi]
  401ee7:	int3   
  401ee8:	dec    BYTE PTR [edi]
  401eea:	enter  0xeffd,0x9e
  401eee:	mov    ecx,0xc7c70097
  401ef3:	add    DWORD PTR [eax],eax
  401ef5:	mov    edi,0xc6e30001
  401efb:	jg     0x401f3e
  401efd:	retf   0xa27e
  401f00:	mov    ebp,0x310580a8
  401f05:	imul   esi,eax,0xffffffe2
  401f08:	add    DWORD PTR ds:0x251691a3,ecx
  401f0e:	gs ins BYTE PTR es:[edi],dx
  401f10:	pop    eax
  401f11:	push   edi
  401f12:	inc    eax
  401f13:	push   ss
  401f14:	or     DWORD PTR [edx+0x32],eax
  401f17:	imul   ecx,DWORD PTR [ecx],0xffffffff
  401f1a:	mov    edx,0xbcd552e7
  401f1f:	ins    BYTE PTR es:[edi],dx
  401f20:	mov    esi,0x81d8533b
  401f25:	push   esp
  401f26:	js     0x401f1f
  401f28:	pop    edx
  401f29:	call   0xf444a51e
  401f2e:	mov    ch,0xa0
  401f30:	jge    0x401f16
  401f32:	adc    BYTE PTR [eax],al
  401f34:	add    DWORD PTR [eax],edx
  401f36:	adc    al,0x1d
  401f38:	sbb    ebp,DWORD PTR [edi+0x468a0000]
  401f3e:	(bad)  
  401f3f:	adc    BYTE PTR [esi+edx*4],dl
  401f42:	and    eax,0x60f2ae1
  401f47:	call   0x3110:0x20092406
  401f4e:	sbb    edx,DWORD PTR [edi+0x76dd5ba9]
  401f54:	ins    DWORD PTR es:[edi],dx
  401f55:	mov    DWORD PTR [eax+0x13],esp
  401f58:	xor    eax,0x2102650d
  401f5d:	add    BYTE PTR [edx+eax*1],al
  401f60:	and    eax,0x5c1d9a32
  401f65:	jbe    0x401f7c
  401f67:	push   eax
  401f68:	add    BYTE PTR [edx+0x702b6291],0xc4
  401f6f:	xchg   ebx,eax
  401f70:	adc    DWORD PTR [eax],eax
  401f72:	add    al,ah
  401f74:	cmps   DWORD PTR ds:[esi],DWORD PTR es:[edi]
  401f75:	push   0xff6b6a00
  401f7a:	push   ebp
  401f7b:	push   ss
  401f7c:	pushf  
  401f7d:	lods   eax,DWORD PTR ds:[esi]
  401f7e:	cli    
  401f7f:	cdq    
  401f80:	cwde   
  401f81:	add    eax,0xb5dedbf8
  401f86:	aam    0xf9
  401f88:	stc    
  401f89:	aam    0xf
  401f8b:	sub    eax,0xcffb9a7
  401f90:	push   esi
  401f91:	ret    
  401f92:	call   0xc428ad24
  401f97:	stc    
  401f98:	add    al,BYTE PTR [edi-0x238cdecc]
  401f9e:	jl     0x401ffa
  401fa0:	add    eax,0x3f6f00fb
  401fa5:	call   0x6ab2aaaa
  401faa:	add    BYTE PTR [edi+0x6b],ch
  401fad:	call   FWORD PTR [edi]
  401faf:	pushf  
  401fb0:	cmp    al,0x8a
  401fb2:	stos   BYTE PTR es:[edi],al
  401fb3:	sub    BYTE PTR [eax+ebx*1+0x3c6b3d97],ah
  401fba:	adc    eax,0x47cca74
  401fbf:	push   ecx
  401fc0:	push   es
  401fc1:	pop    es
  401fc2:	(bad)  [ecx+0x78]
  401fc5:	cmps   DWORD PTR ds:[esi],DWORD PTR es:[edi]
  401fc6:	add    BYTE PTR [ecx-0x364fb057],ch
  401fcc:	loope  0x401fb6
  401fce:	sbb    dh,bl
  401fd0:	int3   
  401fd1:	cmp    al,0x8d
  401fd3:	pop    es
  401fd4:	add    ebp,ebx
  401fd6:	retf   
  401fd7:	push   es
  401fd8:	push   edi
  401fd9:	test   DWORD PTR [esi+0x73],0x22581962
  401fe0:	inc    ecx
  401fe1:	dec    ecx
  401fe2:	mov    dl,0x4e
  401fe4:	ins    DWORD PTR es:[edi],dx
  401fe5:	loope  0x401ffc
  401fe7:	sbb    al,0x69
  401fe9:	xor    al,0x6a
  401feb:	xor    al,0x0
  401fed:	jno    0x40204f
  401fef:	push   ebx
  401ff0:	push   ebx
  401ff1:	push   es
  401ff2:	pusha  
  401ff3:	je     0x401fea
  401ff5:	jl     0x401ffc
  401ff7:	stos   DWORD PTR es:[edi],eax
  401ff8:	aas    
  401ff9:	push   esp
  401ffa:	cmp    ebp,DWORD PTR [esi]
  401ffc:	push   ebx
  401ffd:	add    DWORD PTR [eax],ecx
  401fff:	ds aas 
  402001:	push   cs
  402002:	add    ch,BYTE PTR [esp+eax*1+0x77e1cddc]
  402009:	cmp    al,0x2f
  40200b:	or     BYTE PTR [esi-0xe],bl
  40200e:	jmp    DWORD PTR [ebx-0x49a93d2c]
  402014:	je     0x401fa4
  402016:	mov    bh,0x93
  402018:	xchg   esp,eax
  402019:	lods   eax,DWORD PTR cs:[esi]
  40201b:	xor    esi,DWORD PTR [edi-0x577bc9f]
  402021:	sbb    esi,esi
  402023:	dec    BYTE PTR [esi-0x29]
  402026:	test   BYTE PTR [edi+0x72a00e52],bh
  40202c:	ss dec ebx
  40202e:	ret    0x8e1c
  402031:	xchg   edi,edi
  402033:	jnp    0x402008
  402035:	out    0xc4,eax
  402037:	test   DWORD PTR [ecx],eax
  402039:	(bad)  
  40203a:	pop    ebx
  40203b:	arpl   bx,ax
  40203d:	in     al,dx
  40203e:	arpl   WORD PTR [ebp+0x76],si
  402041:	call   0x14bb646a
  402046:	push   DWORD PTR [ebp+0x66]
  402049:	je     0x4020b6
  40204b:	jnp    0x402055
  40204d:	test   al,dl
  40204f:	inc    eax
  402050:	fmul   QWORD PTR [edi+0x50253a9]
  402056:	test   ecx,ebx
  402058:	cmp    DWORD PTR [ebp+0x6],edx
  40205b:	push   es
  40205c:	push   edi
  40205d:	pop    es
  40205e:	or     BYTE PTR [ebx],dh
  402060:	ins    DWORD PTR es:[edi],dx
  402061:	int3   
  402062:	add    cl,BYTE PTR [eax+ebx*2]
  402065:	or     BYTE PTR [ebx-0x8],cl
  402068:	aas    
  402069:	das    
  40206a:	mov    al,ds:0xc5a758ff
  40206f:	jo     0x4020bc
  402071:	dec    ecx
  402072:	mov    edx,0x29e958bd
  402077:	mov    DWORD PTR [ecx],0x1e88ae9
  40207d:	xor    DWORD PTR [eax+0x186968],0x28760000
  402087:	push   esi
  402088:	ficom  DWORD PTR [ebx-0x78e6f002]
  40208e:	dec    DWORD PTR [ebx-0x220c9fff]
  402094:	add    al,0xff
  402096:	add    BYTE PTR fs:[ecx-0x75],bl
  40209a:	inc    eax
  40209b:	cmp    al,0x80
  40209d:	add    BYTE PTR [edi+0x34146061],al
  4020a3:	(bad)
  4020a7:	scas   eax,DWORD PTR es:[edi]
  4020a8:	jnp    0x402091
  4020aa:	and    al,0x88
  4020ac:	dec    ecx
  4020ad:	sbb    BYTE PTR [edi-0x3477a706],al
  4020b3:	shl    al,0xef
  4020b6:	mov    bl,BYTE PTR [eax+0x6d]
  4020b9:	out    dx,eax
  4020ba:	out    dx,eax
  4020bb:	cmp    DWORD PTR [esi-0x9],edx
  4020be:	inc    esi
  4020bf:	imul   edi,DWORD PTR [eax+0x44],0xa1190ea1
  4020c6:	fs xchg edx,ecx
  4020c9:	xor    BYTE PTR [ecx+0x65767178],cl
  4020cf:	push   esp
  4020d0:	std    
  4020d1:	jbe    0x4020d0
  4020d3:	or     BYTE PTR [ecx],al
  4020d5:	pop    edi
  4020d6:	jmp    0x7e1c:0x79bdd2b0
  4020dd:	je     0x40207b
  4020df:	mov    dh,0x3a
  4020e1:	call   0x791a5a36
  4020e6:	pop    eax
  4020e7:	add    al,0x3
  4020e9:	pop    eax
  4020ea:	js     0x4020e0
  4020ec:	mov    eax,DWORD PTR gs:[esi+eiz*1]
  4020f0:	in     al,dx
  4020f1:	add    BYTE PTR [edi+0x424010f],ch
  4020f7:	cmp    BYTE PTR [edx+0x64500424],cl
  4020fd:	(bad)  
  4020fe:	out    0x14,eax
  402100:	in     al,dx
  402101:	xor    bl,al
  402103:	inc    ebp
  402104:	dec    ebx
  402105:	mov    BYTE PTR [ebp+0xb],al
  402108:	xor    DWORD PTR [esi+0x7472b98b],0xf8f70373
  402112:	or     bh,dl
  402114:	mov    al,BYTE PTR [ecx-0x70916601]
  40211a:	test   al,0x7a
  40211c:	test   eax,0xb6c37e53
  402121:	adc    DWORD PTR [ebx-0x56],0x235457a9
  402128:	fisub  DWORD PTR [esi]
  40212a:	adc    BYTE PTR [esi-0x9],dl
  40212d:	fwait
  40212e:	mov    BYTE PTR [esi],ah
  402130:	sub    edi,DWORD PTR [esi]
  402132:	dec    BYTE PTR [eax]
  402134:	xlat   BYTE PTR ds:[ebx]
  402135:	or     BYTE PTR [ebx+0x4b],0x91
  402139:	fisub  DWORD PTR [edi+0x543f7f]
  40213f:	or     DWORD PTR [edi+0x7],edx
  402142:	or     BYTE PTR [edx+ebx*8],bh
  402145:	or     dl,al
  402147:	aas    
  402148:	push   ecx
  402149:	adc    eax,0x657cd8d
  40214e:	movs   BYTE PTR es:[edi],BYTE PTR ds:[esi]
  40214f:	xchg   ebx,eax
  402150:	pop    ebx
  402151:	cdq    
  402152:	or     al,dl
  402154:	mov    ch,0x9e
  402156:	add    al,0x57
  402158:	add    DWORD PTR [ecx+0xd70019b],ebp
  40215e:	inc    esp
  40215f:	add    eax,DWORD PTR [eax]
  402161:	popa   
  402162:	jb     0x40215f
  402164:	(bad)  
  402165:	jg     0x4021dc
  402167:	std    
  402168:	mov    dh,BYTE PTR [ebx+ebp*2+0x0]
  40216c:	test   eax,0xa9f8f1c
  402171:	hlt    
  402172:	push   esi
  402173:	or     eax,0xb10f0a02
  402178:	or     DWORD PTR [edi-0x29aaaaff],ebp
  40217e:	cmp    DWORD PTR [ebx-0x8],eax
  402181:	dec    ecx
  402182:	loop   0x40211f
  402184:	mov    ds:0x78605cea,al
  402189:	sar    ch,1
  40218b:	pop    esp
  40218c:	adc    BYTE PTR [eax],ah
  40218e:	aaa    
  40218f:	ja     0x4021e7
  402191:	cmp    edx,edx
  402193:	mov    esi,0x590f8494
  402198:	add    al,0xa4
  40219a:	add    BYTE PTR [eax],al
  40219c:	add    DWORD PTR [ebx-0x495ed1ee],ecx
  4021a2:	mov    eax,DWORD PTR [ebp-0x7e7bf08e]
  4021a8:	add    BYTE PTR [edi+ecx*1-0x7452080b],0xf8
  4021b0:	cld    
  4021b1:	jo     0x4021b0
  4021b3:	js     0x402203
  4021b5:	add    BYTE PTR [edx+0x543b0351],ch
  4021bb:	lods   al,BYTE PTR ds:[esi]
  4021bc:	imul   edx,DWORD PTR [edx+ebp*2],0xf8835850
  4021c3:	add    al,0x55
  4021c5:	add    BYTE PTR [edi+0x6a14693f],0x50
  4021cc:	pop    eax
  4021cd:	adc    DWORD PTR [esp],0x57811425
  4021d4:	add    BYTE PTR [esi+0x1c],dl
  4021d7:	jmp    FWORD PTR [ecx-0x859f100]
  4021dd:	jno    0x4021a3
  4021df:	add    al,0xdd
  4021e1:	add    dl,bh
  4021e3:	inc    esp
  4021e4:	ins    DWORD PTR es:[edi],dx
  4021e5:	cmp    ah,cl
  4021e7:	mov    eax,0xe54462f2
  4021ec:	int3   
  4021ed:	lods   eax,DWORD PTR ds:[esi]
  4021ee:	push   esi
  4021ef:	mov    ah,0x7d
  4021f1:	adc    eax,0xff0ea6ff
  4021f6:	and    al,0x1c
  4021f8:	sbb    al,0xe3
  4021fa:	out    dx,al
  4021fb:	pop    ecx
  4021fc:	xlat   BYTE PTR ds:[ebx]
  4021fd:	stos   BYTE PTR es:[edi],al
  4021fe:	mov    BYTE PTR [ebx],0x56
  402201:	jbe    0x402217
  402203:	jb     0x4021d3
  402205:	cmp    BYTE PTR [edx+0x41],dl
  402208:	adc    DWORD PTR [eax],eax
  40220a:	aas    
  40220b:	mov    bl,0x6a
  40220d:	push   ebx
  40220e:	push   eax
  40220f:	dec    esi
  402211:	cmp    BYTE PTR [eax+edi*8],al
  402214:	adc    DWORD PTR [eax],eax
  402216:	aas    
  402217:	mov    cl,0x84
  402219:	jae    0x40221b
  40221b:	adc    BYTE PTR [ecx],dl
  40221d:	add    bl,bl
  40221f:	push   ecx
  402220:	pop    eax
  402221:	add    BYTE PTR [ebp+0xc],dl
  402224:	push   edi
  402225:	or     al,0xa7
  402227:	push   esp
  402228:	ficom  WORD PTR [ecx-0x491c24d4]
  40222e:	test   eax,0x21cde36e
  402233:	pushf  
  402234:	jae    0x40220c
  402236:	scas   al,BYTE PTR es:[edi]
  402237:	les    ecx,FWORD PTR [edi-0x15]
  40223a:	mov    edi,0xe89b497e
  40223f:	mov    eax,DWORD PTR [ecx]
  402241:	call   0xec3f6941
  402246:	push   edx
  402247:	pop    ds
  402248:	push   ds
  402249:	mov    ecx,0xff0a17ff
  40224e:	(bad)  
  40224f:	jmp    FWORD PTR [eax+0x1e1f846]
  402255:	pop    es
  402256:	push   ecx
  402257:	adc    dh,0xe8
  40225a:	add    BYTE PTR [edx+ebx*2-0x6124348c],cl
  402261:	cmp    eax,0xe801d08b
  402266:	into   
  402267:	inc    esi
  402268:	inc    edi
  40226a:	fs (bad) 
  40226c:	jb     0x4022af
  40226e:	pop    ss
  40226f:	inc    ecx
  402270:	mov    esi,0xf2bfcae8
  402275:	scas   eax,DWORD PTR es:[edi]
  402276:	ds aaa 
  402278:	rol    BYTE PTR [eax],0x54
  40227b:	in     al,0x2a
  40227d:	add    eax,0x808923c5
  402282:	sar    DWORD PTR [eax-0x79],0x98
  402286:	cvtdq2ps xmm1,xmm3
  402289:	dec    esi
  40228a:	sub    al,0xf2
  40228c:	dec    eax
  40228d:	add    DWORD PTR [eax],ebx
  40228f:	mov    al,0xbe
  402291:	stc    
  402292:	int3   
  402293:	inc    eax
  402294:	or     edi,DWORD PTR [ecx-0x8123dc]
  40229a:	(bad)  
  40229b:	(bad)  
  40229c:	out    dx,eax
  40229d:	dec    eax
  40229e:	repz ret 
  4022a0:	or     DWORD PTR [ebp+0xe],ebx
  4022a3:	pop    es
  4022a4:	or     DWORD PTR [ecx-0x9149af],edi
  4022aa:	(bad)  
  4022ab:	jmp    DWORD PTR [ebp-0x857fe9]
  4022b1:	jg     0x402315
  4022b3:	sub    eax,0x3c9e9551
  4022b8:	xchg   ecx,eax
  4022b9:	mov    al,ds:0xc8a739f4
  4022be:	rcl    DWORD PTR [ecx+0x1],0x48
  4022c2:	push   esp
  4022c3:	mov    DWORD PTR [edx+0x1004876],ecx
  4022c9:	dec    eax
  4022ca:	jbe    0x40225d
  4022cc:	xchg   edx,eax
  4022cd:	push   esp
  4022ce:	dec    eax
  4022cf:	add    BYTE PTR [ecx],al
  4022d1:	dec    eax
  4022d2:	push   esp
  4022d3:	cdq    
  4022d4:	call   0x7048:0x1004870
  4022db:	mov    eax,ds:0x4834a2
  4022e0:	add    DWORD PTR [eax+0x34],ecx
  4022e3:	test   eax,0x4870aa
  4022e8:	add    DWORD PTR [eax+0x70],ecx
  4022eb:	mov    cl,0xb2
  4022ed:	xor    al,0x48
  4022ef:	add    BYTE PTR [ecx],al
  4022f1:	dec    eax
  4022f2:	xor    al,0xb9
  4022f4:	mov    WORD PTR [ebp-0x255d3cef],?
  4022fa:	mov    esp,0x91094dc7
  4022ff:	mov    al,bh
  402301:	adc    dh,BYTE PTR [eax+eax*1-0x74]
  402305:	jge    0x40235b
  402307:	mov    al,BYTE PTR [ebp+0x42207b21]
  40230d:	(bad)  
  40230e:	je     0x40230f
  402310:	add    DWORD PTR [ecx+0x3b],esp
  402313:	mov    BYTE PTR [eax-0x6b],ah
  402316:	pop    ebp
  402317:	mov    edx,DWORD PTR [edx-0x49]
  40231a:	and    BYTE PTR [ebx-0x7724cf40],dh
  402320:	add    DWORD PTR [eax],edi
  402322:	inc    ebp
  402323:	mov    ecx,DWORD PTR ds:0xa9af3b00
  402329:	adc    ebx,DWORD PTR [ecx+0x5c]
  40232c:	fsub   QWORD PTR [ecx-0x34b20e4d]
  402332:	clc    
  402333:	mov    eax,DWORD PTR [ecx]
  402335:	dec    eax
  402336:	mov    cl,0xac
  402338:	popa   
  402339:	test   eax,0x8776f8c3
  40233e:	popf   
  40233f:	and    BYTE PTR ds:0xc6e90cbd,al
  402345:	sbb    BYTE PTR [eax],al
  402347:	add    BYTE PTR [ecx],al
  402349:	mov    ebp,DWORD PTR [eax-0x73]
  40234c:	jle    0x402366
  40234e:	mov    eax,DWORD PTR [eax]
  402350:	or     eax,0xa9ae3b00
  402355:	adc    ecx,DWORD PTR [ebp+0x4102b500]
  40235b:	add    eax,0x4004cedc
  402360:	or     al,0x2e
  402362:	stos   DWORD PTR es:[edi],eax
  402363:	sub    bh,BYTE PTR [eax-0x6f0c5a9c]
  402369:	inc    eax
  40236a:	sub    al,0x79
  40236c:	movs   DWORD PTR es:[edi],DWORD PTR ds:[esi]
  40236d:	dec    esp
  40236e:	shl    DWORD PTR [ebx-0x33],0x83
  402372:	pusha  
  402373:	ret    
  402374:	imul   esp,DWORD PTR [eax+eax*1],0xd2310120
  40237b:	add    ch,BYTE PTR [ebx-0x64]
  40237e:	cmp    edi,edi
  402380:	test   eax,0x8dd8e114
  402385:	fsub   st,st(3)
  402387:	add    BYTE PTR [eax+0x74],ah
  40238a:	pop    ss
  40238b:	jo     0x4023c6
  40238d:	inc    edi
  40238e:	retf   
  40238f:	or     BYTE PTR [eax+0x11cc3c0],dh
  402395:	rol    BYTE PTR ds:0x4684b54b,0x54
  40239c:	add    BYTE PTR [ecx-0x6a41b3ac],bh
  4023a2:	mov    dh,BYTE PTR [esi-0x626a754f]
  4023a8:	call   0x4d24:0x351db91
  4023af:	cmc    
  4023b0:	push   ecx
  4023b1:	xchg   ebp,eax
  4023b2:	popa   
  4023b3:	ret    
  4023b4:	mov    ds:0xf25449ea,al
  4023b9:	cmps   DWORD PTR ds:[esi],DWORD PTR es:[edi]
  4023ba:	sbb    cl,BYTE PTR [edx-0x33861654]
  4023c0:	and    al,0x0
  4023c2:	xchg   dh,al
  4023c4:	std    
  4023c5:	cmps   BYTE PTR ds:[esi],BYTE PTR es:[edi]
  4023c6:	mov    ebx,DWORD PTR [eax+esi*2]
  4023c9:	add    DWORD PTR ds:0x6130d425,ebp
  4023cf:	xchg   BYTE PTR [esp+edx*1+0x50],al
  4023d3:	add    cl,dh
  4023d5:	sub    DWORD PTR [esi],esp
  4023d7:	jp     0x402398
  4023d9:	push   edx
  4023da:	cmp    al,0x46
  4023dc:	jmp    0x14424cc
  4023e1:	pop    edx
  4023e2:	call   0x723c17ff
  4023e7:	enter  0x5ef4,0xa0
  4023eb:	jbe    0x402468
  4023ed:	pop    ebx
  4023ee:	add    BYTE PTR [edi+0x58],ah
  4023f1:	or     BYTE PTR [edi+0x26],bl
  4023f4:	gs add al,bh
  4023f7:	retf   0x88bc
  4023fa:	icebp  
  4023fb:	sbb    eax,0xb63e6540
  402400:	cdq    
  402401:	cwde   
  402402:	dec    ebx
  402403:	out    0xed,al
  402405:	popa   
  402406:	dec    edx
  402407:	cmp    esp,DWORD PTR [ebp+0x16f8a81]
  40240d:	push   0x741bab60
  402412:	or     BYTE PTR cs:0x12040743,cl
  402419:	daa    
  40241a:	xchg   edx,eax
  40241b:	cmp    eax,0x16947a50
  402420:	jl     0x4023b6
  402422:	jp     0x402475
  402424:	push   esp
  402425:	jp     0x4023bb
  402427:	jl     0x402463
  402429:	stos   BYTE PTR es:[edi],al
  40242a:	test   DWORD PTR [eax+0x2],ebp
  40242d:	outs   dx,BYTE PTR ds:[esi]
  40242e:	push   ds
  40242f:	sub    ecx,DWORD PTR [edi]
  402431:	adc    bl,BYTE PTR [ecx]
  402433:	sbb    DWORD PTR [ebx],eax
  402435:	and    esi,DWORD PTR [esi]
  402437:	xchg   edi,eax
  402438:	test   eax,0xc9b6d758
  40243d:	or     al,bh
  40243f:	add    eax,0x66cb9a05
  402444:	bound  edx,QWORD PTR [esi]
  402446:	xchg   ebp,eax
  402447:	add    DWORD PTR [eax-0x59],ebx
  40244a:	push   es
  40244b:	push   ebx
  40244c:	add    eax,0xbf5a5f3a
  402451:	and    DWORD PTR [edx+0x50],ebp
  402454:	add    DWORD PTR [ebx-0x45933e6],ecx
  40245a:	cdq    
  40245b:	add    BYTE PTR [ecx],al
  40245d:	adc    ch,BYTE PTR [ebp-0x5b66a27a]
  402463:	inc    edi
  402464:	retf   
  402465:	bound  ebx,QWORD PTR [eax-0x2c]
  402468:	repnz push edx
  40246a:	jbe    0x40244f
  40246c:	ret    
  40246d:	call   0x1b4f2c4
  402472:	cmps   DWORD PTR ds:[esi],DWORD PTR es:[edi]
  402473:	call   FWORD PTR [eax-0x59]
  402476:	sub    DWORD PTR [edi],eax
  402478:	leave  
  402479:	loop   0x402416
  40247b:	push   esp
  40247c:	pop    eax
  40247d:	adc    dh,BYTE PTR [esp+eiz*8]
  402480:	ja     0x4024d7
  402482:	sar    bh,1
  402484:	pop    esi
  402485:	lea    eax,[ebp-0x12]
  402488:	hlt    
  402489:	test   DWORD PTR [ecx-0x2fdf332c],ecx
  40248f:	ficomp WORD PTR [eax+edx*1+0x24]
  402493:	inc    esp
  402494:	add    DWORD PTR [eax],eax
  402496:	add    BYTE PTR [eax+0x69],ch
  402499:	add    BYTE PTR [eax],al
  40249b:	add    ah,al
  40249d:	xor    si,si
  4024a0:	xchg   ecx,eax
  4024a1:	mov    DWORD PTR [ebx],ebp
  4024a3:	cdq    
  4024a4:	cmp    eax,0xe255dce0
  4024a9:	adc    ah,BYTE PTR [ebp+0x640a6ee7]
  4024af:	rol    BYTE PTR [ecx],1
  4024b1:	sti    
  4024b2:	out    dx,eax
  4024b3:	arpl   dx,dx
  4024b5:	adc    ebp,DWORD PTR [edi-0x1]
  4024b8:	mov    DWORD PTR [ebp+0x75],esi
  4024bb:	sub    BYTE PTR [ebp-0x13],cl
  4024be:	dec    ebx
  4024bf:	and    eax,0x24523716
  4024c4:	jns    0x40245f
  4024c6:	jmp    0x40253e
  4024c8:	loop   0x4024dd
  4024ca:	dec    ebp
  4024cb:	movs   DWORD PTR es:[edi],DWORD PTR ds:[esi]
  4024cc:	xchg   ecx,eax
  4024cd:	sar    DWORD PTR [ecx+edx*4+0x554b0b6d],cl
  4024d4:	jno    0x402550
  4024d6:	sub    esp,ebx
  4024d8:	ret    
  4024d9:	sub    eax,DWORD PTR [ecx]
  4024db:	mov    dh,0x21
  4024dd:	call   FWORD PTR [ecx-0x6bdbb010]
  4024e3:	mov    BYTE PTR [edi+0x0],ch
  4024e6:	jge    0x402483
  4024e8:	adc    DWORD PTR [eax],eax
  4024ea:	aas    
  4024eb:	outs   dx,BYTE PTR ds:[esi]
  4024ec:	imul   ebp,DWORD PTR [eax-0x5a63efab],0x7e
  4024f3:	in     al,dx
  4024f4:	jmp    0x8ccc1579
  4024f9:	cld    
  4024fa:	imul   eax,DWORD PTR [eax],0xdcfc6806
  402500:	add    edi,edi
  402502:	push   ebp
  402503:	and    DWORD PTR [ebx+0x55],ecx
  402506:	xchg   edi,eax
  402507:	rol    DWORD PTR [ecx+0x6e000068],cl
  40250d:	push   0x0
  40250f:	push   0x68
  402511:	push   0x8001036a
  402516:	aas    
  402517:	(bad)  
  402518:	test   eax,0xc1c40173
  40251d:	and    BYTE PTR [edx*2-0x4a66f3c],0x2e
  402525:	mov    ds:0x5ec06144,eax
  40252a:	(bad)  
  40252b:	aam    0x4a
  40252d:	jno    0x402561
  40252f:	into   
  402530:	bound  esp,QWORD PTR [ebp+0x76]
  402533:	aam    0x1e
  402535:	sbb    edx,DWORD PTR [ecx-0x7c]
  402538:	sub    ebp,DWORD PTR [ebp+0x52]
  40253b:	pop    edi
  40253c:	lds    edx,FWORD PTR [edx+0x27b3bc5d]
  402542:	dec    esi
  402543:	xchg   DWORD PTR [ecx+0x6e],ecx
  402546:	mov    eax,0xadfbd425
  40254b:	jns    0x402502
  40254d:	xchg   ebx,eax
  40254e:	adc    DWORD PTR [esi],esi
  402550:	sub    al,0x8f
  402552:	xchg   edx,eax
  402553:	lea    esi,[eax-0x5c713a9c]
  402559:	cmp    ch,dh
  40255b:	aas    
  40255c:	adc    al,0xa6
  40255e:	movs   DWORD PTR es:[edi],DWORD PTR ds:[esi]
  40255f:	cmps   BYTE PTR ds:[esi],BYTE PTR es:[edi]
  402560:	lea    esp,[edi-0x3ad51cf8]
  402566:	add    al,0xd7
  402568:	jnp    0x402527
  40256a:	push   ds
  40256b:	clc    
  40256c:	xchg   DWORD PTR [ebx+0x12602],edx
  402572:	add    BYTE PTR [edi+0x1],dh
  402578:	add    DWORD PTR [eax],eax
  40257a:	add    BYTE PTR [eax],al
  40257c:	add    DWORD PTR [eax],eax
  40257e:	add    BYTE PTR [eax],al
  402580:	add    DWORD PTR [eax],eax
  402582:	add    BYTE PTR [eax],al
  402584:	add    DWORD PTR [eax],eax
  402586:	add    BYTE PTR [eax],al
  402588:	add    DWORD PTR [edx+0x72],ebp
  40258b:	add    BYTE PTR [ecx],al
  40258d:	jb     0x4025d9
  40258f:	add    eax,0x42004
  402594:	add    DWORD PTR [edi+0x7b27347b],eax
  40259a:	add    DWORD PTR [eax],0xfffffffd
  40259d:	or     BYTE PTR [edi-0x7d],0xb0
  4025a1:	jnp    0x402538
  4025a3:	adc    al,0xb
  4025a5:	enter  0x7541,0x78
  4025a9:	cmps   DWORD PTR ds:[esi],DWORD PTR es:[edi]
  4025aa:	mov    bl,BYTE PTR [ebx-0x624f7449]
  4025b0:	call   0xdb99:0x3e9d365f
  4025b7:	bound  edx,QWORD PTR [eax-0x70114cc2]
  4025bd:	.byte 0xb8
  4025be:	mov    al,0x3e
