
c2288b56bec8f88f42fd799003f70c807d435bce32af5b4cdde1b0179e6b5016.exe:     file format pei-i386


Disassembly of section .text:

00401000 <.text>:
  401000:	mov    edi,edi
  401002:	push   ebp
  401003:	mov    ebp,esp
  401005:	sub    esp,0x44
  401008:	push   edx
  401009:	mov    esi,0x0
  40100e:	push   esi
  40100f:	push   0x403004
  401014:	pop    eax
  401015:	call   DWORD PTR cs:[eax]
  401018:	pop    edx
  401019:	push   edx
  40101a:	push   DWORD PTR [edx+0x2f0]
  401020:	push   DWORD PTR [edx+0x3e8]
  401026:	push   DWORD PTR [edx+0x51c]
  40102c:	push   ecx
  40102d:	call   0x4011f0
  401032:	add    esp,0x10
  401035:	pop    edx
  401036:	push   edx
  401037:	mov    esi,0x0
  40103c:	push   esi
  40103d:	push   0x403044
  401042:	pop    eax
  401043:	call   DWORD PTR cs:[eax]
  401046:	pop    edx
  401047:	sub    esp,0xffffffbc
  40104a:	mov    ebp,DWORD PTR [esp]
  40104d:	add    esp,0x4
  401050:	ret    
	...
  40105d:	add    BYTE PTR [eax],al
  40105f:	add    BYTE PTR [ebx-0x1374aa01],cl
  401065:	sub    esp,0x24
  401068:	push   edx
  401069:	push   DWORD PTR [edx+0x268]
  40106f:	push   ebx
  401070:	call   0x4013ec
  401075:	add    esp,0x8
  401078:	pop    edx
  401079:	push   edx
  40107a:	mov    ecx,0x0
  40107f:	push   ecx
  401080:	push   0x40301c
  401085:	pop    eax
  401086:	call   DWORD PTR cs:[eax]
  401089:	pop    edx
  40108a:	push   edx
  40108b:	mov    edx,0x0
  401090:	push   edx
  401091:	push   0x403004
  401096:	pop    eax
  401097:	call   DWORD PTR cs:[eax]
  40109a:	pop    edx
  40109b:	sub    esp,0xffffffdc
  40109e:	mov    ebp,DWORD PTR [esp]
  4010a1:	add    esp,0x4
  4010a4:	ret    
  4010a5:	add    BYTE PTR [eax],al
  4010a7:	add    BYTE PTR [edi],cl
  4010a9:	add    BYTE PTR [edx],0x0
  4010ac:	add    BYTE PTR [eax],al
  4010ae:	add    BYTE PTR [eax],al
  4010b0:	mov    edi,edi
  4010b2:	pusha  
  4010b3:	push   ebp
  4010b4:	mov    ebp,esp
  4010b6:	sub    esp,0x3c
  4010b9:	push   edx
  4010ba:	mov    edx,0x0
  4010bf:	push   edx
  4010c0:	push   0x403008
  4010c5:	pop    eax
  4010c6:	call   DWORD PTR cs:[eax]
  4010c9:	pop    edx
  4010ca:	test   eax,eax
  4010cc:	je     0x4010cf
  4010ce:	ret    
  4010cf:	push   edx
  4010d0:	push   DWORD PTR [edx+0x424]
  4010d6:	push   DWORD PTR [edx+0x18]
  4010d9:	push   ecx
  4010da:	push   edi
  4010db:	call   0x4016ec
  4010e0:	add    esp,0x10
  4010e3:	pop    edx
  4010e4:	push   edx
  4010e5:	lea    edi,[edx]
  4010e7:	push   edi
  4010e8:	push   0x403024
  4010ed:	pop    eax
  4010ee:	call   DWORD PTR cs:[eax]
  4010f1:	test   eax,eax
  4010f3:	jne    0x4010e5
  4010f5:	pop    edx
  4010f6:	mov    ecx,0x403024
  4010fb:	mov    ecx,DWORD PTR [ecx]
  4010fd:	push   ecx
  4010fe:	push   DWORD PTR [edx+0x190]
  401104:	pop    edi
  401105:	call   edi
  401107:	sub    esp,0xffffffc4
  40110a:	mov    ebp,DWORD PTR [esp]
  40110d:	add    esp,0x4
  401110:	ret    
  401111:	add    BYTE PTR [eax],al
  401113:	add    BYTE PTR [eax],al
  401115:	add    BYTE PTR [eax],al
  401117:	add    BYTE PTR [ebx-0x1374aa01],cl
  40111d:	sub    esp,0x40
  401120:	push   edx
  401121:	mov    ecx,0x0
  401126:	push   ecx
  401127:	push   0x403044
  40112c:	pop    eax
  40112d:	call   DWORD PTR cs:[eax]
  401130:	pop    edx
  401131:	push   edx
  401132:	push   DWORD PTR [edx+0x298]
  401138:	push   esi
  401139:	push   DWORD PTR [edx+0x2e8]
  40113f:	call   0x401c18
  401144:	add    esp,0xc
  401147:	pop    edx
  401148:	push   edx
  401149:	push   0x0
  40114b:	push   0x40306c
  401150:	pop    eax
  401151:	call   DWORD PTR cs:[eax]
  401154:	pop    edx
  401155:	sub    esp,0xffffffc0
  401158:	mov    ebp,DWORD PTR [esp]
  40115b:	add    esp,0x4
  40115e:	ret    
  40115f:	add    BYTE PTR [ebx-0x1374aa01],cl
  401165:	sub    esp,0x30
  401168:	push   edx
  401169:	push   ebx
  40116a:	push   DWORD PTR [edx+0x554]
  401170:	call   0x40165c
  401175:	add    esp,0x8
  401178:	pop    edx
  401179:	push   edx
  40117a:	mov    ebx,0x0
  40117f:	push   ebx
  401180:	push   0x40306c
  401185:	pop    eax
  401186:	call   DWORD PTR cs:[eax]
  401189:	pop    edx
  40118a:	push   edx
  40118b:	mov    esi,0x0
  401190:	push   esi
  401191:	push   0x403044
  401196:	pop    eax
  401197:	call   DWORD PTR cs:[eax]
  40119a:	pop    edx
  40119b:	sub    esp,0xffffffd0
  40119e:	mov    ebp,DWORD PTR [esp]
  4011a1:	add    esp,0x4
  4011a4:	ret    
  4011a5:	add    BYTE PTR [eax],al
  4011a7:	add    BYTE PTR [eax],al
  4011a9:	add    BYTE PTR [eax],al
  4011ab:	add    BYTE PTR [ebx-0x1374aa01],cl
  4011b1:	sub    esp,0x30
  4011b4:	push   edx
  4011b5:	push   edi
  4011b6:	push   edi
  4011b7:	push   ecx
  4011b8:	push   edi
  4011b9:	call   0x401b58
  4011be:	add    esp,0x10
  4011c1:	pop    edx
  4011c2:	push   edx
  4011c3:	mov    edx,0x0
  4011c8:	push   edx
  4011c9:	push   0x40301c
  4011ce:	pop    eax
  4011cf:	call   DWORD PTR cs:[eax]
  4011d2:	pop    edx
  4011d3:	push   edx
  4011d4:	lea    edi,[edx]
  4011d6:	push   edi
  4011d7:	push   0x403024
  4011dc:	pop    eax
  4011dd:	call   DWORD PTR cs:[eax]
  4011e0:	test   eax,eax
  4011e2:	jne    0x4011d4
  4011e4:	pop    edx
  4011e5:	sub    esp,0xffffffd0
  4011e8:	mov    ebp,DWORD PTR [esp]
  4011eb:	add    esp,0x4
  4011ee:	ret    
  4011ef:	add    BYTE PTR [ebx-0x1374aa01],cl
  4011f5:	sub    esp,0x20
  4011f8:	push   edx
  4011f9:	lea    ebx,[edx]
  4011fb:	push   ebx
  4011fc:	push   0x403024
  401201:	pop    eax
  401202:	call   DWORD PTR cs:[eax]
  401205:	test   eax,eax
  401207:	jne    0x4011f9
  401209:	pop    edx
  40120a:	push   edx
  40120b:	push   DWORD PTR [edx+0x530]
  401211:	push   eax
  401212:	push   edi
  401213:	call   0x401360
  401218:	add    esp,0xc
  40121b:	pop    edx
  40121c:	push   edx
  40121d:	push   0x0
  40121f:	push   0x403008
  401224:	pop    eax
  401225:	call   DWORD PTR cs:[eax]
  401228:	pop    edx
  401229:	sub    esp,0xffffffe0
  40122c:	mov    ebp,DWORD PTR [esp]
  40122f:	add    esp,0x4
  401232:	ret    
  401233:	add    BYTE PTR [eax],al
  401235:	add    BYTE PTR [eax],al
  401237:	add    BYTE PTR [ebx-0x1374aa01],cl
  40123d:	sub    esp,0x28
  401240:	push   edx
  401241:	push   0x0
  401243:	push   0x403014
  401248:	pop    eax
  401249:	call   DWORD PTR cs:[eax]
  40124c:	pop    edx
  40124d:	push   edx
  40124e:	push   DWORD PTR [edx+0x270]
  401254:	push   DWORD PTR [edx+0x478]
  40125a:	push   edi
  40125b:	call   0x401e4c
  401260:	add    esp,0xc
  401263:	pop    edx
  401264:	push   edx
  401265:	mov    ecx,0x0
  40126a:	push   ecx
  40126b:	push   0x403014
  401270:	pop    eax
  401271:	call   DWORD PTR cs:[eax]
  401274:	pop    edx
  401275:	sub    esp,0xffffffd8
  401278:	mov    ebp,DWORD PTR [esp]
  40127b:	add    esp,0x4
  40127e:	ret    
  40127f:	add    BYTE PTR [ebx-0x1374aa01],cl
  401285:	sub    esp,0x58
  401288:	push   edx
  401289:	push   0x0
  40128b:	push   0x40307c
  401290:	pop    eax
  401291:	call   DWORD PTR cs:[eax]
  401294:	pop    edx
  401295:	push   edx
  401296:	push   DWORD PTR [edx+0xa8]
  40129c:	push   DWORD PTR [edx+0x20c]
  4012a2:	push   DWORD PTR [edx+0x2d4]
  4012a8:	call   0x40182c
  4012ad:	add    esp,0xc
  4012b0:	pop    edx
  4012b1:	push   edx
  4012b2:	push   0x40304c
  4012b7:	pop    eax
  4012b8:	call   DWORD PTR cs:[eax]
  4012bb:	pop    edx
  4012bc:	sub    esp,0xffffffa8
  4012bf:	mov    ebp,DWORD PTR [esp]
  4012c2:	add    esp,0x4
  4012c5:	ret    
	...
  4012d2:	add    BYTE PTR [eax],al
  4012d4:	mov    edi,edi
  4012d6:	push   ebp
  4012d7:	mov    ebp,esp
  4012d9:	sub    esp,0x40
  4012dc:	push   edx
  4012dd:	mov    ecx,0x0
  4012e2:	push   ecx
  4012e3:	push   0x403004
  4012e8:	pop    eax
  4012e9:	call   DWORD PTR cs:[eax]
  4012ec:	pop    edx
  4012ed:	push   edx
  4012ee:	push   DWORD PTR [edx+0x88]
  4012f4:	push   ecx
  4012f5:	push   edi
  4012f6:	call   0x401a80
  4012fb:	add    esp,0xc
  4012fe:	pop    edx
  4012ff:	push   edx
  401300:	push   0x0
  401302:	push   0x403044
  401307:	pop    eax
  401308:	call   DWORD PTR cs:[eax]
  40130b:	pop    edx
  40130c:	sub    esp,0xffffffc0
  40130f:	mov    ebp,DWORD PTR [esp]
  401312:	add    esp,0x4
  401315:	ret    
  401316:	add    BYTE PTR [eax],al
  401318:	mov    edi,edi
  40131a:	push   ebp
  40131b:	mov    ebp,esp
  40131d:	sub    esp,0x20
  401320:	push   edx
  401321:	mov    edi,0x0
  401326:	push   edi
  401327:	push   0x403008
  40132c:	pop    eax
  40132d:	call   DWORD PTR cs:[eax]
  401330:	pop    edx
  401331:	push   edx
  401332:	push   edi
  401333:	push   DWORD PTR [edx+0x5ec]
  401339:	call   0x401c68
  40133e:	add    esp,0x8
  401341:	pop    edx
  401342:	push   edx
  401343:	push   0x0
  401345:	push   0x403010
  40134a:	pop    eax
  40134b:	call   DWORD PTR cs:[eax]
  40134e:	pop    edx
  40134f:	sub    esp,0xffffffe0
  401352:	mov    ebp,DWORD PTR [esp]
  401355:	add    esp,0x4
  401358:	ret    
  401359:	add    BYTE PTR [eax],al
  40135b:	add    BYTE PTR [eax],al
  40135d:	add    BYTE PTR [eax],al
  40135f:	add    BYTE PTR [ebx-0x1374aa01],cl
  401365:	sub    esp,0x38
  401368:	push   edx
  401369:	push   0x0
  40136b:	push   0x40307c
  401370:	pop    eax
  401371:	call   DWORD PTR cs:[eax]
  401374:	pop    edx
  401375:	push   edx
  401376:	push   edi
  401377:	push   DWORD PTR [edx+0x2e8]
  40137d:	push   DWORD PTR [edx+0xc0]
  401383:	call   0x401060
  401388:	add    esp,0xc
  40138b:	pop    edx
  40138c:	push   edx
  40138d:	mov    ecx,0x0
  401392:	push   ecx
  401393:	push   0x403028
  401398:	pop    eax
  401399:	call   DWORD PTR cs:[eax]
  40139c:	pop    edx
  40139d:	sub    esp,0xffffffc8
  4013a0:	mov    ebp,DWORD PTR [esp]
  4013a3:	add    esp,0x4
  4013a6:	ret    
  4013a7:	add    BYTE PTR [eax],al
  4013a9:	add    BYTE PTR [eax],al
  4013ab:	add    BYTE PTR [ebx-0x1374aa01],cl
  4013b1:	sub    esp,0x28
  4013b4:	push   edx
  4013b5:	push   0x403000
  4013ba:	pop    eax
  4013bb:	call   DWORD PTR cs:[eax]
  4013be:	pop    edx
  4013bf:	push   edx
  4013c0:	push   edi
  4013c1:	push   DWORD PTR [edx+0x4b8]
  4013c7:	push   ecx
  4013c8:	call   0x4015d8
  4013cd:	add    esp,0xc
  4013d0:	pop    edx
  4013d1:	push   edx
  4013d2:	mov    ecx,0x0
  4013d7:	push   ecx
  4013d8:	push   0x40301c
  4013dd:	pop    eax
  4013de:	call   DWORD PTR cs:[eax]
  4013e1:	pop    edx
  4013e2:	sub    esp,0xffffffd8
  4013e5:	mov    ebp,DWORD PTR [esp]
  4013e8:	add    esp,0x4
  4013eb:	ret    
  4013ec:	mov    edi,edi
  4013ee:	push   ebp
  4013ef:	mov    ebp,esp
  4013f1:	sub    esp,0x48
  4013f4:	push   edx
  4013f5:	push   ebx
  4013f6:	push   edi
  4013f7:	push   DWORD PTR [edx+0x88]
  4013fd:	call   0x4019fc
  401402:	add    esp,0xc
  401405:	pop    edx
  401406:	push   edx
  401407:	push   0x0
  401409:	push   0x403034
  40140e:	pop    eax
  40140f:	call   DWORD PTR cs:[eax]
  401412:	pop    edx
  401413:	push   edx
  401414:	push   0x0
  401416:	push   0x403044
  40141b:	pop    eax
  40141c:	call   DWORD PTR cs:[eax]
  40141f:	pop    edx
  401420:	sub    esp,0xffffffb8
  401423:	mov    ebp,DWORD PTR [esp]
  401426:	add    esp,0x4
  401429:	ret    
  40142a:	add    BYTE PTR [eax],al
  40142c:	add    BYTE PTR [eax],al
  40142e:	add    BYTE PTR [eax],al
  401430:	mov    edi,edi
  401432:	push   ebp
  401433:	mov    ebp,esp
  401435:	sub    esp,0x1c
  401438:	push   edx
  401439:	push   esi
  40143a:	push   eax
  40143b:	push   ecx
  40143c:	push   ecx
  40143d:	call   0x4012d4
  401442:	add    esp,0x10
  401445:	pop    edx
  401446:	push   edx
  401447:	mov    edx,0x0
  40144c:	push   edx
  40144d:	push   0x403034
  401452:	pop    eax
  401453:	call   DWORD PTR cs:[eax]
  401456:	pop    edx
  401457:	push   edx
  401458:	push   0x0
  40145a:	push   0x403084
  40145f:	pop    eax
  401460:	call   DWORD PTR cs:[eax]
  401463:	pop    edx
  401464:	sub    esp,0xffffffe4
  401467:	mov    ebp,DWORD PTR [esp]
  40146a:	add    esp,0x4
  40146d:	ret    
  40146e:	add    BYTE PTR [eax],al
  401470:	mov    edi,edi
  401472:	push   ebp
  401473:	mov    ebp,esp
  401475:	sub    esp,0x30
  401478:	push   edx
  401479:	push   0x6b0
  40147e:	mov    ecx,0x6b0
  401483:	push   ecx
  401484:	mov    ecx,0x40000
  401489:	push   ecx
  40148a:	push   0x40303c
  40148f:	pop    eax
  401490:	push   DWORD PTR [eax]
  401492:	sub    DWORD PTR [esp],0x2
  401496:	push   0x403048
  40149b:	pop    eax
  40149c:	pop    DWORD PTR [eax]
  40149e:	push   0x403048
  4014a3:	pop    eax
  4014a4:	call   DWORD PTR cs:[eax]
  4014a7:	xchg   DWORD PTR [esp],eax
  4014aa:	mov    edx,eax
  4014ac:	pop    ebx
  4014ad:	mov    DWORD PTR [edx+0x190],ebx
  4014b3:	mov    esi,DWORD PTR [edx+0x190]
  4014b9:	mov    esi,esi
  4014bb:	sub    ebx,ebx
  4014bd:	dec    ebx
  4014be:	and    ebx,0x401eb1
  4014c4:	mov    edi,DWORD PTR [ebx]
  4014c6:	mov    DWORD PTR [esi],edi
  4014c8:	add    ebx,0x3
  4014cb:	add    esi,0x3
  4014ce:	mov    edi,0x6a719112
  4014d3:	push   0x6b0
  4014d8:	pop    eax
  4014d9:	mov    ecx,edi
  4014db:	xor    ecx,DWORD PTR [ebx]
  4014dd:	sub    ecx,0x1
  4014e0:	mov    DWORD PTR [esi],ecx
  4014e2:	push   DWORD PTR [esi]
  4014e4:	mov    edi,0xfffffffc
  4014e9:	sub    ebx,edi
  4014eb:	sub    esi,edi
  4014ed:	pop    edi
  4014ee:	bswap  edi
  4014f0:	sub    eax,0x4
  4014f3:	test   eax,eax
  4014f5:	jne    0x4014d9
  4014f7:	push   edx
  4014f8:	push   0x403000
  4014fd:	pop    eax
  4014fe:	call   DWORD PTR cs:[eax]
  401501:	pop    edx
  401502:	sub    esp,0xffffffd0
  401505:	pop    ebp
  401506:	ret    
  401507:	add    BYTE PTR [ebx-0x1374aa01],cl
  40150d:	sub    esp,0x58
  401510:	push   edx
  401511:	push   DWORD PTR [edx+0x2bc]
  401517:	push   edi
  401518:	call   0x401cf0
  40151d:	add    esp,0x8
  401520:	pop    edx
  401521:	push   edx
  401522:	push   0x40304c
  401527:	pop    eax
  401528:	call   DWORD PTR cs:[eax]
  40152b:	pop    edx
  40152c:	push   edx
  40152d:	mov    esi,0x0
  401532:	push   esi
  401533:	push   0x403004
  401538:	pop    eax
  401539:	call   DWORD PTR cs:[eax]
  40153c:	pop    edx
  40153d:	sub    esp,0xffffffa8
  401540:	mov    ebp,DWORD PTR [esp]
  401543:	add    esp,0x4
  401546:	ret    
  401547:	add    BYTE PTR [ebx],ch
  401549:	rol    BYTE PTR [ecx+0x47f000c2],cl
  40154f:	add    BYTE PTR [edx+0x33],dl
  401552:	leave  
  401553:	or     ecx,0x403094
  401559:	and    WORD PTR [ecx],0x0
  40155d:	push   DWORD PTR [ecx]
  40155f:	pop    eax
  401560:	mov    edx,eax
  401562:	push   0x3c
  401564:	add    DWORD PTR [esp],eax
  401567:	pop    ecx
  401568:	push   eax
  401569:	mov    edi,esp
  40156b:	mov    esi,ecx
  40156d:	movs   DWORD PTR es:[edi],DWORD PTR ds:[esi]
  40156e:	pop    eax
  40156f:	mov    edx,DWORD PTR [eax+edx*1+0x1c]
  401573:	ror    edx,0x8
  401576:	xor    eax,eax
  401578:	or     al,0x80
  40157a:	cmp    al,dl
  40157c:	pop    edx
  40157d:	ja     0x401588
  40157f:	nop
  401580:	nop
  401581:	nop
  401582:	nop
  401583:	jmp    0x4010a8
  401588:	xor    esp,esp
  40158a:	int    0x3
  40158c:	mov    edi,edi
  40158e:	push   ebp
  40158f:	mov    ebp,esp
  401591:	sub    esp,0x54
  401594:	push   edx
  401595:	push   DWORD PTR [edx+0x204]
  40159b:	push   DWORD PTR [edx+0x554]
  4015a1:	push   ebx
  4015a2:	call   0x4013ac
  4015a7:	add    esp,0xc
  4015aa:	pop    edx
  4015ab:	push   edx
  4015ac:	push   0x40304c
  4015b1:	pop    eax
  4015b2:	call   DWORD PTR cs:[eax]
  4015b5:	pop    edx
  4015b6:	push   edx
  4015b7:	push   0x40304c
  4015bc:	pop    eax
  4015bd:	call   DWORD PTR cs:[eax]
  4015c0:	pop    edx
  4015c1:	sub    esp,0xffffffac
  4015c4:	mov    ebp,DWORD PTR [esp]
  4015c7:	add    esp,0x4
  4015ca:	ret    
	...
  4015d7:	add    BYTE PTR [ebx-0x1374aa01],cl
  4015dd:	sub    esp,0x20
  4015e0:	push   edx
  4015e1:	push   eax
  4015e2:	push   DWORD PTR [edx+0x558]
  4015e8:	call   0x401508
  4015ed:	add    esp,0x8
  4015f0:	pop    edx
  4015f1:	push   edx
  4015f2:	mov    edx,0x0
  4015f7:	push   edx
  4015f8:	push   0x403044
  4015fd:	pop    eax
  4015fe:	call   DWORD PTR cs:[eax]
  401601:	pop    edx
  401602:	push   edx
  401603:	push   0x0
  401605:	push   0x403034
  40160a:	pop    eax
  40160b:	call   DWORD PTR cs:[eax]
  40160e:	pop    edx
  40160f:	sub    esp,0xffffffe0
  401612:	mov    ebp,DWORD PTR [esp]
  401615:	add    esp,0x4
  401618:	ret    
  401619:	add    BYTE PTR [eax],al
  40161b:	add    BYTE PTR [eax],al
  40161d:	add    BYTE PTR [eax],al
  40161f:	add    BYTE PTR [ebx-0x1374aa01],cl
  401625:	sub    esp,0x50
  401628:	push   edx
  401629:	push   0x403000
  40162e:	pop    eax
  40162f:	call   DWORD PTR cs:[eax]
  401632:	pop    edx
  401633:	push   edx
  401634:	push   DWORD PTR [edx+0x158]
  40163a:	push   esi
  40163b:	call   0x401000
  401640:	add    esp,0x8
  401643:	pop    edx
  401644:	push   edx
  401645:	push   0x40304c
  40164a:	pop    eax
  40164b:	call   DWORD PTR cs:[eax]
  40164e:	pop    edx
  40164f:	sub    esp,0xffffffb0
  401652:	mov    ebp,DWORD PTR [esp]
  401655:	add    esp,0x4
  401658:	ret    
  401659:	add    BYTE PTR [eax],al
  40165b:	add    BYTE PTR [ebx-0x1374aa01],cl
  401661:	sub    esp,0x58
  401664:	push   edx
  401665:	push   DWORD PTR [edx+0xc4]
  40166b:	push   ecx
  40166c:	push   DWORD PTR [edx+0x538]
  401672:	push   DWORD PTR [edx+0x1e8]
  401678:	call   0x4016a8
  40167d:	add    esp,0x10
  401680:	pop    edx
  401681:	push   edx
  401682:	push   0x0
  401684:	push   0x403004
  401689:	pop    eax
  40168a:	call   DWORD PTR cs:[eax]
  40168d:	pop    edx
  40168e:	push   edx
  40168f:	push   0x403000
  401694:	pop    eax
  401695:	call   DWORD PTR cs:[eax]
  401698:	pop    edx
  401699:	sub    esp,0xffffffa8
  40169c:	mov    ebp,DWORD PTR [esp]
  40169f:	add    esp,0x4
  4016a2:	ret    
  4016a3:	add    BYTE PTR [eax],al
  4016a5:	add    BYTE PTR [eax],al
  4016a7:	add    BYTE PTR [ebx-0x1374aa01],cl
  4016ad:	sub    esp,0x2c
  4016b0:	push   edx
  4016b1:	push   edi
  4016b2:	push   DWORD PTR [edx+0x3c8]
  4016b8:	call   0x4011ac
  4016bd:	add    esp,0x8
  4016c0:	pop    edx
  4016c1:	push   edx
  4016c2:	push   0x0
  4016c4:	push   0x40307c
  4016c9:	pop    eax
  4016ca:	call   DWORD PTR cs:[eax]
  4016cd:	pop    edx
  4016ce:	push   edx
  4016cf:	mov    eax,0x0
  4016d4:	push   eax
  4016d5:	push   0x403044
  4016da:	pop    eax
  4016db:	call   DWORD PTR cs:[eax]
  4016de:	pop    edx
  4016df:	sub    esp,0xffffffd4
  4016e2:	mov    ebp,DWORD PTR [esp]
  4016e5:	add    esp,0x4
  4016e8:	ret    
  4016e9:	add    BYTE PTR [eax],al
  4016eb:	add    BYTE PTR [ebx-0x1374aa01],cl
  4016f1:	sub    esp,0x20
  4016f4:	push   edx
  4016f5:	push   eax
  4016f6:	push   DWORD PTR [edx+0x4b4]
  4016fc:	push   ebx
  4016fd:	push   DWORD PTR [edx+0x3e0]
  401703:	call   0x401dbc
  401708:	add    esp,0x10
  40170b:	pop    edx
  40170c:	push   edx
  40170d:	mov    ecx,0x0
  401712:	push   ecx
  401713:	push   0x403004
  401718:	pop    eax
  401719:	call   DWORD PTR cs:[eax]
  40171c:	pop    edx
  40171d:	push   edx
  40171e:	lea    eax,[edx]
  401720:	push   eax
  401721:	push   0x403024
  401726:	pop    eax
  401727:	call   DWORD PTR cs:[eax]
  40172a:	test   eax,eax
  40172c:	jne    0x40171e
  40172e:	pop    edx
  40172f:	sub    esp,0xffffffe0
  401732:	mov    ebp,DWORD PTR [esp]
  401735:	add    esp,0x4
  401738:	ret    
  401739:	add    BYTE PTR [eax],al
  40173b:	add    BYTE PTR [eax],al
  40173d:	add    BYTE PTR [eax],al
  40173f:	add    BYTE PTR [ebx-0x1374aa01],cl
  401745:	sub    esp,0x5c
  401748:	push   edx
  401749:	mov    ebx,0x0
  40174e:	push   ebx
  40174f:	push   0x403044
  401754:	pop    eax
  401755:	call   DWORD PTR cs:[eax]
  401758:	pop    edx
  401759:	push   edx
  40175a:	push   DWORD PTR [edx+0xd0]
  401760:	push   DWORD PTR [edx+0x64]
  401763:	push   DWORD PTR [edx+0x24]
  401766:	call   0x4019a4
  40176b:	add    esp,0xc
  40176e:	pop    edx
  40176f:	push   edx
  401770:	mov    edi,0x0
  401775:	push   edi
  401776:	push   0x403044
  40177b:	pop    eax
  40177c:	call   DWORD PTR cs:[eax]
  40177f:	pop    edx
  401780:	sub    esp,0xffffffa4
  401783:	mov    ebp,DWORD PTR [esp]
  401786:	add    esp,0x4
  401789:	ret    
  40178a:	add    BYTE PTR [eax],al
  40178c:	mov    edi,edi
  40178e:	push   ebp
  40178f:	mov    ebp,esp
  401791:	sub    esp,0x40
  401794:	push   edx
  401795:	push   edi
  401796:	push   DWORD PTR [edx+0x53c]
  40179c:	call   0x401280
  4017a1:	add    esp,0x8
  4017a4:	pop    edx
  4017a5:	push   edx
  4017a6:	mov    eax,0x0
  4017ab:	push   eax
  4017ac:	push   0x403044
  4017b1:	pop    eax
  4017b2:	call   DWORD PTR cs:[eax]
  4017b5:	pop    edx
  4017b6:	push   edx
  4017b7:	lea    ebx,[edx]
  4017b9:	push   ebx
  4017ba:	push   0x403024
  4017bf:	pop    eax
  4017c0:	call   DWORD PTR cs:[eax]
  4017c3:	test   eax,eax
  4017c5:	jne    0x4017b7
  4017c7:	pop    edx
  4017c8:	sub    esp,0xffffffc0
  4017cb:	mov    ebp,DWORD PTR [esp]
  4017ce:	add    esp,0x4
  4017d1:	ret    
	...
  4017e2:	add    BYTE PTR [eax],al
  4017e4:	mov    edi,edi
  4017e6:	push   ebp
  4017e7:	mov    ebp,esp
  4017e9:	sub    esp,0x40
  4017ec:	push   edx
  4017ed:	push   eax
  4017ee:	push   eax
  4017ef:	push   DWORD PTR [edx+0x448]
  4017f5:	push   eax
  4017f6:	call   0x4018c8
  4017fb:	add    esp,0x10
  4017fe:	pop    edx
  4017ff:	push   edx
  401800:	mov    eax,0x0
  401805:	push   eax
  401806:	push   0x40301c
  40180b:	pop    eax
  40180c:	call   DWORD PTR cs:[eax]
  40180f:	pop    edx
  401810:	push   edx
  401811:	mov    ecx,0x0
  401816:	push   ecx
  401817:	push   0x403010
  40181c:	pop    eax
  40181d:	call   DWORD PTR cs:[eax]
  401820:	pop    edx
  401821:	sub    esp,0xffffffc0
  401824:	mov    ebp,DWORD PTR [esp]
  401827:	add    esp,0x4
  40182a:	ret    
  40182b:	add    BYTE PTR [ebx-0x1374aa01],cl
  401831:	sub    esp,0x24
  401834:	push   edx
  401835:	push   DWORD PTR [edx+0x50]
  401838:	push   ebx
  401839:	push   esi
  40183a:	call   0x401740
  40183f:	add    esp,0xc
  401842:	pop    edx
  401843:	push   edx
  401844:	mov    edx,0x0
  401849:	push   edx
  40184a:	push   0x403084
  40184f:	pop    eax
  401850:	call   DWORD PTR cs:[eax]
  401853:	pop    edx
  401854:	push   edx
  401855:	push   0x0
  401857:	push   0x40307c
  40185c:	pop    eax
  40185d:	call   DWORD PTR cs:[eax]
  401860:	pop    edx
  401861:	sub    esp,0xffffffdc
  401864:	mov    ebp,DWORD PTR [esp]
  401867:	add    esp,0x4
  40186a:	ret    
  40186b:	add    BYTE PTR [eax],al
  40186d:	add    BYTE PTR [eax],al
  40186f:	add    BYTE PTR [ebx-0x1374aa01],cl
  401875:	sub    esp,0x28
  401878:	push   edx
  401879:	push   DWORD PTR [edx+0x318]
  40187f:	push   DWORD PTR [edx+0x40]
  401882:	push   DWORD PTR [edx+0x4c8]
  401888:	push   edi
  401889:	call   0x401160
  40188e:	add    esp,0x10
  401891:	pop    edx
  401892:	push   edx
  401893:	push   0x0
  401895:	push   0x403018
  40189a:	pop    eax
  40189b:	call   DWORD PTR cs:[eax]
  40189e:	pop    edx
  40189f:	push   edx
  4018a0:	push   0x0
  4018a2:	push   0x40306c
  4018a7:	pop    eax
  4018a8:	call   DWORD PTR cs:[eax]
  4018ab:	pop    edx
  4018ac:	sub    esp,0xffffffd8
  4018af:	mov    ebp,DWORD PTR [esp]
  4018b2:	add    esp,0x4
  4018b5:	ret    
	...
  4018c6:	add    BYTE PTR [eax],al
  4018c8:	mov    edi,edi
  4018ca:	push   ebp
  4018cb:	mov    ebp,esp
  4018cd:	sub    esp,0x40
  4018d0:	push   edx
  4018d1:	mov    eax,0x0
  4018d6:	push   eax
  4018d7:	push   0x403034
  4018dc:	pop    eax
  4018dd:	call   DWORD PTR cs:[eax]
  4018e0:	pop    edx
  4018e1:	push   edx
  4018e2:	push   eax
  4018e3:	push   DWORD PTR [edx+0x564]
  4018e9:	call   0x401d7c
  4018ee:	add    esp,0x8
  4018f1:	pop    edx
  4018f2:	push   edx
  4018f3:	lea    eax,[edx]
  4018f5:	push   eax
  4018f6:	push   0x403024
  4018fb:	pop    eax
  4018fc:	call   DWORD PTR cs:[eax]
  4018ff:	test   eax,eax
  401901:	jne    0x4018f3
  401903:	pop    edx
  401904:	sub    esp,0xffffffc0
  401907:	mov    ebp,DWORD PTR [esp]
  40190a:	add    esp,0x4
  40190d:	ret    
	...
  40191a:	add    BYTE PTR [eax],al
  40191c:	mov    edi,edi
  40191e:	push   ebp
  40191f:	mov    ebp,esp
  401921:	sub    esp,0x2c
  401924:	push   edx
  401925:	push   DWORD PTR [edx+0x484]
  40192b:	push   ebx
  40192c:	push   DWORD PTR [edx+0x4ac]
  401932:	call   0x401430
  401937:	add    esp,0xc
  40193a:	pop    edx
  40193b:	push   edx
  40193c:	push   0x0
  40193e:	push   0x40307c
  401943:	pop    eax
  401944:	call   DWORD PTR cs:[eax]
  401947:	pop    edx
  401948:	push   edx
  401949:	push   0x0
  40194b:	push   0x403014
  401950:	pop    eax
  401951:	call   DWORD PTR cs:[eax]
  401954:	pop    edx
  401955:	sub    esp,0xffffffd4
  401958:	mov    ebp,DWORD PTR [esp]
  40195b:	add    esp,0x4
  40195e:	ret    
  40195f:	add    BYTE PTR [ebx-0x1374aa01],cl
  401965:	sub    esp,0x50
  401968:	push   edx
  401969:	push   esi
  40196a:	push   DWORD PTR [edx+0xa0]
  401970:	push   ebx
  401971:	push   esi
  401972:	call   0x401b08
  401977:	add    esp,0x10
  40197a:	pop    edx
  40197b:	push   edx
  40197c:	push   0x0
  40197e:	push   0x40301c
  401983:	pop    eax
  401984:	call   DWORD PTR cs:[eax]
  401987:	pop    edx
  401988:	push   edx
  401989:	mov    edx,0x0
  40198e:	push   edx
  40198f:	push   0x403004
  401994:	pop    eax
  401995:	call   DWORD PTR cs:[eax]
  401998:	pop    edx
  401999:	sub    esp,0xffffffb0
  40199c:	mov    ebp,DWORD PTR [esp]
  40199f:	add    esp,0x4
  4019a2:	ret    
  4019a3:	add    BYTE PTR [ebx-0x1374aa01],cl
  4019a9:	sub    esp,0x30
  4019ac:	push   edx
  4019ad:	push   0x0
  4019af:	push   0x403018
  4019b4:	pop    eax
  4019b5:	call   DWORD PTR cs:[eax]
  4019b8:	pop    edx
  4019b9:	push   edx
  4019ba:	push   DWORD PTR [edx+0x368]
  4019c0:	push   DWORD PTR [edx+0x1e0]
  4019c6:	push   DWORD PTR [edx+0x244]
  4019cc:	call   0x401cac
  4019d1:	add    esp,0xc
  4019d4:	pop    edx
  4019d5:	push   edx
  4019d6:	lea    eax,[edx]
  4019d8:	push   eax
  4019d9:	push   0x403024
  4019de:	pop    eax
  4019df:	call   DWORD PTR cs:[eax]
  4019e2:	test   eax,eax
  4019e4:	jne    0x4019d6
  4019e6:	pop    edx
  4019e7:	sub    esp,0xffffffd0
  4019ea:	mov    ebp,DWORD PTR [esp]
  4019ed:	add    esp,0x4
  4019f0:	ret    
	...
  4019f9:	add    BYTE PTR [eax],al
  4019fb:	add    BYTE PTR [ebx-0x1374aa01],cl
  401a01:	sub    esp,0x50
  401a04:	push   edx
  401a05:	push   eax
  401a06:	push   ecx
  401a07:	push   DWORD PTR [edx+0x30]
  401a0a:	push   ecx
  401a0b:	call   0x401e04
  401a10:	add    esp,0x10
  401a13:	pop    edx
  401a14:	push   edx
  401a15:	mov    ebx,0x0
  401a1a:	push   ebx
  401a1b:	push   0x403044
  401a20:	pop    eax
  401a21:	call   DWORD PTR cs:[eax]
  401a24:	pop    edx
  401a25:	push   edx
  401a26:	lea    edx,[edx]
  401a28:	push   edx
  401a29:	push   0x403024
  401a2e:	pop    eax
  401a2f:	call   DWORD PTR cs:[eax]
  401a32:	test   eax,eax
  401a34:	jne    0x401a26
  401a36:	pop    edx
  401a37:	sub    esp,0xffffffb0
  401a3a:	mov    ebp,DWORD PTR [esp]
  401a3d:	add    esp,0x4
  401a40:	ret    
  401a41:	add    BYTE PTR [eax],al
  401a43:	add    BYTE PTR [ebx-0x1374aa01],cl
  401a49:	sub    esp,0x38
  401a4c:	push   edx
  401a4d:	push   ebx
  401a4e:	push   DWORD PTR [edx+0x2a4]
  401a54:	push   edi
  401a55:	call   0x401b9c
  401a5a:	add    esp,0xc
  401a5d:	pop    edx
  401a5e:	push   edx
  401a5f:	push   0x403000
  401a64:	pop    eax
  401a65:	call   DWORD PTR cs:[eax]
  401a68:	pop    edx
  401a69:	push   edx
  401a6a:	push   0x0
  401a6c:	push   0x403044
  401a71:	pop    eax
  401a72:	call   DWORD PTR cs:[eax]
  401a75:	pop    edx
  401a76:	sub    esp,0xffffffc8
  401a79:	mov    ebp,DWORD PTR [esp]
  401a7c:	add    esp,0x4
  401a7f:	ret    
  401a80:	mov    edi,edi
  401a82:	push   ebp
  401a83:	mov    ebp,esp
  401a85:	sub    esp,0x44
  401a88:	push   edx
  401a89:	push   0x40304c
  401a8e:	pop    eax
  401a8f:	call   DWORD PTR cs:[eax]
  401a92:	pop    edx
  401a93:	push   edx
  401a94:	push   esi
  401a95:	push   ebx
  401a96:	push   esi
  401a97:	push   DWORD PTR [edx+0x3c]
  401a9a:	call   0x401620
  401a9f:	add    esp,0x10
  401aa2:	pop    edx
  401aa3:	push   edx
  401aa4:	push   0x40304c
  401aa9:	pop    eax
  401aaa:	call   DWORD PTR cs:[eax]
  401aad:	pop    edx
  401aae:	sub    esp,0xffffffbc
  401ab1:	mov    ebp,DWORD PTR [esp]
  401ab4:	add    esp,0x4
  401ab7:	ret    
  401ab8:	mov    edi,edi
  401aba:	push   ebp
  401abb:	mov    ebp,esp
  401abd:	sub    esp,0x4c
  401ac0:	push   edx
  401ac1:	push   esi
  401ac2:	push   esi
  401ac3:	push   DWORD PTR [edx+0x364]
  401ac9:	push   DWORD PTR [edx+0x3e0]
  401acf:	call   0x401470
  401ad4:	add    esp,0x10
  401ad7:	pop    edx
  401ad8:	push   edx
  401ad9:	push   0x403000
  401ade:	pop    eax
  401adf:	call   DWORD PTR cs:[eax]
  401ae2:	pop    edx
  401ae3:	push   edx
  401ae4:	push   0x0
  401ae6:	push   0x403018
  401aeb:	pop    eax
  401aec:	call   DWORD PTR cs:[eax]
  401aef:	pop    edx
  401af0:	sub    esp,0xffffffb4
  401af3:	mov    ebp,DWORD PTR [esp]
  401af6:	add    esp,0x4
  401af9:	ret    
	...
  401b06:	add    BYTE PTR [eax],al
  401b08:	mov    edi,edi
  401b0a:	push   ebp
  401b0b:	mov    ebp,esp
  401b0d:	sub    esp,0x50
  401b10:	push   edx
  401b11:	push   DWORD PTR [edx+0x26c]
  401b17:	push   DWORD PTR [edx+0x10]
  401b1a:	push   DWORD PTR [edx+0x20c]
  401b20:	call   0x401bd8
  401b25:	add    esp,0xc
  401b28:	pop    edx
  401b29:	push   edx
  401b2a:	push   0x0
  401b2c:	push   0x403028
  401b31:	pop    eax
  401b32:	call   DWORD PTR cs:[eax]
  401b35:	pop    edx
  401b36:	push   edx
  401b37:	mov    esi,0x0
  401b3c:	push   esi
  401b3d:	push   0x403084
  401b42:	pop    eax
  401b43:	call   DWORD PTR cs:[eax]
  401b46:	pop    edx
  401b47:	sub    esp,0xffffffb0
  401b4a:	mov    ebp,DWORD PTR [esp]
  401b4d:	add    esp,0x4
  401b50:	ret    
  401b51:	add    BYTE PTR [eax],al
  401b53:	add    BYTE PTR [eax],al
  401b55:	add    BYTE PTR [eax],al
  401b57:	add    BYTE PTR [ebx-0x1374aa01],cl
  401b5d:	sub    esp,0x24
  401b60:	push   edx
  401b61:	push   esi
  401b62:	push   eax
  401b63:	push   esi
  401b64:	call   0x401318
  401b69:	add    esp,0xc
  401b6c:	pop    edx
  401b6d:	push   edx
  401b6e:	mov    ecx,0x0
  401b73:	push   ecx
  401b74:	push   0x403008
  401b79:	pop    eax
  401b7a:	call   DWORD PTR cs:[eax]
  401b7d:	pop    edx
  401b7e:	push   edx
  401b7f:	mov    ebx,0x0
  401b84:	push   ebx
  401b85:	push   0x403084
  401b8a:	pop    eax
  401b8b:	call   DWORD PTR cs:[eax]
  401b8e:	pop    edx
  401b8f:	sub    esp,0xffffffdc
  401b92:	mov    ebp,DWORD PTR [esp]
  401b95:	add    esp,0x4
  401b98:	ret    
  401b99:	add    BYTE PTR [eax],al
  401b9b:	add    BYTE PTR [ebx-0x1374aa01],cl
  401ba1:	sub    esp,0x40
  401ba4:	push   edx
  401ba5:	push   0x403000
  401baa:	pop    eax
  401bab:	call   DWORD PTR cs:[eax]
  401bae:	pop    edx
  401baf:	push   edx
  401bb0:	push   esi
  401bb1:	push   DWORD PTR [edx+0x390]
  401bb7:	call   0x401ab8
  401bbc:	add    esp,0x8
  401bbf:	pop    edx
  401bc0:	push   edx
  401bc1:	push   0x0
  401bc3:	push   0x40306c
  401bc8:	pop    eax
  401bc9:	call   DWORD PTR cs:[eax]
  401bcc:	pop    edx
  401bcd:	sub    esp,0xffffffc0
  401bd0:	mov    ebp,DWORD PTR [esp]
  401bd3:	add    esp,0x4
  401bd6:	ret    
  401bd7:	add    BYTE PTR [ebx-0x1374aa01],cl
  401bdd:	sub    esp,0x50
  401be0:	push   edx
  401be1:	push   DWORD PTR [edx+0x5a0]
  401be7:	push   esi
  401be8:	push   esi
  401be9:	push   esi
  401bea:	call   0x401870
  401bef:	add    esp,0x10
  401bf2:	pop    edx
  401bf3:	push   edx
  401bf4:	push   0x0
  401bf6:	push   0x40307c
  401bfb:	pop    eax
  401bfc:	call   DWORD PTR cs:[eax]
  401bff:	pop    edx
  401c00:	push   edx
  401c01:	push   0x0
  401c03:	push   0x40301c
  401c08:	pop    eax
  401c09:	call   DWORD PTR cs:[eax]
  401c0c:	pop    edx
  401c0d:	sub    esp,0xffffffb0
  401c10:	mov    ebp,DWORD PTR [esp]
  401c13:	add    esp,0x4
  401c16:	ret    
  401c17:	add    BYTE PTR [ebx-0x1374aa01],cl
  401c1d:	sub    esp,0x40
  401c20:	push   edx
  401c21:	push   edi
  401c22:	push   DWORD PTR [edx+0x3c8]
  401c28:	push   edi
  401c29:	call   0x4017e4
  401c2e:	add    esp,0xc
  401c31:	pop    edx
  401c32:	push   edx
  401c33:	lea    edx,[edx]
  401c35:	push   edx
  401c36:	push   0x403024
  401c3b:	pop    eax
  401c3c:	call   DWORD PTR cs:[eax]
  401c3f:	test   eax,eax
  401c41:	jne    0x401c33
  401c43:	pop    edx
  401c44:	push   edx
  401c45:	mov    edx,0x0
  401c4a:	push   edx
  401c4b:	push   0x403084
  401c50:	pop    eax
  401c51:	call   DWORD PTR cs:[eax]
  401c54:	pop    edx
  401c55:	sub    esp,0xffffffc0
  401c58:	mov    ebp,DWORD PTR [esp]
  401c5b:	add    esp,0x4
  401c5e:	ret    
	...
  401c67:	add    BYTE PTR [ebx-0x1374aa01],cl
  401c6d:	sub    esp,0x48
  401c70:	push   edx
  401c71:	lea    edx,[edx]
  401c73:	push   edx
  401c74:	push   0x403024
  401c79:	pop    eax
  401c7a:	call   DWORD PTR cs:[eax]
  401c7d:	test   eax,eax
  401c7f:	jne    0x401c71
  401c81:	pop    edx
  401c82:	push   edx
  401c83:	push   esi
  401c84:	push   edi
  401c85:	push   esi
  401c86:	call   0x401118
  401c8b:	add    esp,0xc
  401c8e:	pop    edx
  401c8f:	push   edx
  401c90:	mov    edi,0x0
  401c95:	push   edi
  401c96:	push   0x40301c
  401c9b:	pop    eax
  401c9c:	call   DWORD PTR cs:[eax]
  401c9f:	pop    edx
  401ca0:	sub    esp,0xffffffb8
  401ca3:	mov    ebp,DWORD PTR [esp]
  401ca6:	add    esp,0x4
  401ca9:	ret    
  401caa:	add    BYTE PTR [eax],al
  401cac:	mov    edi,edi
  401cae:	push   ebp
  401caf:	mov    ebp,esp
  401cb1:	sub    esp,0x48
  401cb4:	push   edx
  401cb5:	push   0x0
  401cb7:	push   0x403084
  401cbc:	pop    eax
  401cbd:	call   DWORD PTR cs:[eax]
  401cc0:	pop    edx
  401cc1:	push   edx
  401cc2:	push   ecx
  401cc3:	push   DWORD PTR [edx+0x40]
  401cc6:	push   esi
  401cc7:	push   DWORD PTR [edx+0x348]
  401ccd:	call   0x401960
  401cd2:	add    esp,0x10
  401cd5:	pop    edx
  401cd6:	push   edx
  401cd7:	push   0x0
  401cd9:	push   0x403014
  401cde:	pop    eax
  401cdf:	call   DWORD PTR cs:[eax]
  401ce2:	pop    edx
  401ce3:	sub    esp,0xffffffb8
  401ce6:	mov    ebp,DWORD PTR [esp]
  401ce9:	add    esp,0x4
  401cec:	ret    
  401ced:	add    BYTE PTR [eax],al
  401cef:	add    BYTE PTR [ebx-0x1374aa01],cl
  401cf5:	sub    esp,0x30
  401cf8:	push   edx
  401cf9:	push   DWORD PTR [edx+0xd8]
  401cff:	push   ebx
  401d00:	push   DWORD PTR [edx+0x5ac]
  401d06:	push   DWORD PTR [edx+0x1d8]
  401d0c:	call   0x401238
  401d11:	add    esp,0x10
  401d14:	pop    edx
  401d15:	push   edx
  401d16:	push   0x0
  401d18:	push   0x403010
  401d1d:	pop    eax
  401d1e:	call   DWORD PTR cs:[eax]
  401d21:	pop    edx
  401d22:	push   edx
  401d23:	mov    edi,0x0
  401d28:	push   edi
  401d29:	push   0x403028
  401d2e:	pop    eax
  401d2f:	call   DWORD PTR cs:[eax]
  401d32:	pop    edx
  401d33:	sub    esp,0xffffffd0
  401d36:	mov    ebp,DWORD PTR [esp]
  401d39:	add    esp,0x4
  401d3c:	ret    
  401d3d:	add    BYTE PTR [eax],al
  401d3f:	add    BYTE PTR [ebx-0x1374aa01],cl
  401d45:	sub    esp,0x38
  401d48:	push   edx
  401d49:	push   esi
  401d4a:	push   esi
  401d4b:	push   edi
  401d4c:	push   ebx
  401d4d:	call   0x40178c
  401d52:	add    esp,0x10
  401d55:	pop    edx
  401d56:	push   edx
  401d57:	push   0x0
  401d59:	push   0x403028
  401d5e:	pop    eax
  401d5f:	call   DWORD PTR cs:[eax]
  401d62:	pop    edx
  401d63:	push   edx
  401d64:	push   0x40304c
  401d69:	pop    eax
  401d6a:	call   DWORD PTR cs:[eax]
  401d6d:	pop    edx
  401d6e:	sub    esp,0xffffffc8
  401d71:	mov    ebp,DWORD PTR [esp]
  401d74:	add    esp,0x4
  401d77:	ret    
  401d78:	add    BYTE PTR [eax],al
  401d7a:	add    BYTE PTR [eax],al
  401d7c:	mov    edi,edi
  401d7e:	push   ebp
  401d7f:	mov    ebp,esp
  401d81:	sub    esp,0x24
  401d84:	push   edx
  401d85:	push   0x403000
  401d8a:	pop    eax
  401d8b:	call   DWORD PTR cs:[eax]
  401d8e:	pop    edx
  401d8f:	push   edx
  401d90:	push   DWORD PTR [edx+0x324]
  401d96:	push   eax
  401d97:	push   eax
  401d98:	push   esi
  401d99:	call   0x40158c
  401d9e:	add    esp,0x10
  401da1:	pop    edx
  401da2:	push   edx
  401da3:	push   0x0
  401da5:	push   0x403004
  401daa:	pop    eax
  401dab:	call   DWORD PTR cs:[eax]
  401dae:	pop    edx
  401daf:	sub    esp,0xffffffdc
  401db2:	mov    ebp,DWORD PTR [esp]
  401db5:	add    esp,0x4
  401db8:	ret    
  401db9:	add    BYTE PTR [eax],al
  401dbb:	add    BYTE PTR [ebx-0x1374aa01],cl
  401dc1:	sub    esp,0x3c
  401dc4:	push   edx
  401dc5:	push   DWORD PTR [edx+0x374]
  401dcb:	push   DWORD PTR [edx+0x4ec]
  401dd1:	push   edi
  401dd2:	call   0x40191c
  401dd7:	add    esp,0xc
  401dda:	pop    edx
  401ddb:	push   edx
  401ddc:	push   0x0
  401dde:	push   0x403008
  401de3:	pop    eax
  401de4:	call   DWORD PTR cs:[eax]
  401de7:	pop    edx
  401de8:	push   edx
  401de9:	mov    edx,0x0
  401dee:	push   edx
  401def:	push   0x403008
  401df4:	pop    eax
  401df5:	call   DWORD PTR cs:[eax]
  401df8:	pop    edx
  401df9:	sub    esp,0xffffffc4
  401dfc:	mov    ebp,DWORD PTR [esp]
  401dff:	add    esp,0x4
  401e02:	ret    
  401e03:	add    BYTE PTR [ebx-0x1374aa01],cl
  401e09:	sub    esp,0x5c
  401e0c:	push   edx
  401e0d:	push   DWORD PTR [edx+0x14]
  401e10:	push   DWORD PTR [edx+0x328]
  401e16:	call   0x401d40
  401e1b:	add    esp,0x8
  401e1e:	pop    edx
  401e1f:	push   edx
  401e20:	push   0x403000
  401e25:	pop    eax
  401e26:	call   DWORD PTR cs:[eax]
  401e29:	pop    edx
  401e2a:	push   edx
  401e2b:	mov    edx,0x0
  401e30:	push   edx
  401e31:	push   0x40307c
  401e36:	pop    eax
  401e37:	call   DWORD PTR cs:[eax]
  401e3a:	pop    edx
  401e3b:	sub    esp,0xffffffa4
  401e3e:	mov    ebp,DWORD PTR [esp]
  401e41:	add    esp,0x4
  401e44:	ret    
  401e45:	add    BYTE PTR [eax],al
  401e47:	add    BYTE PTR [eax],al
  401e49:	add    BYTE PTR [eax],al
  401e4b:	add    BYTE PTR [ebx-0x1374aa01],cl
  401e51:	sub    esp,0x24
  401e54:	push   edx
  401e55:	push   0x0
  401e57:	push   0x403044
  401e5c:	pop    eax
  401e5d:	call   DWORD PTR cs:[eax]
  401e60:	pop    edx
  401e61:	push   edx
  401e62:	push   DWORD PTR [edx+0x208]
  401e68:	push   DWORD PTR [edx+0x350]
  401e6e:	push   esi
  401e6f:	push   DWORD PTR [edx+0x50]
  401e72:	call   0x401a44
  401e77:	add    esp,0x10
  401e7a:	pop    edx
  401e7b:	push   edx
  401e7c:	lea    edx,[edx]
  401e7e:	push   edx
  401e7f:	push   0x403024
  401e84:	pop    eax
  401e85:	call   DWORD PTR cs:[eax]
  401e88:	test   eax,eax
  401e8a:	jne    0x401e7c
  401e8c:	pop    edx
  401e8d:	sub    esp,0xffffffdc
  401e90:	mov    ebp,DWORD PTR [esp]
  401e93:	add    esp,0x4
  401e96:	ret    
  401e97:	add    BYTE PTR [edi+0x6d941151],ah
  401e9d:	xor    edx,DWORD PTR [ebx]
  401e9f:	out    0x71,al
  401ea1:	inc    edx
  401ea2:	jge    0x401ee9
  401ea4:	push   ebx
  401ea5:	repz pop ebx
  401ea7:	test   eax,0xed18c272
  401eac:	ja     0x401e4d
  401eae:	cwde   
  401eaf:	cwde   
  401eb0:	jg     0x401ec1
  401eb2:	enter  0xeffd,0x9e
  401eb6:	mov    ecx,0xc7c70097
  401ebb:	add    DWORD PTR [eax],eax
  401ebd:	mov    edi,0xc6e30001
  401ec3:	jg     0x401f06
  401ec5:	retf   0xa27e
  401ec8:	mov    ebp,0x310580a8
  401ecd:	imul   esi,eax,0xffffffe2
  401ed0:	add    DWORD PTR ds:0x251691a3,ecx
  401ed6:	gs ins BYTE PTR es:[edi],dx
  401ed8:	pop    eax
  401ed9:	push   edi
  401eda:	inc    eax
  401edb:	push   ss
  401edc:	or     DWORD PTR [edx+0x32],eax
  401edf:	imul   ecx,DWORD PTR [ecx],0xffffffff
  401ee2:	mov    edx,0xbcd552e7
  401ee7:	ins    BYTE PTR es:[edi],dx
  401ee8:	mov    esi,0x81d8533b
  401eed:	push   esp
  401eee:	js     0x401ee7
  401ef0:	pop    edx
  401ef1:	call   0xf444a4e6
  401ef6:	mov    ch,0xa0
  401ef8:	jge    0x401ede
  401efa:	adc    BYTE PTR [eax],al
  401efc:	add    DWORD PTR [eax],edx
  401efe:	adc    al,0x1d
  401f00:	sbb    ebp,DWORD PTR [edi+0x468a0000]
  401f06:	(bad)  
  401f07:	adc    BYTE PTR [esi+edx*4],dl
  401f0a:	and    eax,0x60f2ae1
  401f0f:	call   0x3110:0x20092406
  401f16:	sbb    edx,DWORD PTR [edi+0x76dd5ba9]
  401f1c:	ins    DWORD PTR es:[edi],dx
  401f1d:	mov    DWORD PTR [eax+0x13],esp
  401f20:	xor    eax,0x2102650d
  401f25:	add    BYTE PTR [edx+eax*1],al
  401f28:	and    eax,0x5c1d9a32
  401f2d:	jbe    0x401f44
  401f2f:	push   eax
  401f30:	add    BYTE PTR [edx+0x702b6291],0xc4
  401f37:	xchg   ebx,eax
  401f38:	adc    DWORD PTR [eax],eax
  401f3a:	add    al,ah
  401f3c:	cmps   DWORD PTR ds:[esi],DWORD PTR es:[edi]
  401f3d:	push   0xff6b6a00
  401f42:	push   ebp
  401f43:	push   ss
  401f44:	pushf  
  401f45:	lods   eax,DWORD PTR ds:[esi]
  401f46:	cli    
  401f47:	cdq    
  401f48:	cwde   
  401f49:	add    eax,0xb5dedbf8
  401f4e:	aam    0xf9
  401f50:	stc    
  401f51:	aam    0xf
  401f53:	sub    eax,0xcffb9a7
  401f58:	push   esi
  401f59:	ret    
  401f5a:	call   0xc428acec
  401f5f:	stc    
  401f60:	add    al,BYTE PTR [edi-0x238cdecc]
  401f66:	jl     0x401fc2
  401f68:	add    eax,0x3f6f00fb
  401f6d:	call   0x6ab2aa72
  401f72:	add    BYTE PTR [edi+0x6b],ch
  401f75:	call   FWORD PTR [edi]
  401f77:	pushf  
  401f78:	cmp    al,0x8a
  401f7a:	stos   BYTE PTR es:[edi],al
  401f7b:	sub    BYTE PTR [eax+ebx*1+0x3c6b3d97],ah
  401f82:	adc    eax,0x47cca74
  401f87:	push   ecx
  401f88:	push   es
  401f89:	pop    es
  401f8a:	(bad)  [ecx+0x78]
  401f8d:	cmps   DWORD PTR ds:[esi],DWORD PTR es:[edi]
  401f8e:	add    BYTE PTR [ecx-0x364fb057],ch
  401f94:	loope  0x401f7e
  401f96:	sbb    dh,bl
  401f98:	int3   
  401f99:	cmp    al,0x8d
  401f9b:	pop    es
  401f9c:	add    ebp,ebx
  401f9e:	retf   
  401f9f:	push   es
  401fa0:	push   edi
  401fa1:	test   DWORD PTR [esi+0x73],0x22581962
  401fa8:	inc    ecx
  401fa9:	dec    ecx
  401faa:	mov    dl,0x4e
  401fac:	ins    DWORD PTR es:[edi],dx
  401fad:	loope  0x401fc4
  401faf:	sbb    al,0x69
  401fb1:	xor    al,0x6a
  401fb3:	xor    al,0x0
  401fb5:	jno    0x402017
  401fb7:	push   ebx
  401fb8:	push   ebx
  401fb9:	push   es
  401fba:	pusha  
  401fbb:	je     0x401fb2
  401fbd:	jl     0x401fc4
  401fbf:	stos   DWORD PTR es:[edi],eax
  401fc0:	aas    
  401fc1:	push   esp
  401fc2:	cmp    ebp,DWORD PTR [esi]
  401fc4:	push   ebx
  401fc5:	add    DWORD PTR [eax],ecx
  401fc7:	ds aas 
  401fc9:	push   cs
  401fca:	add    ch,BYTE PTR [esp+eax*1+0x77e1cddc]
  401fd1:	cmp    al,0x2f
  401fd3:	or     BYTE PTR [esi-0xe],bl
  401fd6:	jmp    DWORD PTR [ebx-0x49a93d2c]
  401fdc:	je     0x401f6c
  401fde:	mov    bh,0x93
  401fe0:	xchg   esp,eax
  401fe1:	lods   eax,DWORD PTR cs:[esi]
  401fe3:	xor    esi,DWORD PTR [edi-0x577bc9f]
  401fe9:	sbb    esi,esi
  401feb:	dec    BYTE PTR [esi-0x29]
  401fee:	test   BYTE PTR [edi+0x72a00e52],bh
  401ff4:	ss dec ebx
  401ff6:	ret    0x8e1c
  401ff9:	xchg   edi,edi
  401ffb:	jnp    0x401fd0
  401ffd:	out    0xc4,eax
  401fff:	test   DWORD PTR [ecx],eax
  402001:	(bad)  
  402002:	pop    ebx
  402003:	arpl   bx,ax
  402005:	in     al,dx
  402006:	arpl   WORD PTR [ebp+0x76],si
  402009:	call   0x14bb6432
  40200e:	push   DWORD PTR [ebp+0x66]
  402011:	je     0x40207e
  402013:	jnp    0x40201d
  402015:	test   al,dl
  402017:	inc    eax
  402018:	fmul   QWORD PTR [edi+0x50253a9]
  40201e:	test   ecx,ebx
  402020:	cmp    DWORD PTR [ebp+0x6],edx
  402023:	push   es
  402024:	push   edi
  402025:	pop    es
  402026:	or     BYTE PTR [ebx],dh
  402028:	ins    DWORD PTR es:[edi],dx
  402029:	int3   
  40202a:	add    cl,BYTE PTR [eax+ebx*2]
  40202d:	or     BYTE PTR [ebx-0x8],cl
  402030:	aas    
  402031:	das    
  402032:	mov    al,ds:0xc5a758ff
  402037:	jo     0x402084
  402039:	dec    ecx
  40203a:	mov    edx,0x29e958bd
  40203f:	mov    DWORD PTR [ecx],0x1e88ae9
  402045:	xor    DWORD PTR [eax+0x186968],0x28760000
  40204f:	push   esi
  402050:	ficom  DWORD PTR [ebx-0x78e6f002]
  402056:	dec    DWORD PTR [ebx-0x220c9fff]
  40205c:	add    al,0xff
  40205e:	add    BYTE PTR fs:[ecx-0x75],bl
  402062:	inc    eax
  402063:	cmp    al,0x80
  402065:	add    BYTE PTR [edi+0x34146061],al
  40206b:	(bad)
  40206f:	scas   eax,DWORD PTR es:[edi]
  402070:	jnp    0x402059
  402072:	and    al,0x88
  402074:	dec    ecx
  402075:	sbb    BYTE PTR [edi-0x3477a706],al
  40207b:	shl    al,0xef
  40207e:	mov    bl,BYTE PTR [eax+0x6d]
  402081:	out    dx,eax
  402082:	out    dx,eax
  402083:	cmp    DWORD PTR [esi-0x9],edx
  402086:	inc    esi
  402087:	imul   edi,DWORD PTR [eax+0x44],0xa1190ea1
  40208e:	fs xchg edx,ecx
  402091:	xor    BYTE PTR [ecx+0x65767178],cl
  402097:	push   esp
  402098:	std    
  402099:	jbe    0x402098
  40209b:	or     BYTE PTR [ecx],al
  40209d:	pop    edi
  40209e:	jmp    0x7e1c:0x79bdd2b0
  4020a5:	je     0x402043
  4020a7:	mov    dh,0x3a
  4020a9:	call   0x791a59fe
  4020ae:	pop    eax
  4020af:	add    al,0x3
  4020b1:	pop    eax
  4020b2:	js     0x4020a8
  4020b4:	mov    eax,DWORD PTR gs:[esi+eiz*1]
  4020b8:	in     al,dx
  4020b9:	add    BYTE PTR [edi+0x424010f],ch
  4020bf:	cmp    BYTE PTR [edx+0x64500424],cl
  4020c5:	(bad)  
  4020c6:	out    0x14,eax
  4020c8:	in     al,dx
  4020c9:	xor    bl,al
  4020cb:	inc    ebp
  4020cc:	dec    ebx
  4020cd:	mov    BYTE PTR [ebp+0xb],al
  4020d0:	xor    DWORD PTR [esi+0x7472b98b],0xf8f70373
  4020da:	or     bh,dl
  4020dc:	mov    al,BYTE PTR [ecx-0x70916601]
  4020e2:	test   al,0x7a
  4020e4:	test   eax,0xb6c37e53
  4020e9:	adc    DWORD PTR [ebx-0x56],0x235457a9
  4020f0:	fisub  DWORD PTR [esi]
  4020f2:	adc    BYTE PTR [esi-0x9],dl
  4020f5:	fwait
  4020f6:	mov    BYTE PTR [esi],ah
  4020f8:	sub    edi,DWORD PTR [esi]
  4020fa:	dec    BYTE PTR [eax]
  4020fc:	xlat   BYTE PTR ds:[ebx]
  4020fd:	or     BYTE PTR [ebx+0x4b],0x91
  402101:	fisub  DWORD PTR [edi+0x543f7f]
  402107:	or     DWORD PTR [edi+0x7],edx
  40210a:	or     BYTE PTR [edx+ebx*8],bh
  40210d:	or     dl,al
  40210f:	aas    
  402110:	push   ecx
  402111:	adc    eax,0x657cd8d
  402116:	movs   BYTE PTR es:[edi],BYTE PTR ds:[esi]
  402117:	xchg   ebx,eax
  402118:	pop    ebx
  402119:	cdq    
  40211a:	or     al,dl
  40211c:	mov    ch,0x9e
  40211e:	add    al,0x57
  402120:	add    DWORD PTR [ecx+0xd70019b],ebp
  402126:	inc    esp
  402127:	add    eax,DWORD PTR [eax]
  402129:	popa   
  40212a:	jb     0x402127
  40212c:	(bad)  
  40212d:	jg     0x4021a4
  40212f:	std    
  402130:	mov    dh,BYTE PTR [ebx+ebp*2+0x0]
  402134:	test   eax,0xa9f8f1c
  402139:	hlt    
  40213a:	push   esi
  40213b:	or     eax,0xb10f0a02
  402140:	or     DWORD PTR [edi-0x29aaaaff],ebp
  402146:	cmp    DWORD PTR [ebx-0x8],eax
  402149:	dec    ecx
  40214a:	loop   0x4020e7
  40214c:	mov    ds:0x78605cea,al
  402151:	sar    ch,1
  402153:	pop    esp
  402154:	adc    BYTE PTR [eax],ah
  402156:	aaa    
  402157:	ja     0x4021af
  402159:	cmp    edx,edx
  40215b:	mov    esi,0x590f8494
  402160:	add    al,0xa4
  402162:	add    BYTE PTR [eax],al
  402164:	add    DWORD PTR [ebx-0x495ed1ee],ecx
  40216a:	mov    eax,DWORD PTR [ebp-0x7e7bf08e]
  402170:	add    BYTE PTR [edi+ecx*1-0x7452080b],0xf8
  402178:	cld    
  402179:	jo     0x402178
  40217b:	js     0x4021cb
  40217d:	add    BYTE PTR [edx+0x543b0351],ch
  402183:	lods   al,BYTE PTR ds:[esi]
  402184:	imul   edx,DWORD PTR [edx+ebp*2],0xf8835850
  40218b:	add    al,0x55
  40218d:	add    BYTE PTR [edi+0x6a14693f],0x50
  402194:	pop    eax
  402195:	adc    DWORD PTR [esp],0x57811425
  40219c:	add    BYTE PTR [esi+0x1c],dl
  40219f:	jmp    FWORD PTR [ecx-0x859f100]
  4021a5:	jno    0x40216b
  4021a7:	add    al,0xdd
  4021a9:	add    dl,bh
  4021ab:	inc    esp
  4021ac:	ins    DWORD PTR es:[edi],dx
  4021ad:	cmp    ah,cl
  4021af:	mov    eax,0xe54462f2
  4021b4:	int3   
  4021b5:	lods   eax,DWORD PTR ds:[esi]
  4021b6:	push   esi
  4021b7:	mov    ah,0x7d
  4021b9:	adc    eax,0xff0ea6ff
  4021be:	and    al,0x1c
  4021c0:	sbb    al,0xe3
  4021c2:	out    dx,al
  4021c3:	pop    ecx
  4021c4:	xlat   BYTE PTR ds:[ebx]
  4021c5:	stos   BYTE PTR es:[edi],al
  4021c6:	mov    BYTE PTR [ebx],0x56
  4021c9:	jbe    0x4021df
  4021cb:	jb     0x40219b
  4021cd:	cmp    BYTE PTR [edx+0x41],dl
  4021d0:	adc    DWORD PTR [eax],eax
  4021d2:	aas    
  4021d3:	mov    bl,0x6a
  4021d5:	push   ebx
  4021d6:	push   eax
  4021d7:	dec    esi
  4021d9:	cmp    BYTE PTR [eax+edi*8],al
  4021dc:	adc    DWORD PTR [eax],eax
  4021de:	aas    
  4021df:	mov    cl,0x84
  4021e1:	jae    0x4021e3
  4021e3:	adc    BYTE PTR [ecx],dl
  4021e5:	add    bl,bl
  4021e7:	push   ecx
  4021e8:	pop    eax
  4021e9:	add    BYTE PTR [ebp+0xc],dl
  4021ec:	push   edi
  4021ed:	or     al,0xa7
  4021ef:	push   esp
  4021f0:	ficom  WORD PTR [ecx-0x491c24d4]
  4021f6:	test   eax,0x21cde36e
  4021fb:	pushf  
  4021fc:	jae    0x4021d4
  4021fe:	scas   al,BYTE PTR es:[edi]
  4021ff:	les    ecx,FWORD PTR [edi-0x15]
  402202:	mov    edi,0xe89b497e
  402207:	mov    eax,DWORD PTR [ecx]
  402209:	call   0xec3f6909
  40220e:	push   edx
  40220f:	pop    ds
  402210:	push   ds
  402211:	mov    ecx,0xff0a17ff
  402216:	(bad)  
  402217:	jmp    FWORD PTR [eax+0x1e1f846]
  40221d:	pop    es
  40221e:	push   ecx
  40221f:	adc    dh,0xe8
  402222:	add    BYTE PTR [edx+ebx*2-0x6124348c],cl
  402229:	cmp    eax,0xe801d08b
  40222e:	into   
  40222f:	inc    esi
  402230:	inc    edi
  402232:	fs (bad) 
  402234:	jb     0x402277
  402236:	pop    ss
  402237:	inc    ecx
  402238:	mov    esi,0xf2bfcae8
  40223d:	scas   eax,DWORD PTR es:[edi]
  40223e:	ds aaa 
  402240:	rol    BYTE PTR [eax],0x54
  402243:	in     al,0x2a
  402245:	add    eax,0x808923c5
  40224a:	sar    DWORD PTR [eax-0x79],0x98
  40224e:	cvtdq2ps xmm1,xmm3
  402251:	dec    esi
  402252:	sub    al,0xf2
  402254:	dec    eax
  402255:	add    DWORD PTR [eax],ebx
  402257:	mov    al,0xbe
  402259:	stc    
  40225a:	int3   
  40225b:	inc    eax
  40225c:	or     edi,DWORD PTR [ecx-0x8123dc]
  402262:	(bad)  
  402263:	(bad)  
  402264:	out    dx,eax
  402265:	dec    eax
  402266:	repz ret 
  402268:	or     DWORD PTR [ebp+0xe],ebx
  40226b:	pop    es
  40226c:	or     DWORD PTR [ecx-0x9149af],edi
  402272:	(bad)  
  402273:	jmp    DWORD PTR [ebp-0x857fe9]
  402279:	jg     0x4022dd
  40227b:	sub    eax,0x3c9e9551
  402280:	xchg   ecx,eax
  402281:	mov    al,ds:0xc8a739f4
  402286:	rcl    DWORD PTR [ecx+0x1],0x48
  40228a:	push   esp
  40228b:	mov    DWORD PTR [edx+0x1004876],ecx
  402291:	dec    eax
  402292:	jbe    0x402225
  402294:	xchg   edx,eax
  402295:	push   esp
  402296:	dec    eax
  402297:	add    BYTE PTR [ecx],al
  402299:	dec    eax
  40229a:	push   esp
  40229b:	cdq    
  40229c:	call   0x7048:0x1004870
  4022a3:	mov    eax,ds:0x4834a2
  4022a8:	add    DWORD PTR [eax+0x34],ecx
  4022ab:	test   eax,0x4870aa
  4022b0:	add    DWORD PTR [eax+0x70],ecx
  4022b3:	mov    cl,0xb2
  4022b5:	xor    al,0x48
  4022b7:	add    BYTE PTR [ecx],al
  4022b9:	dec    eax
  4022ba:	xor    al,0xb9
  4022bc:	mov    WORD PTR [ebp-0x255d3cef],?
  4022c2:	mov    esp,0x91094dc7
  4022c7:	mov    al,bh
  4022c9:	adc    dh,BYTE PTR [eax+eax*1-0x74]
  4022cd:	jge    0x402323
  4022cf:	mov    al,BYTE PTR [ebp+0x42207b21]
  4022d5:	(bad)  
  4022d6:	je     0x4022d7
  4022d8:	add    DWORD PTR [ecx+0x3b],esp
  4022db:	mov    BYTE PTR [eax-0x6b],ah
  4022de:	pop    ebp
  4022df:	mov    edx,DWORD PTR [edx-0x49]
  4022e2:	and    BYTE PTR [ebx-0x7724cf40],dh
  4022e8:	add    DWORD PTR [eax],edi
  4022ea:	inc    ebp
  4022eb:	mov    ecx,DWORD PTR ds:0xa9af3b00
  4022f1:	adc    ebx,DWORD PTR [ecx+0x5c]
  4022f4:	fsub   QWORD PTR [ecx-0x34b20e4d]
  4022fa:	clc    
  4022fb:	mov    eax,DWORD PTR [ecx]
  4022fd:	dec    eax
  4022fe:	mov    cl,0xac
  402300:	popa   
  402301:	test   eax,0x8776f8c3
  402306:	popf   
  402307:	and    BYTE PTR ds:0xc6e90cbd,al
  40230d:	sbb    BYTE PTR [eax],al
  40230f:	add    BYTE PTR [ecx],al
  402311:	mov    ebp,DWORD PTR [eax-0x73]
  402314:	jle    0x40232e
  402316:	mov    eax,DWORD PTR [eax]
  402318:	or     eax,0xa9ae3b00
  40231d:	adc    ecx,DWORD PTR [ebp+0x4102b500]
  402323:	add    eax,0x4004cedc
  402328:	or     al,0x2e
  40232a:	stos   DWORD PTR es:[edi],eax
  40232b:	sub    bh,BYTE PTR [eax-0x6f0c5a9c]
  402331:	inc    eax
  402332:	sub    al,0x79
  402334:	movs   DWORD PTR es:[edi],DWORD PTR ds:[esi]
  402335:	dec    esp
  402336:	shl    DWORD PTR [ebx-0x33],0x83
  40233a:	pusha  
  40233b:	ret    
  40233c:	imul   esp,DWORD PTR [eax+eax*1],0xd2310120
  402343:	add    ch,BYTE PTR [ebx-0x64]
  402346:	cmp    edi,edi
  402348:	test   eax,0x8dd8e114
  40234d:	fsub   st,st(3)
  40234f:	add    BYTE PTR [eax+0x74],ah
  402352:	pop    ss
  402353:	jo     0x40238e
  402355:	inc    edi
  402356:	retf   
  402357:	or     BYTE PTR [eax+0x11cc3c0],dh
  40235d:	rol    BYTE PTR ds:0x4684b54b,0x54
  402364:	add    BYTE PTR [ecx-0x6a41b3ac],bh
  40236a:	mov    dh,BYTE PTR [esi-0x626a754f]
  402370:	call   0x4d24:0x351db91
  402377:	cmc    
  402378:	push   ecx
  402379:	xchg   ebp,eax
  40237a:	popa   
  40237b:	ret    
  40237c:	mov    ds:0xf25449ea,al
  402381:	cmps   DWORD PTR ds:[esi],DWORD PTR es:[edi]
  402382:	sbb    cl,BYTE PTR [edx-0x33861654]
  402388:	and    al,0x0
  40238a:	xchg   dh,al
  40238c:	std    
  40238d:	cmps   BYTE PTR ds:[esi],BYTE PTR es:[edi]
  40238e:	mov    ebx,DWORD PTR [eax+esi*2]
  402391:	add    DWORD PTR ds:0x6130d425,ebp
  402397:	xchg   BYTE PTR [esp+edx*1+0x50],al
  40239b:	add    cl,dh
  40239d:	sub    DWORD PTR [esi],esp
  40239f:	jp     0x402360
  4023a1:	push   edx
  4023a2:	cmp    al,0x46
  4023a4:	jmp    0x1442494
  4023a9:	pop    edx
  4023aa:	call   0x723c17c7
  4023af:	enter  0x5ef4,0xa0
  4023b3:	jbe    0x402430
  4023b5:	pop    ebx
  4023b6:	add    BYTE PTR [edi+0x58],ah
  4023b9:	or     BYTE PTR [edi+0x26],bl
  4023bc:	gs add al,bh
  4023bf:	retf   0x88bc
  4023c2:	icebp  
  4023c3:	sbb    eax,0xb63e6540
  4023c8:	cdq    
  4023c9:	cwde   
  4023ca:	dec    ebx
  4023cb:	out    0xed,al
  4023cd:	popa   
  4023ce:	dec    edx
  4023cf:	cmp    esp,DWORD PTR [ebp+0x16f8a81]
  4023d5:	push   0x741bab60
  4023da:	or     BYTE PTR cs:0x12040743,cl
  4023e1:	daa    
  4023e2:	xchg   edx,eax
  4023e3:	cmp    eax,0x16947a50
  4023e8:	jl     0x40237e
  4023ea:	jp     0x40243d
  4023ec:	push   esp
  4023ed:	jp     0x402383
  4023ef:	jl     0x40242b
  4023f1:	stos   BYTE PTR es:[edi],al
  4023f2:	test   DWORD PTR [eax+0x2],ebp
  4023f5:	outs   dx,BYTE PTR ds:[esi]
  4023f6:	push   ds
  4023f7:	sub    ecx,DWORD PTR [edi]
  4023f9:	adc    bl,BYTE PTR [ecx]
  4023fb:	sbb    DWORD PTR [ebx],eax
  4023fd:	and    esi,DWORD PTR [esi]
  4023ff:	xchg   edi,eax
  402400:	test   eax,0xc9b6d758
  402405:	or     al,bh
  402407:	add    eax,0x66cb9a05
  40240c:	bound  edx,QWORD PTR [esi]
  40240e:	xchg   ebp,eax
  40240f:	add    DWORD PTR [eax-0x59],ebx
  402412:	push   es
  402413:	push   ebx
  402414:	add    eax,0xbf5a5f3a
  402419:	and    DWORD PTR [edx+0x50],ebp
  40241c:	add    DWORD PTR [ebx-0x45933e6],ecx
  402422:	cdq    
  402423:	add    BYTE PTR [ecx],al
  402425:	adc    ch,BYTE PTR [ebp-0x5b66a27a]
  40242b:	inc    edi
  40242c:	retf   
  40242d:	bound  ebx,QWORD PTR [eax-0x2c]
  402430:	repnz push edx
  402432:	jbe    0x402417
  402434:	ret    
  402435:	call   0x1b4f28c
  40243a:	cmps   DWORD PTR ds:[esi],DWORD PTR es:[edi]
  40243b:	call   FWORD PTR [eax-0x59]
  40243e:	sub    DWORD PTR [edi],eax
  402440:	leave  
  402441:	loop   0x4023de
  402443:	push   esp
  402444:	pop    eax
  402445:	adc    dh,BYTE PTR [esp+eiz*8]
  402448:	ja     0x40249f
  40244a:	sar    bh,1
  40244c:	pop    esi
  40244d:	lea    eax,[ebp-0x12]
  402450:	hlt    
  402451:	test   DWORD PTR [ecx-0x2fdf332c],ecx
  402457:	ficomp WORD PTR [eax+edx*1+0x24]
  40245b:	inc    esp
  40245c:	add    DWORD PTR [eax],eax
  40245e:	add    BYTE PTR [eax+0x69],ch
  402461:	add    BYTE PTR [eax],al
  402463:	add    ah,al
  402465:	xor    si,si
  402468:	xchg   ecx,eax
  402469:	mov    DWORD PTR [ebx],ebp
  40246b:	cdq    
  40246c:	cmp    eax,0xe255dce0
  402471:	adc    ah,BYTE PTR [ebp+0x640a6ee7]
  402477:	rol    BYTE PTR [ecx],1
  402479:	sti    
  40247a:	out    dx,eax
  40247b:	arpl   dx,dx
  40247d:	adc    ebp,DWORD PTR [edi-0x1]
  402480:	mov    DWORD PTR [ebp+0x75],esi
  402483:	sub    BYTE PTR [ebp-0x13],cl
  402486:	dec    ebx
  402487:	and    eax,0x24523716
  40248c:	jns    0x402427
  40248e:	jmp    0x402506
  402490:	loop   0x4024a5
  402492:	dec    ebp
  402493:	movs   DWORD PTR es:[edi],DWORD PTR ds:[esi]
  402494:	xchg   ecx,eax
  402495:	sar    DWORD PTR [ecx+edx*4+0x554b0b6d],cl
  40249c:	jno    0x402518
  40249e:	sub    esp,ebx
  4024a0:	ret    
  4024a1:	sub    eax,DWORD PTR [ecx]
  4024a3:	mov    dh,0x21
  4024a5:	call   FWORD PTR [ecx-0x6bdbb010]
  4024ab:	mov    BYTE PTR [edi+0x0],ch
  4024ae:	jge    0x40244b
  4024b0:	adc    DWORD PTR [eax],eax
  4024b2:	aas    
  4024b3:	outs   dx,BYTE PTR ds:[esi]
  4024b4:	imul   ebp,DWORD PTR [eax-0x5a63efab],0x7e
  4024bb:	in     al,dx
  4024bc:	jmp    0x8ccc1541
  4024c1:	cld    
  4024c2:	imul   eax,DWORD PTR [eax],0xdcfc6806
  4024c8:	add    edi,edi
  4024ca:	push   ebp
  4024cb:	and    DWORD PTR [ebx+0x55],ecx
  4024ce:	xchg   edi,eax
  4024cf:	rol    DWORD PTR [ecx+0x6e000068],cl
  4024d5:	push   0x0
  4024d7:	push   0x68
  4024d9:	push   0x8001036a
  4024de:	aas    
  4024df:	(bad)  
  4024e0:	test   eax,0xc1c40173
  4024e5:	and    BYTE PTR [edx*2-0x4a66f3c],0x2e
  4024ed:	mov    ds:0x5ec06144,eax
  4024f2:	(bad)  
  4024f3:	aam    0x4a
  4024f5:	jno    0x402529
  4024f7:	into   
  4024f8:	bound  esp,QWORD PTR [ebp+0x76]
  4024fb:	aam    0x1e
  4024fd:	sbb    edx,DWORD PTR [ecx-0x7c]
  402500:	sub    ebp,DWORD PTR [ebp+0x52]
  402503:	pop    edi
  402504:	lds    edx,FWORD PTR [edx+0x27b3bc5d]
  40250a:	dec    esi
  40250b:	xchg   DWORD PTR [ecx+0x6e],ecx
  40250e:	mov    eax,0xadfbd425
  402513:	jns    0x4024ca
  402515:	xchg   ebx,eax
  402516:	adc    DWORD PTR [esi],esi
  402518:	sub    al,0x8f
  40251a:	xchg   edx,eax
  40251b:	lea    esi,[eax-0x5c713a9c]
  402521:	cmp    ch,dh
  402523:	aas    
  402524:	adc    al,0xa6
  402526:	movs   DWORD PTR es:[edi],DWORD PTR ds:[esi]
  402527:	cmps   BYTE PTR ds:[esi],BYTE PTR es:[edi]
  402528:	lea    esp,[edi-0x3ad51cf8]
  40252e:	add    al,0xd7
  402530:	jnp    0x4024ef
  402532:	push   ds
  402533:	clc    
  402534:	xchg   DWORD PTR [ebx+0x12602],edx
  40253a:	add    BYTE PTR [edi+0x1],dh
  402540:	add    DWORD PTR [eax],eax
  402542:	add    BYTE PTR [eax],al
  402544:	add    DWORD PTR [eax],eax
  402546:	add    BYTE PTR [eax],al
  402548:	add    DWORD PTR [eax],eax
  40254a:	add    BYTE PTR [eax],al
  40254c:	add    DWORD PTR [eax],eax
  40254e:	add    BYTE PTR [eax],al
  402550:	add    DWORD PTR [edx+0x72],ebp
  402553:	add    BYTE PTR [ecx],al
  402555:	jb     0x4025a1
  402557:	add    eax,0x42004
  40255c:	add    DWORD PTR [edi+0x7b27347b],eax
  402562:	add    DWORD PTR [eax],0xffffff88
  402565:	cmps   BYTE PTR ds:[esi],BYTE PTR es:[edi]
  402566:	outs   dx,BYTE PTR ds:[esi]
  402567:	mov    dl,0x6c
  402569:	adc    eax,0x6f3a908
  40256e:	in     eax,0xed
  402570:	sahf   
  402571:	dec    edx
  402572:	dec    edx
  402573:	cmp    ebp,DWORD PTR [edi-0x48]
  402576:	lea    eax,[edi+0x30]
  402579:	xchg   ebx,eax
  40257b:	inc    eax
  40257c:	scas   eax,DWORD PTR es:[edi]
  40257d:	mov    ecx,0xc044d610
  402582:	dec    esi
  402583:	ds dec esp
  402585:	.byte 0x5
  402586:	.byte 0x33
  402587:	.byte 0x1d
