
cad78299c685a0449bfb21de71a3dac686876609509cc9e28be63a10f446ba5f.exe:     file format pei-i386


Disassembly of section .text:

00401000 <.text>:
  401000:	mov    edi,edi
  401002:	push   ebp
  401003:	mov    ebp,esp
  401005:	sub    esp,0x5c
  401008:	push   ecx
  401009:	push   DWORD PTR [ecx+0x48]
  40100c:	push   edi
  40100d:	push   eax
  40100e:	call   0x401370
  401013:	add    esp,0xc
  401016:	pop    ecx
  401017:	push   ecx
  401018:	push   0x0
  40101a:	push   0x403024
  40101f:	pop    eax
  401020:	notrack call DWORD PTR [eax]
  401023:	pop    ecx
  401024:	push   ecx
  401025:	mov    ecx,0x0
  40102a:	push   ecx
  40102b:	push   0x403044
  401030:	pop    eax
  401031:	notrack call DWORD PTR [eax]
  401034:	pop    ecx
  401035:	sub    esp,0xffffffa4
  401038:	mov    ebp,DWORD PTR [esp]
  40103b:	add    esp,0x4
  40103e:	ret    
  40103f:	add    BYTE PTR [ebx-0x1374aa01],cl
  401045:	sub    esp,0x34
  401048:	push   ecx
  401049:	push   eax
  40104a:	push   edx
  40104b:	call   0x401af8
  401050:	add    esp,0x8
  401053:	pop    ecx
  401054:	push   ecx
  401055:	push   0x403014
  40105a:	pop    eax
  40105b:	notrack call DWORD PTR [eax]
  40105e:	pop    ecx
  40105f:	push   ecx
  401060:	push   0x0
  401062:	push   0x403024
  401067:	pop    eax
  401068:	notrack call DWORD PTR [eax]
  40106b:	pop    ecx
  40106c:	sub    esp,0xffffffcc
  40106f:	mov    ebp,DWORD PTR [esp]
  401072:	add    esp,0x4
  401075:	ret    
  401076:	add    BYTE PTR [eax],al
  401078:	add    BYTE PTR [eax],al
  40107a:	add    BYTE PTR [eax],al
  40107c:	ja     0x401088
  401082:	add    BYTE PTR [eax],al
  401084:	add    BYTE PTR [eax],al
  401086:	add    BYTE PTR [eax],al
  401088:	mov    edi,edi
  40108a:	pusha  
  40108b:	push   ebp
  40108c:	mov    ebp,esp
  40108e:	sub    esp,0x34
  401091:	push   ecx
  401092:	push   0x0
  401094:	push   0x403000
  401099:	pop    eax
  40109a:	notrack call DWORD PTR [eax]
  40109d:	pop    ecx
  40109e:	test   eax,eax
  4010a0:	je     0x4010a3
  4010a2:	ret    
  4010a3:	push   ecx
  4010a4:	push   0x0
  4010a6:	push   0x403020
  4010ab:	pop    eax
  4010ac:	notrack call DWORD PTR [eax]
  4010af:	pop    ecx
  4010b0:	push   ecx
  4010b1:	push   edx
  4010b2:	push   DWORD PTR [ecx+0x374]
  4010b8:	call   0x401dbc
  4010bd:	add    esp,0x8
  4010c0:	pop    ecx
  4010c1:	mov    edx,0x40300c
  4010c6:	mov    edx,DWORD PTR [edx]
  4010c8:	push   edx
  4010c9:	push   DWORD PTR [ecx+0x230]
  4010cf:	pop    esi
  4010d0:	call   esi
  4010d2:	sub    esp,0xffffffcc
  4010d5:	mov    ebp,DWORD PTR [esp]
  4010d8:	add    esp,0x4
  4010db:	ret    
  4010dc:	mov    edi,edi
  4010de:	push   ebp
  4010df:	mov    ebp,esp
  4010e1:	sub    esp,0x28
  4010e4:	push   ecx
  4010e5:	push   0x0
  4010e7:	push   0x403080
  4010ec:	pop    eax
  4010ed:	notrack call DWORD PTR [eax]
  4010f0:	pop    ecx
  4010f1:	push   ecx
  4010f2:	push   eax
  4010f3:	push   DWORD PTR [ecx+0x17c]
  4010f9:	push   DWORD PTR [ecx+0x3c]
  4010fc:	push   DWORD PTR [ecx+0xa4]
  401102:	call   0x401b8c
  401107:	add    esp,0x10
  40110a:	pop    ecx
  40110b:	push   ecx
  40110c:	mov    ebx,0x0
  401111:	push   ebx
  401112:	push   0x403010
  401117:	pop    eax
  401118:	notrack call DWORD PTR [eax]
  40111b:	pop    ecx
  40111c:	sub    esp,0xffffffd8
  40111f:	mov    ebp,DWORD PTR [esp]
  401122:	add    esp,0x4
  401125:	ret    
  401126:	add    BYTE PTR [eax],al
  401128:	mov    edi,edi
  40112a:	push   ebp
  40112b:	mov    ebp,esp
  40112d:	sub    esp,0x54
  401130:	push   ecx
  401131:	push   0x0
  401133:	push   0x403044
  401138:	pop    eax
  401139:	notrack call DWORD PTR [eax]
  40113c:	pop    ecx
  40113d:	push   ecx
  40113e:	push   DWORD PTR [ecx+0xc]
  401141:	push   ebx
  401142:	call   0x401e3c
  401147:	add    esp,0x8
  40114a:	pop    ecx
  40114b:	push   ecx
  40114c:	push   0x0
  40114e:	push   0x403004
  401153:	pop    eax
  401154:	notrack call DWORD PTR [eax]
  401157:	pop    ecx
  401158:	sub    esp,0xffffffac
  40115b:	mov    ebp,DWORD PTR [esp]
  40115e:	add    esp,0x4
  401161:	ret    
	...
  40116a:	add    BYTE PTR [eax],al
  40116c:	mov    edi,edi
  40116e:	push   ebp
  40116f:	mov    ebp,esp
  401171:	sub    esp,0x44
  401174:	push   ecx
  401175:	push   0x0
  401177:	push   0x403034
  40117c:	pop    eax
  40117d:	notrack call DWORD PTR [eax]
  401180:	pop    ecx
  401181:	push   ecx
  401182:	push   eax
  401183:	push   DWORD PTR [ecx+0xe4]
  401189:	call   0x401c68
  40118e:	add    esp,0x8
  401191:	pop    ecx
  401192:	push   ecx
  401193:	lea    edi,[ecx]
  401195:	push   edi
  401196:	push   0x40300c
  40119b:	pop    eax
  40119c:	notrack call DWORD PTR [eax]
  40119f:	test   eax,eax
  4011a1:	jne    0x401193
  4011a3:	pop    ecx
  4011a4:	sub    esp,0xffffffbc
  4011a7:	mov    ebp,DWORD PTR [esp]
  4011aa:	add    esp,0x4
  4011ad:	ret    
	...
  4011ba:	add    BYTE PTR [eax],al
  4011bc:	mov    edi,edi
  4011be:	push   ebp
  4011bf:	mov    ebp,esp
  4011c1:	sub    esp,0x48
  4011c4:	push   ecx
  4011c5:	push   edx
  4011c6:	push   edx
  4011c7:	push   edx
  4011c8:	push   edi
  4011c9:	call   0x401694
  4011ce:	add    esp,0x10
  4011d1:	pop    ecx
  4011d2:	push   ecx
  4011d3:	mov    ecx,0x0
  4011d8:	push   ecx
  4011d9:	push   0x403048
  4011de:	pop    eax
  4011df:	notrack call DWORD PTR [eax]
  4011e2:	pop    ecx
  4011e3:	push   ecx
  4011e4:	lea    eax,[ecx]
  4011e6:	push   eax
  4011e7:	push   0x40300c
  4011ec:	pop    eax
  4011ed:	notrack call DWORD PTR [eax]
  4011f0:	test   eax,eax
  4011f2:	jne    0x4011e4
  4011f4:	pop    ecx
  4011f5:	sub    esp,0xffffffb8
  4011f8:	mov    ebp,DWORD PTR [esp]
  4011fb:	add    esp,0x4
  4011fe:	ret    
  4011ff:	add    BYTE PTR [eax],al
  401201:	add    BYTE PTR [eax],al
  401203:	add    BYTE PTR [ebx-0x1374aa01],cl
  401209:	sub    esp,0x28
  40120c:	push   ecx
  40120d:	push   DWORD PTR [ecx+0x4]
  401210:	push   DWORD PTR [ecx+0x7c]
  401213:	push   DWORD PTR [ecx+0x14]
  401216:	push   DWORD PTR [ecx+0x4c]
  401219:	call   0x4012d8
  40121e:	add    esp,0x10
  401221:	pop    ecx
  401222:	push   ecx
  401223:	push   0x0
  401225:	push   0x403028
  40122a:	pop    eax
  40122b:	notrack call DWORD PTR [eax]
  40122e:	pop    ecx
  40122f:	push   ecx
  401230:	push   0x0
  401232:	push   0x403044
  401237:	pop    eax
  401238:	notrack call DWORD PTR [eax]
  40123b:	pop    ecx
  40123c:	sub    esp,0xffffffd8
  40123f:	mov    ebp,DWORD PTR [esp]
  401242:	add    esp,0x4
  401245:	ret    
  401246:	add    BYTE PTR [eax],al
  401248:	mov    edi,edi
  40124a:	push   ebp
  40124b:	mov    ebp,esp
  40124d:	sub    esp,0x34
  401250:	push   ecx
  401251:	push   0x40303c
  401256:	pop    eax
  401257:	notrack call DWORD PTR [eax]
  40125a:	pop    ecx
  40125b:	push   ecx
  40125c:	push   DWORD PTR [ecx+0x1c0]
  401262:	push   DWORD PTR [ecx+0x2fc]
  401268:	call   0x401b44
  40126d:	add    esp,0x8
  401270:	pop    ecx
  401271:	push   ecx
  401272:	push   0x0
  401274:	push   0x403024
  401279:	pop    eax
  40127a:	notrack call DWORD PTR [eax]
  40127d:	pop    ecx
  40127e:	sub    esp,0xffffffcc
  401281:	mov    ebp,DWORD PTR [esp]
  401284:	add    esp,0x4
  401287:	ret    
	...
  401290:	mov    edi,edi
  401292:	push   ebp
  401293:	mov    ebp,esp
  401295:	sub    esp,0x50
  401298:	push   ecx
  401299:	push   ebx
  40129a:	push   DWORD PTR [ecx+0x328]
  4012a0:	push   DWORD PTR [ecx+0x358]
  4012a6:	call   0x401728
  4012ab:	add    esp,0xc
  4012ae:	pop    ecx
  4012af:	push   ecx
  4012b0:	push   0x0
  4012b2:	push   0x403054
  4012b7:	pop    eax
  4012b8:	notrack call DWORD PTR [eax]
  4012bb:	pop    ecx
  4012bc:	push   ecx
  4012bd:	push   0x403014
  4012c2:	pop    eax
  4012c3:	notrack call DWORD PTR [eax]
  4012c6:	pop    ecx
  4012c7:	sub    esp,0xffffffb0
  4012ca:	mov    ebp,DWORD PTR [esp]
  4012cd:	add    esp,0x4
  4012d0:	ret    
  4012d1:	add    BYTE PTR [eax],al
  4012d3:	add    BYTE PTR [eax],al
  4012d5:	add    BYTE PTR [eax],al
  4012d7:	add    BYTE PTR [ebx-0x1374aa01],cl
  4012dd:	sub    esp,0x20
  4012e0:	push   ecx
  4012e1:	push   DWORD PTR [ecx+0x2bc]
  4012e7:	push   edi
  4012e8:	push   DWORD PTR [ecx+0x3a8]
  4012ee:	push   DWORD PTR [ecx+0xf0]
  4012f4:	call   0x401290
  4012f9:	add    esp,0x10
  4012fc:	pop    ecx
  4012fd:	push   ecx
  4012fe:	mov    ecx,0x0
  401303:	push   ecx
  401304:	push   0x403034
  401309:	pop    eax
  40130a:	notrack call DWORD PTR [eax]
  40130d:	pop    ecx
  40130e:	push   ecx
  40130f:	push   0x40303c
  401314:	pop    eax
  401315:	notrack call DWORD PTR [eax]
  401318:	pop    ecx
  401319:	sub    esp,0xffffffe0
  40131c:	mov    ebp,DWORD PTR [esp]
  40131f:	add    esp,0x4
  401322:	ret    
  401323:	add    BYTE PTR [ebx-0x1374aa01],cl
  401329:	sub    esp,0x5c
  40132c:	push   ecx
  40132d:	push   DWORD PTR [ecx+0x1c4]
  401333:	push   DWORD PTR [ecx+0x2b0]
  401339:	push   DWORD PTR [ecx+0x338]
  40133f:	call   0x4016e0
  401344:	add    esp,0xc
  401347:	pop    ecx
  401348:	push   ecx
  401349:	mov    eax,0x0
  40134e:	push   eax
  40134f:	push   0x403084
  401354:	pop    eax
  401355:	notrack call DWORD PTR [eax]
  401358:	pop    ecx
  401359:	push   ecx
  40135a:	push   0x0
  40135c:	push   0x403034
  401361:	pop    eax
  401362:	notrack call DWORD PTR [eax]
  401365:	pop    ecx
  401366:	sub    esp,0xffffffa4
  401369:	mov    ebp,DWORD PTR [esp]
  40136c:	add    esp,0x4
  40136f:	ret    
  401370:	mov    edi,edi
  401372:	push   ebp
  401373:	mov    ebp,esp
  401375:	sub    esp,0x20
  401378:	push   ecx
  401379:	mov    ecx,0x0
  40137e:	push   ecx
  40137f:	push   0x403080
  401384:	pop    eax
  401385:	notrack call DWORD PTR [eax]
  401388:	pop    ecx
  401389:	push   ecx
  40138a:	push   ebx
  40138b:	push   DWORD PTR [ecx+0x1ec]
  401391:	call   0x401cf8
  401396:	add    esp,0x8
  401399:	pop    ecx
  40139a:	push   ecx
  40139b:	mov    ecx,0x0
  4013a0:	push   ecx
  4013a1:	push   0x403084
  4013a6:	pop    eax
  4013a7:	notrack call DWORD PTR [eax]
  4013aa:	pop    ecx
  4013ab:	sub    esp,0xffffffe0
  4013ae:	mov    ebp,DWORD PTR [esp]
  4013b1:	add    esp,0x4
  4013b4:	ret    
  4013b5:	add    BYTE PTR [eax],al
  4013b7:	add    BYTE PTR [ebx-0x1374aa01],cl
  4013bd:	sub    esp,0x58
  4013c0:	push   ecx
  4013c1:	push   esi
  4013c2:	push   ebx
  4013c3:	call   0x401d74
  4013c8:	add    esp,0x8
  4013cb:	pop    ecx
  4013cc:	push   ecx
  4013cd:	push   0x0
  4013cf:	push   0x403000
  4013d4:	pop    eax
  4013d5:	notrack call DWORD PTR [eax]
  4013d8:	pop    ecx
  4013d9:	push   ecx
  4013da:	mov    eax,0x0
  4013df:	push   eax
  4013e0:	push   0x403028
  4013e5:	pop    eax
  4013e6:	notrack call DWORD PTR [eax]
  4013e9:	pop    ecx
  4013ea:	sub    esp,0xffffffa8
  4013ed:	mov    ebp,DWORD PTR [esp]
  4013f0:	add    esp,0x4
  4013f3:	ret    
	...
  401400:	mov    edi,edi
  401402:	push   ebp
  401403:	mov    ebp,esp
  401405:	sub    esp,0x60
  401408:	push   ecx
  401409:	mov    edx,0x0
  40140e:	push   edx
  40140f:	push   0x403028
  401414:	pop    eax
  401415:	notrack call DWORD PTR [eax]
  401418:	pop    ecx
  401419:	push   ecx
  40141a:	push   DWORD PTR [ecx+0x354]
  401420:	push   DWORD PTR [ecx+0x3fc]
  401426:	push   DWORD PTR [ecx+0x274]
  40142c:	call   0x401ab0
  401431:	add    esp,0xc
  401434:	pop    ecx
  401435:	push   ecx
  401436:	push   0x0
  401438:	push   0x403054
  40143d:	pop    eax
  40143e:	notrack call DWORD PTR [eax]
  401441:	pop    ecx
  401442:	sub    esp,0xffffffa0
  401445:	mov    ebp,DWORD PTR [esp]
  401448:	add    esp,0x4
  40144b:	ret    
  40144c:	push   0x46e000
  401451:	mov    eax,0x40308c
  401456:	and    WORD PTR [eax],0x0
  40145a:	push   DWORD PTR [eax]
  40145c:	pop    eax
  40145d:	mov    ecx,eax
  40145f:	stc    
  401460:	adc    al,0x3b
  401462:	add    ecx,DWORD PTR [eax]
  401464:	mov    eax,DWORD PTR [ecx+0x1c]
  401467:	ror    eax,0xc
  40146a:	sub    al,0x0
  40146c:	sub    al,0x50
  40146e:	pop    ecx
  40146f:	jb     0x40147a
  401471:	nop
  401472:	nop
  401473:	nop
  401474:	nop
  401475:	jmp    0x40107c
  40147a:	int    0x3
  40147c:	add    BYTE PTR [eax],al
  40147e:	sub    DWORD PTR [ebx-0x75],esp
  401481:	call   DWORD PTR [ebp-0x75]
  401484:	in     al,dx
  401485:	sub    esp,0x20
  401488:	push   ecx
  401489:	push   DWORD PTR [ecx+0x184]
  40148f:	push   ebx
  401490:	push   edx
  401491:	push   eax
  401492:	call   0x401820
  401497:	add    esp,0x10
  40149a:	pop    ecx
  40149b:	push   ecx
  40149c:	mov    ebx,0x0
  4014a1:	push   ebx
  4014a2:	push   0x403004
  4014a7:	pop    eax
  4014a8:	notrack call DWORD PTR [eax]
  4014ab:	pop    ecx
  4014ac:	push   ecx
  4014ad:	push   0x0
  4014af:	push   0x403028
  4014b4:	pop    eax
  4014b5:	notrack call DWORD PTR [eax]
  4014b8:	pop    ecx
  4014b9:	sub    esp,0xffffffe0
  4014bc:	mov    ebp,DWORD PTR [esp]
  4014bf:	add    esp,0x4
  4014c2:	ret    
  4014c3:	add    BYTE PTR [eax],al
  4014c5:	add    BYTE PTR [eax],al
  4014c7:	add    BYTE PTR [ebx-0x1374aa01],cl
  4014cd:	sub    esp,0x5c
  4014d0:	push   ecx
  4014d1:	push   DWORD PTR [ecx+0x378]
  4014d7:	push   DWORD PTR [ecx+0x174]
  4014dd:	push   edi
  4014de:	push   edi
  4014df:	call   0x401990
  4014e4:	add    esp,0x10
  4014e7:	pop    ecx
  4014e8:	push   ecx
  4014e9:	push   0x0
  4014eb:	push   0x403048
  4014f0:	pop    eax
  4014f1:	notrack call DWORD PTR [eax]
  4014f4:	pop    ecx
  4014f5:	push   ecx
  4014f6:	mov    edx,0x0
  4014fb:	push   edx
  4014fc:	push   0x403048
  401501:	pop    eax
  401502:	notrack call DWORD PTR [eax]
  401505:	pop    ecx
  401506:	sub    esp,0xffffffa4
  401509:	mov    ebp,DWORD PTR [esp]
  40150c:	add    esp,0x4
  40150f:	ret    
  401510:	add    BYTE PTR [eax],al
  401512:	add    BYTE PTR [eax],al
  401514:	mov    edi,edi
  401516:	push   ebp
  401517:	mov    ebp,esp
  401519:	sub    esp,0x50
  40151c:	push   ecx
  40151d:	push   0x0
  40151f:	push   0x403004
  401524:	pop    eax
  401525:	notrack call DWORD PTR [eax]
  401528:	pop    ecx
  401529:	push   ecx
  40152a:	push   DWORD PTR [ecx+0x1d8]
  401530:	push   edi
  401531:	push   edi
  401532:	call   0x4018b4
  401537:	add    esp,0xc
  40153a:	pop    ecx
  40153b:	push   ecx
  40153c:	push   0x0
  40153e:	push   0x403080
  401543:	pop    eax
  401544:	notrack call DWORD PTR [eax]
  401547:	pop    ecx
  401548:	sub    esp,0xffffffb0
  40154b:	mov    ebp,DWORD PTR [esp]
  40154e:	add    esp,0x4
  401551:	ret    
  401552:	add    BYTE PTR [eax],al
  401554:	mov    edi,edi
  401556:	push   ebp
  401557:	mov    ebp,esp
  401559:	sub    esp,0x60
  40155c:	push   ecx
  40155d:	push   0x0
  40155f:	push   0x403084
  401564:	pop    eax
  401565:	notrack call DWORD PTR [eax]
  401568:	pop    ecx
  401569:	push   ecx
  40156a:	push   DWORD PTR [ecx+0x3f0]
  401570:	push   DWORD PTR [ecx+0xc4]
  401576:	push   ebx
  401577:	push   ebx
  401578:	call   0x401040
  40157d:	add    esp,0x10
  401580:	pop    ecx
  401581:	push   ecx
  401582:	mov    ecx,0x0
  401587:	push   ecx
  401588:	push   0x403010
  40158d:	pop    eax
  40158e:	notrack call DWORD PTR [eax]
  401591:	pop    ecx
  401592:	sub    esp,0xffffffa0
  401595:	mov    ebp,DWORD PTR [esp]
  401598:	add    esp,0x4
  40159b:	ret    
  40159c:	mov    edi,edi
  40159e:	push   ebp
  40159f:	mov    ebp,esp
  4015a1:	sub    esp,0x58
  4015a4:	push   ecx
  4015a5:	push   0x0
  4015a7:	push   0x403004
  4015ac:	pop    eax
  4015ad:	notrack call DWORD PTR [eax]
  4015b0:	pop    ecx
  4015b1:	push   ecx
  4015b2:	push   DWORD PTR [ecx+0x21c]
  4015b8:	push   DWORD PTR [ecx+0x258]
  4015be:	call   0x4013b8
  4015c3:	add    esp,0x8
  4015c6:	pop    ecx
  4015c7:	push   ecx
  4015c8:	mov    edx,0x0
  4015cd:	push   edx
  4015ce:	push   0x403048
  4015d3:	pop    eax
  4015d4:	notrack call DWORD PTR [eax]
  4015d7:	pop    ecx
  4015d8:	sub    esp,0xffffffa8
  4015db:	mov    ebp,DWORD PTR [esp]
  4015de:	add    esp,0x4
  4015e1:	ret    
  4015e2:	add    BYTE PTR [eax],al
  4015e4:	mov    edi,edi
  4015e6:	push   ebp
  4015e7:	mov    ebp,esp
  4015e9:	sub    esp,0x54
  4015ec:	push   ecx
  4015ed:	mov    eax,0x40
  4015f2:	push   eax
  4015f3:	push   0x1000
  4015f8:	push   0x6bc
  4015fd:	push   0x0
  4015ff:	push   0x0
  401601:	xor    DWORD PTR [esp],0x17e85381
  401608:	pop    esi
  401609:	sub    esi,0x17a82341
  40160f:	push   DWORD PTR [esi]
  401611:	sub    DWORD PTR [esp],0x2
  401615:	push   0x40302c
  40161a:	pop    esi
  40161b:	pop    DWORD PTR [esi]
  40161d:	push   0x40302c
  401622:	pop    eax
  401623:	notrack call DWORD PTR [eax]
  401626:	xchg   DWORD PTR [esp],eax
  401629:	mov    ecx,eax
  40162b:	pop    edi
  40162c:	mov    DWORD PTR [ecx+0x230],edi
  401632:	mov    edx,DWORD PTR [ecx+0x230]
  401638:	lea    ebx,[edx]
  40163a:	sub    eax,eax
  40163c:	dec    eax
  40163d:	and    eax,0x401eaa
  401642:	mov    edi,0x45ae3219
  401647:	xor    edx,edx
  401649:	add    edx,0x6bc
  40164f:	test   edx,edx
  401651:	je     0x40166e
  401653:	add    edx,0xfffffffc
  401656:	mov    esi,edi
  401658:	add    esi,DWORD PTR [eax]
  40165a:	sub    esi,0x1
  40165d:	mov    DWORD PTR [ebx],esi
  40165f:	push   DWORD PTR [eax]
  401661:	mov    edi,0xfffffffc
  401666:	sub    eax,edi
  401668:	sub    ebx,edi
  40166a:	pop    edi
  40166b:	dec    edi
  40166c:	jmp    0x40164f
  40166e:	push   ecx
  40166f:	mov    edx,0x0
  401674:	push   edx
  401675:	push   0x403084
  40167a:	pop    eax
  40167b:	notrack call DWORD PTR [eax]
  40167e:	pop    ecx
  40167f:	sub    esp,0xffffffac
  401682:	pop    ebp
  401683:	ret    
	...
  401694:	mov    edi,edi
  401696:	push   ebp
  401697:	mov    ebp,esp
  401699:	sub    esp,0x20
  40169c:	push   ecx
  40169d:	mov    edi,0x0
  4016a2:	push   edi
  4016a3:	push   0x403024
  4016a8:	pop    eax
  4016a9:	notrack call DWORD PTR [eax]
  4016ac:	pop    ecx
  4016ad:	push   ecx
  4016ae:	push   edx
  4016af:	push   DWORD PTR [ecx+0x24]
  4016b2:	push   ebx
  4016b3:	push   DWORD PTR [ecx+0x154]
  4016b9:	call   0x401514
  4016be:	add    esp,0x10
  4016c1:	pop    ecx
  4016c2:	push   ecx
  4016c3:	lea    eax,[ecx]
  4016c5:	push   eax
  4016c6:	push   0x40300c
  4016cb:	pop    eax
  4016cc:	notrack call DWORD PTR [eax]
  4016cf:	test   eax,eax
  4016d1:	jne    0x4016c3
  4016d3:	pop    ecx
  4016d4:	sub    esp,0xffffffe0
  4016d7:	mov    ebp,DWORD PTR [esp]
  4016da:	add    esp,0x4
  4016dd:	ret    
  4016de:	add    BYTE PTR [eax],al
  4016e0:	mov    edi,edi
  4016e2:	push   ebp
  4016e3:	mov    ebp,esp
  4016e5:	sub    esp,0x54
  4016e8:	push   ecx
  4016e9:	push   DWORD PTR [ecx+0x3a4]
  4016ef:	push   DWORD PTR [ecx+0x1e4]
  4016f5:	push   esi
  4016f6:	push   DWORD PTR [ecx+0x32c]
  4016fc:	call   0x401554
  401701:	add    esp,0x10
  401704:	pop    ecx
  401705:	push   ecx
  401706:	push   0x403014
  40170b:	pop    eax
  40170c:	notrack call DWORD PTR [eax]
  40170f:	pop    ecx
  401710:	push   ecx
  401711:	push   0x0
  401713:	push   0x403048
  401718:	pop    eax
  401719:	notrack call DWORD PTR [eax]
  40171c:	pop    ecx
  40171d:	sub    esp,0xffffffac
  401720:	mov    ebp,DWORD PTR [esp]
  401723:	add    esp,0x4
  401726:	ret    
  401727:	add    BYTE PTR [ebx-0x1374aa01],cl
  40172d:	sub    esp,0x28
  401730:	push   ecx
  401731:	mov    edi,0x0
  401736:	push   edi
  401737:	push   0x403084
  40173c:	pop    eax
  40173d:	notrack call DWORD PTR [eax]
  401740:	pop    ecx
  401741:	push   ecx
  401742:	push   DWORD PTR [ecx+0x9c]
  401748:	push   DWORD PTR [ecx+0x3ac]
  40174e:	push   edi
  40174f:	push   DWORD PTR [ecx+0x1b4]
  401755:	call   0x401bd4
  40175a:	add    esp,0x10
  40175d:	pop    ecx
  40175e:	push   ecx
  40175f:	push   0x0
  401761:	push   0x403000
  401766:	pop    eax
  401767:	notrack call DWORD PTR [eax]
  40176a:	pop    ecx
  40176b:	sub    esp,0xffffffd8
  40176e:	mov    ebp,DWORD PTR [esp]
  401771:	add    esp,0x4
  401774:	ret    
  401775:	add    BYTE PTR [eax],al
  401777:	add    BYTE PTR [eax],al
  401779:	add    BYTE PTR [eax],al
  40177b:	add    BYTE PTR [ebx-0x1374aa01],cl
  401781:	sub    esp,0x40
  401784:	push   ecx
  401785:	push   0x0
  401787:	push   0x403034
  40178c:	pop    eax
  40178d:	notrack call DWORD PTR [eax]
  401790:	pop    ecx
  401791:	push   ecx
  401792:	push   edx
  401793:	push   DWORD PTR [ecx+0x3d0]
  401799:	call   0x4014c8
  40179e:	add    esp,0x8
  4017a1:	pop    ecx
  4017a2:	push   ecx
  4017a3:	mov    edx,0x0
  4017a8:	push   edx
  4017a9:	push   0x403024
  4017ae:	pop    eax
  4017af:	notrack call DWORD PTR [eax]
  4017b2:	pop    ecx
  4017b3:	sub    esp,0xffffffc0
  4017b6:	mov    ebp,DWORD PTR [esp]
  4017b9:	add    esp,0x4
  4017bc:	ret    
	...
  4017d9:	add    BYTE PTR [eax],al
  4017db:	add    BYTE PTR [ebx-0x1374aa01],cl
  4017e1:	sub    esp,0x24
  4017e4:	push   ecx
  4017e5:	push   0x0
  4017e7:	push   0x403034
  4017ec:	pop    eax
  4017ed:	notrack call DWORD PTR [eax]
  4017f0:	pop    ecx
  4017f1:	push   ecx
  4017f2:	push   DWORD PTR [ecx+0x1b0]
  4017f8:	push   edi
  4017f9:	push   DWORD PTR [ecx+0x300]
  4017ff:	push   ebx
  401800:	call   0x401c20
  401805:	add    esp,0x10
  401808:	pop    ecx
  401809:	push   ecx
  40180a:	push   0x40303c
  40180f:	pop    eax
  401810:	notrack call DWORD PTR [eax]
  401813:	pop    ecx
  401814:	sub    esp,0xffffffdc
  401817:	mov    ebp,DWORD PTR [esp]
  40181a:	add    esp,0x4
  40181d:	ret    
  40181e:	add    BYTE PTR [eax],al
  401820:	mov    edi,edi
  401822:	push   ebp
  401823:	mov    ebp,esp
  401825:	sub    esp,0x60
  401828:	push   ecx
  401829:	lea    esi,[ecx]
  40182b:	push   esi
  40182c:	push   0x40300c
  401831:	pop    eax
  401832:	notrack call DWORD PTR [eax]
  401835:	test   eax,eax
  401837:	jne    0x401829
  401839:	pop    ecx
  40183a:	push   ecx
  40183b:	push   edi
  40183c:	push   DWORD PTR [ecx+0x100]
  401842:	call   0x40159c
  401847:	add    esp,0x8
  40184a:	pop    ecx
  40184b:	push   ecx
  40184c:	push   0x0
  40184e:	push   0x403048
  401853:	pop    eax
  401854:	notrack call DWORD PTR [eax]
  401857:	pop    ecx
  401858:	sub    esp,0xffffffa0
  40185b:	mov    ebp,DWORD PTR [esp]
  40185e:	add    esp,0x4
  401861:	ret    
  401862:	add    BYTE PTR [eax],al
  401864:	add    BYTE PTR [eax],al
  401866:	add    BYTE PTR [eax],al
  401868:	mov    edi,edi
  40186a:	push   ebp
  40186b:	mov    ebp,esp
  40186d:	sub    esp,0x24
  401870:	push   ecx
  401871:	mov    ecx,0x0
  401876:	push   ecx
  401877:	push   0x403028
  40187c:	pop    eax
  40187d:	notrack call DWORD PTR [eax]
  401880:	pop    ecx
  401881:	push   ecx
  401882:	push   DWORD PTR [ecx+0x260]
  401888:	push   DWORD PTR [ecx+0x284]
  40188e:	push   ebx
  40188f:	call   0x401cb4
  401894:	add    esp,0xc
  401897:	pop    ecx
  401898:	push   ecx
  401899:	mov    ecx,0x0
  40189e:	push   ecx
  40189f:	push   0x403020
  4018a4:	pop    eax
  4018a5:	notrack call DWORD PTR [eax]
  4018a8:	pop    ecx
  4018a9:	sub    esp,0xffffffdc
  4018ac:	mov    ebp,DWORD PTR [esp]
  4018af:	add    esp,0x4
  4018b2:	ret    
  4018b3:	add    BYTE PTR [ebx-0x1374aa01],cl
  4018b9:	sub    esp,0x4c
  4018bc:	push   ecx
  4018bd:	mov    edi,0x0
  4018c2:	push   edi
  4018c3:	push   0x403034
  4018c8:	pop    eax
  4018c9:	notrack call DWORD PTR [eax]
  4018cc:	pop    ecx
  4018cd:	push   ecx
  4018ce:	push   eax
  4018cf:	push   DWORD PTR [ecx+0xa4]
  4018d5:	call   0x401df8
  4018da:	add    esp,0x8
  4018dd:	pop    ecx
  4018de:	push   ecx
  4018df:	mov    ebx,0x0
  4018e4:	push   ebx
  4018e5:	push   0x403010
  4018ea:	pop    eax
  4018eb:	notrack call DWORD PTR [eax]
  4018ee:	pop    ecx
  4018ef:	sub    esp,0xffffffb4
  4018f2:	mov    ebp,DWORD PTR [esp]
  4018f5:	add    esp,0x4
  4018f8:	ret    
  4018f9:	add    BYTE PTR [eax],al
  4018fb:	add    BYTE PTR [ebx-0x1374aa01],cl
  401901:	sub    esp,0x30
  401904:	push   ecx
  401905:	mov    esi,0x0
  40190a:	push   esi
  40190b:	push   0x403000
  401910:	pop    eax
  401911:	notrack call DWORD PTR [eax]
  401914:	pop    ecx
  401915:	push   ecx
  401916:	push   DWORD PTR [ecx+0x30]
  401919:	push   DWORD PTR [ecx+0x384]
  40191f:	call   0x4017dc
  401924:	add    esp,0x8
  401927:	pop    ecx
  401928:	push   ecx
  401929:	mov    eax,0x0
  40192e:	push   eax
  40192f:	push   0x403048
  401934:	pop    eax
  401935:	notrack call DWORD PTR [eax]
  401938:	pop    ecx
  401939:	sub    esp,0xffffffd0
  40193c:	mov    ebp,DWORD PTR [esp]
  40193f:	add    esp,0x4
  401942:	ret    
  401943:	add    BYTE PTR [eax],al
  401945:	add    BYTE PTR [eax],al
  401947:	add    BYTE PTR [ebx-0x1374aa01],cl
  40194d:	sub    esp,0x28
  401950:	push   ecx
  401951:	mov    edx,0x0
  401956:	push   edx
  401957:	push   0x403034
  40195c:	pop    eax
  40195d:	notrack call DWORD PTR [eax]
  401960:	pop    ecx
  401961:	push   ecx
  401962:	push   ebx
  401963:	push   ebx
  401964:	push   DWORD PTR [ecx+0x288]
  40196a:	call   0x40116c
  40196f:	add    esp,0xc
  401972:	pop    ecx
  401973:	push   ecx
  401974:	lea    ecx,[ecx]
  401976:	push   ecx
  401977:	push   0x40300c
  40197c:	pop    eax
  40197d:	notrack call DWORD PTR [eax]
  401980:	test   eax,eax
  401982:	jne    0x401974
  401984:	pop    ecx
  401985:	sub    esp,0xffffffd8
  401988:	mov    ebp,DWORD PTR [esp]
  40198b:	add    esp,0x4
  40198e:	ret    
  40198f:	add    BYTE PTR [ebx-0x1374aa01],cl
  401995:	sub    esp,0x28
  401998:	push   ecx
  401999:	push   0x0
  40199b:	push   0x403034
  4019a0:	pop    eax
  4019a1:	notrack call DWORD PTR [eax]
  4019a4:	pop    ecx
  4019a5:	push   ecx
  4019a6:	push   DWORD PTR [ecx+0xb0]
  4019ac:	push   DWORD PTR [ecx+0x20c]
  4019b2:	call   0x4018fc
  4019b7:	add    esp,0x8
  4019ba:	pop    ecx
  4019bb:	push   ecx
  4019bc:	lea    ecx,[ecx]
  4019be:	push   ecx
  4019bf:	push   0x40300c
  4019c4:	pop    eax
  4019c5:	notrack call DWORD PTR [eax]
  4019c8:	test   eax,eax
  4019ca:	jne    0x4019bc
  4019cc:	pop    ecx
  4019cd:	sub    esp,0xffffffd8
  4019d0:	mov    ebp,DWORD PTR [esp]
  4019d3:	add    esp,0x4
  4019d6:	ret    
  4019d7:	add    BYTE PTR [ebx-0x1374aa01],cl
  4019dd:	sub    esp,0x50
  4019e0:	push   ecx
  4019e1:	push   0x0
  4019e3:	push   0x403054
  4019e8:	pop    eax
  4019e9:	notrack call DWORD PTR [eax]
  4019ec:	pop    ecx
  4019ed:	push   ecx
  4019ee:	push   DWORD PTR [ecx+0xec]
  4019f4:	push   edx
  4019f5:	push   DWORD PTR [ecx+0x17c]
  4019fb:	push   ebx
  4019fc:	call   0x401248
  401a01:	add    esp,0x10
  401a04:	pop    ecx
  401a05:	push   ecx
  401a06:	mov    edi,0x0
  401a0b:	push   edi
  401a0c:	push   0x403034
  401a11:	pop    eax
  401a12:	notrack call DWORD PTR [eax]
  401a15:	pop    ecx
  401a16:	sub    esp,0xffffffb0
  401a19:	mov    ebp,DWORD PTR [esp]
  401a1c:	add    esp,0x4
  401a1f:	ret    
	...
  401a2c:	mov    edi,edi
  401a2e:	push   ebp
  401a2f:	mov    ebp,esp
  401a31:	sub    esp,0x5c
  401a34:	push   ecx
  401a35:	push   DWORD PTR [ecx+0x154]
  401a3b:	push   eax
  401a3c:	call   0x40177c
  401a41:	add    esp,0x8
  401a44:	pop    ecx
  401a45:	push   ecx
  401a46:	mov    eax,0x0
  401a4b:	push   eax
  401a4c:	push   0x403054
  401a51:	pop    eax
  401a52:	notrack call DWORD PTR [eax]
  401a55:	pop    ecx
  401a56:	push   ecx
  401a57:	push   0x0
  401a59:	push   0x403028
  401a5e:	pop    eax
  401a5f:	notrack call DWORD PTR [eax]
  401a62:	pop    ecx
  401a63:	sub    esp,0xffffffa4
  401a66:	mov    ebp,DWORD PTR [esp]
  401a69:	add    esp,0x4
  401a6c:	ret    
  401a6d:	add    BYTE PTR [eax],al
  401a6f:	add    BYTE PTR [ebx-0x1374aa01],cl
  401a75:	sub    esp,0x2c
  401a78:	push   ecx
  401a79:	push   esi
  401a7a:	push   esi
  401a7b:	push   edi
  401a7c:	call   0x4011bc
  401a81:	add    esp,0xc
  401a84:	pop    ecx
  401a85:	push   ecx
  401a86:	push   0x0
  401a88:	push   0x403084
  401a8d:	pop    eax
  401a8e:	notrack call DWORD PTR [eax]
  401a91:	pop    ecx
  401a92:	push   ecx
  401a93:	mov    eax,0x0
  401a98:	push   eax
  401a99:	push   0x403024
  401a9e:	pop    eax
  401a9f:	notrack call DWORD PTR [eax]
  401aa2:	pop    ecx
  401aa3:	sub    esp,0xffffffd4
  401aa6:	mov    ebp,DWORD PTR [esp]
  401aa9:	add    esp,0x4
  401aac:	ret    
  401aad:	add    BYTE PTR [eax],al
  401aaf:	add    BYTE PTR [ebx-0x1374aa01],cl
  401ab5:	sub    esp,0x30
  401ab8:	push   ecx
  401ab9:	push   DWORD PTR [ecx+0x2c4]
  401abf:	push   edx
  401ac0:	push   edx
  401ac1:	push   DWORD PTR [ecx+0x2c8]
  401ac7:	call   0x4010dc
  401acc:	add    esp,0x10
  401acf:	pop    ecx
  401ad0:	push   ecx
  401ad1:	push   0x0
  401ad3:	push   0x403020
  401ad8:	pop    eax
  401ad9:	notrack call DWORD PTR [eax]
  401adc:	pop    ecx
  401add:	push   ecx
  401ade:	mov    ebx,0x0
  401ae3:	push   ebx
  401ae4:	push   0x403034
  401ae9:	pop    eax
  401aea:	notrack call DWORD PTR [eax]
  401aed:	pop    ecx
  401aee:	sub    esp,0xffffffd0
  401af1:	mov    ebp,DWORD PTR [esp]
  401af4:	add    esp,0x4
  401af7:	ret    
  401af8:	mov    edi,edi
  401afa:	push   ebp
  401afb:	mov    ebp,esp
  401afd:	sub    esp,0x60
  401b00:	push   ecx
  401b01:	push   DWORD PTR [ecx+0x180]
  401b07:	push   esi
  401b08:	push   edi
  401b09:	push   edi
  401b0a:	call   0x401400
  401b0f:	add    esp,0x10
  401b12:	pop    ecx
  401b13:	push   ecx
  401b14:	mov    ecx,0x0
  401b19:	push   ecx
  401b1a:	push   0x403004
  401b1f:	pop    eax
  401b20:	notrack call DWORD PTR [eax]
  401b23:	pop    ecx
  401b24:	push   ecx
  401b25:	mov    eax,0x0
  401b2a:	push   eax
  401b2b:	push   0x403034
  401b30:	pop    eax
  401b31:	notrack call DWORD PTR [eax]
  401b34:	pop    ecx
  401b35:	sub    esp,0xffffffa0
  401b38:	mov    ebp,DWORD PTR [esp]
  401b3b:	add    esp,0x4
  401b3e:	ret    
  401b3f:	add    BYTE PTR [eax],al
  401b41:	add    BYTE PTR [eax],al
  401b43:	add    BYTE PTR [ebx-0x1374aa01],cl
  401b49:	sub    esp,0x54
  401b4c:	push   ecx
  401b4d:	push   DWORD PTR [ecx+0x364]
  401b53:	push   DWORD PTR [ecx+0x1c]
  401b56:	push   esi
  401b57:	call   0x401204
  401b5c:	add    esp,0xc
  401b5f:	pop    ecx
  401b60:	push   ecx
  401b61:	mov    ecx,0x0
  401b66:	push   ecx
  401b67:	push   0x403020
  401b6c:	pop    eax
  401b6d:	notrack call DWORD PTR [eax]
  401b70:	pop    ecx
  401b71:	push   ecx
  401b72:	mov    ebx,0x0
  401b77:	push   ebx
  401b78:	push   0x403054
  401b7d:	pop    eax
  401b7e:	notrack call DWORD PTR [eax]
  401b81:	pop    ecx
  401b82:	sub    esp,0xffffffac
  401b85:	mov    ebp,DWORD PTR [esp]
  401b88:	add    esp,0x4
  401b8b:	ret    
  401b8c:	mov    edi,edi
  401b8e:	push   ebp
  401b8f:	mov    ebp,esp
  401b91:	sub    esp,0x5c
  401b94:	push   ecx
  401b95:	push   edx
  401b96:	push   DWORD PTR [ecx+0x190]
  401b9c:	push   edi
  401b9d:	push   DWORD PTR [ecx+0x360]
  401ba3:	call   0x401128
  401ba8:	add    esp,0x10
  401bab:	pop    ecx
  401bac:	push   ecx
  401bad:	push   0x0
  401baf:	push   0x403020
  401bb4:	pop    eax
  401bb5:	notrack call DWORD PTR [eax]
  401bb8:	pop    ecx
  401bb9:	push   ecx
  401bba:	push   0x0
  401bbc:	push   0x403004
  401bc1:	pop    eax
  401bc2:	notrack call DWORD PTR [eax]
  401bc5:	pop    ecx
  401bc6:	sub    esp,0xffffffa4
  401bc9:	mov    ebp,DWORD PTR [esp]
  401bcc:	add    esp,0x4
  401bcf:	ret    
  401bd0:	add    BYTE PTR [eax],al
  401bd2:	add    BYTE PTR [eax],al
  401bd4:	mov    edi,edi
  401bd6:	push   ebp
  401bd7:	mov    ebp,esp
  401bd9:	sub    esp,0x4c
  401bdc:	push   ecx
  401bdd:	push   esi
  401bde:	push   DWORD PTR [ecx+0x344]
  401be4:	push   DWORD PTR [ecx+0x3d8]
  401bea:	call   0x401948
  401bef:	add    esp,0xc
  401bf2:	pop    ecx
  401bf3:	push   ecx
  401bf4:	push   0x0
  401bf6:	push   0x403020
  401bfb:	pop    eax
  401bfc:	notrack call DWORD PTR [eax]
  401bff:	pop    ecx
  401c00:	push   ecx
  401c01:	mov    ecx,0x0
  401c06:	push   ecx
  401c07:	push   0x403020
  401c0c:	pop    eax
  401c0d:	notrack call DWORD PTR [eax]
  401c10:	pop    ecx
  401c11:	sub    esp,0xffffffb4
  401c14:	mov    ebp,DWORD PTR [esp]
  401c17:	add    esp,0x4
  401c1a:	ret    
  401c1b:	add    BYTE PTR [eax],al
  401c1d:	add    BYTE PTR [eax],al
  401c1f:	add    BYTE PTR [ebx-0x1374aa01],cl
  401c25:	sub    esp,0x34
  401c28:	push   ecx
  401c29:	push   DWORD PTR [ecx+0x224]
  401c2f:	push   edi
  401c30:	call   0x401d38
  401c35:	add    esp,0x8
  401c38:	pop    ecx
  401c39:	push   ecx
  401c3a:	mov    eax,0x0
  401c3f:	push   eax
  401c40:	push   0x403004
  401c45:	pop    eax
  401c46:	notrack call DWORD PTR [eax]
  401c49:	pop    ecx
  401c4a:	push   ecx
  401c4b:	mov    edi,0x0
  401c50:	push   edi
  401c51:	push   0x403084
  401c56:	pop    eax
  401c57:	notrack call DWORD PTR [eax]
  401c5a:	pop    ecx
  401c5b:	sub    esp,0xffffffcc
  401c5e:	mov    ebp,DWORD PTR [esp]
  401c61:	add    esp,0x4
  401c64:	ret    
  401c65:	add    BYTE PTR [eax],al
  401c67:	add    BYTE PTR [ebx-0x1374aa01],cl
  401c6d:	sub    esp,0x5c
  401c70:	push   ecx
  401c71:	mov    edx,0x0
  401c76:	push   edx
  401c77:	push   0x403020
  401c7c:	pop    eax
  401c7d:	notrack call DWORD PTR [eax]
  401c80:	pop    ecx
  401c81:	push   ecx
  401c82:	push   esi
  401c83:	push   DWORD PTR [ecx+0x398]
  401c89:	push   ebx
  401c8a:	call   0x401324
  401c8f:	add    esp,0xc
  401c92:	pop    ecx
  401c93:	push   ecx
  401c94:	push   0x0
  401c96:	push   0x403048
  401c9b:	pop    eax
  401c9c:	notrack call DWORD PTR [eax]
  401c9f:	pop    ecx
  401ca0:	sub    esp,0xffffffa4
  401ca3:	mov    ebp,DWORD PTR [esp]
  401ca6:	add    esp,0x4
  401ca9:	ret    
	...
  401cb2:	add    BYTE PTR [eax],al
  401cb4:	mov    edi,edi
  401cb6:	push   ebp
  401cb7:	mov    ebp,esp
  401cb9:	sub    esp,0x28
  401cbc:	push   ecx
  401cbd:	push   DWORD PTR [ecx+0x39c]
  401cc3:	push   eax
  401cc4:	push   edi
  401cc5:	call   0x4015e4
  401cca:	add    esp,0xc
  401ccd:	pop    ecx
  401cce:	push   ecx
  401ccf:	lea    edx,[ecx]
  401cd1:	push   edx
  401cd2:	push   0x40300c
  401cd7:	pop    eax
  401cd8:	notrack call DWORD PTR [eax]
  401cdb:	test   eax,eax
  401cdd:	jne    0x401ccf
  401cdf:	pop    ecx
  401ce0:	push   ecx
  401ce1:	push   0x40303c
  401ce6:	pop    eax
  401ce7:	notrack call DWORD PTR [eax]
  401cea:	pop    ecx
  401ceb:	sub    esp,0xffffffd8
  401cee:	mov    ebp,DWORD PTR [esp]
  401cf1:	add    esp,0x4
  401cf4:	ret    
  401cf5:	add    BYTE PTR [eax],al
  401cf7:	add    BYTE PTR [ebx-0x1374aa01],cl
  401cfd:	sub    esp,0x28
  401d00:	push   ecx
  401d01:	push   edx
  401d02:	push   DWORD PTR [ecx]
  401d04:	push   edi
  401d05:	call   0x401a2c
  401d0a:	add    esp,0xc
  401d0d:	pop    ecx
  401d0e:	push   ecx
  401d0f:	mov    ebx,0x0
  401d14:	push   ebx
  401d15:	push   0x403000
  401d1a:	pop    eax
  401d1b:	notrack call DWORD PTR [eax]
  401d1e:	pop    ecx
  401d1f:	push   ecx
  401d20:	push   0x0
  401d22:	push   0x403024
  401d27:	pop    eax
  401d28:	notrack call DWORD PTR [eax]
  401d2b:	pop    ecx
  401d2c:	sub    esp,0xffffffd8
  401d2f:	mov    ebp,DWORD PTR [esp]
  401d32:	add    esp,0x4
  401d35:	ret    
  401d36:	add    BYTE PTR [eax],al
  401d38:	mov    edi,edi
  401d3a:	push   ebp
  401d3b:	mov    ebp,esp
  401d3d:	sub    esp,0x48
  401d40:	push   ecx
  401d41:	push   0x403014
  401d46:	pop    eax
  401d47:	notrack call DWORD PTR [eax]
  401d4a:	pop    ecx
  401d4b:	push   ecx
  401d4c:	push   edi
  401d4d:	push   esi
  401d4e:	call   0x401868
  401d53:	add    esp,0x8
  401d56:	pop    ecx
  401d57:	push   ecx
  401d58:	mov    edx,0x0
  401d5d:	push   edx
  401d5e:	push   0x403044
  401d63:	pop    eax
  401d64:	notrack call DWORD PTR [eax]
  401d67:	pop    ecx
  401d68:	sub    esp,0xffffffb8
  401d6b:	mov    ebp,DWORD PTR [esp]
  401d6e:	add    esp,0x4
  401d71:	ret    
  401d72:	add    BYTE PTR [eax],al
  401d74:	mov    edi,edi
  401d76:	push   ebp
  401d77:	mov    ebp,esp
  401d79:	sub    esp,0x2c
  401d7c:	push   ecx
  401d7d:	mov    ecx,0x0
  401d82:	push   ecx
  401d83:	push   0x403004
  401d88:	pop    eax
  401d89:	notrack call DWORD PTR [eax]
  401d8c:	pop    ecx
  401d8d:	push   ecx
  401d8e:	push   edi
  401d8f:	push   DWORD PTR [ecx+0x3b0]
  401d95:	push   edi
  401d96:	push   esi
  401d97:	call   0x401000
  401d9c:	add    esp,0x10
  401d9f:	pop    ecx
  401da0:	push   ecx
  401da1:	mov    edx,0x0
  401da6:	push   edx
  401da7:	push   0x403004
  401dac:	pop    eax
  401dad:	notrack call DWORD PTR [eax]
  401db0:	pop    ecx
  401db1:	sub    esp,0xffffffd4
  401db4:	mov    ebp,DWORD PTR [esp]
  401db7:	add    esp,0x4
  401dba:	ret    
  401dbb:	add    BYTE PTR [ebx-0x1374aa01],cl
  401dc1:	sub    esp,0x30
  401dc4:	push   ecx
  401dc5:	push   DWORD PTR [ecx+0x280]
  401dcb:	push   eax
  401dcc:	call   0x401a70
  401dd1:	add    esp,0x8
  401dd4:	pop    ecx
  401dd5:	push   ecx
  401dd6:	push   0x403014
  401ddb:	pop    eax
  401ddc:	notrack call DWORD PTR [eax]
  401ddf:	pop    ecx
  401de0:	push   ecx
  401de1:	push   0x0
  401de3:	push   0x403080
  401de8:	pop    eax
  401de9:	notrack call DWORD PTR [eax]
  401dec:	pop    ecx
  401ded:	sub    esp,0xffffffd0
  401df0:	mov    ebp,DWORD PTR [esp]
  401df3:	add    esp,0x4
  401df6:	ret    
  401df7:	add    BYTE PTR [ebx-0x1374aa01],cl
  401dfd:	sub    esp,0x40
  401e00:	push   ecx
  401e01:	push   0x0
  401e03:	push   0x403000
  401e08:	pop    eax
  401e09:	notrack call DWORD PTR [eax]
  401e0c:	pop    ecx
  401e0d:	push   ecx
  401e0e:	push   esi
  401e0f:	push   DWORD PTR [ecx+0x31c]
  401e15:	push   eax
  401e16:	call   0x4019d8
  401e1b:	add    esp,0xc
  401e1e:	pop    ecx
  401e1f:	push   ecx
  401e20:	push   0x0
  401e22:	push   0x403010
  401e27:	pop    eax
  401e28:	notrack call DWORD PTR [eax]
  401e2b:	pop    ecx
  401e2c:	sub    esp,0xffffffc0
  401e2f:	mov    ebp,DWORD PTR [esp]
  401e32:	add    esp,0x4
  401e35:	ret    
  401e36:	add    BYTE PTR [eax],al
  401e38:	add    BYTE PTR [eax],al
  401e3a:	add    BYTE PTR [eax],al
  401e3c:	mov    edi,edi
  401e3e:	push   ebp
  401e3f:	mov    ebp,esp
  401e41:	sub    esp,0x54
  401e44:	push   ecx
  401e45:	push   DWORD PTR [ecx+0x35c]
  401e4b:	push   ebx
  401e4c:	push   DWORD PTR [ecx+0x26c]
  401e52:	call   0x401480
  401e57:	add    esp,0xc
  401e5a:	pop    ecx
  401e5b:	push   ecx
  401e5c:	mov    ebx,0x0
  401e61:	push   ebx
  401e62:	push   0x403048
  401e67:	pop    eax
  401e68:	notrack call DWORD PTR [eax]
  401e6b:	pop    ecx
  401e6c:	push   ecx
  401e6d:	push   0x0
  401e6f:	push   0x403034
  401e74:	pop    eax
  401e75:	notrack call DWORD PTR [eax]
  401e78:	pop    ecx
  401e79:	sub    esp,0xffffffac
  401e7c:	mov    ebp,DWORD PTR [esp]
  401e7f:	add    esp,0x4
  401e82:	ret    
  401e83:	add    BYTE PTR [eax],al
  401e85:	add    BYTE PTR [eax],al
  401e87:	add    BYTE PTR [ecx-0xa],cl
  401e8a:	data16 data16 lock fcomp QWORD PTR [edi-0x50]
  401e90:	retf   0xeb2e
  401e93:	je     0x401e3c
  401e95:	div    DWORD PTR [ebx+ebp*4+0xc431634]
  401e9c:	loope  0x401e6c
  401e9e:	sbb    al,0x43
  401ea0:	outs   dx,BYTE PTR ds:[esi]
  401ea1:	xor    eax,0xcb1ae8fb
  401ea6:	shl    DWORD PTR [ecx],cl
  401ea8:	iret   
  401ea9:	idiv   DWORD PTR [eax]
  401eab:	mov    es:0x5de0b212,al
  401eb1:	in     eax,dx
  401eb2:	push   eax
  401eb3:	and    BYTE PTR [ecx],bl
  401eb5:	ins    BYTE PTR es:[edi],dx
  401eb6:	or     BYTE PTR [ebp+0x2c],ch
  401eb9:	in     eax,dx
  401eba:	and    eax,0xe0d4575c
  401ebf:	clc    
  401ec0:	push   es
  401ec1:	push   cs
  401ec2:	pop    ds
  401ec3:	mov    edi,DWORD PTR [ebp+0x428fcbe6]
  401ec9:	sbb    DWORD PTR [edi],esi
  401ecb:	mov    ebx,0xb6cb4bbd
  401ed0:	inc    edx
  401ed1:	and    dh,BYTE PTR [edi]
  401ed3:	scas   al,BYTE PTR es:[edi]
  401ed4:	mov    ebp,0x4284cb49
  401ed9:	call   0x7bfdc815
  401ede:	retf   
  401edf:	ret    0xf042
  401ee2:	aaa    
  401ee3:	cmp    eax,0xc21b67bd
  401ee8:	sbb    DWORD PTR [edi+edi*4],esp
  401eeb:	inc    ecx
  401eec:	sub    DWORD PTR [eax],ebx
  401eee:	les    esi,FWORD PTR [esi]
  401ef0:	daa    
  401ef1:	call   0x8e18ecb4
  401ef6:	outs   dx,DWORD PTR ds:[esi]
  401ef7:	sbb    bl,BYTE PTR [ebx]
  401ef9:	js     0x401e8e
  401efb:	in     eax,0x41
  401efd:	adc    esp,DWORD PTR [esp+edx*8-0x32]
  401f01:	in     al,dx
  401f02:	sahf   
  401f03:	sub    ebx,esi
  401f05:	sti    
  401f06:	push   esi
  401f07:	xlat   BYTE PTR ds:[ebx]
  401f08:	and    DWORD PTR [esi*1-0x3d212591],eax
  401f0f:	sti    
  401f10:	mov    BYTE PTR [ecx-0x1a1c8f7f],cl
  401f16:	jmp    0x89bba0f2
  401f1b:	jl     0x401eee
  401f1d:	or     esi,0xffffff8b
  401f20:	mov    bh,0x82
  401f22:	sahf   
  401f23:	je     0x401ed5
  401f25:	ret    
  401f26:	(bad)  
  401f27:	lock mov ah,0xa4
  401f2a:	je     0x401fa0
  401f2c:	lods   al,BYTE PTR ds:[esi]
  401f2d:	retf   
  401f2e:	loop   0x401f0e
  401f30:	push   edx
  401f31:	mov    ch,BYTE PTR [eax]
  401f33:	stos   BYTE PTR es:[edi],al
  401f34:	repz jns 0x401f94
  401f37:	sbb    ah,BYTE PTR ds:0xdb4de5f0
  401f3d:	pop    ds
  401f3e:	sbb    eax,0xeb8c8cb2
  401f43:	dec    ebp
  401f44:	jae    0x401f23
  401f46:	pop    ss
  401f47:	mov    cl,0xe2
  401f49:	xor    dh,BYTE PTR [esi+0x47]
  401f4c:	and    esi,DWORD PTR [ebx-0x74]
  401f4f:	mov    eax,0xfd03dcdc
  401f54:	jmp    0x401f72
  401f56:	inc    BYTE PTR [edx]
  401f58:	into   
  401f59:	(bad)  
  401f5d:	arpl   WORD PTR [esi+eax*8+0x396b27b6],bx
  401f64:	dec    ecx
  401f65:	xor    eax,0xeeeb4df5
  401f6a:	arpl   WORD PTR [edx+0x659f160e],bx
  401f70:	fldenv [ecx]
  401f72:	push   0x9269269a
  401f77:	rcr    cl,1
  401f79:	add    BYTE PTR [eax+0x2e],dh
  401f7c:	pushf  
  401f7d:	arpl   cx,bp
  401f7f:	sar    BYTE PTR [ecx-0x51835b3c],1
  401f85:	movs   DWORD PTR es:[edi],DWORD PTR ds:[esi]
  401f86:	pop    esi
  401f87:	xlat   BYTE PTR ds:[ebx]
  401f88:	test   eax,0xa64cd859
  401f8d:	test   DWORD PTR [eax-0x51a1a6f6],0xa9a0fe4d
  401f97:	retf   0x88e9
  401f9a:	pop    esp
  401f9b:	xor    eax,0x6ec0216
  401fa0:	ja     0x401fa4
  401fa2:	sbb    al,0x5f
  401fa4:	cmp    BYTE PTR [esi],0xfc
  401fa7:	mov    al,ds:0x981c369f
  401fac:	mov    eax,0xd2795afd
  401fb1:	pop    edx
  401fb2:	fdivr  st(0),st
  401fb4:	xor    DWORD PTR ds:0xf2ce3f26,ecx
  401fba:	(bad)  [ecx]
  401fbc:	and    BYTE PTR [eax+0x26],0x24
  401fc0:	mov    gs,WORD PTR [edx]
  401fc2:	pop    ecx
  401fc3:	dec    eax
  401fc4:	ret    0x1329
  401fc7:	mov    esp,0x99ee2994
  401fcc:	ja     0x401ff8
  401fce:	jle    0x402038
  401fd0:	fild   QWORD PTR [eax]
  401fd2:	fisub  DWORD PTR [edx]
  401fd4:	lock bound esp,QWORD PTR [ebx]
  401fd7:	shl    DWORD PTR [ebx+edi*8+0x5c5784de],1
  401fde:	scas   eax,DWORD PTR es:[edi]
  401fdf:	dec    ecx
  401fe0:	lods   al,BYTE PTR ds:[esi]
  401fe1:	in     al,dx
  401fe2:	pop    DWORD PTR [ebx-0x33]
  401fe5:	sub    edi,esi
  401fe7:	adc    edx,DWORD PTR [ebx-0x1d]
  401fea:	mov    ebx,0x3f1fc12d
  401fef:	loop   0x401fe6
  401ff1:	sub    ecx,ecx
  401ff3:	jge    0x401f8a
  401ff5:	sbb    eax,0x572b074d
  401ffa:	test   BYTE PTR [ebx+0x3c91b11c],0x58
  402001:	mov    DWORD PTR [ecx+0x55],ebx
  402004:	lods   al,BYTE PTR ds:[esi]
  402005:	jbe    0x401fb0
  402007:	xor    eax,0xeea0151c
  40200c:	retf   
  40200d:	pusha  
  40200e:	adc    DWORD PTR fs:[edx+eiz*4],esi
  402012:	adc    eax,0xfdd5cb03
  402017:	xchg   DWORD PTR [esi+esi*1+0x19a77308],esi
  40201e:	test   DWORD PTR [ecx-0x55],esp
  402021:	ss into 
  402023:	cmc    
  402024:	movs   DWORD PTR es:[edi],DWORD PTR ds:[esi]
  402025:	sbb    ebx,DWORD PTR [esi+0x633bab0e]
  40202b:	inc    edi
  40202c:	popa   
  40202d:	sbb    eax,0xd5f678d2
  402032:	(bad)  
  402034:	xchg   esp,eax
  402035:	cmc    
  402036:	sbb    edi,DWORD PTR [esi-0x660c9f96]
  40203c:	mul    BYTE PTR [edx]
  40203e:	(bad)  
  40203f:	mov    gs,ebx
  402041:	mov    ss,WORD PTR [edi*2+0x6aee7115]
  402048:	ins    BYTE PTR es:[edi],dx
  402049:	(bad)  
  40204a:	adc    al,0x95
  40204c:	jmp    0x402026
  40204e:	out    dx,al
  40204f:	stos   BYTE PTR es:[edi],al
  402050:	adc    al,0x27
  402052:	adc    ecx,ebx
  402054:	push   ebx
  402055:	das    
  402056:	jp     0x402088
  402058:	cmp    cl,al
  40205a:	jo     0x402036
  40205c:	retf   
  40205d:	ds xchg edx,eax
  40205f:	mov    DWORD PTR [ebx],esi
  402061:	mul    DWORD PTR [eax-0x45f7338a]
  402067:	adc    al,0x74
  402069:	add    edx,ebx
  40206b:	sub    ebx,DWORD PTR [eax-0x241378cb]
  402071:	into   
  402072:	push   es
  402073:	adc    al,0xf
  402075:	sub    DWORD PTR [edi-0x3b25eb08],eax
  40207b:	inc    ebx
  40207c:	jbe    0x402015
  40207e:	mov    di,0xf280
  402082:	adc    al,0x59
  402084:	or     BYTE PTR [esi+0xa],bh
  402087:	or     eax,0xf30ec3ef
  40208c:	xor    BYTE PTR [ecx+0x67707100],dh
  402092:	add    cl,BYTE PTR [edi-0x5ebfdc71]
  402098:	stc    
  402099:	push   esp
  40209a:	retf   0x5c5d
  40209d:	mov    edi,0x40a61920
  4020a2:	loop   0x4020e7
  4020a4:	and    ebx,DWORD PTR [eax]
  4020a6:	test   eax,0xba040130
  4020ab:	pop    ds
  4020ac:	out    0x3a,eax
  4020ae:	dec    esp
  4020af:	loopne 0x4020c9
  4020b1:	sbb    eax,0xe33f9837
  4020b6:	int    0x67
  4020b8:	rcl    BYTE PTR [ecx-0x6dbbdcbc],0x85
  4020bf:	loope  0x4020a0
  4020c1:	ins    DWORD PTR es:[edi],dx
  4020c2:	jge    0x4020e2
  4020c4:	and    BYTE PTR [ecx-0x411bfa07],dl
  4020ca:	cmp    al,0xba
  4020cc:	fbld   TBYTE PTR [ecx-0x2bdbc6af]
  4020d2:	in     eax,dx
  4020d3:	push   ecx
  4020d4:	xchg   edx,eax
  4020d5:	lods   al,BYTE PTR ds:[esi]
  4020d6:	adc    eax,0xe3d86dae
  4020db:	mov    BYTE PTR ds:0x78c5122b,0xe1
  4020e2:	jne    0x40211e
  4020e4:	cld    
  4020e5:	mov    BYTE PTR [eax-0x3889a440],dl
  4020eb:	inc    ebx
  4020ec:	sub    DWORD PTR [edx-0x50],ecx
  4020ef:	shr    BYTE PTR ds:0x223fa7b5,0xa1
  4020f6:	out    0x36,al
  4020f8:	out    dx,al
  4020f9:	popa   
  4020fa:	andnps xmm2,XMMWORD PTR [eax]
  4020fd:	dec    esp
  4020fe:	js     0x40216b
  402100:	gs scas eax,DWORD PTR es:[edi]
  402102:	mov    ch,0x8b
  402104:	es pop ds
  402106:	stos   DWORD PTR es:[edi],eax
  402107:	lds    ebp,FWORD PTR [ecx]
  402109:	xor    eax,0x22273ec1
  40210e:	inc    eax
  40210f:	pop    ss
  402110:	in     eax,0x33
  402112:	dec    ebp
  402113:	out    dx,eax
  402114:	lahf   
  402115:	mov    WORD PTR [ebp-0x5f],es
  402118:	jmp    0x4020d3
  40211a:	int    0xeb
  40211c:	dec    eax
  40211d:	dec    ecx
  40211e:	mov    ecx,es
  402120:	cmp    al,0x77
  402122:	jmp    0x13a6:0x18896c59
  402129:	in     al,dx
  40212a:	out    dx,al
  40212b:	out    0x30,al
  40212d:	pop    ss
  40212e:	push   ss
  40212f:	ds into 
  402131:	call   0x16c26321
  402136:	mov    esp,edx
  402138:	xchg   ecx,eax
  402139:	call   0x359470a
  40213e:	push   ss
  40213f:	cmp    al,BYTE PTR [ebp+0x55]
  402142:	inc    ebp
  402143:	sbb    cl,BYTE PTR [ebx]
  402145:	cld    
  402146:	adc    al,0xe5
  402148:	dec    edx
  402149:	adc    BYTE PTR [esi-0x62],al
  40214c:	jnp    0x402152
  40214e:	cmps   DWORD PTR ds:[esi],DWORD PTR es:[edi]
  40214f:	icebp  
  402150:	in     eax,0xbe
  402152:	mov    ebx,0x39cced99
  402157:	push   0xffffff88
  402159:	outs   dx,DWORD PTR ds:[esi]
  40215a:	hlt    
  40215b:	jmp    0x402108
  40215d:	adc    eax,0x7fd823e0
  402162:	and    bl,ah
  402164:	daa    
  402165:	or     ebp,DWORD PTR [esi-0x38]
  402168:	fdiv   st,st(4)
  40216a:	xchg   esp,eax
  40216b:	ret    0xabdd
  40216e:	outs   dx,BYTE PTR ds:[esi]
  40216f:	cmp    eax,0xd28ad922
  402174:	popa   
  402175:	test   al,0x78
  402177:	sub    eax,0x807d5a9e
  40217c:	in     eax,dx
  40217d:	popf   
  40217e:	mov    BYTE PTR [edx+0x63],bh
  402181:	in     eax,dx
  402182:	ds (bad) 
  402184:	in     eax,dx
  402185:	fs adc al,0x94
  402188:	push   ss
  402189:	add    ebp,esi
  40218b:	jnp    0x402176
  40218d:	cld    
  40218e:	imul   eax,DWORD PTR [edi],0xffffffff
  402191:	pop    es
  402192:	out    0x62,eax
  402194:	add    eax,0xfaad1b60
  402199:	lahf   
  40219a:	ds aam 0x9
  40219d:	test   ah,al
  40219f:	cmp    esi,esi
  4021a1:	jnp    0x4021e0
  4021a3:	sbb    dl,BYTE PTR [esi]
  4021a5:	sbb    DWORD PTR [edx],0xfffffff2
  4021a8:	inc    ebx
  4021a9:	(bad)  
  4021aa:	xchg   ebp,eax
  4021ab:	cmp    DWORD PTR [ebx+edi*2+0x6e4d8ef8],eax
  4021b2:	lea    ebx,[edx-0x49]
  4021b5:	les    esi,FWORD PTR ds:0x76a1f60c
  4021bb:	hlt    
  4021bc:	cmp    edx,edx
  4021be:	xchg   esp,eax
  4021bf:	xor    ch,al
  4021c1:	cmp    eax,0xd63bcf6e
  4021c6:	fwait
  4021c7:	adc    dh,BYTE PTR [ebx+0x7131f483]
  4021cd:	sbb    BYTE PTR [edi+0x20],0xdf
  4021d1:	jle    0x4021a6
  4021d3:	inc    edi
  4021d4:	and    DWORD PTR [ecx-0xdca47d1],edx
  4021da:	mov    ebx,0x770d1a4c
  4021df:	sbb    esp,esi
  4021e1:	add    cl,BYTE PTR [ebx+0x7b7e70e4]
  4021e7:	aas    
  4021e8:	(bad)  
  4021e9:	xchg   ecx,eax
  4021ea:	xchg   eax,eax
  4021ec:	outs   dx,DWORD PTR ds:[esi]
  4021ed:	les    eax,FWORD PTR [edi-0x2ab819c2]
  4021f3:	sbb    dh,BYTE PTR [edx+0x10]
  4021f6:	mov    dl,0xae
  4021f8:	add    esi,DWORD PTR [ecx-0x4f]
  4021fb:	adc    al,0x5d
  4021fd:	jp     0x402257
  4021ff:	cwde   
  402200:	test   DWORD PTR [ebx+0x3f7d9c37],eax
  402206:	push   esi
  402207:	dec    esp
  402208:	push   cs
  402209:	mov    ah,0x65
  40220b:	(bad)  
  40220c:	icebp  
  40220d:	dec    ebx
  40220e:	popf   
  40220f:	and    edi,edx
  402211:	mov    bl,0x64
  402213:	fdivr  QWORD PTR [edi+0x40239e6b]
  402219:	jl     0x402260
  40221b:	fdivr  QWORD PTR [edi+0x47dd1383]
  402221:	jl     0x402212
  402223:	and    ah,BYTE PTR [eax+0x5fdd125a]
  402229:	xor    eax,eax
  40222b:	scas   al,BYTE PTR es:[edi]
  40222c:	aam    0xf2
  40222e:	sti    
  40222f:	pop    edx
  402230:	sub    ecx,DWORD PTR ds:0xf29c8d07
  402236:	cli    
  402237:	jb     0x402228
  402239:	or     edx,DWORD PTR [ebx+0x6eb2f957]
  40223f:	test   al,0x6
  402241:	adc    DWORD PTR [eax+ebp*4-0x46],0x4a18b547
  402249:	fcomp  QWORD PTR [edx-0x18]
  40224c:	mov    ecx,0x69c5447
  402251:	cs lahf 
  402253:	mov    esp,0x89ec984
  402258:	lock cmp DWORD PTR [esi-0x77ae1294],ebp
  40225f:	mov    bh,0xcb
  402261:	mov    eax,0x2f34487a
  402266:	sbb    eax,0xf4d0cbb7
  40226b:	inc    DWORD PTR [eax-0x7b]
  40226e:	ins    BYTE PTR es:[edi],dx
  40226f:	push   ecx
  402270:	js     0x4021f5
  402272:	xchg   esi,eax
  402273:	scas   al,BYTE PTR es:[edi]
  402274:	xchg   DWORD PTR [ecx+esi*8+0x50],esp
  402278:	js     0x402215
  40227a:	push   0xffffff97
  40227c:	pop    es
  40227d:	fs xchg edi,eax
  40227f:	push   0xb38f1082
  402284:	fidiv  WORD PTR [edx+0x6b0a0dc4]
  40228a:	not    DWORD PTR [edx]
  40228c:	not    BYTE PTR [ebx+ecx*1-0x4f6481cb]
  402293:	int    0x81
  402295:	fs push edx
  402297:	jp     0x40228b
  402299:	ret    
  40229a:	imul   esp,DWORD PTR [esi-0x5e66c3f3],0x6322e466
  4022a4:	cdq    
  4022a5:	sbb    esp,eax
  4022a7:	in     al,0xda
  4022a9:	cld    
  4022aa:	fistp  DWORD PTR [ebx+0x25]
  4022ad:	add    esp,DWORD PTR [edi]
  4022af:	in     al,dx
  4022b0:	dec    esi
  4022b1:	or     eax,0xf2b11894
  4022b6:	outs   dx,BYTE PTR ds:[esi]
  4022b7:	das    
  4022b8:	ret    
  4022b9:	adc    eax,0xea3d114d
  4022be:	mov    ch,0x36
  4022c0:	aaa    
  4022c1:	push   ss
  4022c2:	fmul   DWORD PTR [edx+0x8aad22]
  4022c8:	xor    eax,ebx
  4022ca:	stc    
  4022cb:	icebp  
  4022cc:	pop    esi
  4022cd:	daa    
  4022ce:	dec    esi
  4022cf:	xchg   BYTE PTR [esi+eiz*1],ch
  4022d2:	sbb    al,0x5
  4022d4:	rcr    BYTE PTR [ebp+0x63],cl
  4022d7:	push   ebx
  4022d8:	cs push ss
  4022da:	mov    ds:0xeb4246ad,al
  4022df:	xchg   edi,eax
  4022e0:	sbb    DWORD PTR [ebx-0x29],eax
  4022e3:	fdiv   st(3),st
  4022e5:	inc    ebp
  4022e6:	jno    0x402347
  4022e8:	push   esi
  4022e9:	je     0x402280
  4022eb:	mov    al,ds:0x5558ba9
  4022f0:	pop    eax
  4022f1:	je     0x4022a0
  4022f3:	push   esp
  4022f4:	stos   DWORD PTR es:[edi],eax
  4022f5:	jnp    0x40234f
  4022f7:	mov    ds:0xd1e54c80,eax
  4022fc:	xlat   BYTE PTR ds:[ebx]
  4022fd:	sub    BYTE PTR [edx],ch
  4022ff:	xor    DWORD PTR [ebp-0x40b424cd],ebx
  402305:	div    DWORD PTR [eax+edx*1-0x3a]
  402309:	rol    DWORD PTR [edx],1
  40230b:	sti    
  40230c:	out    0x7e,al
  40230e:	sub    eax,edi
  402310:	jae    0x40233e
  402312:	pop    edx
  402313:	and    dl,BYTE PTR [eax+0x333f8bb5]
  402319:	stos   DWORD PTR es:[edi],eax
  40231a:	cli    
  40231b:	cmp    eax,0xd47c5519
  402320:	into   
  402321:	mov    edx,0xd0312b86
  402326:	stc    
  402327:	sub    BYTE PTR [edi+ebp*1+0x7d],dl
  40232b:	fst    QWORD PTR [esi-0x47]
  40232e:	sub    BYTE PTR [ebx],ah
  402330:	test   eax,0xb7a03b46
  402335:	mov    eax,0x1fd39c1c
  40233a:	jno    0x402315
  40233c:	js     0x4023a9
  40233e:	(bad)  
  40233f:	jbe    0x402318
  402341:	in     al,0x94
  402343:	mov    DWORD PTR [eax],ebp
  402345:	daa    
  402346:	outs   dx,BYTE PTR ds:[esi]
  402347:	leave  
  402348:	(bad)  
  402349:	cs aam 0x8f
  40234c:	jns    0x4023aa
  40234e:	es sub ecx,DWORD PTR fs:[esp+edx*1+0x3673d49c]
  402357:	in     eax,dx
  402358:	outs   dx,DWORD PTR ds:[esi]
  402359:	mov    al,0xec
  40235b:	popf   
  40235c:	mov    ch,bl
  40235e:	and    bl,BYTE PTR [edi]
  402360:	jl     0x402384
  402362:	loopne 0x402344
  402364:	out    0x7e,eax
  402366:	cmp    bl,BYTE PTR [edi]
  402368:	sbb    BYTE PTR [ecx-0x2febaead],al
  40236e:	pop    ss
  40236f:	scas   eax,DWORD PTR es:[edi]
  402370:	jmp    0x4023ad
  402372:	jmp    0x402317
  402374:	adc    ebx,DWORD PTR [edx]
  402376:	push   edi
  402377:	jmp    0x187ac174
  40237c:	push   edi
  40237d:	in     eax,dx
  40237e:	xchg   edi,eax
  40237f:	jae    0x402322
  402381:	push   es
  402382:	adc    cl,dh
  402384:	call   DWORD PTR [ecx]
  402386:	repnz push cs
  402388:	add    BYTE PTR [ebp+0x50],bh
  40238b:	sbb    eax,0x64124661
  402390:	mov    ebx,edx
  402392:	repnz fwait
  402394:	je     0x402323
  402396:	xor    al,0x66
  402398:	mov    esi,DWORD PTR [edx+0x1]
  40239b:	nop
  40239c:	fisttp WORD PTR [ebp-0x37e08795]
  4023a2:	mov    bl,0x12
  4023a4:	mov    ecx,0x9ceca28c
  4023a9:	cmps   DWORD PTR ds:[esi],DWORD PTR es:[edi]
  4023aa:	jmp    0x402403
  4023ac:	xchg   DWORD PTR [edx+ebx*1-0x18],esi
  4023b0:	mov    ah,0x16
  4023b2:	push   0x9ae94bd8
  4023b7:	lods   al,BYTE PTR ds:[esi]
  4023b8:	je     0x402345
  4023ba:	imul   ebx,DWORD PTR [ecx-0x43673821],0xb92abd58
  4023c4:	mov    WORD PTR [esi-0x15746329],ss
  4023ca:	out    dx,eax
  4023cb:	xchg   DWORD PTR [esi+0x15],esi
  4023ce:	adc    eax,DWORD PTR [ecx]
  4023d0:	dec    BYTE PTR [esi]
  4023d2:	or     esp,DWORD PTR [eax-0x3b]
  4023d5:	push   ecx
  4023d6:	pop    edi
  4023d7:	or     al,0xa7
  4023d9:	scas   al,BYTE PTR es:[edi]
  4023da:	mov    ds:0x8dc5cb5b,eax
  4023df:	or     BYTE PTR [ebp-0x39921759],bl
  4023e5:	lods   al,BYTE PTR ds:[esi]
  4023e6:	sbb    eax,ebp
  4023e8:	cmp    eax,0xca8da9d8
  4023ed:	jnp    0x402447
  4023ef:	enter  0x935,0x6a
  4023f3:	lods   al,BYTE PTR ds:[esi]
  4023f4:	pop    ss
  4023f5:	popa   
  4023f6:	cwde   
  4023f7:	mov    ebx,0xaade0d51
  4023fc:	push   ss
  4023fd:	pop    ecx
  4023fe:	fwait
  4023ff:	lds    ebx,FWORD PTR [ebx-0x5]
  402402:	mov    bh,0x39
  402404:	cli    
  402405:	or     al,0xce
  402407:	mov    dl,BYTE PTR [edx]
  402409:	jle    0x40242f
  40240b:	mov    BYTE PTR [ecx-0x14],0x1e
  40240f:	movs   BYTE PTR es:[edi],BYTE PTR ds:[esi]
  402410:	lds    ebp,FWORD PTR [ecx-0x1d]
  402413:	mov    cl,0x46
  402415:	out    dx,al
  402416:	outs   dx,DWORD PTR ds:[esi]
  402417:	mov    ds:0xb39a7c09,al
  40241c:	fisubr WORD PTR [edx-0x1fdeb398]
  402422:	(bad)  
  402423:	xlat   BYTE PTR ds:[ebx]
  402424:	pop    edi
  402425:	out    0x3e,eax
  402427:	sub    BYTE PTR [eax-0x4720d1e8],ah
  40242d:	fidivr DWORD PTR [eax+0x68]
  402430:	shr    bl,cl
  402432:	xor    eax,0x7d0dac25
  402437:	inc    ebx
  402438:	dec    BYTE PTR [edx+0x30]
  40243b:	ins    DWORD PTR es:[edi],dx
  40243c:	lds    ebx,FWORD PTR [edi-0x2f]
  40243f:	call   0xdbf51c8a
  402444:	lds    ebp,FWORD PTR [eax+0x11]
  402447:	jge    0x402482
  402449:	push   0x98666b46
  40244e:	mov    esp,0x8bf4f694
  402453:	fisttp DWORD PTR [ebx+ecx*8+0x58b7ad7b]
  40245a:	xchg   edi,eax
  40245b:	scas   eax,DWORD PTR es:[edi]
  40245c:	dec    eax
  40245d:	cmps   DWORD PTR ds:[esi],DWORD PTR es:[edi]
  40245e:	imul   edx,DWORD PTR [eax-0x49],0x58
  402462:	xchg   edi,eax
  402463:	pop    ss
  402464:	dec    ecx
  402465:	cmps   DWORD PTR ds:[esi],DWORD PTR es:[edi]
  402466:	imul   ebp,eax,0x79
  402469:	mov    edi,0xfaed0dca
  40246e:	test   DWORD PTR [ecx+edi*2-0x4e],ecx
  402472:	jecxz  0x40245a
  402474:	push   esi
  402475:	ret    0x9a27
  402478:	xchg   edi,eax
  402479:	inc    eax
  40247a:	jmp    0x4024e1
  40247c:	push   0xf62804aa
  402481:	push   ebx
  402482:	adc    bh,0x7f
  402485:	popf   
  402486:	or     ebx,DWORD PTR [edi-0x4e4e3746]
  40248c:	mov    al,ah
  40248e:	test   DWORD PTR [ebx+ebx*8-0x18],ebp
  402492:	jecxz  0x40245a
  402494:	hlt    
  402495:	mov    edi,?
  402497:	cld    
  402498:	pop    esp
  402499:	cmps   BYTE PTR ds:[esi],BYTE PTR es:[edi]
  40249a:	int3   
  40249b:	inc    esp
  40249c:	into   
  40249d:	sbb    ebp,DWORD PTR [esi+0x3fe6a5bf]
  4024a3:	cmp    BYTE PTR [esi+0x5489c6d9],cl
  4024a9:	and    edx,DWORD PTR [ebp-0x2aa5c8c7]
  4024af:	xor    ch,cl
  4024b1:	or     eax,0xf232df2d
  4024b6:	sub    al,0x8b
  4024b8:	int    0xc
  4024ba:	sub    eax,DWORD PTR [ebp+0x6758e3bd]
  4024c0:	inc    edi
  4024c1:	sbb    eax,0xdf4398aa
  4024c6:	shr    BYTE PTR [ebx-0x43],0x20
  4024ca:	inc    edx
  4024cb:	jmp    0x402462
  4024cd:	ficom  WORD PTR ds:0x5521d435
  4024d3:	dec    ebx
  4024d4:	sub    al,0xde
  4024d6:	lods   eax,DWORD PTR ds:[esi]
  4024d7:	push   ds
  4024d8:	xlat   BYTE PTR ds:[ebx]
  4024d9:	mov    edx,DWORD PTR [ebp+0x4b]
  4024dc:	sub    bl,ah
  4024de:	lods   eax,DWORD PTR ds:[esi]
  4024df:	mov    ah,0xd5
  4024e1:	mov    ds:0x80804aac,eax
  4024e6:	xlat   BYTE PTR ds:[ebx]
  4024e7:	jns    0x40246d
  4024e9:	sub    BYTE PTR [ebx],0x86
  4024ec:	adc    BYTE PTR ds:[edi-0x2e],ah
  4024f0:	rol    al,0x96
  4024f3:	add    ah,dl
  4024f5:	mov    al,ds:0xac2239f6
  4024fa:	pop    ecx
  4024fb:	jle    0x40248a
  4024fd:	and    BYTE PTR [esi-0x6399f443],al
  402503:	into   
  402504:	cmp    al,0xfc
  402506:	inc    edi
  402507:	movs   BYTE PTR es:[edi],BYTE PTR ds:[esi]
  402508:	pushf  
  402509:	pop    ds
  40250a:	fwait
  40250b:	sbb    BYTE PTR [edx+0x4d],al
  40250e:	add    dl,BYTE PTR [esi-0x723f78a6]
  402514:	out    dx,al
  402515:	adc    al,0x1a
  402517:	loopne 0x4024d7
  402519:	add    ah,dh
  40251b:	jmp    0x82a2a80b
  402520:	scas   al,BYTE PTR es:[edi]
  402521:	cmps   BYTE PTR ds:[esi],BYTE PTR es:[edi]
  402522:	test   al,0x0
  402524:	pop    ebp
  402525:	add    BYTE PTR [ebx],dl
  402527:	out    0xb9,al
  402529:	add    BYTE PTR [edi],ch
  40252b:	ss inc edi
  40252d:	mov    cl,BYTE PTR [esi+0x13d9b12]
  402533:	lods   eax,DWORD PTR ds:[esi]
  402534:	shr    eax,0x3
  402537:	out    0x7d,al
  402539:	into   
  40253a:	call   FWORD PTR [ecx]
  40253c:	xor    BYTE PTR [ecx],0x3
  40253f:	out    0x7d,al
  402541:	into   
  402542:	call   FWORD PTR [ecx]
  402544:	xor    BYTE PTR [ecx],0x3
  402547:	out    0x7d,al
  402549:	into   
  40254a:	call   FWORD PTR [ecx]
  40254c:	xor    BYTE PTR [ecx],0x3
  40254f:	out    0x7d,al
  402551:	into   
  402552:	call   FWORD PTR [ecx]
  402554:	xor    BYTE PTR [ecx],0x1f
  402557:	gs jle 0x402528
  40255a:	jecxz  0x402516
  40255c:	xchg   BYTE PTR [ecx],dh
  40255e:	pop    ds
  40255f:	dec    ecx
  402560:	jns    0x402530
  402562:	imul   ecx,DWORD PTR [edi+0x528c6f72],0x56
  402569:	xor    BYTE PTR [eax],0x8e
  40256c:	mov    ebx,0xe65ca256
  402571:	(bad)  
  402572:	cmp    BYTE PTR [ecx+ebx*8+0x56da7457],al
  402579:	je     0x4025c1
  40257b:	pop    eax
  40257c:	mov    ebx,0x211bda9a
  402581:	ret    0xef5a
