
cb441028db30d7e4efa99ee23a9491dad53ae38e7197da2b6341773229db4cd0.exe:     file format pei-i386


Disassembly of section .text:

00401000 <.text>:
  401000:	mov    edi,edi
  401002:	push   ebp
  401003:	mov    ebp,esp
  401005:	sub    esp,0x54
  401008:	push   edx
  401009:	push   DWORD PTR [edx+0x464]
  40100f:	push   DWORD PTR [edx+0x4c0]
  401015:	push   ebx
  401016:	push   DWORD PTR [edx+0x3c4]
  40101c:	call   0x401398
  401021:	add    esp,0x10
  401024:	pop    edx
  401025:	push   edx
  401026:	push   0x0
  401028:	push   0x403068
  40102d:	pop    eax
  40102e:	call   DWORD PTR cs:[eax]
  401031:	pop    edx
  401032:	push   edx
  401033:	lea    esi,[edx]
  401035:	push   esi
  401036:	push   0x40304c
  40103b:	pop    eax
  40103c:	call   DWORD PTR cs:[eax]
  40103f:	test   eax,eax
  401041:	jne    0x401033
  401043:	pop    edx
  401044:	sub    esp,0xffffffac
  401047:	mov    ebp,DWORD PTR [esp]
  40104a:	add    esp,0x4
  40104d:	ret    
  40104e:	add    BYTE PTR [eax],al
  401050:	mov    edi,edi
  401052:	push   ebp
  401053:	mov    ebp,esp
  401055:	sub    esp,0x2c
  401058:	push   edx
  401059:	mov    eax,0x0
  40105e:	push   eax
  40105f:	push   0x403008
  401064:	pop    eax
  401065:	call   DWORD PTR cs:[eax]
  401068:	pop    edx
  401069:	push   edx
  40106a:	push   eax
  40106b:	push   DWORD PTR [edx+0x6c]
  40106e:	call   0x40125c
  401073:	add    esp,0x8
  401076:	pop    edx
  401077:	push   edx
  401078:	mov    edi,0x0
  40107d:	push   edi
  40107e:	push   0x403060
  401083:	pop    eax
  401084:	call   DWORD PTR cs:[eax]
  401087:	pop    edx
  401088:	sub    esp,0xffffffd4
  40108b:	mov    ebp,DWORD PTR [esp]
  40108e:	add    esp,0x4
  401091:	ret    
  401092:	add    BYTE PTR [eax],al
  401094:	mov    edi,edi
  401096:	pusha  
  401097:	push   ebp
  401098:	mov    ebp,esp
  40109a:	sub    esp,0x5c
  40109d:	push   edx
  40109e:	mov    esi,0x0
  4010a3:	push   esi
  4010a4:	push   0x40303c
  4010a9:	pop    eax
  4010aa:	call   DWORD PTR cs:[eax]
  4010ad:	pop    edx
  4010ae:	test   eax,eax
  4010b0:	je     0x4010b3
  4010b2:	ret    
  4010b3:	push   edx
  4010b4:	push   0x0
  4010b6:	push   0x403044
  4010bb:	pop    eax
  4010bc:	call   DWORD PTR cs:[eax]
  4010bf:	pop    edx
  4010c0:	push   edx
  4010c1:	push   ecx
  4010c2:	push   DWORD PTR [edx+0x30]
  4010c5:	call   0x401cb0
  4010ca:	add    esp,0x8
  4010cd:	pop    edx
  4010ce:	mov    ecx,0x40304c
  4010d3:	mov    ecx,DWORD PTR [ecx]
  4010d5:	push   ecx
  4010d6:	push   DWORD PTR [edx+0x2f0]
  4010dc:	pop    ebx
  4010dd:	call   ebx
  4010df:	sub    esp,0xffffffa4
  4010e2:	mov    ebp,DWORD PTR [esp]
  4010e5:	add    esp,0x4
  4010e8:	ret    
  4010e9:	add    BYTE PTR [eax],al
  4010eb:	add    BYTE PTR [eax],al
  4010ed:	add    BYTE PTR [eax],al
  4010ef:	add    BYTE PTR [edi],cl
  4010f1:	xchg   DWORD PTR [esi+0xffffff],ebx
  4010f7:	add    BYTE PTR [ebx-0x1374aa01],cl
  4010fd:	sub    esp,0x38
  401100:	push   edx
  401101:	push   DWORD PTR [edx+0x478]
  401107:	push   ebx
  401108:	push   edi
  401109:	call   0x4018c0
  40110e:	add    esp,0xc
  401111:	pop    edx
  401112:	push   edx
  401113:	push   0x40301c
  401118:	pop    eax
  401119:	call   DWORD PTR cs:[eax]
  40111c:	pop    edx
  40111d:	push   edx
  40111e:	push   0x0
  401120:	push   0x403024
  401125:	pop    eax
  401126:	call   DWORD PTR cs:[eax]
  401129:	pop    edx
  40112a:	sub    esp,0xffffffc8
  40112d:	mov    ebp,DWORD PTR [esp]
  401130:	add    esp,0x4
  401133:	ret    
  401134:	add    BYTE PTR [eax],al
  401136:	add    BYTE PTR [eax],al
  401138:	mov    edi,edi
  40113a:	push   ebp
  40113b:	mov    ebp,esp
  40113d:	sub    esp,0x44
  401140:	push   edx
  401141:	push   0x0
  401143:	push   0x403068
  401148:	pop    eax
  401149:	call   DWORD PTR cs:[eax]
  40114c:	pop    edx
  40114d:	push   edx
  40114e:	push   ebx
  40114f:	push   edi
  401150:	push   DWORD PTR [edx+0x40]
  401153:	push   DWORD PTR [edx+0x43c]
  401159:	call   0x401df4
  40115e:	add    esp,0x10
  401161:	pop    edx
  401162:	push   edx
  401163:	mov    edx,0x0
  401168:	push   edx
  401169:	push   0x403000
  40116e:	pop    eax
  40116f:	call   DWORD PTR cs:[eax]
  401172:	pop    edx
  401173:	sub    esp,0xffffffbc
  401176:	mov    ebp,DWORD PTR [esp]
  401179:	add    esp,0x4
  40117c:	ret    
  40117d:	add    BYTE PTR [eax],al
  40117f:	add    BYTE PTR [ebx-0x1374aa01],cl
  401185:	sub    esp,0x30
  401188:	push   edx
  401189:	push   edi
  40118a:	push   eax
  40118b:	push   DWORD PTR [edx+0x578]
  401191:	call   0x401c1c
  401196:	add    esp,0xc
  401199:	pop    edx
  40119a:	push   edx
  40119b:	push   0x403040
  4011a0:	pop    eax
  4011a1:	call   DWORD PTR cs:[eax]
  4011a4:	pop    edx
  4011a5:	push   edx
  4011a6:	mov    edi,0x0
  4011ab:	push   edi
  4011ac:	push   0x403060
  4011b1:	pop    eax
  4011b2:	call   DWORD PTR cs:[eax]
  4011b5:	pop    edx
  4011b6:	sub    esp,0xffffffd0
  4011b9:	mov    ebp,DWORD PTR [esp]
  4011bc:	add    esp,0x4
  4011bf:	ret    
  4011c0:	add    BYTE PTR [eax],al
  4011c2:	add    BYTE PTR [eax],al
  4011c4:	mov    edi,edi
  4011c6:	push   ebp
  4011c7:	mov    ebp,esp
  4011c9:	sub    esp,0x60
  4011cc:	push   edx
  4011cd:	push   DWORD PTR [edx+0x450]
  4011d3:	push   ecx
  4011d4:	push   edi
  4011d5:	call   0x4015b4
  4011da:	add    esp,0xc
  4011dd:	pop    edx
  4011de:	push   edx
  4011df:	lea    eax,[edx]
  4011e1:	push   eax
  4011e2:	push   0x40304c
  4011e7:	pop    eax
  4011e8:	call   DWORD PTR cs:[eax]
  4011eb:	test   eax,eax
  4011ed:	jne    0x4011df
  4011ef:	pop    edx
  4011f0:	push   edx
  4011f1:	push   0x0
  4011f3:	push   0x403008
  4011f8:	pop    eax
  4011f9:	call   DWORD PTR cs:[eax]
  4011fc:	pop    edx
  4011fd:	sub    esp,0xffffffa0
  401200:	mov    ebp,DWORD PTR [esp]
  401203:	add    esp,0x4
  401206:	ret    
	...
  40120f:	add    BYTE PTR [ebx-0x1374aa01],cl
  401215:	sub    esp,0x60
  401218:	push   edx
  401219:	mov    edx,0x0
  40121e:	push   edx
  40121f:	push   0x403068
  401224:	pop    eax
  401225:	call   DWORD PTR cs:[eax]
  401228:	pop    edx
  401229:	push   edx
  40122a:	push   edi
  40122b:	push   edi
  40122c:	push   DWORD PTR [edx+0x5e4]
  401232:	push   DWORD PTR [edx+0x248]
  401238:	call   0x401714
  40123d:	add    esp,0x10
  401240:	pop    edx
  401241:	push   edx
  401242:	push   0x0
  401244:	push   0x403044
  401249:	pop    eax
  40124a:	call   DWORD PTR cs:[eax]
  40124d:	pop    edx
  40124e:	sub    esp,0xffffffa0
  401251:	mov    ebp,DWORD PTR [esp]
  401254:	add    esp,0x4
  401257:	ret    
  401258:	add    BYTE PTR [eax],al
  40125a:	add    BYTE PTR [eax],al
  40125c:	mov    edi,edi
  40125e:	push   ebp
  40125f:	mov    ebp,esp
  401261:	sub    esp,0x60
  401264:	push   edx
  401265:	mov    ebx,0x0
  40126a:	push   ebx
  40126b:	push   0x403044
  401270:	pop    eax
  401271:	call   DWORD PTR cs:[eax]
  401274:	pop    edx
  401275:	push   edx
  401276:	push   DWORD PTR [edx+0x528]
  40127c:	push   ebx
  40127d:	call   0x40152c
  401282:	add    esp,0x8
  401285:	pop    edx
  401286:	push   edx
  401287:	push   0x40301c
  40128c:	pop    eax
  40128d:	call   DWORD PTR cs:[eax]
  401290:	pop    edx
  401291:	sub    esp,0xffffffa0
  401294:	mov    ebp,DWORD PTR [esp]
  401297:	add    esp,0x4
  40129a:	ret    
  40129b:	add    BYTE PTR [ebx-0x1374aa01],cl
  4012a1:	sub    esp,0x48
  4012a4:	push   edx
  4012a5:	mov    edi,0x0
  4012aa:	push   edi
  4012ab:	push   0x403060
  4012b0:	pop    eax
  4012b1:	call   DWORD PTR cs:[eax]
  4012b4:	pop    edx
  4012b5:	push   edx
  4012b6:	push   edi
  4012b7:	push   ecx
  4012b8:	push   DWORD PTR [edx+0x4e0]
  4012be:	call   0x4012ec
  4012c3:	add    esp,0xc
  4012c6:	pop    edx
  4012c7:	push   edx
  4012c8:	mov    esi,0x0
  4012cd:	push   esi
  4012ce:	push   0x403044
  4012d3:	pop    eax
  4012d4:	call   DWORD PTR cs:[eax]
  4012d7:	pop    edx
  4012d8:	sub    esp,0xffffffb8
  4012db:	mov    ebp,DWORD PTR [esp]
  4012de:	add    esp,0x4
  4012e1:	ret    
	...
  4012ea:	add    BYTE PTR [eax],al
  4012ec:	mov    edi,edi
  4012ee:	push   ebp
  4012ef:	mov    ebp,esp
  4012f1:	sub    esp,0x44
  4012f4:	push   edx
  4012f5:	push   DWORD PTR [edx+0x80]
  4012fb:	push   DWORD PTR [edx+0x438]
  401301:	push   DWORD PTR [edx+0x21c]
  401307:	call   0x401830
  40130c:	add    esp,0xc
  40130f:	pop    edx
  401310:	push   edx
  401311:	lea    edx,[edx]
  401313:	push   edx
  401314:	push   0x40304c
  401319:	pop    eax
  40131a:	call   DWORD PTR cs:[eax]
  40131d:	test   eax,eax
  40131f:	jne    0x401311
  401321:	pop    edx
  401322:	push   edx
  401323:	mov    esi,0x0
  401328:	push   esi
  401329:	push   0x403018
  40132e:	pop    eax
  40132f:	call   DWORD PTR cs:[eax]
  401332:	pop    edx
  401333:	sub    esp,0xffffffbc
  401336:	mov    ebp,DWORD PTR [esp]
  401339:	add    esp,0x4
  40133c:	ret    
  40133d:	add    BYTE PTR [eax],al
  40133f:	add    BYTE PTR [ebx-0x1374aa01],cl
  401345:	sub    esp,0x34
  401348:	push   edx
  401349:	lea    ecx,[edx]
  40134b:	push   ecx
  40134c:	push   0x40304c
  401351:	pop    eax
  401352:	call   DWORD PTR cs:[eax]
  401355:	test   eax,eax
  401357:	jne    0x401349
  401359:	pop    edx
  40135a:	push   edx
  40135b:	push   DWORD PTR [edx+0x10c]
  401361:	push   DWORD PTR [edx+0x4e4]
  401367:	push   DWORD PTR [edx+0x100]
  40136d:	push   ebx
  40136e:	call   0x401050
  401373:	add    esp,0x10
  401376:	pop    edx
  401377:	push   edx
  401378:	lea    ecx,[edx]
  40137a:	push   ecx
  40137b:	push   0x40304c
  401380:	pop    eax
  401381:	call   DWORD PTR cs:[eax]
  401384:	test   eax,eax
  401386:	jne    0x401378
  401388:	pop    edx
  401389:	sub    esp,0xffffffcc
  40138c:	mov    ebp,DWORD PTR [esp]
  40138f:	add    esp,0x4
  401392:	ret    
  401393:	add    BYTE PTR [eax],al
  401395:	add    BYTE PTR [eax],al
  401397:	add    BYTE PTR [ebx-0x1374aa01],cl
  40139d:	sub    esp,0x24
  4013a0:	push   edx
  4013a1:	push   DWORD PTR [edx+0x208]
  4013a7:	push   DWORD PTR [edx+0x548]
  4013ad:	push   ecx
  4013ae:	call   0x4019cc
  4013b3:	add    esp,0xc
  4013b6:	pop    edx
  4013b7:	push   edx
  4013b8:	push   0x403040
  4013bd:	pop    eax
  4013be:	call   DWORD PTR cs:[eax]
  4013c1:	pop    edx
  4013c2:	push   edx
  4013c3:	mov    ecx,0x0
  4013c8:	push   ecx
  4013c9:	push   0x403024
  4013ce:	pop    eax
  4013cf:	call   DWORD PTR cs:[eax]
  4013d2:	pop    edx
  4013d3:	sub    esp,0xffffffdc
  4013d6:	mov    ebp,DWORD PTR [esp]
  4013d9:	add    esp,0x4
  4013dc:	ret    
  4013dd:	add    BYTE PTR [eax],al
  4013df:	add    BYTE PTR [ebx-0x1374aa01],cl
  4013e5:	sub    esp,0x34
  4013e8:	push   edx
  4013e9:	push   edi
  4013ea:	push   DWORD PTR [edx+0x554]
  4013f0:	push   edi
  4013f1:	push   eax
  4013f2:	call   0x401988
  4013f7:	add    esp,0x10
  4013fa:	pop    edx
  4013fb:	push   edx
  4013fc:	push   0x403040
  401401:	pop    eax
  401402:	call   DWORD PTR cs:[eax]
  401405:	pop    edx
  401406:	push   edx
  401407:	lea    esi,[edx]
  401409:	push   esi
  40140a:	push   0x40304c
  40140f:	pop    eax
  401410:	call   DWORD PTR cs:[eax]
  401413:	test   eax,eax
  401415:	jne    0x401407
  401417:	pop    edx
  401418:	sub    esp,0xffffffcc
  40141b:	mov    ebp,DWORD PTR [esp]
  40141e:	add    esp,0x4
  401421:	ret    
  401422:	add    BYTE PTR [eax],al
  401424:	mov    edi,edi
  401426:	push   ebp
  401427:	mov    ebp,esp
  401429:	sub    esp,0x38
  40142c:	push   edx
  40142d:	lea    ebx,[edx]
  40142f:	push   ebx
  401430:	push   0x40304c
  401435:	pop    eax
  401436:	call   DWORD PTR cs:[eax]
  401439:	test   eax,eax
  40143b:	jne    0x40142d
  40143d:	pop    edx
  40143e:	push   edx
  40143f:	push   eax
  401440:	push   ecx
  401441:	push   eax
  401442:	call   0x401ab0
  401447:	add    esp,0xc
  40144a:	pop    edx
  40144b:	push   edx
  40144c:	push   0x0
  40144e:	push   0x403024
  401453:	pop    eax
  401454:	call   DWORD PTR cs:[eax]
  401457:	pop    edx
  401458:	sub    esp,0xffffffc8
  40145b:	mov    ebp,DWORD PTR [esp]
  40145e:	add    esp,0x4
  401461:	ret    
  401462:	add    BYTE PTR [eax],al
  401464:	add    BYTE PTR [eax],al
  401466:	add    BYTE PTR [eax],al
  401468:	mov    edi,edi
  40146a:	push   ebp
  40146b:	mov    ebp,esp
  40146d:	sub    esp,0x54
  401470:	push   edx
  401471:	push   edi
  401472:	push   edi
  401473:	push   DWORD PTR [edx+0x1fc]
  401479:	call   0x4011c4
  40147e:	add    esp,0xc
  401481:	pop    edx
  401482:	push   edx
  401483:	mov    ecx,0x0
  401488:	push   ecx
  401489:	push   0x403068
  40148e:	pop    eax
  40148f:	call   DWORD PTR cs:[eax]
  401492:	pop    edx
  401493:	push   edx
  401494:	mov    ecx,0x0
  401499:	push   ecx
  40149a:	push   0x40302c
  40149f:	pop    eax
  4014a0:	call   DWORD PTR cs:[eax]
  4014a3:	pop    edx
  4014a4:	sub    esp,0xffffffac
  4014a7:	mov    ebp,DWORD PTR [esp]
  4014aa:	add    esp,0x4
  4014ad:	ret    
	...
  4014ba:	add    BYTE PTR [eax],al
  4014bc:	push   0x0
  4014be:	add    DWORD PTR [esp],0x45f000
  4014c5:	push   DWORD PTR ds:0x403090
  4014cb:	pop    eax
  4014cc:	xor    ax,ax
  4014cf:	adc    eax,DWORD PTR [eax+0x3c]
  4014d2:	cmp    BYTE PTR [eax+0x1d],0x80
  4014d6:	jb     0x4014de
  4014d8:	pop    edx
  4014d9:	jmp    0x4010f0
  4014de:	xor    esp,esp
  4014e0:	int    0x3
  4014e2:	add    BYTE PTR [eax],al
  4014e4:	mov    edi,edi
  4014e6:	push   ebp
  4014e7:	mov    ebp,esp
  4014e9:	sub    esp,0x5c
  4014ec:	push   edx
  4014ed:	push   0x403040
  4014f2:	pop    eax
  4014f3:	call   DWORD PTR cs:[eax]
  4014f6:	pop    edx
  4014f7:	push   edx
  4014f8:	push   DWORD PTR [edx+0x500]
  4014fe:	push   DWORD PTR [edx+0x2e8]
  401504:	call   0x401210
  401509:	add    esp,0x8
  40150c:	pop    edx
  40150d:	push   edx
  40150e:	lea    esi,[edx]
  401510:	push   esi
  401511:	push   0x40304c
  401516:	pop    eax
  401517:	call   DWORD PTR cs:[eax]
  40151a:	test   eax,eax
  40151c:	jne    0x40150e
  40151e:	pop    edx
  40151f:	sub    esp,0xffffffa4
  401522:	mov    ebp,DWORD PTR [esp]
  401525:	add    esp,0x4
  401528:	ret    
  401529:	add    BYTE PTR [eax],al
  40152b:	add    BYTE PTR [ebx-0x1374aa01],cl
  401531:	sub    esp,0x50
  401534:	push   edx
  401535:	push   DWORD PTR [edx+0x2e0]
  40153b:	push   ecx
  40153c:	push   esi
  40153d:	call   0x4010f8
  401542:	add    esp,0xc
  401545:	pop    edx
  401546:	push   edx
  401547:	push   0x0
  401549:	push   0x403024
  40154e:	pop    eax
  40154f:	call   DWORD PTR cs:[eax]
  401552:	pop    edx
  401553:	push   edx
  401554:	push   0x0
  401556:	push   0x403008
  40155b:	pop    eax
  40155c:	call   DWORD PTR cs:[eax]
  40155f:	pop    edx
  401560:	sub    esp,0xffffffb0
  401563:	mov    ebp,DWORD PTR [esp]
  401566:	add    esp,0x4
  401569:	ret    
  40156a:	add    BYTE PTR [eax],al
  40156c:	mov    edi,edi
  40156e:	push   ebp
  40156f:	mov    ebp,esp
  401571:	sub    esp,0x48
  401574:	push   edx
  401575:	push   DWORD PTR [edx+0x300]
  40157b:	push   DWORD PTR [edx+0x454]
  401581:	push   DWORD PTR [edx+0x2c]
  401584:	call   0x401640
  401589:	add    esp,0xc
  40158c:	pop    edx
  40158d:	push   edx
  40158e:	mov    eax,0x0
  401593:	push   eax
  401594:	push   0x403034
  401599:	pop    eax
  40159a:	call   DWORD PTR cs:[eax]
  40159d:	pop    edx
  40159e:	push   edx
  40159f:	push   0x403040
  4015a4:	pop    eax
  4015a5:	call   DWORD PTR cs:[eax]
  4015a8:	pop    edx
  4015a9:	sub    esp,0xffffffb8
  4015ac:	mov    ebp,DWORD PTR [esp]
  4015af:	add    esp,0x4
  4015b2:	ret    
  4015b3:	add    BYTE PTR [ebx-0x1374aa01],cl
  4015b9:	sub    esp,0x54
  4015bc:	push   edx
  4015bd:	push   0x40301c
  4015c2:	pop    eax
  4015c3:	call   DWORD PTR cs:[eax]
  4015c6:	pop    edx
  4015c7:	push   edx
  4015c8:	push   DWORD PTR [edx+0x348]
  4015ce:	push   eax
  4015cf:	call   0x4014e4
  4015d4:	add    esp,0x8
  4015d7:	pop    edx
  4015d8:	push   edx
  4015d9:	mov    ebx,0x0
  4015de:	push   ebx
  4015df:	push   0x403080
  4015e4:	pop    eax
  4015e5:	call   DWORD PTR cs:[eax]
  4015e8:	pop    edx
  4015e9:	sub    esp,0xffffffac
  4015ec:	mov    ebp,DWORD PTR [esp]
  4015ef:	add    esp,0x4
  4015f2:	ret    
  4015f3:	add    BYTE PTR [ebx-0x1374aa01],cl
  4015f9:	sub    esp,0x44
  4015fc:	push   edx
  4015fd:	push   edi
  4015fe:	push   DWORD PTR [edx+0x1cc]
  401604:	push   ebx
  401605:	push   ebx
  401606:	call   0x401684
  40160b:	add    esp,0x10
  40160e:	pop    edx
  40160f:	push   edx
  401610:	mov    ebx,0x0
  401615:	push   ebx
  401616:	push   0x40303c
  40161b:	pop    eax
  40161c:	call   DWORD PTR cs:[eax]
  40161f:	pop    edx
  401620:	push   edx
  401621:	lea    esi,[edx]
  401623:	push   esi
  401624:	push   0x40304c
  401629:	pop    eax
  40162a:	call   DWORD PTR cs:[eax]
  40162d:	test   eax,eax
  40162f:	jne    0x401621
  401631:	pop    edx
  401632:	sub    esp,0xffffffbc
  401635:	mov    ebp,DWORD PTR [esp]
  401638:	add    esp,0x4
  40163b:	ret    
  40163c:	add    BYTE PTR [eax],al
  40163e:	add    BYTE PTR [eax],al
  401640:	mov    edi,edi
  401642:	push   ebp
  401643:	mov    ebp,esp
  401645:	sub    esp,0x60
  401648:	push   edx
  401649:	push   ecx
  40164a:	push   DWORD PTR [edx+0x334]
  401650:	call   0x401b88
  401655:	add    esp,0x8
  401658:	pop    edx
  401659:	push   edx
  40165a:	mov    edx,0x0
  40165f:	push   edx
  401660:	push   0x403068
  401665:	pop    eax
  401666:	call   DWORD PTR cs:[eax]
  401669:	pop    edx
  40166a:	push   edx
  40166b:	push   0x0
  40166d:	push   0x403068
  401672:	pop    eax
  401673:	call   DWORD PTR cs:[eax]
  401676:	pop    edx
  401677:	sub    esp,0xffffffa0
  40167a:	mov    ebp,DWORD PTR [esp]
  40167d:	add    esp,0x4
  401680:	ret    
  401681:	add    BYTE PTR [eax],al
  401683:	add    BYTE PTR [ebx-0x1374aa01],cl
  401689:	sub    esp,0x5c
  40168c:	push   edx
  40168d:	lea    eax,[edx]
  40168f:	push   eax
  401690:	push   0x40304c
  401695:	pop    eax
  401696:	call   DWORD PTR cs:[eax]
  401699:	test   eax,eax
  40169b:	jne    0x40168d
  40169d:	pop    edx
  40169e:	push   edx
  40169f:	push   eax
  4016a0:	push   DWORD PTR [edx+0x44]
  4016a3:	call   0x401764
  4016a8:	add    esp,0x8
  4016ab:	pop    edx
  4016ac:	push   edx
  4016ad:	mov    edx,0x0
  4016b2:	push   edx
  4016b3:	push   0x403080
  4016b8:	pop    eax
  4016b9:	call   DWORD PTR cs:[eax]
  4016bc:	pop    edx
  4016bd:	sub    esp,0xffffffa4
  4016c0:	mov    ebp,DWORD PTR [esp]
  4016c3:	add    esp,0x4
  4016c6:	ret    
  4016c7:	add    BYTE PTR [ebx-0x1374aa01],cl
  4016cd:	sub    esp,0x50
  4016d0:	push   edx
  4016d1:	push   DWORD PTR [edx+0x98]
  4016d7:	push   ecx
  4016d8:	push   eax
  4016d9:	call   0x401424
  4016de:	add    esp,0xc
  4016e1:	pop    edx
  4016e2:	push   edx
  4016e3:	mov    ebx,0x0
  4016e8:	push   ebx
  4016e9:	push   0x403068
  4016ee:	pop    eax
  4016ef:	call   DWORD PTR cs:[eax]
  4016f2:	pop    edx
  4016f3:	push   edx
  4016f4:	push   0x0
  4016f6:	push   0x40300c
  4016fb:	pop    eax
  4016fc:	call   DWORD PTR cs:[eax]
  4016ff:	pop    edx
  401700:	sub    esp,0xffffffb0
  401703:	mov    ebp,DWORD PTR [esp]
  401706:	add    esp,0x4
  401709:	ret    
	...
  401712:	add    BYTE PTR [eax],al
  401714:	mov    edi,edi
  401716:	push   ebp
  401717:	mov    ebp,esp
  401719:	sub    esp,0x4c
  40171c:	push   edx
  40171d:	push   DWORD PTR [edx+0x120]
  401723:	push   esi
  401724:	push   ecx
  401725:	call   0x4017e4
  40172a:	add    esp,0xc
  40172d:	pop    edx
  40172e:	push   edx
  40172f:	mov    ecx,0x0
  401734:	push   ecx
  401735:	push   0x40300c
  40173a:	pop    eax
  40173b:	call   DWORD PTR cs:[eax]
  40173e:	pop    edx
  40173f:	push   edx
  401740:	lea    ebx,[edx]
  401742:	push   ebx
  401743:	push   0x40304c
  401748:	pop    eax
  401749:	call   DWORD PTR cs:[eax]
  40174c:	test   eax,eax
  40174e:	jne    0x401740
  401750:	pop    edx
  401751:	sub    esp,0xffffffb4
  401754:	mov    ebp,DWORD PTR [esp]
  401757:	add    esp,0x4
  40175a:	ret    
	...
  401763:	add    BYTE PTR [ebx-0x1374aa01],cl
  401769:	sub    esp,0x58
  40176c:	push   edx
  40176d:	push   eax
  40176e:	push   esi
  40176f:	call   0x401a14
  401774:	add    esp,0x8
  401777:	pop    edx
  401778:	push   edx
  401779:	push   0x0
  40177b:	push   0x403080
  401780:	pop    eax
  401781:	call   DWORD PTR cs:[eax]
  401784:	pop    edx
  401785:	push   edx
  401786:	push   0x0
  401788:	push   0x40302c
  40178d:	pop    eax
  40178e:	call   DWORD PTR cs:[eax]
  401791:	pop    edx
  401792:	sub    esp,0xffffffa8
  401795:	mov    ebp,DWORD PTR [esp]
  401798:	add    esp,0x4
  40179b:	ret    
  40179c:	mov    edi,edi
  40179e:	push   ebp
  40179f:	mov    ebp,esp
  4017a1:	sub    esp,0x3c
  4017a4:	push   edx
  4017a5:	mov    ecx,0x0
  4017aa:	push   ecx
  4017ab:	push   0x403060
  4017b0:	pop    eax
  4017b1:	call   DWORD PTR cs:[eax]
  4017b4:	pop    edx
  4017b5:	push   edx
  4017b6:	push   DWORD PTR [edx+0x444]
  4017bc:	push   edi
  4017bd:	call   0x401db0
  4017c2:	add    esp,0x8
  4017c5:	pop    edx
  4017c6:	push   edx
  4017c7:	push   0x40301c
  4017cc:	pop    eax
  4017cd:	call   DWORD PTR cs:[eax]
  4017d0:	pop    edx
  4017d1:	sub    esp,0xffffffc4
  4017d4:	mov    ebp,DWORD PTR [esp]
  4017d7:	add    esp,0x4
  4017da:	ret    
	...
  4017e3:	add    BYTE PTR [ebx-0x1374aa01],cl
  4017e9:	sub    esp,0x34
  4017ec:	push   edx
  4017ed:	push   0x0
  4017ef:	push   0x403044
  4017f4:	pop    eax
  4017f5:	call   DWORD PTR cs:[eax]
  4017f8:	pop    edx
  4017f9:	push   edx
  4017fa:	push   DWORD PTR [edx+0xc8]
  401800:	push   esi
  401801:	push   DWORD PTR [edx+0x2ac]
  401807:	push   eax
  401808:	call   0x4015f4
  40180d:	add    esp,0x10
  401810:	pop    edx
  401811:	push   edx
  401812:	lea    eax,[edx]
  401814:	push   eax
  401815:	push   0x40304c
  40181a:	pop    eax
  40181b:	call   DWORD PTR cs:[eax]
  40181e:	test   eax,eax
  401820:	jne    0x401812
  401822:	pop    edx
  401823:	sub    esp,0xffffffcc
  401826:	mov    ebp,DWORD PTR [esp]
  401829:	add    esp,0x4
  40182c:	ret    
  40182d:	add    BYTE PTR [eax],al
  40182f:	add    BYTE PTR [ebx-0x1374aa01],cl
  401835:	sub    esp,0x34
  401838:	push   edx
  401839:	push   DWORD PTR [edx+0x2c]
  40183c:	push   esi
  40183d:	push   edi
  40183e:	call   0x40187c
  401843:	add    esp,0xc
  401846:	pop    edx
  401847:	push   edx
  401848:	push   0x0
  40184a:	push   0x403018
  40184f:	pop    eax
  401850:	call   DWORD PTR cs:[eax]
  401853:	pop    edx
  401854:	push   edx
  401855:	push   0x0
  401857:	push   0x40303c
  40185c:	pop    eax
  40185d:	call   DWORD PTR cs:[eax]
  401860:	pop    edx
  401861:	sub    esp,0xffffffcc
  401864:	mov    ebp,DWORD PTR [esp]
  401867:	add    esp,0x4
  40186a:	ret    
	...
  40187b:	add    BYTE PTR [ebx-0x1374aa01],cl
  401881:	sub    esp,0x44
  401884:	push   edx
  401885:	push   0x0
  401887:	push   0x403000
  40188c:	pop    eax
  40188d:	call   DWORD PTR cs:[eax]
  401890:	pop    edx
  401891:	push   edx
  401892:	push   edi
  401893:	push   esi
  401894:	push   DWORD PTR [edx+0x480]
  40189a:	push   esi
  40189b:	call   0x401900
  4018a0:	add    esp,0x10
  4018a3:	pop    edx
  4018a4:	push   edx
  4018a5:	mov    esi,0x0
  4018aa:	push   esi
  4018ab:	push   0x403044
  4018b0:	pop    eax
  4018b1:	call   DWORD PTR cs:[eax]
  4018b4:	pop    edx
  4018b5:	sub    esp,0xffffffbc
  4018b8:	mov    ebp,DWORD PTR [esp]
  4018bb:	add    esp,0x4
  4018be:	ret    
  4018bf:	add    BYTE PTR [ebx-0x1374aa01],cl
  4018c5:	sub    esp,0x20
  4018c8:	push   edx
  4018c9:	push   edi
  4018ca:	push   edi
  4018cb:	push   esi
  4018cc:	call   0x4016c8
  4018d1:	add    esp,0xc
  4018d4:	pop    edx
  4018d5:	push   edx
  4018d6:	mov    eax,0x0
  4018db:	push   eax
  4018dc:	push   0x403068
  4018e1:	pop    eax
  4018e2:	call   DWORD PTR cs:[eax]
  4018e5:	pop    edx
  4018e6:	push   edx
  4018e7:	push   0x0
  4018e9:	push   0x403024
  4018ee:	pop    eax
  4018ef:	call   DWORD PTR cs:[eax]
  4018f2:	pop    edx
  4018f3:	sub    esp,0xffffffe0
  4018f6:	mov    ebp,DWORD PTR [esp]
  4018f9:	add    esp,0x4
  4018fc:	ret    
  4018fd:	add    BYTE PTR [eax],al
  4018ff:	add    BYTE PTR [ebx-0x1374aa01],cl
  401905:	sub    esp,0x28
  401908:	push   edx
  401909:	push   0x0
  40190b:	push   0x403024
  401910:	pop    eax
  401911:	call   DWORD PTR cs:[eax]
  401914:	pop    edx
  401915:	push   edx
  401916:	push   DWORD PTR [edx+0x5ac]
  40191c:	push   ecx
  40191d:	push   DWORD PTR [edx+0x38c]
  401923:	push   edi
  401924:	call   0x401340
  401929:	add    esp,0x10
  40192c:	pop    edx
  40192d:	push   edx
  40192e:	push   0x0
  401930:	push   0x40303c
  401935:	pop    eax
  401936:	call   DWORD PTR cs:[eax]
  401939:	pop    edx
  40193a:	sub    esp,0xffffffd8
  40193d:	mov    ebp,DWORD PTR [esp]
  401940:	add    esp,0x4
  401943:	ret    
	...
  40194c:	mov    edi,edi
  40194e:	push   ebp
  40194f:	mov    ebp,esp
  401951:	sub    esp,0x60
  401954:	push   edx
  401955:	push   esi
  401956:	push   ecx
  401957:	call   0x401138
  40195c:	add    esp,0x8
  40195f:	pop    edx
  401960:	push   edx
  401961:	push   0x403040
  401966:	pop    eax
  401967:	call   DWORD PTR cs:[eax]
  40196a:	pop    edx
  40196b:	push   edx
  40196c:	push   0x0
  40196e:	push   0x403080
  401973:	pop    eax
  401974:	call   DWORD PTR cs:[eax]
  401977:	pop    edx
  401978:	sub    esp,0xffffffa0
  40197b:	mov    ebp,DWORD PTR [esp]
  40197e:	add    esp,0x4
  401981:	ret    
  401982:	add    BYTE PTR [eax],al
  401984:	add    BYTE PTR [eax],al
  401986:	add    BYTE PTR [eax],al
  401988:	mov    edi,edi
  40198a:	push   ebp
  40198b:	mov    ebp,esp
  40198d:	sub    esp,0x38
  401990:	push   edx
  401991:	push   DWORD PTR [edx+0x310]
  401997:	push   DWORD PTR [edx+0x4a0]
  40199d:	call   0x401468
  4019a2:	add    esp,0x8
  4019a5:	pop    edx
  4019a6:	push   edx
  4019a7:	push   0x0
  4019a9:	push   0x403024
  4019ae:	pop    eax
  4019af:	call   DWORD PTR cs:[eax]
  4019b2:	pop    edx
  4019b3:	push   edx
  4019b4:	push   0x0
  4019b6:	push   0x403024
  4019bb:	pop    eax
  4019bc:	call   DWORD PTR cs:[eax]
  4019bf:	pop    edx
  4019c0:	sub    esp,0xffffffc8
  4019c3:	mov    ebp,DWORD PTR [esp]
  4019c6:	add    esp,0x4
  4019c9:	ret    
  4019ca:	add    BYTE PTR [eax],al
  4019cc:	mov    edi,edi
  4019ce:	push   ebp
  4019cf:	mov    ebp,esp
  4019d1:	sub    esp,0x24
  4019d4:	push   edx
  4019d5:	push   esi
  4019d6:	push   DWORD PTR [edx+0x354]
  4019dc:	push   ebx
  4019dd:	call   0x4013e0
  4019e2:	add    esp,0xc
  4019e5:	pop    edx
  4019e6:	push   edx
  4019e7:	lea    eax,[edx]
  4019e9:	push   eax
  4019ea:	push   0x40304c
  4019ef:	pop    eax
  4019f0:	call   DWORD PTR cs:[eax]
  4019f3:	test   eax,eax
  4019f5:	jne    0x4019e7
  4019f7:	pop    edx
  4019f8:	push   edx
  4019f9:	mov    edx,0x0
  4019fe:	push   edx
  4019ff:	push   0x403080
  401a04:	pop    eax
  401a05:	call   DWORD PTR cs:[eax]
  401a08:	pop    edx
  401a09:	sub    esp,0xffffffdc
  401a0c:	mov    ebp,DWORD PTR [esp]
  401a0f:	add    esp,0x4
  401a12:	ret    
  401a13:	add    BYTE PTR [ebx-0x1374aa01],cl
  401a19:	sub    esp,0x40
  401a1c:	push   edx
  401a1d:	push   0x0
  401a1f:	push   0x403068
  401a24:	pop    eax
  401a25:	call   DWORD PTR cs:[eax]
  401a28:	pop    edx
  401a29:	push   edx
  401a2a:	push   esi
  401a2b:	push   DWORD PTR [edx+0x338]
  401a31:	push   DWORD PTR [edx+0x46c]
  401a37:	push   DWORD PTR [edx+0x410]
  401a3d:	call   0x401b40
  401a42:	add    esp,0x10
  401a45:	pop    edx
  401a46:	push   edx
  401a47:	push   0x0
  401a49:	push   0x403008
  401a4e:	pop    eax
  401a4f:	call   DWORD PTR cs:[eax]
  401a52:	pop    edx
  401a53:	sub    esp,0xffffffc0
  401a56:	mov    ebp,DWORD PTR [esp]
  401a59:	add    esp,0x4
  401a5c:	ret    
  401a5d:	add    BYTE PTR [eax],al
  401a5f:	add    BYTE PTR [ebx-0x1374aa01],cl
  401a65:	sub    esp,0x54
  401a68:	push   edx
  401a69:	mov    edi,0x0
  401a6e:	push   edi
  401a6f:	push   0x403024
  401a74:	pop    eax
  401a75:	call   DWORD PTR cs:[eax]
  401a78:	pop    edx
  401a79:	push   edx
  401a7a:	push   DWORD PTR [edx+0x204]
  401a80:	push   ecx
  401a81:	push   DWORD PTR [edx+0x210]
  401a87:	call   0x40194c
  401a8c:	add    esp,0xc
  401a8f:	pop    edx
  401a90:	push   edx
  401a91:	lea    esi,[edx]
  401a93:	push   esi
  401a94:	push   0x40304c
  401a99:	pop    eax
  401a9a:	call   DWORD PTR cs:[eax]
  401a9d:	test   eax,eax
  401a9f:	jne    0x401a91
  401aa1:	pop    edx
  401aa2:	sub    esp,0xffffffac
  401aa5:	mov    ebp,DWORD PTR [esp]
  401aa8:	add    esp,0x4
  401aab:	ret    
  401aac:	add    BYTE PTR [eax],al
  401aae:	add    BYTE PTR [eax],al
  401ab0:	mov    edi,edi
  401ab2:	push   ebp
  401ab3:	mov    ebp,esp
  401ab5:	sub    esp,0x44
  401ab8:	push   edx
  401ab9:	push   0x0
  401abb:	push   0x403060
  401ac0:	pop    eax
  401ac1:	call   DWORD PTR cs:[eax]
  401ac4:	pop    edx
  401ac5:	push   edx
  401ac6:	push   DWORD PTR [edx+0xfc]
  401acc:	push   edi
  401acd:	push   esi
  401ace:	call   0x401180
  401ad3:	add    esp,0xc
  401ad6:	pop    edx
  401ad7:	push   edx
  401ad8:	mov    esi,0x0
  401add:	push   esi
  401ade:	push   0x403060
  401ae3:	pop    eax
  401ae4:	call   DWORD PTR cs:[eax]
  401ae7:	pop    edx
  401ae8:	sub    esp,0xffffffbc
  401aeb:	mov    ebp,DWORD PTR [esp]
  401aee:	add    esp,0x4
  401af1:	ret    
  401af2:	add    BYTE PTR [eax],al
  401af4:	add    BYTE PTR [eax],al
  401af6:	add    BYTE PTR [eax],al
  401af8:	mov    edi,edi
  401afa:	push   ebp
  401afb:	mov    ebp,esp
  401afd:	sub    esp,0x60
  401b00:	push   edx
  401b01:	push   DWORD PTR [edx+0xec]
  401b07:	push   esi
  401b08:	push   DWORD PTR [edx+0x228]
  401b0e:	call   0x401e3c
  401b13:	add    esp,0xc
  401b16:	pop    edx
  401b17:	push   edx
  401b18:	push   0x0
  401b1a:	push   0x403018
  401b1f:	pop    eax
  401b20:	call   DWORD PTR cs:[eax]
  401b23:	pop    edx
  401b24:	push   edx
  401b25:	push   0x0
  401b27:	push   0x403008
  401b2c:	pop    eax
  401b2d:	call   DWORD PTR cs:[eax]
  401b30:	pop    edx
  401b31:	sub    esp,0xffffffa0
  401b34:	mov    ebp,DWORD PTR [esp]
  401b37:	add    esp,0x4
  401b3a:	ret    
  401b3b:	add    BYTE PTR [eax],al
  401b3d:	add    BYTE PTR [eax],al
  401b3f:	add    BYTE PTR [ebx-0x1374aa01],cl
  401b45:	sub    esp,0x40
  401b48:	push   edx
  401b49:	push   DWORD PTR [edx+0x1b8]
  401b4f:	push   DWORD PTR [edx+0x5dc]
  401b55:	call   0x40129c
  401b5a:	add    esp,0x8
  401b5d:	pop    edx
  401b5e:	push   edx
  401b5f:	push   0x0
  401b61:	push   0x403044
  401b66:	pop    eax
  401b67:	call   DWORD PTR cs:[eax]
  401b6a:	pop    edx
  401b6b:	push   edx
  401b6c:	mov    ecx,0x0
  401b71:	push   ecx
  401b72:	push   0x403080
  401b77:	pop    eax
  401b78:	call   DWORD PTR cs:[eax]
  401b7b:	pop    edx
  401b7c:	sub    esp,0xffffffc0
  401b7f:	mov    ebp,DWORD PTR [esp]
  401b82:	add    esp,0x4
  401b85:	ret    
  401b86:	add    BYTE PTR [eax],al
  401b88:	mov    edi,edi
  401b8a:	push   ebp
  401b8b:	mov    ebp,esp
  401b8d:	sub    esp,0x40
  401b90:	push   edx
  401b91:	push   0x0
  401b93:	push   0x403068
  401b98:	pop    eax
  401b99:	call   DWORD PTR cs:[eax]
  401b9c:	pop    edx
  401b9d:	push   edx
  401b9e:	push   edi
  401b9f:	push   DWORD PTR [edx+0x5c4]
  401ba5:	push   DWORD PTR [edx+0x180]
  401bab:	push   DWORD PTR [edx+0x23c]
  401bb1:	call   0x401bdc
  401bb6:	add    esp,0x10
  401bb9:	pop    edx
  401bba:	push   edx
  401bbb:	mov    esi,0x0
  401bc0:	push   esi
  401bc1:	push   0x403024
  401bc6:	pop    eax
  401bc7:	call   DWORD PTR cs:[eax]
  401bca:	pop    edx
  401bcb:	sub    esp,0xffffffc0
  401bce:	mov    ebp,DWORD PTR [esp]
  401bd1:	add    esp,0x4
  401bd4:	ret    
  401bd5:	add    BYTE PTR [eax],al
  401bd7:	add    BYTE PTR [eax],al
  401bd9:	add    BYTE PTR [eax],al
  401bdb:	add    BYTE PTR [ebx-0x1374aa01],cl
  401be1:	sub    esp,0x30
  401be4:	push   edx
  401be5:	push   esi
  401be6:	push   esi
  401be7:	call   0x401000
  401bec:	add    esp,0x8
  401bef:	pop    edx
  401bf0:	push   edx
  401bf1:	push   0x0
  401bf3:	push   0x40300c
  401bf8:	pop    eax
  401bf9:	call   DWORD PTR cs:[eax]
  401bfc:	pop    edx
  401bfd:	push   edx
  401bfe:	lea    edi,[edx]
  401c00:	push   edi
  401c01:	push   0x40304c
  401c06:	pop    eax
  401c07:	call   DWORD PTR cs:[eax]
  401c0a:	test   eax,eax
  401c0c:	jne    0x401bfe
  401c0e:	pop    edx
  401c0f:	sub    esp,0xffffffd0
  401c12:	mov    ebp,DWORD PTR [esp]
  401c15:	add    esp,0x4
  401c18:	ret    
  401c19:	add    BYTE PTR [eax],al
  401c1b:	add    BYTE PTR [ebx-0x1374aa01],cl
  401c21:	sub    esp,0x40
  401c24:	push   edx
  401c25:	push   DWORD PTR [edx+0x234]
  401c2b:	push   ecx
  401c2c:	push   DWORD PTR [edx+0x388]
  401c32:	push   eax
  401c33:	call   0x401af8
  401c38:	add    esp,0x10
  401c3b:	pop    edx
  401c3c:	push   edx
  401c3d:	lea    ecx,[edx]
  401c3f:	push   ecx
  401c40:	push   0x40304c
  401c45:	pop    eax
  401c46:	call   DWORD PTR cs:[eax]
  401c49:	test   eax,eax
  401c4b:	jne    0x401c3d
  401c4d:	pop    edx
  401c4e:	push   edx
  401c4f:	push   0x0
  401c51:	push   0x403018
  401c56:	pop    eax
  401c57:	call   DWORD PTR cs:[eax]
  401c5a:	pop    edx
  401c5b:	sub    esp,0xffffffc0
  401c5e:	mov    ebp,DWORD PTR [esp]
  401c61:	add    esp,0x4
  401c64:	ret    
  401c65:	add    BYTE PTR [eax],al
  401c67:	add    BYTE PTR [ebx-0x1374aa01],cl
  401c6d:	sub    esp,0x5c
  401c70:	push   edx
  401c71:	lea    ebx,[edx]
  401c73:	push   ebx
  401c74:	push   0x40304c
  401c79:	pop    eax
  401c7a:	call   DWORD PTR cs:[eax]
  401c7d:	test   eax,eax
  401c7f:	jne    0x401c71
  401c81:	pop    edx
  401c82:	push   edx
  401c83:	push   esi
  401c84:	push   DWORD PTR [edx+0xdc]
  401c8a:	push   DWORD PTR [edx+0x244]
  401c90:	push   ecx
  401c91:	call   0x401d0c
  401c96:	add    esp,0x10
  401c99:	pop    edx
  401c9a:	push   edx
  401c9b:	push   0x403040
  401ca0:	pop    eax
  401ca1:	call   DWORD PTR cs:[eax]
  401ca4:	pop    edx
  401ca5:	sub    esp,0xffffffa4
  401ca8:	mov    ebp,DWORD PTR [esp]
  401cab:	add    esp,0x4
  401cae:	ret    
  401caf:	add    BYTE PTR [ebx-0x1374aa01],cl
  401cb5:	sub    esp,0x5c
  401cb8:	push   edx
  401cb9:	push   DWORD PTR [edx+0x298]
  401cbf:	push   esi
  401cc0:	push   eax
  401cc1:	call   0x40156c
  401cc6:	add    esp,0xc
  401cc9:	pop    edx
  401cca:	push   edx
  401ccb:	mov    ecx,0x0
  401cd0:	push   ecx
  401cd1:	push   0x403018
  401cd6:	pop    eax
  401cd7:	call   DWORD PTR cs:[eax]
  401cda:	pop    edx
  401cdb:	push   edx
  401cdc:	mov    ecx,0x0
  401ce1:	push   ecx
  401ce2:	push   0x40302c
  401ce7:	pop    eax
  401ce8:	call   DWORD PTR cs:[eax]
  401ceb:	pop    edx
  401cec:	sub    esp,0xffffffa4
  401cef:	mov    ebp,DWORD PTR [esp]
  401cf2:	add    esp,0x4
  401cf5:	ret    
	...
  401d0a:	add    BYTE PTR [eax],al
  401d0c:	mov    edi,edi
  401d0e:	push   ebp
  401d0f:	mov    ebp,esp
  401d11:	sub    esp,0x24
  401d14:	push   edx
  401d15:	push   0x6b0
  401d1a:	mov    esi,0x6b0
  401d1f:	push   esi
  401d20:	mov    edx,0x40000
  401d25:	push   edx
  401d26:	push   0x403048
  401d2b:	pop    edi
  401d2c:	push   DWORD PTR [edi]
  401d2e:	sub    DWORD PTR [esp],0x2
  401d32:	push   0x403010
  401d37:	pop    edi
  401d38:	pop    DWORD PTR [edi]
  401d3a:	push   0x403010
  401d3f:	pop    eax
  401d40:	call   DWORD PTR cs:[eax]
  401d43:	xchg   DWORD PTR [esp],eax
  401d46:	mov    edx,eax
  401d48:	pop    edi
  401d49:	mov    DWORD PTR [edx+0x2f0],edi
  401d4f:	mov    ebx,DWORD PTR [edx+0x2f0]
  401d55:	lea    esi,[ebx]
  401d57:	sub    edi,edi
  401d59:	dec    edi
  401d5a:	and    edi,0x401e9d
  401d60:	mov    ebx,DWORD PTR [edi]
  401d62:	mov    DWORD PTR [esi],ebx
  401d64:	add    edi,0x3
  401d67:	add    esi,0x3
  401d6a:	mov    ebx,0x6a719112
  401d6f:	push   0x6b0
  401d74:	pop    eax
  401d75:	mov    ecx,ebx
  401d77:	xor    ecx,DWORD PTR [edi]
  401d79:	sub    ecx,0x1
  401d7c:	mov    DWORD PTR [esi],ecx
  401d7e:	push   DWORD PTR [esi]
  401d80:	mov    ebx,0xfffffffc
  401d85:	sub    edi,ebx
  401d87:	sub    esi,ebx
  401d89:	pop    ebx
  401d8a:	bswap  ebx
  401d8c:	sub    eax,0x4
  401d8f:	test   eax,eax
  401d91:	jne    0x401d75
  401d93:	push   edx
  401d94:	push   0x0
  401d96:	push   0x40303c
  401d9b:	pop    eax
  401d9c:	call   DWORD PTR cs:[eax]
  401d9f:	pop    edx
  401da0:	sub    esp,0xffffffdc
  401da3:	pop    ebp
  401da4:	ret    
	...
  401dad:	add    BYTE PTR [eax],al
  401daf:	add    BYTE PTR [ebx-0x1374aa01],cl
  401db5:	sub    esp,0x1c
  401db8:	push   edx
  401db9:	push   0x40301c
  401dbe:	pop    eax
  401dbf:	call   DWORD PTR cs:[eax]
  401dc2:	pop    edx
  401dc3:	push   edx
  401dc4:	push   DWORD PTR [edx+0x1bc]
  401dca:	push   DWORD PTR [edx+0x188]
  401dd0:	push   ecx
  401dd1:	call   0x401c68
  401dd6:	add    esp,0xc
  401dd9:	pop    edx
  401dda:	push   edx
  401ddb:	push   0x0
  401ddd:	push   0x403068
  401de2:	pop    eax
  401de3:	call   DWORD PTR cs:[eax]
  401de6:	pop    edx
  401de7:	sub    esp,0xffffffe4
  401dea:	mov    ebp,DWORD PTR [esp]
  401ded:	add    esp,0x4
  401df0:	ret    
  401df1:	add    BYTE PTR [eax],al
  401df3:	add    BYTE PTR [ebx-0x1374aa01],cl
  401df9:	sub    esp,0x38
  401dfc:	push   edx
  401dfd:	push   0x0
  401dff:	push   0x403034
  401e04:	pop    eax
  401e05:	call   DWORD PTR cs:[eax]
  401e08:	pop    edx
  401e09:	push   edx
  401e0a:	push   DWORD PTR [edx+0x134]
  401e10:	push   esi
  401e11:	call   0x40179c
  401e16:	add    esp,0x8
  401e19:	pop    edx
  401e1a:	push   edx
  401e1b:	mov    eax,0x0
  401e20:	push   eax
  401e21:	push   0x403018
  401e26:	pop    eax
  401e27:	call   DWORD PTR cs:[eax]
  401e2a:	pop    edx
  401e2b:	sub    esp,0xffffffc8
  401e2e:	mov    ebp,DWORD PTR [esp]
  401e31:	add    esp,0x4
  401e34:	ret    
  401e35:	add    BYTE PTR [eax],al
  401e37:	add    BYTE PTR [eax],al
  401e39:	add    BYTE PTR [eax],al
  401e3b:	add    BYTE PTR [ebx-0x1374aa01],cl
  401e41:	sub    esp,0x20
  401e44:	push   edx
  401e45:	push   DWORD PTR [edx+0x3ec]
  401e4b:	push   ebx
  401e4c:	push   ecx
  401e4d:	call   0x401a60
  401e52:	add    esp,0xc
  401e55:	pop    edx
  401e56:	push   edx
  401e57:	push   0x0
  401e59:	push   0x403018
  401e5e:	pop    eax
  401e5f:	call   DWORD PTR cs:[eax]
  401e62:	pop    edx
  401e63:	push   edx
  401e64:	mov    edi,0x0
  401e69:	push   edi
  401e6a:	push   0x40302c
  401e6f:	pop    eax
  401e70:	call   DWORD PTR cs:[eax]
  401e73:	pop    edx
  401e74:	sub    esp,0xffffffe0
  401e77:	mov    ebp,DWORD PTR [esp]
  401e7a:	add    esp,0x4
  401e7d:	ret    
  401e7e:	add    BYTE PTR [eax],al
  401e80:	add    BYTE PTR [eax],al
  401e82:	add    BYTE PTR [eax],al
  401e84:	enter  0x29be,0x47
  401e88:	nop
  401e89:	sub    eax,0xec90de3b
  401e8e:	xor    esp,esp
  401e90:	and    DWORD PTR [ebp+eiz*2-0xf771be6],eax
  401e97:	sbb    eax,0x957967c8
  401e9c:	xchg   edx,eax
  401e9d:	bswap  eax
  401e9f:	std    
  401ea0:	out    dx,eax
  401ea1:	sahf   
  401ea2:	mov    ecx,0xc7c70097
  401ea7:	add    DWORD PTR [eax],eax
  401ea9:	mov    edi,0xc6e30001
  401eaf:	jg     0x401ef2
  401eb1:	retf   0xa27e
  401eb4:	mov    ebp,0x310580a8
  401eb9:	imul   esi,eax,0xffffffe2
  401ebc:	add    DWORD PTR ds:0x251691a3,ecx
  401ec2:	gs ins BYTE PTR es:[edi],dx
  401ec4:	pop    eax
  401ec5:	push   edi
  401ec6:	inc    eax
  401ec7:	push   ss
  401ec8:	or     DWORD PTR [edx+0x32],eax
  401ecb:	imul   ecx,DWORD PTR [ecx],0xffffffff
  401ece:	mov    edx,0xbcd552e7
  401ed3:	ins    BYTE PTR es:[edi],dx
  401ed4:	mov    esi,0x81d8533b
  401ed9:	push   esp
  401eda:	js     0x401ed3
  401edc:	pop    edx
  401edd:	call   0xf444a4d2
  401ee2:	mov    ch,0xa0
  401ee4:	jge    0x401eca
  401ee6:	adc    BYTE PTR [eax],al
  401ee8:	add    DWORD PTR [eax],edx
  401eea:	adc    al,0x1d
  401eec:	sbb    ebp,DWORD PTR [edi+0x468a0000]
  401ef2:	(bad)  
  401ef3:	adc    BYTE PTR [esi+edx*4],dl
  401ef6:	and    eax,0x60f2ae1
  401efb:	call   0x3110:0x20092406
  401f02:	sbb    edx,DWORD PTR [edi+0x76dd5ba9]
  401f08:	ins    DWORD PTR es:[edi],dx
  401f09:	mov    DWORD PTR [eax+0x13],esp
  401f0c:	xor    eax,0x2102650d
  401f11:	add    BYTE PTR [edx+eax*1],al
  401f14:	and    eax,0x5c1d9a32
  401f19:	jbe    0x401f30
  401f1b:	push   eax
  401f1c:	add    BYTE PTR [edx+0x702b6291],0xc4
  401f23:	xchg   ebx,eax
  401f24:	adc    DWORD PTR [eax],eax
  401f26:	add    al,ah
  401f28:	cmps   DWORD PTR ds:[esi],DWORD PTR es:[edi]
  401f29:	push   0xff6b6a00
  401f2e:	push   ebp
  401f2f:	push   ss
  401f30:	pushf  
  401f31:	lods   eax,DWORD PTR ds:[esi]
  401f32:	cli    
  401f33:	cdq    
  401f34:	cwde   
  401f35:	add    eax,0xb5dedbf8
  401f3a:	aam    0xf9
  401f3c:	stc    
  401f3d:	aam    0xf
  401f3f:	sub    eax,0xcffb9a7
  401f44:	push   esi
  401f45:	ret    
  401f46:	call   0xc428acd8
  401f4b:	stc    
  401f4c:	add    al,BYTE PTR [edi-0x238cdecc]
  401f52:	jl     0x401fae
  401f54:	add    eax,0x3f6f00fb
  401f59:	call   0x6ab2aa5e
  401f5e:	add    BYTE PTR [edi+0x6b],ch
  401f61:	call   FWORD PTR [edi]
  401f63:	pushf  
  401f64:	cmp    al,0x8a
  401f66:	stos   BYTE PTR es:[edi],al
  401f67:	sub    BYTE PTR [eax+ebx*1+0x3c6b3d97],ah
  401f6e:	adc    eax,0x47cca74
  401f73:	push   ecx
  401f74:	push   es
  401f75:	pop    es
  401f76:	(bad)  [ecx+0x78]
  401f79:	cmps   DWORD PTR ds:[esi],DWORD PTR es:[edi]
  401f7a:	add    BYTE PTR [ecx-0x364fb057],ch
  401f80:	loope  0x401f6a
  401f82:	sbb    dh,bl
  401f84:	int3   
  401f85:	cmp    al,0x8d
  401f87:	pop    es
  401f88:	add    ebp,ebx
  401f8a:	retf   
  401f8b:	push   es
  401f8c:	push   edi
  401f8d:	test   DWORD PTR [esi+0x73],0x22581962
  401f94:	inc    ecx
  401f95:	dec    ecx
  401f96:	mov    dl,0x4e
  401f98:	ins    DWORD PTR es:[edi],dx
  401f99:	loope  0x401fb0
  401f9b:	sbb    al,0x69
  401f9d:	xor    al,0x6a
  401f9f:	xor    al,0x0
  401fa1:	jno    0x402003
  401fa3:	push   ebx
  401fa4:	push   ebx
  401fa5:	push   es
  401fa6:	pusha  
  401fa7:	je     0x401f9e
  401fa9:	jl     0x401fb0
  401fab:	stos   DWORD PTR es:[edi],eax
  401fac:	aas    
  401fad:	push   esp
  401fae:	cmp    ebp,DWORD PTR [esi]
  401fb0:	push   ebx
  401fb1:	add    DWORD PTR [eax],ecx
  401fb3:	ds aas 
  401fb5:	push   cs
  401fb6:	add    ch,BYTE PTR [esp+eax*1+0x77e1cddc]
  401fbd:	cmp    al,0x2f
  401fbf:	or     BYTE PTR [esi-0xe],bl
  401fc2:	jmp    DWORD PTR [ebx-0x49a93d2c]
  401fc8:	je     0x401f58
  401fca:	mov    bh,0x93
  401fcc:	xchg   esp,eax
  401fcd:	lods   eax,DWORD PTR cs:[esi]
  401fcf:	xor    esi,DWORD PTR [edi-0x577bc9f]
  401fd5:	sbb    esi,esi
  401fd7:	dec    BYTE PTR [esi-0x29]
  401fda:	test   BYTE PTR [edi+0x72a00e52],bh
  401fe0:	ss dec ebx
  401fe2:	ret    0x8e1c
  401fe5:	xchg   edi,edi
  401fe7:	jnp    0x401fbc
  401fe9:	out    0xc4,eax
  401feb:	test   DWORD PTR [ecx],eax
  401fed:	(bad)  
  401fee:	pop    ebx
  401fef:	arpl   bx,ax
  401ff1:	in     al,dx
  401ff2:	arpl   WORD PTR [ebp+0x76],si
  401ff5:	call   0x14bb641e
  401ffa:	push   DWORD PTR [ebp+0x66]
  401ffd:	je     0x40206a
  401fff:	jnp    0x402009
  402001:	test   al,dl
  402003:	inc    eax
  402004:	fmul   QWORD PTR [edi+0x50253a9]
  40200a:	test   ecx,ebx
  40200c:	cmp    DWORD PTR [ebp+0x6],edx
  40200f:	push   es
  402010:	push   edi
  402011:	pop    es
  402012:	or     BYTE PTR [ebx],dh
  402014:	ins    DWORD PTR es:[edi],dx
  402015:	int3   
  402016:	add    cl,BYTE PTR [eax+ebx*2]
  402019:	or     BYTE PTR [ebx-0x8],cl
  40201c:	aas    
  40201d:	das    
  40201e:	mov    al,ds:0xc5a758ff
  402023:	jo     0x402070
  402025:	dec    ecx
  402026:	mov    edx,0x29e958bd
  40202b:	mov    DWORD PTR [ecx],0x1e88ae9
  402031:	xor    DWORD PTR [eax+0x186968],0x28760000
  40203b:	push   esi
  40203c:	ficom  DWORD PTR [ebx-0x78e6f002]
  402042:	dec    DWORD PTR [ebx-0x220c9fff]
  402048:	add    al,0xff
  40204a:	add    BYTE PTR fs:[ecx-0x75],bl
  40204e:	inc    eax
  40204f:	cmp    al,0x80
  402051:	add    BYTE PTR [edi+0x34146061],al
  402057:	(bad)
  40205b:	scas   eax,DWORD PTR es:[edi]
  40205c:	jnp    0x402045
  40205e:	and    al,0x88
  402060:	dec    ecx
  402061:	sbb    BYTE PTR [edi-0x3477a706],al
  402067:	shl    al,0xef
  40206a:	mov    bl,BYTE PTR [eax+0x6d]
  40206d:	out    dx,eax
  40206e:	out    dx,eax
  40206f:	cmp    DWORD PTR [esi-0x9],edx
  402072:	inc    esi
  402073:	imul   edi,DWORD PTR [eax+0x44],0xa1190ea1
  40207a:	fs xchg edx,ecx
  40207d:	xor    BYTE PTR [ecx+0x65767178],cl
  402083:	push   esp
  402084:	std    
  402085:	jbe    0x402084
  402087:	or     BYTE PTR [ecx],al
  402089:	pop    edi
  40208a:	jmp    0x7e1c:0x79bdd2b0
  402091:	je     0x40202f
  402093:	mov    dh,0x3a
  402095:	call   0x791a59ea
  40209a:	pop    eax
  40209b:	add    al,0x3
  40209d:	pop    eax
  40209e:	js     0x402094
  4020a0:	mov    eax,DWORD PTR gs:[esi+eiz*1]
  4020a4:	in     al,dx
  4020a5:	add    BYTE PTR [edi+0x424010f],ch
  4020ab:	cmp    BYTE PTR [edx+0x64500424],cl
  4020b1:	(bad)  
  4020b2:	out    0x14,eax
  4020b4:	in     al,dx
  4020b5:	xor    bl,al
  4020b7:	inc    ebp
  4020b8:	dec    ebx
  4020b9:	mov    BYTE PTR [ebp+0xb],al
  4020bc:	xor    DWORD PTR [esi+0x7472b98b],0xf8f70373
  4020c6:	or     bh,dl
  4020c8:	mov    al,BYTE PTR [ecx-0x70916601]
  4020ce:	test   al,0x7a
  4020d0:	test   eax,0xb6c37e53
  4020d5:	adc    DWORD PTR [ebx-0x56],0x235457a9
  4020dc:	fisub  DWORD PTR [esi]
  4020de:	adc    BYTE PTR [esi-0x9],dl
  4020e1:	fwait
  4020e2:	mov    BYTE PTR [esi],ah
  4020e4:	sub    edi,DWORD PTR [esi]
  4020e6:	dec    BYTE PTR [eax]
  4020e8:	xlat   BYTE PTR ds:[ebx]
  4020e9:	or     BYTE PTR [ebx+0x4b],0x91
  4020ed:	fisub  DWORD PTR [edi+0x543f7f]
  4020f3:	or     DWORD PTR [edi+0x7],edx
  4020f6:	or     BYTE PTR [edx+ebx*8],bh
  4020f9:	or     dl,al
  4020fb:	aas    
  4020fc:	push   ecx
  4020fd:	adc    eax,0x657cd8d
  402102:	movs   BYTE PTR es:[edi],BYTE PTR ds:[esi]
  402103:	xchg   ebx,eax
  402104:	pop    ebx
  402105:	cdq    
  402106:	or     al,dl
  402108:	mov    ch,0x9e
  40210a:	add    al,0x57
  40210c:	add    DWORD PTR [ecx+0xd70019b],ebp
  402112:	inc    esp
  402113:	add    eax,DWORD PTR [eax]
  402115:	popa   
  402116:	jb     0x402113
  402118:	(bad)  
  402119:	jg     0x402190
  40211b:	std    
  40211c:	mov    dh,BYTE PTR [ebx+ebp*2+0x0]
  402120:	test   eax,0xa9f8f1c
  402125:	hlt    
  402126:	push   esi
  402127:	or     eax,0xb10f0a02
  40212c:	or     DWORD PTR [edi-0x29aaaaff],ebp
  402132:	cmp    DWORD PTR [ebx-0x8],eax
  402135:	dec    ecx
  402136:	loop   0x4020d3
  402138:	mov    ds:0x78605cea,al
  40213d:	sar    ch,1
  40213f:	pop    esp
  402140:	adc    BYTE PTR [eax],ah
  402142:	aaa    
  402143:	ja     0x40219b
  402145:	cmp    edx,edx
  402147:	mov    esi,0x590f8494
  40214c:	add    al,0xa4
  40214e:	add    BYTE PTR [eax],al
  402150:	add    DWORD PTR [ebx-0x495ed1ee],ecx
  402156:	mov    eax,DWORD PTR [ebp-0x7e7bf08e]
  40215c:	add    BYTE PTR [edi+ecx*1-0x7452080b],0xf8
  402164:	cld    
  402165:	jo     0x402164
  402167:	js     0x4021b7
  402169:	add    BYTE PTR [edx+0x543b0351],ch
  40216f:	lods   al,BYTE PTR ds:[esi]
  402170:	imul   edx,DWORD PTR [edx+ebp*2],0xf8835850
  402177:	add    al,0x55
  402179:	add    BYTE PTR [edi+0x6a14693f],0x50
  402180:	pop    eax
  402181:	adc    DWORD PTR [esp],0x57811425
  402188:	add    BYTE PTR [esi+0x1c],dl
  40218b:	jmp    FWORD PTR [ecx-0x859f100]
  402191:	jno    0x402157
  402193:	add    al,0xdd
  402195:	add    dl,bh
  402197:	inc    esp
  402198:	ins    DWORD PTR es:[edi],dx
  402199:	cmp    ah,cl
  40219b:	mov    eax,0xe54462f2
  4021a0:	int3   
  4021a1:	lods   eax,DWORD PTR ds:[esi]
  4021a2:	push   esi
  4021a3:	mov    ah,0x7d
  4021a5:	adc    eax,0xff0ea6ff
  4021aa:	and    al,0x1c
  4021ac:	sbb    al,0xe3
  4021ae:	out    dx,al
  4021af:	pop    ecx
  4021b0:	xlat   BYTE PTR ds:[ebx]
  4021b1:	stos   BYTE PTR es:[edi],al
  4021b2:	mov    BYTE PTR [ebx],0x56
  4021b5:	jbe    0x4021cb
  4021b7:	jb     0x402187
  4021b9:	cmp    BYTE PTR [edx+0x41],dl
  4021bc:	adc    DWORD PTR [eax],eax
  4021be:	aas    
  4021bf:	mov    bl,0x6a
  4021c1:	push   ebx
  4021c2:	push   eax
  4021c3:	dec    esi
  4021c5:	cmp    BYTE PTR [eax+edi*8],al
  4021c8:	adc    DWORD PTR [eax],eax
  4021ca:	aas    
  4021cb:	mov    cl,0x84
  4021cd:	jae    0x4021cf
  4021cf:	adc    BYTE PTR [ecx],dl
  4021d1:	add    bl,bl
  4021d3:	push   ecx
  4021d4:	pop    eax
  4021d5:	add    BYTE PTR [ebp+0xc],dl
  4021d8:	push   edi
  4021d9:	or     al,0xa7
  4021db:	push   esp
  4021dc:	ficom  WORD PTR [ecx-0x491c24d4]
  4021e2:	test   eax,0x21cde36e
  4021e7:	pushf  
  4021e8:	jae    0x4021c0
  4021ea:	scas   al,BYTE PTR es:[edi]
  4021eb:	les    ecx,FWORD PTR [edi-0x15]
  4021ee:	mov    edi,0xe89b497e
  4021f3:	mov    eax,DWORD PTR [ecx]
  4021f5:	call   0xec3f68f5
  4021fa:	push   edx
  4021fb:	pop    ds
  4021fc:	push   ds
  4021fd:	mov    ecx,0xff0a17ff
  402202:	(bad)  
  402203:	jmp    FWORD PTR [eax+0x1e1f846]
  402209:	pop    es
  40220a:	push   ecx
  40220b:	adc    dh,0xe8
  40220e:	add    BYTE PTR [edx+ebx*2-0x6124348c],cl
  402215:	cmp    eax,0xe801d08b
  40221a:	into   
  40221b:	inc    esi
  40221c:	inc    edi
  40221e:	fs (bad) 
  402220:	jb     0x402263
  402222:	pop    ss
  402223:	inc    ecx
  402224:	mov    esi,0xf2bfcae8
  402229:	scas   eax,DWORD PTR es:[edi]
  40222a:	ds aaa 
  40222c:	rol    BYTE PTR [eax],0x54
  40222f:	in     al,0x2a
  402231:	add    eax,0x808923c5
  402236:	sar    DWORD PTR [eax-0x79],0x98
  40223a:	cvtdq2ps xmm1,xmm3
  40223d:	dec    esi
  40223e:	sub    al,0xf2
  402240:	dec    eax
  402241:	add    DWORD PTR [eax],ebx
  402243:	mov    al,0xbe
  402245:	stc    
  402246:	int3   
  402247:	inc    eax
  402248:	or     edi,DWORD PTR [ecx-0x8123dc]
  40224e:	(bad)  
  40224f:	(bad)  
  402250:	out    dx,eax
  402251:	dec    eax
  402252:	repz ret 
  402254:	or     DWORD PTR [ebp+0xe],ebx
  402257:	pop    es
  402258:	or     DWORD PTR [ecx-0x9149af],edi
  40225e:	(bad)  
  40225f:	jmp    DWORD PTR [ebp-0x857fe9]
  402265:	jg     0x4022c9
  402267:	sub    eax,0x3c9e9551
  40226c:	xchg   ecx,eax
  40226d:	mov    al,ds:0xc8a739f4
  402272:	rcl    DWORD PTR [ecx+0x1],0x48
  402276:	push   esp
  402277:	mov    DWORD PTR [edx+0x1004876],ecx
  40227d:	dec    eax
  40227e:	jbe    0x402211
  402280:	xchg   edx,eax
  402281:	push   esp
  402282:	dec    eax
  402283:	add    BYTE PTR [ecx],al
  402285:	dec    eax
  402286:	push   esp
  402287:	cdq    
  402288:	call   0x7048:0x1004870
  40228f:	mov    eax,ds:0x4834a2
  402294:	add    DWORD PTR [eax+0x34],ecx
  402297:	test   eax,0x4870aa
  40229c:	add    DWORD PTR [eax+0x70],ecx
  40229f:	mov    cl,0xb2
  4022a1:	xor    al,0x48
  4022a3:	add    BYTE PTR [ecx],al
  4022a5:	dec    eax
  4022a6:	xor    al,0xb9
  4022a8:	mov    WORD PTR [ebp-0x255d3cef],?
  4022ae:	mov    esp,0x91094dc7
  4022b3:	mov    al,bh
  4022b5:	adc    dh,BYTE PTR [eax+eax*1-0x74]
  4022b9:	jge    0x40230f
  4022bb:	mov    al,BYTE PTR [ebp+0x42207b21]
  4022c1:	(bad)  
  4022c2:	je     0x4022c3
  4022c4:	add    DWORD PTR [ecx+0x3b],esp
  4022c7:	mov    BYTE PTR [eax-0x6b],ah
  4022ca:	pop    ebp
  4022cb:	mov    edx,DWORD PTR [edx-0x49]
  4022ce:	and    BYTE PTR [ebx-0x7724cf40],dh
  4022d4:	add    DWORD PTR [eax],edi
  4022d6:	inc    ebp
  4022d7:	mov    ecx,DWORD PTR ds:0xa9af3b00
  4022dd:	adc    ebx,DWORD PTR [ecx+0x5c]
  4022e0:	fsub   QWORD PTR [ecx-0x34b20e4d]
  4022e6:	clc    
  4022e7:	mov    eax,DWORD PTR [ecx]
  4022e9:	dec    eax
  4022ea:	mov    cl,0xac
  4022ec:	popa   
  4022ed:	test   eax,0x8776f8c3
  4022f2:	popf   
  4022f3:	and    BYTE PTR ds:0xc6e90cbd,al
  4022f9:	sbb    BYTE PTR [eax],al
  4022fb:	add    BYTE PTR [ecx],al
  4022fd:	mov    ebp,DWORD PTR [eax-0x73]
  402300:	jle    0x40231a
  402302:	mov    eax,DWORD PTR [eax]
  402304:	or     eax,0xa9ae3b00
  402309:	adc    ecx,DWORD PTR [ebp+0x4102b500]
  40230f:	add    eax,0x4004cedc
  402314:	or     al,0x2e
  402316:	stos   DWORD PTR es:[edi],eax
  402317:	sub    bh,BYTE PTR [eax-0x6f0c5a9c]
  40231d:	inc    eax
  40231e:	sub    al,0x79
  402320:	movs   DWORD PTR es:[edi],DWORD PTR ds:[esi]
  402321:	dec    esp
  402322:	shl    DWORD PTR [ebx-0x33],0x83
  402326:	pusha  
  402327:	ret    
  402328:	imul   esp,DWORD PTR [eax+eax*1],0xd2310120
  40232f:	add    ch,BYTE PTR [ebx-0x64]
  402332:	cmp    edi,edi
  402334:	test   eax,0x8dd8e114
  402339:	fsub   st,st(3)
  40233b:	add    BYTE PTR [eax+0x74],ah
  40233e:	pop    ss
  40233f:	jo     0x40237a
  402341:	inc    edi
  402342:	retf   
  402343:	or     BYTE PTR [eax+0x11cc3c0],dh
  402349:	rol    BYTE PTR ds:0x4684b54b,0x54
  402350:	add    BYTE PTR [ecx-0x6a41b3ac],bh
  402356:	mov    dh,BYTE PTR [esi-0x626a754f]
  40235c:	call   0x4d24:0x351db91
  402363:	cmc    
  402364:	push   ecx
  402365:	xchg   ebp,eax
  402366:	popa   
  402367:	ret    
  402368:	mov    ds:0xf25449ea,al
  40236d:	cmps   DWORD PTR ds:[esi],DWORD PTR es:[edi]
  40236e:	sbb    cl,BYTE PTR [edx-0x33861654]
  402374:	and    al,0x0
  402376:	xchg   dh,al
  402378:	std    
  402379:	cmps   BYTE PTR ds:[esi],BYTE PTR es:[edi]
  40237a:	mov    ebx,DWORD PTR [eax+esi*2]
  40237d:	add    DWORD PTR ds:0x6130d425,ebp
  402383:	xchg   BYTE PTR [esp+edx*1+0x50],al
  402387:	add    cl,dh
  402389:	sub    DWORD PTR [esi],esp
  40238b:	jp     0x40234c
  40238d:	push   edx
  40238e:	cmp    al,0x46
  402390:	jmp    0x1442480
  402395:	pop    edx
  402396:	call   0x723c17b3
  40239b:	enter  0x5ef4,0xa0
  40239f:	jbe    0x40241c
  4023a1:	pop    ebx
  4023a2:	add    BYTE PTR [edi+0x58],ah
  4023a5:	or     BYTE PTR [edi+0x26],bl
  4023a8:	gs add al,bh
  4023ab:	retf   0x88bc
  4023ae:	icebp  
  4023af:	sbb    eax,0xb63e6540
  4023b4:	cdq    
  4023b5:	cwde   
  4023b6:	dec    ebx
  4023b7:	out    0xed,al
  4023b9:	popa   
  4023ba:	dec    edx
  4023bb:	cmp    esp,DWORD PTR [ebp+0x16f8a81]
  4023c1:	push   0x741bab60
  4023c6:	or     BYTE PTR cs:0x12040743,cl
  4023cd:	daa    
  4023ce:	xchg   edx,eax
  4023cf:	cmp    eax,0x16947a50
  4023d4:	jl     0x40236a
  4023d6:	jp     0x402429
  4023d8:	push   esp
  4023d9:	jp     0x40236f
  4023db:	jl     0x402417
  4023dd:	stos   BYTE PTR es:[edi],al
  4023de:	test   DWORD PTR [eax+0x2],ebp
  4023e1:	outs   dx,BYTE PTR ds:[esi]
  4023e2:	push   ds
  4023e3:	sub    ecx,DWORD PTR [edi]
  4023e5:	adc    bl,BYTE PTR [ecx]
  4023e7:	sbb    DWORD PTR [ebx],eax
  4023e9:	and    esi,DWORD PTR [esi]
  4023eb:	xchg   edi,eax
  4023ec:	test   eax,0xc9b6d758
  4023f1:	or     al,bh
  4023f3:	add    eax,0x66cb9a05
  4023f8:	bound  edx,QWORD PTR [esi]
  4023fa:	xchg   ebp,eax
  4023fb:	add    DWORD PTR [eax-0x59],ebx
  4023fe:	push   es
  4023ff:	push   ebx
  402400:	add    eax,0xbf5a5f3a
  402405:	and    DWORD PTR [edx+0x50],ebp
  402408:	add    DWORD PTR [ebx-0x45933e6],ecx
  40240e:	cdq    
  40240f:	add    BYTE PTR [ecx],al
  402411:	adc    ch,BYTE PTR [ebp-0x5b66a27a]
  402417:	inc    edi
  402418:	retf   
  402419:	bound  ebx,QWORD PTR [eax-0x2c]
  40241c:	repnz push edx
  40241e:	jbe    0x402403
  402420:	ret    
  402421:	call   0x1b4f278
  402426:	cmps   DWORD PTR ds:[esi],DWORD PTR es:[edi]
  402427:	call   FWORD PTR [eax-0x59]
  40242a:	sub    DWORD PTR [edi],eax
  40242c:	leave  
  40242d:	loop   0x4023ca
  40242f:	push   esp
  402430:	pop    eax
  402431:	adc    dh,BYTE PTR [esp+eiz*8]
  402434:	ja     0x40248b
  402436:	sar    bh,1
  402438:	pop    esi
  402439:	lea    eax,[ebp-0x12]
  40243c:	hlt    
  40243d:	test   DWORD PTR [ecx-0x2fdf332c],ecx
  402443:	ficomp WORD PTR [eax+edx*1+0x24]
  402447:	inc    esp
  402448:	add    DWORD PTR [eax],eax
  40244a:	add    BYTE PTR [eax+0x69],ch
  40244d:	add    BYTE PTR [eax],al
  40244f:	add    ah,al
  402451:	xor    si,si
  402454:	xchg   ecx,eax
  402455:	mov    DWORD PTR [ebx],ebp
  402457:	cdq    
  402458:	cmp    eax,0xe255dce0
  40245d:	adc    ah,BYTE PTR [ebp+0x640a6ee7]
  402463:	rol    BYTE PTR [ecx],1
  402465:	sti    
  402466:	out    dx,eax
  402467:	arpl   dx,dx
  402469:	adc    ebp,DWORD PTR [edi-0x1]
  40246c:	mov    DWORD PTR [ebp+0x75],esi
  40246f:	sub    BYTE PTR [ebp-0x13],cl
  402472:	dec    ebx
  402473:	and    eax,0x24523716
  402478:	jns    0x402413
  40247a:	jmp    0x4024f2
  40247c:	loop   0x402491
  40247e:	dec    ebp
  40247f:	movs   DWORD PTR es:[edi],DWORD PTR ds:[esi]
  402480:	xchg   ecx,eax
  402481:	sar    DWORD PTR [ecx+edx*4+0x554b0b6d],cl
  402488:	jno    0x402504
  40248a:	sub    esp,ebx
  40248c:	ret    
  40248d:	sub    eax,DWORD PTR [ecx]
  40248f:	mov    dh,0x21
  402491:	call   FWORD PTR [ecx-0x6bdbb010]
  402497:	mov    BYTE PTR [edi+0x0],ch
  40249a:	jge    0x402437
  40249c:	adc    DWORD PTR [eax],eax
  40249e:	aas    
  40249f:	outs   dx,BYTE PTR ds:[esi]
  4024a0:	imul   ebp,DWORD PTR [eax-0x5a63efab],0x7e
  4024a7:	in     al,dx
  4024a8:	jmp    0x8ccc152d
  4024ad:	cld    
  4024ae:	imul   eax,DWORD PTR [eax],0xdcfc6806
  4024b4:	add    edi,edi
  4024b6:	push   ebp
  4024b7:	and    DWORD PTR [ebx+0x55],ecx
  4024ba:	xchg   edi,eax
  4024bb:	rol    DWORD PTR [ecx+0x6e000068],cl
  4024c1:	push   0x0
  4024c3:	push   0x68
  4024c5:	push   0x8001036a
  4024ca:	aas    
  4024cb:	(bad)  
  4024cc:	test   eax,0xc1c40173
  4024d1:	and    BYTE PTR [edx*2-0x4a66f3c],0x2e
  4024d9:	mov    ds:0x5ec06144,eax
  4024de:	(bad)  
  4024df:	aam    0x4a
  4024e1:	jno    0x402515
  4024e3:	into   
  4024e4:	bound  esp,QWORD PTR [ebp+0x76]
  4024e7:	aam    0x1e
  4024e9:	sbb    edx,DWORD PTR [ecx-0x7c]
  4024ec:	sub    ebp,DWORD PTR [ebp+0x52]
  4024ef:	pop    edi
  4024f0:	lds    edx,FWORD PTR [edx+0x27b3bc5d]
  4024f6:	dec    esi
  4024f7:	xchg   DWORD PTR [ecx+0x6e],ecx
  4024fa:	mov    eax,0xadfbd425
  4024ff:	jns    0x4024b6
  402501:	xchg   ebx,eax
  402502:	adc    DWORD PTR [esi],esi
  402504:	sub    al,0x8f
  402506:	xchg   edx,eax
  402507:	lea    esi,[eax-0x5c713a9c]
  40250d:	cmp    ch,dh
  40250f:	aas    
  402510:	adc    al,0xa6
  402512:	movs   DWORD PTR es:[edi],DWORD PTR ds:[esi]
  402513:	cmps   BYTE PTR ds:[esi],BYTE PTR es:[edi]
  402514:	lea    esp,[edi-0x3ad51cf8]
  40251a:	add    al,0xd7
  40251c:	jnp    0x4024db
  40251e:	push   ds
  40251f:	clc    
  402520:	xchg   DWORD PTR [ebx+0x12602],edx
  402526:	add    BYTE PTR [edi+0x1],dh
  40252c:	add    DWORD PTR [eax],eax
  40252e:	add    BYTE PTR [eax],al
  402530:	add    DWORD PTR [eax],eax
  402532:	add    BYTE PTR [eax],al
  402534:	add    DWORD PTR [eax],eax
  402536:	add    BYTE PTR [eax],al
  402538:	add    DWORD PTR [eax],eax
  40253a:	add    BYTE PTR [eax],al
  40253c:	add    DWORD PTR [edx-0x6ffeff70],esi
  402542:	xchg   edx,eax
  402543:	add    eax,0x42004
  402548:	add    DWORD PTR [edi+0x7b27347b],eax
  40254e:	add    DWORD PTR [eax],0xffffffa8
  402551:	dec    eax
  402552:	cmc    
  402553:	not    DWORD PTR [edx-0xc]
  402556:	(bad)  
  402557:	jl     0x40258e
  402559:	fsubrp st(1),st
  40255b:	or     bh,ah
  40255d:	or     eax,0x77ad0d8e
  402562:	mov    esi,DWORD PTR [ecx]
  402564:	pop    ecx
  402565:	retf   0xb9b5
  402568:	daa    
  402569:	test   eax,0x864fbdb0
  40256e:	dec    ebp
  40256f:	xchg   edi,eax
  402570:	.byte 0xbd
  402571:	.byte 0x1a
  402572:	.byte 0x80
  402573:	.byte 0xb1
