
d86c380226c718da6f6ee61be9cb0de10c3fc081bd02ec6bca74917239ab71bb.exe:     file format pei-i386


Disassembly of section .text:

004d0000 <.text>:
	...
  4d000c:	mov    edi,edi
  4d000e:	push   ebp
  4d000f:	mov    ebp,esp
  4d0011:	sub    esp,0x3c
  4d0014:	lea    ecx,[eax+0x108]
  4d001a:	adc    DWORD PTR [ebp-0x14],esi
  4d001d:	push   ecx
  4d001e:	mov    eax,0x0
  4d0023:	push   eax
  4d0024:	notrack call DWORD PTR ds:0x4d2028
  4d002b:	pop    ecx
  4d002c:	push   ecx
  4d002d:	push   edi
  4d002e:	push   DWORD PTR [ecx+0x180]
  4d0034:	push   ebx
  4d0035:	push   edx
  4d0036:	call   0x4d04ac
  4d003b:	add    esp,0x10
  4d003e:	pop    ecx
  4d003f:	push   ecx
  4d0040:	push   0x0
  4d0042:	notrack call DWORD PTR ds:0x4d2078
  4d0049:	pop    ecx
  4d004a:	add    esp,0x3c
  4d004d:	pop    ebp
  4d004e:	ret    
  4d004f:	add    BYTE PTR [eax],al
  4d0051:	add    BYTE PTR [eax],al
  4d0053:	add    BYTE PTR [ebx-0x1374aa01],cl
  4d0059:	sub    esp,0x2c
  4d005c:	lea    edi,ds:0x4d3170
  4d0062:	and    edx,edi
  4d0064:	push   edi
  4d0065:	push   DWORD PTR [edi+0x2c]
  4d0068:	push   DWORD PTR [edi+0xa8]
  4d006e:	push   esi
  4d006f:	push   ecx
  4d0070:	call   0x4d0830
  4d0075:	add    esp,0x10
  4d0078:	pop    edi
  4d0079:	push   0x0
  4d007b:	notrack call DWORD PTR ds:0x4d200c
  4d0082:	mov    esi,0x4d2020
  4d0087:	mov    esi,DWORD PTR [esi]
  4d0089:	push   esi
  4d008a:	push   DWORD PTR [edi+0x68]
  4d008d:	pop    edx
  4d008e:	call   edx
  4d0090:	add    esp,0x2c
  4d0093:	pop    ebp
  4d0094:	ret    
  4d0095:	add    BYTE PTR [eax],al
  4d0097:	add    BYTE PTR [eax],al
  4d0099:	add    BYTE PTR [eax],al
  4d009b:	add    BYTE PTR [ebx-0x1374aa01],cl
  4d00a1:	sub    esp,0x30
  4d00a4:	lea    ebx,ds:0x4d31e4
  4d00aa:	xor    edx,DWORD PTR [ebx-0x15c]
  4d00b0:	push   0x0
  4d00b2:	notrack call DWORD PTR ds:0x4d207c
  4d00b9:	push   ebx
  4d00ba:	push   DWORD PTR [ebx+0x12c]
  4d00c0:	push   edx
  4d00c1:	push   ecx
  4d00c2:	call   0x4d0174
  4d00c7:	add    esp,0xc
  4d00ca:	pop    ebx
  4d00cb:	lea    edx,[ebx-0x1e4]
  4d00d1:	push   edx
  4d00d2:	notrack call DWORD PTR ds:0x4d2020
  4d00d9:	test   eax,eax
  4d00db:	jne    0x4d00cc
  4d00dd:	add    esp,0x30
  4d00e0:	pop    ebp
  4d00e1:	ret    
  4d00e2:	add    BYTE PTR [eax],al
  4d00e4:	add    BYTE PTR [eax],al
  4d00e6:	add    BYTE PTR [eax],al
  4d00e8:	mov    edi,edi
  4d00ea:	push   ebp
  4d00eb:	mov    ebp,esp
  4d00ed:	sub    esp,0x24
  4d00f0:	mov    esi,0x4d304c
  4d00f5:	mov    DWORD PTR [esi+0x15c],0x79
  4d00ff:	mov    edi,0x0
  4d0104:	push   edi
  4d0105:	notrack call DWORD PTR ds:0x4d2078
  4d010c:	push   esi
  4d010d:	push   DWORD PTR [esi+0x17c]
  4d0113:	push   edx
  4d0114:	push   DWORD PTR [esi+0x6c]
  4d0117:	call   0x4d0914
  4d011c:	add    esp,0xc
  4d011f:	pop    esi
  4d0120:	push   0x0
  4d0122:	notrack call DWORD PTR ds:0x4d2008
  4d0129:	add    esp,0x24
  4d012c:	pop    ebp
  4d012d:	ret    
  4d012e:	add    BYTE PTR [eax],al
  4d0130:	add    BYTE PTR [eax],al
  4d0132:	add    BYTE PTR [eax],al
  4d0134:	mov    edi,edi
  4d0136:	push   ebp
  4d0137:	mov    ebp,esp
  4d0139:	sub    esp,0x3c
  4d013c:	mov    ecx,0x4d3158
  4d0141:	and    DWORD PTR [ebp-0x1c],ecx
  4d0144:	push   ecx
  4d0145:	mov    edi,0x0
  4d014a:	push   edi
  4d014b:	notrack call DWORD PTR ds:0x4d2030
  4d0152:	pop    ecx
  4d0153:	push   ecx
  4d0154:	push   DWORD PTR [ecx+0xd0]
  4d015a:	push   ebx
  4d015b:	call   0x4d009c
  4d0160:	add    esp,0x8
  4d0163:	pop    ecx
  4d0164:	push   ecx
  4d0165:	push   0x0
  4d0167:	notrack call DWORD PTR ds:0x4d2028
  4d016e:	pop    ecx
  4d016f:	add    esp,0x3c
  4d0172:	pop    ebp
  4d0173:	ret    
  4d0174:	mov    edi,edi
  4d0176:	push   ebp
  4d0177:	mov    ebp,esp
  4d0179:	sub    esp,0x5c
  4d017c:	mov    edi,0x4d31b8
  4d0181:	add    DWORD PTR [ebp-0x1c],0x1021
  4d0188:	push   edi
  4d0189:	push   DWORD PTR [edi+0x38]
  4d018c:	push   eax
  4d018d:	push   edx
  4d018e:	call   0x4d00e8
  4d0193:	add    esp,0xc
  4d0196:	pop    edi
  4d0197:	push   0x0
  4d0199:	notrack call DWORD PTR ds:0x4d2038
  4d01a0:	mov    edx,0x0
  4d01a5:	push   edx
  4d01a6:	notrack call DWORD PTR ds:0x4d2078
  4d01ad:	add    esp,0x5c
  4d01b0:	pop    ebp
  4d01b1:	ret    
	...
  4d01ca:	add    BYTE PTR [eax],al
  4d01cc:	mov    edi,edi
  4d01ce:	push   ebp
  4d01cf:	mov    ebp,esp
  4d01d1:	sub    esp,0x48
  4d01d4:	lea    eax,ds:0x4d3054
  4d01da:	or     esi,DWORD PTR [eax-0x24]
  4d01dd:	push   eax
  4d01de:	push   DWORD PTR [eax+0xac]
  4d01e4:	push   DWORD PTR [eax+0xd0]
  4d01ea:	push   DWORD PTR [eax+0x138]
  4d01f0:	call   0x4d000c
  4d01f5:	add    esp,0xc
  4d01f8:	pop    eax
  4d01f9:	push   eax
  4d01fa:	notrack call DWORD PTR ds:0x4d202c
  4d0201:	pop    eax
  4d0202:	push   eax
  4d0203:	push   0x0
  4d0205:	notrack call DWORD PTR ds:0x4d2044
  4d020c:	pop    eax
  4d020d:	add    esp,0x48
  4d0210:	pop    ebp
  4d0211:	ret    
	...
  4d0222:	add    BYTE PTR [eax],al
  4d0224:	mov    edi,edi
  4d0226:	push   ebp
  4d0227:	mov    ebp,esp
  4d0229:	sub    esp,0x60
  4d022c:	lea    ebx,[esi+0xa8]
  4d0232:	or     edi,DWORD PTR [ebp-0x20]
  4d0235:	lea    esi,[ebx-0xf4]
  4d023b:	push   esi
  4d023c:	notrack call DWORD PTR ds:0x4d2020
  4d0243:	test   eax,eax
  4d0245:	jne    0x4d0236
  4d0247:	push   ebx
  4d0248:	push   DWORD PTR [ebx+0x138]
  4d024e:	push   edi
  4d024f:	push   DWORD PTR [ebx+0x80]
  4d0255:	call   0x4d0380
  4d025a:	add    esp,0xc
  4d025d:	pop    ebx
  4d025e:	push   0x0
  4d0260:	notrack call DWORD PTR ds:0x4d2080
  4d0267:	add    esp,0x60
  4d026a:	pop    ebp
  4d026b:	ret    
	...
  4d0274:	mov    edi,edi
  4d0276:	push   ebp
  4d0277:	mov    ebp,esp
  4d0279:	sub    esp,0x4c
  4d027c:	lea    edi,[ebx-0x130]
  4d0282:	xor    DWORD PTR [ebp-0x1c],eax
  4d0285:	push   edi
  4d0286:	push   ebx
  4d0287:	push   DWORD PTR [edi+0x1a0]
  4d028d:	push   DWORD PTR [edi+0xfc]
  4d0293:	call   0x4d0134
  4d0298:	add    esp,0xc
  4d029b:	pop    edi
  4d029c:	push   0x0
  4d029e:	notrack call DWORD PTR ds:0x4d2034
  4d02a5:	mov    ebx,0x0
  4d02aa:	push   ebx
  4d02ab:	notrack call DWORD PTR ds:0x4d2030
  4d02b2:	add    esp,0x4c
  4d02b5:	pop    ebp
  4d02b6:	ret    
  4d02b7:	add    BYTE PTR [ebx-0x1374aa01],cl
  4d02bd:	sub    esp,0x48
  4d02c0:	lea    edi,ds:0x4d30f8
  4d02c6:	cmp    edi,0x4a2e
  4d02cc:	jbe    0x4d02bb
  4d02ce:	push   edi
  4d02cf:	push   DWORD PTR [edi+0x170]
  4d02d5:	push   eax
  4d02d6:	push   DWORD PTR [edi+0x14c]
  4d02dc:	push   ecx
  4d02dd:	call   0x4d01cc
  4d02e2:	add    esp,0x10
  4d02e5:	pop    edi
  4d02e6:	notrack call DWORD PTR ds:0x4d202c
  4d02ed:	notrack call DWORD PTR ds:0x4d202c
  4d02f4:	add    esp,0x48
  4d02f7:	pop    ebp
  4d02f8:	ret    
  4d02f9:	add    BYTE PTR [eax],al
  4d02fb:	add    BYTE PTR [ebx-0x1374aa01],cl
  4d0301:	sub    esp,0x24
  4d0304:	lea    esi,ds:0x4d31fc
  4d030a:	sbb    ecx,edi
  4d030c:	push   0x0
  4d030e:	notrack call DWORD PTR ds:0x4d2028
  4d0315:	push   esi
  4d0316:	push   edi
  4d0317:	push   DWORD PTR [esi+0x114]
  4d031d:	push   eax
  4d031e:	call   0x4d0994
  4d0323:	add    esp,0xc
  4d0326:	pop    esi
  4d0327:	push   0x0
  4d0329:	notrack call DWORD PTR ds:0x4d2048
  4d0330:	add    esp,0x24
  4d0333:	pop    ebp
  4d0334:	ret    
  4d0335:	add    BYTE PTR [eax],al
  4d0337:	add    BYTE PTR [edx+0x0],ch
  4d033a:	call   DWORD PTR ds:0x4d2008
  4d0340:	call   DWORD PTR ds:0x4d2014
  4d0346:	sub    esp,0x8
  4d0349:	call   DWORD PTR ds:0x4d2014
  4d034f:	sub    esp,0x8
  4d0352:	xor    eax,eax
  4d0354:	lea    eax,[eax*2+0x4d3100]
  4d035b:	lea    ecx,[eax+0x4]
  4d035e:	add    BYTE PTR [ecx],0xb0
  4d0361:	push   eax
  4d0362:	call   DWORD PTR ds:0x4d204c
  4d0368:	mov    ecx,DWORD PTR [eax+0x3c]
  4d036b:	push   DWORD PTR [eax+ecx*1+0x29]
  4d036f:	pop    eax
  4d0370:	mov    cl,0x2c
  4d0372:	cmp    al,cl
  4d0374:	pusha  
  4d0375:	ja     0x4d0054
  4d037b:	popa   
  4d037c:	ret    
  4d037d:	add    BYTE PTR [eax],al
  4d037f:	repz mov edi,edi
  4d0382:	push   ebp
  4d0383:	mov    ebp,esp
  4d0385:	sub    esp,0x2c
  4d0388:	mov    eax,0x4d31a4
  4d038d:	sub    DWORD PTR [eax-0x40],0x55
  4d0391:	push   eax
  4d0392:	push   edx
  4d0393:	push   DWORD PTR [eax+0x54]
  4d0396:	call   0x4d09d8
  4d039b:	add    esp,0x8
  4d039e:	pop    eax
  4d039f:	push   eax
  4d03a0:	push   0x0
  4d03a2:	notrack call DWORD PTR ds:0x4d2008
  4d03a9:	pop    eax
  4d03aa:	push   eax
  4d03ab:	mov    edi,0x0
  4d03b0:	push   edi
  4d03b1:	notrack call DWORD PTR ds:0x4d2034
  4d03b8:	pop    eax
  4d03b9:	add    esp,0x2c
  4d03bc:	pop    ebp
  4d03bd:	ret    
	...
  4d03ca:	add    BYTE PTR [eax],al
  4d03cc:	mov    edi,edi
  4d03ce:	push   ebp
  4d03cf:	mov    ebp,esp
  4d03d1:	sub    esp,0x1c
  4d03d4:	mov    esi,0x4d3054
  4d03d9:	or     DWORD PTR [esi+0x170],0x11f3
  4d03e3:	push   esi
  4d03e4:	push   DWORD PTR [esi+0x98]
  4d03ea:	push   ebx
  4d03eb:	push   DWORD PTR [esi+0x154]
  4d03f1:	call   0x4d071c
  4d03f6:	add    esp,0xc
  4d03f9:	pop    esi
  4d03fa:	mov    ecx,0x0
  4d03ff:	push   ecx
  4d0400:	notrack call DWORD PTR ds:0x4d2080
  4d0407:	push   0x0
  4d0409:	notrack call DWORD PTR ds:0x4d207c
  4d0410:	add    esp,0x1c
  4d0413:	pop    ebp
  4d0414:	ret    
  4d0415:	add    BYTE PTR [eax],al
  4d0417:	add    BYTE PTR [ebx-0x1374aa01],cl
  4d041d:	sub    esp,0x2c
  4d0420:	mov    esi,0x4d3000
  4d0425:	sbb    eax,0xffffffc4
  4d0428:	mov    ecx,0x0
  4d042d:	push   ecx
  4d042e:	notrack call DWORD PTR ds:0x4d2080
  4d0435:	push   esi
  4d0436:	push   DWORD PTR [esi+0x48]
  4d0439:	push   edx
  4d043a:	push   edx
  4d043b:	push   DWORD PTR [esi+0xf0]
  4d0441:	call   0x4d05e0
  4d0446:	add    esp,0x10
  4d0449:	pop    esi
  4d044a:	push   0x0
  4d044c:	notrack call DWORD PTR ds:0x4d2028
  4d0453:	add    esp,0x2c
  4d0456:	pop    ebp
  4d0457:	ret    
	...
  4d0460:	mov    edi,edi
  4d0462:	push   ebp
  4d0463:	mov    ebp,esp
  4d0465:	sub    esp,0x54
  4d0468:	lea    edx,ds:0x4d3070
  4d046e:	xor    edi,DWORD PTR [ebp-0x34]
  4d0471:	push   edx
  4d0472:	mov    ecx,0x0
  4d0477:	push   ecx
  4d0478:	notrack call DWORD PTR ds:0x4d2080
  4d047f:	pop    edx
  4d0480:	push   edx
  4d0481:	push   DWORD PTR [edx+0x60]
  4d0484:	push   DWORD PTR [edx+0x30]
  4d0487:	push   DWORD PTR [edx+0xa8]
  4d048d:	push   DWORD PTR [edx+0x18]
  4d0490:	call   0x4d0a1c
  4d0495:	add    esp,0x10
  4d0498:	pop    edx
  4d0499:	push   edx
  4d049a:	push   0x0
  4d049c:	notrack call DWORD PTR ds:0x4d207c
  4d04a3:	pop    edx
  4d04a4:	add    esp,0x54
  4d04a7:	pop    ebp
  4d04a8:	ret    
  4d04a9:	add    BYTE PTR [eax],al
  4d04ab:	add    BYTE PTR [ebx-0x1374aa01],cl
  4d04b1:	sub    esp,0x4c
  4d04b4:	lea    edx,[ecx-0x124]
  4d04ba:	adc    esi,ecx
  4d04bc:	push   edx
  4d04bd:	push   DWORD PTR [edx+0x124]
  4d04c3:	push   DWORD PTR [edx+0xc]
  4d04c6:	push   DWORD PTR [edx+0x68]
  4d04c9:	push   DWORD PTR [edx+0xec]
  4d04cf:	call   0x4d0418
  4d04d4:	add    esp,0x10
  4d04d7:	pop    edx
  4d04d8:	push   edx
  4d04d9:	push   0x0
  4d04db:	notrack call DWORD PTR ds:0x4d2004
  4d04e2:	pop    edx
  4d04e3:	push   edx
  4d04e4:	mov    edi,0x0
  4d04e9:	push   edi
  4d04ea:	notrack call DWORD PTR ds:0x4d2044
  4d04f1:	pop    edx
  4d04f2:	add    esp,0x4c
  4d04f5:	pop    ebp
  4d04f6:	ret    
  4d04f7:	add    BYTE PTR [ebx-0x1374aa01],cl
  4d04fd:	sub    esp,0x20
  4d0500:	or     DWORD PTR [ebp-0x14],ecx
  4d0503:	mov    eax,0x4d3088
  4d0508:	push   eax
  4d0509:	mov    ebx,0x6ac
  4d050e:	push   ebx
  4d050f:	mov    ebx,0x6ac
  4d0514:	push   ebx
  4d0515:	push   0x40001
  4d051a:	mov    esi,0x8629858a
  4d051f:	push   DWORD PTR [esi+0x7a239a86]
  4d0525:	sub    DWORD PTR [esp],0x2
  4d0529:	mov    esi,0x4d204c
  4d052e:	pop    DWORD PTR [esi]
  4d0530:	notrack call DWORD PTR ds:0x4d204c
  4d0537:	xchg   DWORD PTR [esp],eax
  4d053a:	pop    DWORD PTR [eax+0x150]
  4d0540:	mov    edx,DWORD PTR [eax+0x150]
  4d0546:	lea    ebx,[edx]
  4d0548:	sub    ecx,ecx
  4d054a:	dec    ecx
  4d054b:	and    ecx,0x4d0ae4
  4d0551:	mov    esi,0x9de45a73
  4d0556:	xor    edi,edi
  4d0558:	xor    edx,edx
  4d055a:	push   DWORD PTR [ecx+edx*1]
  4d055d:	inc    DWORD PTR [esp]
  4d0560:	xor    DWORD PTR [esp],esi
  4d0563:	pop    DWORD PTR [ebx+edx*2]
  4d0566:	push   DWORD PTR [ecx]
  4d0568:	pop    esi
  4d0569:	add    ecx,0x4
  4d056c:	add    ebx,0x4
  4d056f:	add    edi,0x4
  4d0572:	cmp    edi,0x6ac
  4d0578:	jne    0x4d0558
  4d057a:	push   eax
  4d057b:	mov    ebx,0x0
  4d0580:	push   ebx
  4d0581:	notrack call DWORD PTR ds:0x4d2030
  4d0588:	pop    eax
  4d0589:	add    esp,0x20
  4d058c:	pop    ebp
  4d058d:	ret    
  4d058e:	add    BYTE PTR [eax],al
  4d0590:	add    BYTE PTR [eax],al
  4d0592:	add    BYTE PTR [eax],al
  4d0594:	mov    edi,edi
  4d0596:	push   ebp
  4d0597:	mov    ebp,esp
  4d0599:	sub    esp,0x30
  4d059c:	lea    esi,ds:0x4d304c
  4d05a2:	sbb    DWORD PTR [ebp-0x1c],eax
  4d05a5:	push   esi
  4d05a6:	push   DWORD PTR [esi+0x100]
  4d05ac:	push   DWORD PTR [esi+0x120]
  4d05b2:	push   DWORD PTR [esi+0x138]
  4d05b8:	call   0x4d0224
  4d05bd:	add    esp,0xc
  4d05c0:	pop    esi
  4d05c1:	mov    eax,0x0
  4d05c6:	push   eax
  4d05c7:	notrack call DWORD PTR ds:0x4d2080
  4d05ce:	mov    edi,0x0
  4d05d3:	push   edi
  4d05d4:	notrack call DWORD PTR ds:0x4d2034
  4d05db:	add    esp,0x30
  4d05de:	pop    ebp
  4d05df:	ret    
  4d05e0:	mov    edi,edi
  4d05e2:	push   ebp
  4d05e3:	mov    ebp,esp
  4d05e5:	sub    esp,0x48
  4d05e8:	lea    eax,[esi+0x98]
  4d05ee:	add    DWORD PTR [eax+0xf0],0xffffffaf
  4d05f5:	push   eax
  4d05f6:	mov    eax,0x0
  4d05fb:	push   eax
  4d05fc:	notrack call DWORD PTR ds:0x4d207c
  4d0603:	pop    eax
  4d0604:	push   eax
  4d0605:	push   DWORD PTR [eax+0x184]
  4d060b:	push   ebx
  4d060c:	call   0x4d0670
  4d0611:	add    esp,0x8
  4d0614:	pop    eax
  4d0615:	push   eax
  4d0616:	push   0x0
  4d0618:	notrack call DWORD PTR ds:0x4d2044
  4d061f:	pop    eax
  4d0620:	add    esp,0x48
  4d0623:	pop    ebp
  4d0624:	ret    
  4d0625:	add    BYTE PTR [eax],al
  4d0627:	add    BYTE PTR [ebx-0x1374aa01],cl
  4d062d:	sub    esp,0x58
  4d0630:	mov    ebx,0x4d3190
  4d0635:	sub    edx,DWORD PTR [ebx-0x158]
  4d063b:	push   0x0
  4d063d:	notrack call DWORD PTR ds:0x4d2048
  4d0644:	push   ebx
  4d0645:	push   edi
  4d0646:	push   DWORD PTR [ebx+0x98]
  4d064c:	push   DWORD PTR [ebx+0x74]
  4d064f:	call   0x4d08c8
  4d0654:	add    esp,0xc
  4d0657:	pop    ebx
  4d0658:	mov    esi,0x0
  4d065d:	push   esi
  4d065e:	notrack call DWORD PTR ds:0x4d200c
  4d0665:	add    esp,0x58
  4d0668:	pop    ebp
  4d0669:	ret    
  4d066a:	add    BYTE PTR [eax],al
  4d066c:	add    BYTE PTR [eax],al
  4d066e:	add    BYTE PTR [eax],al
  4d0670:	mov    edi,edi
  4d0672:	push   ebp
  4d0673:	mov    ebp,esp
  4d0675:	sub    esp,0x34
  4d0678:	lea    edx,[eax+0x144]
  4d067e:	sbb    DWORD PTR [ebp-0x8],0xffffff93
  4d0682:	push   edx
  4d0683:	lea    edx,[edx-0x1dc]
  4d0689:	push   edx
  4d068a:	notrack call DWORD PTR ds:0x4d2020
  4d0691:	test   eax,eax
  4d0693:	jne    0x4d0683
  4d0695:	pop    edx
  4d0696:	push   edx
  4d0697:	push   DWORD PTR [edx+0x13c]
  4d069d:	push   DWORD PTR [edx+0x1dc]
  4d06a3:	call   0x4d0a60
  4d06a8:	add    esp,0x8
  4d06ab:	pop    edx
  4d06ac:	push   edx
  4d06ad:	push   0x0
  4d06af:	notrack call DWORD PTR ds:0x4d2004
  4d06b6:	pop    edx
  4d06b7:	add    esp,0x34
  4d06ba:	pop    ebp
  4d06bb:	ret    
	...
  4d06c8:	mov    edi,edi
  4d06ca:	push   ebp
  4d06cb:	mov    ebp,esp
  4d06cd:	sub    esp,0x3c
  4d06d0:	lea    ecx,ds:0x4d3188
  4d06d6:	add    DWORD PTR [ecx-0x130],0x79
  4d06dd:	push   ecx
  4d06de:	push   edi
  4d06df:	push   eax
  4d06e0:	push   esi
  4d06e1:	push   DWORD PTR [ecx+0x16c]
  4d06e7:	call   0x4d02b8
  4d06ec:	add    esp,0x10
  4d06ef:	pop    ecx
  4d06f0:	push   ecx
  4d06f1:	mov    esi,0x0
  4d06f6:	push   esi
  4d06f7:	notrack call DWORD PTR ds:0x4d2038
  4d06fe:	pop    ecx
  4d06ff:	push   ecx
  4d0700:	notrack call DWORD PTR ds:0x4d202c
  4d0707:	pop    ecx
  4d0708:	add    esp,0x3c
  4d070b:	pop    ebp
  4d070c:	ret    
	...
  4d0719:	add    BYTE PTR [eax],al
  4d071b:	add    BYTE PTR [ebx-0x1374aa01],cl
  4d0721:	sub    esp,0x38
  4d0724:	lea    ebx,[esi+0x10]
  4d0727:	cmp    ebx,0x4203
  4d072d:	jb     0x4d071f
  4d072f:	push   ebx
  4d0730:	push   DWORD PTR [ebx+0xf0]
  4d0736:	push   ecx
  4d0737:	push   eax
  4d0738:	push   esi
  4d0739:	call   0x4d0760
  4d073e:	add    esp,0x10
  4d0741:	pop    ebx
  4d0742:	mov    esi,0x0
  4d0747:	push   esi
  4d0748:	notrack call DWORD PTR ds:0x4d207c
  4d074f:	push   0x0
  4d0751:	notrack call DWORD PTR ds:0x4d2038
  4d0758:	add    esp,0x38
  4d075b:	pop    ebp
  4d075c:	ret    
  4d075d:	add    BYTE PTR [eax],al
  4d075f:	add    BYTE PTR [ebx-0x1374aa01],cl
  4d0765:	sub    esp,0x24
  4d0768:	lea    edx,ds:0x4d31a8
  4d076e:	sub    esi,DWORD PTR [ebp-0x1c]
  4d0771:	push   edx
  4d0772:	lea    ebx,[edx-0x1a8]
  4d0778:	push   ebx
  4d0779:	notrack call DWORD PTR ds:0x4d2020
  4d0780:	test   eax,eax
  4d0782:	jne    0x4d0772
  4d0784:	pop    edx
  4d0785:	push   edx
  4d0786:	push   DWORD PTR [edx+0xdc]
  4d078c:	push   eax
  4d078d:	call   0x4d0878
  4d0792:	add    esp,0x8
  4d0795:	pop    edx
  4d0796:	push   edx
  4d0797:	push   0x0
  4d0799:	notrack call DWORD PTR ds:0x4d207c
  4d07a0:	pop    edx
  4d07a1:	add    esp,0x24
  4d07a4:	pop    ebp
  4d07a5:	ret    
  4d07a6:	add    BYTE PTR [eax],al
  4d07a8:	mov    edi,edi
  4d07aa:	push   ebp
  4d07ab:	mov    ebp,esp
  4d07ad:	sub    esp,0x24
  4d07b0:	mov    eax,0x4d305c
  4d07b5:	add    DWORD PTR [ebp-0x20],esi
  4d07b8:	push   eax
  4d07b9:	push   edi
  4d07ba:	push   DWORD PTR [eax+0x1cc]
  4d07c0:	call   0x4d0460
  4d07c5:	add    esp,0x8
  4d07c8:	pop    eax
  4d07c9:	push   eax
  4d07ca:	push   0x0
  4d07cc:	notrack call DWORD PTR ds:0x4d2008
  4d07d3:	pop    eax
  4d07d4:	push   eax
  4d07d5:	mov    edx,0x0
  4d07da:	push   edx
  4d07db:	notrack call DWORD PTR ds:0x4d2048
  4d07e2:	pop    eax
  4d07e3:	add    esp,0x24
  4d07e6:	pop    ebp
  4d07e7:	ret    
	...
  4d07f0:	mov    edi,edi
  4d07f2:	push   ebp
  4d07f3:	mov    ebp,esp
  4d07f5:	sub    esp,0x50
  4d07f8:	lea    eax,ds:0x4d3048
  4d07fe:	sub    DWORD PTR [eax-0x8],edi
  4d0801:	push   eax
  4d0802:	push   edx
  4d0803:	push   ecx
  4d0804:	call   0x4d0628
  4d0809:	add    esp,0x8
  4d080c:	pop    eax
  4d080d:	push   eax
  4d080e:	push   0x0
  4d0810:	notrack call DWORD PTR ds:0x4d2030
  4d0817:	pop    eax
  4d0818:	push   eax
  4d0819:	lea    edi,[eax-0x48]
  4d081c:	push   edi
  4d081d:	notrack call DWORD PTR ds:0x4d2020
  4d0824:	test   eax,eax
  4d0826:	jne    0x4d0819
  4d0828:	pop    eax
  4d0829:	add    esp,0x50
  4d082c:	pop    ebp
  4d082d:	ret    
  4d082e:	add    BYTE PTR [eax],al
  4d0830:	mov    edi,edi
  4d0832:	push   ebp
  4d0833:	mov    ebp,esp
  4d0835:	sub    esp,0x60
  4d0838:	lea    ebx,[edi-0x100]
  4d083e:	sbb    ecx,DWORD PTR [ebp-0xc]
  4d0841:	mov    eax,0x0
  4d0846:	push   eax
  4d0847:	notrack call DWORD PTR ds:0x4d2008
  4d084e:	push   ebx
  4d084f:	push   DWORD PTR [ebx+0x11c]
  4d0855:	push   DWORD PTR [ebx+0x1a8]
  4d085b:	call   0x4d02fc
  4d0860:	add    esp,0x8
  4d0863:	pop    ebx
  4d0864:	push   0x0
  4d0866:	notrack call DWORD PTR ds:0x4d2034
  4d086d:	add    esp,0x60
  4d0870:	pop    ebp
  4d0871:	ret    
  4d0872:	add    BYTE PTR [eax],al
  4d0874:	add    BYTE PTR [eax],al
  4d0876:	add    BYTE PTR [eax],al
  4d0878:	mov    edi,edi
  4d087a:	push   ebp
  4d087b:	mov    ebp,esp
  4d087d:	sub    esp,0x5c
  4d0880:	lea    esi,ds:0x4d30c8
  4d0886:	sbb    ecx,edx
  4d0888:	mov    edx,0x0
  4d088d:	push   edx
  4d088e:	notrack call DWORD PTR ds:0x4d2028
  4d0895:	push   esi
  4d0896:	push   edx
  4d0897:	push   DWORD PTR [esi+0x1ec]
  4d089d:	push   DWORD PTR [esi+0x78]
  4d08a0:	push   DWORD PTR [esi+0x174]
  4d08a6:	call   0x4d06c8
  4d08ab:	add    esp,0x10
  4d08ae:	pop    esi
  4d08af:	mov    edi,0x0
  4d08b4:	push   edi
  4d08b5:	notrack call DWORD PTR ds:0x4d2004
  4d08bc:	add    esp,0x5c
  4d08bf:	pop    ebp
  4d08c0:	ret    
  4d08c1:	add    BYTE PTR [eax],al
  4d08c3:	add    BYTE PTR [eax],al
  4d08c5:	add    BYTE PTR [eax],al
  4d08c7:	add    BYTE PTR [ebx-0x1374aa01],cl
  4d08cd:	sub    esp,0x44
  4d08d0:	lea    edx,[ebx-0x124]
  4d08d6:	mov    DWORD PTR [edx-0x34],0xfffff94e
  4d08dd:	push   edx
  4d08de:	push   esi
  4d08df:	push   DWORD PTR [edx+0x80]
  4d08e5:	call   0x4d04f8
  4d08ea:	add    esp,0x8
  4d08ed:	pop    edx
  4d08ee:	push   edx
  4d08ef:	push   0x0
  4d08f1:	notrack call DWORD PTR ds:0x4d2038
  4d08f8:	pop    edx
  4d08f9:	push   edx
  4d08fa:	mov    edx,0x0
  4d08ff:	push   edx
  4d0900:	notrack call DWORD PTR ds:0x4d200c
  4d0907:	pop    edx
  4d0908:	add    esp,0x44
  4d090b:	pop    ebp
  4d090c:	ret    
  4d090d:	add    BYTE PTR [eax],al
  4d090f:	add    BYTE PTR [eax],al
  4d0911:	add    BYTE PTR [eax],al
  4d0913:	add    BYTE PTR [ebx-0x1374aa01],cl
  4d0919:	sub    esp,0x50
  4d091c:	lea    edi,[esi+0xd8]
  4d0922:	xor    eax,0xffff81ce
  4d0927:	push   edi
  4d0928:	push   ebx
  4d0929:	push   esi
  4d092a:	push   eax
  4d092b:	call   0x4d07a8
  4d0930:	add    esp,0xc
  4d0933:	pop    edi
  4d0934:	push   0x0
  4d0936:	notrack call DWORD PTR ds:0x4d207c
  4d093d:	push   0x0
  4d093f:	notrack call DWORD PTR ds:0x4d2004
  4d0946:	add    esp,0x50
  4d0949:	pop    ebp
  4d094a:	ret    
	...
  4d0953:	add    BYTE PTR [ebx-0x1374aa01],cl
  4d0959:	sub    esp,0x4c
  4d095c:	lea    ebx,ds:0x4d318c
  4d0962:	cmp    ebx,0xe97
  4d0968:	jb     0x4d0957
  4d096a:	notrack call DWORD PTR ds:0x4d202c
  4d0971:	push   ebx
  4d0972:	push   DWORD PTR [ebx+0x144]
  4d0978:	push   DWORD PTR [ebx+0x1a0]
  4d097e:	push   edx
  4d097f:	call   0x4d0274
  4d0984:	add    esp,0xc
  4d0987:	pop    ebx
  4d0988:	notrack call DWORD PTR ds:0x4d202c
  4d098f:	add    esp,0x4c
  4d0992:	pop    ebp
  4d0993:	ret    
  4d0994:	mov    edi,edi
  4d0996:	push   ebp
  4d0997:	mov    ebp,esp
  4d0999:	sub    esp,0x5c
  4d099c:	lea    eax,ds:0x4d314c
  4d09a2:	sub    edi,DWORD PTR [eax+0x74]
  4d09a5:	push   eax
  4d09a6:	push   ecx
  4d09a7:	push   DWORD PTR [eax+0x120]
  4d09ad:	push   DWORD PTR [eax+0x12c]
  4d09b3:	push   edi
  4d09b4:	call   0x4d0594
  4d09b9:	add    esp,0x10
  4d09bc:	pop    eax
  4d09bd:	push   eax
  4d09be:	push   0x0
  4d09c0:	notrack call DWORD PTR ds:0x4d2048
  4d09c7:	pop    eax
  4d09c8:	push   eax
  4d09c9:	notrack call DWORD PTR ds:0x4d202c
  4d09d0:	pop    eax
  4d09d1:	add    esp,0x5c
  4d09d4:	pop    ebp
  4d09d5:	ret    
  4d09d6:	add    BYTE PTR [eax],al
  4d09d8:	mov    edi,edi
  4d09da:	push   ebp
  4d09db:	mov    ebp,esp
  4d09dd:	sub    esp,0x44
  4d09e0:	mov    ecx,0x4d311c
  4d09e5:	cmp    ecx,0x360c
  4d09eb:	jb     0x4d09db
  4d09ed:	push   ecx
  4d09ee:	push   esi
  4d09ef:	push   ebx
  4d09f0:	push   edx
  4d09f1:	call   0x4d03cc
  4d09f6:	add    esp,0xc
  4d09f9:	pop    ecx
  4d09fa:	push   ecx
  4d09fb:	push   0x0
  4d09fd:	notrack call DWORD PTR ds:0x4d2048
  4d0a04:	pop    ecx
  4d0a05:	push   ecx
  4d0a06:	mov    eax,0x0
  4d0a0b:	push   eax
  4d0a0c:	notrack call DWORD PTR ds:0x4d2034
  4d0a13:	pop    ecx
  4d0a14:	add    esp,0x44
  4d0a17:	pop    ebp
  4d0a18:	ret    
  4d0a19:	add    BYTE PTR [eax],al
  4d0a1b:	add    BYTE PTR [ebx-0x1374aa01],cl
  4d0a21:	sub    esp,0x40
  4d0a24:	mov    esi,0x4d3064
  4d0a29:	cmp    esi,0x56af
  4d0a2f:	jb     0x4d0a1f
  4d0a31:	notrack call DWORD PTR ds:0x4d202c
  4d0a38:	push   esi
  4d0a39:	push   ecx
  4d0a3a:	push   edi
  4d0a3b:	push   DWORD PTR [esi+0x114]
  4d0a41:	call   0x4d07f0
  4d0a46:	add    esp,0xc
  4d0a49:	pop    esi
  4d0a4a:	mov    ebx,0x0
  4d0a4f:	push   ebx
  4d0a50:	notrack call DWORD PTR ds:0x4d2048
  4d0a57:	add    esp,0x40
  4d0a5a:	pop    ebp
  4d0a5b:	ret    
  4d0a5c:	add    BYTE PTR [eax],al
  4d0a5e:	add    BYTE PTR [eax],al
  4d0a60:	mov    edi,edi
  4d0a62:	push   ebp
  4d0a63:	mov    ebp,esp
  4d0a65:	sub    esp,0x40
  4d0a68:	lea    eax,[edx-0x120]
  4d0a6e:	and    ecx,DWORD PTR [eax+0x10c]
  4d0a74:	push   eax
  4d0a75:	mov    ebx,0x0
  4d0a7a:	push   ebx
  4d0a7b:	notrack call DWORD PTR ds:0x4d200c
  4d0a82:	pop    eax
  4d0a83:	push   eax
  4d0a84:	push   esi
  4d0a85:	push   DWORD PTR [eax+0x1c]
  4d0a88:	push   ecx
  4d0a89:	call   0x4d0954
  4d0a8e:	add    esp,0xc
  4d0a91:	pop    eax
  4d0a92:	push   eax
  4d0a93:	mov    ecx,0x0
  4d0a98:	push   ecx
  4d0a99:	notrack call DWORD PTR ds:0x4d2048
  4d0aa0:	pop    eax
  4d0aa1:	add    esp,0x40
  4d0aa4:	pop    ebp
  4d0aa5:	ret    
  4d0aa6:	add    BYTE PTR [eax],al
  4d0aa8:	out    dx,al
  4d0aa9:	or     cl,bh
  4d0aab:	or     bh,ah
  4d0aad:	pop    DWORD PTR [ecx+ebx*1]
  4d0ab0:	add    al,0xf5
  4d0ab2:	cli    
  4d0ab3:	repz jns 0x4d0b2a
  4d0ab6:	call   0x4bcb5e8a
  4d0abb:	das    
  4d0abc:	cdq    
  4d0abd:	iret   
  4d0abe:	add    al,0xac
  4d0ac0:	psrlw  mm0,QWORD PTR [ebx-0x2]
  4d0ac4:	popa   
  4d0ac5:	cmps   DWORD PTR ds:[esi],DWORD PTR es:[edi]
  4d0ac6:	jge    0x4d0a5e
  4d0ac8:	cmp    al,0xac
  4d0aca:	es and al,0x13
  4d0acd:	cwde   
  4d0ace:	dec    ebp
  4d0acf:	cmp    al,0x26
  4d0ad1:	and    ebx,esp
  4d0ad3:	popa   
  4d0ad4:	cwde   
  4d0ad5:	addr16 xchg ebx,eax
  4d0ad7:	jecxz  0x4d0ac8
  4d0ad9:	jecxz  0x4d0af9
  4d0adb:	xchg   ebx,eax
  4d0adc:	and    BYTE PTR [ebx],ch
  4d0ade:	es loope 0x4d0b19
  4d0ae1:	dec    eax
  4d0ae2:	aaa    
  4d0ae3:	jne    0x4d0b07
  4d0ae5:	add    dh,BYTE PTR [ebp+ecx*1+0x71]
  4d0ae9:	pop    edx
  4d0aea:	in     al,0x9d
  4d0aec:	pop    ecx
  4d0aed:	xchg   ebx,eax
  4d0aee:	addr16 pop esp
  4d0af0:	pop    ecx
  4d0af1:	(bad)  
  4d0af2:	cmp    DWORD PTR [esi+0x4afd45a3],edi
  4d0af8:	dec    edx
  4d0af9:	dec    eax
  4d0afa:	std    
  4d0afb:	dec    edx
  4d0afc:	dec    ecx
  4d0afd:	enter  0x5bc7,0x9f
  4d0b01:	lods   eax,DWORD PTR ds:[esi]
  4d0b02:	stos   DWORD PTR es:[edi],eax
  4d0b03:	push   0x4cf83ac
  4d0b08:	mov    edi,0x3d549783
  4d0b0d:	sbb    DWORD PTR [esi+edi*2+0x5b],0x6
  4d0b12:	mov    ds:0xa0decfa8,eax
  4d0b17:	jmp    0x4d0b0b
  4d0b19:	pop    edi
  4d0b1a:	fdivr  DWORD PTR [ebx-0x4423200f]
  4d0b20:	xchg   ah,dh
  4d0b22:	xor    al,0x49
  4d0b24:	xor    ah,0x34
  4d0b27:	adc    al,0x8
  4d0b29:	add    DWORD PTR [ebp-0x72fef8fc],ecx
  4d0b2f:	test   eax,0xa98ff3ee
  4d0b34:	in     eax,dx
  4d0b35:	jp     0x4d0b00
  4d0b37:	push   ebp
  4d0b38:	push   cs
  4d0b39:	(bad)  
  4d0b3a:	mov    ds:0xcfce6536,eax
  4d0b3f:	pop    edx
  4d0b40:	or     DWORD PTR [esi-0x2998c079],esp
  4d0b46:	shr    DWORD PTR [edi+edx*4-0x7d],cl
  4d0b4a:	frstpm(287 only) 
  4d0b4c:	nop
  4d0b4d:	jmp    0x9c22992d
  4d0b52:	mov    esi,0xdbd3bce8
  4d0b57:	mov    ebx,ecx
  4d0b59:	xchg   DWORD PTR [eax+0x18f9d76],ecx
  4d0b5f:	xor    BYTE PTR [eax-0xed73af4],bl
  4d0b65:	dec    esp
  4d0b66:	lods   eax,DWORD PTR ds:[esi]
  4d0b67:	sub    al,ah
  4d0b69:	dec    esp
  4d0b6a:	lods   eax,DWORD PTR ds:[esi]
  4d0b6b:	inc    eax
  4d0b6c:	inc    ebx
  4d0b6d:	dec    edx
  4d0b6e:	lods   eax,DWORD PTR ds:[esi]
  4d0b6f:	inc    eax
  4d0b70:	sub    BYTE PTR [edx+0x52],cl
  4d0b73:	adc    eax,0x10aac137
  4d0b78:	cmps   DWORD PTR ds:[esi],DWORD PTR es:[edi]
  4d0b79:	shr    DWORD PTR [edx+0x1f4cf610],0xc0
  4d0b80:	push   cs
  4d0b81:	mov    bl,0xe0
  4d0b83:	jns    0x4d0b2e
  4d0b85:	mov    ch,0xe0
  4d0b87:	jns    0x4d0be2
  4d0b89:	adc    DWORD PTR [ebx],esp
  4d0b8b:	xchg   ecx,eax
  4d0b8c:	iret   
  4d0b8d:	adc    al,0x23
  4d0b8f:	xchg   ecx,eax
  4d0b90:	xchg   ecx,eax
  4d0b91:	dec    edx
  4d0b92:	movs   BYTE PTR es:[edi],BYTE PTR ds:[esi]
  4d0b93:	movs   DWORD PTR es:[edi],DWORD PTR ds:[esi]
  4d0b94:	mov    ah,0x1c
  4d0b96:	dec    esp
  4d0b97:	pop    esp
  4d0b98:	scas   eax,DWORD PTR es:[edi]
  4d0b99:	sbb    al,0x4c
  4d0b9b:	mov    ah,0x97
  4d0b9d:	sbb    DWORD PTR [esp+esi*4+0x1b],ecx
  4d0ba1:	loope  0x4d0bc9
  4d0ba3:	mov    ah,0x70
  4d0ba5:	loope  0x4d0b80
  4d0ba7:	rcl    DWORD PTR [ebx],0xb6
  4d0baa:	es xchg esp,eax
  4d0bac:	cmp    bh,BYTE PTR ds:0x3d4ffc6b
  4d0bb2:	aas    
  4d0bb3:	movs   BYTE PTR es:[edi],BYTE PTR ds:[esi]
  4d0bb4:	scas   eax,DWORD PTR es:[edi]
  4d0bb5:	or     DWORD PTR [ebx],ebx
  4d0bb7:	hlt    
  4d0bb8:	std    
  4d0bb9:	pop    edi
  4d0bba:	dec    esp
  4d0bbb:	or     esp,DWORD PTR [edi+0x575c1473]
  4d0bc1:	es or  al,0xb4
  4d0bc4:	jge    0x4d0beb
  4d0bc6:	or     al,0xb4
  4d0bc8:	cmc    
  4d0bc9:	arpl   WORD PTR [eax],si
  4d0bcb:	cmp    eax,esi
  4d0bcd:	gs push esi
  4d0bcf:	into   
  4d0bd0:	scas   eax,DWORD PTR es:[edi]
  4d0bd1:	jae    0x4d0c29
  4d0bd3:	out    dx,al
  4d0bd4:	fldenv [ebp+0x6f]
  4d0bd7:	mov    dh,0xec
  4d0bd9:	adc    DWORD PTR [esi+0x3d],edi
  4d0bdc:	mov    bl,0x25
  4d0bde:	adc    al,0x39
  4d0be0:	fisub  DWORD PTR ds:0xdad93924
  4d0be6:	push   esp
  4d0be7:	imul   ecx,DWORD PTR [ecx+0x1790125],0x54296d58
  4d0bf1:	xor    ch,BYTE PTR [ecx+0x7e]
  4d0bf4:	push   es
  4d0bf5:	int    0x3c
  4d0bf7:	jb     0x4d0c4a
  4d0bf9:	cmps   DWORD PTR ds:[esi],DWORD PTR es:[edi]
  4d0bfa:	ds and eax,0xeab5f101
  4d0c00:	mov    DWORD PTR [edx],ecx
  4d0c02:	inc    esi
  4d0c03:	dec    esi
  4d0c04:	(bad)  
  4d0c05:	cmc    
  4d0c06:	adc    eax,DWORD PTR [edx-0x73]
  4d0c09:	jle    0x4d0be8
  4d0c0b:	inc    ecx
  4d0c0c:	ret    
  4d0c0d:	inc    edx
  4d0c0e:	push   eax
  4d0c0f:	cmp    dl,bl
  4d0c11:	leave  
  4d0c12:	pop    es
  4d0c13:	sbb    ah,dl
  4d0c15:	jle    0x4d0c5d
  4d0c17:	or     al,0xd6
  4d0c19:	xchg   BYTE PTR [ecx-0x45],cl
  4d0c1c:	sahf   
  4d0c1d:	sub    BYTE PTR [ecx],0x30
  4d0c20:	fcom   DWORD PTR [esp+ebp*4+0x27d5abf0]
  4d0c27:	mov    bh,0xa2
  4d0c29:	push   eax
  4d0c2a:	out    0xc3,eax
  4d0c2c:	xchg   edi,eax
  4d0c2d:	mov    eax,0xb896c776
  4d0c32:	std    
  4d0c33:	nop    edi
  4d0c36:	(bad)  
  4d0c38:	push   0x6ae7d9fd
  4d0c3d:	mov    cl,ch
  4d0c3f:	sbb    BYTE PTR [edx+ebx*4],bl
  4d0c42:	inc    esi
  4d0c43:	setns  BYTE PTR [di+0x5e3c]
  4d0c49:	adc    ch,BYTE PTR [ecx+0x6e]
  4d0c4c:	or     eax,0x5e3f3e43
  4d0c51:	sub    DWORD PTR [edx],edi
  4d0c53:	outs   dx,BYTE PTR ds:[esi]
  4d0c54:	or     dh,dl
  4d0c56:	outs   dx,DWORD PTR ds:[esi]
  4d0c57:	bound  edx,QWORD PTR [eax-0x1b]
  4d0c5a:	scas   eax,DWORD PTR es:[edi]
  4d0c5b:	xor    eax,0xbef04fa2
  4d0c60:	push   0x3c4154bc
  4d0c65:	mov    al,0xc
  4d0c67:	and    BYTE PTR [esi+0xec22477],bh
  4d0c6d:	lahf   
  4d0c6e:	das    
  4d0c6f:	ret    
  4d0c70:	or     eax,0xc42c79f
  4d0c75:	lahf   
  4d0c76:	(bad)  
  4d0c77:	sbb    ah,BYTE PTR [ebx-0x61]
  4d0c7a:	xchg   DWORD PTR [edx],ebx
  4d0c7c:	bound  esp,QWORD PTR [eax-0xe]
  4d0c7f:	jb     0x4d0cb4
  4d0c81:	jmp    0x4d0c8c
  4d0c83:	stc    
  4d0c84:	ret    0x303
  4d0c87:	std    
  4d0c88:	rol    DWORD PTR [ebx],0x67
  4d0c8b:	add    dh,bl
  4d0c8d:	xor    esp,DWORD PTR [edi+0x2]
  4d0c90:	repnz imul ebp,esp,0x42
  4d0c94:	std    
  4d0c95:	loopne 0x4d0c43
  4d0c97:	dec    esi
  4d0c98:	ret    
  4d0c99:	mov    eax,0x33c63ab4
  4d0c9e:	mov    ah,0xd1
  4d0ca0:	xor    BYTE PTR [eax-0xecd0a48],bh
  4d0ca6:	test   BYTE PTR [esi+0x42],bh
  4d0ca9:	fld    DWORD PTR [edi-0x605e3577]
  4d0caf:	add    BYTE PTR [ecx-0x8080643],bh
  4d0cb5:	stos   DWORD PTR es:[edi],eax
  4d0cb6:	stc    
  4d0cb7:	xlat   BYTE PTR ds:[ebx]
  4d0cb8:	and    DWORD PTR [edi-0x58678963],0xe712769d
  4d0cc2:	lods   eax,DWORD PTR ds:[esi]
  4d0cc3:	jmp    FWORD PTR [ecx-0x11]
  4d0cc6:	push   edx
  4d0cc7:	stos   BYTE PTR es:[edi],al
  4d0cc8:	jl     0x4d0cd1
  4d0cca:	and    al,0xa8
  4d0ccc:	jnp    0x4d0cd5
  4d0cce:	jns    0x4d0d31
  4d0cd0:	and    cl,BYTE PTR [esi-0x10c2baf3]
  4d0cd6:	pop    ebp
  4d0cd7:	lods   eax,DWORD PTR ds:[esi]
  4d0cd8:	(bad)  
  4d0cd9:	jmp    0xf525:0x6ba6ad5d
  4d0ce0:	movs   DWORD PTR es:[edi],DWORD PTR ds:[esi]
  4d0ce1:	imul   esp,DWORD PTR ds:0xae66cff5,0xaaa1eaf1
  4d0ceb:	aad    0xe9
  4d0ced:	mov    eax,ds:0xd515d5aa
  4d0cf2:	mov    ss,ecx
  4d0cf4:	inc    esp
  4d0cf5:	out    0x4e,al
  4d0cf7:	adc    ah,BYTE PTR [ebx]
  4d0cf9:	ins    DWORD PTR es:[edi],dx
  4d0cfa:	mov    ebp,0x36515411
  4d0cff:	cmps   DWORD PTR ds:[esi],DWORD PTR es:[edi]
  4d0d00:	rcl    DWORD PTR [ecx+0x36],cl
  4d0d03:	cmps   DWORD PTR ds:[esi],DWORD PTR es:[edi]
  4d0d04:	push   ebp
  4d0d05:	cmps   DWORD PTR ds:[esi],DWORD PTR es:[edi]
  4d0d06:	inc    edx
  4d0d07:	aam    0x55
  4d0d09:	push   esp
  4d0d0a:	leave  
  4d0d0b:	stos   BYTE PTR es:[edi],al
  4d0d0c:	pop    eax
  4d0d0d:	shl    DWORD PTR [esi],1
  4d0d0f:	fidiv  WORD PTR [ecx]
  4d0d11:	ror    ch,cl
  4d0d13:	mov    ebp,ecx
  4d0d15:	xchg   ecx,ecx
  4d0d17:	or     al,0xc
  4d0d19:	repnz int 0x5b
  4d0d1c:	repnz cmps DWORD PTR ds:[esi],DWORD PTR es:[edi]
  4d0d1e:	int    0xb
  4d0d20:	mov    ds:0x9f1bbb2c,eax
  4d0d25:	fbstp  TBYTE PTR [eax]
  4d0d27:	in     eax,0x31
  4d0d29:	pop    edx
  4d0d2a:	lock nop
  4d0d2c:	leave  
  4d0d2d:	jno    0x4d0d36
  4d0d2f:	sbb    eax,DWORD PTR [esi]
  4d0d31:	das    
  4d0d32:	push   esi
  4d0d33:	dec    ebx
  4d0d34:	push   ecx
  4d0d35:	inc    ebp
  4d0d36:	push   edx
  4d0d37:	sbb    al,BYTE PTR ds:0x521607ba
  4d0d3d:	xor    DWORD PTR [ecx],eax
  4d0d3f:	xchg   ebx,eax
  4d0d40:	xchg   ecx,eax
  4d0d41:	mov    eax,ds:0xb1d61891
  4d0d46:	sbb    al,0x2c
  4d0d48:	aam    0xe6
  4d0d4a:	mov    cl,0xa9
  4d0d4c:	adc    edx,DWORD PTR [edx-0x6dedff56]
  4d0d52:	stos   BYTE PTR es:[edi],al
  4d0d53:	and    BYTE PTR [esi-0x6a],0x27
  4d0d57:	les    esp,FWORD PTR [esp+edx*4+0x2]
  4d0d5b:	cmp    ebx,DWORD PTR [edx+0x646b7d6b]
  4d0d61:	pop    ds
  4d0d62:	pop    ecx
  4d0d63:	jg     0x4d0cff
  4d0d65:	dec    edx
  4d0d66:	push   ecx
  4d0d67:	aam    0x70
  4d0d69:	stos   BYTE PTR es:[edi],al
  4d0d6a:	push   cs
  4d0d6b:	mov    ah,BYTE PTR [edi]
  4d0d6d:	repz pop edx
  4d0d6f:	fidiv  DWORD PTR [ebp-0x5c]
  4d0d72:	movs   DWORD PTR es:[edi],DWORD PTR ds:[esi]
  4d0d73:	(bad)  
  4d0d74:	js     0x4d0d72
  4d0d76:	es dec ecx
  4d0d78:	imul   edx,DWORD PTR [edi],0xffffffa9
  4d0d7b:	sub    BYTE PTR [edi+0x2bfb2277],ah
  4d0d81:	test   DWORD PTR [ecx],esp
  4d0d83:	lea    edx,[esi]
  4d0d85:	scas   al,BYTE PTR es:[edi]
  4d0d86:	ja     0x4d0d41
  4d0d88:	xchg   edx,eax
  4d0d89:	jl     0x4d0e03
  4d0d8b:	cmp    eax,0x3d787c06
  4d0d90:	mov    edx,?
  4d0d92:	fdivr  QWORD PTR ds:0x8b57f28b
  4d0d98:	sub    dh,dl
  4d0d9a:	push   edi
  4d0d9b:	mov    ebp,DWORD PTR [esi+0x2e0f5804]
  4d0da1:	add    al,0x58
  4d0da3:	cvttps2pi mm6,xmm7
  4d0da6:	cmc    
  4d0da7:	test   bl,dl
  4d0da9:	hlt    
  4d0daa:	push   cs
  4d0dab:	aam    0x57
  4d0dad:	xor    BYTE PTR [esi-0x7b],bl
  4d0db0:	add    al,0x60
  4d0db2:	xor    al,0x81
  4d0db4:	imul   esp,DWORD PTR [eax+0x24],0xffffff81
  4d0db8:	push   0x37
  4d0dba:	cmps   DWORD PTR ds:[esi],DWORD PTR es:[edi]
  4d0dbb:	imul   ebp,DWORD PTR [ebp+0x67],0x67046dcd
  4d0dc2:	(bad)  [ebp+0x3]
  4d0dc5:	xor    BYTE PTR [ecx+ebp*2+0x26],bl
  4d0dc9:	xor    BYTE PTR [ecx+ebp*2+0x25],cl
  4d0dcd:	iret   
  4d0dce:	sbb    DWORD PTR [ebp-0x27],esp
  4d0dd1:	call   0xf73e:0x377f3f15
  4d0dd8:	sub    eax,0xc326f6bc
  4d0ddd:	aas    
  4d0dde:	pop    ds
  4d0ddf:	and    ch,bh
  4d0de1:	(bad)  
  4d0de2:	jns    0x4d0d73
  4d0de4:	mov    BYTE PTR [esi+0x79],dl
  4d0de7:	mov    edi,0x405c5efb
  4d0dec:	repz pop esi
  4d0dee:	pop    esp
  4d0def:	inc    ecx
  4d0df0:	out    0x59,al
  4d0df2:	mov    esi,0xfad4beaf
  4d0df7:	mov    edi,DWORD PTR [ecx+0x45dba885]
  4d0dfd:	mov    ch,0xc0
  4d0dff:	fist   DWORD PTR [ebp+esi*4-0x40]
  4d0e03:	mov    esi,ss
  4d0e05:	pop    ebp
  4d0e06:	(bad)  
  4d0e07:	fsubr  QWORD PTR [eax]
  4d0e09:	ins    DWORD PTR es:[edi],dx
  4d0e0a:	lods   al,BYTE PTR ds:[esi]
  4d0e0b:	fdiv   QWORD PTR [edi]
  4d0e0d:	ins    DWORD PTR es:[edi],dx
  4d0e0e:	lods   al,BYTE PTR ds:[esi]
  4d0e0f:	mov    esi,DWORD PTR [ebp-0x5b747797]
  4d0e15:	imul   ecx,DWORD PTR [eax+0x7765f074],0x2e3ffb21
  4d0e1f:	jns    0x4d0dc3
  4d0e21:	mov    edx,0xdb220ce7
  4d0e26:	and    al,0x6c
  4d0e28:	enter  0x89dc,0x8e
  4d0e2c:	xor    al,0x51
  4d0e2e:	mov    ebp,0x55daf68d
  4d0e33:	push   es
  4d0e34:	add    al,0x63
  4d0e36:	inc    ebp
  4d0e37:	push   es
  4d0e38:	add    esp,DWORD PTR [ebx-0x53]
  4d0e3b:	in     eax,dx
  4d0e3c:	sti    
  4d0e3d:	pushf  
  4d0e3e:	push   edx
  4d0e3f:	push   esp
  4d0e40:	jecxz  0x4d0dde
  4d0e42:	push   edx
  4d0e43:	push   esp
  4d0e44:	or     bh,BYTE PTR [ebp-0x53]
  4d0e47:	stos   DWORD PTR es:[edi],eax
  4d0e48:	hlt    
  4d0e49:	sub    edx,DWORD PTR [esp+ebp*4]
  4d0e4c:	repz sub edx,DWORD PTR [esp+eax*2]
  4d0e50:	and    al,0xd4
  4d0e52:	jmp    0x4d0e0f
  4d0e54:	scas   al,BYTE PTR es:[edi]
  4d0e55:	add    al,0x60
  4d0e57:	(bad)
  4d0e5b:	(bad)
  4d0e5f:	dec    eax
  4d0e60:	jbe    0x4d0ea4
  4d0e62:	jle    0x4d0e27
  4d0e64:	xchg   ecx,ecx
  4d0e66:	mov    ah,0x2b
  4d0e68:	cmp    BYTE PTR [esi],dh
  4d0e6a:	dec    ebx
  4d0e6b:	aam    0xa
  4d0e6d:	neg    BYTE PTR [ebx]
  4d0e6f:	adc    eax,0x11daf1c1
  4d0e74:	in     al,0xfc
  4d0e76:	fist   DWORD PTR ds:0xd55f50bf
  4d0e7c:	leave  
  4d0e7d:	mov    eax,ds:0x9a3d5e07
  4d0e82:	ret    0x3d2a
  4d0e85:	shl    BYTE PTR [edi-0x6c1b4a09],1
  4d0e8b:	dec    esi
  4d0e8c:	mov    esi,0x554e93e4
  4d0e91:	jno    0x4d0eff
  4d0e93:	mov    cl,0xa9
  4d0e95:	jle    0x4d0e72
  4d0e97:	mov    ebp,0x48a20fe
  4d0e9c:	cmc    
  4d0e9d:	and    BYTE PTR [edx+0x75a51c04],cl
  4d0ea3:	sti    
  4d0ea4:	loop   0x4d0ea2
  4d0ea6:	popf   
  4d0ea7:	test   BYTE PTR [ebx+eax*1],bl
  4d0eaa:	bound  ecx,QWORD PTR ds:0x6c7e2767
  4d0eb0:	mov    ds:0xbd84bf76,eax
  4d0eb5:	iret   
  4d0eb6:	lahf   
  4d0eb7:	test   BYTE PTR [edi+ecx*8+0x768bf0d7],bh
  4d0ebe:	aad    0xf0
  4d0ec0:	mov    dh,BYTE PTR [esi-0x63]
  4d0ec3:	test   BYTE PTR [ecx-0x5f7b4231],ah
  4d0ec9:	iret   
  4d0eca:	cmc    
  4d0ecb:	lock jg 0x4d0f44
  4d0ece:	icebp  
  4d0ecf:	lock jle 0x4d0f48
  4d0ed2:	mov    ecx,0xf9cf6584
  4d0ed7:	test   BYTE PTR [edi+ecx*8-0x4f],ah
  4d0edb:	lock jae 0x4d0f54
  4d0ede:	mov    ch,0xf0
  4d0ee0:	jb     0x4d0f58
  4d0ee2:	std    
  4d0ee3:	test   BYTE PTR [ecx-0x31],bh
  4d0ee6:	mov    ebp,0xf5cf7884
  4d0eeb:	lock ja 0x4d0f32
  4d0eee:	xor    al,0xa9
  4d0ef0:	mov    bl,0x24
  4d0ef2:	mov    edi,0x4da5c2fc
  4d0ef7:	ins    DWORD PTR es:[edi],dx
  4d0ef8:	daa    
  4d0ef9:	loopne 0x4d0f30
  4d0efb:	out    0x69,al
  4d0efd:	mov    BYTE PTR [esi-0x190a16e8],bh
  4d0f03:	sbb    BYTE PTR [esi+esi*8+0x7dc36de7],bl
  4d0f0a:	mov    ds:0xd6bd450d,al
  4d0f0f:	sbb    bl,cl
  4d0f11:	sti    
  4d0f12:	jmp    0x6f4a:0xeaff704a
  4d0f19:	pop    ss
  4d0f1a:	dec    edi
  4d0f1b:	dec    ebx
  4d0f1c:	outs   dx,BYTE PTR ds:[esi]
  4d0f1d:	pop    ss
  4d0f1e:	adc    eax,0xed149d48
  4d0f23:	arpl   WORD PTR [edi+ebp*1-0x68],dx
  4d0f27:	cmp    esp,DWORD PTR [eax]
  4d0f29:	and    bl,BYTE PTR [ebx-0x19de84b2]
  4d0f2f:	adc    cl,BYTE PTR [edi+0x6c]
  4d0f32:	mov    edx,0xb1188597
  4d0f37:	cmp    dl,ah
  4d0f39:	sub    esi,DWORD PTR [ebx+0x60]
  4d0f3c:	jle    0x4d0ee6
  4d0f3e:	call   0xfaa0:0xfb4b9b63
  4d0f45:	enter  0xec86,0xf9
  4d0f49:	mov    esp,0xbcf50494
  4d0f4e:	xchg   esp,eax
  4d0f4f:	add    al,0x7d
  4d0f51:	rol    eax,0x81
  4d0f54:	xor    DWORD PTR [ebp+0x16682ac6],0x77672ac6
  4d0f5e:	add    eax,0x3922974a
  4d0f63:	ror    DWORD PTR [esi-0x57],0x4c
  4d0f67:	(bad)  
  4d0f68:	(bad)  
  4d0f69:	in     al,dx
  4d0f6a:	sbb    al,0xdd
  4d0f6c:	xchg   ebx,eax
  4d0f6d:	test   BYTE PTR [ebx*8+0x224f849e],bl
  4d0f74:	retf   0x16c4
  4d0f77:	jb     0x4d0fb9
  4d0f79:	cmp    al,0xe5
  4d0f7b:	(bad)  
  4d0f7c:	cmps   DWORD PTR ds:[esi],DWORD PTR es:[edi]
  4d0f7d:	add    al,0xe5
  4d0f7f:	(bad)  
  4d0f80:	cmps   BYTE PTR ds:[esi],BYTE PTR es:[edi]
  4d0f81:	dec    esp
  4d0f82:	ins    BYTE PTR es:[edi],dx
  4d0f83:	xchg   edx,eax
  4d0f84:	sub    DWORD PTR [edi+eiz*8+0x6a],0x6e5a600b
  4d0f8c:	or     ah,BYTE PTR [eax+0x5a]
  4d0f8f:	or     ch,BYTE PTR [edx-0x56f5a588]
  4d0f95:	repz sub ah,BYTE PTR [esi]
  4d0f98:	neg    DWORD PTR [ebx-0x6405d9d6]
  4d0f9e:	jns    0x4d0f79
  4d0fa0:	scas   al,BYTE PTR es:[edi]
  4d0fa1:	fcomi  st,st(4)
  4d0fa3:	aad    0x15
  4d0fa5:	push   esp
  4d0fa6:	cmc    
  4d0fa7:	test   DWORD PTR [ebp+0x6d7d7e9b],ebx
  4d0fad:	ds sbb bl,ah
  4d0fb0:	je     0x4d0ff0
  4d0fb2:	sbb    bl,ah
  4d0fb4:	cli    
  4d0fb5:	jle    0x4d0fed
  4d0fb7:	mov    ebp,0x51b71e38
  4d0fbc:	pop    ss
  4d0fbd:	sbb    al,0xb7
  4d0fbf:	push   ecx
  4d0fc0:	jle    0x4d0ffa
  4d0fc2:	mov    ch,0x51
  4d0fc4:	jge    0x4d0fd1
  4d0fc6:	inc    ebx
  4d0fc7:	cmp    edi,DWORD PTR [ecx+eiz*2+0x4b]
  4d0fcb:	les    ebp,FWORD PTR [eax]
  4d0fcd:	jge    0x4d0f8f
  4d0fcf:	sbb    al,0x7b
  4d0fd1:	cs aas 
  4d0fd3:	dec    ecx
  4d0fd4:	dec    esi
  4d0fd5:	movs   DWORD PTR es:[edi],DWORD PTR ds:[esi]
  4d0fd6:	jnp    0x4d1045
  4d0fd8:	push   ecx
  4d0fd9:	cmps   BYTE PTR ds:[esi],BYTE PTR es:[edi]
  4d0fda:	cmp    edx,DWORD PTR [ecx-0x27]
  4d0fdd:	es sti 
  4d0fdf:	push   ecx
  4d0fe0:	fsub   DWORD PTR [esi]
  4d0fe2:	jle    0x4d0f75
  4d0fe4:	stos   DWORD PTR es:[edi],eax
  4d0fe5:	daa    
  4d0fe6:	cmp    ch,al
  4d0fe8:	neg    eax
  4d0fea:	ins    DWORD PTR es:[edi],dx
  4d0feb:	std    
  4d0fec:	jno    0x4d1006
  4d0fee:	sbb    BYTE PTR [eax],bl
  4d0ff0:	and    edi,esp
  4d0ff2:	dec    ebp
  4d0ff3:	add    BYTE PTR [edi-0x61fd96dd],bl
  4d0ff9:	and    esp,eax
  4d0ffb:	jbe    0x4d0fb6
  4d0ffd:	aas    
  4d0ffe:	xor    DWORD PTR [ebp-0x2612a828],0xab8557d7
  4d1008:	mov    ds:0xcec3e179,al
  4d100d:	or     dl,BYTE PTR [edi-0x3d0a6660]
  4d1013:	movs   BYTE PTR es:[edi],BYTE PTR ds:[esi]
  4d1014:	sbb    esi,DWORD PTR ds:0xca4eacb7
  4d101a:	loop   0x4d0fc8
  4d101c:	retf   0x960a
  4d101f:	loope  0x4d0fc0
  4d1021:	or     bh,dh
  4d1023:	mov    al,dh
  4d1025:	jle    0x4d0fbf
  4d1027:	loopne 0x4d0fbe
  4d1029:	or     eax,ebp
  4d102b:	xchg   edx,eax
  4d102c:	rcr    BYTE PTR [ecx+0x17],0xc7
  4d1030:	(bad)  
  4d1031:	fcmovbe st,st(3)
  4d1033:	retf   
  4d1034:	dec    ebx
  4d1035:	sub    al,BYTE PTR [ebx-0x1695df61]
  4d103b:	cwde   
  4d103c:	jne    0x4d0fd3
  4d103e:	mov    esp,0xe8c52c94
  4d1043:	les    eax,FWORD PTR [ebp-0x3e]
  4d1046:	mov    esi,0xbec2622c
  4d104b:	sub    al,0xe8
  4d104d:	(bad)  
  4d104e:	call   0x2dad:0x9aec2ead
  4d1055:	xchg   BYTE PTR [ebp-0x25dd220c],bl
  4d105b:	jg     0x4d1077
  4d105d:	mov    DWORD PTR [edi+0x1],edx
  4d1060:	loop   0x4d109b
  4d1062:	aas    
  4d1063:	stos   DWORD PTR es:[edi],eax
  4d1064:	mov    ecx,0x12688f92
  4d1069:	ins    DWORD PTR es:[edi],dx
  4d106a:	fisub  DWORD PTR [ecx+ecx*2-0x12]
  4d106e:	push   ds
  4d106f:	push   0x97462d27
  4d1074:	idiv   BYTE PTR [eax-0x52]
  4d1077:	or     ebp,esi
  4d1079:	js     0x4d1029
  4d107b:	push   esp
  4d107c:	ja     0x4d10bb
  4d107e:	(bad)  
  4d1080:	mov    dh,0x39
  4d1082:	push   edi
  4d1083:	xchg   ebx,eax
  4d1084:	xchg   ecx,eax
  4d1085:	sub    DWORD PTR [edx],ecx
  4d1087:	xchg   ebx,eax
  4d1088:	nop
  4d1089:	sub    DWORD PTR [edx],ecx
  4d108b:	xchg   ebx,eax
  4d108c:	vprotq xmm9,[esi-0x18af9dd7],xmm3
  4d1095:	sbb    dl,BYTE PTR [esi+esi*1+0x50ce575c]
  4d109c:	lock xor ebp,edi
  4d109f:	add    BYTE PTR [ebx-0x7f9183c7],0x29
  4d10a6:	jl     0x4d1116
  4d10a8:	push   0xffffffc4
  4d10aa:	icebp  
  4d10ab:	xor    BYTE PTR [ebx+0x61450e40],dl
  4d10b1:	retf   
  4d10b2:	js     0x4d1133
  4d10b4:	push   es
  4d10b5:	jno    0x4d10df
  4d10b7:	cmp    cl,BYTE PTR [edx+0x265c3645]
  4d10bd:	and    eax,DWORD PTR ds:0xc6c3528c
  4d10c3:	frstor [eax+0xa]
  4d10c6:	xchg   esi,esi
  4d10c8:	mov    eax,ds:0xa2828372
  4d10cd:	cdq    
  4d10ce:	je     0x4d1081
  4d10d0:	popa   
  4d10d1:	call   0xd875:0xc39c53b6
  4d10d8:	loopne 0x4d1085
  4d10da:	pop    ds
  4d10db:	fadd   QWORD PTR [edi-0x7923f055]
  4d10e1:	cld    
  4d10e2:	fdivr  QWORD PTR gs:[eax-0x57]
  4d10e6:	jne    0x4d113f
  4d10e8:	xchg   DWORD PTR [eax],ebp
  4d10ea:	cdq    
  4d10eb:	push   ebx
  4d10ec:	test   DWORD PTR [eax],ebp
  4d10ee:	cdq    
  4d10ef:	fdivr  DWORD PTR [eax+0x40]
  4d10f2:	popf   
  4d10f3:	fnstenv [edi+0x40]
  4d10f6:	retf   0x878a
  4d10f9:	adc    eax,0x7d86e0ea
  4d10fe:	push   0xffffffe0
  4d1100:	test   DWORD PTR [ebp+0x0],edi
  4d1103:	jecxz  0x4d10f3
  4d1105:	jge    0x4d1171
  4d1107:	loop   0x4d108e
  4d1109:	jge    0x4d1175
  4d110b:	loop   0x4d1111
  4d110d:	sub    dl,BYTE PTR [ebp+0x51ab1fb7]
  4d1113:	mov    bl,0x1d
  4d1115:	stos   DWORD PTR es:[edi],eax
  4d1116:	push   ecx
  4d1117:	jo     0x4d10a5
  4d1119:	repz scas al,BYTE PTR es:[edi]
  4d111b:	mov    al,ds:0xc10c2776
  4d1120:	sti    
  4d1121:	sbb    ecx,DWORD PTR [eax]
  4d1123:	mov    WORD PTR [ebp+0x6740a7a3],?
  4d1129:	cwde   
  4d112a:	mov    BYTE PTR ds:[esi+0x14],0x76
  4d112f:	movs   BYTE PTR es:[edi],BYTE PTR ds:[esi]
  4d1130:	cmps   BYTE PTR ds:[esi],BYTE PTR es:[edi]
  4d1131:	scas   ax,WORD PTR es:[edi]
  4d1133:	mov    edi,0xd371da45
  4d1138:	fnsave [ebp+ebp*8+0x7]
  4d113c:	sbb    al,0x57
  4d113e:	movs   BYTE PTR es:[edi],BYTE PTR ds:[esi]
  4d113f:	fwait
  4d1140:	ret    
  4d1141:	cmp    cl,BYTE PTR [ecx]
  4d1143:	mov    WORD PTR [ebx+esi*8],?
  4d1146:	mov    ds:0x399f7909,eax
  4d114b:	and    BYTE PTR [eax+0x1c],dh
  4d114e:	xor    al,BYTE PTR [edi-0x79db0538]
  4d1154:	xchg   esi,esp
  4d1156:	and    eax,0xc7ae3b0d
  4d115b:	retf   0x11b5
  4d115e:	fwait
  4d115f:	in     al,dx
  4d1160:	mov    dh,0x82
  4d1162:	movs   BYTE PTR es:[edi],BYTE PTR ds:[esi]
  4d1163:	pop    ebx
  4d1164:	mov    ch,0x82
  4d1166:	movs   BYTE PTR es:[edi],BYTE PTR ds:[esi]
  4d1167:	pop    ebx
  4d1168:	mov    ah,0x82
  4d116a:	movs   BYTE PTR es:[edi],BYTE PTR ds:[esi]
  4d116b:	pop    ebx
  4d116c:	mov    bl,0x82
  4d116e:	movs   BYTE PTR es:[edi],BYTE PTR ds:[esi]
  4d116f:	pop    ebx
  4d1170:	mov    dl,0x82
  4d1172:	movs   BYTE PTR es:[edi],BYTE PTR ds:[esi]
  4d1173:	pop    ebx
  4d1174:	mov    cl,0x82
  4d1176:	movs   BYTE PTR es:[edi],BYTE PTR ds:[esi]
  4d1177:	pop    ebx
  4d1178:	mov    al,0x82
  4d117a:	movs   BYTE PTR es:[edi],BYTE PTR ds:[esi]
  4d117b:	pop    ebx
  4d117c:	scas   eax,DWORD PTR es:[edi]
  4d117d:	and    BYTE PTR [ebx+ebx*2+0x5ba4daae],0xad
  4d1185:	and    BYTE PTR [ecx-0x5e7953a5],0x5b
  4d118c:	dec    ebp
  4d118d:	add    BYTE PTR ss:[esi+0xc723e74],bh
