
dc6a2d0b03ab66a0c0c26bb81b6c5d7174362673a8b0ef49cfbabc735fe2a37e.exe:     file format pei-i386


Disassembly of section .text:

00401000 <.text>:
  401000:	mov    edi,edi
  401002:	push   ebp
  401003:	mov    ebp,esp
  401005:	sub    esp,0x54
  401008:	push   eax
  401009:	push   DWORD PTR [eax+0x260]
  40100f:	push   DWORD PTR [eax+0x28c]
  401015:	call   0x40194c
  40101a:	add    esp,0x8
  40101d:	pop    eax
  40101e:	push   eax
  40101f:	mov    eax,0x404020
  401024:	call   DWORD PTR [eax]
  401026:	pop    eax
  401027:	push   eax
  401028:	mov    eax,0x0
  40102d:	push   eax
  40102e:	mov    eax,0x404054
  401033:	call   DWORD PTR [eax]
  401035:	pop    eax
  401036:	sub    esp,0xffffffac
  401039:	mov    ebp,DWORD PTR [esp]
  40103c:	add    esp,0x4
  40103f:	ret    
  401040:	mov    edi,edi
  401042:	push   ebp
  401043:	mov    ebp,esp
  401045:	sub    esp,0x30
  401048:	push   eax
  401049:	push   DWORD PTR [eax+0x64]
  40104c:	push   DWORD PTR [eax+0x8]
  40104f:	push   DWORD PTR [eax+0x190]
  401055:	call   0x40223c
  40105a:	add    esp,0xc
  40105d:	pop    eax
  40105e:	push   eax
  40105f:	push   0x0
  401061:	mov    eax,0x40400c
  401066:	call   DWORD PTR [eax]
  401068:	pop    eax
  401069:	push   eax
  40106a:	mov    edi,0x0
  40106f:	push   edi
  401070:	mov    eax,0x404008
  401075:	call   DWORD PTR [eax]
  401077:	pop    eax
  401078:	sub    esp,0xffffffd0
  40107b:	mov    ebp,DWORD PTR [esp]
  40107e:	add    esp,0x4
  401081:	ret    
	...
  4010d2:	add    BYTE PTR [eax],al
  4010d4:	mov    edi,edi
  4010d6:	push   ebp
  4010d7:	mov    ebp,esp
  4010d9:	sub    esp,0x38
  4010dc:	push   eax
  4010dd:	push   DWORD PTR [eax+0x1f0]
  4010e3:	push   esi
  4010e4:	push   DWORD PTR [eax+0xf4]
  4010ea:	call   0x401288
  4010ef:	add    esp,0xc
  4010f2:	pop    eax
  4010f3:	push   eax
  4010f4:	push   0x0
  4010f6:	mov    eax,0x404070
  4010fb:	call   DWORD PTR [eax]
  4010fd:	pop    eax
  4010fe:	mov    edx,0x404034
  401103:	mov    edx,DWORD PTR [edx]
  401105:	push   edx
  401106:	push   DWORD PTR [eax+0x24c]
  40110c:	pop    ecx
  40110d:	call   ecx
  40110f:	sub    esp,0xffffffc8
  401112:	mov    ebp,DWORD PTR [esp]
  401115:	add    esp,0x4
  401118:	ret    
  401119:	add    BYTE PTR [eax],al
  40111b:	add    BYTE PTR [ebx-0x1374aa01],cl
  401121:	sub    esp,0x1c
  401124:	push   eax
  401125:	push   0x0
  401127:	mov    eax,0x404014
  40112c:	call   DWORD PTR [eax]
  40112e:	pop    eax
  40112f:	push   eax
  401130:	push   edi
  401131:	push   esi
  401132:	call   0x4014fc
  401137:	add    esp,0x8
  40113a:	pop    eax
  40113b:	push   eax
  40113c:	mov    eax,0x404030
  401141:	call   DWORD PTR [eax]
  401143:	pop    eax
  401144:	sub    esp,0xffffffe4
  401147:	mov    ebp,DWORD PTR [esp]
  40114a:	add    esp,0x4
  40114d:	ret    
  40114e:	add    BYTE PTR [eax],al
  401150:	popa   
  401151:	ret    
	...
  4011f2:	add    BYTE PTR [eax],al
  4011f4:	mov    edi,edi
  4011f6:	push   ebp
  4011f7:	mov    ebp,esp
  4011f9:	sub    esp,0x54
  4011fc:	push   eax
  4011fd:	push   DWORD PTR [eax+0x348]
  401203:	push   ebx
  401204:	push   DWORD PTR [eax+0x134]
  40120a:	call   0x401c28
  40120f:	add    esp,0xc
  401212:	pop    eax
  401213:	push   eax
  401214:	mov    eax,0x404020
  401219:	call   DWORD PTR [eax]
  40121b:	pop    eax
  40121c:	push   eax
  40121d:	mov    eax,0x0
  401222:	push   eax
  401223:	mov    eax,0x404070
  401228:	call   DWORD PTR [eax]
  40122a:	pop    eax
  40122b:	sub    esp,0xffffffac
  40122e:	mov    ebp,DWORD PTR [esp]
  401231:	add    esp,0x4
  401234:	ret    
	...
  401285:	add    BYTE PTR [eax],al
  401287:	add    BYTE PTR [ebx-0x1374aa01],cl
  40128d:	sub    esp,0x24
  401290:	push   eax
  401291:	push   edx
  401292:	push   DWORD PTR [eax+0x90]
  401298:	push   ebx
  401299:	call   0x4024cc
  40129e:	add    esp,0xc
  4012a1:	pop    eax
  4012a2:	push   eax
  4012a3:	mov    ecx,0x0
  4012a8:	push   ecx
  4012a9:	mov    eax,0x40403c
  4012ae:	call   DWORD PTR [eax]
  4012b0:	pop    eax
  4012b1:	push   eax
  4012b2:	mov    eax,0x0
  4012b7:	push   eax
  4012b8:	mov    eax,0x40401c
  4012bd:	call   DWORD PTR [eax]
  4012bf:	pop    eax
  4012c0:	sub    esp,0xffffffdc
  4012c3:	mov    ebp,DWORD PTR [esp]
  4012c6:	add    esp,0x4
  4012c9:	ret    
	...
  4014fa:	add    BYTE PTR [eax],al
  4014fc:	mov    edi,edi
  4014fe:	push   ebp
  4014ff:	mov    ebp,esp
  401501:	sub    esp,0x2c
  401504:	push   eax
  401505:	push   edx
  401506:	push   DWORD PTR [eax+0x10c]
  40150c:	push   ecx
  40150d:	push   DWORD PTR [eax+0x160]
  401513:	call   0x401644
  401518:	add    esp,0x10
  40151b:	pop    eax
  40151c:	push   eax
  40151d:	push   0x0
  40151f:	mov    eax,0x404010
  401524:	call   DWORD PTR [eax]
  401526:	pop    eax
  401527:	push   eax
  401528:	push   0x0
  40152a:	mov    eax,0x40400c
  40152f:	call   DWORD PTR [eax]
  401531:	pop    eax
  401532:	sub    esp,0xffffffd4
  401535:	mov    ebp,DWORD PTR [esp]
  401538:	add    esp,0x4
  40153b:	ret    
  40153c:	mov    edi,edi
  40153e:	push   ebp
  40153f:	mov    ebp,esp
  401541:	sub    esp,0x3c
  401544:	push   eax
  401545:	mov    eax,0x404020
  40154a:	call   DWORD PTR [eax]
  40154c:	pop    eax
  40154d:	push   eax
  40154e:	push   edi
  40154f:	push   esi
  401550:	push   DWORD PTR [eax+0x28c]
  401556:	call   0x401e00
  40155b:	add    esp,0xc
  40155e:	pop    eax
  40155f:	push   eax
  401560:	mov    esi,0x0
  401565:	push   esi
  401566:	mov    eax,0x40400c
  40156b:	call   DWORD PTR [eax]
  40156d:	pop    eax
  40156e:	sub    esp,0xffffffc4
  401571:	mov    ebp,DWORD PTR [esp]
  401574:	add    esp,0x4
  401577:	ret    
  401578:	mov    edi,edi
  40157a:	push   ebp
  40157b:	mov    ebp,esp
  40157d:	sub    esp,0x44
  401580:	push   eax
  401581:	push   ebx
  401582:	push   ecx
  401583:	push   edx
  401584:	call   0x40198c
  401589:	add    esp,0xc
  40158c:	pop    eax
  40158d:	push   eax
  40158e:	mov    eax,0x0
  401593:	push   eax
  401594:	mov    eax,0x404040
  401599:	call   DWORD PTR [eax]
  40159b:	pop    eax
  40159c:	push   eax
  40159d:	push   0x0
  40159f:	mov    eax,0x404054
  4015a4:	call   DWORD PTR [eax]
  4015a6:	pop    eax
  4015a7:	sub    esp,0xffffffbc
  4015aa:	mov    ebp,DWORD PTR [esp]
  4015ad:	add    esp,0x4
  4015b0:	ret    
	...
  401601:	add    BYTE PTR [eax],al
  401603:	add    BYTE PTR [ebx-0x1374aa01],cl
  401609:	sub    esp,0x54
  40160c:	push   eax
  40160d:	push   DWORD PTR [eax+0x118]
  401613:	push   DWORD PTR [eax+0x320]
  401619:	push   ebx
  40161a:	push   esi
  40161b:	call   0x401a20
  401620:	add    esp,0x10
  401623:	pop    eax
  401624:	push   eax
  401625:	mov    eax,0x404030
  40162a:	call   DWORD PTR [eax]
  40162c:	pop    eax
  40162d:	push   eax
  40162e:	push   0x0
  401630:	mov    eax,0x404048
  401635:	call   DWORD PTR [eax]
  401637:	pop    eax
  401638:	sub    esp,0xffffffac
  40163b:	mov    ebp,DWORD PTR [esp]
  40163e:	add    esp,0x4
  401641:	ret    
  401642:	add    BYTE PTR [eax],al
  401644:	mov    edi,edi
  401646:	push   ebp
  401647:	mov    ebp,esp
  401649:	sub    esp,0x2c
  40164c:	push   eax
  40164d:	push   DWORD PTR [eax+0x148]
  401653:	push   esi
  401654:	call   0x401908
  401659:	add    esp,0x8
  40165c:	pop    eax
  40165d:	push   eax
  40165e:	mov    eax,0x404030
  401663:	call   DWORD PTR [eax]
  401665:	pop    eax
  401666:	push   eax
  401667:	mov    eax,0x404004
  40166c:	call   DWORD PTR [eax]
  40166e:	pop    eax
  40166f:	sub    esp,0xffffffd4
  401672:	mov    ebp,DWORD PTR [esp]
  401675:	add    esp,0x4
  401678:	ret    
	...
  4016c9:	add    BYTE PTR [eax],al
  4016cb:	add    BYTE PTR [ebx-0x1374aa01],cl
  4016d1:	sub    esp,0x54
  4016d4:	push   eax
  4016d5:	mov    eax,0x404004
  4016da:	call   DWORD PTR [eax]
  4016dc:	pop    eax
  4016dd:	push   eax
  4016de:	push   DWORD PTR [eax+0x1a0]
  4016e4:	push   DWORD PTR [eax+0x200]
  4016ea:	call   0x4017ac
  4016ef:	add    esp,0x8
  4016f2:	pop    eax
  4016f3:	push   eax
  4016f4:	mov    edx,0x0
  4016f9:	push   edx
  4016fa:	mov    eax,0x40403c
  4016ff:	call   DWORD PTR [eax]
  401701:	pop    eax
  401702:	sub    esp,0xffffffac
  401705:	mov    ebp,DWORD PTR [esp]
  401708:	add    esp,0x4
  40170b:	ret    
	...
  4017ac:	mov    edi,edi
  4017ae:	push   ebp
  4017af:	mov    ebp,esp
  4017b1:	sub    esp,0x38
  4017b4:	push   eax
  4017b5:	push   ecx
  4017b6:	push   DWORD PTR [eax+0x360]
  4017bc:	push   ebx
  4017bd:	call   0x4023c4
  4017c2:	add    esp,0xc
  4017c5:	pop    eax
  4017c6:	push   eax
  4017c7:	lea    edx,[eax-0x100]
  4017cd:	push   edx
  4017ce:	mov    eax,0x404034
  4017d3:	call   DWORD PTR [eax]
  4017d5:	test   eax,eax
  4017d7:	jne    0x4017c7
  4017d9:	pop    eax
  4017da:	push   eax
  4017db:	mov    eax,0x404020
  4017e0:	call   DWORD PTR [eax]
  4017e2:	pop    eax
  4017e3:	sub    esp,0xffffffc8
  4017e6:	mov    ebp,DWORD PTR [esp]
  4017e9:	add    esp,0x4
  4017ec:	ret    
  4017ed:	add    BYTE PTR [eax],al
  4017ef:	add    BYTE PTR [ebx-0x1374aa01],cl
  4017f5:	sub    esp,0x60
  4017f8:	push   eax
  4017f9:	push   esi
  4017fa:	push   esi
  4017fb:	push   edx
  4017fc:	call   0x402010
  401801:	add    esp,0xc
  401804:	pop    eax
  401805:	push   eax
  401806:	mov    eax,0x404020
  40180b:	call   DWORD PTR [eax]
  40180d:	pop    eax
  40180e:	push   eax
  40180f:	mov    eax,0x404030
  401814:	call   DWORD PTR [eax]
  401816:	pop    eax
  401817:	sub    esp,0xffffffa0
  40181a:	mov    ebp,DWORD PTR [esp]
  40181d:	add    esp,0x4
  401820:	ret    
  401821:	add    BYTE PTR [eax],al
  401823:	add    BYTE PTR [eax+0x33],ah
  401826:	rcl    BYTE PTR [edx-0x1],cl
  401829:	adc    eax,0x404070
  40182e:	mov    eax,0x40408c
  401833:	sub    eax,0x1
  401836:	push   0x0
  401838:	call   DWORD PTR [eax+0x1]
  40183b:	xor    edx,edx
  40183d:	add    edx,0x458200
  401843:	dec    dh
  401845:	push   edx
  401846:	lea    ecx,[edx+0xc]
  401849:	add    BYTE PTR [ecx],0x4
  40184c:	push   edx
  40184d:	call   DWORD PTR ds:0x40402c
  401853:	mov    ecx,eax
  401855:	mov    cl,0x3c
  401857:	mov    ecx,DWORD PTR [ecx]
  401859:	mov    ecx,DWORD PTR [eax+ecx*1+0x1c]
  40185d:	ror    ecx,0xc
  401860:	mov    eax,ecx
  401862:	cmp    al,0x10
  401864:	pop    eax
  401865:	jb     0x401150
  40186b:	ja     0x4010d4
  401871:	ret    
	...
  4018c2:	add    BYTE PTR [eax],al
  4018c4:	mov    edi,edi
  4018c6:	push   ebp
  4018c7:	mov    ebp,esp
  4018c9:	sub    esp,0x30
  4018cc:	push   eax
  4018cd:	push   0x0
  4018cf:	mov    eax,0x404014
  4018d4:	call   DWORD PTR [eax]
  4018d6:	pop    eax
  4018d7:	push   eax
  4018d8:	push   DWORD PTR [eax+0x280]
  4018de:	push   edi
  4018df:	push   DWORD PTR [eax+0x1c0]
  4018e5:	call   0x402454
  4018ea:	add    esp,0xc
  4018ed:	pop    eax
  4018ee:	push   eax
  4018ef:	mov    eax,0x0
  4018f4:	push   eax
  4018f5:	mov    eax,0x40403c
  4018fa:	call   DWORD PTR [eax]
  4018fc:	pop    eax
  4018fd:	sub    esp,0xffffffd0
  401900:	mov    ebp,DWORD PTR [esp]
  401903:	add    esp,0x4
  401906:	ret    
  401907:	add    BYTE PTR [ebx-0x1374aa01],cl
  40190d:	sub    esp,0x24
  401910:	push   eax
  401911:	push   DWORD PTR [eax+0xd8]
  401917:	push   DWORD PTR [eax+0x2f8]
  40191d:	push   ebx
  40191e:	call   0x401d88
  401923:	add    esp,0xc
  401926:	pop    eax
  401927:	push   eax
  401928:	mov    edx,0x0
  40192d:	push   edx
  40192e:	mov    eax,0x40401c
  401933:	call   DWORD PTR [eax]
  401935:	pop    eax
  401936:	push   eax
  401937:	mov    eax,0x404030
  40193c:	call   DWORD PTR [eax]
  40193e:	pop    eax
  40193f:	sub    esp,0xffffffdc
  401942:	mov    ebp,DWORD PTR [esp]
  401945:	add    esp,0x4
  401948:	ret    
  401949:	add    BYTE PTR [eax],al
  40194b:	add    BYTE PTR [ebx-0x1374aa01],cl
  401951:	sub    esp,0x5c
  401954:	push   eax
  401955:	mov    eax,0x404020
  40195a:	call   DWORD PTR [eax]
  40195c:	pop    eax
  40195d:	push   eax
  40195e:	push   DWORD PTR [eax+0x234]
  401964:	push   DWORD PTR [eax+0x4]
  401967:	push   DWORD PTR [eax+0x88]
  40196d:	call   0x401d48
  401972:	add    esp,0xc
  401975:	pop    eax
  401976:	push   eax
  401977:	push   0x0
  401979:	mov    eax,0x404010
  40197e:	call   DWORD PTR [eax]
  401980:	pop    eax
  401981:	sub    esp,0xffffffa4
  401984:	mov    ebp,DWORD PTR [esp]
  401987:	add    esp,0x4
  40198a:	ret    
  40198b:	add    BYTE PTR [ebx-0x1374aa01],cl
  401991:	sub    esp,0x20
  401994:	push   eax
  401995:	push   DWORD PTR [eax+0x398]
  40199b:	push   edi
  40199c:	push   edx
  40199d:	call   0x40111c
  4019a2:	add    esp,0xc
  4019a5:	pop    eax
  4019a6:	push   eax
  4019a7:	mov    esi,0x0
  4019ac:	push   esi
  4019ad:	mov    eax,0x40401c
  4019b2:	call   DWORD PTR [eax]
  4019b4:	pop    eax
  4019b5:	push   eax
  4019b6:	mov    eax,0x0
  4019bb:	push   eax
  4019bc:	mov    eax,0x404054
  4019c1:	call   DWORD PTR [eax]
  4019c3:	pop    eax
  4019c4:	sub    esp,0xffffffe0
  4019c7:	mov    ebp,DWORD PTR [esp]
  4019ca:	add    esp,0x4
  4019cd:	ret    
	...
  401a1e:	add    BYTE PTR [eax],al
  401a20:	mov    edi,edi
  401a22:	push   ebp
  401a23:	mov    ebp,esp
  401a25:	sub    esp,0x50
  401a28:	push   eax
  401a29:	push   edi
  401a2a:	push   DWORD PTR [eax+0x25c]
  401a30:	push   esi
  401a31:	push   DWORD PTR [eax+0x284]
  401a37:	call   0x402384
  401a3c:	add    esp,0x10
  401a3f:	pop    eax
  401a40:	push   eax
  401a41:	mov    edi,0x0
  401a46:	push   edi
  401a47:	mov    eax,0x40401c
  401a4c:	call   DWORD PTR [eax]
  401a4e:	pop    eax
  401a4f:	push   eax
  401a50:	mov    ecx,0x0
  401a55:	push   ecx
  401a56:	mov    eax,0x404070
  401a5b:	call   DWORD PTR [eax]
  401a5d:	pop    eax
  401a5e:	sub    esp,0xffffffb0
  401a61:	mov    ebp,DWORD PTR [esp]
  401a64:	add    esp,0x4
  401a67:	ret    
  401a68:	mov    edi,edi
  401a6a:	push   ebp
  401a6b:	mov    ebp,esp
  401a6d:	sub    esp,0x20
  401a70:	push   eax
  401a71:	lea    edi,[eax-0x100]
  401a77:	push   edi
  401a78:	mov    eax,0x404034
  401a7d:	call   DWORD PTR [eax]
  401a7f:	test   eax,eax
  401a81:	jne    0x401a71
  401a83:	pop    eax
  401a84:	push   eax
  401a85:	push   DWORD PTR [eax+0x1dc]
  401a8b:	push   ebx
  401a8c:	push   DWORD PTR [eax+0x224]
  401a92:	push   ecx
  401a93:	call   0x401ed4
  401a98:	add    esp,0x10
  401a9b:	pop    eax
  401a9c:	push   eax
  401a9d:	push   0x0
  401a9f:	mov    eax,0x404010
  401aa4:	call   DWORD PTR [eax]
  401aa6:	pop    eax
  401aa7:	sub    esp,0xffffffe0
  401aaa:	mov    ebp,DWORD PTR [esp]
  401aad:	add    esp,0x4
  401ab0:	ret    
  401ab1:	add    BYTE PTR [eax],al
  401ab3:	add    BYTE PTR [ebx-0x1374aa01],cl
  401ab9:	sub    esp,0x30
  401abc:	push   eax
  401abd:	push   0x0
  401abf:	mov    eax,0x404014
  401ac4:	call   DWORD PTR [eax]
  401ac6:	pop    eax
  401ac7:	push   eax
  401ac8:	push   edx
  401ac9:	push   ecx
  401aca:	push   ecx
  401acb:	push   DWORD PTR [eax+0x144]
  401ad1:	call   0x401dbc
  401ad6:	add    esp,0x10
  401ad9:	pop    eax
  401ada:	push   eax
  401adb:	mov    eax,0x0
  401ae0:	push   eax
  401ae1:	mov    eax,0x404060
  401ae6:	call   DWORD PTR [eax]
  401ae8:	pop    eax
  401ae9:	sub    esp,0xffffffd0
  401aec:	mov    ebp,DWORD PTR [esp]
  401aef:	add    esp,0x4
  401af2:	ret    
	...
  401b93:	add    BYTE PTR [ebx-0x1374aa01],cl
  401b99:	sub    esp,0x30
  401b9c:	push   eax
  401b9d:	push   DWORD PTR [eax+0x74]
  401ba0:	push   esi
  401ba1:	push   esi
  401ba2:	push   edi
  401ba3:	call   0x401604
  401ba8:	add    esp,0x10
  401bab:	pop    eax
  401bac:	push   eax
  401bad:	push   0x0
  401baf:	mov    eax,0x404010
  401bb4:	call   DWORD PTR [eax]
  401bb6:	pop    eax
  401bb7:	push   eax
  401bb8:	lea    ebx,[eax-0x100]
  401bbe:	push   ebx
  401bbf:	mov    eax,0x404034
  401bc4:	call   DWORD PTR [eax]
  401bc6:	test   eax,eax
  401bc8:	jne    0x401bb8
  401bca:	pop    eax
  401bcb:	sub    esp,0xffffffd0
  401bce:	mov    ebp,DWORD PTR [esp]
  401bd1:	add    esp,0x4
  401bd4:	ret    
	...
  401c25:	add    BYTE PTR [eax],al
  401c27:	add    BYTE PTR [ebx-0x1374aa01],cl
  401c2d:	sub    esp,0x28
  401c30:	push   eax
  401c31:	mov    eax,0x404030
  401c36:	call   DWORD PTR [eax]
  401c38:	pop    eax
  401c39:	push   eax
  401c3a:	push   edx
  401c3b:	push   edi
  401c3c:	push   ecx
  401c3d:	push   DWORD PTR [eax+0x368]
  401c43:	call   0x402728
  401c48:	add    esp,0x10
  401c4b:	pop    eax
  401c4c:	push   eax
  401c4d:	push   0x0
  401c4f:	mov    eax,0x404060
  401c54:	call   DWORD PTR [eax]
  401c56:	pop    eax
  401c57:	sub    esp,0xffffffd8
  401c5a:	mov    ebp,DWORD PTR [esp]
  401c5d:	add    esp,0x4
  401c60:	ret    
	...
  401d01:	add    BYTE PTR [eax],al
  401d03:	add    BYTE PTR [ebx-0x1374aa01],cl
  401d09:	sub    esp,0x48
  401d0c:	push   eax
  401d0d:	mov    ebx,0x0
  401d12:	push   ebx
  401d13:	mov    eax,0x404048
  401d18:	call   DWORD PTR [eax]
  401d1a:	pop    eax
  401d1b:	push   eax
  401d1c:	push   DWORD PTR [eax+0x90]
  401d22:	push   ebx
  401d23:	push   DWORD PTR [eax+0xec]
  401d29:	call   0x401000
  401d2e:	add    esp,0xc
  401d31:	pop    eax
  401d32:	push   eax
  401d33:	push   0x0
  401d35:	mov    eax,0x40403c
  401d3a:	call   DWORD PTR [eax]
  401d3c:	pop    eax
  401d3d:	sub    esp,0xffffffb8
  401d40:	mov    ebp,DWORD PTR [esp]
  401d43:	add    esp,0x4
  401d46:	ret    
  401d47:	add    BYTE PTR [ebx-0x1374aa01],cl
  401d4d:	sub    esp,0x54
  401d50:	push   eax
  401d51:	mov    eax,0x404030
  401d56:	call   DWORD PTR [eax]
  401d58:	pop    eax
  401d59:	push   eax
  401d5a:	push   DWORD PTR [eax+0x110]
  401d60:	push   DWORD PTR [eax+0x2fc]
  401d66:	call   0x4020f0
  401d6b:	add    esp,0x8
  401d6e:	pop    eax
  401d6f:	push   eax
  401d70:	mov    edi,0x0
  401d75:	push   edi
  401d76:	mov    eax,0x40403c
  401d7b:	call   DWORD PTR [eax]
  401d7d:	pop    eax
  401d7e:	sub    esp,0xffffffac
  401d81:	mov    ebp,DWORD PTR [esp]
  401d84:	add    esp,0x4
  401d87:	ret    
  401d88:	mov    edi,edi
  401d8a:	push   ebp
  401d8b:	mov    ebp,esp
  401d8d:	sub    esp,0x58
  401d90:	push   eax
  401d91:	push   edi
  401d92:	push   edx
  401d93:	call   0x4022bc
  401d98:	add    esp,0x8
  401d9b:	pop    eax
  401d9c:	push   eax
  401d9d:	mov    eax,0x404030
  401da2:	call   DWORD PTR [eax]
  401da4:	pop    eax
  401da5:	push   eax
  401da6:	push   0x0
  401da8:	mov    eax,0x40401c
  401dad:	call   DWORD PTR [eax]
  401daf:	pop    eax
  401db0:	sub    esp,0xffffffa8
  401db3:	mov    ebp,DWORD PTR [esp]
  401db6:	add    esp,0x4
  401db9:	ret    
  401dba:	add    BYTE PTR [eax],al
  401dbc:	mov    edi,edi
  401dbe:	push   ebp
  401dbf:	mov    ebp,esp
  401dc1:	sub    esp,0x1c
  401dc4:	push   eax
  401dc5:	mov    edi,0x0
  401dca:	push   edi
  401dcb:	mov    eax,0x40401c
  401dd0:	call   DWORD PTR [eax]
  401dd2:	pop    eax
  401dd3:	push   eax
  401dd4:	push   esi
  401dd5:	push   DWORD PTR [eax+0x1ac]
  401ddb:	push   DWORD PTR [eax+0x220]
  401de1:	call   0x401a68
  401de6:	add    esp,0xc
  401de9:	pop    eax
  401dea:	push   eax
  401deb:	push   0x0
  401ded:	mov    eax,0x40401c
  401df2:	call   DWORD PTR [eax]
  401df4:	pop    eax
  401df5:	sub    esp,0xffffffe4
  401df8:	mov    ebp,DWORD PTR [esp]
  401dfb:	add    esp,0x4
  401dfe:	ret    
  401dff:	add    BYTE PTR [ebx-0x1374aa01],cl
  401e05:	sub    esp,0x2c
  401e08:	push   eax
  401e09:	push   DWORD PTR [eax+0x18]
  401e0c:	push   ecx
  401e0d:	push   edx
  401e0e:	call   0x4016cc
  401e13:	add    esp,0xc
  401e16:	pop    eax
  401e17:	push   eax
  401e18:	mov    esi,0x0
  401e1d:	push   esi
  401e1e:	mov    eax,0x404048
  401e23:	call   DWORD PTR [eax]
  401e25:	pop    eax
  401e26:	push   eax
  401e27:	mov    ebx,0x0
  401e2c:	push   ebx
  401e2d:	mov    eax,0x404014
  401e32:	call   DWORD PTR [eax]
  401e34:	pop    eax
  401e35:	sub    esp,0xffffffd4
  401e38:	mov    ebp,DWORD PTR [esp]
  401e3b:	add    esp,0x4
  401e3e:	ret    
	...
  401e8f:	add    BYTE PTR [ebx-0x1374aa01],cl
  401e95:	sub    esp,0x48
  401e98:	push   eax
  401e99:	push   DWORD PTR [eax+0x150]
  401e9f:	push   esi
  401ea0:	push   DWORD PTR [eax+0xdc]
  401ea6:	push   DWORD PTR [eax+0x19c]
  401eac:	call   0x401ab4
  401eb1:	add    esp,0x10
  401eb4:	pop    eax
  401eb5:	push   eax
  401eb6:	push   0x0
  401eb8:	mov    eax,0x404040
  401ebd:	call   DWORD PTR [eax]
  401ebf:	pop    eax
  401ec0:	push   eax
  401ec1:	mov    eax,0x404030
  401ec6:	call   DWORD PTR [eax]
  401ec8:	pop    eax
  401ec9:	sub    esp,0xffffffb8
  401ecc:	mov    ebp,DWORD PTR [esp]
  401ecf:	add    esp,0x4
  401ed2:	ret    
  401ed3:	add    BYTE PTR [ebx-0x1374aa01],cl
  401ed9:	sub    esp,0x34
  401edc:	push   eax
  401edd:	mov    edi,0x6b4
  401ee2:	push   edi
  401ee3:	mov    ecx,0x6b4
  401ee8:	push   ecx
  401ee9:	push   0x40001
  401eee:	push   0x0
  401ef0:	xor    DWORD PTR [esp],0x89e6ba91
  401ef7:	pop    edi
  401ef8:	sub    edi,0x89a67a45
  401efe:	push   DWORD PTR [edi]
  401f00:	sub    DWORD PTR [esp],0x2
  401f04:	mov    edi,0x40402c
  401f09:	pop    DWORD PTR [edi]
  401f0b:	mov    eax,0x40402c
  401f10:	call   DWORD PTR [eax]
  401f12:	xchg   DWORD PTR [esp],eax
  401f15:	pop    DWORD PTR [eax+0x24c]
  401f1b:	mov    esi,DWORD PTR [eax+0x24c]
  401f21:	lea    esi,[esi]
  401f23:	sub    edi,edi
  401f25:	dec    edi
  401f26:	and    edi,0x4029c2
  401f2c:	mov    edx,0x7a89d45a
  401f31:	mov    ecx,0x6b4
  401f36:	mov    ebx,edx
  401f38:	xor    ebx,DWORD PTR [edi]
  401f3a:	push   ebx
  401f3b:	sub    ebx,ebx
  401f3d:	sub    DWORD PTR [esp],0x1
  401f41:	pop    DWORD PTR [esi+ebx*2]
  401f44:	push   0x0
  401f46:	sub    DWORD PTR [esp],edx
  401f49:	mov    edx,0xfffffffc
  401f4e:	sub    edi,edx
  401f50:	sub    esi,edx
  401f52:	pop    edx
  401f53:	sub    ecx,0x4
  401f56:	test   ecx,ecx
  401f58:	jne    0x401f36
  401f5a:	push   eax
  401f5b:	mov    eax,0x0
  401f60:	push   eax
  401f61:	mov    eax,0x40401c
  401f66:	call   DWORD PTR [eax]
  401f68:	pop    eax
  401f69:	sub    esp,0xffffffcc
  401f6c:	pop    ebp
  401f6d:	ret    
	...
  40200e:	add    BYTE PTR [eax],al
  402010:	mov    edi,edi
  402012:	push   ebp
  402013:	mov    ebp,esp
  402015:	sub    esp,0x54
  402018:	push   eax
  402019:	push   0x0
  40201b:	mov    eax,0x40403c
  402020:	call   DWORD PTR [eax]
  402022:	pop    eax
  402023:	push   eax
  402024:	push   ecx
  402025:	push   ebx
  402026:	push   DWORD PTR [eax+0x1d4]
  40202c:	push   esi
  40202d:	call   0x4021fc
  402032:	add    esp,0x10
  402035:	pop    eax
  402036:	push   eax
  402037:	mov    ebx,0x0
  40203c:	push   ebx
  40203d:	mov    eax,0x40403c
  402042:	call   DWORD PTR [eax]
  402044:	pop    eax
  402045:	sub    esp,0xffffffac
  402048:	mov    ebp,DWORD PTR [esp]
  40204b:	add    esp,0x4
  40204e:	ret    
  40204f:	add    BYTE PTR [ebx-0x1374aa01],cl
  402055:	sub    esp,0x38
  402058:	push   eax
  402059:	push   DWORD PTR [eax+0x3c8]
  40205f:	push   esi
  402060:	push   DWORD PTR [eax+0x228]
  402066:	push   DWORD PTR [eax+0x1fc]
  40206c:	call   0x401e90
  402071:	add    esp,0x10
  402074:	pop    eax
  402075:	push   eax
  402076:	mov    ecx,0x0
  40207b:	push   ecx
  40207c:	mov    eax,0x404008
  402081:	call   DWORD PTR [eax]
  402083:	pop    eax
  402084:	push   eax
  402085:	mov    esi,0x0
  40208a:	push   esi
  40208b:	mov    eax,0x404008
  402090:	call   DWORD PTR [eax]
  402092:	pop    eax
  402093:	sub    esp,0xffffffc8
  402096:	mov    ebp,DWORD PTR [esp]
  402099:	add    esp,0x4
  40209c:	ret    
	...
  4020ed:	add    BYTE PTR [eax],al
  4020ef:	add    BYTE PTR [ebx-0x1374aa01],cl
  4020f5:	sub    esp,0x24
  4020f8:	push   eax
  4020f9:	mov    eax,0x404020
  4020fe:	call   DWORD PTR [eax]
  402100:	pop    eax
  402101:	push   eax
  402102:	push   DWORD PTR [eax+0x224]
  402108:	push   DWORD PTR [eax+0x108]
  40210e:	push   DWORD PTR [eax+0x2b8]
  402114:	push   edi
  402115:	call   0x4017f0
  40211a:	add    esp,0x10
  40211d:	pop    eax
  40211e:	push   eax
  40211f:	push   0x0
  402121:	mov    eax,0x404048
  402126:	call   DWORD PTR [eax]
  402128:	pop    eax
  402129:	sub    esp,0xffffffdc
  40212c:	mov    ebp,DWORD PTR [esp]
  40212f:	add    esp,0x4
  402132:	ret    
  402133:	add    BYTE PTR [ebx-0x1374aa01],cl
  402139:	sub    esp,0x44
  40213c:	push   eax
  40213d:	push   ebx
  40213e:	push   DWORD PTR [eax+0x3d8]
  402144:	push   ecx
  402145:	call   0x4011f4
  40214a:	add    esp,0xc
  40214d:	pop    eax
  40214e:	push   eax
  40214f:	push   0x0
  402151:	mov    eax,0x40403c
  402156:	call   DWORD PTR [eax]
  402158:	pop    eax
  402159:	push   eax
  40215a:	mov    eax,0x404020
  40215f:	call   DWORD PTR [eax]
  402161:	pop    eax
  402162:	sub    esp,0xffffffbc
  402165:	mov    ebp,DWORD PTR [esp]
  402168:	add    esp,0x4
  40216b:	ret    
	...
  4021bc:	mov    edi,edi
  4021be:	push   ebp
  4021bf:	mov    ebp,esp
  4021c1:	sub    esp,0x1c
  4021c4:	push   eax
  4021c5:	push   0x0
  4021c7:	mov    eax,0x404054
  4021cc:	call   DWORD PTR [eax]
  4021ce:	pop    eax
  4021cf:	push   eax
  4021d0:	push   DWORD PTR [eax+0xf0]
  4021d6:	push   edx
  4021d7:	push   DWORD PTR [eax+0x344]
  4021dd:	call   0x401d04
  4021e2:	add    esp,0xc
  4021e5:	pop    eax
  4021e6:	push   eax
  4021e7:	mov    eax,0x404020
  4021ec:	call   DWORD PTR [eax]
  4021ee:	pop    eax
  4021ef:	sub    esp,0xffffffe4
  4021f2:	mov    ebp,DWORD PTR [esp]
  4021f5:	add    esp,0x4
  4021f8:	ret    
  4021f9:	add    BYTE PTR [eax],al
  4021fb:	add    BYTE PTR [ebx-0x1374aa01],cl
  402201:	sub    esp,0x38
  402204:	push   eax
  402205:	push   edi
  402206:	push   DWORD PTR [eax+0x250]
  40220c:	push   ebx
  40220d:	push   DWORD PTR [eax+0x2f0]
  402213:	call   0x402134
  402218:	add    esp,0x10
  40221b:	pop    eax
  40221c:	push   eax
  40221d:	push   0x0
  40221f:	mov    eax,0x404010
  402224:	call   DWORD PTR [eax]
  402226:	pop    eax
  402227:	push   eax
  402228:	mov    eax,0x404030
  40222d:	call   DWORD PTR [eax]
  40222f:	pop    eax
  402230:	sub    esp,0xffffffc8
  402233:	mov    ebp,DWORD PTR [esp]
  402236:	add    esp,0x4
  402239:	ret    
  40223a:	add    BYTE PTR [eax],al
  40223c:	mov    edi,edi
  40223e:	push   ebp
  40223f:	mov    ebp,esp
  402241:	sub    esp,0x28
  402244:	push   eax
  402245:	mov    eax,0x404020
  40224a:	call   DWORD PTR [eax]
  40224c:	pop    eax
  40224d:	push   eax
  40224e:	push   edi
  40224f:	push   DWORD PTR [eax+0x238]
  402255:	push   ecx
  402256:	call   0x4026e8
  40225b:	add    esp,0xc
  40225e:	pop    eax
  40225f:	push   eax
  402260:	mov    eax,0x0
  402265:	push   eax
  402266:	mov    eax,0x404040
  40226b:	call   DWORD PTR [eax]
  40226d:	pop    eax
  40226e:	sub    esp,0xffffffd8
  402271:	mov    ebp,DWORD PTR [esp]
  402274:	add    esp,0x4
  402277:	ret    
  402278:	mov    edi,edi
  40227a:	push   ebp
  40227b:	mov    ebp,esp
  40227d:	sub    esp,0x54
  402280:	push   eax
  402281:	mov    esi,0x0
  402286:	push   esi
  402287:	mov    eax,0x404014
  40228c:	call   DWORD PTR [eax]
  40228e:	pop    eax
  40228f:	push   eax
  402290:	push   DWORD PTR [eax+0x284]
  402296:	push   ebx
  402297:	push   edx
  402298:	push   DWORD PTR [eax+0x11c]
  40229e:	call   0x4021bc
  4022a3:	add    esp,0x10
  4022a6:	pop    eax
  4022a7:	push   eax
  4022a8:	push   0x0
  4022aa:	mov    eax,0x404054
  4022af:	call   DWORD PTR [eax]
  4022b1:	pop    eax
  4022b2:	sub    esp,0xffffffac
  4022b5:	mov    ebp,DWORD PTR [esp]
  4022b8:	add    esp,0x4
  4022bb:	ret    
  4022bc:	mov    edi,edi
  4022be:	push   ebp
  4022bf:	mov    ebp,esp
  4022c1:	sub    esp,0x48
  4022c4:	push   eax
  4022c5:	lea    edi,[eax-0x100]
  4022cb:	push   edi
  4022cc:	mov    eax,0x404034
  4022d1:	call   DWORD PTR [eax]
  4022d3:	test   eax,eax
  4022d5:	jne    0x4022c5
  4022d7:	pop    eax
  4022d8:	push   eax
  4022d9:	push   edx
  4022da:	push   edi
  4022db:	push   ebx
  4022dc:	call   0x4026a4
  4022e1:	add    esp,0xc
  4022e4:	pop    eax
  4022e5:	push   eax
  4022e6:	mov    eax,0x404020
  4022eb:	call   DWORD PTR [eax]
  4022ed:	pop    eax
  4022ee:	sub    esp,0xffffffb8
  4022f1:	mov    ebp,DWORD PTR [esp]
  4022f4:	add    esp,0x4
  4022f7:	ret    
	...
  402348:	mov    edi,edi
  40234a:	push   ebp
  40234b:	mov    ebp,esp
  40234d:	sub    esp,0x54
  402350:	push   eax
  402351:	push   DWORD PTR [eax+0x360]
  402357:	push   edi
  402358:	push   esi
  402359:	push   esi
  40235a:	call   0x401040
  40235f:	add    esp,0x10
  402362:	pop    eax
  402363:	push   eax
  402364:	push   0x0
  402366:	mov    eax,0x40403c
  40236b:	call   DWORD PTR [eax]
  40236d:	pop    eax
  40236e:	push   eax
  40236f:	mov    eax,0x404004
  402374:	call   DWORD PTR [eax]
  402376:	pop    eax
  402377:	sub    esp,0xffffffac
  40237a:	mov    ebp,DWORD PTR [esp]
  40237d:	add    esp,0x4
  402380:	ret    
  402381:	add    BYTE PTR [eax],al
  402383:	add    BYTE PTR [ebx-0x1374aa01],cl
  402389:	sub    esp,0x38
  40238c:	push   eax
  40238d:	push   DWORD PTR [eax+0x308]
  402393:	push   edx
  402394:	push   DWORD PTR [eax+0x134]
  40239a:	call   0x402278
  40239f:	add    esp,0xc
  4023a2:	pop    eax
  4023a3:	push   eax
  4023a4:	mov    eax,0x404030
  4023a9:	call   DWORD PTR [eax]
  4023ab:	pop    eax
  4023ac:	push   eax
  4023ad:	push   0x0
  4023af:	mov    eax,0x40400c
  4023b4:	call   DWORD PTR [eax]
  4023b6:	pop    eax
  4023b7:	sub    esp,0xffffffc8
  4023ba:	mov    ebp,DWORD PTR [esp]
  4023bd:	add    esp,0x4
  4023c0:	ret    
  4023c1:	add    BYTE PTR [eax],al
  4023c3:	add    BYTE PTR [ebx-0x1374aa01],cl
  4023c9:	sub    esp,0x30
  4023cc:	push   eax
  4023cd:	push   DWORD PTR [eax+0xc8]
  4023d3:	push   DWORD PTR [eax+0x3e0]
  4023d9:	call   0x401578
  4023de:	add    esp,0x8
  4023e1:	pop    eax
  4023e2:	push   eax
  4023e3:	mov    eax,0x404004
  4023e8:	call   DWORD PTR [eax]
  4023ea:	pop    eax
  4023eb:	push   eax
  4023ec:	mov    eax,0x0
  4023f1:	push   eax
  4023f2:	mov    eax,0x40403c
  4023f7:	call   DWORD PTR [eax]
  4023f9:	pop    eax
  4023fa:	sub    esp,0xffffffd0
  4023fd:	mov    ebp,DWORD PTR [esp]
  402400:	add    esp,0x4
  402403:	ret    
	...
  402454:	mov    edi,edi
  402456:	push   ebp
  402457:	mov    ebp,esp
  402459:	sub    esp,0x4c
  40245c:	push   eax
  40245d:	push   0x0
  40245f:	mov    eax,0x404008
  402464:	call   DWORD PTR [eax]
  402466:	pop    eax
  402467:	push   eax
  402468:	push   esi
  402469:	push   DWORD PTR [eax+0x3fc]
  40246f:	call   0x402348
  402474:	add    esp,0x8
  402477:	pop    eax
  402478:	push   eax
  402479:	mov    eax,0x404020
  40247e:	call   DWORD PTR [eax]
  402480:	pop    eax
  402481:	sub    esp,0xffffffb4
  402484:	mov    ebp,DWORD PTR [esp]
  402487:	add    esp,0x4
  40248a:	ret    
  40248b:	add    BYTE PTR [ebx-0x1374aa01],cl
  402491:	sub    esp,0x28
  402494:	push   eax
  402495:	mov    esi,0x0
  40249a:	push   esi
  40249b:	mov    eax,0x404010
  4024a0:	call   DWORD PTR [eax]
  4024a2:	pop    eax
  4024a3:	push   eax
  4024a4:	push   edi
  4024a5:	push   ecx
  4024a6:	push   DWORD PTR [eax+0x4c]
  4024a9:	push   edx
  4024aa:	call   0x40153c
  4024af:	add    esp,0x10
  4024b2:	pop    eax
  4024b3:	push   eax
  4024b4:	mov    eax,0x0
  4024b9:	push   eax
  4024ba:	mov    eax,0x404014
  4024bf:	call   DWORD PTR [eax]
  4024c1:	pop    eax
  4024c2:	sub    esp,0xffffffd8
  4024c5:	mov    ebp,DWORD PTR [esp]
  4024c8:	add    esp,0x4
  4024cb:	ret    
  4024cc:	mov    edi,edi
  4024ce:	push   ebp
  4024cf:	mov    ebp,esp
  4024d1:	sub    esp,0x28
  4024d4:	push   eax
  4024d5:	push   DWORD PTR [eax+0x28c]
  4024db:	push   DWORD PTR [eax+0xa0]
  4024e1:	push   edi
  4024e2:	call   0x4028fc
  4024e7:	add    esp,0xc
  4024ea:	pop    eax
  4024eb:	push   eax
  4024ec:	push   0x0
  4024ee:	mov    eax,0x404010
  4024f3:	call   DWORD PTR [eax]
  4024f5:	pop    eax
  4024f6:	push   eax
  4024f7:	lea    edi,[eax-0x100]
  4024fd:	push   edi
  4024fe:	mov    eax,0x404034
  402503:	call   DWORD PTR [eax]
  402505:	test   eax,eax
  402507:	jne    0x4024f7
  402509:	pop    eax
  40250a:	sub    esp,0xffffffd8
  40250d:	mov    ebp,DWORD PTR [esp]
  402510:	add    esp,0x4
  402513:	ret    
	...
  4026a4:	mov    edi,edi
  4026a6:	push   ebp
  4026a7:	mov    ebp,esp
  4026a9:	sub    esp,0x60
  4026ac:	push   eax
  4026ad:	push   DWORD PTR [eax+0x218]
  4026b3:	push   DWORD PTR [eax+0x90]
  4026b9:	push   ebx
  4026ba:	call   0x402050
  4026bf:	add    esp,0xc
  4026c2:	pop    eax
  4026c3:	push   eax
  4026c4:	mov    edx,0x0
  4026c9:	push   edx
  4026ca:	mov    eax,0x404054
  4026cf:	call   DWORD PTR [eax]
  4026d1:	pop    eax
  4026d2:	push   eax
  4026d3:	push   0x0
  4026d5:	mov    eax,0x40400c
  4026da:	call   DWORD PTR [eax]
  4026dc:	pop    eax
  4026dd:	sub    esp,0xffffffa0
  4026e0:	mov    ebp,DWORD PTR [esp]
  4026e3:	add    esp,0x4
  4026e6:	ret    
  4026e7:	add    BYTE PTR [ebx-0x1374aa01],cl
  4026ed:	sub    esp,0x38
  4026f0:	push   eax
  4026f1:	lea    ecx,[eax-0x100]
  4026f7:	push   ecx
  4026f8:	mov    eax,0x404034
  4026fd:	call   DWORD PTR [eax]
  4026ff:	test   eax,eax
  402701:	jne    0x4026f1
  402703:	pop    eax
  402704:	push   eax
  402705:	push   edx
  402706:	push   DWORD PTR [eax+0x38]
  402709:	call   0x401b94
  40270e:	add    esp,0x8
  402711:	pop    eax
  402712:	push   eax
  402713:	mov    eax,0x404020
  402718:	call   DWORD PTR [eax]
  40271a:	pop    eax
  40271b:	sub    esp,0xffffffc8
  40271e:	mov    ebp,DWORD PTR [esp]
  402721:	add    esp,0x4
  402724:	ret    
  402725:	add    BYTE PTR [eax],al
  402727:	add    BYTE PTR [ebx-0x1374aa01],cl
  40272d:	sub    esp,0x5c
  402730:	push   eax
  402731:	lea    esi,[eax-0x100]
  402737:	push   esi
  402738:	mov    eax,0x404034
  40273d:	call   DWORD PTR [eax]
  40273f:	test   eax,eax
  402741:	jne    0x402731
  402743:	pop    eax
  402744:	push   eax
  402745:	push   DWORD PTR [eax+0x34]
  402748:	push   ecx
  402749:	push   DWORD PTR [eax+0xc4]
  40274f:	push   ebx
  402750:	call   0x40248c
  402755:	add    esp,0x10
  402758:	pop    eax
  402759:	push   eax
  40275a:	mov    eax,0x404030
  40275f:	call   DWORD PTR [eax]
  402761:	pop    eax
  402762:	sub    esp,0xffffffa4
  402765:	mov    ebp,DWORD PTR [esp]
  402768:	add    esp,0x4
  40276b:	ret    
	...
  4028fc:	mov    edi,edi
  4028fe:	push   ebp
  4028ff:	mov    ebp,esp
  402901:	sub    esp,0x2c
  402904:	push   eax
  402905:	push   0x0
  402907:	mov    eax,0x40403c
  40290c:	call   DWORD PTR [eax]
  40290e:	pop    eax
  40290f:	push   eax
  402910:	push   DWORD PTR [eax+0x1c4]
  402916:	push   DWORD PTR [eax+0x1ec]
  40291c:	push   DWORD PTR [eax+0x174]
  402922:	call   0x4018c4
  402927:	add    esp,0xc
  40292a:	pop    eax
  40292b:	push   eax
  40292c:	mov    eax,0x404020
  402931:	call   DWORD PTR [eax]
  402933:	pop    eax
  402934:	sub    esp,0xffffffd4
  402937:	mov    ebp,DWORD PTR [esp]
  40293a:	add    esp,0x4
  40293d:	ret    
	...
  40298e:	add    BYTE PTR [eax],al
  402990:	movs   DWORD PTR es:[edi],DWORD PTR ds:[esi]
  402991:	mov    edi,0xa3f4408d
  402996:	xorps  xmm3,XMMWORD PTR [esi+0x7f4815b6]
  40299d:	les    ecx,FWORD PTR [esi-0x4b440125]
  4029a3:	shl    BYTE PTR [esp+ebp*8],cl
  4029a6:	jle    0x4029c1
  4029a8:	push   edx
  4029a9:	ds pop ss
  4029ab:	pop    ss
  4029ac:	call   0xb55e11e1
  4029b1:	cld    
  4029b2:	test   DWORD PTR [edi-0x77],esi
  4029b5:	adc    edi,0x1b582335
  4029bb:	sbb    ah,BYTE PTR [edx-0x2f]
  4029be:	repz fld st(4)
  4029c1:	xor    DWORD PTR [ebx],ecx
  4029c3:	mov    ecx,ds
  4029c5:	and    cl,BYTE PTR [edi+0x2d]
  4029c8:	jbe    0x40294f
  4029ca:	pop    ebx
  4029cb:	aad    0xfe
  4029cd:	and    esi,ecx
  4029cf:	cmps   BYTE PTR ds:[esi],BYTE PTR es:[edi]
  4029d0:	xor    ebx,esp
  4029d2:	jbe    0x4029f1
  4029d4:	or     bh,BYTE PTR [ebx+0x67287ea2]
  4029da:	movs   BYTE PTR es:[edi],BYTE PTR ds:[esi]
  4029db:	push   edi
  4029dc:	dec    ebp
  4029dd:	mov    cs,WORD PTR [edi+0x26]
  4029e0:	jbe    0x402967
  4029e2:	pop    ebx
  4029e3:	push   esp
  4029e4:	mov    bl,0x6b
  4029e6:	dec    esp
  4029e7:	dec    esi
  4029e8:	sbb    dh,BYTE PTR [esi+0x16edfa69]
  4029ee:	retf   
  4029ef:	sub    ebp,DWORD PTR [esi]
  4029f1:	aad    0xd8
  4029f3:	aam    0x42
  4029f5:	push   eax
  4029f6:	les    ebp,FWORD PTR [esi+0xcd65389]
  4029fc:	mov    bh,BYTE PTR [ecx]
  4029fe:	fwait
  4029ff:	stos   BYTE PTR es:[edi],al
  402a00:	push   cs
  402a01:	aad    0x5b
  402a03:	push   esp
  402a04:	lea    edi,[edx-0x2f]
  402a07:	add    BYTE PTR [esi-0x762ba389],bl
  402a0d:	daa    
  402a0e:	sub    bl,dh
  402a10:	iret   
  402a11:	xchg   ebp,eax
  402a12:	pop    ebx
  402a13:	aam    0x89
  402a15:	xlat   BYTE PTR ds:[ebx]
  402a16:	dec    edi
  402a17:	fnstenv [ebp+eax*4+0x5b]
  402a1b:	pop    ebp
  402a1c:	iret   
  402a1d:	xchg   BYTE PTR [ebp-0x22],al
  402a20:	sbb    al,0xe6
  402a22:	xor    edx,DWORD PTR [ebp+0x43d616e5]
  402a28:	ds loopne 0x402a63
  402a2b:	movs   BYTE PTR es:[edi],BYTE PTR ds:[esi]
  402a2c:	(bad)  [ecx]
  402a2e:	cmps   BYTE PTR ds:[esi],BYTE PTR es:[edi]
  402a2f:	jge    0x402aaf
  402a31:	or     al,0x5d
  402a33:	mov    esi,0x59e11289
  402a38:	adc    esp,eax
  402a3a:	xor    ebx,DWORD PTR [esp+ebp*8+0x257fd71b]
  402a41:	jp     0x402a4f
  402a43:	fadd   QWORD PTR [eax]
  402a45:	cmp    al,0xa3
  402a47:	test   al,0xb2
  402a49:	popf   
  402a4a:	xor    DWORD PTR [ecx+eiz*8+0x762bb77a],edx
  402a51:	in     eax,dx
  402a52:	call   edx
  402a54:	mov    DWORD PTR [edx-0x33],edi
  402a57:	sub    ecx,DWORD PTR [ecx+0x715f4bd0]
  402a5d:	jg     0x402a65
  402a5f:	sub    esi,DWORD PTR [esi-0x7b]
  402a62:	or     ebx,DWORD PTR [ecx+0x3c]
  402a65:	stos   BYTE PTR es:[edi],al
  402a66:	pop    esp
  402a67:	aam    0x89
  402a69:	cmp    al,0xff
  402a6b:	ror    BYTE PTR [ecx-0x4a70ad86],cl
  402a71:	ins    DWORD PTR es:[edi],dx
  402a72:	rcl    cl,1
  402a74:	mov    DWORD PTR [edx-0x8],edi
  402a77:	jne    0x402a6a
  402a79:	mov    cl,0x7f
  402a7b:	and    BYTE PTR [ecx-0x7d],0xa3
  402a7f:	sub    esi,DWORD PTR [esi+0x6d]
  402a82:	(bad)  
  402a84:	mov    DWORD PTR [edx+0x2a],edi
  402a87:	rcr    DWORD PTR [eax*4+0xf76d431],cl
  402a8e:	ret    
  402a8f:	jl     0x402a1a
  402a91:	shl    BYTE PTR [ebx+0x5f],1
  402a94:	les    edx,FWORD PTR [edx]
  402a96:	int    0x2b
  402a98:	and    bl,ch
  402a9a:	pop    edx
  402a9b:	loope  0x402a4a
  402a9d:	sub    dh,ah
  402a9f:	jge    0x402ac2
  402aa1:	jp     0x402aaf
  402aa3:	clc    
  402aa4:	shr    DWORD PTR ds:0x6d6e7da6,1
  402aaa:	jo     0x402a83
  402aac:	mov    DWORD PTR [edx+0x2a],edi
  402aaf:	ins    DWORD PTR es:[edi],dx
  402ab0:	dec    edx
  402ab1:	or     BYTE PTR [edi-0x2e],bl
  402ab4:	out    dx,eax
  402ab5:	(bad)  
  402ab6:	out    0x3d,eax
  402ab8:	jbe    0x402a5f
  402aba:	sub    al,0xc2
  402abc:	mov    al,0x22
  402abe:	xchg   ebx,eax
  402abf:	pop    edi
  402ac0:	addr16 push cs
  402ac2:	add    esp,eax
  402ac4:	jecxz  0x402b44
  402ac6:	iret   
  402ac7:	sub    eax,DWORD PTR [esi-0x7b]
  402aca:	pop    ebx
  402acb:	sub    edi,ecx
  402acd:	sub    dh,dl
  402acf:	aam    0x23
  402ad1:	xchg   ebp,eax
  402ad2:	(bad)  
  402ad3:	test   eax,0x41f32ae5
  402ad8:	jb     0x402aac
  402ada:	push   cs
  402adb:	sub    ebx,esp
  402add:	jbe    0x402ad2
  402adf:	inc    ecx
  402ae0:	je     0x402ab4
  402ae2:	push   cs
  402ae3:	add    BYTE PTR [edx],0xb5
  402ae6:	sub    dl,al
  402ae8:	test   DWORD PTR [ecx],esp
  402aea:	add    eax,0xff76dc2b
  402aef:	mov    al,ds:0xe81086b8
  402af4:	add    al,0x3
  402af6:	mov    edi,0x4aa521a0
  402afb:	arpl   ax,cx
  402afd:	outs   dx,BYTE PTR ds:[esi]
  402afe:	mov    ds:0x103279d3,al
  402b03:	shr    cl,cl
  402b05:	icebp  
  402b06:	out    dx,al
  402b07:	aas    
  402b08:	repz inc ebp
  402b0a:	das    
  402b0b:	xchg   ebp,eax
  402b0c:	add    bh,BYTE PTR ds:0xf1b6aeaf
  402b12:	popa   
  402b13:	cmp    al,0x18
  402b15:	jle    0x402abe
  402b17:	sub    edi,ebp
  402b19:	dec    ebp
  402b1a:	(bad)  
  402b1b:	xchg   ebx,eax
  402b1c:	lods   eax,DWORD PTR ds:[esi]
  402b1d:	xchg   edx,eax
  402b1e:	shr    BYTE PTR [ecx],1
  402b20:	jbe    0x402aa7
  402b22:	pop    esi
  402b23:	mov    ds:0x3bde859d,eax
  402b28:	std    
  402b29:	cli    
  402b2a:	push   edi
  402b2b:	xlat   BYTE PTR ds:[ebx]
  402b2c:	jb     0x402b4f
  402b2e:	mul    DWORD PTR [eax-0x7af4285e]
  402b34:	fisubr WORD PTR [ebx]
  402b36:	cmc    
  402b37:	inc    ecx
  402b38:	jb     0x402b0e
  402b3a:	add    ch,BYTE PTR [ebx]
  402b3c:	fdiv   QWORD PTR [esi-0x4]
  402b3f:	sbb    BYTE PTR [esi-0x2981512e],dh
  402b45:	icebp  
  402b46:	push   0xffffffd8
  402b48:	sar    BYTE PTR [edx+0xc],cl
  402b4b:	fcom   st(1)
  402b4d:	sbb    esp,DWORD PTR [edx]
  402b4f:	in     al,dx
  402b50:	pop    esi
  402b51:	addr16 call 0xa7bbad93
  402b57:	sub    ebx,DWORD PTR [esi-0x762ba4fc]
  402b5d:	and    cl,bh
  402b5f:	sub    esi,DWORD PTR [esi]
  402b61:	test   DWORD PTR [ebx+0x2b],ebx
  402b64:	cld    
  402b65:	adc    dh,cl
  402b67:	mov    al,ds:0x3cab0e8d
  402b6c:	cmp    DWORD PTR [esi-0x59],0x2b
  402b70:	adc    bh,BYTE PTR [edx+0x6c]
  402b73:	in     al,0x89
  402b75:	jp     0x402b1e
  402b77:	jae    0x402b76
  402b79:	lds    edx,FWORD PTR [edi+0x5f]
  402b7c:	leave  
  402b7d:	jbe    0x402b1b
  402b7f:	jae    0x402bef
  402b81:	icebp  
  402b82:	pop    edi
  402b83:	pop    edi
  402b84:	mov    DWORD PTR [ecx-0x5e855fa2],edx
  402b8a:	pop    esi
  402b8b:	popf   
  402b8c:	mov    ch,0xf1
  402b8e:	aam    0x3
  402b90:	jne    0x402c04
  402b92:	shr    BYTE PTR [ecx+edx*4+0x1037d7f3],1
  402b99:	jb     0x402bb3
  402b9b:	ret    0x5a89
  402b9e:	shl    BYTE PTR [edi],1
  402ba0:	adc    ah,BYTE PTR [ebx+eax*2]
  402ba3:	aam    0x89
  402ba5:	jp     0x402bd1
  402ba7:	imul   eax,DWORD PTR [esi+0xc],0x23
  402bab:	fdiv   QWORD PTR [esi+0x2f]
  402bae:	mov    bl,0xc3
  402bb0:	add    BYTE PTR [edi-0x4c2b2ba5],al
  402bb6:	jmp    DWORD PTR [edx-0x4ab85efe]
  402bbc:	fst    DWORD PTR [edx-0x7a89d068]
  402bc2:	add    edx,DWORD PTR [ebp-0xf]
  402bc5:	and    ah,BYTE PTR [edi+0x2c857629]
  402bcb:	fild   DWORD PTR [edx]
  402bcd:	jle    0x402b52
  402bcf:	in     al,dx
  402bd0:	jb     0x402b73
  402bd2:	pop    ebx
  402bd3:	aam    0x89
  402bd5:	jp     0x402b7d
  402bd7:	pop    esi
  402bd8:	push   edx
  402bd9:	or     DWORD PTR [ebx],0xc7b949e7
  402bdf:	mov    al,ds:0xe82d8685
  402be4:	add    cl,ah
  402be6:	daa    
  402be7:	sub    esi,DWORD PTR [esi-0x7b]
  402bea:	fsub   QWORD PTR [edx]
  402bec:	std    
  402bed:	or     DWORD PTR [edx+0x57fbfdd8],esp
  402bf3:	push   ecx
  402bf4:	jbe    0x402c04
  402bf6:	int    0x28
  402bf8:	(bad)  
  402bf9:	rcr    BYTE PTR [edx-0x7e],cl
  402bfc:	(bad)  
  402bfd:	jmp    DWORD PTR [edi+0x5e]
  402c00:	jb     0x402bd4
  402c02:	pop    edx
  402c03:	or     BYTE PTR [ecx+0xa0f12a],0x95
  402c0a:	pop    esi
  402c0b:	daa    
  402c0c:	add    al,BYTE PTR [eax+ecx*1-0x590f4952]
  402c13:	(bad)  
  402c14:	jle    0x402c07
  402c16:	imul   esi,DWORD PTR [ebp+0x27],0x8dbe0fd5
  402c1d:	sub    edi,esi
  402c1f:	aam    0x23
  402c21:	mov    DWORD PTR ds:0x67ff8f5f,ecx
  402c27:	mov    ebx,0xc41d0ee6
  402c2c:	add    al,0x4e
  402c2e:	mov    ds:0x9b00db7c,al
  402c33:	mov    al,ds:0x2ba7d392
  402c38:	jbe    0x402c3f
  402c3a:	sub    al,0xd0
  402c3c:	add    al,0x3e
  402c3e:	mov    ds:0x5a7a5329,al
  402c43:	aam    0x9
  402c45:	sub    ah,BYTE PTR [esi+0x5a91525e]
  402c4b:	add    BYTE PTR [ecx+0x29cb4ad1],0xdb
  402c52:	add    ecx,DWORD PTR [ebp+0x7cf42add]
  402c58:	mov    eax,edx
  402c5a:	push   edi
  402c5b:	mov    WORD PTR [edx],cs
  402c5d:	mov    esp,0xe4f9c0b3
  402c62:	sahf   
  402c63:	mov    ah,0x2
  402c65:	test   eax,0xf375d92a
  402c6a:	addr16 (bad) 
  402c6c:	fisttp WORD PTR [esi+0x20]
  402c6f:	stc    
  402c70:	jns    0x402c73
  402c72:	int3   
  402c73:	aam    0x89
  402c75:	jp     0x402ca1
  402c77:	movs   DWORD PTR es:[edi],DWORD PTR ds:[esi]
  402c78:	rol    BYTE PTR [ebp-0x33fd2ba5],cl
  402c7e:	pop    es
  402c7f:	sub    esi,DWORD PTR [esi-0x7b]
  402c82:	fsub   QWORD PTR [edx]
  402c84:	xchg   dh,bh
  402c86:	and    al,0x2b
  402c88:	jbe    0x402c0f
  402c8a:	pop    esi
  402c8b:	daa    
  402c8c:	and    al,0xf1
  402c8e:	pop    edi
  402c8f:	sub    BYTE PTR [ebp-0x26ef292b],cl
  402c95:	sub    esi,ebp
  402c97:	jnp    0x402cb5
  402c99:	xor    DWORD PTR [ebx],0xa77a99d4
  402c9f:	jl     0x402c96
  402ca1:	ins    DWORD PTR es:[edi],dx
  402ca2:	pop    edi
  402ca3:	test   bl,ah
  402ca5:	jle    0x402c76
  402ca7:	sub    esp,DWORD PTR [esi-0x7b]
  402caa:	pop    ebx
  402cab:	or     DWORD PTR [eax],0x7e
  402cae:	sub    DWORD PTR [ebx],0x66
  402cb1:	test   DWORD PTR [ebx+0x2b],ebx
  402cb4:	fdiv   QWORD PTR [esi-0x5a]
  402cb7:	jge    0x402d33
  402cb9:	fild   WORD PTR [eax]
  402cbb:	jns    0x402c5f
  402cbd:	mov    dl,0xf4
  402cbf:	mov    al,ds:0x57b054be
  402cc4:	pusha  
  402cc5:	jle    0x402c59
  402cc7:	jmp    0x402cd9
  402cc9:	sub    BYTE PTR ds:0xd34a897d,bh
  402ccf:	and    edx,DWORD PTR [ebx+0x7a]
  402cd2:	dec    edx
  402cd3:	aam    0x89
  402cd5:	jnp    0x402c8a
  402cd7:	sub    al,0x94
  402cd9:	imul   eax,DWORD PTR [eax],0x59
  402cdc:	int    0x5e
  402cde:	mov    ds:0x5ad5247a,eax
  402ce3:	in     eax,0xe1
  402ce5:	jp     0x402c9e
  402ce7:	sub    esi,DWORD PTR [esi-0x2e]
  402cea:	fidivr WORD PTR [ecx*4+0x1e1aa62a]
  402cf1:	test   DWORD PTR [ebx-0x2c],ecx
  402cf4:	mov    DWORD PTR ds:0x85522f24,ebp
  402cfa:	dec    ebx
  402cfb:	aam    0x89
  402cfd:	test   eax,esi
  402cff:	daa    
  402d00:	mov    eax,edx
  402d02:	push   edi
  402d03:	mov    ss,eax
  402d05:	and    bh,bh
  402d07:	scas   al,BYTE PTR es:[edi]
  402d08:	mov    edi,0x4ab5d8f0
  402d0d:	sbb    cl,BYTE PTR [edx+0x2c]
  402d10:	(bad)  [edi-0x5c]
  402d13:	pop    ecx
  402d14:	mov    ebp,0x9ea06279
  402d19:	push   cs
  402d1a:	scas   al,BYTE PTR es:[edi]
  402d1b:	ins    DWORD PTR es:[edi],dx
  402d1c:	cdq    
  402d1d:	jp     0x402cc6
  402d1f:	sub    ebx,DWORD PTR [esi-0x762ba592]
  402d25:	rol    BYTE PTR [esi-0x4c7a89d5],0x35
  402d2c:	jbe    0x402cb3
  402d2e:	cmps   BYTE PTR ds:[esi],BYTE PTR es:[edi]
  402d2f:	jl     0x402d00
  402d31:	sbb    BYTE PTR [ebx-0x2c],0x89
  402d35:	xchg   edx,eax
  402d36:	jno    0x402d0c
  402d38:	mov    DWORD PTR [edx-0x2a],edi
  402d3b:	add    al,0x2
  402d3d:	dec    esi
  402d3e:	adc    DWORD PTR [edx-0x2ba47a81],0x61
  402d45:	mov    ebp,0x9762ba6
  402d4a:	movs   DWORD PTR es:[edi],DWORD PTR ds:[esi]
  402d4b:	pop    edi
  402d4c:	inc    ebx
  402d4d:	xchg   edx,eax
  402d4e:	sbb    esp,edx
  402d50:	mov    DWORD PTR [edx+0x6e],edi
  402d53:	adc    al,0xd9
  402d55:	mov    ebx,0x81b72c6f
  402d5a:	jg     0x402d35
  402d5c:	mov    BYTE PTR [esi-0x7d],bh
  402d5f:	xchg   edx,esi
  402d61:	inc    ebp
  402d62:	sub    al,0x25
  402d64:	shl    ecx,1
  402d66:	pop    esi
  402d67:	adc    BYTE PTR [ebx-0x361a10f],dh
  402d6d:	cmps   DWORD PTR ds:[esi],DWORD PTR es:[edi]
  402d6e:	sub    bl,BYTE PTR [edi]
  402d70:	push   edx
  402d71:	cmp    al,0x51
  402d73:	aam    0x89
  402d75:	jp     0x402dc6
  402d77:	mov    esi,0xc45a7a89
  402d7c:	ds jbe 0x402d70
  402d7f:	jne    0x402da8
  402d81:	cmp    al,0x53
  402d83:	aam    0x89
  402d85:	jp     0x402dd6
  402d87:	scas   al,BYTE PTR es:[edi]
  402d88:	mov    DWORD PTR [edx+0x5a],edi
  402d8b:	mov    fs,WORD PTR [ecx+0x5]
  402d8e:	cmps   BYTE PTR ds:[esi],BYTE PTR es:[edi]
  402d8f:	sub    esi,DWORD PTR [esi+0xf]
  402d92:	das    
  402d93:	lock xchg ebp,eax
  402d95:	sbb    esp,DWORD PTR [edx+0x7a]
  402d98:	mov    bh,0x6d
  402d9a:	inc    esp
  402d9b:	ins    DWORD PTR es:[edi],dx
  402d9c:	test   eax,0x3e2ba77a
  402da1:	icebp  
  402da2:	imul   ebp,DWORD PTR [ebp-0x75],0x7a
  402da6:	cmps   DWORD PTR ds:[esi],DWORD PTR es:[edi]
  402da7:	sub    edi,DWORD PTR [esi]
  402da9:	icebp  
  402daa:	jae    0x402e19
  402dac:	test   eax,0x3e2ba77a
  402db1:	icebp  
  402db2:	jnp    0x402e21
  402db4:	lea    edi,[edx-0x59]
  402db7:	sub    edi,DWORD PTR [esi]
  402db9:	icebp  
  402dba:	inc    ebx
  402dbb:	ins    DWORD PTR es:[edi],dx
  402dbc:	leave  
  402dbd:	jp     0x402d66
  402dbf:	sub    edi,DWORD PTR [esi]
  402dc1:	icebp  
  402dc2:	dec    ebx
  402dc3:	ins    DWORD PTR es:[edi],dx
  402dc4:	lea    edi,[edx-0x59]
  402dc7:	sub    edi,DWORD PTR [esi]
  402dc9:	icebp  
  402dca:	push   ebx
  402dcb:	ins    DWORD PTR es:[edi],dx
  402dcc:	leave  
  402dcd:	jp     0x402d76
  402dcf:	sub    edi,DWORD PTR [esi]
  402dd1:	icebp  
  402dd2:	pop    ebx
  402dd3:	pop    edi
  402dd4:	dec    eax
  402dd5:	and    esp,DWORD PTR [edx+0x4b]
  402dd8:	std    
  402dd9:	shr    BYTE PTR [ebx],1
  402ddb:	push   ebp
  402ddc:	jnp    0x402dc9
  402dde:	dec    ebp
  402ddf:	outs   dx,BYTE PTR ds:[esi]
  402de0:	push   cs
  402de1:	push   cs
  402de2:	adc    al,0xbc
  402de4:	add    al,BYTE PTR [edx+eiz*1+0x2f852e56]
  402deb:	xlat   BYTE PTR ds:[ebx]
  402dec:	mov    BYTE PTR [edi],cl
  402dee:	jmp    DWORD PTR [eax+0x14dce533]
  402df4:	std    
  402df5:	outs   dx,DWORD PTR ds:[esi]
  402df6:	sub    al,0x6d
  402df8:	dec    edx
  402df9:	xlat   BYTE PTR ds:[ebx]
  402dfa:	loope  0x402dcc
  402dfc:	mov    DWORD PTR [edx-0x59],edi
  402dff:	ret    
  402e00:	rol    DWORD PTR [ebx+ebx*2+0x5779d3d4],cl
  402e07:	sub    BYTE PTR [esi-0x3106c52],cl
  402e0d:	and    dl,al
  402e0f:	es jne 0x402e02
  402e12:	pop    es
  402e13:	xlat   BYTE PTR ds:[ebx]
  402e14:	hlt    
  402e15:	mov    ah,BYTE PTR es:[esi+0x2a]
  402e19:	add    BYTE PTR [eax-0x8287d60],dl
  402e1f:	add    BYTE PTR [edi+ebx*8+0x796057f6],dh
  402e26:	inc    ebp
  402e27:	enter  0x4617,0x3b
  402e2b:	push   edi
  402e2c:	hlt    
  402e2d:	cmps   DWORD PTR ss:[esi],DWORD PTR es:[edi]
  402e2f:	pop    edi
  402e30:	fs ins DWORD PTR es:[edi],dx
  402e32:	dec    edx
  402e33:	aam    0x89
  402e35:	jp     0x402e61
  402e37:	push   esi
  402e38:	and    al,BYTE PTR [eax]
  402e3a:	pop    edx
  402e3b:	mov    eax,ds:0x884fd18f
  402e40:	jbe    0x402dc7
  402e42:	pop    ebx
  402e43:	mov    ch,0x4a
  402e45:	sbb    ah,BYTE PTR [esi-0x7cf1b583]
  402e4b:	pop    edi
  402e4c:	cld    
  402e4d:	sub    ch,BYTE PTR ss:[esi+0x26]
  402e51:	aad    0xb
  402e53:	mov    esp,0x2bab7a89
  402e58:	and    eax,0xd0940c7a
  402e5d:	sub    ch,BYTE PTR [edx]
  402e5f:	rol    DWORD PTR [ebp-0x76134cdf],cl
  402e65:	jp     0x402e0e
  402e67:	arpl   di,di
  402e69:	sar    DWORD PTR [edi-0xc],0x2
  402e6d:	sub    BYTE PTR [eax],0x27
  402e70:	retf   
  402e71:	sbb    DWORD PTR [ebx-0x2c],0x33041e89
  402e78:	jbe    0x402dff
  402e7a:	pop    ebx
  402e7b:	pop    edi
  402e7c:	stc    
  402e7d:	push   esi
  402e7e:	hlt    
  402e7f:	inc    ebx
  402e80:	jbe    0x402e07
  402e82:	push   edi
  402e83:	aam    0xda
  402e85:	test   eax,esi
  402e87:	imul   edi,ebx,0xffffff89
  402e8a:	jecxz  0x402ee7
  402e8c:	mov    BYTE PTR [edx],ch
  402e8e:	sub    ah,ah
  402e90:	std    
  402e91:	jge    0x402e41
  402e93:	jno    0x402e82
  402e95:	fstp   TBYTE PTR [edi-0x357a89d5]
  402e9b:	xchg   esp,eax
  402e9c:	movs   DWORD PTR es:[edi],DWORD PTR ds:[esi]
  402e9d:	sbb    esp,DWORD PTR [edx+0x4b]
  402ea0:	imul   DWORD PTR [ecx+0x7b]
  402ea3:	(bad)  
  402ea4:	mov    DWORD PTR [edx-0x31],edi
  402ea7:	pcmpeqb mm0,QWORD PTR [ebp+0x107fe75b]
  402eae:	cmps   DWORD PTR ds:[esi],DWORD PTR es:[edi]
  402eaf:	inc    ecx
  402eb0:	jle    0x402f2c
  402eb2:	or     al,0xc8
  402eb4:	add    ah,BYTE PTR [edx-0x2f76870d]
  402eba:	outs   dx,DWORD PTR ds:[esi]
  402ebb:	pop    edi
  402ebc:	int    0x5e
  402ebe:	mov    ebx,0xd6b93628
  402ec3:	push   esp
  402ec4:	dec    ecx
  402ec5:	jp     0x402e6e
  402ec7:	sub    esi,ebx
  402ec9:	inc    ebp
  402eca:	das    
  402ecb:	aad    0xcf
  402ecd:	cs repnz aam 0x23
  402ed1:	mov    ebp,0x9ffc14dc
  402ed6:	repnz aam 0x23
  402ed9:	popf   
  402eda:	fcom   DWORD PTR [eax]
  402edc:	lods   eax,DWORD PTR ds:[esi]
  402edd:	js     0x402e86
  402edf:	sub    edi,edi
  402ee1:	icebp  
  402ee2:	jg     0x402eac
  402ee4:	call   0x1a83f6a2
  402ee9:	jmp    0x9220349
  402eee:	rol    DWORD PTR ds:0xa734ed12,cl
  402ef4:	call   FWORD PTR [ecx]
  402ef6:	repz aam 0x23
  402ef9:	sbb    esp,0xf372fc14
  402eff:	aam    0x23
  402f01:	test   esp,ebx
  402f03:	adc    al,0xfd
  402f05:	aaa    
  402f06:	int    0x2b
  402f08:	push   ds
  402f09:	in     al,dx
  402f0a:	xor    eax,0xc112efa0
  402f0f:	pop    esp
  402f10:	push   es
  402f11:	test   DWORD PTR [edi],0xaf2f7684
  402f17:	test   al,0xb2
  402f19:	mov    esi,edx
  402f1b:	and    al,0xd9
  402f1d:	cs int 0x6b
  402f20:	sbb    al,0x82
  402f22:	or     eax,0xff76dc2b
  402f27:	jnp    0x402f4b
  402f29:	aad    0x31
  402f2b:	rcr    edi,cl
  402f2d:	xchg   edx,eax
  402f2e:	sub    DWORD PTR [ebx],0xe8d68576
  402f34:	lods   eax,DWORD PTR ds:[esi]
  402f35:	sti    
  402f36:	outs   dx,BYTE PTR ds:[esi]
  402f37:	cmp    DWORD PTR [esi-0x7b],esi
  402f3a:	pop    ebx
  402f3b:	mov    esi,0x8f52238e
  402f40:	xor    DWORD PTR [esi],ecx
  402f42:	popf   
  402f43:	jg     0x402f49
  402f45:	add    al,0x5c
  402f47:	fwait
  402f48:	push   ds
  402f49:	das    
  402f4a:	add    edi,DWORD PTR [edi+0x39]
  402f4d:	mov    ecx,0x8923d40d
  402f52:	add    edx,DWORD PTR [edi+0x4d]
  402f55:	jbe    0x402f1b
  402f57:	call   0x81cba98a
  402f5c:	popa   
  402f5d:	in     al,0xa7
  402f5f:	sub    esi,DWORD PTR [esi-0x28]
  402f62:	aam    0x91
  402f64:	stc    
  402f65:	stc    
  402f66:	addr16 das 
  402f68:	inc    ecx
  402f6a:	jg     0x402f30
  402f6c:	aam    0x7a
  402f6e:	cmps   DWORD PTR ds:[esi],DWORD PTR es:[edi]
  402f6f:	sub    esi,DWORD PTR [esi-0x7b]
  402f72:	pop    ebx
  402f73:	aam    0xe1
  402f75:	jp     0x402f1e
  402f77:	sub    esi,DWORD PTR [esi+0x46]
  402f7a:	cmp    eax,0x1d1c7fe7
  402f7f:	data16 sub al,0xe3
  402f82:	hlt    
  402f83:	mov    dl,0xba
  402f85:	stos   BYTE PTR es:[edi],al
  402f86:	shl    DWORD PTR [ebx],cl
  402f88:	imul   DWORD PTR [ebx+0x59]
  402f8b:	les    ecx,FWORD PTR [ecx-0x439b586]
  402f91:	(bad)  [ebp+0x540f7650]
  402f97:	mov    al,ds:0x6e3dbf00
  402f9c:	fnstcw WORD PTR [edi]
  402f9e:	sub    BYTE PTR [edi],bl
  402fa0:	push   0xbab2f4e3
  402fa5:	stos   BYTE PTR es:[edi],al
  402fa6:	ror    bl,1
  402fa8:	mov    ch,0xd4
  402faa:	outs   dx,BYTE PTR ds:[esi]
  402fab:	sbb    eax,0x536551c8
  402fb0:	jb     0x402fa3
  402fb2:	pop    ecx
  402fb3:	aas    
  402fb4:	jle    0x402fff
  402fb6:	sub    BYTE PTR [si-0x5899],dh
  402fbb:	lea    ecx,[edx-0xf]
  402fbe:	fadd   DWORD PTR [ebx+0x1c]
  402fc1:	xor    DWORD PTR [ebx],0xa77a99d4
  402fc7:	jl     0x402fe5
  402fc9:	test   DWORD PTR [edx-0x7e],ebx
  402fcc:	cdq    
  402fcd:	icebp  
  402fce:	push   edi
  402fcf:	stos   BYTE PTR es:[edi],al
  402fd0:	call   0x5bf1:0x89d45881
  402fd7:	inc    ebx
  402fd8:	jb     0x402f5e
  402fda:	pop    ebx
  402fdb:	aam    0xde
  402fdd:	sub    DWORD PTR [esi+0x5bef567d],esp
  402fe3:	mov    esp,0x2ba77a09
  402fe8:	sbb    al,0x86
  402fea:	xor    esp,edx
  402fec:	jecxz  0x403069
  402fee:	iret   
  402fef:	sub    esi,DWORD PTR [esi-0x7b]
  402ff2:	fild   DWORD PTR [ebx-0x557cd08a]
  402ff8:	mov    dl,0x81
  402ffa:	pop    eax
  402ffb:	aam    0x89
  402ffd:	mov    ecx,0x55897337
  403002:	cmps   BYTE PTR ds:[esi],BYTE PTR es:[edi]
  403003:	add    BYTE PTR [ebx],ch
  403005:	sbb    ebp,DWORD PTR ds:0x14c87217
  40300b:	ins    BYTE PTR es:[edi],dx
  40300c:	es mov dh,0x78
  40300f:	adc    bh,ch
  403011:	add    edi,DWORD PTR [ebx+0x58]
  403014:	rcr    DWORD PTR [eax],0x44
  403017:	pop    ecx
  403018:	scas   eax,DWORD PTR es:[edi]
  403019:	sahf   
  40301a:	mov    ebx,0x3a165768
  40301f:	test   edx,ebp
  403021:	push   ecx
  403022:	fwait
  403023:	test   eax,0xdb467fe6
  403029:	xchg   edx,eax
  40302a:	movs   DWORD PTR es:[edi],DWORD PTR ds:[esi]
  40302b:	sbb    eax,0x47e1ff23
  403030:	in     al,dx
  403031:	lods   al,BYTE PTR ds:[esi]
  403032:	push   ebx
  403033:	push   edi
  403034:	sbb    ch,0x1c
  403037:	int    0x60
  403039:	test   BYTE PTR [ebx],bl
  40303b:	enter  0xf188,0x1a
  40303f:	arpl   WORD PTR [edx+eax*2+0x5cd56bd4],dx
  403046:	movs   DWORD PTR es:[edi],DWORD PTR ds:[esi]
  403047:	mov    eax,0xd45b3249
  40304c:	mov    DWORD PTR [edx-0x59],edi
  40304f:	sub    esi,DWORD PTR [esi-0x7b]
  403052:	pop    ebx
  403053:	aam    0x89
  403055:	jp     0x402ffe
  403057:	sub    esi,DWORD PTR [esi-0x7b]
  40305a:	pop    ebx
  40305b:	aam    0x89
  40305d:	jp     0x403006
  40305f:	sub    esi,DWORD PTR [esi-0x7b]
  403062:	pop    ebx
  403063:	aam    0x89
  403065:	jp     0x40305e
  403067:	lods   al,BYTE PTR ds:[esi]
  403068:	ja     0x402fef
  40306a:	pop    ebx
  40306b:	push   es
  40306c:	lea    edi,[edx-0x59]
  40306f:	das    
  403070:	jbe    0x402ff7
  403072:	xchg   esi,eax
  403073:	jmp    0xc116:0xd6487845
  40307a:	jle    0x403019
  40307c:	or     ebx,DWORD PTR [ecx+0x6e9dca51]
  403082:	pop    ecx
  403083:	pusha  
