
dd8bc8d93772f48001f9340377ca6302740f723d7aa7f6bf7a59e110094f836d.exe:     file format pei-i386


Disassembly of section .text:

00411000 <.text>:
  411000:	add    DWORD PTR [eax+0x4],0xd20005c0
  411007:	sbb    BYTE PTR [eax+eax*1-0x7efacf58],al
  41100e:	add    al,0x5
  411010:	add    al,0x2
  411012:	push   edx
  411013:	or     BYTE PTR [edx],dl
  411015:	or     BYTE PTR [ecx+0x12],ah
  411018:	sbb    DWORD PTR [ecx],edx
  41101a:	adc    BYTE PTR [eax+0x283c4501],al
  411020:	add    al,0x42
  411022:	add    al,BYTE PTR [edx-0x78]
  411025:	dec    esi
  411026:	gs pop es
  411028:	adc    DWORD PTR [eax+0x0],edx
  41102b:	add    al,0x2
  41102d:	push   edx
  41102e:	and    DWORD PTR [ebp+0x4a],eax
  411031:	or     BYTE PTR [ebx+0x12000060],al
  411037:	xchg   DWORD PTR [eax],ebp
  411039:	pusha  
  41103a:	pusha  
  41103b:	add    BYTE PTR [eax],ah
  41103d:	add    DWORD PTR [edx],edx
  41103f:	push   ds
  411040:	push   es
  411041:	add    DWORD PTR [ebp+0x2a660013],esp
  411047:	mov    eax,ds:0x90183289
  41104c:	and    DWORD PTR [edx],edi
  41104e:	and    DWORD PTR [edx+0x48849840],esi
  411054:	add    al,0x0
  411056:	add    BYTE PTR [esi],ch
  411058:	add    BYTE PTR [esi+0x8],dl
  41105b:	cmps   BYTE PTR ds:[esi],BYTE PTR es:[edi]
  41105c:	dec    esi
  41105d:	push   es
  41105e:	add    BYTE PTR [eax],al
  411060:	clc    
  411061:	js     0x410ff5
  411063:	and    BYTE PTR [eax],bl
  411065:	adc    BYTE PTR [eax+0x1540104],dl
  41106b:	shl    DWORD PTR [esi],1
  41106d:	xor    bl,BYTE PTR [eax-0x54ff9fb6]
  411073:	push   ss
  411074:	inc    eax
  411075:	add    BYTE PTR [ecx],ah
  411077:	add    DWORD PTR [eax+0x5ca00d25],0x81043b
  411081:	add    BYTE PTR [eax],0x9
  411084:	adc    BYTE PTR [ecx+0x148a414e],ch
  41108a:	adc    BYTE PTR [eax+eax*1],cl
  41108d:	add    DWORD PTR [eax-0x60],eax
  411090:	inc    edx
  411091:	add    BYTE PTR [esi],0x2
  411094:	movs   DWORD PTR es:[edi],DWORD PTR ds:[esi]
  411095:	add    BYTE PTR ds:0x40c211bb,al
  41109b:	jb     0x41105d
  41109d:	or     BYTE PTR [edx+0x40],al
  4110a0:	mov    ah,0x41
  4110a2:	push   es
  4110a3:	add    cl,BYTE PTR [esi-0x7c]
  4110a6:	add    BYTE PTR [eax],ah
  4110a8:	sub    BYTE PTR [eax+0x32090185],al
  4110ae:	add    BYTE PTR [ecx],cl
  4110b0:	or     al,0x84
  4110b2:	add    al,0x54
  4110b4:	data16 add al,ah
  4110b7:	xchg   BYTE PTR ds:0x30a1041e,ah
  4110bd:	inc    eax
  4110be:	adc    BYTE PTR [ecx],ah
  4110c0:	xor    BYTE PTR [eax],al
  4110c2:	adc    BYTE PTR [eax],al
  4110c4:	ror    BYTE PTR [eax+edx*1+0x258d5505],1
  4110cb:	add    al,al
  4110cd:	dec    eax
  4110ce:	or     BYTE PTR [ecx+0x281c052],al
  4110d4:	push   es
  4110d5:	adc    BYTE PTR [edx],ah
  4110d7:	lock adc ecx,DWORD PTR [eax+eax*1]
  4110db:	adc    ah,BYTE PTR [eax]
  4110dd:	add    DWORD PTR [eax-0x7ff5fffd],eax
  4110e3:	and    al,0x15
  4110e5:	inc    eax
  4110e6:	shl    BYTE PTR [eax+0xc514610],0x42
  4110ed:	mov    al,0x70
  4110ef:	and    al,0x4e
  4110f1:	fs or  al,0x8
  4110f4:	add    eax,DWORD PTR [edx]
  4110f6:	add    dl,cl
  4110f8:	or     DWORD PTR [eax],0x806d012e
  4110fe:	(bad)  
  4110ff:	leave  
  411100:	add    dh,BYTE PTR [edx+0x4]
  411103:	xlat   BYTE PTR ds:[ebx]
  411104:	nop
  411105:	xchg   BYTE PTR [eax],al
  411107:	adc    ecx,DWORD PTR [ecx]
  411109:	and    BYTE PTR [eax+0x12],dl
  41110c:	or     BYTE PTR [eax+0x22],ah
  41110f:	or     DWORD PTR [eax],ebp
  411111:	dec    ecx
  411112:	mov    BYTE PTR [ebx],0x63
  411115:	ror    BYTE PTR [eax+0x9100a08],0x88
  41111c:	add    BYTE PTR [eax],al
  41111e:	or     edx,DWORD PTR [eax+0x8022903]
  411124:	rol    BYTE PTR [ecx-0x7edb6ffc],1
  41112a:	mov    eax,ds:0x4464000
  41112f:	add    al,0x9
  411131:	push   cs
  411132:	xchg   edx,eax
  411133:	add    BYTE PTR [ecx],al
  411135:	add    ecx,eax
  411137:	mov    al,ds:0x84404e30
  41113c:	or     DWORD PTR [eax+0x11],eax
  41113f:	add    al,0x98
  411141:	inc    edx
  411142:	add    BYTE PTR [eax+eax*1+0x22],ch
  411146:	adc    DWORD PTR [edx],eax
  411148:	and    esp,DWORD PTR [ecx+eax*8]
  41114b:	add    BYTE PTR [eax],dl
  41114d:	int    0x10
  41114f:	add    BYTE PTR [eax],bl
  411151:	add    BYTE PTR [ecx-0x3f],0x0
  411155:	or     al,0x41
  411157:	adc    BYTE PTR [eax],dl
  411159:	add    BYTE PTR [edi],0x34
  41115c:	and    BYTE PTR [eax+0x464c0d44],al
  411162:	add    BYTE PTR [eax+0x58040216],0x0
  411169:	inc    ecx
  41116a:	adc    al,0x2
  41116c:	or     BYTE PTR [eax],al
  41116e:	dec    eax
  41116f:	sub    BYTE PTR [ebp+0x12],al
  411172:	push   cs
  411173:	leave  
  411174:	and    cl,BYTE PTR [eax]
  411176:	adc    BYTE PTR [edx],dl
  411178:	add    eax,0xa4260a54
  41117d:	rol    BYTE PTR [eax+0x9],1
  411180:	or     BYTE PTR [eax],0x0
  411183:	adc    al,0x14
  411185:	pop    es
  411186:	xor    al,BYTE PTR [ebp+0x68]
  411189:	and    BYTE PTR [ecx],ch
  41118b:	xor    DWORD PTR [eax],ebx
  41118d:	push   edx
  41118e:	test   BYTE PTR [edx],al
  411190:	or     BYTE PTR [eax],ah
  411192:	xchg   ebp,eax
  411193:	pop    eax
  411194:	es loopne 0x4111b9
  411197:	or     DWORD PTR [edx],0x424004c4
  41119d:	sub    al,BYTE PTR [ecx]
  41119f:	add    BYTE PTR [eax],al
  4111a1:	add    BYTE PTR [eax+0x0],ah
  4111a4:	cmp    BYTE PTR [ebx],al
  4111a6:	enter  0x4140,0x88
  4111aa:	add    al,al
  4111ac:	add    dl,BYTE PTR [esi]
  4111ae:	cmp    DWORD PTR [eax+0x0],ecx
  4111b1:	add    BYTE PTR [ebx],ah
  4111b3:	add    eax,0x80c1d12
  4111b8:	sbb    BYTE PTR [eax],ah
  4111ba:	and    cl,BYTE PTR [eax]
  4111bc:	add    ebx,DWORD PTR [ecx]
  4111be:	and    BYTE PTR [eax+eax*8+0x207a024],al
  4111c5:	sbb    BYTE PTR [edx-0x40],0xb0
  4111c9:	shl    BYTE PTR [edx-0x2a5492f9],0x84
  4111d0:	add    eax,0x82090c22
  4111d5:	or     esp,DWORD PTR [edx]
  4111d7:	and    al,0x60
  4111d9:	sbb    BYTE PTR [eax+0x58050480],dl
  4111df:	add    DWORD PTR [eax-0x80],ecx
  4111e2:	and    al,0x19
  4111e4:	adc    BYTE PTR [eax+0xe],0x80
  4111e8:	lds    eax,FWORD PTR [edi-0x4f736ff0]
  4111ee:	add    BYTE PTR [eax+0x40],cl
  4111f1:	push   ss
  4111f2:	or     BYTE PTR [edx-0x50],al
  4111f5:	adc    al,0x0
  4111f7:	inc    ecx
  4111f8:	inc    esi
  4111f9:	adc    BYTE PTR [ebx],al
  4111fb:	or     al,0x2
  4111fd:	dec    ecx
  4111fe:	scas   al,BYTE PTR es:[edi]
  4111ff:	inc    eax
  411200:	or     DWORD PTR [eax+edx*2],0x21
  411204:	inc    eax
  411205:	cwde   
  411206:	and    al,BYTE PTR [ecx]
  411208:	or     BYTE PTR ds:0xd844012,cl
  41120e:	or     eax,0x16c10c2
  411213:	adc    BYTE PTR [ecx+0x9],ah
  411216:	popa   
  411217:	mov    BYTE PTR [eax],cl
  411219:	add    al,0xe0
  41121b:	adc    BYTE PTR [eax+eiz*4],0x68
  41121f:	or     DWORD PTR [edx+ebp*1],ebp
  411222:	add    eax,edx
  411224:	pusha  
  411225:	and    BYTE PTR [edx-0x1d],al
  411228:	adc    BYTE PTR [eax+0x1],al
  41122b:	add    BYTE PTR [eax],cl
  41122d:	rcr    DWORD PTR [esi],1
  41122f:	add    BYTE PTR [edx+0x4029042],ah
  411235:	add    DWORD PTR ds:0x885c406a,eax
  41123b:	pusha  
  41123c:	dec    edx
  41123d:	or     BYTE PTR [eax],al
  41123f:	xchg   BYTE PTR [eax+0x68],al
  411242:	or     BYTE PTR [eax],dh
  411244:	pop    es
  411245:	push   es
  411246:	add    DWORD PTR [eax+0x5],ecx
  411249:	or     DWORD PTR [eax+0x24802010],ebx
  41124f:	push   0x9101062
  411254:	and    eax,0x1d409813
  411259:	add    BYTE PTR [edx],dl
  41125b:	inc    ebx
  41125c:	push   es
  41125d:	sub    cl,cl
  41125f:	add    al,BYTE PTR [eax]
  411261:	cwde   
  411262:	sbb    BYTE PTR [eax],al
  411264:	sbb    BYTE PTR [eax],dh
  411266:	push   es
  411267:	add    DWORD PTR [edx+0x0],eax
  41126a:	fs or  esp,eax
  41126d:	dec    eax
  41126e:	or     DWORD PTR [eax+ebp*2],esi
  411271:	inc    esi
  411272:	add    al,0x2a
  411274:	xchg   edi,eax
  411275:	jnp    0x411279
  411277:	and    BYTE PTR [esi],0x88
  41127a:	and    dh,BYTE PTR [ecx-0x68]
  41127d:	mov    al,0x75
  41127f:	add    al,BYTE PTR [eax+eax*1-0x58]
  411283:	push   es
  411284:	and    al,0x10
  411286:	(bad)  
  411287:	push   ecx
  411288:	add    BYTE PTR [esp+ecx*1],al
  41128b:	test   al,0x8
  41128d:	add    BYTE PTR [eax-0x6fbdd7b0],dl
  411293:	shl    BYTE PTR [ebp+0x20d0c18],0x22
  41129a:	shl    DWORD PTR [ecx+0x14],0x7
  41129e:	or     DWORD PTR [eax+0x4606002d],eax
  4112a4:	push   es
  4112a5:	add    BYTE PTR [edx+ecx*1],al
  4112a8:	and    al,0x0
  4112aa:	add    BYTE PTR [edx+edx*1],bl
  4112ad:	or     BYTE PTR [edi+esi*2],ch
  4112b0:	inc    eax
  4112b1:	add    BYTE PTR [edx],al
  4112b3:	xchg   ecx,eax
  4112b4:	push   es
  4112b5:	dec    eax
  4112b6:	add    BYTE PTR [eax],0x5
  4112b9:	adc    bh,ch
  4112bb:	push   ss
  4112bc:	add    al,0x2c
  4112be:	or     BYTE PTR [eax+eiz*1],0x90
  4112c2:	ins    BYTE PTR es:[edi],dx
  4112c3:	and    ah,BYTE PTR [edx]
  4112c5:	add    esi,ecx
  4112c7:	add    BYTE PTR ds:0x48180c,dh
  4112cd:	add    eax,0xb24c0402
  4112d2:	mov    BYTE PTR [eax],ah
  4112d4:	jl     0x4112dd
  4112d6:	adc    al,0x1f
  4112d8:	fs retf 0xa02
  4112dc:	sbb    DWORD PTR [eax-0x6dbebff0],eax
  4112e2:	add    BYTE PTR [edx+ecx*1],bh
  4112e5:	add    BYTE PTR [edx+eiz*1],ah
  4112e8:	add    DWORD PTR [eax],eax
  4112ea:	or     DWORD PTR [esi+0x10810],0x8000049c
  4112f4:	sbb    al,0x0
  4112f6:	ja     0x41130e
  4112f8:	and    eax,0x20201088
  4112fd:	or     BYTE PTR [esi+ecx*1],al
  411300:	push   ecx
  411301:	add    BYTE PTR [edx],al
  411303:	add    BYTE PTR [eax],al
  411305:	inc    esp
  411306:	push   ebp
  411307:	add    DWORD PTR [edi+ecx*1],eax
  41130a:	inc    eax
  41130b:	lea    ecx,[ecx]
  41130d:	sub    BYTE PTR [ecx+eax*2],al
  411310:	mov    al,ds:0xaa810000
  411315:	int3   
  411316:	add    cl,BYTE PTR [edx+0x30280220]
  41131c:	add    eax,0x8204a083
  411321:	(bad)  
  411322:	dec    esp
  411323:	add    BYTE PTR [eax+eiz*1],ch
  411326:	or     BYTE PTR [eax+0x50443409],0xc4
  41132d:	add    al,0x21
  41132f:	add    BYTE PTR ds:0x101102c8,cl
  411335:	add    BYTE PTR [bx+di+0x9],al
  411339:	push   ss
  41133a:	test   al,0x6d
  41133c:	or     al,0x54
  41133e:	xchg   BYTE PTR [eax],al
  411340:	adc    BYTE PTR [edx+0x11],ah
  411343:	inc    esi
  411344:	xor    al,BYTE PTR [ebx]
  411346:	add    dh,ah
  411348:	adc    BYTE PTR es:[eax+0x80410c],al
  41134f:	and    dl,BYTE PTR [eax]
  411351:	and    BYTE PTR [eax+edx*8+0x50],ah
  411355:	add    BYTE PTR [edx],al
  411357:	add    al,0x0
  411359:	or     BYTE PTR [eax],al
  41135b:	add    dl,BYTE PTR ds:0x400080ea
  411361:	or     BYTE PTR [eax],al
  411363:	and    DWORD PTR [eax+0x17],edx
  411366:	add    BYTE PTR [ecx+0x42010606],al
  41136c:	add    BYTE PTR [eax],cl
  41136e:	jo     0x41137f
  411370:	sub    BYTE PTR [edi],0x84
  411373:	and    BYTE PTR [eax+0x1080c68],0xa1
  41137a:	add    BYTE PTR [edx],al
  41137c:	and    DWORD PTR [edx],eax
  41137e:	add    cl,BYTE PTR [ecx]
  411380:	cmp    cl,BYTE PTR [edx]
  411382:	adc    al,0x80
  411384:	adc    BYTE PTR [eax+0x48744c00],al
  41138a:	cmp    edx,0x50463016
  411390:	add    eax,0x18102605
  411395:	or     al,0x59
  411397:	adc    al,dl
  411399:	add    al,0x32
  41139b:	xchg   edx,eax
  41139c:	les    eax,FWORD PTR [eax]
  41139e:	adc    DWORD PTR [ecx+0xd01],ecx
  4113a4:	adc    al,BYTE PTR [ebp+0x138a641]
  4113aa:	pop    es
  4113ab:	add    DWORD PTR [eax-0x3e],eax
  4113ae:	add    BYTE PTR [eax+0x50],0xf4
  4113b2:	add    DWORD PTR [ecx],ecx
  4113b4:	add    al,0x45
  4113b6:	sub    eax,0x180091
  4113bb:	add    dl,al
  4113bd:	add    eax,0x40320400
  4113c2:	sub    DWORD PTR [eax+0x8],ecx
  4113c5:	inc    ecx
  4113c6:	or     BYTE PTR [eax],bl
  4113c8:	or     DWORD PTR [eax],esp
  4113ca:	mov    al,ds:0x8080e08
  4113cf:	adc    al,0x1
  4113d1:	xor    BYTE PTR [ecx],0xc
  4113d4:	adc    BYTE PTR [edx],cl
  4113d6:	sbb    BYTE PTR [eax-0x60],al
  4113d9:	cwde   
  4113da:	enter  0x8092,0x85
  4113de:	or     BYTE PTR [ecx+edx*1],0x2
  4113e2:	add    al,BYTE PTR [ecx]
  4113e4:	add    BYTE PTR [edx+0x8],al
  4113e7:	jmp    0x411401
  4113e9:	nop
  4113ea:	or     BYTE PTR [eax+0x22],cl
  4113ed:	sub    DWORD PTR [esi+eiz*1],ecx
  4113f0:	arpl   WORD PTR [eax+ecx*1],ax
  4113f3:	inc    eax
  4113f4:	adc    al,BYTE PTR [eax]
  4113f6:	push   es
  4113f7:	xchg   ecx,eax
  4113f8:	inc    eax
  4113f9:	add    cl,BYTE PTR [eax+0x18]
  4113fc:	or     BYTE PTR [ecx],al
  4113fe:	add    eax,DWORD PTR [ecx+eax*1]
  411401:	or     BYTE PTR [ecx-0x5fbf79bc],0x8d
  411408:	push   ebx
  411409:	xor    BYTE PTR [esi],dh
  41140b:	inc    esi
  41140c:	or     esp,DWORD PTR [ecx+ecx*2-0x64]
  411410:	add    BYTE PTR [eax+ebx*4],bh
  411413:	inc    edx
  411414:	nop
  411415:	dec    esp
  411416:	add    BYTE PTR [eax],cl
  411418:	add    al,BYTE PTR [ebp+0x50]
  41141b:	add    BYTE PTR [eax],cl
  41141d:	add    BYTE PTR [edx],0x6a
  411420:	add    al,0x4
  411423:	add    eax,0x26bbc07
  411428:	or     DWORD PTR [eax],esp
  41142a:	add    BYTE PTR [ecx+edx*1+0x22],0x55
  41142f:	add    eax,eax
  411431:	dec    eax
  411432:	sbb    BYTE PTR ds:0xc818020e,al
  411438:	inc    esp
  411439:	add    al,0x2c
  41143b:	pusha  
  41143c:	mov    cl,0x8c
  41143e:	pushf  
  41143f:	add    BYTE PTR [eax+0x1],0x36
  411443:	xchg   edx,eax
  411444:	add    al,BYTE PTR [eax+0x8]
  411447:	jo     0x411449
  411449:	test   DWORD PTR [ebp-0x3fe9edd0],eax
  41144f:	add    BYTE PTR [edi+eax*2+0x20],dh
  411453:	or     BYTE PTR [eax],al
  411455:	or     BYTE PTR [ecx],al
  411457:	adc    al,BYTE PTR [eax+eax*1]
  41145a:	sub    al,dh
  41145c:	nop
  41145d:	and    BYTE PTR [eax],al
  41145f:	xchg   edx,eax
  411460:	pushf  
  411461:	and    BYTE PTR [esi],bl
  411463:	sub    al,0x96
  411465:	loop   0x4113e8
  411467:	add    BYTE PTR [edx+eax*1-0x673fe7fe],cl
  41146e:	or     eax,0x31020e68
  411473:	popa   
  411474:	sbb    BYTE PTR [edx+0x302a416],al
  41147a:	adc    edx,ecx
  41147c:	int3   
  41147d:	xchg   BYTE PTR [ecx+eax*1],al
  411480:	cmp    BYTE PTR [ecx],al
  411482:	bound  eax,QWORD PTR [ebp+eiz*8+0x18]
  411486:	xor    BYTE PTR [eax+0x52210812],al
  41148c:	add    BYTE PTR es:[eax],al
  41148f:	and    BYTE PTR [ecx+0x25],al
  411492:	adc    dl,dl
  411494:	dec    edx
  411495:	pop    eax
  411496:	adc    bh,BYTE PTR [ebp-0x6fdf0000]
  41149c:	inc    eax
  41149d:	and    BYTE PTR [ecx+0x45],ah
  4114a0:	and    edx,DWORD PTR [ecx]
  4114a2:	mov    al,ds:0xa0c80411
  4114a7:	sub    al,0x68
  4114a9:	loopne 0x4114ad
  4114ab:	and    BYTE PTR [ecx],ah
  4114ad:	and    al,BYTE PTR [eax+0xa40d100]
  4114b3:	dec    eax
  4114b4:	add    BYTE PTR [eax],bl
  4114b6:	shl    BYTE PTR [edx],0x6
  4114b9:	add    al,0x8a
  4114bb:	adc    eax,0x18800
  4114c0:	and    BYTE PTR [ebx],ah
  4114c2:	ret    0x540
  4114c5:	add    BYTE PTR [ecx+eax*4],dl
  4114c8:	add    BYTE PTR [edx+0x0],ah
  4114cb:	adc    BYTE PTR [ebx],cl
  4114cd:	and    al,BYTE PTR [esp+ecx*1-0x80]
  4114d1:	or     al,0x68
  4114d3:	inc    eax
  4114d4:	test   BYTE PTR [ebx+edx*2],cl
  4114d7:	add    BYTE PTR [eax],al
  4114d9:	mov    bh,0x30
  4114db:	inc    ecx
  4114dc:	inc    ecx
  4114dd:	and    BYTE PTR [edx],al
  4114df:	adc    al,BYTE PTR [eax+esi*1]
  4114e2:	add    BYTE PTR [eax],al
  4114e4:	pusha  
  4114e5:	inc    eax
  4114e6:	add    al,0x5
  4114e8:	or     ah,BYTE PTR [ebx-0x4c]
  4114eb:	rcl    BYTE PTR [eax+0x20004008],1
  4114f1:	or     BYTE PTR [edi+eiz*8],al
  4114f4:	push   0xc40
  4114f9:	add    al,BYTE PTR [eax]
  4114fb:	mov    al,ds:0x288234
  411500:	add    al,0x3
  411502:	or     al,ch
  411504:	mov    DWORD PTR [eax],0x404008
  41150a:	test   cl,cl
  41150c:	add    eax,ecx
  41150e:	inc    ecx
  41150f:	adc    BYTE PTR [eax],bl
  411511:	add    al,0x22
  411513:	ret    
  411514:	in     al,0x0
  411516:	inc    ebx
  411517:	dec    eax
  411518:	dec    eax
  411519:	inc    edi
  41151a:	adc    al,0x6
  41151c:	inc    esp
  41151d:	xchg   edi,eax
  41151e:	add    DWORD PTR [eax],ecx
  411520:	add    BYTE PTR [edx+0x4],al
  411523:	add    BYTE PTR [eax+0x9],dl
  411526:	or     BYTE PTR [eax],dl
  411528:	adc    eax,0x8608245d
  41152d:	sbb    BYTE PTR [edx+0x38220a00],dl
  411533:	lods   eax,DWORD PTR ds:[esi]
  411534:	dec    eax
  411535:	adc    al,0x1
  411537:	adc    BYTE PTR [edx],cl
  411539:	inc    eax
  41153a:	inc    esp
  41153b:	and    eax,DWORD PTR [eax]
  41153d:	and    BYTE PTR ds:0xb4492619,bl
  411543:	add    BYTE PTR [eax],al
  411545:	push   esp
  411546:	adc    BYTE PTR [ecx+0x43041c9e],dl
  41154c:	xchg   BYTE PTR [eax],ah
  41154e:	or     DWORD PTR [eax],esp
  411550:	add    ch,ch
  411552:	add    DWORD PTR [esi+0x20],eax
  411555:	or     BYTE PTR [eax+0x36],al
  411558:	inc    eax
  411559:	add    BYTE PTR [eax],cl
  41155b:	nop
  41155c:	or     BYTE PTR [eax-0x7cf5ff7b],ah
  411562:	adc    al,0x29
  411564:	adc    BYTE PTR [ecx],al
  411566:	add    BYTE PTR [eax],ah
  411568:	das    
  411569:	add    cl,BYTE PTR [esi]
  41156b:	sbb    al,BYTE PTR [eax]
  41156d:	adc    BYTE PTR [ecx],al
  41156f:	add    al,0x26
  411571:	(bad)  
  411572:	xor    al,0xc
  411574:	dec    edx
  411575:	sub    ch,BYTE PTR ds:0xb9010622
  41157b:	xor    DWORD PTR [eax],esp
  41157d:	adc    al,0xc
  41157f:	inc    esi
  411580:	add    dh,0x4
  411583:	add    DWORD PTR [eax],eax
  411585:	adc    DWORD PTR [esi],eax
  411587:	xor    BYTE PTR [eax],cl
  411589:	mov    al,ds:0x19446566
  41158e:	add    eax,DWORD PTR [eax]
  411590:	pushf  
  411591:	push   edx
  411592:	inc    eax
  411593:	or     ah,BYTE PTR [eax+0x40204294]
  411599:	dec    esp
  41159a:	add    al,0x71
  41159c:	inc    esi
  41159d:	add    BYTE PTR [eax+0xcac000],al
  4115a3:	or     BYTE PTR [ebx],al
  4115a5:	or     edx,DWORD PTR [edx]
  4115a7:	push   ss
  4115a8:	add    BYTE PTR [ecx],dl
  4115aa:	mov    BYTE PTR [eax],ah
  4115ac:	add    eax,0x480828a
  4115b1:	or     DWORD PTR [eax],ecx
  4115b3:	add    edx,DWORD PTR [eax]
  4115b5:	and    BYTE PTR [eax],al
  4115b7:	mov    BYTE PTR [esi+eax*1],0x8
  4115bb:	and    al,0x10
  4115bd:	add    BYTE PTR [eax],dl
  4115bf:	inc    eax
  4115c0:	shr    BYTE PTR [ecx],0xf0
  4115c3:	push   es
  4115c4:	inc    edx
  4115c5:	dec    eax
  4115c6:	cmp    eax,0x824200a1
  4115cb:	cmp    BYTE PTR [edx],al
  4115cd:	pop    eax
  4115ce:	sub    BYTE PTR [eax],al
  4115d0:	inc    ecx
  4115d1:	xchg   edx,eax
  4115d2:	xchg   ecx,eax
  4115d3:	add    BYTE PTR [edx+0x278148],0xca
  4115da:	add    ch,BYTE PTR [edx]
  4115dc:	or     dl,BYTE PTR [eax+0x8832120]
  4115e2:	add    BYTE PTR [edx],0x4
  4115e5:	adc    BYTE PTR [edx-0x7ffffede],ah
  4115eb:	inc    eax
  4115ec:	sbb    DWORD PTR [eax],edx
  4115ee:	add    BYTE PTR ds:0x99805880,0x2
  4115f5:	add    bh,BYTE PTR [ebx]
  4115f7:	xchg   ebx,eax
  4115f8:	mov    WORD PTR [eax],es
  4115fa:	or     ecx,DWORD PTR [edi]
  4115fc:	add    ah,al
  4115fe:	push   esi
  4115ff:	add    BYTE PTR [eax],ah
  411601:	mov    BYTE PTR [ecx+0x562c811c],ch
  411607:	adc    DWORD PTR [esp+edx*1],0x64412802
  41160e:	rol    BYTE PTR [ecx],cl
  411610:	mov    eax,ds:0x422ec036
  411615:	dec    eax
  411616:	and    BYTE PTR [ebx],dl
  411618:	shl    BYTE PTR [eax+0xa442010],0xc3
  41161f:	sbb    BYTE PTR [eax+0x0],ah
  411622:	add    cl,BYTE PTR [ecx]
  411624:	xor    BYTE PTR [ecx+eax*8+0x8b2204],al
  41162b:	pop    eax
  41162c:	and    BYTE PTR [eax-0x70],cl
  41162f:	jl     0x4115f2
  411631:	xchg   esp,eax
  411632:	xor    eax,0x28b514d
  411637:	adc    BYTE PTR [eax],al
  411639:	add    BYTE PTR [eax+esi*1],dh
  41163c:	add    DWORD PTR [eax],edx
  41163e:	or     BYTE PTR [eax],al
  411640:	adc    DWORD PTR [eax+0x101084c],esp
  411646:	xor    BYTE PTR [eax],cl
  411648:	add    BYTE PTR [ecx],dl
  41164a:	nop
  41164b:	jb     0x4115cd
  41164d:	add    cl,BYTE PTR [esi]
  41164f:	es dec eax
  411651:	add    BYTE PTR [ecx],dl
  411653:	or     cl,BYTE PTR [eax]
  411655:	enter  0x1006,0x10
  411659:	add    BYTE PTR [eax+eax*4-0x7792ff9c],al
  411660:	loopne 0x4116ae
  411662:	and    BYTE PTR [eax],0x0
  411665:	pop    ebp
  411666:	inc    ecx
  411667:	or     dl,BYTE PTR [eax]
  411669:	and    dl,BYTE PTR [edx]
  41166b:	sub    BYTE PTR [edx],cl
  41166d:	add    DWORD PTR [eax],edx
  41166f:	add    DWORD PTR [esi],esp
  411671:	add    DWORD PTR [eax],eax
  411673:	mov    cl,0x12
  411675:	push   es
  411676:	pusha  
  411677:	add    BYTE PTR [ecx],al
  411679:	and    eax,0x48b14d1
  41167e:	add    ebp,DWORD PTR [eax+0x1]
  411681:	and    BYTE PTR [edx],cl
  411683:	or     al,0x21
  411685:	repnz add eax,ecx
  411688:	inc    edx
  411689:	or     al,0x5
  41168b:	xor    BYTE PTR [esi],cl
  41168d:	add    al,BYTE PTR [ebp+eax*1+0x61]
  411691:	add    BYTE PTR [eax],cl
  411693:	inc    eax
  411694:	add    BYTE PTR [ebx],0xa
  411697:	xchg   esp,eax
  411698:	add    al,0x32
  41169a:	adc    BYTE PTR [eax],al
  41169c:	inc    eax
  41169d:	and    cl,dl
  41169f:	add    DWORD PTR [edx+0x61],edx
  4116a2:	and    al,0x2d
  4116a4:	rol    BYTE PTR [ecx],1
  4116a6:	add    BYTE PTR [ecx+0x0],dh
  4116a9:	add    eax,0xa0d54c16
  4116ae:	or     BYTE PTR [esi+0x0],dl
  4116b1:	inc    eax
  4116b2:	adc    BYTE PTR [eax],dl
  4116b4:	xchg   esp,eax
  4116b5:	add    BYTE PTR [eax],0x42
  4116b8:	rol    BYTE PTR [eax],0x0
  4116bb:	inc    edx
  4116bc:	add    BYTE PTR [edi],ah
  4116be:	or     DWORD PTR [ecx+eax*1],ecx
  4116c1:	add    DWORD PTR [edx+0x4],eax
  4116c4:	inc    eax
  4116c5:	add    DWORD PTR [edx],eax
  4116c7:	add    BYTE PTR [eiz*8+0x144888cc],ah
  4116ce:	xchg   esp,eax
  4116cf:	or     BYTE PTR [edx+0x18],ah
  4116d2:	xchg   esp,eax
  4116d3:	inc    edx
  4116d4:	sbb    eax,0x41d842c5
  4116d9:	add    ah,BYTE PTR [eax]
  4116db:	adc    eax,0x10019248
  4116e0:	and    al,BYTE PTR [ecx]
  4116e2:	mov    ds:0x4002001e,al
  4116e7:	add    eax,0x41200029
  4116ec:	adc    BYTE PTR [edx+eax*2],bh
  4116ef:	and    DWORD PTR [ecx],eax
  4116f1:	and    cl,BYTE PTR [eax]
  4116f3:	add    al,cl
  4116f5:	rol    BYTE PTR [eax],1
  4116f7:	push   es
  4116f8:	imul   ebx,DWORD PTR [eax+0x2b81022],0x23905018
  411702:	rcl    BYTE PTR ds:0x49014b02,cl
  411708:	sbb    BYTE PTR [edx-0x37ff7fd8],ch
  41170e:	and    edx,DWORD PTR [eax]
  411710:	adc    DWORD PTR [ebx+0x50],eax
  411713:	outs   dx,BYTE PTR ds:[esi]
  411714:	and    BYTE PTR [esi+0x2880982],al
  41171a:	add    DWORD PTR [eax+0x10],eax
  41171d:	or     al,0x82
  41171f:	inc    edx
  411720:	add    BYTE PTR [ebp+0x810100],dl
  411726:	mov    eax,ds:0x46400c45
  41172b:	add    BYTE PTR [edx+0x26],ah
  41172e:	xchg   edx,eax
  41172f:	inc    eax
  411730:	sbb    bh,BYTE PTR ds:0x22108ab0
  411736:	mov    eax,0xc5023224
  41173b:	add    al,0x0
  41173d:	adc    BYTE PTR [eax+0x22],ah
  411740:	sbb    BYTE PTR [eax],dl
  411742:	and    BYTE PTR [eax-0x2f677dd5],al
  411748:	add    al,0xd1
  41174a:	adc    al,0x7a
  41174c:	inc    eax
  41174d:	add    al,BYTE PTR [eax]
  41174f:	sbb    DWORD PTR [eax],eax
  411751:	inc    eax
  411752:	and    dl,BYTE PTR [edx+edx*8+0x50]
  411756:	push   es
  411757:	push   edx
  411758:	add    dl,BYTE PTR [eax+0x16]
  41175b:	and    BYTE PTR [eax+0x8840440],0x58
  411762:	inc    ecx
  411763:	and    al,BYTE PTR [esi]
  411765:	test   al,0x46
  411767:	adc    BYTE PTR [edx+eax*4],dl
  41176a:	inc    ecx
  41176b:	xor    al,BYTE PTR [ebp+0x1a]
  41176e:	sub    eax,DWORD PTR [eax]
  411770:	sub    BYTE PTR [ebp+0x24],0xa
  411774:	adc    DWORD PTR [ecx],edx
  411776:	add    BYTE PTR [ebp+0x0],al
  411779:	sbb    DWORD PTR [eax],esp
  41177b:	mov    eax,ds:0x386102
  411780:	add    eax,DWORD PTR [ecx-0x6dfbdff8]
  411786:	inc    eax
  411787:	add    DWORD PTR [eax+0x484a600],esp
  41178d:	mov    edx,0x80b
  411792:	add    BYTE PTR [edx],al
  411794:	and    DWORD PTR [ecx+0x9855922],eax
  41179a:	arpl   WORD PTR [edx],si
  41179c:	jmp    0x696173e9
  4117a1:	mov    esp,0x4481873
  4117a6:	push   eax
  4117a7:	inc    eax
  4117a8:	mov    al,ds:0xa954c042
  4117ad:	and    al,0x3
  4117af:	dec    ebp
  4117b0:	xchg   ebp,eax
  4117b1:	sbb    BYTE PTR ds:0x140880c,0x10
  4117b8:	nop
  4117b9:	sub    BYTE PTR [ecx+eax*1],al
  4117bc:	sub    al,BYTE PTR [eax]
  4117be:	inc    eax
  4117bf:	mov    ah,0x5
  4117c1:	test   BYTE PTR [ecx+edi*1-0x7efe59cc],ah
  4117c8:	pusha  
  4117c9:	xor    dl,cl
  4117cb:	cmp    BYTE PTR [eax+edx*1+0x50],al
  4117cf:	adc    bh,bh
  4117d1:	adc    eax,0x435b6c
  4117d6:	and    DWORD PTR [ebx],eax
  4117d8:	test   BYTE PTR [ebx+eax*2+0x20],al
  4117dc:	xchg   ecx,eax
  4117dd:	test   BYTE PTR ss:[eax],cl
  4117e0:	sbb    BYTE PTR [edx-0x6bf63800],ah
  4117e6:	add    BYTE PTR [eax+0x21a40501],al
  4117ec:	and    DWORD PTR [eax+0x6],esp
  4117ef:	adc    DWORD PTR [eax+0x1ad9ca0],0x3d04004
  4117f9:	sub    BYTE PTR [eax+0x34a2944],al
  4117ff:	sub    DWORD PTR [ebx],0x1a29c50
  411805:	add    dl,BYTE PTR [edx+0x16]
  411808:	es inc eax
  41180a:	add    BYTE PTR [esi+0x40930124],al
  411810:	adc    al,0x83
  411812:	mov    eax,ds:0x2c04038
  411817:	add    al,BYTE PTR [eax+0x14]
  41181a:	push   edx
  41181b:	xchg   edx,eax
  41181c:	and    al,0x0
  41181e:	add    DWORD PTR [eax],eax
  411820:	or     BYTE PTR [ecx],0x2
  411823:	and    BYTE PTR [edx-0x7c],al
  411826:	push   es
  411827:	inc    esp
  411828:	dec    esp
  411829:	inc    ecx
  41182a:	xor    dl,dl
  41182c:	adc    al,0x5
  41182f:	inc    eax
  411830:	push   eax
  411831:	sbb    al,0x8
  411833:	add    eax,0x1020921
  411838:	add    al,BYTE PTR [ecx]
  41183a:	push   es
  41183b:	adc    al,0x0
  41183d:	pop    ss
  41183e:	add    BYTE PTR [edx],al
  411840:	or     dl,BYTE PTR [edx+eax*1+0x52]
  411844:	sub    BYTE PTR [eax],cl
  411846:	add    esp,DWORD PTR [eax+0x76]
  411849:	pusha  
  41184a:	jb     0x41184e
  41184c:	rol    BYTE PTR [eax+0x46],0x24
  411850:	or     ebp,DWORD PTR [edx]
  411852:	ss add al,0x0
  411855:	add    BYTE PTR [eax],al
  411857:	rol    BYTE PTR [eax+0x2],0x42
  41185b:	mov    dl,0x42
  41185d:	mov    ah,0x88
  41185f:	add    ah,BYTE PTR [ecx]
  411861:	mov    DWORD PTR [ecx],esi
  411863:	add    al,0x50
  411865:	or     DWORD PTR ds:0x50585021,eax
  41186b:	adc    BYTE PTR [ecx],al
  41186d:	adc    BYTE PTR [edx],ah
  41186f:	sbb    DWORD PTR [eax],ecx
  411871:	add    dh,BYTE PTR [ecx-0x6e]
  411874:	in     eax,0x3d
  411876:	add    BYTE PTR [eax+0x48],dl
  411879:	loopne 0x41187f
  41187b:	inc    eax
  41187c:	add    DWORD PTR ds:0x120c084,ecx
  411882:	and    BYTE PTR [eax],0x9
  411885:	push   ss
  411886:	add    al,0x4c
  411888:	add    BYTE PTR [eax+0x448a8120],al
  41188e:	in     eax,0x23
  411890:	add    BYTE PTR [ecx],0xa7
  411893:	mov    es,WORD PTR [eax+ecx*2+0x2]
  411897:	adc    BYTE PTR [eax],0x1
  41189a:	sbb    DWORD PTR [eax],0x8991c101
  4118a0:	inc    edx
  4118a1:	nop
  4118a2:	add    BYTE PTR [eax],cl
  4118a4:	add    BYTE PTR [edx],dl
  4118a6:	add    BYTE PTR [eax+0x5002cc28],0x0
  4118ad:	mov    ds:0x44000440,al
  4118b2:	add    BYTE PTR [ecx+eax*8+0x34c46002],al
  4118b9:	sub    BYTE PTR [edx+0x42],ah
  4118bc:	xor    BYTE PTR [eax],0xc
  4118bf:	jno    0x4118c2
  4118c1:	clc    
  4118c2:	or     BYTE PTR [eax],dh
  4118c4:	adc    BYTE PTR [eax],bh
  4118c6:	or     BYTE PTR [eax+0x4],dl
  4118c9:	test   BYTE PTR [eax],cl
  4118cb:	nop
  4118cc:	adc    al,BYTE PTR [eax+0x188e204c]
  4118d2:	leave  
  4118d3:	nop
  4118d4:	xor    al,0x32
  4118d6:	add    BYTE PTR [eax],bl
  4118d8:	push   0xc1620002
  4118dd:	xchg   esp,eax
  4118de:	add    BYTE PTR [ebx-0x7dd7ffff],dl
  4118e4:	rcl    BYTE PTR [eax+0x4440cc20],0x4
  4118eb:	sub    cl,cl
  4118ed:	adc    BYTE PTR [ebx+0x100004],al
  4118f3:	ret    0x31d
  4118f6:	add    BYTE PTR [edx+ebp*4+0x2630be03],al
  4118fd:	mov    al,ds:0xcf43800a
  411902:	sbb    al,0xa
  411904:	or     BYTE PTR [eax],dl
  411906:	xor    BYTE PTR [eax],al
  411908:	add    al,0xc0
  41190a:	pop    es
  41190b:	add    DWORD PTR [edi],ebx
  41190d:	add    BYTE PTR [edi],dl
  41190f:	or     DWORD PTR [ecx+0x65898000],0x1c0041c1
  411919:	dec    ebx
  41191a:	out    0x0,al
  41191c:	pop    edx
  41191d:	and    DWORD PTR [ecx],eax
  41191f:	sbb    BYTE PTR [eax+edx*1+0x60201110],dl
  411926:	imul   eax,edx,0x7c0894c8
  41192c:	dec    edx
  41192d:	or     BYTE PTR [ecx],cl
  41192f:	and    al,0x2
  411931:	sub    BYTE PTR [eax+eax*2],dl
  411934:	or     BYTE PTR [eax],0x1
  411937:	add    BYTE PTR [eax],al
  411939:	inc    eax
  41193a:	sbb    BYTE PTR [eax],dh
  41193c:	adc    DWORD PTR [ebx],edi
  41193e:	or     al,BYTE PTR ds:0x30906815
  411944:	add    BYTE PTR [ecx],al
  411946:	inc    esp
  411947:	add    BYTE PTR [eax],al
  411949:	add    BYTE PTR ds:0x1402134a,dl
  41194f:	add    BYTE PTR ds:0x8c00430,dl
  411955:	or     dh,BYTE PTR [eax+0x2081000]
  41195b:	add    BYTE PTR [edx],0x81
  41195e:	adc    al,0x24
  411960:	sub    edx,ebp
  411962:	push   edx
  411963:	and    BYTE PTR [eax+ebx*4],ah
  411966:	or     dl,BYTE PTR [edx]
  411968:	add    BYTE PTR [ecx],cl
  41196a:	sub    BYTE PTR [eax],dl
  41196c:	add    ah,BYTE PTR [esi+0x11000010]
  411972:	add    cl,BYTE PTR ds:0x5800a1
  411978:	push   cs
  411979:	add    ecx,0x44790895
  41197f:	test   eax,0xbd414020
  411984:	add    DWORD PTR [eax-0x40],ebp
  411987:	fadd   QWORD PTR [eax+0x8804502]
  41198d:	xchg   ecx,eax
  41198e:	add    al,BYTE PTR [eax+0x1060850]
  411994:	add    BYTE PTR [edx],bh
  411996:	add    DWORD PTR [eax],ebx
  411998:	add    BYTE PTR [ecx],dl
  41199a:	or     BYTE PTR [ecx],0x4a
  41199d:	or     BYTE PTR [edx],al
  41199f:	add    BYTE PTR [eax],0x20
  4119a2:	test   BYTE PTR [ecx-0x70],al
  4119a5:	add    ch,bl
  4119a7:	adc    BYTE PTR [eax],al
  4119a9:	adc    BYTE PTR [eax+0xbc800b2],0x4
  4119b0:	add    BYTE PTR [eax],al
  4119b2:	ds pusha 
  4119b4:	push   esi
  4119b5:	add    BYTE PTR [ecx+eiz*1+0x29],dl
  4119b9:	mov    esp,0x4684b300
  4119be:	rol    BYTE PTR [edx+0x5320d],cl
  4119c4:	or     BYTE PTR [edx],dl
  4119c6:	and    ah,BYTE PTR [ecx]
  4119c8:	sub    al,0x0
  4119ca:	push   es
  4119cb:	or     BYTE PTR [ecx+0x40160005],cl
  4119d1:	pop    es
  4119d2:	add    DWORD PTR [eax],eax
  4119d4:	mov    al,ds:0x71008093
  4119d9:	and    BYTE PTR [eax+0x23402144],ah
  4119df:	add    BYTE PTR [edx+eiz*1],cl
  4119e2:	push   es
  4119e3:	or     al,al
  4119e5:	add    BYTE PTR [eax],al
  4119e7:	or     BYTE PTR [ecx],bl
  4119e9:	add    al,0x41
  4119eb:	mov    eax,ds:0x94aba50
  4119f0:	mov    WORD PTR [eax+eiz*1+0x0],es
  4119f4:	add    BYTE PTR [eax],al
  4119f6:	or     BYTE PTR [ebx],dl
  4119f8:	and    BYTE PTR [edx],al
  4119fa:	add    BYTE PTR [ecx+ebp*2],bl
  4119fd:	adc    BYTE PTR ds:0x10402581,ah
  411a03:	adc    edx,DWORD PTR [eax-0x7c]
  411a06:	nop
  411a07:	add    cl,BYTE PTR [eax]
  411a09:	xchg   edx,eax
  411a0a:	add    eax,DWORD PTR [eax]
  411a0c:	pusha  
  411a0d:	bound  edx,QWORD PTR [ebx]
  411a0f:	lock adc BYTE PTR cs:[edx+0x54038502],al
  411a17:	js     0x411a41
  411a19:	jo     0x411a5b
  411a1b:	and    BYTE PTR [ebx+0x11],al
  411a1e:	and    BYTE PTR [eax],0x54
  411a21:	sbb    BYTE PTR [edx+0x5d12182a],al
  411a27:	push   esp
  411a28:	nop
  411a29:	adc    eax,edx
  411a2b:	and    BYTE PTR [ebx+0x28],0x4
  411a2f:	rol    BYTE PTR [eax],0x10
  411a32:	add    BYTE PTR [eax+0x3294004],al
  411a38:	adc    BYTE PTR [eax],ch
  411a3a:	add    BYTE PTR [esi],al
  411a3c:	pop    eax
  411a3d:	test   BYTE PTR [edx+0xa],al
  411a40:	sub    BYTE PTR [eax+ecx*1-0x57],ch
  411a44:	test   BYTE PTR [eax+0x21],ah
  411a47:	sbb    al,0x84
  411a49:	push   es
  411a4a:	or     DWORD PTR [eax-0x7fff7bde],eax
  411a50:	add    DWORD PTR [eax-0x6dffaec0],esp
  411a56:	add    BYTE PTR [eax+0x50],al
  411a59:	adc    al,0xb
  411a5b:	dec    eax
  411a5c:	inc    ebp
  411a5d:	inc    eax
  411a5e:	add    BYTE PTR [eax],cl
  411a60:	and    eax,DWORD PTR [ecx-0x58]
  411a63:	dec    eax
  411a64:	mov    eax,ds:0x65155141
  411a69:	aas    
  411a6a:	or     BYTE PTR [ecx+0x4a1a84],bl
  411a70:	or     BYTE PTR [eax],bl
  411a72:	push   edx
  411a73:	add    eax,DWORD PTR [ebx]
  411a75:	add    BYTE PTR [edx+0x0],al
  411a78:	mov    WORD PTR [edx+0x63],fs
  411a7b:	inc    esp
  411a7c:	add    DWORD PTR [edi],ecx
  411a7e:	inc    ecx
  411a7f:	cmp    BYTE PTR [esi],al
  411a81:	inc    ecx
  411a82:	test   DWORD PTR [ecx-0x7c],ebp
  411a85:	mov    al,ds:0x1d130a34
  411a8a:	int    0xa4
  411a8c:	sub    al,0x94
  411a8e:	pusha  
  411a8f:	adc    BYTE PTR [edx],dl
  411a91:	xchg   edx,eax
  411a92:	pusha  
  411a93:	enter  0x2811,0x45
  411a97:	inc    ecx
  411a98:	add    al,al
  411a9a:	sub    BYTE PTR [eax],cl
  411a9c:	inc    edi
  411a9d:	and    BYTE PTR [ebp+0x28b86402],al
  411aa3:	xchg   BYTE PTR [ebx+0x600085],cl
  411aa9:	add    al,0x7
  411aab:	nop
  411aac:	adc    al,0x42
  411aae:	add    cl,BYTE PTR [edx+0x2a522020]
  411ab4:	push   eax
  411ab5:	popa   
  411ab6:	add    eax,DWORD PTR [eax+0x39050801]
  411abc:	push   edx
  411abd:	add    dl,BYTE PTR [eax]
  411abf:	inc    eax
  411ac0:	dec    esp
  411ac1:	cdq    
  411ac2:	movs   BYTE PTR es:[edi],BYTE PTR ds:[esi]
  411ac3:	adc    al,0x72
  411ac5:	int3   
  411ac6:	or     DWORD PTR [eax],edx
  411ac8:	or     BYTE PTR [edx+0x500080],ah
  411ace:	or     BYTE PTR [ecx],al
  411ad0:	pusha  
  411ad1:	and    BYTE PTR [ebp+0x520a0123],cl
  411ad7:	xor    BYTE PTR [ecx+0x1904034],dh
  411add:	ins    DWORD PTR es:[edi],dx
  411ade:	and    al,0x90
  411ae0:	pop    esi
  411ae1:	or     al,0x54
  411ae3:	outs   dx,DWORD PTR ds:[esi]
  411ae4:	add    eax,0x8080003
  411ae9:	push   eax
  411aea:	or     BYTE PTR [ecx+eax*8],0x3
  411aee:	push   es
  411aef:	add    BYTE PTR [ebp+0x1c100404],ah
  411af5:	add    BYTE PTR [edi],al
  411af7:	and    BYTE PTR [eax],dl
  411af9:	mov    al,ds:0x5008000
  411afe:	adc    BYTE PTR [ecx],al
  411b00:	leave  
  411b01:	add    al,BYTE PTR [ecx-0x60]
  411b04:	pusha  
  411b05:	and    dh,BYTE PTR [ecx+0x0]
  411b08:	shl    bl,cl
  411b0a:	sub    eax,0xb000801a
  411b0f:	add    BYTE PTR [eax+0x8110010],al
  411b15:	and    BYTE PTR [eax],ah
  411b17:	add    BYTE PTR [eax+0x1200445a],cl
  411b1d:	or     DWORD PTR [edx+0x40809041],eax
  411b23:	add    BYTE PTR [eax+0x2],al
  411b26:	add    al,0x84
  411b28:	mov    BYTE PTR [eax+0x840d42],bh
  411b2e:	or     BYTE PTR [ecx+0x18811941],dh
  411b34:	mov    ds:0x4020a00,al
  411b39:	mov    BYTE PTR [edx],al
  411b3b:	and    cl,al
  411b3d:	or     al,0x3
  411b3f:	and    DWORD PTR [eax],esi
  411b41:	in     eax,0x19
  411b43:	and    BYTE PTR [eax],0x2
  411b46:	add    al,0xa0
  411b48:	sub    al,BYTE PTR [edi+0x1d]
  411b4b:	add    BYTE PTR [edx],0x0
  411b4e:	and    BYTE PTR [ebx+0x20],0x0
  411b52:	inc    ecx
  411b53:	inc    eax
  411b54:	and    BYTE PTR [ebx+0x30222588],al
  411b5a:	sbb    edx,DWORD PTR [eax]
  411b5c:	xchg   BYTE PTR [eax+ebx*4],al
  411b5f:	add    al,0x5d
  411b61:	push   es
  411b62:	add    al,0xc
  411b64:	loopne 0x411afc
  411b66:	and    DWORD PTR [eax],eax
  411b68:	add    al,0x23
  411b6a:	and    BYTE PTR [eax+0x4],al
  411b6d:	add    ch,BYTE PTR ds:0xa94e2c8c
  411b73:	add    al,0xab
  411b75:	and    al,0x50
  411b77:	xchg   edx,eax
  411b78:	nop
  411b79:	dec    esi
  411b7a:	adc    eax,DWORD PTR [ecx+edx*8+0x41c3c904]
  411b81:	and    al,0x3
  411b83:	mov    al,ds:0x418000e
  411b88:	enter  0x2008,0x10
  411b8c:	or     al,0x4c
  411b8e:	sbb    BYTE PTR [esi-0x75ff6d78],cl
  411b94:	add    BYTE PTR [eax],dl
  411b96:	add    DWORD PTR [eax],eax
  411b98:	dec    esi
  411b99:	and    BYTE PTR [edx],ah
  411b9b:	add    edx,esi
  411b9d:	cwde   
  411b9e:	push   edx
  411b9f:	xchg   edx,eax
  411ba0:	push   ecx
  411ba1:	and    al,BYTE PTR [edi-0x6a]
  411ba4:	or     BYTE PTR [ecx],bl
  411ba6:	or     BYTE PTR [ebx],cl
  411ba8:	inc    eax
  411ba9:	or     eax,0x40241119
  411bae:	mov    dl,0x88
  411bb0:	add    al,dl
  411bb2:	add    al,BYTE PTR [eax]
  411bb4:	add    BYTE PTR [eax-0x7a7ffde5],al
  411bba:	inc    esp
  411bbb:	jo     0x411b4d
  411bbd:	add    eax,0x8000880a
  411bc2:	pusha  
  411bc3:	call   0x8d09fc0a
  411bc8:	pusha  
  411bc9:	inc    eax
  411bca:	mov    al,ds:0x27028bd8
  411bcf:	add    BYTE PTR [eax+eax*1+0x1],ah
  411bd3:	sbb    BYTE PTR [eax],dh
  411bd5:	leave  
  411bd6:	mov    BYTE PTR [ecx+0x5b0c108c],ah
  411bdc:	rol    DWORD PTR [ecx],0x1
  411bdf:	and    al,0x80
  411be1:	xor    DWORD PTR [ebp+eax*1-0x80],esp
  411be5:	adc    BYTE PTR [edx+0x18004038],al
  411beb:	sbb    BYTE PTR [eax],al
  411bed:	add    ah,BYTE PTR [ebx]
  411bef:	or     BYTE PTR [edx+0x8142520],al
  411bf5:	add    BYTE PTR [eax],0x60
  411bf8:	cmps   BYTE PTR ds:[esi],BYTE PTR es:[edi]
  411bf9:	push   edi
  411bfa:	and    edx,DWORD PTR [eax]
  411bfc:	(bad)  
  411bfd:	ret    0x4891
  411c00:	add    al,0xf3
  411c02:	inc    edx
  411c03:	add    eax,0x7063184
  411c08:	mov    al,ds:0xc5c80402
  411c0d:	add    al,BYTE PTR [esi+0xa]
  411c10:	sub    cl,BYTE PTR [ebx+0x0]
  411c13:	add    BYTE PTR [eax],dl
  411c15:	xor    eax,0xc1b02709
  411c1a:	adc    eax,0x158b0242
  411c1f:	add    DWORD PTR [eax+0x1219a000],eax
  411c25:	add    BYTE PTR [edx-0x80],ah
  411c28:	adc    BYTE PTR [ecx],bl
  411c2a:	mov    ss,WORD PTR [ebx]
  411c2c:	xor    BYTE PTR [eax+0x40080320],0x6
  411c33:	adc    BYTE PTR [eax],al
  411c35:	inc    ecx
  411c36:	mov    esi,0xa00a0062
  411c3b:	or     al,BYTE PTR [edx]
  411c3d:	push   edx
  411c3e:	adc    BYTE PTR [eax-0x60],ah
  411c41:	and    al,0xa7
  411c43:	add    al,0x70
  411c45:	lahf   
  411c46:	xor    al,dl
  411c48:	adc    eax,0xd0cc4e23
  411c4d:	data16 test BYTE PTR [edx],dl
  411c50:	adc    DWORD PTR [edx+0x2a0f1012],ecx
  411c56:	or     ecx,DWORD PTR [ecx+esi*1+0x60068968]
  411c5d:	add    eax,0x1010200
  411c62:	or     al,0x80
  411c64:	mov    ds:0x210508,eax
  411c69:	push   0x808abc49
  411c6e:	add    DWORD PTR [ebx+eax*1],eax
  411c71:	inc    eax
  411c72:	xchg   edx,eax
  411c73:	test   BYTE PTR [ebx+0x520420c8],dl
  411c79:	or     DWORD PTR [eax+0x1404606],eax
  411c7f:	and    DWORD PTR [edx],eax
  411c81:	and    al,0x31
  411c83:	and    DWORD PTR ds:0x3202201,0x8640a2
  411c8d:	add    BYTE PTR [edx],al
  411c8f:	or     DWORD PTR [ecx+0x3],eax
  411c92:	and    al,0x9
  411c94:	inc    edx
  411c95:	adc    BYTE PTR [edx-0x4dddfdbe],dl
  411c9b:	imul   edx,DWORD PTR [eax+0x4030200c],0x8212481b
  411ca5:	add    DWORD PTR [ecx+0x40040c85],0x900a401
  411caf:	adc    BYTE PTR [ebx-0x3f939ef4],al
  411cb5:	sbb    BYTE PTR [edx+0x0],al
  411cb8:	add    BYTE PTR [ebx],bl
  411cba:	xor    BYTE PTR [eax],ah
  411cbc:	inc    eax
  411cbd:	mov    al,ds:0x2000960a
  411cc2:	add    BYTE PTR [esi+0x22],cl
  411cc5:	or     DWORD PTR ds:0x4528440b,eax
  411ccb:	inc    esp
  411ccc:	or     ah,BYTE PTR [eax]
  411cce:	inc    eax
  411ccf:	adc    BYTE PTR [eax+0x2300d350],cl
  411cd5:	add    DWORD PTR gs:0x48e08235,eax
  411cdc:	cmp    BYTE PTR [esi+ebx*4+0x42831220],0x86
  411ce4:	sbb    BYTE PTR [edx],al
  411ce6:	and    al,0x80
  411ce8:	dec    eax
  411ce9:	sub    BYTE PTR [eax],bl
  411ceb:	and    BYTE PTR [eax],0x55
  411cee:	add    DWORD PTR [eax],eax
  411cf0:	add    DWORD PTR [ecx],eax
  411cf2:	fisub  DWORD PTR [ecx+esi*1]
  411cf5:	push   eax
  411cf6:	add    al,0x1
  411cf8:	add    ah,BYTE PTR [ebx]
  411cfa:	inc    esp
  411cfb:	and    DWORD PTR [eax+ecx*4],esp
  411cfe:	or     BYTE PTR [eax],cl
  411d00:	sbb    BYTE PTR [edx],ah
  411d02:	adc    BYTE PTR [ecx],0x90
  411d05:	add    ecx,DWORD PTR [eax+eax*1]
  411d08:	xor    al,ah
  411d0a:	pushf  
  411d0b:	mov    edx,0x191408
  411d10:	and    BYTE PTR [eax],al
  411d12:	mov    ebp,0x1225058
  411d17:	and    BYTE PTR [eax+esi*2],bl
  411d1a:	dec    eax
  411d1b:	inc    eax
  411d1c:	adc    BYTE PTR [eax+edx*1+0x27],ch
  411d20:	xor    BYTE PTR [ecx],cl
  411d22:	outs   dx,BYTE PTR ds:[esi]
  411d23:	mov    ds:0x108a41,eax
  411d28:	add    ecx,DWORD PTR [esp+eax*1]
  411d2b:	inc    ecx
  411d2c:	add    BYTE PTR [ecx],al
  411d2e:	adc    BYTE PTR [eax+0x1220262],0x2
  411d35:	mov    ah,0x0
  411d37:	add    BYTE PTR [eax],ah
  411d39:	add    al,0x15
  411d3b:	add    ah,BYTE PTR [eax-0x7a]
  411d3e:	jno    0x411d00
  411d40:	ret    0x4304
  411d43:	add    al,0x48
  411d45:	test   BYTE PTR [eax+eax*2],al
  411d48:	add    BYTE PTR [eax+0xa],cl
  411d4b:	inc    esp
  411d4c:	and    cl,BYTE PTR [edx]
  411d4e:	popa   
  411d4f:	and    BYTE PTR [eax],cl
  411d51:	and    BYTE PTR [edx],0x4
  411d54:	test   BYTE PTR [ecx],cl
  411d56:	and    al,BYTE PTR [esp+eax*1]
  411d59:	cmp    BYTE PTR [eax],al
  411d5b:	sub    BYTE PTR [eax],bh
  411d5d:	or     al,dl
  411d5f:	mov    ah,0x21
  411d61:	push   edx
  411d62:	inc    eax
  411d63:	xor    al,ah
  411d65:	mov    DWORD PTR [edx],eax
  411d67:	add    al,0x44
  411d69:	xor    DWORD PTR [esi+0x12],edx
  411d6c:	inc    eax
  411d6d:	mov    al,BYTE PTR [eax]
  411d6f:	inc    ecx
  411d70:	add    eax,0x30c40807
  411d75:	sbb    BYTE PTR [edx],0x2
  411d78:	or     BYTE PTR [ebx+ecx*4],dl
  411d7b:	add    al,al
  411d7d:	add    al,BYTE PTR [esi]
  411d7f:	adc    DWORD PTR [eax+0x280d0b10],edx
  411d85:	test   BYTE PTR [ebp-0x74],al
  411d88:	add    DWORD PTR [eax],ecx
  411d8a:	or     BYTE PTR [ebx+0x13100640],0x90
  411d91:	sbb    BYTE PTR [eax+0x1],0x2c
  411d95:	add    BYTE PTR [edx+0x26],bl
  411d98:	add    ecx,DWORD PTR [ecx]
  411d9a:	add    dl,BYTE PTR [ecx-0x5bf377be]
  411da0:	inc    edx
  411da1:	sbb    BYTE PTR [eax+0x8d2ec0],cl
  411da7:	cmp    BYTE PTR [ecx-0x5c],al
  411daa:	add    BYTE PTR [eax],al
  411dac:	enter  0xa5,0x49
  411db0:	push   es
  411db1:	and    BYTE PTR [ecx+0x65ac0031],cl
  411db7:	or     BYTE PTR [ebx],al
  411db9:	and    BYTE PTR [eax-0x7f],dl
  411dbc:	add    al,0x86
  411dbe:	and    BYTE PTR [ebx],al
  411dc0:	xor    BYTE PTR ds:0x2c002965,0x88
  411dc7:	and    cl,BYTE PTR [ecx]
  411dc9:	add    al,0x24
  411dcb:	adc    DWORD PTR ds:0x4e10b2,esp
  411dd1:	or     eax,0x4aa80680
  411dd6:	add    DWORD PTR [ecx+0x0],esp
  411dd9:	add    DWORD PTR [eax+0xc274049],ecx
  411ddf:	xor    DWORD PTR [eax+0x61],ebp
  411de2:	mov    ds:0x8d4127a4,al
  411de7:	add    eax,0x21002040
  411dec:	inc    esp
  411ded:	xor    dl,BYTE PTR [eax]
  411def:	and    al,0xa0
  411df1:	stos   BYTE PTR es:[edi],al
  411df2:	sub    BYTE PTR [ecx],0x69
  411df5:	xor    al,0x1
  411df7:	add    BYTE PTR [edx+0x2],0x2
  411dfb:	pusha  
  411dfc:	add    DWORD PTR [edx+eax*2],0x8bc22702
  411e03:	nop
  411e04:	and    BYTE PTR [edx],al
  411e06:	add    BYTE PTR [eax],al
  411e08:	add    al,BYTE PTR [eax+0x5]
  411e0b:	sub    al,0x15
  411e0d:	sbb    al,0x10
  411e0f:	mov    ch,0x4
  411e11:	dec    edx
  411e12:	add    BYTE PTR [eax+0x47],ah
  411e15:	add    BYTE PTR fs:[ecx],bh
  411e18:	add    DWORD PTR [eax],0x45
  411e1b:	call   0x4438:0x48423c56
  411e22:	add    bl,0x4
  411e25:	inc    eax
  411e26:	add    BYTE PTR [ecx+0x0],ch
  411e29:	test   al,al
  411e2b:	add    BYTE PTR [eax],dl
  411e2d:	add    BYTE PTR [eax],al
  411e2f:	push   cs
  411e30:	adc    al,0x4
  411e32:	or     al,BYTE PTR [eax]
  411e34:	jo     0x411e78
  411e36:	rcr    BYTE PTR [eax],1
  411e38:	or     BYTE PTR [ecx],al
  411e3a:	inc    ebp
  411e3b:	dec    eax
  411e3c:	mov    al,ds:0x4484472
  411e41:	or     DWORD PTR [eax+0x40dd9021],0x410480d
  411e4b:	inc    esp
  411e4c:	sub    BYTE PTR [eax],ch
  411e4e:	xor    al,BYTE PTR [eax]
  411e50:	adc    bl,BYTE PTR [ecx]
  411e52:	jo     0x411e56
  411e54:	adc    BYTE PTR [edx],cl
  411e56:	and    DWORD PTR [eax],eax
  411e58:	sbb    BYTE PTR [eax],cl
  411e5a:	and    al,0x9
  411e5c:	sub    al,0x80
  411e5e:	dec    ebp
  411e5f:	adc    DWORD PTR [eax+0x0],0x20
  411e63:	pop    eax
  411e64:	mov    al,0x20
  411e66:	add    eax,0x32d232e7
  411e6b:	sub    al,ch
  411e6d:	add    BYTE PTR [ecx],ah
  411e6f:	(bad)  
  411e70:	mov    al,ds:0x1098023
  411e75:	add    al,0x4
  411e77:	add    BYTE PTR [eax],0x11
  411e7a:	adc    ch,BYTE PTR [eax+0x30]
  411e7d:	and    al,BYTE PTR [edx+eax*1]
  411e80:	push   ss
  411e81:	and    BYTE PTR [esi],dh
  411e83:	add    BYTE PTR [eax-0x4a],dh
  411e86:	add    al,0x22
  411e88:	mov    BYTE PTR [edx+0x2e],bl
  411e8b:	mov    BYTE PTR [ecx],dl
  411e8d:	inc    eax
  411e8e:	or     al,0xa8
  411e90:	mov    al,ds:0x81858941
  411e95:	rol    DWORD PTR [esi],0xc4
  411e98:	lea    esi,[ecx+edx*2+0x0]
  411e9c:	inc    eax
  411e9d:	add    dh,bl
  411e9f:	add    al,BYTE PTR [ecx]
  411ea1:	add    BYTE PTR [edx+eax*4+0x54],0x61
  411ea6:	push   esp
  411ea7:	or     BYTE PTR [edx],dl
  411ea9:	scas   al,BYTE PTR es:[edi]
  411eaa:	inc    ecx
  411eab:	add    BYTE PTR [eax],al
  411ead:	loop   0x411e2f
  411eaf:	dec    eax
  411eb0:	xor    BYTE PTR [ecx+0x32],al
  411eb3:	adc    al,dl
  411eb5:	add    BYTE PTR [eax],0x2
  411eb8:	inc    ecx
  411eb9:	or     DWORD PTR [eax+0x0],edx
  411ebc:	add    BYTE PTR [ebx+ebp*1],dh
  411ebf:	test   BYTE PTR [eax+0x40],al
  411ec2:	inc    eax
  411ec3:	shr    BYTE PTR [edx],0x40
  411ec6:	adc    BYTE PTR [ecx+0x9608202],ch
  411ecc:	add    al,BYTE PTR ds:0x1a8500
  411ed2:	adc    al,0x0
  411ed4:	sub    ah,BYTE PTR [ecx]
  411ed6:	adc    BYTE PTR [esi],dl
  411ed8:	add    BYTE PTR [eax],0xa
  411edb:	pop    es
  411edc:	add    BYTE PTR [eax+ebp*2],al
  411edf:	add    al,BYTE PTR [eax+edx*2+0xd]
  411ee3:	shr    DWORD PTR [eax],0x8
  411ee6:	and    al,0x48
  411ee8:	inc    edx
  411ee9:	add    dl,BYTE PTR [eax]
  411eeb:	adc    eax,0x10320608
  411ef0:	and    ebx,DWORD PTR [esp+esi*4]
  411ef3:	inc    eax
  411ef4:	push   ecx
  411ef5:	add    BYTE PTR [ecx],cl
  411ef7:	movs   DWORD PTR es:[edi],DWORD PTR ds:[esi]
  411ef8:	push   ss
  411ef9:	test   DWORD PTR [eax],ebx
  411efb:	inc    ecx
  411efc:	add    BYTE PTR [edx-0x75afd7a0],al
  411f02:	add    BYTE PTR [eax],0x8
  411f05:	add    BYTE PTR [eax-0x5e],cl
  411f08:	or     al,0x4
  411f0a:	add    BYTE PTR [edx-0x76],al
  411f0d:	rol    BYTE PTR [edx+eiz*1],0x24
  411f11:	and    bl,BYTE PTR [eax]
  411f13:	cwde   
  411f14:	or     BYTE PTR [ecx+0x10220481],dh
  411f1a:	add    BYTE PTR [esi],0x13
  411f1d:	add    eax,0xb2138019
  411f22:	inc    edx
  411f23:	shr    BYTE PTR [ebx],0x3d
  411f26:	adc    BYTE PTR [ebx],al
  411f28:	add    eax,0x45024200
  411f2d:	or     BYTE PTR [ecx+0x70ce130],al
  411f33:	add    BYTE PTR [edx],ch
  411f35:	cmps   BYTE PTR ds:[esi],BYTE PTR es:[edi]
  411f36:	lea    eax,[eax+eiz*1+0x41]
  411f3a:	jno    0x411f3c
  411f3c:	add    ecx,DWORD PTR [ecx+eiz*1+0x2041e8e]
  411f43:	push   0x92602420
  411f48:	sub    eax,0x85568001
  411f4d:	and    BYTE PTR [ecx+0x40],ah
  411f50:	add    eax,0x1709c038
  411f55:	add    eax,DWORD PTR ds:0x80875908
  411f5b:	enter  0x4c1,0x0
  411f5f:	mov    WORD PTR [ecx+0x8],ss
  411f62:	dec    ecx
  411f63:	and    BYTE PTR [esi],ch
  411f65:	or     BYTE PTR [eax+eax*4-0x4c],0x61
  411f6a:	add    al,0xc6
  411f6c:	mov    al,ah
  411f6e:	add    BYTE PTR [eax],al
  411f70:	add    BYTE PTR [edx-0x5fdebf80],dl
  411f76:	test   al,0x51
  411f78:	inc    edx
  411f79:	xor    al,BYTE PTR [ecx]
  411f7b:	xor    BYTE PTR [edx-0x7afffa66],dl
  411f81:	add    al,0x53
  411f83:	ret    0x9062
  411f86:	add    DWORD PTR [ecx],esi
  411f88:	push   ss
  411f89:	xchg   ecx,eax
  411f8a:	inc    eax
  411f8b:	adc    BYTE PTR [edx+eax*1],ah
  411f8e:	cmp    BYTE PTR [edx+eax*1+0x2d],dh
  411f92:	push   edx
  411f93:	mov    al,ds:0x41369825
  411f98:	add    BYTE PTR [eax],dh
  411f9a:	add    al,0x25
  411f9c:	or     DWORD PTR [esi+0x13],eax
  411f9f:	rol    BYTE PTR [ebp+0x22000080],0x12
  411fa6:	call   DWORD PTR ds:0x4359e4
  411fac:	or     BYTE PTR [eax],bl
  411fae:	and    BYTE PTR [ecx],dl
  411fb0:	shr    DWORD PTR [ecx],0xa2
  411fb3:	(bad)  
  411fb4:	leave  
  411fb5:	add    BYTE PTR [ecx],al
  411fb7:	inc    eax
  411fb8:	and    al,0x23
  411fba:	add    BYTE PTR [eax+0x24],al
  411fbd:	rol    BYTE PTR [eax],0x0
  411fc0:	clc    
  411fc1:	xor    DWORD PTR [eax],eax
  411fc3:	adc    BYTE PTR [eax+0x42024246],ch
  411fc9:	(bad)  
  411fca:	add    BYTE PTR [ecx+0x8],al
  411fcd:	popa   
  411fce:	or     eax,0x11010000
  411fd3:	add    BYTE PTR [eax+0x1],al
  411fd6:	clc    
  411fd7:	sub    BYTE PTR [eax],ah
  411fd9:	adc    DWORD PTR [edx],ecx
  411fdb:	inc    edx
  411fdc:	add    BYTE PTR [eax],al
  411fde:	mov    ds:0x611c8020,al
  411fe3:	push   eax
  411fe4:	xchg   ecx,eax
  411fe5:	adc    BYTE PTR [ebp+0x4],al
  411fe8:	or     cl,BYTE PTR [eax]
  411fea:	inc    esp
  411feb:	mov    ds:0x176c3380,al
  411ff0:	pusha  
  411ff1:	pusha  
  411ff2:	inc    esp
  411ff3:	add    ah,BYTE PTR [ebx]
  411ff5:	or     BYTE PTR [eax],0x28
  411ff8:	adc    BYTE PTR [eax],cl
  411ffa:	and    DWORD PTR [eax+0x1080a001],eax
  412000:	push   eax
  412001:	cmp    BYTE PTR [eax-0x7bffff7e],dl
  412007:	add    BYTE PTR [eax],ch
  412009:	inc    eax
  41200a:	mov    al,BYTE PTR [eax-0x3c]
  41200d:	jno    0x411f93
  41200f:	xchg   ecx,eax
  412010:	add    eax,0x2c480e04
  412015:	rol    BYTE PTR [eax+0x20003700],0x30
  41201c:	add    al,0x50
  41201e:	cmp    DWORD PTR ds:0x21025080,eax
  412024:	cs nop
  412026:	and    cl,BYTE PTR [eax-0x7fa45c7e]
  41202c:	inc    esp
  41202d:	or     al,0x42
  41202f:	xchg   edi,eax
  412030:	add    DWORD PTR [edx],esp
  412032:	mov    BYTE PTR [esi],0x7
  412035:	adc    al,BYTE PTR [ecx]
  412037:	adc    BYTE PTR [eax],dl
  412039:	and    DWORD PTR [edx],edx
  41203b:	add    al,BYTE PTR ds:0xac22c47
  412041:	xchg   esp,eax
  412042:	add    al,0x45
  412044:	add    BYTE PTR [eax],al
  412046:	add    edx,eax
  412048:	add    BYTE PTR [eax],al
  41204a:	or     bl,BYTE PTR [edx]
  41204c:	add    DWORD PTR [eax],eax
  41204e:	mov    ah,BYTE PTR [eax+0x1050aa04]
  412054:	mov    al,ds:0x81400014
  412059:	push   es
  41205a:	test   DWORD PTR [eax],eax
  41205c:	jo     0x41203f
  41205e:	mov    ds:0xbb000000,eax
  412063:	add    al,BYTE PTR [ecx+eax*4]
  412066:	add    cl,BYTE PTR [eax]
  412068:	mov    bl,0x24
  41206a:	nop
  41206b:	add    BYTE PTR [eax],ch
  41206d:	sbb    eax,0xffffff94
  412070:	adc    BYTE PTR [eax+0x6],dl
  412073:	or     DWORD PTR [edx],edx
  412075:	add    BYTE PTR [eax+0x40054845],ah
  41207b:	dec    eax
  41207c:	inc    ecx
  41207d:	pop    es
  41207e:	push   ss
  41207f:	add    cl,dl
  412081:	and    BYTE PTR [ecx+0x14041120],ah
  412087:	inc    eax
  412088:	and    dl,BYTE PTR [eax+esi*1]
  41208b:	add    al,0x2
  41208d:	dec    eax
  41208e:	xchg   DWORD PTR [edx],esp
  412090:	stos   BYTE PTR es:[edi],al
  412091:	mov    BYTE PTR [eax+0x10200004],al
  412097:	add    DWORD PTR [ecx],esp
  412099:	add    DWORD PTR [eax+0x9],eax
  41209c:	add    BYTE PTR [eax+0x1e62240c],bh
  4120a2:	xchg   BYTE PTR [esi],al
  4120a4:	add    esp,DWORD PTR [eax+0x205080]
  4120aa:	pusha  
  4120ab:	xor    dl,BYTE PTR [eax]
  4120ad:	and    BYTE PTR [edi],al
  4120af:	or     al,0xc
  4120b1:	dec    eax
  4120b2:	adc    BYTE PTR [esi],al
  4120b4:	sub    cl,al
  4120b6:	xor    BYTE PTR [eax],al
  4120b8:	adc    DWORD PTR [edx+edx*4],0x12981000
  4120bf:	push   ss
  4120c0:	ret    0x460
  4120c3:	add    eax,0x19c01d8
  4120c8:	inc    edi
  4120c9:	mov    BYTE PTR [ecx+eax*1],al
  4120cc:	adc    ecx,DWORD PTR [edx]
  4120ce:	pusha  
  4120cf:	add    BYTE PTR [eax+0x4241c000],dh
  4120d5:	add    BYTE PTR [eax],bh
  4120d7:	xor    eax,0x11000064
  4120dc:	ret    0xc47a
  4120df:	dec    ebx
  4120e0:	adc    al,BYTE PTR [edx+0x3b824b45]
  4120e6:	add    BYTE PTR [eax+0x2aa20d54],dl
  4120ec:	or     BYTE PTR es:[edx],0x5
  4120f0:	add    DWORD PTR [eax-0x259d7dc6],0x4c149028
  4120fa:	xor    al,0x10
  4120fc:	add    DWORD PTR [eax],ebp
  4120fe:	inc    eax
  4120ff:	push   es
  412100:	push   eax
  412101:	adc    DWORD PTR [eax+ecx*1],ecx
  412104:	add    BYTE PTR [edi],ah
  412106:	add    DWORD PTR [ecx],eax
  412108:	movs   DWORD PTR es:[edi],DWORD PTR ds:[esi]
  412109:	inc    eax
  41210a:	xchg   esi,eax
  41210b:	add    esi,DWORD PTR [eax]
  41210d:	nop
  41210e:	push   cs
  41210f:	add    al,0x19
  412111:	add    eax,0x80815020
  412116:	mov    ds:0xc102001,al
  41211b:	mov    DWORD PTR [eax+0x45],esp
  41211e:	xor    eax,DWORD PTR [ebp+0x8]
  412121:	adc    BYTE PTR [eax],ch
  412123:	add    BYTE PTR [eax+eiz*1-0x647f8f9e],al
  41212a:	mov    BYTE PTR [ebp+0x4125a101],dl
  412130:	adc    al,BYTE PTR [ecx+0x0]
  412133:	adc    BYTE PTR [eax+0x5080e80],cl
  412139:	add    al,BYTE PTR [edi]
  41213b:	push   0x12
  41213d:	and    BYTE PTR [eax+eax*1-0x7ff7ddb7],al
  412144:	add    BYTE PTR [ebp+0x1008149],cl
  41214a:	add    ah,BYTE PTR [eax]
  41214c:	add    al,cl
  41214e:	or     DWORD PTR [ecx],eax
  412150:	and    DWORD PTR [eax],edx
  412152:	push   ebx
  412153:	inc    eax
  412154:	and    BYTE PTR [ecx],bl
  412156:	lods   al,BYTE PTR ds:[esi]
  412157:	inc    edx
  412158:	mov    DWORD PTR [eax+edx*2],eax
  41215b:	add    al,0xaa
  41215d:	and    BYTE PTR [esi+0x1a],al
  412160:	adc    dl,BYTE PTR [eax+0x20018138]
  412166:	and    BYTE PTR [eax],al
  412168:	mov    BYTE PTR [eax-0x18],al
  41216b:	dec    eax
  41216c:	adc    al,0x2
  41216e:	adc    BYTE PTR ds:0x6198050,al
  412174:	test   DWORD PTR [ecx+0x61148041],eax
  41217a:	add    BYTE PTR [eax],cl
  41217c:	cmp    BYTE PTR [edx-0x72],dl
  41217f:	sub    DWORD PTR [esi+eiz*1+0x29828],edi
  412186:	push   esp
  412187:	or     BYTE PTR [eax],cl
  412189:	or     al,0x6
  41218b:	or     dh,BYTE PTR [edx+0x10]
  41218e:	add    BYTE PTR [ecx+edx*1+0x1],dl
  412192:	mov    al,0x4
  412194:	or     al,BYTE PTR [eax]
  412196:	add    al,0x41
  412198:	add    eax,DWORD PTR [esp+eax*2]
  41219b:	pop    es
  41219c:	and    al,0x84
  41219e:	add    DWORD PTR [edx-0x6b],esp
  4121a1:	sub    BYTE PTR [eax-0x7ffffee0],0xb2
  4121a8:	dec    esp
  4121a9:	data16 sbb BYTE PTR [eax],ah
  4121ac:	adc    BYTE PTR [ebx-0x7ea47ff0],cl
  4121b2:	and    eax,DWORD PTR [edx+0x2106610]
  4121b8:	adc    al,0x18
  4121ba:	and    edx,DWORD PTR [eax+0x18]
  4121bd:	add    esp,DWORD PTR [ebp+0x4c]
  4121c0:	xchg   ecx,eax
  4121c1:	push   ebx
  4121c2:	add    ah,ah
  4121c4:	cwde   
  4121c5:	add    BYTE PTR [eax-0x6f3edef0],dl
  4121cb:	xchg   BYTE PTR [eax+0x10],al
  4121ce:	add    BYTE PTR [ebp-0x70],ch
  4121d1:	pop    es
  4121d2:	sub    dh,BYTE PTR ds:0x44049a00
  4121d8:	or     DWORD PTR [ecx+0x12402200],eax
  4121de:	add    BYTE PTR [ecx],al
  4121e0:	mov    DWORD PTR [eax],ecx
  4121e2:	add    BYTE PTR [ecx+eax*1+0x29512120],al
  4121e9:	and    BYTE PTR [eax],0xd4
  4121ec:	add    cl,BYTE PTR fs:[edi]
  4121ef:	inc    ebx
  4121f0:	adc    dl,cl
  4121f2:	add    eax,0x1e002204
  4121f7:	test   eax,0x41001
  4121fc:	or     ah,BYTE PTR ds:0xc2304ed0
  412202:	inc    edx
  412203:	push   ss
  412204:	adc    BYTE PTR [eax],al
  412206:	dec    ebx
  412207:	or     BYTE PTR [edx],dl
  412209:	inc    eax
  41220a:	add    dh,BYTE PTR [ebx]
  41220c:	sub    BYTE PTR [esi],dl
  41220e:	sbb    BYTE PTR [ebx-0x64],dl
  412211:	loopne 0x412217
  412213:	sub    BYTE PTR [eax+0xe14230d],al
  412219:	add    esp,DWORD PTR [edx]
  41221b:	and    BYTE PTR [esp+edx*1],dh
  41221e:	add    al,BYTE PTR [esp+ebx*1-0x7f]
  412222:	inc    eax
  412223:	and    BYTE PTR [ecx+eax*1],0x43
  412227:	and    bh,BYTE PTR [ecx+0x10a080]
  41222d:	mov    BYTE PTR [eax-0xefbf7d0],cl
  412233:	add    cl,BYTE PTR [eax]
  412235:	and    BYTE PTR [esi+0x40100b03],dl
  41223b:	add    esp,DWORD PTR [edx]
  41223d:	pop    edx
  41223e:	inc    eax
  41223f:	pusha  
  412240:	adc    BYTE PTR [eax],ah
  412242:	or     DWORD PTR [edx+0x52],eax
  412245:	and    eax,ebp
  412247:	test   eax,0x816a9006
  41224c:	mov    BYTE PTR [ebx],al
  41224e:	ins    BYTE PTR es:[edi],dx
  41224f:	or     edi,eax
  412251:	sbb    BYTE PTR [esi],ch
  412253:	add    ah,BYTE PTR [eax+ebx*4]
  412256:	add    BYTE PTR [eax],0xb3
  412259:	add    al,BYTE PTR [eiz*4-0x5e8d14c0]
  412260:	or     eax,ecx
  412262:	sub    eax,0x18280a43
  412267:	and    BYTE PTR [esp+edx*1-0x38],al
  41226b:	inc    esp
  41226c:	or     ah,al
  41226e:	add    BYTE PTR [edx+ebp*2+0x16],cl
  412272:	and    al,0x5
  412274:	push   esp
  412275:	mov    cl,0xc4
  412277:	cmp    BYTE PTR [eax+0x11144040],ah
  41227d:	or     eax,0x4a8800a
  412282:	mov    al,ds:0xb620870a
  412287:	cmp    al,0x8
  412289:	adc    BYTE PTR fs:[edx],al
  41228c:	add    BYTE PTR ds:0x5500226,ch
  412292:	add    BYTE PTR [eax],al
  412294:	cmps   BYTE PTR ds:[esi],BYTE PTR es:[edi]
  412295:	dec    eax
  412296:	and    al,0x41
  412298:	or     DWORD PTR [edx+eax*2],esi
  41229b:	adc    BYTE PTR [eax],al
  41229d:	and    BYTE PTR [edx],al
  41229f:	add    BYTE PTR ds:0xc0128a10,al
  4122a5:	dec    eax
  4122a6:	or     BYTE PTR [ecx-0x5f],al
  4122a9:	inc    ecx
  4122aa:	add    DWORD PTR [edx+0x78],esp
  4122ad:	adc    BYTE PTR [eax+eax*1],al
  4122b0:	add    eax,DWORD PTR [eax+0x24114dd0]
  4122b6:	or     eax,0x9004c132
  4122bb:	movs   BYTE PTR es:[edi],BYTE PTR ds:[esi]
  4122bc:	add    DWORD PTR [edx],esi
  4122be:	es nop
  4122c0:	mov    al,ds:0x22108132
  4122c5:	inc    ebp
  4122c6:	nop
  4122c7:	add    BYTE PTR [eax-0x78],ch
  4122ca:	sbb    BYTE PTR [edx+0x4],ah
  4122cd:	scas   al,BYTE PTR es:[edi]
  4122ce:	xor    dl,BYTE PTR [eax+eax*2]
  4122d1:	and    BYTE PTR [edx],al
  4122d3:	sub    ah,0x50
  4122d6:	xchg   edx,eax
  4122d7:	add    BYTE PTR [ecx],0x7
  4122da:	out    0x4,al
  4122dc:	dec    esi
  4122dd:	rol    BYTE PTR [eax-0x68],0x0
  4122e1:	or     BYTE PTR [edx+0x2120440],al
  4122e7:	or     al,0x0
  4122e9:	dec    esp
  4122ea:	inc    eax
  4122eb:	pusha  
  4122ec:	adc    al,0x45
  4122ee:	add    BYTE PTR [eax],al
  4122f0:	adc    BYTE PTR [eax],0x48
  4122f3:	add    BYTE PTR [ebp+eax*4-0x70],al
  4122f7:	inc    ecx
  4122f8:	bound  ecx,QWORD PTR [edx+eax*2]
  4122fb:	and    DWORD PTR [eax-0x7c],eax
  4122fe:	sub    BYTE PTR [eax+0x20],al
  412301:	xor    BYTE PTR [ecx-0x3c],0x53
  412305:	in     eax,0x8
  412307:	xor    al,0x23
  412309:	adc    dl,BYTE PTR [esi+ecx*1]
  41230c:	add    ah,BYTE PTR [eax+eax*1+0x6]
  412310:	and    BYTE PTR [edx+eax*1+0x30b421c6],bl
  412317:	int3   
  412318:	add    BYTE PTR [eax+0x82041],dh
  41231e:	inc    eax
  41231f:	xor    BYTE PTR [ebp-0x66],bl
  412322:	test   BYTE PTR [eax],ah
  412324:	push   es
  412325:	int3   
  412326:	and    BYTE PTR [eax+0x14360402],al
  41232c:	adc    BYTE PTR [ecx+0x18],al
  41232f:	and    BYTE PTR [eax],al
  412331:	or     BYTE PTR gs:[eax],ah
  412334:	or     al,BYTE PTR [eax]
  412336:	or     DWORD PTR [eax-0x7e],ecx
  412339:	and    DWORD PTR [edx],0x41
  41233c:	or     DWORD PTR [ecx-0x6d],esp
  41233f:	add    BYTE PTR [ebx+eax*1],al
  412342:	and    DWORD PTR [eax+0xa02e101],edx
  412348:	add    BYTE PTR [eax+ecx*1-0x6e],0x21
  41234d:	mov    ds:0x85900927,al
  412352:	and    DWORD PTR [eax],0x47926008
  412358:	and    al,BYTE PTR [eax]
  41235a:	sbb    eax,0x22a0e210
  41235f:	and    eax,esp
  412361:	add    al,0x64
  412363:	add    bh,BYTE PTR [ebp+0x2202221]
  412369:	or     BYTE PTR [eax-0x25],dl
  41236c:	add    BYTE PTR [eax],cl
  41236e:	ror    DWORD PTR [ecx-0x73d7f342],0x1
  412375:	add    DWORD PTR [eax],esp
  412377:	or     al,0x15
  412379:	adc    BYTE PTR [edx],dl
  41237b:	add    BYTE PTR [eax],al
  41237d:	scas   al,BYTE PTR es:[edi]
  41237e:	mov    WORD PTR [eax],ss
  412380:	or     BYTE PTR [ecx+eax*1],ch
  412383:	sbb    BYTE PTR [edx-0x46],al
  412386:	and    BYTE PTR [eax],dl
  412388:	shl    BYTE PTR [edx],0x8a
  41238b:	add    eax,0x4912800
  412390:	pusha  
  412391:	lods   al,BYTE PTR ds:[esi]
  412392:	movs   BYTE PTR es:[edi],BYTE PTR ds:[esi]
  412393:	pop    ecx
  412394:	add    eax,DWORD PTR [eax]
  412396:	adc    BYTE PTR [edx],cl
  412398:	and    eax,0x80da912
  41239d:	adc    BYTE PTR [eax],0x84
  4123a0:	jno    0x412345
  4123a2:	inc    eax
  4123a3:	add    BYTE PTR [eax+eax*1],al
  4123a6:	add    al,0xa9
  4123a8:	add    BYTE PTR [ecx+0xc8140],0xd
  4123af:	dec    eax
  4123b0:	add    BYTE PTR [eax],ah
  4123b2:	adc    al,BYTE PTR [esi+0x0]
  4123b5:	push   ss
  4123b6:	pop    edx
  4123b7:	add    BYTE PTR [ecx],cl
  4123b9:	les    ecx,FWORD PTR [eax]
  4123bb:	push   esp
  4123bc:	int3   
  4123bd:	jbe    0x412384
  4123bf:	xor    BYTE PTR [ecx],0x0
  4123c2:	add    ah,BYTE PTR [ecx+0x33]
  4123c5:	dec    esp
  4123c6:	pusha  
  4123c7:	and    BYTE PTR [eax],0xb
  4123ca:	dec    ecx
  4123cb:	inc    ecx
  4123cc:	adc    BYTE PTR [ecx],al
  4123ce:	adc    BYTE PTR [eax+0xe],al
  4123d1:	lea    edx,[edx+0xd4c5100]
  4123d7:	mov    ds:0xa0443a,al
  4123dc:	or     DWORD PTR [ecx+0x66],edx
  4123df:	add    al,0x80
  4123e1:	inc    edi
  4123e2:	add    eax,DWORD PTR [edx]
  4123e4:	add    cl,BYTE PTR [eax]
  4123e6:	add    BYTE PTR [esi+0x4],bh
  4123e9:	and    DWORD PTR [eax],edx
  4123eb:	add    BYTE PTR ds:0xa0820904,al
  4123f1:	adc    eax,0x612435ec
  4123f6:	and    BYTE PTR [eax],dl
  4123f8:	pop    es
  4123f9:	push   cs
  4123fa:	inc    ecx
  4123fb:	adc    BYTE PTR [eax+esi*1],dh
  4123fe:	adc    cl,ah
  412400:	ins    BYTE PTR es:[edi],dx
  412401:	add    BYTE PTR [edx],al
  412403:	pusha  
  412404:	and    DWORD PTR [eax+0x38],ecx
  412407:	dec    esp
  412408:	add    BYTE PTR [ebx],ch
  41240a:	inc    esp
  41240b:	sub    BYTE PTR [edx],al
  41240d:	or     DWORD PTR [eax],ecx
  41240f:	or     eax,0x44405d
  412414:	and    DWORD PTR [edx+0x8],edi
  412417:	or     BYTE PTR [ebx],cl
  412419:	adc    al,0x82
  41241b:	add    BYTE PTR [eax],ah
  41241d:	mov    eax,ds:0x2330800
  412422:	adc    al,BYTE PTR [ecx-0x6c]
  412425:	pusha  
  412426:	inc    esp
  412427:	pop    eax
  412428:	dec    edx
  412429:	adc    bl,ah
  41242b:	or     BYTE PTR [ebp+eax*4-0x80],al
  41242f:	add    al,BYTE PTR [ecx+eiz*2+0x50008ad9]
  412436:	add    BYTE PTR [eax],ah
  412438:	sar    DWORD PTR [ecx+0x8823420],0xe1
  41243f:	or     ah,BYTE PTR [eax+0x4240386]
  412445:	or     DWORD PTR [eax],esp
  412447:	lds    edx,FWORD PTR [eax]
  412449:	pop    es
  41244a:	sub    BYTE PTR [eax+0x10500284],0x0
  412451:	add    BYTE PTR [edx],ah
  412453:	pusha  
  412454:	sbb    eax,0xb422882
  412459:	xchg   edx,eax
  41245a:	add    BYTE PTR [eax],0x0
  41245d:	push   0x226404a2
  412462:	add    BYTE PTR fs:[edi],dl
  412465:	sbb    al,0x80
  412467:	or     al,0x14
  412469:	clc    
  41246a:	add    DWORD PTR [eax+0xb80010],esp
  412470:	add    bl,ah
  412472:	or     al,al
  412474:	xor    al,BYTE PTR [ecx]
  412476:	add    BYTE PTR [eax],al
  412478:	or     BYTE PTR [edx+0x48],al
  41247b:	and    al,BYTE PTR [eax-0x6fffff3c]
  412481:	push   ss
  412482:	loopne 0x41248c
  412484:	adc    ch,BYTE PTR [ecx+0xa]
  412487:	adc    BYTE PTR [eax-0x31dffc00],al
  41248d:	add    BYTE PTR [ecx+0x4a],cl
  412490:	add    BYTE PTR [ecx],0x10
  412493:	jo     0x4124a9
  412495:	mov    al,0x2
  412497:	mov    DWORD PTR [ebp+0x7028014],esp
  41249d:	loopne 0x4124c4
  41249f:	pop    ebx
  4124a0:	adc    cl,BYTE PTR ds:0xcc351484
  4124a6:	pusha  
  4124a7:	adc    BYTE PTR [edx+0xc],dl
  4124aa:	int3   
  4124ab:	add    BYTE PTR [ebx-0x7aff35f8],0x20
  4124b2:	inc    ecx
  4124b3:	sub    esp,DWORD PTR [eax+0x121fe74e]
  4124b9:	add    bl,BYTE PTR [eax-0x1df60000]
  4124bf:	add    BYTE PTR [eax+edx*1],al
  4124c2:	mov    WORD PTR ds:0x38020614,fs
  4124c8:	add    BYTE PTR [edx+eax*1],0x3
  4124cc:	inc    eax
  4124cd:	mov    dl,0x0
  4124cf:	adc    esp,0x70204802
  4124d5:	or     BYTE PTR [eax],0x61
  4124d8:	push   esp
  4124d9:	adc    BYTE PTR [ecx+0x19],al
  4124dc:	fwait
  4124dd:	inc    ecx
  4124de:	enter  0x8090,0xa1
  4124e2:	or     DWORD PTR [eax],esp
  4124e4:	add    dh,cl
  4124e6:	dec    eax
  4124e7:	outs   dx,BYTE PTR ds:[esi]
  4124e8:	add    al,0x28
  4124ea:	jo     0x412530
  4124ec:	add    DWORD PTR [eax+0x1d404280],ecx
  4124f2:	es cwde 
  4124f4:	add    BYTE PTR [ecx+0x10],ch
  4124f7:	sub    al,0x2a
  4124f9:	or     eax,DWORD PTR [eax+0x91a12c2]
  4124ff:	mov    WORD PTR ds:0xac35080,ds
  412505:	or     DWORD PTR [edx+0x52221b3],ebx
  41250b:	add    DWORD PTR [ecx],eax
  41250d:	mov    edx,DWORD PTR [edx]
  41250f:	add    al,BYTE PTR [edx]
  412511:	loopne 0x41253b
  412513:	or     BYTE PTR [ebp-0x6f],bl
  412516:	add    BYTE PTR [eax],ah
  412518:	and    DWORD PTR [edx+ecx*4+0x802882],edx
  41251f:	and    BYTE PTR ds:0xf40006,ah
  412525:	push   es
  412526:	add    al,0x10
  412528:	ror    BYTE PTR [eax+0xa00c31],0x20
  41252f:	add    DWORD PTR [eax+0x48],0x19
  412533:	sahf   
  412534:	add    eax,0x780080
  412539:	add    al,0x4
  41253b:	inc    ecx
  41253c:	pop    eax
  41253d:	adc    BYTE PTR [edx+0x1],cl
  412540:	les    eax,FWORD PTR [eax+0x26]
  412543:	adc    al,0x1a
  412545:	or     eax,0x40204404
  41254a:	push   eax
  41254b:	and    cl,BYTE PTR ds:0x109c0040
  412551:	add    al,0x2
  412553:	add    BYTE PTR [eax],cl
  412555:	add    BYTE PTR [eax],cl
  412557:	add    ch,BYTE PTR [eax]
  412559:	inc    eax
  41255a:	or     BYTE PTR [ecx],cl
  41255c:	push   cs
  41255d:	push   esi
  41255e:	adc    BYTE PTR [eax+0x12d0012],cl
  412564:	dec    eax
  412565:	add    dl,BYTE PTR [ecx]
  412567:	xchg   ecx,eax
  412568:	adc    BYTE PTR es:[ecx],0x32
  41256c:	add    ecx,esi
  41256e:	or     al,0x4
  412570:	push   es
  412571:	adc    dl,0x6
  412574:	loop   0x412516
  412576:	or     DWORD PTR [eax],eax
  412578:	and    ecx,DWORD PTR [eax+0x4]
  41257b:	adc    DWORD PTR [esi],ecx
  41257d:	add    DWORD PTR [edx],0xa0044002
  412583:	sub    al,0x7
  412585:	inc    eax
  412586:	inc    eax
  412587:	js     0x4125aa
  412589:	rcr    DWORD PTR [eax],0x8a
  41258c:	and    edx,DWORD PTR [edx+0x0]
  41258f:	push   cs
  412590:	inc    eax
  412591:	adc    DWORD PTR [esi],0x303604bc
  412597:	push   0x64
  412599:	or     BYTE PTR [edx+edx*1],ah
  41259c:	bound  edi,QWORD PTR [esi]
  41259e:	xchg   esi,eax
  41259f:	sub    BYTE PTR [edx],al
  4125a1:	and    BYTE PTR [edx+eiz*4],dl
  4125a4:	mov    ds:0xc880859,al
  4125a9:	adc    al,BYTE PTR [eax+eax*1]
  4125ac:	mov    al,0xc1
  4125ae:	mov    al,ds:0x50860dc
  4125b3:	adc    DWORD PTR [ecx],eax
  4125b5:	sub    al,0xc0
  4125b7:	add    BYTE PTR [ebp-0x36],bl
  4125ba:	push   eax
  4125bb:	add    DWORD PTR [eax+0x8],eax
  4125be:	add    BYTE PTR [edx+0xca09808],ah
  4125c4:	and    eax,eax
  4125c6:	add    esp,DWORD PTR [eax]
  4125c8:	or     DWORD PTR [eax+0x44412580],eax
  4125ce:	and    BYTE PTR [edi+0x6],dl
  4125d1:	xor    DWORD PTR [eax],0x2161011c
  4125d7:	and    DWORD PTR [edx+esi*1],eax
  4125da:	add    BYTE PTR [esp+edi*4],ah
  4125dd:	sbb    BYTE PTR [ecx],al
  4125df:	or     BYTE PTR [eax+0x2c],al
  4125e2:	add    BYTE PTR [ebp+ebp*1+0x42c51810],al
  4125e9:	adc    DWORD PTR [ecx],edx
  4125eb:	add    ecx,DWORD PTR [eax-0x6f]
  4125ee:	push   eax
  4125ef:	xor    BYTE PTR [ecx+ecx*1],cl
  4125f2:	adc    al,al
  4125f4:	adc    BYTE PTR [ecx],dl
  4125f6:	and    al,0x84
  4125f8:	add    BYTE PTR [esi+0x4a40c880],ah
  4125fe:	add    al,al
  412600:	add    BYTE PTR [eax],dl
  412602:	rcl    BYTE PTR [eax],0xc0
  412605:	inc    eax
  412606:	scas   al,BYTE PTR es:[edi]
  412607:	add    al,0x0
  412609:	push   es
  41260a:	or     al,0xa
  41260c:	add    al,0x59
  41260e:	sub    al,BYTE PTR [eax]
  412610:	xor    BYTE PTR [edx],al
  412612:	add    BYTE PTR [edx-0x5afffffe],0x50
  412619:	add    dl,BYTE PTR [eax]
  41261b:	xchg   esp,eax
  41261c:	loopne 0x412633
  41261e:	add    BYTE PTR [ecx+0x4de8490b],al
  412624:	add    BYTE PTR [ebp+0x4109220],cl
  41262a:	or     al,BYTE PTR [eax]
  41262c:	or     DWORD PTR [edx],ecx
  41262e:	add    BYTE PTR [eax],al
  412630:	and    DWORD PTR [esp+edx*1],ecx
  412633:	add    BYTE PTR [ecx],dl
  412635:	xchg   ebp,eax
  412636:	add    BYTE PTR [eax],dh
  412638:	inc    ecx
  412639:	add    esp,DWORD PTR [eax+0x10]
  41263c:	and    BYTE PTR [eax],dl
  41263e:	pop    ecx
  41263f:	cmp    BYTE PTR [eax],cl
  412641:	and    al,0x40
  412643:	dec    ebp
  412644:	adc    al,0x5
  412646:	nop
  412647:	add    ah,BYTE PTR [eax+0x60]
  41264a:	or     DWORD PTR [eax],edx
  41264c:	or     eax,0x2208cc84
  412651:	mov    BYTE PTR [eax],al
  412653:	xor    ch,cl
  412655:	add    eax,DWORD PTR [ebp-0x6f]
  412658:	and    BYTE PTR [ebx+0x10],cl
  41265b:	mov    cl,BYTE PTR [eax+0x3c]
  41265e:	rol    BYTE PTR [eax],0x0
  412661:	call   0xa001:0x124a5017
  412668:	and    BYTE PTR [eax],dh
  41266a:	add    BYTE PTR [eax],ah
  41266c:	or     DWORD PTR [eax],ecx
  41266e:	test   BYTE PTR [eax+0x10024a06],dl
  412674:	mov    al,BYTE PTR [eax-0x50]
  412677:	add    BYTE PTR [edx+0x26],al
  41267a:	push   cs
  41267b:	mov    es,WORD PTR [eax]
  41267d:	push   ebp
  41267e:	add    ah,al
  412680:	push   ecx
  412681:	enter  0x4120,0x16
  412685:	sub    DWORD PTR [ebx],0x3600120
  41268b:	movs   DWORD PTR es:[edi],DWORD PTR ds:[esi]
  41268c:	adc    eax,0x624a6000
  412691:	pusha  
  412692:	enter  0x4280,0x12
  412696:	inc    eax
  412697:	cmp    al,BYTE PTR [eax+0x2]
  41269a:	add    dl,BYTE PTR [edx-0x76]
  41269d:	inc    eax
  41269e:	lea    eax,[esp+eax*2]
  4126a1:	push   ecx
  4126a2:	dec    eax
  4126a3:	adc    al,BYTE PTR [edi+eax*2]
  4126a6:	adc    BYTE PTR [ebx],ch
  4126a8:	add    eax,0x808404b
  4126ad:	add    BYTE PTR [ebx],dl
  4126af:	and    esp,DWORD PTR [eax]
  4126b1:	add    BYTE PTR [ecx+edx*2],al
  4126b4:	or     DWORD PTR [edx+0x800c064],ecx
  4126ba:	data16 mov BYTE PTR [eax+0x20],al
  4126be:	sub    ah,BYTE PTR [edx]
  4126c0:	xchg   edx,eax
  4126c1:	or     ah,ch
  4126c3:	and    DWORD PTR [eax+edx*4],eax
  4126c6:	pusha  
  4126c7:	and    BYTE PTR [ebx+0x23118128],0x0
  4126ce:	inc    eax
  4126cf:	and    BYTE PTR [ecx+eax*1+0x44208104],ch
  4126d6:	and    BYTE PTR [eax],al
  4126d8:	popa   
  4126d9:	(bad)  
  4126da:	add    al,0x15
  4126dc:	mov    ds:0x20164102,al
  4126e1:	inc    ebp
  4126e2:	inc    eax
  4126e3:	xchg   esi,eax
  4126e4:	pop    esp
  4126e5:	push   edx
  4126e6:	adc    DWORD PTR cs:[ebp+0x0],edx
  4126ea:	add    DWORD PTR [eax],eax
  4126ec:	add    BYTE PTR [eax+esi*2-0x15],dl
  4126f0:	add    BYTE PTR ds:0xe00043,ch
  4126f6:	mov    DWORD PTR [eax],esp
  4126f8:	add    BYTE PTR [edx],cl
  4126fa:	pop    ebx
  4126fb:	test   BYTE PTR [eax],al
  4126fd:	pushf  
  4126fe:	adc    BYTE PTR [edx],al
  412700:	mov    DWORD PTR [esi],eax
  412702:	ret    
  412703:	add    al,al
  412705:	xor    BYTE PTR [esi],0x2
  412708:	and    BYTE PTR [edx],al
  41270a:	and    al,0x50
  41270c:	leave  
  41270d:	cdq    
  41270e:	or     eax,0x440b70
  412713:	and    DWORD PTR [eax],0xffffff80
  412716:	adc    al,0x2
  412718:	inc    eax
  412719:	sub    BYTE PTR [edx+0x25],ah
  41271c:	inc    eax
  41271d:	push   es
  41271e:	and    BYTE PTR ss:[eax],0x1
  412722:	xor    BYTE PTR [edx],ch
  412724:	xor    cl,BYTE PTR [eax]
  412726:	inc    ebx
  412727:	adc    BYTE PTR [eax],cl
  412729:	add    DWORD PTR [ecx+0x1101282],ecx
  41272f:	add    BYTE PTR [eax],bh
  412731:	adc    al,0x28
  412733:	sbb    BYTE PTR [eax+0x40],ah
  412736:	or     DWORD PTR [ecx],eax
  412738:	add    ch,BYTE PTR [eax]
  41273a:	xor    al,0x18
  41273c:	push   es
  41273d:	xor    BYTE PTR fs:[edx+0x12341ce0],al
  412744:	and    dl,BYTE PTR [eax+0x9]
  412747:	inc    ebp
  412748:	and    ch,BYTE PTR [edx-0x75fdbfe8]
  41274e:	add    BYTE PTR ds:0x11064119,bl
  412754:	mov    eax,ds:0x1200648
  412759:	mov    al,0x98
  41275b:	mov    ah,al
  41275d:	or     BYTE PTR [eax+eax*1+0x814c0],ah
  412764:	or     BYTE PTR [eax],ch
  412766:	add    DWORD PTR [esi],ebx
  412768:	add    eax,0x8010099
  41276d:	add    cl,BYTE PTR [eax+eax*1]
  412770:	dec    eax
  412771:	add    BYTE PTR [eax-0x35],ah
  412774:	mov    BYTE PTR [edx-0x6f],0x15
  412778:	add    al,0x4
  41277a:	movs   BYTE PTR es:[edi],BYTE PTR ds:[esi]
  41277b:	push   ss
  41277c:	call   DWORD PTR ds:0x435b18
  412782:	enter  0xc888,0x44
  412786:	add    BYTE PTR [edx+eax*1-0x7cffcf25],dl
  41278d:	mov    al,0x20
  41278f:	mov    BYTE PTR [eax],dh
  412791:	add    eax,DWORD PTR [ecx]
  412793:	add    eax,0x3825008c
  412798:	mov    cl,BYTE PTR [eax]
  41279a:	or     eax,0xc80a802a
  41279f:	sub    BYTE PTR [ecx],al
  4127a1:	or     al,0x20
  4127a3:	add    ebx,DWORD PTR [eax+0x12122c14]
  4127a9:	mov    ah,0x18
  4127ab:	sub    BYTE PTR [eax+eiz*1-0x5f],dh
  4127af:	or     al,BYTE PTR [eax]
  4127b1:	add    BYTE PTR [eax+0xd881600],dl
  4127b7:	sub    al,0x82
  4127b9:	inc    ecx
  4127ba:	mov    al,BYTE PTR [eax]
  4127bc:	xor    BYTE PTR [esp+eax*1],al
  4127bf:	sbb    BYTE PTR [ecx],al
  4127c1:	and    cl,BYTE PTR [eax+0x29]
  4127c4:	add    al,BYTE PTR [esi]
  4127c6:	inc    edx
  4127c7:	or     BYTE PTR [eax+0x2a],al
  4127ca:	add    DWORD PTR [ecx-0x1dbb6980],0x4102c821
  4127d4:	add    cl,ah
  4127d6:	adc    BYTE PTR [eax],al
  4127d8:	inc    esi
  4127d9:	inc    ecx
  4127da:	add    DWORD PTR [eax+0x600800],0x70d09000
  4127e4:	loope  0x4127ee
  4127e6:	inc    esp
  4127e7:	add    BYTE PTR [ebx],cl
  4127e9:	test   BYTE PTR [eax],bh
  4127eb:	mov    edx,0xc028044
  4127f0:	retw   
  4127f2:	or     BYTE PTR [eax],ah
  4127f4:	push   eax
  4127f5:	add    dl,BYTE PTR [edi+0xb]
  4127f8:	cmp    BYTE PTR [eax],al
  4127fa:	and    cl,BYTE PTR [eax]
  4127fc:	add    BYTE PTR [ecx+ebx*2+0x1],ah
  412800:	add    BYTE PTR [ecx-0x7bdf5dfb],al
  412806:	sbb    al,0x88
  412808:	cwde   
  412809:	add    BYTE PTR [ebx+ebp*1],al
  41280c:	adc    BYTE PTR [ebp+ecx*4-0x6bbfb9e0],ah
  412813:	inc    esp
  412814:	and    dl,BYTE PTR [eax]
  412816:	movs   BYTE PTR es:[edi],BYTE PTR ds:[esi]
  412817:	xor    al,0x4
  412819:	and    BYTE PTR [edx],al
  41281b:	pop    es
  41281c:	adc    ecx,DWORD PTR [eax+0x6600109]
  412822:	add    BYTE PTR [eax],al
  412824:	cwde   
  412825:	sbb    BYTE PTR [esi],dh
  412827:	dec    esi
  412828:	push   esi
  412829:	push   es
  41282a:	or     BYTE PTR [eax],cl
  41282c:	add    al,0xa
  41282e:	or     al,BYTE PTR [esi+0x64]
  412831:	sbb    BYTE PTR [eax],al
  412833:	adc    al,0x56
  412835:	add    BYTE PTR [eax],dl
  412837:	add    BYTE PTR [ecx],al
  412839:	ds or  al,0xb2
  41283c:	push   es
  41283d:	inc    eax
  41283e:	push   0xc54a226
  412843:	adc    BYTE PTR [ebx],al
  412845:	add    BYTE PTR ds:0x432442,cl
  41284b:	adc    al,0xc2
  41284d:	add    ah,BYTE PTR [eax]
  41284f:	push   eax
  412850:	cdq    
  412851:	add    DWORD PTR [eax+0x10],eax
  412854:	adc    DWORD PTR [eax],esp
  412856:	in     al,0x90
  412858:	and    eax,0x89819b88
  41285d:	push   esp
  41285e:	mov    BYTE PTR [ecx],al
  412860:	add    BYTE PTR [ecx],al
  412862:	dec    edx
  412863:	add    BYTE PTR [eax],bl
  412865:	inc    edx
  412866:	add    BYTE PTR [edx],al
  412868:	add    BYTE PTR [ebx],ah
  41286a:	inc    eax
  41286b:	inc    eax
  41286c:	sub    BYTE PTR [eax+ecx*1],bh
  41286f:	pop    eax
  412870:	and    esp,DWORD PTR [eax]
  412872:	add    al,0x16
  412874:	mov    BYTE PTR [eax-0x57],al
  412877:	sbb    BYTE PTR [edx+0x72],0xa2
  41287b:	or     BYTE PTR [eax],cl
  41287d:	add    BYTE PTR [edx-0x38],ch
  412880:	dec    eax
  412881:	nop
  412882:	and    al,BYTE PTR [edi]
  412884:	cmp    al,0x4c
  412886:	in     al,dx
  412887:	add    BYTE PTR [edx],dl
  412889:	push   cs
  41288a:	mov    bh,0x0
  41288c:	add    BYTE PTR [edx+0x24718010],dl
  412892:	or     BYTE PTR [ecx+0x10],al
  412895:	ret    0x221
  412898:	add    BYTE PTR [eax-0x58],dl
  41289b:	dec    edx
  41289c:	test   al,0x2
  41289e:	or     edx,DWORD PTR [eax]
  4128a0:	or     cl,BYTE PTR ds:0x8104321
  4128a6:	push   es
  4128a7:	inc    eax
  4128a8:	cmps   BYTE PTR ds:[esi],BYTE PTR es:[edi]
  4128a9:	add    dl,al
  4128ab:	rol    BYTE PTR [eax],0x40
  4128ae:	and    al,0x12
  4128b0:	loop   0x4128b4
  4128b2:	dec    eax
  4128b3:	and    al,0x44
  4128b5:	add    DWORD PTR [ecx+eiz*1],edx
  4128b8:	test   DWORD PTR [ecx],eax
  4128ba:	inc    edx
  4128bb:	add    cl,BYTE PTR [eax]
  4128bd:	add    BYTE PTR [eax+eax*1],ah
  4128c0:	and    ah,BYTE PTR [eax+0x400101c6]
  4128c6:	and    BYTE PTR [ecx+0x10200801],0x94
  4128cd:	and    BYTE PTR [edx+eiz*4+0x10440508],cl
  4128d4:	inc    ebp
  4128d5:	mov    esp,0x200094a4
  4128da:	call   0x1002:0x4018028
  4128e1:	push   0x53c97180
  4128e6:	inc    edx
  4128e7:	sub    eax,0x11a55200
  4128ec:	add    al,0x44
  4128ee:	add    eax,ecx
  4128f0:	dec    edx
  4128f1:	dec    ebx
  4128f2:	movs   BYTE PTR es:[edi],BYTE PTR ds:[esi]
  4128f3:	mov    dh,0x12
  4128f5:	add    BYTE PTR [eax+0x60],dl
  4128f8:	add    BYTE PTR [ebp+0x4486100],dl
  4128fe:	add    DWORD PTR [eax],edx
  412900:	adc    BYTE PTR [esi],al
  412902:	adc    al,ah
  412904:	and    al,0x22
  412906:	push   eax
  412907:	mov    bl,0x21
  412909:	test   al,0x10
  41290b:	add    BYTE PTR [eax-0x6a],ah
  41290e:	and    al,0x10
  412910:	nop
  412911:	inc    eax
  412912:	or     eax,0x91005441
  412917:	inc    ecx
  412918:	adc    DWORD PTR [edx+0xe1aa20],eax
  41291e:	or     BYTE PTR [eax-0x7bf3bfff],dh
  412924:	int3   
  412925:	add    cl,BYTE PTR [eax]
  412927:	imul   eax,DWORD PTR [eax],0x85a087
  41292d:	sub    BYTE PTR [edx+0x2c96608],cl
  412933:	lea    ecx,[ebx]
  412935:	adc    ch,BYTE PTR [eax]
  412937:	or     al,BYTE PTR [edx]
  412939:	sub    BYTE PTR [eax],dl
  41293b:	add    al,0x82
  41293d:	inc    edx
  41293e:	add    cl,BYTE PTR [ecx]
  412940:	add    BYTE PTR [esi],0xa7
  412943:	add    BYTE PTR [eax+0x23802088],0x1
  41294a:	jo     0x41294c
  41294c:	adc    eax,0x8c124039
  412951:	adc    BYTE PTR [ebx],al
  412953:	and    DWORD PTR [edx],edx
  412955:	adc    al,0x40
  412957:	shl    BYTE PTR [edx+0x4],1
  41295a:	and    DWORD PTR [edx-0x30],edx
  41295d:	or     BYTE PTR [esi+0x6021408],al
  412963:	es xchg esp,eax
  412965:	add    dl,BYTE PTR [eax+eax*1]
  412968:	and    al,0x84
  41296a:	or     BYTE PTR [edi],dl
  41296c:	adc    DWORD PTR [eax+eax*1],0xffffff98
  412970:	sub    BYTE PTR [eax+eax*1],al
  412973:	shr    BYTE PTR [ecx+edx*1],1
  412976:	movs   BYTE PTR es:[edi],BYTE PTR ds:[esi]
  412977:	adc    BYTE PTR [eax],0x0
  41297a:	and    BYTE PTR [eax],dl
  41297c:	push   eax
  41297d:	dec    eax
  41297e:	mov    BYTE PTR [edx-0x4c],al
  412981:	adc    BYTE PTR [esi],al
  412983:	add    BYTE PTR [eax],al
  412985:	and    ch,0x0
  412988:	add    eax,DWORD PTR [eax+eax*2+0x69060400]
  41298f:	ror    BYTE PTR [eax+ecx*2+0x40b2000],cl
  412996:	add    eax,DWORD PTR [eax+0x23008110]
  41299c:	add    DWORD PTR [ebx],edi
  41299e:	mov    BYTE PTR [eax],dl
  4129a0:	and    DWORD PTR [ecx+ebx*1+0x108a502],eax
  4129a7:	inc    eax
  4129a8:	inc    esp
  4129a9:	inc    eax
  4129aa:	inc    ecx
  4129ab:	inc    edx
  4129ac:	inc    eax
  4129ad:	and    DWORD PTR [eax],esi
  4129af:	dec    ebp
  4129b0:	add    BYTE PTR [ecx],al
  4129b2:	mov    BYTE PTR [edx+eax*1+0x20],ah
  4129b6:	add    al,0x9
  4129b8:	inc    esi
  4129b9:	add    BYTE PTR [edx],ah
  4129bb:	add    BYTE PTR [edx-0x6e79f57c],cl
  4129c1:	sub    ah,BYTE PTR [eax]
  4129c3:	enter  0x3022,0xb1
  4129c7:	mov    al,BYTE PTR [eax]
  4129c9:	pusha  
  4129ca:	adc    eax,DWORD PTR [ebp-0x6a3fb9f8]
  4129d0:	adc    al,0x10
  4129d2:	push   0x80000dc0
  4129d7:	sub    eax,0x22002004
  4129dc:	add    BYTE PTR [eax-0x3da7e260],0x4f
  4129e3:	inc    eax
  4129e4:	and    BYTE PTR [ecx],dl
  4129e6:	test   BYTE PTR [eax],dl
  4129e8:	adc    BYTE PTR [edx],al
  4129ea:	add    BYTE PTR ds:0x8e9c0425,dh
  4129f0:	sbb    eax,0xa2a0a00
  4129f5:	shl    BYTE PTR [edx],0x64
  4129f8:	or     al,BYTE PTR ds:0x204242
  4129fe:	inc    esi
  4129ff:	add    al,BYTE PTR [eax]
  412a01:	and    BYTE PTR [edx],dl
  412a03:	add    al,0x1c
  412a05:	add    BYTE PTR [edx],al
  412a07:	adc    BYTE PTR [eax+0x45],al
  412a0a:	add    BYTE PTR [ebx+0x0],dl
  412a0d:	sub    eax,0xd0321
  412a12:	pop    edx
  412a13:	or     al,0x77
  412a15:	adc    edx,DWORD PTR [eax+0xa881291]
  412a1b:	inc    esp
  412a1c:	adc    BYTE PTR ds:0x109c5,0x40
  412a23:	and    BYTE PTR [eax+0xa1a4047],al
  412a29:	or     eax,0x452184
  412a2e:	add    DWORD PTR [eax],eax
  412a30:	adc    BYTE PTR [eax+0x40060],ah
  412a36:	sbb    DWORD PTR [edx],ecx
  412a38:	add    al,BYTE PTR [ecx]
  412a3a:	add    BYTE PTR [esi],al
  412a3c:	bound  esp,QWORD PTR [edx+ebp*1]
  412a3f:	sub    BYTE PTR [eax+eiz*1-0x6e3fbffc],dl
  412a46:	add    al,0x0
  412a48:	add    dl,BYTE PTR [eax]
  412a4a:	add    BYTE PTR [ebx],0x38
  412a4d:	inc    eax
  412a4e:	or     BYTE PTR [edx],dl
  412a50:	add    BYTE PTR [edx],ch
  412a52:	adc    BYTE PTR [eax+0x11],al
  412a55:	and    BYTE PTR [eax],al
  412a57:	and    BYTE PTR [edx],0x52
  412a5a:	sub    al,0x4
  412a5c:	add    al,bh
  412a5e:	adc    BYTE PTR [eax],ah
  412a60:	or     BYTE PTR [eax],ah
  412a62:	push   0x8388610
  412a67:	add    BYTE PTR [esi+ecx*1],bl
  412a6a:	add    eax,0xb2018292
  412a6f:	and    BYTE PTR [edx],bl
  412a71:	and    al,cl
  412a73:	add    BYTE PTR [eax],bl
  412a75:	add    BYTE PTR [eax-0x77feb79f],al
  412a7b:	or     al,0x0
  412a7d:	mov    BYTE PTR [eax-0x60],ah
  412a80:	add    BYTE PTR [ebx-0x5f77f3f6],dl
  412a86:	sub    al,0x20
  412a88:	and    al,0x18
  412a8a:	add    BYTE PTR [ecx+0x50],cl
  412a8d:	add    al,0x40
  412a8f:	inc    eax
  412a90:	or     BYTE PTR [eax],dl
  412a92:	adc    BYTE PTR [eax+0x2089223],bl
  412a98:	or     al,0x80
  412a9a:	add    BYTE PTR [eax],al
  412a9c:	add    al,0x22
  412a9e:	shl    BYTE PTR [eax+0x20600220],0xf5
  412aa5:	pop    es
  412aa6:	or     ah,BYTE PTR [edx+edx*1+0x3a]
  412aaa:	sub    BYTE PTR [edx+ebx*1],ch
  412aad:	mov    al,ds:0xc21180c
  412ab2:	add    BYTE PTR [ecx+0x1],bl
  412ab5:	add    DWORD PTR [ecx+0x3e0080c3],esp
  412abb:	dec    eax
  412abc:	dec    ebp
  412abd:	test   BYTE PTR [ebx+0x1410ca11],al
  412ac3:	or     eax,0x1004800
  412ac8:	or     BYTE PTR [eax+ebp*1+0x8204240],al
  412acf:	mov    BYTE PTR [esi+0x40],al
  412ad2:	adc    ch,BYTE PTR [eax]
  412ad4:	mov    al,0x0
  412ad6:	test   BYTE PTR [ebx],dl
  412ad8:	jb     0x412ae6
  412ada:	add    BYTE PTR [eax+0x431208],dl
  412ae0:	adc    BYTE PTR [edx],0x0
  412ae3:	sub    DWORD PTR [eax],ecx
  412ae5:	adc    cl,BYTE PTR [edx]
  412ae7:	sub    al,BYTE PTR [ecx-0x7d]
  412aea:	add    ch,BYTE PTR [edx+ebp*1-0x7976497f]
  412af1:	add    BYTE PTR [eax],dl
  412af3:	push   ebp
  412af4:	imul   esp,DWORD PTR [edi],0x402e004
  412afa:	add    BYTE PTR [eax+0x3f],ah
  412afd:	and    BYTE PTR [eax+0x3],cl
  412b00:	sbb    BYTE PTR [eax],cl
  412b02:	inc    eax
  412b03:	add    al,0x40
  412b05:	adc    BYTE PTR ds:0xa0609a83,ah
  412b0b:	and    BYTE PTR [eax+0x2],al
  412b0e:	and    al,BYTE PTR [ecx+eiz*4]
  412b11:	mov    ds:0x61280600,eax
  412b16:	and    ah,BYTE PTR [eax+eax*1]
  412b19:	sub    eax,0x30903012
  412b1e:	mov    al,0x11
  412b20:	add    BYTE PTR [edx+eax*1],al
  412b23:	cwde   
  412b24:	lea    ecx,[edx]
  412b26:	scas   al,BYTE PTR es:[edi]
  412b27:	or     BYTE PTR [eax+eiz*1+0xa044082],al
  412b2e:	adc    BYTE PTR [eax],al
  412b30:	inc    esi
  412b31:	add    DWORD PTR [ecx+0x60],0x9400
  412b38:	sub    eax,0xa518890
  412b3d:	mov    eax,DWORD PTR [edx+0xac98b10]
  412b43:	adc    eax,esp
  412b45:	or     eax,0xa4000
  412b4a:	or     BYTE PTR [eax],ah
  412b4c:	inc    esp
  412b4d:	shl    BYTE PTR [ecx],0x46
  412b50:	xor    al,0x10
  412b52:	cmp    DWORD PTR [eax],esp
  412b54:	aam    0xb6
  412b56:	add    BYTE PTR [ecx+eax*8],0x85
  412b5a:	or     BYTE PTR [ecx+0x521800],0x1e
  412b61:	and    BYTE PTR [eax+0x44c0241],al
  412b67:	and    DWORD PTR ds:0x88129024,eax
  412b6d:	sub    al,ah
  412b6f:	pusha  
  412b70:	popa   
  412b71:	inc    esp
  412b72:	and    BYTE PTR [eax],ch
  412b74:	and    BYTE PTR [ecx],dl
  412b76:	push   es
  412b77:	loope  0x412b89
  412b79:	lds    ecx,FWORD PTR [edx-0x2c]
  412b7c:	and    DWORD PTR [ebp-0x5be6b780],eax
  412b82:	in     al,0x40
  412b84:	add    BYTE PTR [eax+0x8],ah
  412b87:	pusha  
  412b88:	add    BYTE PTR [ecx+0x26],0x82
  412b8c:	add    BYTE PTR [edx],al
  412b8e:	inc    eax
  412b8f:	pop    es
  412b90:	sub    eax,DWORD PTR [eax]
  412b92:	or     eax,0x881a4c96
  412b97:	bound  edx,QWORD PTR [edx+0x0]
  412b9a:	test   al,dl
  412b9c:	inc    eax
  412b9d:	and    BYTE PTR [eax+0x0],0x55
  412ba1:	sbb    BYTE PTR [ecx+edx*4],dl
  412ba4:	jo     0x412ba6
  412ba6:	push   edx
  412ba7:	enter  0x7a68,0x40
  412bab:	inc    eax
  412bac:	adc    DWORD PTR [edx],eax
  412bae:	add    al,0x2
  412bb0:	add    dl,BYTE PTR [eax+eiz*1+0x20888ddc]
  412bb7:	add    BYTE PTR [eax+ecx*8],al
  412bba:	adc    BYTE PTR [eax+esi*8],al
  412bbd:	add    al,0x4
  412bbf:	add    al,0x0
  412bc1:	add    BYTE PTR [ebx+0x24030840],ah
  412bc7:	loopne 0x412bf9
  412bc9:	popa   
  412bca:	or     DWORD PTR [eax],eax
  412bcc:	add    al,BYTE PTR [eax+esi*2+0x8]
  412bd0:	inc    eax
  412bd1:	call   0xc280:0x106150
  412bd8:	mov    al,ds:0x8800314c
  412bdd:	test   al,0x25
  412bdf:	xchg   esp,eax
  412be0:	or     ch,BYTE PTR [eax]
  412be2:	sub    BYTE PTR [eax+0x26],0x12
  412be6:	add    esi,DWORD PTR [eax]
  412be8:	ss pop eax
  412bea:	jge    0x412bec
  412bec:	and    bl,BYTE PTR [ebx]
  412bee:	inc    ecx
  412bef:	and    eax,DWORD PTR [eax+eiz*1]
  412bf2:	xor    al,0x0
  412bf4:	test   cl,dl
  412bf6:	add    BYTE PTR [eax],dl
  412bf8:	outs   dx,BYTE PTR ds:[esi]
  412bf9:	lds    eax,FWORD PTR [eax]
  412bfb:	mov    ds:0x30a4d206,eax
  412c00:	or     bl,BYTE PTR [edi]
  412c02:	inc    edx
  412c03:	bound  ecx,QWORD PTR [eax]
  412c05:	inc    esp
  412c06:	add    BYTE PTR [eax+0x1c06b00],cl
  412c0c:	inc    edx
  412c0d:	inc    edi
  412c0e:	or     al,al
  412c10:	jb     0x412c13
  412c12:	adc    BYTE PTR [ebx-0x70],al
  412c15:	jo     0x412c2b
  412c17:	retf   0x248c
  412c1a:	inc    edx
  412c1b:	rcl    BYTE PTR [eax+0x20],1
  412c1e:	inc    eax
  412c1f:	add    eax,0x3004001
  412c24:	mov    BYTE PTR [eax],al
  412c26:	or     BYTE PTR [eax],ah
  412c28:	xchg   edx,eax
  412c29:	add    BYTE PTR [eax+0x101c0100],cl
  412c2f:	add    BYTE PTR [eax],ah
  412c31:	or     BYTE PTR [eax+0x26],al
  412c34:	sub    al,0x1
  412c36:	rcl    BYTE PTR [eax],1
  412c38:	inc    esp
  412c39:	test   BYTE PTR [edi+0x40208e48],cl
  412c3f:	add    BYTE PTR [ecx],al
  412c41:	add    BYTE PTR [eax],al
  412c43:	adc    DWORD PTR [eax],eax
  412c45:	or     BYTE PTR [esi],0x10
  412c48:	add    BYTE PTR [edx],cl
  412c4a:	or     BYTE PTR [eax+0x4114283],al
  412c50:	and    ah,BYTE PTR [ecx+0x3]
  412c53:	push   edx
  412c54:	inc    eax
  412c55:	or     DWORD PTR [ecx],eax
  412c57:	xor    al,0x20
  412c59:	and    eax,0x9400c184
  412c5e:	add    DWORD PTR [edx+0x1],0x81a1204
  412c65:	add    eax,DWORD PTR [esi+0x40]
  412c68:	or     eax,0x40021a59
  412c6d:	inc    edx
  412c6e:	add    BYTE PTR [edx],cl
  412c70:	popa   
  412c71:	sub    BYTE PTR [esi],0x40
  412c74:	or     al,0x34
  412c76:	inc    eax
  412c77:	sbb    eax,0x9395510
  412c7c:	and    al,BYTE PTR [edx+0x0]
  412c7f:	and    BYTE PTR [ecx+0x4],0x66
  412c83:	add    al,0xe0
  412c85:	add    BYTE PTR [esi+0x23248880],al
  412c8b:	pusha  
  412c8c:	adc    BYTE PTR [eax+0x202400a],dl
  412c92:	add    BYTE PTR ds:0x80862011,0xd
  412c99:	inc    ebp
  412c9a:	and    BYTE PTR [eax+0x5c0ca001],cl
  412ca0:	xchg   BYTE PTR [ecx],dh
  412ca2:	arpl   WORD PTR [esp+ebp*1-0x77fb275c],ax
  412ca9:	test   BYTE PTR [ebx+0x21ad00],cl
  412caf:	dec    ebx
  412cb0:	add    BYTE PTR [edx],bh
  412cb2:	adc    al,0x84
  412cb4:	add    BYTE PTR [eax],al
  412cb6:	xchg   ecx,eax
  412cb7:	ss adc al,0xe2
  412cba:	add    eax,eax
  412cbc:	adc    BYTE PTR [edx-0x20],al
  412cbf:	add    al,BYTE PTR [eax+0x251b690]
  412cc5:	nop
  412cc6:	sub    DWORD PTR ds:0x21430001,0x30a08098
  412cd0:	push   es
  412cd1:	(bad)  
  412cd2:	rcl    BYTE PTR [ecx],0x24
  412cd5:	add    BYTE PTR [ecx],al
  412cd7:	xchg   BYTE PTR [eax-0x80],dh
  412cda:	cdq    
  412cdb:	mov    DWORD PTR [edx+esi*1-0x75e39dfb],ebp
  412ce2:	adc    BYTE PTR [edx],0x5a
  412ce5:	inc    eax
  412ce6:	and    al,0x16
  412ce8:	sub    BYTE PTR [eax],al
  412cea:	and    dl,BYTE PTR [ecx+0x90008b5]
  412cf0:	nop
  412cf1:	dec    ecx
  412cf2:	add    BYTE PTR [eax+edi*4],dl
  412cf5:	push   ss
  412cf6:	inc    ebp
  412cf7:	push   es
  412cf8:	or     al,BYTE PTR [edx+ebp*1]
  412cfb:	adc    DWORD PTR [ecx],esi
  412cfd:	adc    BYTE PTR [eax],dl
  412cff:	xor    BYTE PTR [edx+0x21],ch
  412d02:	nop
  412d03:	mov    al,BYTE PTR [eax+eax*8-0x2f7fbff0]
  412d0a:	and    BYTE PTR [eax],dl
  412d0c:	sbb    al,al
  412d0e:	add    BYTE PTR [eax],0x0
  412d11:	add    al,0x0
  412d13:	sbb    al,0x41
  412d15:	sub    eax,0x40064094
  412d1a:	fwait
  412d1b:	dec    ecx
  412d1c:	add    BYTE PTR [ecx],0x34
  412d1f:	add    al,0x80
  412d21:	inc    eax
  412d22:	and    dl,al
  412d24:	add    DWORD PTR [edx],eax
  412d26:	push   0x45
  412d28:	(bad)  
  412d29:	mov    dl,BYTE PTR [eax+0x24011013]
  412d2f:	push   ebx
  412d30:	add    DWORD PTR [ecx],ecx
  412d32:	aam    0x80
  412d34:	sbb    DWORD PTR [eax-0x27],0x46d0961a
  412d3b:	gs push eax
  412d3d:	add    DWORD PTR [ecx+eax*2],ebx
  412d40:	dec    ebx
  412d41:	xchg   edx,eax
  412d42:	add    DWORD PTR [eax+eax*8+0xa],eax
  412d46:	mov    al,ds:0xc2000038
  412d4b:	add    al,BYTE PTR [ecx]
  412d4d:	popa   
  412d4e:	dec    eax
  412d4f:	or     al,ah
  412d51:	pusha  
  412d52:	sbb    BYTE PTR [ecx],al
  412d54:	adc    BYTE PTR [eax+0x4d0812],cl
  412d5a:	xor    BYTE PTR [ecx],ch
  412d5c:	pop    ecx
  412d5d:	dec    eax
  412d5e:	add    BYTE PTR [ecx-0x7f],al
  412d61:	add    BYTE PTR [ecx+0x67],dh
  412d64:	add    eax,0x4083086
  412d69:	add    BYTE PTR [eax],al
  412d6b:	or     BYTE PTR [edx],bl
  412d6d:	adc    BYTE PTR [edx+edx*1+0x70040a1],dl
  412d74:	push   ds
  412d75:	add    al,0x0
  412d77:	les    ebx,FWORD PTR [eax+0x13]
  412d7a:	add    al,0x0
  412d7c:	or     BYTE PTR [eax+eax*1],al
  412d7f:	or     al,al
  412d81:	add    BYTE PTR [eax],0x8
  412d84:	mov    esp,DWORD PTR [ecx+0x21581306]
  412d8a:	push   esi
  412d8b:	inc    eax
  412d8c:	ror    BYTE PTR [eax+0x12804d06],1
  412d92:	dec    ebx
  412d93:	add    ah,BYTE PTR [eax]
  412d95:	xor    BYTE PTR [edx],ah
  412d97:	add    al,0x19
  412d99:	and    al,0x20
  412d9b:	enter  0x4428,0x2
  412d9f:	test   BYTE PTR [eax+eiz*1-0x48f5be80],al
  412da6:	add    al,BYTE PTR [ecx+0x10]
  412da9:	add    dh,cl
  412dab:	and    ch,BYTE PTR [edx]
  412dad:	sub    eax,DWORD PTR [eax]
  412daf:	fs push 0x88c411c0
  412db5:	or     BYTE PTR [edx],ah
  412db7:	push   esi
  412db8:	and    dl,BYTE PTR [ecx+0x43]
  412dbb:	movs   BYTE PTR es:[edi],BYTE PTR ds:[esi]
  412dbc:	sbb    DWORD PTR [eax],esp
  412dbe:	add    BYTE PTR [ecx],0x34
  412dc1:	add    BYTE PTR [ebx+0x14a30a54],0x80
  412dc8:	add    DWORD PTR [ecx],0x2d
  412dcb:	and    al,BYTE PTR [ebp+0x0]
  412dce:	and    ch,BYTE PTR cs:[eax]
  412dd1:	add    dl,BYTE PTR [ecx+eax*4]
  412dd4:	inc    edx
  412dd5:	add    BYTE PTR [eax+0x0],cl
  412dd8:	adc    BYTE PTR [edx],0x8
  412ddb:	and    al,0x28
  412dde:	add    al,BYTE PTR [edx+0x10020588]
  412de4:	inc    eax
  412de5:	dec    ecx
  412de6:	add    al,BYTE PTR [ecx+0x110cac20]
  412dec:	loop   0x412e68
  412dee:	inc    eax
  412def:	xor    DWORD PTR [edx],edx
  412df1:	and    eax,0x9002644d
  412df6:	ins    DWORD PTR es:[edi],dx
  412df7:	add    BYTE PTR [eax+0x52],cl
  412dfa:	inc    ecx
  412dfb:	adc    BYTE PTR [esp+ebx*2],0xa2
  412dff:	adc    BYTE PTR [ecx+ebp*1],al
  412e02:	add    DWORD PTR [eax-0x48],eax
  412e05:	cmp    BYTE PTR [ecx],ah
  412e07:	add    esp,DWORD PTR [eax]
  412e09:	add    BYTE PTR [eax],al
  412e0b:	pop    eax
  412e0c:	inc    esi
  412e0d:	sbb    al,0x80
  412e0f:	in     al,0x6
  412e11:	add    BYTE PTR [ecx+0x22],0xa
  412e15:	and    al,0x0
  412e17:	enter  0x4a20,0x2c
  412e1b:	bound  eax,QWORD PTR [eax]
  412e1d:	popa   
  412e1e:	pusha  
  412e1f:	shl    BYTE PTR [esi-0x1fefee39],0x22
  412e26:	xchg   ecx,eax
  412e27:	push   esp
  412e28:	inc    edx
  412e29:	and    BYTE PTR [eax-0x52f7be5b],ch
  412e2f:	add    BYTE PTR [ebx],dh
  412e31:	and    BYTE PTR [edx],0x92
  412e34:	adc    BYTE PTR [edx],al
  412e36:	sub    BYTE PTR [eax],bh
  412e38:	xchg   ecx,eax
  412e39:	push   es
  412e3a:	adc    BYTE PTR [edi],0x0
  412e3d:	pop    ecx
  412e3e:	dec    eax
  412e3f:	and    BYTE PTR [ecx],0x12
  412e42:	add    BYTE PTR [eax+0x34],cl
  412e45:	mov    al,0x11
  412e47:	adc    al,0x81
  412e49:	and    dl,BYTE PTR [ecx+0x140b1059]
  412e4f:	enter  0x994,0x80
  412e53:	adc    DWORD PTR [eax+0x52080],ecx
  412e59:	xor    DWORD PTR [ebp-0x3fcfffef],esp
  412e5f:	add    ah,BYTE PTR [eax+eax*1]
  412e62:	or     BYTE PTR [ebp+0x4002a084],ah
  412e68:	add    BYTE PTR [eax+eiz*1+0x90b20d],dl
  412e6f:	and    BYTE PTR [ecx],cl
  412e71:	and    eax,0x2d1d3190
  412e76:	sbb    cl,BYTE PTR [esi]
  412e78:	sbb    al,0x0
  412e7a:	add    ah,BYTE PTR [esi+0x22039e2]
  412e80:	retf   
  412e81:	mov    BYTE PTR [eax+0x620a1020],al
  412e87:	adc    al,bh
  412e89:	add    al,0xd0
  412e8b:	mov    al,ds:0x4102a3
  412e90:	les    eax,FWORD PTR [eax+0x41]
  412e93:	mov    bl,0xa
  412e95:	inc    ebp
  412e96:	adc    DWORD PTR [ecx],0x90080840
  412e9c:	and    al,0x80
  412e9e:	inc    esp
  412e9f:	pop    edx
  412ea0:	adc    BYTE PTR es:[edx+0xcc020c0],al
  412ea7:	sbb    al,0x11
  412ea9:	dec    ebp
  412eaa:	add    BYTE PTR [edx-0x7ff5dbfd],cl
  412eb0:	add    BYTE PTR [eax+eax*1+0x20040254],ah
  412eb7:	nop
  412eb8:	add    BYTE PTR [eax+0x60],0x42
  412ebc:	sbb    DWORD PTR [eax+0x0],esi
  412ebf:	add    BYTE PTR [esi+ebx*1],al
  412ec2:	add    eax,0x2284081
  412ec7:	and    BYTE PTR [eax],ah
  412ec9:	mov    al,ds:0x80f00729
  412ece:	mov    al,ds:0x114348ba
  412ed3:	add    al,0x24
  412ed5:	es inc ecx
  412ed7:	mov    ah,BYTE PTR [eax+0x126591e]
  412edd:	inc    esp
  412ede:	add    esp,DWORD PTR [eax]
  412ee0:	or     al,0x4
  412ee2:	and    ah,BYTE PTR [eax]
  412ee4:	inc    ecx
  412ee5:	add    DWORD PTR [eax+0x3409a080],0xa
  412eec:	inc    eax
  412eed:	inc    esp
  412eee:	add    BYTE PTR [ecx+0x0],al
  412ef1:	push   cs
  412ef2:	mov    ds:0x5c003049,al
  412ef7:	add    al,0x10
  412ef9:	dec    eax
  412efa:	add    BYTE PTR [ebp+eiz*1+0x40020825],ah
  412f01:	test   DWORD PTR [esi],eax
  412f03:	or     BYTE PTR ds:0x2a0e9780,cl
  412f09:	adc    BYTE PTR [ecx+eiz*1],0x58
  412f0d:	test   DWORD PTR [ecx+0x224a0740],eax
  412f13:	or     eax,0xa0a0200
  412f18:	xchg   esp,eax
  412f19:	inc    esp
  412f1a:	adc    DWORD PTR [edx+ecx*1],esp
  412f1d:	add    DWORD PTR [edi+0x70004ad],eax
  412f23:	push   es
  412f24:	mov    BYTE PTR [eax],ch
  412f26:	mov    BYTE PTR [eax],dl
  412f28:	add    eax,DWORD PTR [eax+0x20101084]
  412f2e:	loopne 0x412f31
  412f30:	add    BYTE PTR [ecx],0x5
  412f33:	inc    ecx
  412f34:	xor    DWORD PTR [esi],esp
  412f36:	adc    DWORD PTR [esi],eax
  412f38:	add    BYTE PTR [ecx],ch
  412f3a:	cmp    esi,edx
  412f3c:	adc    BYTE PTR es:[eax-0x7eefa6be],al
  412f43:	or     BYTE PTR [ecx],0xc0
  412f46:	add    BYTE PTR [edx-0x1f94cff9],0x90
  412f4d:	adc    ah,al
  412f4f:	and    eax,0x15ff8882
  412f54:	adc    al,0x5b
  412f56:	inc    ebx
  412f57:	add    BYTE PTR [ecx+0x12],cl
  412f5a:	sbb    eax,DWORD PTR [edx]
  412f5c:	inc    eax
  412f5d:	add    BYTE PTR [eax+0x28],bl
  412f60:	mov    BYTE PTR [eax],al
  412f62:	and    DWORD PTR [eax-0x7f],edx
  412f65:	push   ebx
  412f66:	mov    ds:0xa8092410,al
  412f6b:	rol    BYTE PTR [esp+ebx*4+0x42],0x89
  412f70:	or     al,0x2
  412f72:	mov    al,ds:0x10868600
  412f77:	inc    eax
  412f78:	add    DWORD PTR [eax],ecx
  412f7a:	add    BYTE PTR [edx],dl
  412f7c:	inc    edx
  412f7d:	add    BYTE PTR [ecx+0x78],al
  412f80:	cwde   
  412f81:	add    al,BYTE PTR [eax]
  412f83:	adc    al,0xc
  412f85:	rcl    BYTE PTR [edx-0x79fdfbc8],0x62
  412f8c:	adc    BYTE PTR [eax+0x10],ah
  412f8f:	add    BYTE PTR [edx],al
  412f91:	xchg   BYTE PTR ds:0x9b001a0c,al
  412f97:	and    al,BYTE PTR ds:0x18012000
  412f9d:	add    BYTE PTR [eax],bl
  412f9f:	sbb    al,ah
  412fa1:	add    al,BYTE PTR [eax+edx*1-0x7c]
  412fa5:	bound  ebp,QWORD PTR [eax-0x3efce800]
  412fab:	push   es
  412fac:	or     BYTE PTR [eax],al
  412fae:	add    esp,DWORD PTR [ecx+edx*1]
  412fb1:	and    BYTE PTR [edx+0xa],al
  412fb4:	or     BYTE PTR [eax],dl
  412fb6:	inc    eax
  412fb7:	les    ecx,FWORD PTR [edx]
  412fb9:	add    BYTE PTR [esi],cl
  412fbb:	add    eax,0x8425306
  412fc0:	add    al,BYTE PTR [esp+eiz*4]
  412fc3:	xchg   ecx,eax
  412fc4:	add    BYTE PTR [eax+0x2013000],0x62
  412fcb:	ret    0x5820
  412fce:	add    dh,dl
  412fd0:	and    BYTE PTR [ecx],al
  412fd2:	xchg   BYTE PTR [edx-0x7e],al
  412fd5:	dec    ecx
  412fd6:	or     al,0xad
  412fd9:	adc    BYTE PTR [eax+0x22],dh
  412fdc:	mov    ecx,0x12840a48
  412fe1:	add    BYTE PTR [eax],ah
  412fe3:	inc    ebx
  412fe4:	or     dl,BYTE PTR [eax-0x5e]
  412fe7:	push   eax
  412fe8:	or     eax,DWORD PTR fs:[ecx]
  412feb:	loope  0x412f81
  412fed:	and    BYTE PTR [edx-0x4d9fe2e4],dh
  412ff3:	mov    al,ds:0x22c1028
  412ff8:	rcl    BYTE PTR [edx],0x68
  412ffb:	and    BYTE PTR [esp+edx*1],bh
  412ffe:	inc    ecx
  412fff:	les    esi,FWORD PTR [eax+0x5034114]
  413005:	adc    BYTE PTR [eax+0x18022b40],dl
  41300b:	adc    DWORD PTR [esp],eax
  41300e:	enter  0x412,0x4
  413012:	pop    eax
  413013:	add    BYTE PTR [ecx],0x2
  413016:	and    BYTE PTR [eax],cl
  413018:	inc    ebx
  413019:	add    DWORD PTR [eax],eax
  41301b:	push   es
  41301c:	add    BYTE PTR [esi],al
  41301e:	shl    BYTE PTR [ebx],cl
  413020:	inc    edx
  413021:	mov    ds:0x82146040,al
  413026:	add    DWORD PTR [ebx],eax
  413028:	test   al,0x24
  41302a:	add    BYTE PTR [eax-0x1bbe9ed2],ah
  413030:	add    BYTE PTR ds:0x70948880,dl
  413036:	add    BYTE PTR [edx+eax*1+0x8],dh
  41303a:	or     BYTE PTR [ebx+0x19],0x60
  41303e:	push   es
  41303f:	xchg   ecx,eax
  413040:	ret    0x50e2
  413043:	or     BYTE PTR [esi+0x18],al
  413046:	xchg   esp,eax
  413047:	sbb    al,0x16
  413049:	or     al,0x4
  41304b:	or     BYTE PTR [ecx+0xc3c0081],al
  413051:	adc    BYTE PTR [eax+0x6],cl
  413054:	and    BYTE PTR [eax+edx*8],al
  413057:	loop   0x413079
  413059:	pop    ecx
  41305a:	sub    DWORD PTR [edx+0x28],esp
  41305d:	and    BYTE PTR [ecx],al
  41305f:	push   es
  413060:	add    BYTE PTR [edx-0x5fbbedef],cl
  413066:	add    al,BYTE PTR [eax]
  413068:	add    BYTE PTR [eiz*1-0x1c7fbda0],al
  41306f:	or     al,0x1
  413071:	and    al,0x2
  413073:	add    BYTE PTR [eax+0x0],al
  413076:	jmp    0x204782fd
  41307b:	add    BYTE PTR [esi+0x98140d],al
  413081:	adc    al,0x4
  413083:	sbb    eax,ecx
  413085:	mov    BYTE PTR [edi],dl
  413087:	push   esi
  413088:	les    ebx,FWORD PTR [eax]
  41308a:	or     eax,0x1480100
  41308f:	dec    eax
  413090:	add    eax,0xeaa08c42
  413095:	and    DWORD PTR [esi],eax
  413097:	and    BYTE PTR [eax],al
  413099:	inc    edx
  41309a:	add    BYTE PTR [esp+eax*1-0x7fbdf7e0],dh
  4130a1:	mov    ds:0x2a058d28,al
  4130a6:	dec    eax
  4130a7:	add    BYTE PTR [edx],dl
  4130a9:	or     al,BYTE PTR [ecx+0x1]
  4130ac:	or     BYTE PTR [eax-0x7bbdb1e0],ch
  4130b2:	add    BYTE PTR [ecx],al
  4130b4:	lock inc edx
  4130b6:	add    al,0x0
  4130b8:	test   BYTE PTR [edx+0x0],al
  4130bb:	add    DWORD PTR [eax+0x20058870],eax
  4130c1:	sbb    DWORD PTR [esp+eax*1+0x83ba044],eax
  4130c8:	xor    al,BYTE PTR [eax]
  4130ca:	or     BYTE PTR [ebx],dl
  4130cc:	loopne 0x4130ee
  4130ce:	or     ah,BYTE PTR [ebx]
  4130d0:	adc    al,BYTE PTR [eax+eax*4+0x999000]
  4130d7:	and    DWORD PTR [ecx-0x7ad4f7eb],ecx
  4130dd:	cmps   BYTE PTR ds:[esi],BYTE PTR es:[edi]
  4130de:	int3   
  4130df:	push   eax
  4130e0:	and    al,al
  4130e2:	xor    al,0x4
  4130e4:	or     BYTE PTR [eax],al
  4130e6:	adc    DWORD PTR [ecx-0x78],ecx
  4130e9:	sub    al,0x1
  4130eb:	sbb    DWORD PTR [eax+ecx*1+0x5402130],esp
  4130f2:	or     al,0xc6
  4130f4:	adc    BYTE PTR [ecx],ah
  4130f6:	or     eax,0x2118806
  4130fb:	add    al,0xc2
  4130fd:	add    bl,ah
  4130ff:	add    eax,0x11008829
  413104:	inc    esp
  413105:	push   cs
  413106:	leave  
  413107:	and    BYTE PTR [ebx],0x19
  41310a:	xor    BYTE PTR [ebx],bl
  41310c:	pop    ecx
  41310e:	or     BYTE PTR [ecx+edx*1+0x0],0x5
  413113:	add    eax,0x20944882
  413118:	push   es
  413119:	test   BYTE PTR [ecx],ah
  41311b:	or     eax,0x68202690
  413120:	es pop ss
  413122:	and    BYTE PTR [esi],dl
  413124:	and    BYTE PTR ds:0x39b9801,bl
  41312a:	call   0x60:0x8e000800
  413131:	adc    BYTE PTR [eax-0x59d5f97e],al
  413137:	push   eax
  413138:	add    BYTE PTR [eax+edx*4+0x70028520],ch
  41313f:	add    DWORD PTR [eax-0x33],eax
  413142:	add    DWORD PTR [edx],0x28620c0
  413148:	inc    esi
  413149:	add    cl,BYTE PTR [ecx]
  41314b:	inc    ecx
  41314c:	sub    DWORD PTR [ecx+0x10],eax
  41314f:	daa    
  413150:	or     BYTE PTR [eax],dl
  413152:	sub    BYTE PTR [eax],ah
  413154:	add    BYTE PTR [ecx+0x0],0x88
  413158:	test   BYTE PTR [eax],al
  41315a:	add    eax,DWORD PTR [eax-0x6b]
  41315d:	add    BYTE PTR [esi+0x15084021],ah
  413163:	or     BYTE PTR [eax+0xa],al
  413166:	les    ecx,FWORD PTR [eax]
  413168:	add    al,0xc0
  41316a:	test   eax,0x49020011
  41316f:	or     BYTE PTR [eax-0x33f3bf7e],dl
  413175:	loopne 0x4130fb
  413177:	and    BYTE PTR [eax],al
  413179:	push   0x1
  41317b:	cmp    al,0xb1
  41317d:	add    BYTE PTR [edx],cl
  41317f:	inc    edi
  413180:	inc    ecx
  413181:	test   cl,ah
  413183:	sbb    BYTE PTR [eax],al
  413185:	or     al,0xd
  413187:	or     BYTE PTR ds:0x8a082040,al
  41318d:	or     BYTE PTR [edx-0x7c],dl
  413190:	sbb    DWORD PTR [edi],ecx
  413192:	rol    DWORD PTR [eax+0x240c4a],1
  413198:	add    BYTE PTR [ecx-0x7e],al
  41319b:	push   ds
  41319c:	inc    edx
  41319d:	pusha  
  41319e:	les    eax,FWORD PTR [ecx]
  4131a0:	lods   al,BYTE PTR ds:[esi]
  4131a1:	add    BYTE PTR [eax],0xc9
  4131a4:	sbb    cl,BYTE PTR [eax+0x0]
  4131a7:	ret    0x4600
  4131aa:	add    dl,al
  4131ac:	inc    eax
  4131ad:	dec    edx
  4131ae:	or     al,0x80
  4131b0:	sub    cl,BYTE PTR [eax+0x69000268]
  4131b6:	nop
  4131b7:	sbb    BYTE PTR [ecx],al
  4131b9:	sub    eax,0x17108448
  4131be:	or     al,0x8
  4131c0:	and    DWORD PTR [edx],ecx
  4131c2:	add    eax,0xa5021968
  4131c7:	and    BYTE PTR [eax+0x146a2640],dl
  4131cd:	and    eax,0x8101a82
  4131d2:	xchg   esp,eax
  4131d3:	push   es
  4131d4:	adc    DWORD PTR [edx+edx*8],eax
  4131d7:	in     al,dx
  4131d8:	add    dl,BYTE PTR [ebp+0x2402000]
  4131de:	sub    BYTE PTR [edx+0x51],bl
  4131e1:	dec    eax
  4131e2:	adc    DWORD PTR [edi],eax
  4131e4:	and    al,0x90
  4131e6:	push   eax
  4131e7:	xor    al,BYTE PTR [eax+edx*4+0xa211303]
  4131ee:	and    cl,cl
  4131f0:	les    esi,FWORD PTR [ecx+0xa9a00a]
  4131f6:	and    BYTE PTR [eax+ebp*1+0x0],cl
  4131fa:	mov    al,ds:0xc40a8000
  4131ff:	or     al,BYTE PTR [edx]
  413201:	adc    al,0xe
  413203:	and    al,cl
  413205:	adc    bh,BYTE PTR [ecx-0x40]
  413208:	inc    eax
  413209:	inc    esp
  41320a:	push   es
  41320b:	sbb    BYTE PTR [ecx+0x18b09748],ch
  413211:	add    BYTE PTR [edx+0x2a384004],dl
  413217:	add    DWORD PTR [eax],eax
  413219:	push   ss
  41321a:	add    BYTE PTR [eax+0x6211044],al
  413220:	adc    BYTE PTR [eax+0xc80482],dl
  413226:	xor    DWORD PTR [eax+esi*1],esi
  413229:	and    BYTE PTR [eax],ah
  41322b:	inc    eax
  41322c:	and    BYTE PTR [eax+ebp*1+0x1292802],ch
  413233:	cmps   BYTE PTR ds:[esi],BYTE PTR es:[edi]
  413234:	push   ss
  413235:	add    eax,0x5c2235
  41323a:	add    DWORD PTR [edx],esp
  41323c:	add    BYTE PTR [eax+0x14c00d20],al
  413242:	adc    BYTE PTR [eax+eiz*4+0x40544418],al
  413249:	les    eax,FWORD PTR [ecx+0xd]
  41324c:	loope  0x413290
  41324e:	add    al,0x8
  413250:	inc    esp
  413251:	and    al,0x0
  413253:	add    eax,DWORD PTR [eax+0x422022e0]
  413259:	adc    al,0x84
  41325b:	shl    BYTE PTR [eax],1
  41325d:	ror    DWORD PTR [ebx+eiz*1],cl
  413260:	ret    0x4442
  413263:	push   edi
  413264:	cmps   DWORD PTR ds:[esi],DWORD PTR es:[edi]
  413265:	add    BYTE PTR [ecx+0x20],ah
  413268:	xor    BYTE PTR [eax-0x7fdadfa8],al
  41326e:	and    ah,BYTE PTR [edx]
  413270:	xchg   ebp,eax
  413271:	add    BYTE PTR [eax],al
  413273:	and    cl,BYTE PTR [eax]
  413275:	push   esi
  413276:	add    DWORD PTR [eax],edx
  413278:	push   ss
  413279:	mov    DWORD PTR [eax-0x7ef27b38],ebp
  41327f:	add    BYTE PTR [eax+eiz*2],al
  413282:	inc    ecx
  413283:	nop
  413284:	sbb    DWORD PTR [eax],eax
  413286:	add    BYTE PTR [ecx],al
  413288:	daa    
  413289:	inc    edx
  41328a:	and    BYTE PTR [ebp+eax*1+0x1],bl
  41328e:	pusha  
  41328f:	add    BYTE PTR [eax],cl
  413291:	adc    BYTE PTR [eax],ah
  413293:	inc    ebx
  413294:	push   cs
  413295:	or     BYTE PTR [eax],al
  413297:	loopne 0x413299
  413299:	xor    al,BYTE PTR es:[eax]
  41329c:	clc    
  41329d:	or     ch,BYTE PTR [edx+0x43]
  4132a0:	mov    al,BYTE PTR [edx+edx*1+0x80102]
  4132a7:	or     al,0x40
  4132a9:	add    BYTE PTR [eax],al
  4132ab:	add    al,BYTE PTR [eax+0x11800002]
  4132b1:	add    BYTE PTR [edx-0x60],ah
  4132b4:	mov    al,ds:0x42882
  4132b9:	adc    al,BYTE PTR [edx]
  4132bb:	pop    eax
  4132bc:	inc    eax
  4132bd:	and    al,BYTE PTR [eax]
  4132bf:	and    BYTE PTR [esp+edx*8],al
  4132c2:	mov    eax,0x80720981
  4132c7:	xor    BYTE PTR [ebp+0x4ca0d2],al
  4132cd:	cmp    DWORD PTR [ecx*1+0x322821],ebp
  4132d4:	xor    al,BYTE PTR [eax+0x2e000040]
  4132da:	add    al,0x1
  4132dc:	add    BYTE PTR [eax-0x78a27be0],ah
  4132e2:	and    BYTE PTR [eax+0x41],dl
  4132e5:	or     BYTE PTR [eax+0x60],cl
  4132e8:	xor    cl,BYTE PTR [eax+0x18]
  4132eb:	and    al,0x10
  4132ed:	push   edi
  4132ee:	add    BYTE PTR [edi],al
  4132f0:	and    dh,BYTE PTR [eax]
  4132f2:	add    BYTE PTR [ecx-0x7fd3bff8],bl
  4132f8:	and    BYTE PTR [ebx],ah
  4132fa:	add    dl,BYTE PTR [eax]
  4132fc:	rcl    BYTE PTR [ecx+0x11800235],0x84
  413303:	inc    eax
  413304:	cdq    
  413305:	or     BYTE PTR [edx],al
  413307:	mov    eax,ds:0x2800000
  41330c:	pop    eax
  41330d:	mov    BYTE PTR [edx],0x14
  413310:	and    al,0x41
  413312:	add    BYTE PTR [edx+0x12],dl
  413315:	dec    ecx
  413316:	sbb    BYTE PTR [edx+0xc80880],ah
  41331c:	add    BYTE PTR [ecx+0x78911100],ch
  413322:	add    al,0x1a
  413324:	add    DWORD PTR [edx+0x13200781],ecx
  41332a:	pop    ss
  41332b:	pusha  
  41332c:	or     al,BYTE PTR [eax+ecx*1+0x0]
  413330:	inc    edx
  413331:	add    al,0x90
  413333:	add    ch,BYTE PTR [eax]
  413335:	add    BYTE PTR [ecx+0x8],al
  413338:	add    BYTE PTR [eax+0x20040],ah
  41333e:	and    BYTE PTR [ecx],al
  413340:	and    dl,BYTE PTR [ecx]
  413342:	push   eax
  413343:	add    BYTE PTR [esi+0x9000210],al
  413349:	add    DWORD PTR [eax],edx
  41334b:	enter  0x714,0x10
  41334f:	dec    eax
  413350:	add    BYTE PTR [esi+eax*2],ah
  413353:	sbb    BYTE PTR [eax+0x10250880],cl
  413359:	add    al,BYTE PTR [eax]
  41335b:	mov    WORD PTR [ecx],ss
  41335d:	mov    cl,al
  41335f:	and    BYTE PTR [ecx],0x5
  413362:	and    BYTE PTR [eax],ah
  413364:	push   es
  413365:	xchg   esp,eax
  413366:	js     0x413376
  413368:	shl    DWORD PTR [edx+0x48],0x48
  41336c:	nop
  41336d:	and    cl,BYTE PTR [esi]
  41336f:	or     al,0xae
  413371:	add    DWORD PTR [esi+eax*1],ebp
  413374:	inc    esp
  413375:	add    bl,BYTE PTR [eax-0x80]
  413378:	add    BYTE PTR [ebx],0x4
  41337b:	add    BYTE PTR [eax+eax*1],cl
  41337e:	nop
  41337f:	or     eax,0x10698101
  413384:	cmp    cl,BYTE PTR [ecx]
  413386:	mov    al,ds:0x1402280
  41338b:	sub    BYTE PTR [esi],al
  41338d:	add    DWORD PTR [eax],ecx
  41338f:	and    BYTE PTR [eax+0x20],ah
  413392:	and    eax,0x59e84ba1
  413397:	and    BYTE PTR [eax+eiz*2-0x3bfd5974],al
  41339e:	dec    eax
  41339f:	imul   ebx,DWORD PTR [ecx+eax*2+0x7a020201],0x70000616
  4133aa:	iret   
  4133ab:	clc    
  4133ac:	and    al,0x3
  4133ae:	or     BYTE PTR ds:0x2505114,al
  4133b4:	or     BYTE PTR [ebx],cl
  4133b6:	loopne 0x413424
  4133b8:	or     DWORD PTR [edx+eiz*4],ecx
  4133bb:	mov    eax,0xa01c2802
  4133c0:	dec    ecx
  4133c1:	or     BYTE PTR [edx+eiz*1],ah
  4133c4:	enter  0x6100,0x0
  4133c8:	add    al,0x41
  4133ca:	add    al,cl
  4133cc:	inc    ecx
  4133cd:	add    BYTE PTR [esi],dl
  4133cf:	leave  
  4133d0:	dec    edx
  4133d1:	push   0x3400214
  4133d6:	xor    al,BYTE PTR [eax]
  4133d8:	les    eax,FWORD PTR [eax]
  4133da:	lea    ebx,[edx]
  4133dc:	add    BYTE PTR [eax],cl
  4133de:	nop
  4133df:	add    eax,0x2058898a
  4133e4:	add    al,BYTE PTR [edx+0x2]
  4133e7:	pusha  
  4133e8:	dec    eax
  4133e9:	adc    BYTE PTR [eax],ah
  4133eb:	sub    ebx,DWORD PTR [ebp+0x10]
  4133ee:	add    eax,0xa5150430
  4133f3:	ror    BYTE PTR [eax],cl
  4133f5:	add    DWORD PTR [eax],esp
  4133f7:	and    eax,0x8a0884
  4133fc:	sbb    BYTE PTR [ebx+eax*1],dl
  4133ff:	add    cl,al
  413401:	add    BYTE PTR [eax-0x2b6b9bf8],ch
  413407:	and    BYTE PTR [eax],dh
  413409:	add    BYTE PTR [ecx],cl
  41340b:	and    BYTE PTR [edx+0x254064c3],0xa0
  413412:	jl     0x413394
  413414:	sub    eax,0x2000308
  413419:	add    ecx,DWORD PTR [eax+0x10168511]
  41341f:	inc    ebp
  413420:	cmp    cl,BYTE PTR [eax+eax*1+0x1d68001]
  413427:	adc    eax,0xc1c600a4
  41342c:	xor    BYTE PTR [eax],al
  41342e:	rcr    DWORD PTR [ecx],0x22
  413431:	mov    al,ds:0xc10030b
  413436:	add    al,ah
  413438:	or     eax,DWORD PTR [eax+esi*8]
  41343b:	or     ah,BYTE PTR [eax+0x221184a0]
  413441:	add    eax,0x28
  413444:	add    BYTE PTR [edx],cl
  413446:	sub    BYTE PTR [eax],ch
  413448:	mov    ecx,DWORD PTR [edx+0xc00b475]
  41344e:	or     BYTE PTR [ebx],ah
  413450:	add    eax,DWORD PTR [edx+0x1200c5a]
  413456:	add    al,0x1a
  413458:	dec    eax
  413459:	daa    
  41345a:	add    BYTE PTR [ebx],ch
  41345c:	or     BYTE PTR [eax+0x515980],al
  413462:	add    BYTE PTR [esi],cl
  413464:	les    eax,FWORD PTR [edx]
  413466:	movs   BYTE PTR es:[edi],BYTE PTR ds:[esi]
  413467:	lea    ebx,[ebx]
  413469:	adc    BYTE PTR [eax],dl
  41346b:	and    ecx,DWORD PTR [eax+0x2a900010]
  413471:	or     BYTE PTR [eax+0xd080700],0x28
  413478:	mov    al,BYTE PTR [edx+eax*1]
  41347b:	inc    ebp
  41347c:	xor    al,0xa
  41347e:	add    al,0x13
  413480:	add    al,0x90
  413482:	add    al,BYTE PTR [edx]
  413484:	add    DWORD PTR [eax],esp
  413486:	dec    esp
  413487:	sub    bl,BYTE PTR [eax]
  413489:	adc    BYTE PTR [edx],dh
  41348b:	push   ecx
  41348c:	or     BYTE PTR [eax+0xb],al
  41348f:	add    al,0x88
  413491:	cmp    al,0xb0
  413493:	or     al,BYTE PTR [ecx+ebx*1]
  413496:	add    BYTE PTR [ecx+eiz*1],ah
  413499:	and    BYTE PTR [edx-0x2e],al
  41349c:	or     DWORD PTR [eax-0x5f],eax
  41349f:	adc    BYTE PTR [eax+0xc],al
  4134a2:	add    BYTE PTR es:[ecx+0x48015020],cl
  4134a9:	add    BYTE PTR [ecx+0x8e02c01],cl
  4134af:	and    ah,BYTE PTR [ebx+0x6000627]
  4134b5:	and    BYTE PTR [eax],ch
  4134b7:	and    eax,0x1083242
  4134bc:	adc    dl,BYTE PTR [ecx+0x20490808]
  4134c2:	xchg   edx,eax
  4134c3:	push   0x8034c0
  4134c8:	or     BYTE PTR [ecx],dl
  4134ca:	adc    dh,ah
  4134cc:	loopne 0x413496
  4134ce:	and    esp,edx
  4134d0:	add    BYTE PTR [ebx+0x24f04060],dl
  4134d6:	sub    eax,0x102048
  4134db:	ret    0x8012
  4134de:	sub    BYTE PTR [eax],bl
  4134e0:	or     eax,0x208a2101
  4134e5:	inc    eax
  4134e6:	ror    eax,0x99
  4134e9:	sbb    BYTE PTR [eax],al
  4134eb:	add    BYTE PTR [eax],al
  4134ed:	or     ecx,DWORD PTR [eax]
  4134ef:	mov    fs,WORD PTR [ecx]
  4134f1:	test   BYTE PTR [eax],cl
  4134f3:	add    BYTE PTR [edx],0x46
  4134f6:	inc    ecx
  4134f7:	add    DWORD PTR [eax+0x1905121],esp
  4134fd:	add    BYTE PTR [edx],al
  4134ff:	and    BYTE PTR [eax-0x22],al
  413502:	bound  esp,QWORD PTR [esi+0x1]
  413505:	and    BYTE PTR [esp+esi*2+0x12242844],dl
  41350c:	mov    BYTE PTR [edx+0x12],bl
  41350f:	or     al,0xa2
  413511:	inc    eax
  413512:	sub    al,0x0
  413514:	xchg   ecx,eax
  413515:	or     ah,0x6
  413518:	add    al,0x44
  41351a:	inc    edx
  41351b:	sub    DWORD PTR [ebx+0x8],eax
  41351e:	add    BYTE PTR [eax+0x28001009],dl
  413524:	adc    al,0x43
  413526:	and    BYTE PTR [eax],0x58
  413529:	rcl    BYTE PTR [edi],0x51
  41352c:	or     BYTE PTR [esi],0xd
  41352f:	add    al,BYTE PTR [eax]
  413531:	inc    eax
  413532:	adc    BYTE PTR [ebp+0x24],al
  413535:	test   BYTE PTR [esp+ecx*1+0x72204056],ah
  41353c:	push   eax
  41353d:	add    BYTE PTR [edi],al
  41353f:	add    eax,DWORD PTR [esi+ebx*4+0x11]
  413543:	push   0x1500020
  413548:	and    al,al
  41354a:	adc    BYTE PTR [edi+eiz*1+0xe],al
  41354e:	ror    BYTE PTR [eax],1
  413550:	loop   0x413572
  413552:	add    BYTE PTR [eax+0x6000026a],dl
  413558:	and    BYTE PTR [edi-0x3f],ch
  41355b:	sub    al,BYTE PTR [ecx]
  41355d:	mov    BYTE PTR [ecx],cl
  41355f:	add    BYTE PTR [edx],al
  413561:	or     dh,0x0
  413564:	dec    edx
  413565:	and    BYTE PTR ds:0xe0201204,0x12
  41356c:	xchg   edi,eax
  41356d:	mov    BYTE PTR [eax],dl
  41356f:	push   edx
  413570:	or     DWORD PTR [eax+0x10],ecx
  413573:	add    al,0x40
  413575:	test   BYTE PTR [eax],al
  413577:	pusha  
  413578:	or     al,BYTE PTR [eax+0x5c10823]
  41357e:	fmul   QWORD PTR [eax+0x72110a1]
  413584:	pusha  
  413585:	inc    esp
  413586:	add    dh,BYTE PTR [eax]
  413588:	or     BYTE PTR [ecx],dl
  41358a:	dec    ebx
  41358b:	add    al,BYTE PTR [esp+edi*2-0x65]
  41358f:	adc    BYTE PTR [eax+0x2106d402],al
  413595:	adc    eax,DWORD PTR [ebx+0x203c0050]
  41359b:	mov    ah,0x9
  41359d:	gs add al,0x2a
  4135a0:	pop    edx
  4135a1:	adc    al,BYTE PTR [eax]
  4135a3:	sbb    BYTE PTR [ebx+0x400042],ah
  4135a9:	inc    ecx
  4135aa:	inc    eax
  4135ab:	and    BYTE PTR [esp+eax*1],ah
  4135ae:	adc    BYTE PTR [ecx+0x48],dh
  4135b1:	jno    0x4135b3
  4135b3:	xchg   DWORD PTR [esi],edi
  4135b5:	add    bh,BYTE PTR [eax+0x31]
  4135b8:	adc    BYTE PTR [ecx+edx*1],al
  4135bb:	adc    DWORD PTR [eax],edx
  4135bd:	add    BYTE PTR [eax-0x7a],al
  4135c0:	add    BYTE PTR [edx+0x1000100],cl
  4135c6:	add    ah,BYTE PTR [eax]
  4135c8:	and    DWORD PTR [esp+ecx*1+0x4e221a1],eax
  4135cf:	push   es
  4135d0:	add    bl,BYTE PTR [eax]
  4135d2:	add    BYTE PTR [ebx+0x4d],al
  4135d5:	inc    eax
  4135d6:	add    al,0x4
  4135d8:	adc    DWORD PTR [ebx],eax
  4135da:	test   BYTE PTR [eax-0x7ffcfd65],al
  4135e0:	and    BYTE PTR [eax+ebx*1+0xe],ch
  4135e4:	inc    ecx
  4135e5:	inc    eax
  4135e6:	sbb    eax,0xb48100
  4135eb:	add    DWORD PTR [edx],eax
  4135ed:	add    eax,0xa2ba0c45
  4135f2:	push   es
  4135f3:	dec    edx
  4135f4:	inc    ebx
  4135f5:	add    eax,0xc0429200
  4135fa:	adc    al,0xa5
  4135fc:	or     ecx,DWORD PTR [ecx]
  4135fe:	mov    ch,0x90
  413600:	sub    DWORD PTR ds:0x8222a04,eax
  413606:	add    al,BYTE PTR [eax]
  413608:	adc    BYTE PTR [ecx],cl
  41360a:	and    DWORD PTR [ecx],eax
  41360c:	ret    0xc040
  41360f:	stos   DWORD PTR es:[edi],eax
  413610:	inc    esp
  413611:	add    BYTE PTR [edx+0x12],dl
  413614:	inc    edx
  413615:	push   edx
  413616:	add    DWORD PTR [eax-0x6debdbdf],ecx
  41361c:	add    DWORD PTR [edx+0x0],ebx
  41361f:	adc    esp,DWORD PTR [eax]
  413621:	mov    al,0x51
  413623:	shl    BYTE PTR [ecx+0x2d],0x2
  413627:	add    DWORD PTR [edx],ebp
  413629:	and    al,0x42
  41362b:	add    al,BYTE PTR [ebp+0x10]
  41362e:	xchg   BYTE PTR [eax+0x28840041],al
  413634:	add    cl,BYTE PTR [ebp-0x58]
  413637:	inc    esp
  413638:	popa   
  413639:	add    al,0x44
  41363b:	add    BYTE PTR [edx],cl
  41363d:	dec    eax
  41363e:	add    dl,BYTE PTR [eax]
  413640:	or     BYTE PTR [ecx],0x3
  413643:	and    BYTE PTR [edi],al
  413645:	and    ah,BYTE PTR [eax+edx*1]
  413648:	xchg   BYTE PTR [eax],al
  41364a:	inc    edx
  41364b:	push   edx
  41364c:	add    eax,DWORD PTR [eax]
  41364e:	add    BYTE PTR ds:0x42062108,al
  413654:	sbb    al,BYTE PTR [eax]
  413656:	inc    ebp
  413657:	and    BYTE PTR [ecx+0x7492b210],al
  41365d:	jge    0x41367f
  41365f:	pop    eax
  413660:	or     cl,ah
  413662:	sub    BYTE PTR [eax],al
  413664:	add    BYTE PTR [edx+ecx*4],al
  413667:	push   es
  413668:	or     BYTE PTR [eax-0x57f7afbb],al
  41366e:	and    eax,eax
  413670:	inc    eax
  413671:	or     al,0x1
  413673:	and    al,0xa1
  413676:	loop   0x41367e
  413678:	adc    BYTE PTR [eax],cl
  41367a:	add    al,0x2
  41367c:	add    eax,DWORD PTR [eax]
  41367e:	adc    eax,0xb0818500
  413683:	add    DWORD PTR [eax+0xc580281],eax
  413689:	inc    eax
  41368a:	push   0x6840d98
  41368f:	add    BYTE PTR [edx],ch
  413691:	and    al,0x2
  413693:	pop    eax
  413694:	sub    BYTE PTR [ecx+eiz*2-0x7777f600],ah
  41369b:	ret    0x1890
  41369e:	and    BYTE PTR [ebx+0x1],ah
  4136a1:	dec    ecx
  4136a2:	push   edx
  4136a3:	sbb    BYTE PTR [ecx+eax*1-0x4ffddeaf],ah
  4136aa:	adc    BYTE PTR [eax-0x7c],dl
  4136ad:	adc    edx,DWORD PTR [ecx]
  4136af:	add    BYTE PTR ds:0xc3832200,ch
  4136b5:	dec    eax
  4136b6:	sub    BYTE PTR [edx+0x1829f0c0],al
  4136bc:	add    al,0x26
  4136be:	dec    eax
  4136bf:	and    cl,BYTE PTR [eax+edi*8]
  4136c2:	inc    eax
  4136c3:	nop
  4136c4:	lods   al,BYTE PTR ds:[esi]
  4136c5:	push   edx
  4136c6:	or     eax,esp
  4136c8:	add    BYTE PTR [ecx],ah
  4136ca:	add    DWORD PTR ds:0x2146188c,esp
  4136d0:	psubusb mm0,QWORD PTR [eax+ecx*2+0x22]
  4136d5:	and    esi,DWORD PTR fs:[eax]
  4136d8:	or     al,dl
  4136da:	nop
  4136db:	add    al,BYTE PTR [edx]
  4136dd:	test   BYTE PTR [esp+eax*2],al
  4136e0:	inc    esp
  4136e1:	add    ah,BYTE PTR [ecx+ebp*1+0x50c104c4]
  4136e8:	add    al,0x8
  4136ea:	and    DWORD PTR [ecx-0x76],ebx
  4136ed:	or     ah,dh
  4136ef:	and    eax,DWORD PTR [edx]
  4136f1:	add    eax,0x21020010
  4136f6:	add    BYTE PTR [edi+eiz*1+0x217424a],dl
  4136fd:	and    dl,0xf3
  413700:	add    BYTE PTR [eax+eiz*2+0x1e000290],cl
  413707:	mov    WORD PTR [eax],fs
  413709:	dec    edx
  41370a:	or     ah,BYTE PTR [ecx]
  41370c:	and    DWORD PTR [eax+0x2508868c],ebp
  413712:	js     0x41374d
  413714:	loope  0x413738
  413716:	add    BYTE PTR [ebx],al
  413718:	ret    0xc02
  41371b:	int3   
  41371c:	mov    eax,ds:0x4488208
  413721:	test   DWORD PTR [eax+eax*1],eax
  413724:	or     DWORD PTR [ecx],eax
  413726:	jo     0x4136fd
  413728:	call   DWORD PTR ds:0x435a9c
  41372e:	push   eax
  41372f:	dec    esp
  413730:	rcl    BYTE PTR [eax+0x458008],cl
  413736:	inc    edx
  413737:	rol    BYTE PTR [ebp-0x18],0x13
  41373b:	rol    BYTE PTR [ebp+0x40890012],0x14
  413742:	push   eax
  413743:	adc    al,0x24
  413745:	add    BYTE PTR [eax],dl
  413747:	and    BYTE PTR [eax+0x21440510],cl
  41374d:	add    DWORD PTR [edx+0xa824a06],eax
  413753:	sub    ah,BYTE PTR [eax-0x64]
  413756:	and    BYTE PTR [eax-0x40],cl
  413759:	adc    al,0xc
  41375b:	and    DWORD PTR [ebx+0x0],esp
  41375e:	mov    al,ds:0x4401912
  413763:	add    BYTE PTR [esp+ecx*1],0x14
  413767:	and    al,0x44
  413769:	push   esp
  41376a:	call   0xa083238f
  41376f:	xchg   edx,eax
  413770:	inc    eax
  413771:	sbb    BYTE PTR ds:0x4000,0xab
  413778:	push   cs
  413779:	push   esp
  41377a:	adc    eax,0x4c100c21
  41377f:	inc    eax
  413780:	bound  eax,QWORD PTR [ecx]
  413782:	add    BYTE PTR [ecx+esi*1+0x20],cl
  413786:	add    BYTE PTR [eax+edx*2-0x80],al
  41378a:	retf   0xc21
  41378d:	xchg   BYTE PTR [eax+0x11430244],ah
  413793:	adc    al,0x84
  413795:	add    ah,BYTE PTR [ebx]
  413797:	add    BYTE PTR [esi],0xdc
  41379a:	or     DWORD PTR [eax+0x62000688],eax
  4137a0:	add    eax,DWORD PTR [eax]
  4137a2:	mov    eax,DWORD PTR [esi+0x0]
  4137a5:	test   al,0x63
  4137a7:	push   es
  4137a8:	sbb    al,0x5
  4137aa:	adc    BYTE PTR [edx],ah
  4137ac:	xor    DWORD PTR [eax+0x40],eax
  4137af:	popa   
  4137b0:	add    BYTE PTR [ecx],al
  4137b2:	add    al,0xc3
  4137b4:	shl    DWORD PTR [eax+0x6c],0x3
  4137b8:	and    BYTE PTR [eax-0x54],dl
  4137bb:	or     DWORD PTR [eax],eax
  4137bd:	inc    esp
  4137be:	adc    BYTE PTR [eax+eiz*1],bl
  4137c1:	pop    ss
  4137c2:	sub    BYTE PTR [eax],cl
  4137c4:	inc    edi
  4137c5:	add    BYTE PTR [eax],dl
  4137c7:	test   al,0x30
  4137c9:	add    DWORD PTR [edx+0x200150a],0x8691100
  4137d3:	fs adc al,0x1a
  4137d6:	or     eax,0x5d06d
  4137db:	add    al,BYTE PTR [eax-0x7bdcffa0]
  4137e1:	and    DWORD PTR [eax+0x4],0xffffff8c
  4137e5:	mov    eax,0x924078
  4137ea:	adc    BYTE PTR [eax+edx*1],dl
  4137ed:	add    DWORD PTR [eax],ebp
  4137ef:	xchg   ecx,eax
  4137f0:	adc    DWORD PTR [ecx],eax
  4137f2:	inc    esi
  4137f3:	push   edx
  4137f4:	and    al,0x0
  4137f6:	pop    ecx
  4137f7:	mov    al,0x87
  4137f9:	push   edx
  4137fa:	mov    al,ds:0x80314810
  4137ff:	or     DWORD PTR [ecx-0x65ffeef9],ebx
  413805:	or     BYTE PTR [eax-0x6f],al
  413808:	je     0x41382d
  41380a:	add    DWORD PTR [eax],edx
  41380c:	add    BYTE PTR [ecx],al
  41380e:	(bad)  
  41380f:	and    BYTE PTR [eax+0x48a820c0],al
  413815:	adc    BYTE PTR [ecx],0x0
  413818:	add    BYTE PTR [edi+0x58],al
  41381b:	rcl    BYTE PTR [eax+0x1],1
  41381e:	or     BYTE PTR [edx],dl
  413820:	add    BYTE PTR [eax+0x25a20848],al
  413826:	add    DWORD PTR [eax],ecx
  413828:	add    esp,DWORD PTR [eax+edx*1]
  41382b:	and    BYTE PTR [ebp+0x0],ch
  41382e:	dec    edx
  41382f:	xor    al,0x8
  413831:	push   0x62010b05
  413836:	ins    DWORD PTR es:[edi],dx
  413837:	and    al,0xf
  413839:	inc    eax
  41383a:	add    BYTE PTR [eax],cl
  41383c:	adc    BYTE PTR [eax],al
  41383e:	ret    0x8296
  413841:	inc    esi
  413842:	mov    WORD PTR [ecx],es
  413844:	add    BYTE PTR [eax+ebp*1],al
  413847:	add    ah,BYTE PTR [edx]
  413849:	and    BYTE PTR [eax+ecx*1],al
  41384c:	adc    al,0x34
  41384e:	add    BYTE PTR [eax],ch
  413850:	or     al,0x14
  413852:	outs   dx,BYTE PTR ds:[esi]
  413853:	add    al,0x45
  413855:	sbb    DWORD PTR [ebx],edx
  413857:	inc    ecx
  413858:	add    DWORD PTR [eax+0x0],eax
  41385b:	add    BYTE PTR [edx+0x5],al
  41385e:	push   eax
  41385f:	or     BYTE PTR ds:0x18043c88,0x3
  413866:	or     BYTE PTR [eax],al
  413868:	add    DWORD PTR [edx+0x211b1a82],eax
  41386e:	add    BYTE PTR [eax-0x7b9fcfec],0x40
  413875:	xor    BYTE PTR [ebx+eax*1+0x48],al
  413879:	or     BYTE PTR [ecx],ah
  41387b:	add    al,BYTE PTR [eax-0x632dfffb]
  413881:	add    cl,BYTE PTR [ecx+0x10]
  413884:	mov    al,ds:0x80202080
  413889:	add    DWORD PTR [edx],ecx
  41388b:	rol    BYTE PTR [eax],0xdc
  41388e:	add    al,BYTE PTR [ebx]
  413890:	add    BYTE PTR [ecx-0x80],al
  413893:	add    al,al
  413895:	sar    BYTE PTR [ecx],1
  413897:	xor    al,0x0
  413899:	(bad)  
  41389a:	dec    edx
  41389b:	add    dl,ah
  41389d:	leave  
  41389e:	add    eax,0x2000c180
  4138a3:	add    BYTE PTR [eax],dh
  4138a5:	or     al,0xa0
  4138a7:	add    BYTE PTR [eax],al
  4138a9:	add    BYTE PTR [edx],al
  4138ab:	rcl    dl,0x40
  4138ae:	scas   eax,DWORD PTR es:[edi]
  4138af:	add    edx,DWORD PTR [eax+0x2140006]
  4138b5:	add    BYTE PTR [esp+eax*1+0x2030900a],al
  4138bc:	and    BYTE PTR [ecx],dl
  4138be:	cmp    BYTE PTR [ecx+0xc],al
  4138c1:	ins    DWORD PTR es:[edi],dx
  4138c2:	sub    DWORD PTR [eax],esp
  4138c4:	or     eax,edx
  4138c6:	add    BYTE PTR [eax],0x40
  4138c9:	push   edx
  4138ca:	mov    ds:0x44002805,al
  4138cf:	add    al,0x8
  4138d1:	popa   
  4138d2:	ret    0x225
  4138d5:	les    ebp,FWORD PTR [ebx+edx*1]
  4138d8:	pusha  
  4138d9:	adc    dh,dh
  4138db:	xchg   esp,eax
  4138dc:	xor    al,0x2
  4138de:	add    al,BYTE PTR [ecx+eiz*2+0x5620194c]
  4138e5:	inc    esp
  4138e6:	or     BYTE PTR [eax-0x7fdb7ff0],ch
  4138ec:	add    al,0xcc
  4138ee:	add    BYTE PTR [eax],ah
  4138f0:	and    DWORD PTR [ebx+0x2244010],0x4400e281
  4138fa:	jnp    0x413898
  4138fc:	push   eax
  4138fd:	and    al,0x3a
  4138ff:	sbb    WORD PTR [eax+0x40],cx
  413903:	add    BYTE PTR [ecx],0x18
  413906:	add    ah,BYTE PTR [edi]
  413908:	or     BYTE PTR [eax],al
  41390a:	adc    BYTE PTR [edx+0x4],al
  41390d:	or     DWORD PTR [edx],0xcd040a3a
  413913:	add    BYTE PTR [ebp+0x23],cl
  413916:	mov    DWORD PTR [edx],esp
  413918:	push   ebx
  413919:	add    BYTE PTR [eax],dh
  41391b:	add    DWORD PTR [eax],0x954cca48
  413921:	and    ah,BYTE PTR [eax+eax*1]
  413924:	inc    esp
  413925:	mov    BYTE PTR [ebp+0x42a18100],ah
  41392b:	or     DWORD PTR [ebx+eax*2+0x0],ebx
  41392f:	daa    
  413930:	and    ebp,DWORD PTR [eax]
  413932:	push   ds
  413933:	mov    WORD PTR [ecx],es
  413935:	or     BYTE PTR [ebx+0x30809c0],0x78
  41393c:	add    DWORD PTR [eax+0x38],eax
  41393f:	xchg   esp,eax
  413940:	inc    eax
  413941:	add    BYTE PTR [ebp+0x1],0x80
  413945:	cdq    
  413946:	sub    BYTE PTR [esi+0x61],bl
  413949:	adc    BYTE PTR [eax],ch
  41394b:	or     BYTE PTR [eax+0xf09e030],dl
  413951:	push   es
  413952:	mov    al,ds:0x54b1200
  413957:	or     al,0x80
  413959:	and    BYTE PTR [eax+0x21],cl
  41395c:	adc    BYTE PTR [eax],al
  41395e:	add    al,0x0
  413960:	and    DWORD PTR [ecx+eiz*1],eax
  413963:	inc    esi
  413964:	adc    BYTE PTR ds:0x2198207,ah
  41396a:	adc    dl,al
  41396c:	inc    esi
  41396d:	xor    al,0x2e
  41396f:	add    ah,BYTE PTR [edi+0x14]
  413972:	sbb    eax,0xa3020200
  413977:	add    BYTE PTR [ebx],al
  413979:	call   0x417d82
  41397e:	xchg   esi,eax
  41397f:	inc    esi
  413980:	or     BYTE PTR [eax+0x28],al
  413983:	mov    ds:0x410e040e,al
  413988:	or     BYTE PTR [eax],al
  41398a:	adc    BYTE PTR [ecx+ecx*1-0x4fb37eef],al
  413991:	add    eax,0x2d04
  413996:	add    al,0x99
  413998:	inc    eax
  413999:	or     al,0x2
  41399b:	nop
  41399c:	inc    esp
  41399d:	inc    eax
  41399e:	inc    eax
  41399f:	add    BYTE PTR [edx],dl
  4139a1:	add    al,0x18
  4139a3:	xchg   ch,al
  4139a5:	push   esi
  4139a6:	add    BYTE PTR [ecx],ah
  4139a8:	or     eax,0x4ca1c4
  4139ad:	les    esp,FWORD PTR [eax+eax*1]
  4139b0:	bound  eax,QWORD PTR [ecx]
  4139b2:	loopne 0x413935
  4139b4:	aam    0x20
  4139b6:	nop
  4139b7:	or     dl,BYTE PTR [edx+0x800921]
  4139bd:	add    BYTE PTR [eax+0x48047aaa],al
  4139c3:	add    BYTE PTR [eax+0x1d],dl
  4139c6:	sub    al,bh
  4139c8:	inc    edx
  4139c9:	mov    al,ds:0x208a01
  4139ce:	push   ss
  4139cf:	or     DWORD PTR [ecx],0x640085
  4139d5:	add    BYTE PTR [eax+eax*8],cl
  4139d8:	push   ds
  4139d9:	mov    es,WORD PTR [eax]
  4139db:	add    BYTE PTR [eax],dl
  4139dd:	inc    esp
  4139de:	and    DWORD PTR [ecx+esi*8],ebp
  4139e1:	or     BYTE PTR [eax],ah
  4139e3:	xchg   DWORD PTR [ecx],eax
  4139e5:	mov    al,ds:0xc3284a
  4139ea:	or     al,0x5
  4139ec:	add    BYTE PTR [eax-0x3ff9b7b8],cl
  4139f2:	push   es
  4139f3:	add    BYTE PTR [eax],ah
  4139f5:	add    eax,0x49282804
  4139fa:	or     DWORD PTR [ecx+0x1e],ecx
  4139fd:	and    DWORD PTR [esi+0x24680424],0x2b
  413a04:	lea    edx,[eax+0x4004012]
  413a0a:	pop    es
  413a0b:	or     BYTE PTR [eax],ah
  413a0d:	or     BYTE PTR [eax-0x33e76b72],al
  413a13:	add    DWORD PTR [eax+eiz*1+0x60],eax
  413a17:	dec    esp
  413a18:	test   eax,0x74c00d41
  413a1d:	or     al,BYTE PTR [eax]
  413a1f:	add    BYTE PTR [eax],0x8
  413a22:	and    BYTE PTR [eax+0x44090941],al
  413a28:	or     eax,DWORD PTR [edx+eax*8+0x80021]
  413a2f:	and    al,BYTE PTR [edx]
  413a31:	and    BYTE PTR [eax],al
  413a33:	add    BYTE PTR [ecx-0x70],al
  413a36:	inc    eax
  413a37:	mov    BYTE PTR gs:[eax+0x2],al
  413a3b:	enter  0xa080,0x10
  413a3f:	rcr    BYTE PTR [eax],cl
  413a41:	les    eax,FWORD PTR [edx]
  413a43:	and    al,BYTE PTR [ecx+0x1]
  413a46:	and    dl,BYTE PTR [eax+0x81000]
  413a4c:	and    cl,BYTE PTR [edx]
  413a4e:	and    BYTE PTR ds:0x64401044,dl
  413a54:	add    BYTE PTR [edx],al
  413a56:	or     BYTE PTR [eax],al
  413a58:	sub    BYTE PTR [eax],cl
  413a5a:	and    BYTE PTR [eax+0x2002e024],cl
  413a60:	inc    edx
  413a61:	add    ah,BYTE PTR [eax-0x3ddff7ec]
  413a67:	leave  
  413a68:	add    al,BYTE PTR [eax+0x4b]
  413a6b:	pop    es
  413a6c:	inc    ecx
  413a6d:	add    BYTE PTR [edx],al
  413a6f:	add    al,0xa9
  413a71:	or     BYTE PTR [eax-0x80],ah
  413a74:	sub    DWORD PTR [eax],esi
  413a76:	or     al,BYTE PTR [eax]
  413a78:	cmp    BYTE PTR [edx],al
  413a7a:	add    BYTE PTR [esi+0x4c],cl
  413a7d:	and    BYTE PTR [ebx*8+0x1002430],0xa1
  413a85:	push   es
  413a86:	mov    es,WORD PTR [eax+0x18]
  413a89:	adc    BYTE PTR [edx],cl
  413a8b:	or     DWORD PTR [edx],edx
  413a8d:	add    BYTE PTR [edx],0x94
  413a90:	and    al,0x44
  413a92:	xchg   BYTE PTR [eax+0x2422e344],ch
  413a98:	add    BYTE PTR [esi+eiz*1+0x30],dl
  413a9c:	dec    esp
  413a9d:	sub    al,BYTE PTR [eax]
  413a9f:	ror    BYTE PTR [edx+ebp*1+0x10],1
  413aa3:	and    BYTE PTR [edx+0x21],al
  413aa6:	test   BYTE PTR [eax],al
  413aa8:	loopne 0x413b0f
  413aaa:	adc    DWORD PTR [ecx+0x8890422],0x90011453
  413ab4:	js     0x413ae6
  413ab6:	or     al,0x5
  413ab8:	test   al,0x2
  413aba:	mov    ds:0x1a142,al
  413abf:	add    BYTE PTR [eax],al
  413ac1:	inc    ebx
  413ac2:	or     DWORD PTR [eax],0x84c02800
  413ac8:	and    BYTE PTR [edx],ah
  413aca:	and    BYTE PTR [ecx],al
  413acc:	cmp    BYTE PTR [edx+0x5],ch
  413acf:	or     DWORD PTR [eax],eax
  413ad1:	sbb    BYTE PTR [edx],dl
  413ad3:	add    BYTE PTR [eax],0x61
  413ad6:	add    cl,BYTE PTR [eax]
  413ad8:	add    eax,0x20304443
  413add:	sbb    dl,BYTE PTR [esi+0x252084d]
  413ae3:	or     eax,0xc0030089
  413ae8:	dec    esi
  413ae9:	dec    esp
  413aea:	dec    eax
  413aeb:	adc    eax,0x20614424
  413af0:	inc    edi
  413af1:	add    dh,BYTE PTR [edi]
  413af3:	or     BYTE PTR [ecx],al
  413af5:	test   BYTE PTR [edx+ecx*1-0x40],dl
  413af9:	adc    BYTE PTR [ebx+edi*1],al
  413afc:	enter  0x20,0x81
  413b00:	add    al,BYTE PTR [eax+0x44e84023]
  413b06:	popa   
  413b07:	add    BYTE PTR [edi],dl
  413b09:	add    BYTE PTR [eax-0x5b],ah
  413b0c:	push   ss
  413b0d:	add    DWORD PTR [ebx],esp
  413b0f:	add    DWORD PTR [esi],eax
  413b11:	inc    eax
  413b12:	mov    cl,0x1
  413b14:	add    al,BYTE PTR [ecx]
  413b16:	add    BYTE PTR [edx],al
  413b18:	add    BYTE PTR [eax],dl
  413b1a:	add    ah,BYTE PTR [eax+0x520602]
  413b20:	or     al,BYTE PTR [eax]
  413b22:	push   0x4400522
  413b27:	add    BYTE PTR [esi+0x56],0x0
  413b2b:	inc    eax
  413b2c:	xchg   DWORD PTR [ebp+0x49],eax
  413b2f:	rol    BYTE PTR [ecx+ecx*1],0xa
  413b33:	movs   DWORD PTR es:[edi],DWORD PTR ds:[esi]
  413b34:	add    BYTE PTR [eax+0x80e02],0x40
  413b3b:	or     BYTE PTR [eax+ecx*4],0x61
  413b3f:	outs   dx,BYTE PTR ds:[esi]
  413b40:	rol    BYTE PTR [eax-0x73ed5573],0x0
  413b47:	sub    ecx,DWORD PTR [eax+0x8920003]
  413b4d:	xor    BYTE PTR [esi+eax*4],al
  413b50:	adc    bh,ah
  413b52:	and    al,0x8
  413b54:	add    BYTE PTR [eax+eiz*1],0x8
  413b58:	add    BYTE PTR [eax],0x94
  413b5b:	mov    ah,0x11
  413b5d:	xchg   ecx,eax
  413b5e:	add    BYTE PTR [eax+0x10660000],al
  413b64:	sbb    BYTE PTR [eax-0x60],ah
  413b67:	(bad)  
  413b68:	adc    BYTE PTR [eax],cl
  413b6a:	and    al,0xa
  413b6c:	and    al,0x0
  413b6e:	xor    DWORD PTR [eax],ecx
  413b70:	in     al,0x0
  413b72:	pusha  
  413b73:	nop
  413b74:	dec    edi
  413b75:	sub    BYTE PTR [eax],0x84
  413b78:	add    BYTE PTR [eax],al
  413b7a:	add    DWORD PTR [eax],edx
  413b7c:	add    BYTE PTR [ebp+0x374082f0],al
  413b82:	dec    ebp
  413b83:	inc    eax
  413b84:	cmp    BYTE PTR [esi+eax*1],al
  413b87:	sbb    BYTE PTR [eax+0x6102d50a],al
  413b8d:	call   0x8c497e37
  413b92:	add    DWORD PTR [eax],eax
  413b94:	adc    DWORD PTR ds:0x80042002,edx
  413b9a:	iret   
  413b9b:	add    BYTE PTR [edi+0x30],al
  413b9e:	inc    esp
  413b9f:	adc    eax,DWORD PTR [eax+ecx*1+0x3dc094d0]
  413ba6:	adc    BYTE PTR [eax+0x46],al
  413ba9:	xor    al,0x12
  413bab:	xor    BYTE PTR [edx],al
  413bad:	add    BYTE PTR [eax],cl
  413baf:	and    al,BYTE PTR [edx]
  413bb1:	and    BYTE PTR [esi],al
  413bb3:	sub    edx,DWORD PTR [edx]
  413bb5:	inc    eax
  413bb6:	add    al,0x88
  413bb8:	adc    BYTE PTR [edx],bh
  413bba:	add    BYTE PTR [eax],ah
  413bbc:	add    BYTE PTR [ecx+0x206058a2],ah
  413bc2:	add    al,0x21
  413bc4:	inc    esi
  413bc5:	add    bh,ah
  413bc7:	sbb    al,0x0
  413bc9:	cmp    al,0xa0
  413bcb:	ror    BYTE PTR [eax+ecx*1],1
  413bce:	add    BYTE PTR [ecx],al
  413bd0:	add    BYTE PTR [eax],0x9
  413bd3:	mov    DWORD PTR [eax],eax
  413bd5:	xor    al,0xb1
  413bd7:	add    BYTE PTR [eax-0x337ab6b3],cl
  413bdd:	adc    DWORD PTR ds:0x1b50841,eax
  413be3:	rcl    BYTE PTR [eax+0x40221180],1
  413be9:	mov    ecx,DWORD PTR [edi+0x29]
  413bec:	dec    eax
  413bed:	add    cl,BYTE PTR [eax]
  413bef:	xor    al,ah
  413bf1:	and    BYTE PTR [eax],al
  413bf3:	add    BYTE PTR [ecx],dl
  413bf5:	popa   
  413bf6:	add    eax,0x14522b81
  413bfb:	and    BYTE PTR [eax],al
  413bfd:	movs   BYTE PTR es:[edi],BYTE PTR ds:[esi]
  413bfe:	add    dl,BYTE PTR [edx]
  413c00:	jo     0x413c12
  413c02:	call   0x7401:0x7082172
  413c09:	popa   
  413c0a:	add    eax,0x6220a64
  413c0f:	inc    ecx
  413c10:	add    BYTE PTR [edx],bl
  413c12:	ret    0x8688
  413c15:	xor    BYTE PTR [ecx],dh
  413c17:	push   ecx
  413c18:	mov    al,0x5
  413c1a:	or     al,0x0
  413c1c:	add    BYTE PTR [ebx],al
  413c1e:	mov    al,ds:0x130d8210
  413c23:	enter  0x740,0x20
  413c27:	adc    DWORD PTR [eax-0x3c],0x12059485
  413c2e:	add    BYTE PTR [edx],al
  413c30:	push   esp
  413c31:	sbb    DWORD PTR [eax-0x80],eax
  413c34:	or     DWORD PTR [eax+eax*2],edx
  413c37:	sub    BYTE PTR [edx],al
  413c39:	call   0xf0831e76
  413c3e:	add    al,0x1
  413c41:	add    BYTE PTR [edx],0x45
  413c44:	add    DWORD PTR [eax+0x2088060],eax
  413c4a:	xor    DWORD PTR [eax-0x1feebffe],0x4100088
  413c54:	xchg   edx,eax
  413c55:	ret    0x6048
  413c58:	add    dl,BYTE PTR [edx-0x38]
  413c5b:	add    DWORD PTR [edx+0x15],0x4a050140
  413c62:	pusha  
  413c63:	or     BYTE PTR [ebp+0x110e100],dl
  413c69:	adc    DWORD PTR [ecx-0x77fdfbfb],ecx
  413c6f:	push   cs
  413c70:	or     BYTE PTR [eax+ecx*4+0x60638801],0xa
  413c78:	xor    eax,0x81401202
  413c7d:	pusha  
  413c7e:	add    al,0x34
  413c80:	add    al,BYTE PTR [ecx]
  413c82:	add    BYTE PTR [eax+0x32],al
  413c85:	add    al,0x0
  413c87:	or     BYTE PTR [eax+0x38e0a20e],0x8
  413c8e:	or     dl,dl
  413c90:	jl     0x413c83
  413c92:	push   eax
  413c93:	and    BYTE PTR [eax],al
  413c95:	dec    eax
  413c96:	or     BYTE PTR [esi+0x0],al
  413c99:	adc    eax,DWORD PTR [ecx-0x60]
  413c9c:	push   es
  413c9d:	add    al,0x40
  413c9f:	rol    DWORD PTR [ecx+ebp*4],0x50
  413ca3:	add    BYTE PTR [eax],ch
  413ca5:	call   0xb0c93eb2
  413caa:	test   BYTE PTR [eax+edx*4-0x80],dl
  413cae:	inc    esp
  413caf:	ins    BYTE PTR es:[edi],dx
  413cb0:	dec    ecx
  413cb1:	add    BYTE PTR ds:0x268264,al
  413cb7:	or     DWORD PTR [esi-0x60],eax
  413cba:	add    DWORD PTR [edi+0x28260800],ecx
  413cc0:	mov    ds:0x60634192,al
  413cc5:	inc    edi
  413cc6:	add    al,0xa0
  413cc8:	popa   
  413cc9:	add    al,0x92
  413ccb:	and    BYTE PTR ds:0x44001180,al
  413cd1:	ss inc ecx
  413cd3:	add    eax,0x48a1044
  413cd8:	add    dl,BYTE PTR [eax]
  413cda:	add    al,BYTE PTR [ecx]
  413cdc:	add    BYTE PTR [eax],cl
  413cde:	add    BYTE PTR [ecx+0x20402150],0x0
  413ce5:	add    dl,BYTE PTR [ebx+ebx*1+0x41]
  413ce9:	sub    al,0xa0
  413ceb:	cmp    BYTE PTR [ecx+0x9422],al
  413cf1:	cwde   
  413cf2:	bound  esp,QWORD PTR [esi-0x75f7fffd]
  413cf8:	xor    al,0x43
  413cfa:	xor    BYTE PTR [edx],cl
  413cfc:	add    al,0x66
  413cfe:	test   DWORD PTR [ebp+0x8],ecx
  413d01:	es push eax
  413d03:	mov    ds:0x30203380,eax
  413d08:	xchg   BYTE PTR [ecx],al
  413d0a:	stos   DWORD PTR es:[edi],eax
  413d0b:	add    DWORD PTR [eax],edx
  413d0d:	or     BYTE PTR [ecx],ah
  413d0f:	inc    eax
  413d10:	call   0x60475d39
  413d15:	add    BYTE PTR [eax],al
  413d17:	adc    BYTE PTR [eax+0x0],dl
  413d1a:	add    BYTE PTR [esi+eax*2+0x1c92002],cl
  413d21:	sbb    DWORD PTR [esp+edx*1],ecx
  413d24:	xor    DWORD PTR ds:0x28018220,eax
  413d2a:	sub    ch,BYTE PTR [edi]
  413d2c:	and    cl,BYTE PTR [eax+0x40]
  413d2f:	test   BYTE PTR [eax+eax*2],dl
  413d32:	adc    BYTE PTR [esi+0x40],al
  413d35:	add    DWORD PTR [edx],ebp
  413d37:	inc    esp
  413d38:	sub    BYTE PTR [ebx+0x5083118b],al
  413d3e:	inc    eax
  413d3f:	and    BYTE PTR ds:0x4d223210,dl
  413d45:	xor    al,0x0
  413d47:	add    eax,0x11c00184
  413d4c:	call   0x3ac14555
  413d51:	pusha  
  413d52:	ret    0x808f
  413d55:	inc    ecx
  413d56:	dec    eax
  413d57:	and    al,BYTE PTR [ecx+0x10]
  413d5a:	add    BYTE PTR [eax],al
  413d5c:	sbb    ah,BYTE PTR [esi+eax*1+0x4]
  413d60:	loopne 0x413d8b
  413d62:	cmps   BYTE PTR ds:[esi],BYTE PTR es:[edi]
  413d63:	add    dl,BYTE PTR [ecx+0x58]
  413d66:	or     BYTE PTR [ecx],al
  413d68:	daa    
  413d69:	xor    BYTE PTR [eax-0x3f],0x0
  413d6d:	add    BYTE PTR [ebp-0x7c],ch
  413d70:	and    ecx,DWORD PTR [edx]
  413d72:	add    eax,0x4502640f
  413d77:	and    BYTE PTR [eax],al
  413d79:	mov    BYTE PTR [eax],al
  413d7b:	add    al,0x10
  413d7d:	or     BYTE PTR [ebp+0x126360],0x80
  413d84:	or     BYTE PTR [esi+0x47ee0262],al
  413d8a:	inc    esi
  413d8b:	pusha  
  413d8c:	adc    al,0x2
  413d8e:	cwde   
  413d8f:	rol    DWORD PTR [eax+ebp*8],0x95
  413d93:	and    dl,al
  413d95:	lock xchg esi,eax
  413d97:	sbb    al,0x2d
  413d99:	push   es
  413d9a:	and    DWORD PTR [eax+0x2],eax
  413d9d:	adc    BYTE PTR [eax],al
  413d9f:	or     al,al
  413da1:	or     BYTE PTR [ecx+0x10],al
  413da4:	dec    edx
  413da5:	dec    esp
  413da6:	pop    ss
  413da7:	inc    ecx
  413da8:	and    dl,BYTE PTR [ecx]
  413daa:	and    DWORD PTR [eax],ecx
  413dac:	rol    DWORD PTR [esp+eax*2],0x2
  413db0:	mov    ds:0x44245144,al
  413db5:	add    DWORD PTR [edx],esi
  413db7:	fs je  0x413dbf
  413dba:	inc    eax
  413dbb:	add    al,0xc0
  413dbd:	add    BYTE PTR [edx],cl
  413dbf:	mov    BYTE PTR [eax],dl
  413dc1:	dec    eax
  413dc2:	add    BYTE PTR [esi+0x6],0x0
  413dc6:	sbb    BYTE PTR [eax],dh
  413dc8:	mov    al,ds:0x51349440
  413dcd:	and    BYTE PTR [edx+0x5902a58f],al
  413dd3:	cmp    eax,0x13884164
  413dd8:	adc    edx,ecx
  413dda:	adc    DWORD PTR [edx+eax*1],ebx
  413ddd:	add    al,0x80
  413ddf:	push   eax
  413de0:	or     al,0x64
  413de2:	add    BYTE PTR [eax],0x20
  413de5:	sbb    BYTE PTR [eax+0x4221b040],bl
  413deb:	outs   dx,DWORD PTR ds:[esi]
  413dec:	add    al,0x1
  413dee:	inc    eax
  413def:	add    BYTE PTR [esi],0x0
  413df2:	dec    esp
  413df3:	mov    dl,BYTE PTR [eax+0xc149460]
  413df9:	add    DWORD PTR [eax],esp
  413dfb:	and    BYTE PTR [edi],al
  413dfd:	push   cs
  413dfe:	add    BYTE PTR [eax],dl
  413e00:	adc    al,BYTE PTR [ecx+eax*1]
  413e03:	or     BYTE PTR es:[ebx],dl
  413e06:	inc    edx
  413e07:	add    cl,bh
  413e09:	and    BYTE PTR [eax+0x2101089],al
  413e0f:	dec    ebp
  413e10:	nop
  413e11:	or     DWORD PTR [esi],eax
  413e13:	and    cl,BYTE PTR [ecx]
  413e15:	add    BYTE PTR [esi-0x6fbfefdc],al
  413e1b:	mov    al,ds:0x1a200024
  413e20:	xchg   edx,eax
  413e21:	and    cl,bl
  413e23:	mov    eax,ds:0x3062c014
  413e28:	sbb    BYTE PTR [ecx+0x2],bl
  413e2b:	sbb    BYTE PTR [eax-0x6d],0x0
  413e2f:	inc    edx
  413e30:	add    BYTE PTR [ecx],dh
  413e32:	push   eax
  413e33:	add    BYTE PTR [edi+esi*1],al
  413e36:	inc    esp
  413e37:	pushw  cs
  413e39:	adc    BYTE PTR [edx-0x56],al
  413e3c:	add    BYTE PTR [ecx+eax*1+0x3968051e],ah
  413e43:	inc    edx
  413e44:	and    DWORD PTR [edx],0x25030040
  413e4a:	adc    DWORD PTR [eax],0x61c0008
  413e50:	sub    dl,BYTE PTR [eax+0x10]
  413e53:	add    eax,DWORD PTR [edx]
  413e55:	add    edx,DWORD PTR [eax]
  413e57:	repnz add BYTE PTR [esp],ch
  413e5b:	and    DWORD PTR [ebx-0x77],0x64cc0100
  413e62:	add    BYTE PTR [ecx+0x4992142],cl
  413e68:	add    DWORD PTR [eax+0x443148a0],esp
  413e6e:	rcr    BYTE PTR [eax+0x48042538],0x62
  413e75:	add    BYTE PTR [ebx],dh
  413e77:	aam    0x27
  413e79:	inc    eax
  413e7a:	adc    BYTE PTR [edx],0xc2
  413e7d:	add    eax,0x46424298
  413e82:	push   edx
  413e83:	add    dh,BYTE PTR [eax+0x28924213]
  413e89:	xor    BYTE PTR [eax+0xa160a26],al
  413e8f:	and    al,BYTE PTR [eax]
  413e91:	add    al,0x4
  413e93:	adc    BYTE PTR [eax],0x41
  413e96:	adc    BYTE PTR [edx],bh
  413e98:	dec    edx
  413e99:	add    al,0x90
  413e9b:	dec    eax
  413e9c:	add    bh,BYTE PTR [edx+0x1b]
  413e9f:	mov    BYTE PTR [esi],dl
  413ea1:	add    BYTE PTR [edx],cl
  413ea3:	add    BYTE PTR [edx+0x28],ch
  413ea6:	dec    esp
  413ea7:	call   0x4854beed
  413eac:	xor    eax,0x192c2c14
  413eb1:	xor    DWORD PTR [edx],eax
  413eb3:	adc    BYTE PTR [ecx+eax*1],dh
  413eb6:	inc    eax
  413eb7:	add    cl,BYTE PTR [ecx+0x60003402]
  413ebd:	inc    edx
  413ebe:	add    BYTE PTR [eax+0x2c03114c],dl
  413ec4:	and    BYTE PTR [eax+0x4a102],dh
  413eca:	push   0x1
  413ecc:	cmp    BYTE PTR [edx],al
  413ece:	inc    esp
  413ecf:	or     dl,BYTE PTR [eax+0x81044c8]
  413ed5:	shl    BYTE PTR [eax],cl
  413ed7:	stc    
  413ed8:	and    BYTE PTR [esi+0x40081124],al
  413ede:	cwde   
  413edf:	mov    ds:0x6924580,eax
  413ee4:	inc    eax
  413ee5:	jb     0x413f27
  413ee7:	or     BYTE PTR [eax],cl
  413ee9:	add    cl,BYTE PTR [eax]
  413eeb:	or     edx,DWORD PTR [esi]
  413eed:	movs   BYTE PTR es:[edi],BYTE PTR ds:[esi]
  413eee:	add    al,BYTE PTR [esi+ebp*4]
  413ef1:	mov    DWORD PTR [eax],eax
  413ef3:	or     BYTE PTR [ecx+0xf046080],0x10
  413efa:	or     BYTE PTR [ecx+0x15ff004a],dl
  413f00:	and    al,0x5c
  413f02:	inc    ebx
  413f03:	add    BYTE PTR [ecx+eax*1],ah
  413f06:	pusha  
  413f07:	or     al,BYTE PTR [eax]
  413f09:	add    bl,BYTE PTR [eax]
  413f0b:	mov    eax,ds:0x40248924
  413f10:	adc    al,0x2
  413f12:	adc    BYTE PTR [edx],ch
  413f14:	pushf  
  413f15:	push   eax
  413f16:	sub    al,0x11
  413f18:	ror    BYTE PTR [ebp+0x50],0xd8
  413f1c:	mov    al,0x0
  413f1e:	dec    edx
  413f1f:	add    al,al
  413f21:	xor    BYTE PTR [eax],cl
  413f23:	adc    BYTE PTR [eax+0x21002000],al
  413f29:	and    cl,BYTE PTR [esi-0x6a]
  413f2c:	add    al,BYTE PTR [eax-0x7fa377cc]
  413f32:	add    eax,0xa010c22
  413f37:	add    cl,BYTE PTR [edx]
  413f39:	add    eax,0x8009102c
  413f3e:	or     BYTE PTR [eax],al
  413f40:	add    DWORD PTR [ecx],0x94a0cb2
  413f46:	add    al,0x0
  413f48:	or     BYTE PTR [ebx+0x50],0x10
  413f4c:	cwde   
  413f4d:	adc    al,0x95
  413f4f:	sub    BYTE PTR [eax],al
  413f51:	add    cl,BYTE PTR [eax]
  413f53:	xor    al,0x40
  413f55:	dec    eax
  413f56:	inc    eax
  413f57:	or     BYTE PTR [edx],cl
  413f59:	add    BYTE PTR [ecx+0x400210e4],0x81
  413f60:	inc    edx
  413f61:	inc    ebp
  413f62:	add    BYTE PTR [eax+0x3],0x52
  413f66:	add    BYTE PTR [edx],0xc7
  413f69:	adc    BYTE PTR [eax],ah
  413f6b:	add    DWORD PTR [edx],eax
  413f6d:	sub    BYTE PTR [eax-0x7527bbc0],al
  413f73:	cmp    eax,0x65560800
  413f78:	xchg   esp,eax
  413f79:	add    edx,DWORD PTR [ecx]
  413f7b:	loopne 0x413f9d
  413f7d:	nop
  413f7e:	and    eax,0x18800040
  413f83:	test   BYTE PTR [edx],ah
  413f85:	pop    esp
  413f86:	and    al,0x81
  413f88:	nop
  413f89:	add    al,0x10
  413f8b:	inc    ecx
  413f8c:	add    BYTE PTR [edx],ch
  413f8e:	jo     0x413fad
  413f90:	retf   0x2c20
  413f93:	popa   
  413f94:	sub    BYTE PTR [ecx],bl
  413f96:	dec    edx
  413f97:	sbb    al,0x38
  413f99:	add    DWORD PTR [ebx+0x9088311],0x48017080
  413fa3:	and    BYTE PTR [edx],0x4a
  413fa6:	inc    ebp
  413fa7:	add    BYTE PTR [ecx-0x7eeff7e0],al
  413fad:	add    DWORD PTR [eax+0x28],esi
  413fb0:	add    BYTE PTR [eax],al
  413fb2:	add    al,0x22
  413fb4:	sub    BYTE PTR [eax],cl
  413fb6:	nop
  413fb7:	add    BYTE PTR [edx+0x25],ah
  413fba:	inc    eax
  413fbb:	add    BYTE PTR [edx],al
  413fbd:	xchg   esp,eax
  413fbe:	sub    al,BYTE PTR [edx+ecx*4]
  413fc1:	and    ah,BYTE PTR [eax+eax*2+0x10048160]
  413fc8:	or     ah,BYTE PTR [ecx]
  413fca:	add    BYTE PTR [edx+0x4],al
  413fcd:	popa   
  413fce:	pusha  
  413fcf:	add    bh,al
  413fd1:	nop
  413fd2:	and    eax,DWORD PTR [edx+eax*1-0x79f7fef8]
  413fd9:	add    ah,BYTE PTR [eax-0x40]
  413fdc:	test   eax,0xc102808
  413fe1:	adc    al,0xa
  413fe3:	adc    BYTE PTR [ebx+ecx*2],cl
  413fe6:	add    edx,eax
  413fe8:	nop
  413fe9:	mov    dl,0x10
  413feb:	mov    dl,0x11
  413fed:	add    BYTE PTR [edx+0x49041460],al
  413ff3:	add    BYTE PTR [edx],al
  413ff5:	dec    ebp
  413ff6:	pusha  
  413ff7:	(bad)  
  413ff8:	or     BYTE PTR [eax+0xc],cl
  413ffb:	and    al,0x1
  413ffd:	add    eax,DWORD PTR [edi+0x18088e20]
  414003:	or     al,BYTE PTR [eax+eax*1]
  414006:	and    BYTE PTR [eax+eax*2+0x3ac42540],cl
  41400d:	or     DWORD PTR [edx+0x33108211],esp
  414013:	or     al,0xc1
  414015:	pop    es
  414016:	adc    BYTE PTR [esp+eax*1],al
  414019:	add    BYTE PTR [edx-0x62f6bf40],cl
  41401f:	adc    DWORD PTR [eax],0x1c46270c
  414025:	and    DWORD PTR [eax+0x20180c8],ebx
  41402b:	adc    BYTE PTR [eax],al
  41402d:	mov    BYTE PTR [edx],ch
  41402f:	xor    eax,DWORD PTR [eax+0x4460904]
  414035:	add    ah,BYTE PTR [ebx-0x70]
  414038:	shl    DWORD PTR [eax],0x26
  41403b:	add    ah,BYTE PTR [eax+eax*1]
  41403e:	inc    eax
  41403f:	push   ecx
  414040:	adc    BYTE PTR [edx+0x300029],al
  414046:	add    BYTE PTR [esp+eiz*4-0x3f6bf800],dl
  41404d:	add    BYTE PTR [eax],0x29
  414050:	add    al,0xc
  414052:	sbb    al,0x84
  414054:	adc    BYTE PTR [edx+0x9002246],0x0
  41405b:	add    BYTE PTR [ecx+0x2098402],bl
  414061:	test   dh,cl
  414063:	adc    DWORD PTR [eax+0x2000062],ecx
  414069:	inc    edx
  41406a:	or     BYTE PTR [edx+eax*4],dl
  41406d:	and    dh,BYTE PTR [edx+0x40]
  414070:	add    BYTE PTR [eax],al
  414072:	and    BYTE PTR [ecx*2+0x5c000454],ah
  414079:	adc    BYTE PTR [eax],ah
  41407b:	add    BYTE PTR [eax],cl
  41407d:	add    BYTE PTR [ecx+0x0],dh
  414080:	xor    al,BYTE PTR [ecx]
  414082:	jno    0x41408e
  414084:	add    eax,DWORD PTR [eax]
  414086:	mov    ds:0x304101c8,al
  41408b:	mov    al,ds:0x9083420a
  414090:	dec    ebp
  414091:	add    al,0x0
  414093:	nop
  414094:	add    ah,BYTE PTR [edx]
  414096:	mov    BYTE PTR [edx-0x4afbf7e0],al
  41409c:	add    al,0x40
  41409e:	inc    edx
  41409f:	xchg   ecx,eax
  4140a0:	add    dl,BYTE PTR [edx]
  4140a2:	add    BYTE PTR [ecx+edx*1],dl
  4140a5:	add    dl,bl
  4140a7:	movs   BYTE PTR es:[edi],BYTE PTR ds:[esi]
  4140a8:	les    eax,FWORD PTR ds:0xd005ac1f
  4140ae:	adc    DWORD PTR [edx],eax
  4140b0:	fs add al,0x8
  4140b3:	add    al,0xb4
  4140b5:	or     BYTE PTR [eax+0x44],al
  4140b8:	loope  0x4140ff
  4140ba:	and    BYTE PTR [ecx],ah
  4140bc:	or     ecx,DWORD PTR [eax]
  4140be:	or     BYTE PTR [ecx+0x60],0x4
  4140c2:	add    al,BYTE PTR [edi-0x4c]
  4140c5:	and    DWORD PTR ds:0xd20c281,eax
  4140cb:	add    BYTE PTR [eax+0x42],al
  4140ce:	stos   BYTE PTR es:[edi],al
  4140cf:	add    BYTE PTR [esi+0x2a],cl
  4140d2:	or     ebx,DWORD PTR [ecx]
  4140d4:	add    dl,cl
  4140d6:	add    BYTE PTR ds:0x55951,dl
  4140dc:	add    DWORD PTR [edx],edx
  4140de:	or     DWORD PTR [eax],edx
  4140e0:	xor    BYTE PTR ds:0x232000,al
  4140e6:	ins    DWORD PTR es:[edi],dx
  4140e7:	or     BYTE PTR [eax],ch
  4140e9:	and    al,0x88
  4140eb:	and    al,0x2
  4140ed:	pop    es
  4140ee:	add    BYTE PTR [edx],al
  4140f0:	add    DWORD PTR [eax],edx
  4140f2:	sbb    DWORD PTR [esi+eax*8],edx
  4140f5:	mov    gs,WORD PTR [ecx+0x40948e11]
  4140fb:	adc    BYTE PTR [ecx+0x24200850],0x92
  414102:	add    bl,BYTE PTR [eax]
  414104:	or     al,0x8
  414106:	fmul   QWORD PTR [edx+0x208019]
  41410c:	and    BYTE PTR [esp+eax*1],dl
  41410f:	or     ch,BYTE PTR [ecx]
  414111:	inc    eax
  414112:	pusha  
  414113:	aad    0xc0
  414115:	adc    edx,DWORD PTR [ebp+0x24]
  414118:	adc    BYTE PTR [edx],ch
  41411a:	sbb    DWORD PTR [edx],eax
  41411c:	inc    eax
  41411d:	dec    edi
  41411e:	aam    0x70
  414120:	and    BYTE PTR [eax],al
  414122:	dec    esp
  414123:	push   esi
  414124:	shl    DWORD PTR [eax+0x404030e2],0x20
  41412b:	push   esp
  41412c:	add    eax,0x2008108
  414131:	inc    eax
  414132:	dec    edx
  414133:	add    BYTE PTR [ecx+edx*2],al
  414136:	adc    DWORD PTR [eax+0x10],eax
  414139:	pusha  
  41413a:	xchg   esp,eax
  41413b:	or     BYTE PTR [eax+0x6e000003],al
  414141:	sbb    DWORD PTR [eax],0x31292930
  414147:	and    BYTE PTR [ecx+0xa],0x4
  41414b:	add    al,BYTE PTR [eax+eiz*4+0x31c0203]
  414152:	scas   al,BYTE PTR es:[edi]
  414153:	add    BYTE PTR ds:0x4948e080,al
  414159:	push   eax
  41415a:	adc    al,0xa8
  41415c:	inc    ebp
  41415d:	adc    DWORD PTR [ebx],0x4c143008
  414163:	pusha  
  414164:	add    BYTE PTR [eax],0x0
  414167:	push   edi
  414168:	push   es
  414169:	or     BYTE PTR [eax],ah
  41416b:	or     bl,BYTE PTR [edx+eax*1]
  41416e:	inc    ebp
  41416f:	or     BYTE PTR [ebx],ah
  414171:	or     al,0x85
  414173:	adc    BYTE PTR [ecx+0x14],dl
  414176:	jo     0x414104
  414178:	xor    al,0x40
  41417a:	mov    esp,0x16712
  41417f:	stos   BYTE PTR es:[edi],al
  414180:	bound  esp,QWORD PTR [ecx-0x717c9bfb]
  414186:	and    BYTE PTR [ecx],0xc
  414189:	add    BYTE PTR [eax],al
  41418b:	inc    edx
  41418c:	add    BYTE PTR [eax],al
  41418e:	add    BYTE PTR [eax],dl
  414190:	add    BYTE PTR [eax],al
  414192:	add    BYTE PTR [edi],ah
  414194:	inc    ebx
  414195:	cmp    BYTE PTR [eax+0x0],dh
  414198:	les    esp,FWORD PTR [eax+0x0]
  41419b:	dec    esp
  41419c:	add    cl,ah
  41419e:	or     BYTE PTR [eax-0x7bf95ff7],dh
  4141a4:	jo     0x414147
  4141a6:	add    eax,0x818089
  4141ab:	cdq    
  4141ac:	add    BYTE PTR [eax+0x1205028d],dl
  4141b2:	adc    BYTE PTR [eax+0x0],ah
  4141b5:	dec    esp
  4141b6:	add    BYTE PTR [edx+eax*1],0x94
  4141ba:	add    al,0x22
  4141bc:	mov    WORD PTR [esi+0x6],es
  4141bf:	mov    ah,0xc2
  4141c1:	es and al,0x41
  4141c4:	add    DWORD PTR ds:0x740a8148,ecx
  4141ca:	add    DWORD PTR [edx+0x28120204],eax
  4141d0:	add    BYTE PTR [ecx],ah
  4141d2:	push   eax
  4141d3:	add    al,BYTE PTR [edx]
  4141d5:	adc    BYTE PTR [edi],ah
  4141d7:	dec    esp
  4141d8:	add    BYTE PTR [edx],al
  4141da:	add    eax,DWORD PTR [eax+0x4]
  4141dd:	and    BYTE PTR [eax],0x4f
  4141e0:	add    BYTE PTR [edx],cl
  4141e2:	bound  eax,QWORD PTR [eax]
  4141e4:	add    BYTE PTR [eax+0x30],al
  4141e7:	inc    ecx
  4141e8:	adc    DWORD PTR [eax+0x44],eax
  4141eb:	or     BYTE PTR [ecx+0x2000204],al
  4141f1:	inc    eax
  4141f2:	mov    ds:0x218010c0,al
  4141f7:	mov    eax,ds:0x1860082
  4141fc:	add    al,0x21
  4141fe:	and    DWORD PTR [esi+0x6290c194],eax
  414204:	xchg   edx,eax
  414205:	add    BYTE PTR [eax+0x221d8300],dl
  41420b:	push   ss
  41420c:	add    al,BYTE PTR [eax]
  41420e:	add    al,0x4
  414210:	add    BYTE PTR [eax+ecx*1],al
  414213:	add    al,0xa5
  414215:	or     ecx,DWORD PTR [edx+0xb308410]
  41421b:	sbb    BYTE PTR [ebp+edx*1+0x20],al
  41421f:	inc    eax
  414220:	jno    0x4141ae
  414222:	cs inc ecx
  414224:	adc    eax,0x10208000
  414229:	sbb    edi,DWORD PTR [eax]
  41422b:	xor    BYTE PTR [eax],ah
  41422d:	add    BYTE PTR [ecx],dl
  41422f:	inc    esp
  414230:	add    ah,cl
  414232:	mov    WORD PTR [ebx],es
  414234:	enter  0x2c89,0x52
  414238:	pusha  
  414239:	mov    BYTE PTR [eax],0x1
  41423c:	push   ecx
  41423d:	inc    eax
  41423e:	daa    
  41423f:	mov    eax,ds:0x22021000
  414244:	sbb    al,al
  414246:	pop    ebp
  414247:	add    DWORD PTR [eax+0x10],ebx
  41424a:	adc    WORD PTR [ecx+0x48],sp
  41424e:	popa   
  41424f:	adc    al,0x4
  414251:	pusha  
  414252:	add    al,0x8
  414254:	mov    cl,0x7
  414256:	xchg   esp,eax
  414257:	movs   BYTE PTR es:[edi],BYTE PTR ds:[esi]
  414258:	loop   0x414287
  41425a:	mov    cl,0x22
  41425c:	inc    eax
  41425d:	adc    cl,BYTE PTR [eax]
  41425f:	movs   BYTE PTR es:[edi],BYTE PTR ds:[esi]
  414260:	mov    al,ds:0x82330
  414265:	add    BYTE PTR [edx],ch
  414267:	inc    edx
  414268:	mov    ds:0x854c480,al
  41426d:	or     ah,BYTE PTR [ebx]
  41426f:	add    DWORD PTR ds:0xd4060604,eax
  414275:	pop    es
  414276:	add    al,0x20
  414278:	add    BYTE PTR [ecx+eax*1+0x23],al
  41427c:	adc    BYTE PTR [eax+esi*8],al
  41427f:	xor    BYTE PTR [eax+ecx*2],al
  414282:	push   cs
  414283:	and    ah,BYTE PTR [eax+0x25]
  414286:	xchg   edx,eax
  414287:	ss sub eax,0x42d00d1
  41428d:	adc    cl,BYTE PTR [eax]
  41428f:	add    DWORD PTR [eax+eax*2+0x18200004],eax
  414296:	dec    eax
  414297:	and    BYTE PTR ds:0x20cb17d2,al
  41429d:	or     cl,BYTE PTR [eax]
  41429f:	sub    al,0x8a
  4142a1:	or     BYTE PTR [esp+ecx*4-0x70],ah
  4142a5:	add    DWORD PTR [ebx+0x6a020020],eax
  4142ab:	dec    ecx
  4142ac:	je     0x414322
  4142ae:	or     BYTE PTR [eax+0x4921100],al
  4142b4:	add    DWORD PTR [esi],eax
  4142b6:	or     al,BYTE PTR [ecx]
  4142b8:	mov    ds:0xe0302c,al
  4142bd:	sub    DWORD PTR cs:[esp+eiz*2],0x8
  4142c2:	les    eax,FWORD PTR [eax+0x28502c10]
  4142c8:	sbb    dl,BYTE PTR ds:0x24013028
  4142ce:	pusha  
  4142cf:	push   eax
  4142d0:	mov    eax,ds:0x20000474
  4142d5:	push   edx
  4142d6:	rcl    BYTE PTR [edi+ecx*4],0x20
  4142da:	inc    eax
  4142db:	add    al,0x0
  4142dd:	xor    DWORD PTR [edx],eax
  4142df:	add    al,0x24
  4142e1:	and    eax,0x2842a9b8
  4142e6:	and    BYTE PTR [ebx-0x80],ah
  4142e9:	inc    eax
  4142ea:	rol    BYTE PTR [eax-0x131bebec],0x2
  4142f1:	cmp    ah,BYTE PTR [ebx+ebp*1]
  4142f4:	lea    eax,[esi+0x1b881283]
  4142fa:	and    BYTE PTR [edx],al
  4142fc:	add    edx,esp
  4142fe:	or     al,0x62
  414300:	add    DWORD PTR [eax-0x79c2fffd],eax
  414306:	adc    DWORD PTR [eax+edx*4+0x0],eax
  41430a:	mov    al,ds:0x1188432a
  41430f:	adc    cl,BYTE PTR [eax]
  414311:	push   eax
  414312:	ret    
  414313:	inc    esp
  414314:	jp     0x414296
  414316:	sub    ecx,DWORD PTR [ecx-0x70e3fba0]
  41431c:	or     DWORD PTR [edi],esp
  41431e:	xchg   esp,eax
  41431f:	ror    BYTE PTR ds:0x10d04880,0xc1
  414326:	sub    esp,DWORD PTR [esi+eax*1]
  414329:	and    BYTE PTR [edi+0x8c8680],al
  41432f:	stos   BYTE PTR es:[edi],al
  414330:	(bad)  
  414331:	xchg   ecx,eax
  414332:	or     BYTE PTR [eax+0x42822250],dl
  414338:	retf   0xe9c0
  41433b:	adc    BYTE PTR [eax],al
  41433d:	sar    DWORD PTR [ecx],0x40
  414340:	add    al,0x8
  414342:	sub    al,0x40
  414344:	adc    BYTE PTR [ecx],ah
  414346:	adc    al,0xb2
  414348:	mov    cs,WORD PTR [edi-0x7b7bef60]
  41434e:	sub    BYTE PTR [eax],al
  414350:	pushf  
  414351:	les    esp,FWORD PTR [eax]
  414353:	rcl    BYTE PTR [ecx+0x2],0xa0
  414357:	mov    DWORD PTR [ecx+0x5d820100],ecx
  41435d:	or     BYTE PTR [ecx+0x1808620],ah
  414363:	add    al,BYTE PTR [ecx]
  414365:	add    BYTE PTR [ecx+0x100d0080],ah
  41436b:	add    al,0x12
  41436d:	xchg   DWORD PTR [edx],eax
  41436f:	push   0x4
  414371:	or     BYTE PTR [eax],0x10
  414374:	sbb    cl,BYTE PTR [esi+0xc]
  414377:	xor    BYTE PTR [ebx+edx*2],bl
  41437a:	mov    bl,0xc
  41437c:	sub    cl,dh
  41437e:	mov    bh,0x0
  414380:	or     BYTE PTR [edx],ah
  414382:	or     al,0x21
  414384:	cmp    al,0xa2
  414386:	les    ecx,FWORD PTR [edx]
  414388:	push   eax
  414389:	xor    DWORD PTR [eax],eax
  41438b:	and    al,0x16
  41438d:	add    al,0x4
  41438f:	xchg   BYTE PTR [eax+0x410000],ah
  414395:	int    0x68
  414397:	and    DWORD PTR [edx],esp
  414399:	sbb    BYTE PTR [eax+0x2102249],al
  41439f:	sub    DWORD PTR [eax+0x40000000],0x58010012
  4143a9:	push   eax
  4143aa:	lock add BYTE PTR ds:0x40001600,cl
  4143b1:	leave  
  4143b2:	mov    eax,ds:0x10308868
  4143b7:	add    BYTE PTR [esi],al
  4143b9:	es add al,0x3
  4143bc:	push   eax
  4143bd:	mov    bl,BYTE PTR [eax]
  4143bf:	pusha  
  4143c0:	or     BYTE PTR [ecx+eax*1+0x11483082],ch
  4143c7:	scas   al,BYTE PTR es:[edi]
  4143c8:	sub    bl,BYTE PTR [eax]
  4143ca:	add    al,BYTE PTR [eax]
  4143cc:	add    BYTE PTR [eax],al
  4143ce:	add    BYTE PTR [ebx+eax*2],al
  4143d1:	retf   
  4143d2:	jo     0x414424
  4143d4:	pop    edx
  4143d5:	push   esp
  4143d6:	add    BYTE PTR [esi],al
  4143d8:	rol    BYTE PTR [eax+0x66098021],0xc5
  4143df:	sbb    bl,BYTE PTR [ecx]
  4143e1:	push   edx
  4143e2:	ret    0x10ae
  4143e5:	mov    al,ds:0x4a86c02
  4143ea:	cmp    BYTE PTR [esp+eax*1],dh
  4143ed:	dec    esp
  4143ee:	push   ecx
  4143ef:	loopne 0x414432
  4143f1:	and    BYTE PTR [edx+eiz*4-0x80],al
  4143f5:	or     ebx,DWORD PTR [esp]
  4143f8:	add    BYTE PTR [edx+0x24c4e000],al
  4143fe:	jo     0x414460
  414400:	adc    eax,0x280082
  414405:	and    BYTE PTR [ecx+edx*2+0x48],cl
  414409:	or     DWORD PTR [ecx+0x42],ecx
  41440c:	inc    eax
  41440d:	xor    BYTE PTR [eax],0x10
  414410:	add    al,0x18
  414412:	or     BYTE PTR [eax+0x68e92005],0x61
  414419:	add    al,BYTE PTR [edx+0x62]
  41441c:	and    BYTE PTR [eax],al
  41441e:	bound  ebp,QWORD PTR [ecx+0x11]
  414421:	enter  0x90c,0xe6
  414425:	add    DWORD PTR [eax+0x1],0x82448096
  41442c:	inc    esi
  41442d:	adc    al,BYTE PTR [ecx]
  41442f:	ret    0x8080
  414432:	or     DWORD PTR [eax+0x800d021],eax
  414438:	push   edx
  414439:	adc    al,0x20
  41443b:	dec    ecx
  41443c:	adc    ch,BYTE PTR [ecx]
  41443e:	add    BYTE PTR [eax+0x204a8904],al
  414444:	or     al,0x0
  414446:	push   edx
  414447:	mov    ah,BYTE PTR [eax+0x1111600]
  41444d:	cmp    eax,0x9220c022
  414452:	ret    0x53b
  414455:	bound  ecx,QWORD PTR [ecx]
  414457:	xor    BYTE PTR [esi+0x1454563],0x68
  41445e:	nop
  41445f:	pusha  
  414460:	sbb    eax,0x8190d100
  414465:	test   al,0x50
  414467:	and    cl,BYTE PTR [ecx]
  414469:	or     DWORD PTR [esp+eax*2],ebp
  41446c:	and    al,BYTE PTR [ebx]
  41446e:	push   eax
  41446f:	add    al,0x63
  414471:	mov    al,ds:0x20850148
  414476:	add    al,0x28
  414478:	add    BYTE PTR [edx+ecx*8],cl
  41447b:	rol    BYTE PTR [eax+0x0],0xc7
  41447f:	call   0x9c5484c5
  414484:	dec    esp
  414485:	add    eax,0x520d0514
  41448a:	add    BYTE PTR [eax],dh
  41448c:	adc    BYTE PTR [eax],dh
  41448e:	add    cl,ah
  414490:	push   es
  414491:	adc    BYTE PTR [eax],al
  414493:	movs   DWORD PTR es:[edi],DWORD PTR ds:[esi]
  414494:	call   0x853:0xa8c0440e
  41449b:	inc    ebp
  41449c:	inc    eax
  41449d:	mov    al,ds:0x2406012
  4144a2:	inc    ecx
  4144a3:	inc    eax
  4144a4:	add    dl,al
  4144a6:	inc    eax
  4144a7:	inc    eax
  4144a8:	adc    BYTE PTR [eax+eax*1],al
  4144ab:	mov    BYTE PTR ds:0x262012,ch
  4144b1:	inc    edx
  4144b2:	adc    al,ch
  4144b4:	add    BYTE PTR [eax],ah
  4144b6:	add    BYTE PTR [ecx+eiz*1-0x7eefe57b],al
  4144bd:	adc    BYTE PTR [edx+eiz*4],al
  4144c0:	and    BYTE PTR [eax],al
  4144c2:	push   es
  4144c3:	add    dh,BYTE PTR [ecx]
  4144c5:	test   BYTE PTR [eax-0x7c],cl
  4144c8:	add    al,0x5
  4144ca:	or     BYTE PTR [ecx],0x50
  4144cd:	add    cl,ah
  4144cf:	add    al,0x6a
  4144d1:	or     al,0x70
  4144d3:	add    esp,DWORD PTR [eax+0x42]
  4144d6:	xchg   BYTE PTR [edx],ah
  4144d8:	add    bl,BYTE PTR [esp+ecx*4-0x7ef7d298]
  4144df:	xchg   BYTE PTR [eax],al
  4144e1:	and    DWORD PTR [eax],edx
  4144e3:	add    dl,BYTE PTR [edx+0xd811070]
  4144e9:	sub    eax,0xa8c0068
  4144ee:	or     al,BYTE PTR [edx+0x6]
  4144f1:	or     BYTE PTR [eax+0x0],al
  4144f4:	inc    eax
  4144f5:	pop    eax
  4144f6:	pop    eax
  4144f7:	add    DWORD PTR [eax],ecx
  4144f9:	pusha  
  4144fa:	add    BYTE PTR [eax+0x8989221],al
  414500:	add    BYTE PTR [eax-0x468affb2],dl
  414506:	mov    DWORD PTR [eax],ecx
  414508:	add    DWORD PTR [eax],esp
  41450a:	nop
  41450b:	adc    BYTE PTR [eax+eax*1],al
  41450e:	inc    edx
  41450f:	or     DWORD PTR [eax+ecx*4+0xe210000],eax
  414516:	add    dl,BYTE PTR [ecx+0x41]
  414519:	dec    eax
  41451a:	xor    BYTE PTR [esp+eax*1],cl
  41451d:	mov    al,fs:0x8
  414523:	add    edi,DWORD PTR [edx]
  414525:	add    BYTE PTR [eax],al
  414527:	ret    0x2785
  41452a:	xor    DWORD PTR [eax],eax
  41452c:	cwde   
  41452d:	inc    edx
  41452e:	add    DWORD PTR [ecx+0x24e15214],edx
  414534:	sbb    al,0x24
  414536:	add    BYTE PTR [edx-0x80],al
  414539:	add    BYTE PTR [ecx-0x7dbcd7dc],ah
  41453f:	and    ah,BYTE PTR [esi+eax*1-0x60]
  414543:	inc    eax
  414544:	add    cl,al
  414546:	inc    eax
  414547:	daa    
  414548:	nop
  414549:	xor    DWORD PTR [ecx],eax
  41454b:	sbb    BYTE PTR [eax+0x20440214],bl
  414551:	jb     0x414517
  414553:	inc    eax
  414554:	xor    BYTE PTR [ebx],al
  414556:	or     BYTE PTR [ebx-0x6c],dl
  414559:	add    eax,DWORD PTR [ecx]
  41455b:	adc    BYTE PTR [eax],al
  41455d:	inc    edx
  41455e:	dec    eax
  41455f:	sbb    BYTE PTR [ecx],al
  414561:	push   ecx
  414562:	inc    esi
  414563:	inc    esp
  414564:	add    BYTE PTR [ecx],dh
  414566:	sub    BYTE PTR [eax+0x5],dl
  414569:	add    cl,BYTE PTR [eax]
  41456b:	pusha  
  41456c:	sbb    BYTE PTR [ecx],dl
  41456e:	adc    BYTE PTR [ebx],cl
  414570:	cmps   BYTE PTR ds:[esi],BYTE PTR es:[edi]
  414571:	or     BYTE PTR [eax],dh
  414573:	and    DWORD PTR [ebx+0x1a],eax
  414576:	sub    DWORD PTR [edx+eax*8+0x10a5c879],eax
  41457d:	pop    ss
  41457e:	popa   
  41457f:	inc    esp
  414580:	adc    eax,0x3138020
  414585:	sub    al,BYTE PTR [eax]
  414587:	or     DWORD PTR [esp+edx*1],edx
  41458a:	add    al,0x0
  41458c:	rcl    BYTE PTR [ecx+0x66],1
  41458f:	add    al,0x16
  414591:	test   BYTE PTR [eax],cl
  414593:	add    DWORD PTR [ecx+eax*1+0xa],0x3214a860
  41459b:	add    BYTE PTR [eax+edx*1],bh
  41459e:	adc    BYTE PTR [edx+eax*1],al
  4145a1:	pusha  
  4145a2:	and    DWORD PTR [eax+0x20010],eax
  4145a8:	ins    BYTE PTR es:[edi],dx
  4145a9:	rol    BYTE PTR [eax-0x50],0x93
  4145ad:	inc    ecx
  4145ae:	add    DWORD PTR [eax-0x36],ebp
  4145b1:	mov    al,ds:0x98a5209
  4145b6:	sbb    eax,0x40043224
  4145bb:	adc    DWORD PTR ds:0x80a5002,eax
  4145c1:	add    eax,DWORD PTR [eax]
  4145c3:	push   ds
  4145c4:	or     cl,BYTE PTR [esi]
  4145c6:	add    BYTE PTR [eax],0x2
  4145c9:	adc    BYTE PTR [edx],cl
  4145cb:	ror    DWORD PTR [eax],0x4
  4145ce:	xchg   ecx,eax
  4145cf:	add    al,0x40
  4145d1:	inc    ecx
  4145d2:	xor    BYTE PTR [edx-0x57b3acfd],dl
  4145d8:	add    al,BYTE PTR [eax]
  4145da:	mov    cl,cl
  4145dc:	inc    eax
  4145dd:	add    BYTE PTR [eax],ah
  4145df:	add    DWORD PTR [ecx+0x401a0848],0xc
  4145e6:	inc    ecx
  4145e7:	and    al,dl
  4145e9:	mov    al,ds:0x792801c0
  4145ee:	sbb    al,0xe8
  4145f0:	add    BYTE PTR [eax],dh
  4145f2:	xor    BYTE PTR [eax+0x0],al
  4145f5:	add    eax,0xc0a00196
  4145fa:	and    al,BYTE PTR [edx]
  4145fc:	ins    BYTE PTR es:[edi],dx
  4145fd:	adc    al,0x2
  4145ff:	or     eax,DWORD PTR [eax+0x480048]
  414605:	add    ah,BYTE PTR [eax-0x7c]
  414608:	sbb    al,0x22
  41460a:	add    al,BYTE PTR [eax]
  41460c:	add    BYTE PTR [edx+0x8],cl
  41460f:	inc    ecx
  414610:	add    BYTE PTR [eax],cl
  414612:	add    al,BYTE PTR [eax]
  414614:	test   al,0x71
  414616:	add    DWORD PTR [eax],ebx
  414618:	adc    al,0x8
  41461a:	add    BYTE PTR [edx+edx*2],al
  41461d:	or     al,BYTE PTR [edx+eax*1+0x4]
  414621:	add    BYTE PTR [eax],al
  414623:	ret    0x4151
  414626:	dec    edx
  414627:	sbb    BYTE PTR [ecx],0x0
  41462a:	xor    DWORD PTR [eax],eax
  41462c:	add    al,0x81
  41462e:	dec    edi
  41462f:	dec    eax
  414630:	lods   al,BYTE PTR ds:[esi]
  414631:	les    esp,FWORD PTR [eax+0x52230844]
  414637:	add    DWORD PTR [eax],esp
  414639:	or     BYTE PTR ds:0x8a25002d,ah
  41463f:	add    DWORD PTR [esi+0x2a],esp
  414642:	add    eax,eax
  414644:	sub    BYTE PTR [ecx+0x44],al
  414647:	or     BYTE PTR [edx+esi*4],ah
  41464a:	and    DWORD PTR [eax+0x0],ecx
  41464d:	sbb    ah,BYTE PTR [edi+0xc444127]
  414653:	add    BYTE PTR [edx+eax*1],bl
  414656:	sub    dh,BYTE PTR [ecx+ecx*2]
  414659:	and    BYTE PTR [edx+0x20],ah
  41465c:	fidiv  DWORD PTR [eax]
  41465e:	add    ah,BYTE PTR [edx]
  414660:	and    ah,BYTE PTR [edx+0x20]
  414663:	or     DWORD PTR es:[eax+0x20038c2],edx
  41466a:	adc    BYTE PTR [eax-0x66],bl
  41466d:	inc    esp
  41466e:	adc    BYTE PTR [esi+0x40808280],al
  414674:	add    BYTE PTR [eax+0x1],ah
  414677:	or     BYTE PTR [eax+edx*1],ch
  41467a:	sbb    BYTE PTR [edx-0xf],cl
  41467d:	adc    DWORD PTR [edx+0x20],0x27
  414681:	dec    eax
  414682:	add    DWORD PTR [esp+eax*1+0x2600059a],0xffffff88
  41468a:	or     BYTE PTR [eax-0x6f],0xd
  41468e:	inc    eax
  41468f:	adc    BYTE PTR [eax],al
  414691:	adc    BYTE PTR [ecx],cl
  414693:	and    al,0x8
  414695:	mov    al,ds:0x49882086
  41469a:	xor    BYTE PTR [eax+eax*8],ah
  41469d:	inc    esp
  41469e:	xor    BYTE PTR [edx+ecx*1+0x2a000020],al
  4146a5:	add    BYTE PTR [ecx],cl
  4146a7:	js     0x4146b5
  4146a9:	add    al,BYTE PTR [ecx]
  4146ab:	or     al,0x0
  4146ad:	xor    al,0x28
  4146af:	inc    eax
  4146b0:	or     BYTE PTR [ecx+ecx*1],ch
  4146b3:	push   eax
  4146b4:	mov    al,ds:0x10084010
  4146b9:	add    DWORD PTR [edx+0x12],eax
  4146bc:	or     eax,0x80045a
  4146c1:	or     BYTE PTR [ecx],al
  4146c3:	sub    al,BYTE PTR [eax+0x2]
  4146c6:	add    BYTE PTR [eax-0x3c],cl
  4146c9:	and    al,0x8e
  4146cb:	xor    DWORD PTR [ebp-0x7edeb9f8],0x3a5781
  4146d5:	add    al,0x0
  4146d7:	add    BYTE PTR [eax],cl
  4146d9:	add    eax,DWORD PTR [edx]
  4146db:	and    DWORD PTR [edi+eiz*1],eax
  4146de:	pusha  
  4146df:	adc    DWORD PTR [eax],ecx
  4146e1:	add    BYTE PTR [eax+0x1000d100],cl
  4146e7:	movs   BYTE PTR es:[edi],BYTE PTR ds:[esi]
  4146e8:	add    DWORD PTR [eax],ebx
  4146ea:	adc    al,0x8
  4146ec:	add    BYTE PTR [eax+eax*1+0x81c1c7],al
  4146f3:	add    BYTE PTR [eax],dl
  4146f5:	adc    BYTE PTR [eax],al
  4146f7:	mov    al,BYTE PTR [edx]
  4146f9:	mov    BYTE PTR [eax],cl
  4146fb:	or     BYTE PTR [eax+0x3110446],ah
  414701:	inc    ecx
  414702:	inc    eax
  414703:	add    BYTE PTR [edx+0x102200],al
  414709:	or     BYTE PTR [edx+0x8],ch
  41470c:	add    BYTE PTR [ecx-0x7777fca0],al
  414712:	add    BYTE PTR [eax],cl
  414714:	mov    ds:0xc3020042,al
  414719:	xchg   ecx,eax
  41471a:	add    al,0xc0
  41471c:	push   es
  41471d:	dec    ecx
  41471e:	sub    al,0x4
  414720:	xchg   ecx,eax
  414721:	or     DWORD PTR [ecx+0x31020b40],ecx
  414727:	add    BYTE PTR [eax],al
  414729:	add    BYTE PTR [eax+eax*1-0x6e],al
  41472d:	add    BYTE PTR [ecx],cl
  41472f:	inc    ecx
  414730:	or     eax,DWORD PTR [eax+0x1a801602]
  414736:	add    ebx,DWORD PTR [ebx]
  414738:	mov    ecx,0x9a650067
  41473d:	add    al,0x4
  41473f:	add    BYTE PTR [edx],cl
  414741:	cs add cl,al
  414744:	adc    BYTE PTR [eax],cl
  414746:	add    BYTE PTR [eax],0x41
  414749:	inc    eax
  41474a:	add    DWORD PTR [edx+eiz*1],eax
  41474d:	movs   BYTE PTR es:[edi],BYTE PTR ds:[esi]
  41474e:	add    eax,0x810c0
  414753:	imul   eax,DWORD PTR [eax],0x814826
  414759:	or     BYTE PTR [eax],al
  41475b:	dec    eax
  41475c:	add    DWORD PTR [edi+eiz*1+0x3c422001],eax
  414763:	pop    ecx
  414764:	adc    BYTE PTR [ebx+0x61150101],al
  41476a:	add    BYTE PTR [eax],al
  41476c:	adc    al,0x0
  41476e:	add    al,0x48
  414770:	cmp    al,BYTE PTR [eax]
  414772:	add    BYTE PTR [eax+0x4],dl
  414775:	or     cl,BYTE PTR [eax]
  414777:	or     BYTE PTR [esi],dh
  414779:	adc    BYTE PTR [edx],ch
  41477b:	add    BYTE PTR [eax+0x67080c0],bl
  414781:	rol    BYTE PTR [edx],0x0
  414784:	mov    DWORD PTR [eax],edx
  414786:	add    BYTE PTR [edi],bl
  414788:	or     BYTE PTR [eax],al
  41478a:	add    BYTE PTR [eax+0x4a930800],ah
  414790:	adc    BYTE PTR [eax],dl
  414792:	pusha  
  414793:	add    al,BYTE PTR [ecx+0x24]
  414796:	add    al,0x44
  414798:	or     BYTE PTR [eax+esi*1],al
  41479b:	xor    BYTE PTR [ebp+0x50],0x4
  41479f:	add    al,0x0
  4147a1:	inc    edx
  4147a2:	push   cs
  4147a3:	retf   0x801
  4147a6:	mov    dl,al
  4147a8:	or     BYTE PTR [eax],al
  4147aa:	ret    
  4147ab:	add    BYTE PTR [edx],al
  4147ad:	add    al,0x0
  4147af:	mov    al,ds:0x10f08c04
  4147b4:	push   eax
  4147b5:	cmp    al,0x0
  4147b7:	inc    eax
  4147b8:	and    BYTE PTR [ecx],cl
  4147ba:	inc    eax
  4147bb:	xchg   ecx,eax
  4147bc:	add    BYTE PTR [ecx],al
  4147be:	inc    eax
  4147bf:	add    DWORD PTR [eax],eax
  4147c1:	add    BYTE PTR [ebx+0x41],al
  4147c4:	sbb    BYTE PTR [eax+0x10],0x4
  4147c8:	add    BYTE PTR [edx],ah
  4147ca:	add    BYTE PTR [eax],al
  4147cc:	or     BYTE PTR [edx-0x6c],al
  4147cf:	rol    BYTE PTR [edx],0x0
  4147d2:	inc    edx
  4147d3:	inc    edx
  4147d4:	adc    ecx,DWORD PTR [eax]
  4147d6:	add    BYTE PTR [esi-0x7fbccaf6],dl
  4147dc:	add    BYTE PTR [edi+0x41],ah
  4147df:	adc    al,BYTE PTR [eax]
  4147e1:	inc    esp
  4147e2:	inc    ecx
  4147e3:	and    al,0x40
  4147e5:	test   BYTE PTR [eax+0x680810],al
  4147eb:	add    ah,dh
  4147ed:	add    al,0x2
  4147ef:	inc    ebx
  4147f0:	inc    eax
  4147f1:	test   DWORD PTR [eax],ecx
  4147f3:	add    DWORD PTR [eax],eax
  4147f5:	add    BYTE PTR [eax],al
  4147f7:	push   0x80028001
  4147fc:	add    BYTE PTR [ecx],dl
  4147fe:	inc    esi
  4147ff:	les    eax,FWORD PTR [eax]
  414801:	or     BYTE PTR [eax+eax*4],al
  414804:	xchg   ebx,eax
  414805:	add    DWORD PTR [eax],eax
  414807:	add    al,dl
  414809:	adc    BYTE PTR [eax],ah
  41480b:	loopne 0x4147cd
  41480d:	push   es
  41480e:	sbb    BYTE PTR [eax],al
  414810:	or     BYTE PTR [edx],ah
  414812:	add    BYTE PTR [eax],al
  414814:	or     dl,BYTE PTR [edx+0x14]
  414817:	add    BYTE PTR [eax],al
  414819:	aaa    
  41481a:	adc    BYTE PTR [ebx+0x40],al
  41481d:	stos   BYTE PTR es:[edi],al
  41481e:	push   edx
  41481f:	xchg   edx,eax
  414820:	add    BYTE PTR [eax],al
  414822:	add    BYTE PTR [ebx],ah
  414824:	or     BYTE PTR [edx],0x95
  414827:	and    BYTE PTR [edx],al
  414829:	inc    ecx
  41482a:	ret    0x4200
  41482d:	xchg   BYTE PTR [eax],al
  41482f:	adc    BYTE PTR [edx],al
  414831:	and    BYTE PTR [ecx],ah
  414833:	add    BYTE PTR [eax-0x7f],cl
  414836:	add    BYTE PTR [eax+eax*2],cl
  414839:	(bad)  
  41483a:	rol    BYTE PTR [eax],0x2c
  41483d:	or     BYTE PTR [eax],al
  41483f:	dec    esi
  414840:	test   DWORD PTR [eax+0x50c08404],ecx
  414846:	add    edx,DWORD PTR [eax+eiz*1]
  414849:	add    BYTE PTR [eax],dl
  41484b:	add    dl,BYTE PTR [eax-0x1e]
  41484e:	adc    BYTE PTR [esi],ah
  414850:	je     0x414852
  414852:	add    BYTE PTR [eax],al
  414854:	arpl   WORD PTR [edx],ax
  414856:	and    eax,0x48608010
  41485b:	add    BYTE PTR [eax],ch
  41485d:	add    BYTE PTR [edx+0x727a0553],0xe
  414864:	mov    DWORD PTR [edi+esi*1],eax
  414867:	and    DWORD PTR [eax],eax
  414869:	inc    ecx
  41486a:	add    BYTE PTR [eax],ah
  41486c:	int    0x0
  41486e:	add    al,0xc0
  414870:	add    ebx,edx
  414872:	or     BYTE PTR [eax],dl
  414874:	inc    ebx
  414875:	dec    edx
  414876:	adc    al,BYTE PTR [edx]
  414878:	sub    BYTE PTR [eax],cl
  41487a:	add    BYTE PTR [eax+0x55],al
  41487d:	inc    ecx
  41487e:	mov    eax,ds:0xac465ca0
  414883:	or     BYTE PTR [esi],al
  414885:	add    BYTE PTR [eax],al
  414887:	dec    ebx
  414888:	xor    BYTE PTR [eax],cl
  41488a:	add    DWORD PTR [ebx],ebp
  41488c:	xor    al,BYTE PTR [ebx]
  41488e:	add    BYTE PTR [eax],al
  414890:	adc    al,0xd
  414892:	add    BYTE PTR [eax],cl
  414894:	add    BYTE PTR [esi+eiz*1],bl
  414897:	mov    al,ds:0x100a04e4
  41489c:	stos   BYTE PTR es:[edi],al
  41489d:	mov    al,ds:0x9010841
  4148a2:	add    BYTE PTR [eax+eax*1+0x208d1023],ah
  4148a9:	test   al,0x4
  4148ab:	popf   
  4148ac:	inc    ebp
  4148ad:	and    cl,BYTE PTR [eax]
  4148af:	arpl   WORD PTR ds:0x78890508,sp
  4148b5:	bound  eax,QWORD PTR [eax]
  4148b7:	add    BYTE PTR [ecx],al
  4148b9:	add    al,0x0
  4148bb:	sbb    eax,DWORD PTR [eax]
  4148bd:	add    BYTE PTR [ecx],cl
  4148bf:	add    DWORD PTR [eax],ecx
  4148c1:	dec    esi
  4148c2:	mov    al,ds:0xa5412300
  4148c7:	pop    edi
  4148c8:	add    BYTE PTR [eax+0xc800],ch
  4148ce:	add    BYTE PTR [ecx],al
  4148d0:	inc    edx
  4148d1:	add    BYTE PTR [edx+0x7],cl
  4148d4:	shl    BYTE PTR [eax],0x2
  4148d7:	add    dh,al
  4148d9:	and    BYTE PTR [ecx+0x0],bl
  4148dc:	inc    eax
  4148dd:	adc    BYTE PTR [eax+eax*1],dh
  4148e0:	adc    al,0x2
  4148e2:	add    BYTE PTR [edx+eax*1],dl
  4148e5:	adc    BYTE PTR [eax+0xc4e05c1],al
  4148eb:	and    DWORD PTR [edx],eax
  4148ed:	cli    
  4148ee:	add    BYTE PTR [edi],al
  4148f0:	add    BYTE PTR [ecx],0xa
  4148f3:	inc    edx
  4148f4:	adc    BYTE PTR ds:0x49328,dl
  4148fa:	push   es
  4148fb:	add    BYTE PTR [eax],bl
  4148fd:	add    DWORD PTR [eax],eax
  4148ff:	add    al,0x21
  414901:	adc    al,0x9
  414903:	add    al,BYTE PTR [eax]
  414905:	or     DWORD PTR [eax+0xc00da0a],eax
  41490b:	inc    ecx
  41490c:	and    al,BYTE PTR [eax]
  41490e:	add    BYTE PTR [edx],ah
  414910:	add    BYTE PTR [edx],al
  414912:	sbb    BYTE PTR [eax+0x0],0x8
  414916:	add    BYTE PTR [edx+0x0],al
  414919:	sub    BYTE PTR [eax+0x62502020],al
  41491f:	inc    ecx
  414920:	add    eax,DWORD PTR [eax]
  414922:	add    BYTE PTR [ebp-0x60],cl
  414925:	add    BYTE PTR [eax],ah
  414927:	add    BYTE PTR [edx+eax*1],al
  41492a:	mov    al,ds:0xc0920210
  41492f:	nop
  414930:	adc    al,BYTE PTR [eax]
  414932:	add    al,0x9
  414934:	add    BYTE PTR [edx-0x70],al
  414937:	add    BYTE PTR [eax+eax*1-0x406defee],al
  41493e:	push   eax
  41493f:	sbb    eax,0x8060634e
  414944:	or     cl,bl
  414946:	push   es
  414947:	sbb    al,0x26
  414949:	add    cl,BYTE PTR [eax+0x40]
  41494c:	add    BYTE PTR [eax+esi*1],ah
  41494f:	add    BYTE PTR [eax-0x7affd5fc],al
  414955:	aam    0x28
  414957:	add    BYTE PTR [eax],ch
  414959:	xchg   al,al
  41495b:	adc    BYTE PTR [eax+edx*1+0xe00084],al
  414962:	or     BYTE PTR [esi],al
  414964:	test   al,0x10
  414966:	add    eax,0x33432014
  41496b:	xchg   ebp,eax
  41496c:	rol    DWORD PTR [ebp+0x48084000],0x43
  414973:	or     BYTE PTR [edx+0x8],al
  414976:	adc    BYTE PTR [ebx],al
  414978:	add    BYTE PTR [ebx+0x45440000],dl
  41497e:	push   es
  41497f:	sub    BYTE PTR [ecx],dl
  414981:	inc    eax
  414982:	add    DWORD PTR [eax],edx
  414984:	adc    BYTE PTR [eax+0x0],al
  414987:	and    BYTE PTR [eax+eax*1],al
  41498a:	add    al,0x0
  41498c:	adc    BYTE PTR [eax+0x50000702],ah
  414992:	add    BYTE PTR [ecx],al
  414994:	adc    BYTE PTR ds:0x80020008,dh
  41499a:	add    BYTE PTR [eax],al
  41499c:	inc    eax
  41499d:	add    DWORD PTR [eax],0x800
  4149a3:	inc    esi
  4149a4:	add    BYTE PTR [esi],ah
  4149a6:	sub    DWORD PTR [eax+0x0],edx
  4149a9:	add    BYTE PTR [eax+0x11938051],al
  4149af:	and    BYTE PTR [eax+0x0],al
  4149b2:	inc    eax
  4149b3:	inc    eax
  4149b4:	sahf   
  4149b5:	add    BYTE PTR [ecx],dh
  4149b7:	add    BYTE PTR [eax],ah
  4149b9:	inc    ecx
  4149ba:	push   es
  4149bb:	inc    eax
  4149bc:	push   eax
  4149bd:	add    BYTE PTR [ebx+0x22],ah
  4149c0:	sbb    BYTE PTR [eax],al
  4149c2:	adc    al,BYTE PTR [edx+0xc64222]
  4149c8:	sub    al,0x90
  4149ca:	adc    al,BYTE PTR [eax+0x20]
  4149cd:	inc    edx
  4149ce:	add    BYTE PTR [eax],al
  4149d0:	sub    DWORD PTR [ebx+0x24],eax
  4149d3:	push   es
  4149d4:	and    al,0x28
  4149d6:	add    dl,BYTE PTR [eax-0x79f7f000]
  4149dc:	and    al,0x46
  4149de:	or     BYTE PTR [eax],dl
  4149e0:	inc    eax
  4149e1:	add    al,0x40
  4149e3:	add    al,0x4d
  4149e5:	add    DWORD PTR [eax],eax
  4149e7:	inc    eax
  4149e8:	add    BYTE PTR [eax],al
  4149ea:	push   0xc
  4149ec:	sbb    cl,0x80
  4149ef:	add    BYTE PTR [edx],al
  4149f1:	add    BYTE PTR [edx],al
  4149f3:	or     al,BYTE PTR [esi+eax*1]
  4149f6:	inc    eax
  4149f7:	es add al,0x4c
  4149fa:	add    BYTE PTR [eax],cl
  4149fc:	add    ecx,DWORD PTR [edx]
  4149fe:	add    DWORD PTR [eax+0x4000],eax
  414a04:	mov    al,ds:0x41804084
  414a09:	push   es
  414a0a:	inc    eax
  414a0b:	add    BYTE PTR [edx],cl
  414a0d:	add    bh,al
  414a0f:	add    BYTE PTR [eax],al
  414a11:	cmp    DWORD PTR [eax],eax
  414a13:	dec    ebx
  414a14:	add    DWORD PTR [ecx],eax
  414a16:	add    BYTE PTR ds:0x814005,al
  414a1c:	and    al,0x20
  414a1e:	xor    al,0x80
  414a20:	adc    BYTE PTR [eax],al
  414a22:	add    BYTE PTR [edx],dl
  414a24:	add    BYTE PTR [eax],dl
  414a26:	adc    BYTE PTR [eax],al
  414a28:	add    BYTE PTR [ebx],al
  414a2a:	add    BYTE PTR [ecx+0x5c000400],ah
  414a30:	add    al,BYTE PTR [eax]
  414a32:	add    al,BYTE PTR [eax]
  414a34:	adc    BYTE PTR [eax+eax*1-0x7fffffe0],ah
  414a3b:	add    BYTE PTR [eax],al
  414a3d:	ret    
  414a3e:	or     al,al
  414a40:	adc    BYTE PTR [eax+0x0],cl
  414a43:	loop   0x414a05
  414a45:	add    BYTE PTR [ebx],al
  414a47:	push   0x88001101
  414a4c:	enter  0x11,0x49
  414a50:	mov    al,BYTE PTR [edi]
  414a52:	add    al,0x80
  414a54:	or     BYTE PTR [eax+0x68],al
  414a57:	xchg   BYTE PTR [eax+0x1],ah
  414a5a:	add    al,BYTE PTR [ecx]
  414a5c:	inc    ecx
  414a5d:	add    al,0x20
  414a5f:	add    bh,0x0
  414a62:	inc    ecx
  414a63:	add    BYTE PTR [edx],dl
  414a65:	add    dl,BYTE PTR [eax]
  414a67:	add    BYTE PTR [ebx],dl
  414a69:	shl    BYTE PTR [eax],0x8c
  414a6c:	adc    al,0x0
  414a6e:	dec    edi
  414a6f:	or     DWORD PTR [eax],0x11
  414a72:	or     BYTE PTR [eax],al
  414a74:	sub    al,0x6
  414a76:	enter  0x4a08,0x84
  414a7a:	and    eax,0x108d0c09
  414a7f:	or     BYTE PTR [edx+0x8],0x2
  414a83:	xchg   ebx,eax
  414a84:	add    BYTE PTR [edx],ah
  414a86:	add    BYTE PTR [ecx],cl
  414a88:	add    BYTE PTR [eax],al
  414a8a:	test   BYTE PTR [ecx+edx*1],dl
  414a8d:	push   edx
  414a8e:	push   es
  414a8f:	dec    ebx
  414a90:	dec    esp
  414a91:	add    ah,ah
  414a93:	pusha  
  414a94:	add    BYTE PTR [ecx+0x0],dl
  414a97:	or     BYTE PTR [eax+eax*1+0x0],0x7
  414a9c:	adc    BYTE PTR [edx],al
  414a9e:	movs   BYTE PTR es:[edi],BYTE PTR ds:[esi]
  414a9f:	inc    ecx
  414aa0:	and    BYTE PTR [ecx+0x18141c8],al
  414aa6:	and    BYTE PTR [edx-0x7b9f2000],0x3
  414aad:	adc    DWORD PTR [edx+0x0],ecx
  414ab0:	add    BYTE PTR [ebx],ah
  414ab2:	add    BYTE PTR [ecx+0x400040],0xc
  414ab9:	add    BYTE PTR [ebx],dh
  414abb:	add    BYTE PTR [ecx-0x7e],0x10
  414abf:	shl    BYTE PTR [eax],1
  414ac1:	sub    BYTE PTR [edx+0x7],al
  414ac4:	add    BYTE PTR [eax],bl
  414ac6:	add    BYTE PTR [eax+eax*1],al
  414ac9:	add    DWORD PTR [edx-0x7df7db3d],eax
  414acf:	add    BYTE PTR [ecx+eax*4],al
  414ad2:	xor    ebp,DWORD PTR [edx]
  414ad4:	add    BYTE PTR [eax-0x7ebfbfde],bh
  414ada:	sbb    BYTE PTR [eax],al
  414adc:	or     DWORD PTR [eax],0x10020709
  414ae2:	xor    DWORD PTR [eax],eax
  414ae4:	and    DWORD PTR [edi],edx
  414ae6:	add    BYTE PTR [eax],cl
  414ae8:	and    BYTE PTR [edx+0x44],cl
  414aeb:	add    BYTE PTR [edx],0x2a
  414aee:	adc    BYTE PTR [ecx],ch
  414af0:	cmps   BYTE PTR ds:[esi],BYTE PTR es:[edi]
  414af1:	mov    ds:0x88ae038a,al
  414af6:	sub    DWORD PTR [esp+edx*2+0x41001800],ebp
  414afd:	mov    ah,0xa1
  414aff:	add    ah,BYTE PTR [ebx-0x5e]
  414b02:	adc    BYTE PTR [ecx],ah
  414b04:	adc    BYTE PTR [ebx],ah
  414b06:	add    BYTE PTR [ecx-0x707fff20],dl
  414b0c:	add    BYTE PTR [esi+ecx*1+0x0],ah
  414b10:	and    eax,eax
  414b12:	and    DWORD PTR [ecx+0x26605220],ecx
  414b18:	adc    BYTE PTR [eax],dl
  414b1a:	and    al,0x40
  414b1c:	aaa    
  414b1d:	rol    BYTE PTR [eax+ecx*8],0x5c
  414b21:	inc    esp
  414b22:	adc    BYTE PTR [ecx+eax*1],ah
  414b25:	outs   dx,BYTE PTR ds:[esi]
  414b26:	and    al,BYTE PTR [eax]
  414b28:	add    BYTE PTR [eax+0xd],al
  414b2b:	or     BYTE PTR [eax+0x8010059],dl
  414b31:	inc    esp
  414b32:	add    BYTE PTR [ecx],dl
  414b34:	or     BYTE PTR [eax],0x3
  414b37:	inc    eax
  414b38:	pop    es
  414b39:	mov    eax,DWORD PTR [ebp+0x0]
  414b3c:	or     ch,BYTE PTR [eax]
  414b3e:	inc    ecx
  414b3f:	add    eax,0x42002845
  414b44:	add    BYTE PTR [eax],al
  414b46:	inc    eax
  414b47:	or     BYTE PTR [ecx+0x32],al
  414b4a:	add    al,BYTE PTR [eax+0xc045]
  414b50:	add    DWORD PTR [eax],eax
  414b52:	and    DWORD PTR [edx*1+0x4630410],eax
  414b59:	inc    eax
  414b5a:	add    BYTE PTR ds:0x1004ae40,bl
  414b60:	add    BYTE PTR [ecx+0x10],al
  414b63:	add    BYTE PTR [edx],0x90
  414b66:	dec    edx
  414b67:	or     al,BYTE PTR [eax]
  414b69:	mov    ds:0x104520,al
  414b6e:	push   esp
  414b6f:	pop    es
  414b70:	inc    ecx
  414b71:	add    DWORD PTR [eax],ecx
  414b73:	mov    ebp,0x31120200
  414b78:	mov    al,ds:0x2221087d
  414b7d:	pusha  
  414b7e:	add    BYTE PTR [ecx],cl
  414b80:	adc    BYTE PTR [eax],ah
  414b82:	add    BYTE PTR [edx],al
  414b84:	nop
  414b85:	add    BYTE PTR [eax+0x21],bl
  414b88:	add    BYTE PTR [ebp+0x0],cl
  414b8b:	fsubr  DWORD PTR [edx]
  414b8d:	and    dl,BYTE PTR [edx]
  414b8f:	inc    eax
  414b90:	add    DWORD PTR [eax+0x41],0x1a01802
  414b97:	dec    esp
  414b98:	and    ah,BYTE PTR [ecx]
  414b9a:	add    DWORD PTR [eax],eax
  414b9c:	mov    al,ds:0x44900090
  414ba1:	adc    al,0x21
  414ba3:	add    dl,BYTE PTR [ecx+0x41]
  414ba6:	add    BYTE PTR [edx-0x3f920000],al
  414bac:	call   0x5250f5
  414bb1:	add    BYTE PTR [ecx],dh
  414bb3:	add    BYTE PTR [edx],al
  414bb5:	adc    al,0x40
  414bb7:	add    BYTE PTR [ecx+0x0],al
  414bba:	inc    eax
  414bbb:	mov    al,ds:0x49002805
  414bc0:	add    BYTE PTR [eax],al
  414bc2:	add    BYTE PTR [ebx],ah
  414bc4:	inc    ecx
  414bc5:	add    BYTE PTR [eax],dl
  414bc7:	add    dl,BYTE PTR [eax]
  414bc9:	and    DWORD PTR [edi-0x6fff2bf8],edx
  414bcf:	inc    eax
  414bd0:	and    BYTE PTR [eax],al
  414bd2:	xor    BYTE PTR [eax],al
  414bd4:	add    al,0x25
  414bd6:	adc    al,BYTE PTR [ebx+0x0]
  414bd9:	sub    BYTE PTR [eax],al
  414bdb:	push   ecx
  414bdc:	xor    BYTE PTR [ecx],al
  414bde:	adc    al,0x40
  414be0:	xor    BYTE PTR [ecx],ah
  414be2:	or     BYTE PTR [esi],0x83
  414be5:	add    BYTE PTR [eax+eax*8],al
  414be8:	add    al,0x24
  414bea:	ror    BYTE PTR [eax+0x46],0x41
  414bee:	dec    ebx
  414bef:	add    eax,DWORD PTR [eax]
  414bf1:	sub    eax,DWORD PTR [eax+eax*1]
  414bf4:	inc    eax
  414bf5:	add    BYTE PTR [eax*8+0x778a0222],al
  414bfc:	add    BYTE PTR [ebp+0x10],al
  414bff:	and    BYTE PTR [eax+0x31],ah
  414c02:	and    al,0x40
  414c04:	xchg   ecx,eax
  414c05:	inc    eax
  414c06:	and    BYTE PTR [ebx-0x79],bl
  414c09:	push   edx
  414c0a:	and    BYTE PTR [ebx],0x28
  414c0d:	mov    esp,0x69008a
  414c12:	add    BYTE PTR [ecx+0x0],al
  414c15:	inc    ecx
  414c16:	xchg   esp,eax
  414c17:	add    BYTE PTR [ebx],dl
  414c19:	or     BYTE PTR [eax+edx*1],al
  414c1c:	add    al,BYTE PTR [ecx+0x42]
  414c1f:	add    BYTE PTR [ecx],al
  414c21:	or     BYTE PTR [eax],0x94
  414c24:	pop    ebx
  414c25:	or     DWORD PTR [eax],ecx
  414c27:	or     DWORD PTR [ecx],eax
  414c29:	nop
  414c2a:	add    BYTE PTR [ecx+0x3],al
  414c2d:	and    BYTE PTR [esp+edx*1+0x2],0x2
  414c32:	inc    ecx
  414c33:	add    BYTE PTR [eax+0x45],al
  414c36:	cmp    BYTE PTR ds:0x84845040,0x82
  414c3d:	inc    ecx
  414c3e:	inc    ecx
  414c3f:	add    BYTE PTR [ecx],bh
  414c41:	or     eax,ebx
  414c43:	add    dl,BYTE PTR [eax]
  414c45:	ret    0x200
  414c48:	sbb    BYTE PTR [eax],ah
  414c4a:	test   BYTE PTR [ecx+0x18],ah
  414c4d:	push   0x2
  414c4f:	add    DWORD PTR [eax+0x0],eax
  414c52:	inc    edx
  414c53:	add    eax,DWORD PTR ds:0x95c0010
  414c59:	add    BYTE PTR [eax],al
  414c5b:	inc    ecx
  414c5c:	mov    dl,BYTE PTR ds:0x4410000
  414c62:	ror    BYTE PTR [ecx+0x0],0x44
  414c66:	inc    eax
  414c67:	add    BYTE PTR [eax],cl
  414c69:	aam    0x12
  414c6b:	push   0x1840404
  414c70:	inc    ebp
  414c71:	or     BYTE PTR [ebx],al
  414c73:	and    ah,BYTE PTR [eax]
  414c75:	add    BYTE PTR [eax],al
  414c77:	and    DWORD PTR [eax+0x2e000a1],ecx
  414c7d:	sub    BYTE PTR [eax],ch
  414c7f:	mov    al,BYTE PTR [eax]
  414c81:	or     BYTE PTR [eax],cl
  414c83:	inc    ecx
  414c84:	add    al,0x20
  414c86:	adc    BYTE PTR [edi+0x41],al
  414c89:	sbb    edi,eax
  414c8b:	add    BYTE PTR [eax],al
  414c8d:	add    BYTE PTR [eax+0x2a],al
  414c90:	arpl   WORD PTR [esp+ecx*2],cx
  414c93:	add    BYTE PTR [edx],dh
  414c95:	add    BYTE PTR [edx],0x40
  414c98:	sub    al,0x0
  414c9a:	add    BYTE PTR [edx],al
  414c9c:	push   cs
  414c9d:	call   0x1041d3a2
  414ca2:	inc    ecx
  414ca3:	adc    BYTE PTR [eax],0x88
  414ca6:	outs   dx,DWORD PTR ds:[esi]
  414ca7:	add    al,0x0
  414ca9:	add    al,0x16
  414cab:	adc    BYTE PTR [eax],al
  414cad:	adc    BYTE PTR [edx],al
  414caf:	add    BYTE PTR [eax],al
  414cb1:	add    BYTE PTR [eax],al
  414cb3:	mov    ebx,0x2080812
  414cb8:	push   es
  414cb9:	and    BYTE PTR [ebx+0x8],bh
  414cbc:	jmp    0x5095:0x42142040
  414cc3:	movs   BYTE PTR es:[edi],BYTE PTR ds:[esi]
  414cc4:	fs inc eax
  414cc6:	add    BYTE PTR [ebx+0x3],al
  414cc9:	sub    BYTE PTR ds:0x802034,dl
  414ccf:	add    BYTE PTR [eax],al
  414cd1:	add    al,0xc0
  414cd3:	mov    dh,0x12
  414cd5:	add    DWORD PTR [edx+0x1],eax
  414cd8:	or     BYTE PTR [esi],dl
  414cda:	lea    eax,[edx]
  414cdc:	call   0x20414d19
  414ce1:	test   BYTE PTR [esp],al
  414ce4:	popa   
  414ce5:	add    al,0x0
  414ce7:	sbb    BYTE PTR [ecx+ebx*4],cl
  414cea:	or     BYTE PTR [eax+0x3c410001],al
  414cf0:	add    eax,0x8420112
  414cf5:	adc    BYTE PTR [eax],cl
  414cf7:	inc    ebx
  414cf8:	add    BYTE PTR [eax+0x0],al
  414cfb:	adc    al,0x0
  414cfd:	add    BYTE PTR [eax],dl
  414cff:	add    DWORD PTR [eax-0x5a],eax
  414d02:	adc    BYTE PTR [eax+eax*1+0x0],al
  414d06:	add    al,0x88
  414d08:	add    dl,BYTE PTR [eax]
  414d0a:	inc    eax
  414d0b:	test   DWORD PTR [eax+0x10218842],esi
  414d11:	inc    ebx
  414d12:	add    DWORD PTR [edx],eax
  414d14:	add    al,BYTE PTR [edx]
  414d16:	or     BYTE PTR [eax],al
  414d18:	add    BYTE PTR [edx-0x48ffffff],al
  414d1e:	mov    al,ds:0x848a1001
  414d23:	and    eax,DWORD PTR [edx]
  414d25:	or     BYTE PTR [eax],ah
  414d27:	retf   
  414d28:	adc    esp,eax
  414d2a:	or     BYTE PTR [esi],dl
  414d2c:	dec    eax
  414d2d:	add    BYTE PTR [eax],al
  414d2f:	inc    esp
  414d30:	inc    edx
  414d31:	adc    BYTE PTR [edx],dl
  414d33:	push   ebx
  414d34:	add    BYTE PTR [eax+eiz*1],al
  414d37:	add    al,0xa4
  414d39:	adc    BYTE PTR ds:0x40004600,al
  414d3f:	shl    BYTE PTR [ebp+0x10],cl
  414d42:	add    al,0x0
  414d44:	add    al,BYTE PTR [eax+0xc402]
  414d4a:	or     BYTE PTR [edx+0x50],dl
  414d4d:	cld    
  414d4e:	add    BYTE PTR [ebx+eax*8],al
  414d51:	and    BYTE PTR [eax],cl
  414d53:	add    cl,BYTE PTR [ebx]
  414d55:	inc    ebx
  414d56:	sbb    BYTE PTR fs:[edx],cl
  414d59:	add    BYTE PTR [eax+0x0],0x24
  414d5d:	or     BYTE PTR [edx+eax*1-0x7afe7ff0],al
  414d64:	add    BYTE PTR [edx],dl
  414d66:	add    BYTE PTR [eax],ah
  414d68:	add    BYTE PTR [eax],al
  414d6a:	add    al,0x2a
  414d6c:	add    DWORD PTR [ecx],0x18
  414d6f:	inc    edx
  414d70:	add    cl,0x11
  414d73:	mov    al,ds:0x802004
  414d78:	add    BYTE PTR [eax],ah
  414d7a:	pop    ss
  414d7b:	add    BYTE PTR [ecx+0x0],bl
  414d7e:	add    BYTE PTR [eax],al
  414d80:	or     edx,eax
  414d82:	inc    edx
  414d83:	add    BYTE PTR [eax-0x78],al
  414d86:	dec    edx
  414d87:	add    al,0x0
  414d89:	and    BYTE PTR [ecx],0x0
  414d8c:	add    BYTE PTR [ebp+0x2],0x0
  414d90:	or     BYTE PTR [ecx+0x6],al
  414d93:	add    dl,BYTE PTR [ecx+0x40]
  414d96:	add    DWORD PTR [ecx],edx
  414d98:	add    al,0x80
  414d9a:	or     al,0x2
  414d9c:	adc    BYTE PTR [ecx+ecx*1+0x40],al
  414da0:	adc    BYTE PTR [eax],al
  414da2:	sbb    BYTE PTR [eax],al
  414da4:	test   al,0xd0
  414da6:	ins    BYTE PTR es:[edi],dx
  414da7:	adc    BYTE PTR [eax+0x0],al
  414dad:	popa   
  414dae:	push   cs
  414daf:	ret    0x154
  414db2:	dec    ecx
  414db3:	adc    BYTE PTR [eax+eax*1],cl
  414db6:	xchg   edx,eax
  414db7:	arpl   WORD PTR [eax+0x491026],ax
  414dbd:	inc    edx
  414dbe:	xor    cl,BYTE PTR [ecx+eax*1]
  414dc1:	and    BYTE PTR [eax],dl
  414dc3:	adc    ah,BYTE PTR [ecx+eax*4-0x80]
  414dc7:	add    BYTE PTR [eax],dl
  414dc9:	and    DWORD PTR [eax],ebp
  414dcb:	add    cl,BYTE PTR [eax]
  414dcd:	push   es
  414dce:	and    BYTE PTR [eax+0x22d0c871],bh
  414dd4:	and    DWORD PTR [eax],esp
  414dd6:	add    BYTE PTR [eax],dl
  414dd8:	and    al,BYTE PTR [eax]
  414dda:	adc    BYTE PTR [eax],dl
  414ddc:	sub    BYTE PTR [eax+0xa401000],al
  414de2:	add    BYTE PTR [eax+0x48a00462],al
  414de8:	add    al,0x82
  414dea:	add    BYTE PTR [eax],al
  414dec:	and    DWORD PTR [edx],eax
  414dee:	mov    al,ds:0x12020418
  414df3:	add    BYTE PTR [eax],ah
  414df5:	xchg   ebx,eax
  414df6:	sub    BYTE PTR [eax-0x7dffbed8],0xa
  414dfd:	add    al,0x2
  414dff:	add    BYTE PTR [eax],dh
  414e01:	pop    esp
  414e02:	add    BYTE PTR [eax],ah
  414e04:	or     BYTE PTR ds:0x8811,al
  414e0a:	nop
  414e0b:	add    eax,0x240423
  414e10:	add    BYTE PTR [eax],dl
  414e12:	add    BYTE PTR gs:[edx+0x1808c],ch
  414e19:	adc    BYTE PTR [ecx+0x43],al
  414e1c:	add    BYTE PTR [eax+0x24209c04],al
  414e22:	add    al,BYTE PTR [ecx+eax*4]
  414e25:	add    BYTE PTR [ecx-0x7dff4cff],dl
  414e2b:	add    BYTE PTR [ecx-0x36],al
  414e2e:	and    BYTE PTR [eax],al
  414e30:	push   edi
  414e31:	inc    ecx
  414e32:	and    BYTE PTR [eax],ah
  414e34:	adc    DWORD PTR [eax],esp
  414e36:	add    BYTE PTR [eax],al
  414e38:	adc    BYTE PTR [eax],al
  414e3a:	and    BYTE PTR [ebx],cl
  414e3c:	or     BYTE PTR [ecx+0x1c],0x4
  414e40:	xchg   edx,eax
  414e41:	bound  ebp,QWORD PTR [eax]
  414e43:	add    cl,BYTE PTR [eax]
  414e45:	and    cl,al
  414e47:	sbb    BYTE PTR [eax],al
  414e49:	rol    DWORD PTR [edx],0x0
  414e4c:	fadd   DWORD PTR [eax]
  414e4e:	and    BYTE PTR [eax],al
  414e50:	add    BYTE PTR [eax],ch
  414e52:	or     eax,0x90204200
  414e57:	or     al,0x0
  414e59:	and    BYTE PTR [edx+0x20],al
  414e5c:	rcl    BYTE PTR [ecx+0x1],1
  414e5f:	add    dl,BYTE PTR [eax]
  414e61:	xor    BYTE PTR [edx],al
  414e63:	add    DWORD PTR [eax+0x21420],edx
  414e69:	inc    edx
  414e6a:	add    DWORD PTR [edx],ecx
  414e6c:	lods   al,BYTE PTR ds:[esi]
  414e6d:	add    DWORD PTR [eax],ecx
  414e6f:	add    eax,0x1079d830
  414e74:	inc    ecx
  414e75:	pusha  
  414e76:	xchg   esp,eax
  414e77:	add    BYTE PTR [ecx+0x1],al
  414e7a:	shl    BYTE PTR [eax+ecx*1-0x3fef743f],1
  414e81:	sbb    eax,0x40046c00
  414e86:	or     al,BYTE PTR [eax+ecx*1]
  414e89:	nop
  414e8a:	bound  eax,QWORD PTR [eax]
  414e8c:	add    BYTE PTR [eax+eiz*4],al
  414e8f:	or     BYTE PTR [esi],cl
  414e91:	daa    
  414e92:	mov    es,WORD PTR [eax+esi*1]
  414e95:	or     BYTE PTR [eax+eax*1],dl
  414e98:	or     BYTE PTR [ecx],al
  414e9a:	mov    al,ds:0x430e022
  414e9f:	add    al,BYTE PTR [ecx+0x41]
  414ea2:	and    BYTE PTR [ecx],al
  414ea4:	adc    DWORD PTR [eax],eax
  414ea6:	pusha  
  414ea7:	dec    ecx
  414ea8:	ror    DWORD PTR [ecx+eax*1],0x50
  414eac:	inc    ecx
  414ead:	inc    esp
  414eae:	adc    BYTE PTR [esi+0x24008808],al
  414eb4:	inc    edx
  414eb5:	inc    ebx
  414eb6:	add    BYTE PTR [eax],al
  414eb8:	and    DWORD PTR [ecx+ecx*8+0x8c08440],0x90600300
  414ec3:	inc    ecx
  414ec4:	and    al,0x50
  414ec6:	mov    BYTE PTR [eax+eax*1],dl
  414ec9:	add    BYTE PTR [esp+eax*1],al
  414ecc:	sub    BYTE PTR [edx+0x4],al
  414ecf:	add    BYTE PTR [eax+0xc800404],dl
  414ed5:	and    BYTE PTR [eax],cl
  414ed7:	(bad)  
  414ed8:	or     eax,DWORD PTR [eax]
  414eda:	or     BYTE PTR [eax],bl
  414edc:	add    BYTE PTR gs:[edx],al
  414edf:	inc    eax
  414ee0:	addr16 inc eax
  414ee2:	add    BYTE PTR [eax+0x19],bh
  414ee5:	mov    al,0x6
  414ee7:	xor    BYTE PTR [eax+0x0],ah
  414eea:	sub    al,0x52
  414eec:	adc    BYTE PTR [ecx],ah
  414eee:	inc    eax
  414eef:	or     al,0x26
  414ef1:	retf   
  414ef2:	inc    eax
  414ef3:	inc    esp
  414ef4:	mov    bl,0x43
  414ef6:	or     al,0x5
  414ef8:	mov    al,ds:0x1a20106
  414efd:	add    BYTE PTR [eax+eax*4],bh
  414f00:	add    BYTE PTR [edx],dl
  414f02:	add    al,BYTE PTR [eax+0x44]
  414f05:	rol    DWORD PTR [esp+eax*1],0x41
  414f09:	add    cl,BYTE PTR [eax]
  414f0b:	adc    BYTE PTR [ecx+0x47082100],al
  414f11:	xor    DWORD PTR [eax],eax
  414f13:	add    al,BYTE PTR [edx+0x0]
  414f16:	or     DWORD PTR [ecx+0x2],eax
  414f19:	and    DWORD PTR [ecx],ecx
  414f1b:	or     BYTE PTR [eax],cl
  414f1d:	add    BYTE PTR [eax+edx*1],0x43
  414f21:	add    al,0x81
  414f23:	add    BYTE PTR [eax],0x8
  414f26:	mov    al,0x12
  414f29:	add    DWORD PTR [edx+0x4181211],esp
  414f2f:	and    al,BYTE PTR [eax]
  414f31:	push   ebp
  414f32:	add    DWORD PTR [eax],ecx
  414f34:	add    BYTE PTR [esi],al
  414f36:	add    BYTE PTR [eax],al
  414f38:	add    DWORD PTR [ecx-0x7e],edx
  414f3b:	test   BYTE PTR [eax],ch
  414f3d:	or     ah,BYTE PTR [eax]
  414f3f:	or     DWORD PTR [edx],edx
  414f41:	add    al,0x0
  414f43:	add    al,BYTE PTR [edx]
  414f45:	add    DWORD PTR [eax],eax
  414f47:	and    DWORD PTR [ecx+0x0],ecx
  414f4a:	and    BYTE PTR ds:0x800014a0,0x62
  414f51:	xchg   esp,eax
  414f52:	add    BYTE PTR [ecx+0x0],bl
  414f55:	and    BYTE PTR [ecx],0x61
  414f58:	sub    BYTE PTR [ebp+0x9],0x10
  414f5c:	add    DWORD PTR [edx+ecx*1+0x8],eax
  414f60:	sbb    al,BYTE PTR [eax+eax*1]
  414f63:	movs   BYTE PTR es:[edi],BYTE PTR ds:[esi]
  414f64:	in     eax,0x0
  414f66:	adc    BYTE PTR [esp+eax*4+0x7a],al
  414f6a:	sbb    BYTE PTR [ecx],dh
  414f6c:	add    cl,BYTE PTR [eax]
  414f6e:	inc    edx
  414f6f:	inc    edx
  414f70:	fwait
  414f71:	and    BYTE PTR [eax],0x0
  414f74:	add    DWORD PTR [ebx+0x0],ecx
  414f77:	inc    eax
  414f78:	and    BYTE PTR [eax+eax*4],al
  414f7b:	add    BYTE PTR [edx+eax*2],cl
  414f7e:	and    al,0x4
  414f80:	or     DWORD PTR [eax],eax
  414f82:	add    esp,DWORD PTR [ecx+0x3]
  414f85:	add    BYTE PTR [eax+eax*4],ah
  414f88:	add    BYTE PTR [eax],al
  414f8a:	rol    BYTE PTR [eax],0xd0
  414f8d:	inc    eax
  414f8e:	or     al,0xc4
  414f90:	add    BYTE PTR [ecx+0x6d],bl
  414f93:	add    DWORD PTR [eax],esi
  414f95:	add    al,0x7
  414f97:	add    BYTE PTR [esp],al
  414f9a:	nop
  414f9b:	or     eax,DWORD PTR [eax]
  414f9d:	or     DWORD PTR [eax],edx
  414f9f:	adc    BYTE PTR [eax],0x0
  414fa2:	jo     0x414fe4
  414fa4:	or     BYTE PTR [ebx],al
  414fa6:	inc    edx
  414fa7:	mov    al,ds:0x42412008
  414fac:	xor    BYTE PTR [ecx],al
  414fae:	cmp    BYTE PTR [ecx],ah
  414fb0:	inc    esp
  414fb1:	and    ah,BYTE PTR [eax+0x0]
  414fb4:	xchg   esp,eax
  414fb5:	mov    al,ds:0x460059
  414fba:	and    al,0x1
  414fbc:	add    eax,0x10415028
  414fc1:	add    BYTE PTR [ecx+eax*1],dl
  414fc4:	and    BYTE PTR [eax],cl
  414fc6:	add    al,BYTE PTR [eax+0x8]
  414fc9:	add    BYTE PTR [eax],cl
  414fcb:	inc    eax
  414fcc:	and    al,0x40
  414fce:	add    BYTE PTR [ebp+0x18],0x88
  414fd2:	adc    BYTE PTR [esp+edx*1],dl
  414fd5:	adc    BYTE PTR [eax],al
  414fd7:	add    DWORD PTR [ebx],edx
  414fd9:	inc    eax
  414fda:	add    DWORD PTR [eax+eax*1],eax
  414fdd:	add    BYTE PTR [edx+0x8],al
  414fe0:	and    al,0x40
  414fe2:	add    cl,al
  414fe4:	cdq    
  414fe5:	dec    ecx
  414fe6:	and    BYTE PTR [edx],al
  414fe8:	add    BYTE PTR [eax],al
  414fea:	fadd   QWORD PTR [eax]
  414fec:	or     ah,dl
  414fee:	and    BYTE PTR [eax],ch
  414ff0:	add    BYTE PTR [edx+edx*1-0x5e],al
  414ff4:	add    cl,BYTE PTR [eax]
  414ff6:	add    BYTE PTR [eax],dl
  414ff8:	dec    ecx
  414ff9:	xchg   BYTE PTR [esi+0x30009603],al
  414fff:	add    al,0x20
  415001:	add    BYTE PTR [ecx+0x44406140],al
  415007:	add    ah,al
  415009:	or     al,0x0
  41500b:	add    BYTE PTR [esp+ecx*2],al
  41500e:	sub    BYTE PTR [eax],al
  415010:	push   edi
  415011:	sbb    BYTE PTR [ecx],al
  415013:	test   cl,al
  415015:	inc    eax
  415016:	sbb    BYTE PTR [edx+eax*1],dl
  415019:	rol    DWORD PTR [eax],1
  41501b:	add    al,0xa
  41501d:	sub    BYTE PTR [eax],al
  41501f:	add    BYTE PTR [ecx+0x20],ah
  415022:	xchg   ebp,eax
  415023:	add    BYTE PTR [eax],al
  415025:	add    al,0x0
  415027:	xchg   BYTE PTR [eax],al
  415029:	sbb    al,0x40
  41502b:	adc    BYTE PTR [eax],cl
  41502d:	bound  edx,QWORD PTR [eax+0x0]
  415030:	add    BYTE PTR [edx],dl
  415032:	sbb    DWORD PTR [eax],eax
  415034:	and    al,0x0
  415036:	add    BYTE PTR [ecx+0x1525a142],cl
  41503c:	add    DWORD PTR [esp+ecx*1-0x71feff8f],edx
  415043:	popa   
  415044:	enter  0x4408,0xe4
  415048:	add    BYTE PTR [eax],al
  41504a:	inc    ecx
  41504b:	add    BYTE PTR [ebx+ecx*8+0x11],dh
  41504f:	xor    BYTE PTR ds:0x5d418480,0x14
  415056:	add    BYTE PTR [ecx],cl
  415058:	adc    BYTE PTR ds:0x494a0204,dl
  41505e:	add    BYTE PTR [eax+eax*1+0x500009b0],al
  415065:	rol    BYTE PTR [eax],0xa2
  415068:	and    BYTE PTR [eax+eiz*1],dl
  41506b:	add    BYTE PTR ds:0x9000060,al
  415071:	add    BYTE PTR [eax],dl
  415073:	inc    ebx
  415074:	sub    al,BYTE PTR [eax+0x41]
  415077:	or     ah,BYTE PTR [edx]
  415079:	add    al,BYTE PTR [eax+edx*1]
  41507c:	inc    esp
  41507d:	add    eax,0xc20c0a
  415082:	inc    eax
  415083:	in     eax,0x91
  415085:	xor    DWORD PTR [eax],eax
  415087:	inc    ebp
  415088:	mov    al,ds:0x2a484f
  41508d:	add    BYTE PTR [edx+0x20],0x0
  415091:	or     al,0xa0
  415093:	add    dh,BYTE PTR [eax+0x511880a0]
  415099:	or     BYTE PTR [eax],ch
  41509b:	add    BYTE PTR [eax+0x28300000],dl
  4150a1:	add    BYTE PTR [eax+0x300069],al
  4150a7:	add    DWORD PTR [ecx],eax
  4150a9:	xor    BYTE PTR [edx],0x0
  4150ac:	add    ebx,eax
  4150ae:	add    BYTE PTR [ecx+0x11],al
  4150b1:	add    al,0x74
  4150b3:	dec    ecx
  4150b4:	push   es
  4150b5:	mov    al,0x8
  4150b7:	add    DWORD PTR [eax],ecx
  4150b9:	and    BYTE PTR [eax],ah
  4150bb:	add    DWORD PTR [ebx+0x11a5ca44],eax
  4150c1:	add    dh,cl
  4150c3:	add    al,0x2
  4150c5:	and    BYTE PTR [eax],al
  4150c7:	adc    DWORD PTR [eax+eiz*2],ecx
  4150ca:	add    BYTE PTR [ecx],ah
  4150cc:	add    al,BYTE PTR [eax+0x0]
  4150cf:	add    BYTE PTR [ecx+0x40],al
  4150d2:	inc    ebx
  4150d3:	add    BYTE PTR [eax],0x40
  4150d6:	add    BYTE PTR [ecx+eax*4],0x16
  4150da:	or     BYTE PTR [ecx+eax*2],ch
  4150dd:	inc    ecx
  4150de:	add    BYTE PTR [eax+0x44205556],al
  4150e4:	add    dl,BYTE PTR [eax+0x530c1204]
  4150ea:	add    BYTE PTR [ecx+ecx*2],al
  4150ed:	add    al,BYTE PTR [ecx+0x50]
  4150f0:	pusha  
  4150f1:	or     BYTE PTR [edx+0x24],dh
  4150f4:	add    BYTE PTR [eax+eax*1-0x3e],al
  4150f8:	add    BYTE PTR [ecx],0x52
  4150fb:	and    BYTE PTR [eax],cl
  4150fd:	sbb    al,0x0
  4150ff:	pusha  
  415100:	xor    al,BYTE PTR [eax]
  415102:	sub    al,BYTE PTR [eax+0x202a1004]
  415108:	adc    al,0x0
  41510a:	rol    DWORD PTR [edx+0x14],0x0
  41510e:	and    BYTE PTR [eax+esi*4+0x0],0x89
  415113:	and    BYTE PTR [ecx+eax*2],0x69
  415117:	adc    esp,DWORD PTR [eax]
  415119:	or     al,0x4
  41511b:	add    BYTE PTR [eax+0x2],cl
  41511e:	or     DWORD PTR [ecx+0x5b],ecx
  415121:	add    BYTE PTR [eax],al
  415123:	add    BYTE PTR [eax],cl
  415125:	add    BYTE PTR [eax+0x14],ah
  415128:	adc    al,BYTE PTR [edx+0x434472]
  41512e:	adc    BYTE PTR [esi],al
  415130:	add    BYTE PTR [eax],al
  415132:	add    al,0xc8
  415134:	adc    al,BYTE PTR [eax]
  415136:	add    BYTE PTR [ecx],ah
  415138:	mov    dl,0x22
  41513a:	movs   DWORD PTR es:[edi],DWORD PTR ds:[esi]
  41513b:	mov    WORD PTR [ecx+0x0],?
  41513e:	xchg   BYTE PTR [eax-0x7f],ah
  415141:	add    BYTE PTR [eax],al
  415143:	or     BYTE PTR [ecx+0x220402],dl
  415149:	add    BYTE PTR [eax-0x3ef9bdfb],al
  41514f:	and    BYTE PTR [ecx],dl
  415151:	or     BYTE PTR [eax],bh
  415153:	test   BYTE PTR [eax],bl
  415155:	sbb    BYTE PTR [eax],ah
  415157:	inc    ebp
  415158:	dec    ecx
  415159:	add    BYTE PTR [edi],al
  41515b:	add    al,0x12
  41515d:	inc    esi
  41515e:	mov    DWORD PTR [esi+0x10],edx
  415161:	add    ah,BYTE PTR [esi]
  415163:	inc    edx
  415164:	or     BYTE PTR [ecx+0x22],dl
  415167:	gs push 0x4000004
  41516d:	push   es
  41516e:	and    DWORD PTR [eax-0x77],0x43240e
  415175:	or     BYTE PTR [esi-0x7f],dl
  415178:	or     BYTE PTR [eax],0x2
  41517b:	push   es
  41517c:	add    DWORD PTR [edx+0x0],eax
  41517f:	test   BYTE PTR [ecx],al
  415181:	imul   eax,DWORD PTR [esi],0x40
  415184:	add    al,0x8
  415186:	and    DWORD PTR [edx],eax
  415188:	push   cs
  415189:	add    BYTE PTR [eax],cl
  41518b:	loope  0x415152
  41518d:	mov    BYTE PTR [eax+eiz*2],al
  415190:	adc    BYTE PTR [eax],bl
  415192:	add    BYTE PTR [eax],al
  415194:	inc    esi
  415195:	or     DWORD PTR [eax+ebx*4],ecx
  415198:	add    BYTE PTR ds:0x25080001,al
  41519e:	out    0x48,al
  4151a0:	add    BYTE PTR [eax],al
  4151a2:	or     BYTE PTR [edx-0x80],al
  4151a5:	rol    DWORD PTR [edi+0x1000a80],0xa6
  4151ac:	adc    BYTE PTR [eax],al
  4151ae:	test   DWORD PTR [eax+eiz*1],eax
  4151b1:	add    al,0x5
  4151b3:	mov    eax,ds:0xab018000
  4151b8:	add    DWORD PTR [edx],edx
  4151ba:	and    dl,BYTE PTR [eax]
  4151bc:	inc    esi
  4151bd:	sbb    BYTE PTR [edx+0x21],ch
  4151c0:	add    DWORD PTR [eax+0x10220000],esi
  4151c6:	jno    0x41514e
  4151c8:	add    BYTE PTR [eax],0x81
  4151cb:	add    DWORD PTR [ecx],eax
  4151cd:	add    DWORD PTR [ecx],eax
  4151cf:	adc    BYTE PTR [eax+0xb],ah
  4151d2:	adc    al,BYTE PTR ds:0x400219
  4151d8:	add    BYTE PTR [eax],0x4
  4151db:	add    DWORD PTR [ebx],ebp
  4151dd:	pushf  
  4151de:	add    ecx,eax
  4151e0:	add    DWORD PTR [ebx+0x10800910],edx
  4151e6:	adc    BYTE PTR gs:[edx],al
  4151e9:	shr    DWORD PTR [ecx-0x796bef3f],0x10
  4151f0:	add    BYTE PTR [eax],al
  4151f2:	or     DWORD PTR [esi],0x13014900
  4151f8:	inc    eax
  4151f9:	movs   BYTE PTR es:[edi],BYTE PTR ds:[esi]
  4151fa:	push   es
  4151fb:	and    eax,0x406
  415200:	add    BYTE PTR [ecx],al
  415202:	add    BYTE PTR [eax],dh
  415204:	inc    esi
  415205:	add    BYTE PTR [edx],al
  415207:	inc    eax
  415208:	inc    eax
  415209:	add    DWORD PTR [eax],esi
  41520b:	mov    WORD PTR [eax+eax*2],es
  41520e:	or     BYTE PTR [eax],al
  415210:	add    BYTE PTR [edx],ah
  415212:	mov    al,ds:0x446008c
  415217:	or     BYTE PTR [esp+eax*2],0x40
  41521b:	rol    BYTE PTR [eax+0x49],0x0
  41521f:	inc    eax
  415220:	sub    BYTE PTR [ecx+0x18],al
  415223:	and    eax,0x28017147
  415228:	inc    eax
  415229:	mov    BYTE PTR [eax],al
  41522b:	sbb    DWORD PTR [eax+0x210023e1],0x6000088
  415235:	xor    BYTE PTR [eax+eax*4],0xb
  415239:	dec    edx
  41523a:	test   BYTE PTR [ebx],al
  41523c:	add    DWORD PTR [eax],eax
  41523e:	add    DWORD PTR [eax],eax
  415240:	dec    eax
  415241:	dec    ecx
  415242:	xor    edi,ecx
  415244:	add    al,BYTE PTR [ecx+0xc]
  415247:	adc    BYTE PTR [edx+0x50002284],al
  41524d:	and    BYTE PTR [eax],al
  41524f:	and    BYTE PTR [ecx+0x0],dl
  415252:	add    BYTE PTR [edx+0x50],ah
  415255:	add    edx,eax
  415257:	add    BYTE PTR [edx],al
  415259:	or     BYTE PTR [eax],al
  41525b:	or     al,0x43
  41525d:	add    al,bl
  41525f:	mov    al,ds:0x8000150d
  415264:	add    DWORD PTR [eax],0x404c5010
  41526a:	and    BYTE PTR [eax+0x20],al
  41526d:	or     DWORD PTR [eax],ebx
  41526f:	adc    eax,DWORD PTR [eax+0x0]
  415272:	or     BYTE PTR fs:[eax+eiz*1],cl
  415276:	add    eax,0x40a8100
  41527b:	mov    BYTE PTR [eax+0x10080500],bl
  415281:	add    BYTE PTR [ebx],bl
  415283:	add    BYTE PTR [eax],dl
  415285:	or     BYTE PTR [eax],cl
  415287:	add    BYTE PTR [edx],al
  415289:	add    BYTE PTR [eax],bh
  41528b:	add    BYTE PTR [edx],ah
  41528d:	add    BYTE PTR [ecx+0x40000],cl
  415293:	add    al,BYTE PTR [eax]
  415295:	test   BYTE PTR [eax],al
  415297:	inc    eax
  415298:	adc    al,BYTE PTR [ecx+0x5a]
  41529b:	push   esi
  41529c:	add    dl,dl
  41529e:	and    BYTE PTR [eax],al
  4152a0:	add    DWORD PTR [ecx+0x908d18d],eax
  4152a6:	mov    ds:0x431101a8,al
  4152ab:	add    DWORD PTR [eax+0x8],eax
  4152ae:	add    BYTE PTR [eax],al
  4152b0:	mov    dl,0x40
  4152b2:	push   ecx
  4152b3:	or     BYTE PTR [ecx],al
  4152b5:	xchg   BYTE PTR [eax],ah
  4152b7:	xor    DWORD PTR [eax],eax
  4152b9:	add    BYTE PTR [ecx],al
  4152bb:	add    al,0x32
  4152bd:	sub    BYTE PTR [eax+ecx*1+0x41],cl
  4152c1:	add    BYTE PTR [esi],ah
  4152c3:	and    BYTE PTR [edx],al
  4152c5:	add    BYTE PTR [eax+0x22a00061],al
  4152cb:	or     BYTE PTR [eax+0x0],al
  4152d1:	add    BYTE PTR [eax],al
  4152d3:	and    BYTE PTR [eax],cl
  4152d5:	push   ss
  4152d6:	add    BYTE PTR [eax],al
  4152d8:	sbb    BYTE PTR [eax],al
  4152da:	or     BYTE PTR [edx],dh
  4152dc:	push   eax
  4152dd:	add    BYTE PTR [ebx+0x0],ch
  4152e0:	mov    BYTE PTR [ecx],al
  4152e2:	or     BYTE PTR [eax],dl
  4152e4:	add    BYTE PTR [edx],al
  4152e6:	test   al,0x84
  4152e8:	add    BYTE PTR [eax],ah
  4152ea:	adc    DWORD PTR [eax],edx
  4152ec:	cmp    BYTE PTR [eax+eax*1+0x8900],ah
  4152f3:	add    eax,DWORD PTR [edx]
  4152f5:	add    BYTE PTR [eax],al
  4152f7:	inc    edx
  4152f8:	adc    BYTE PTR [edx+0x11000061],al
  4152fe:	add    BYTE PTR [eax],al
  415300:	inc    ebp
  415301:	xor    BYTE PTR [edx],al
  415303:	test   BYTE PTR [eax+0x50404808],al
  415309:	inc    eax
  41530a:	xor    BYTE PTR [eax+eax*1],0x0
  41530e:	inc    ebp
  41530f:	or     BYTE PTR [esi],cl
  415311:	fs pop edx
  415313:	pop    esp
  415314:	movs   BYTE PTR es:[edi],BYTE PTR ds:[esi]
  415315:	add    dl,BYTE PTR [eax+0x41200441]
  41531b:	inc    eax
  41531c:	adc    ah,al
  41531e:	add    cl,BYTE PTR [eax+0x24]
  415321:	and    BYTE PTR [eax+0xd],cl
  415324:	xchg   ecx,eax
  415325:	add    eax,DWORD PTR [ebx+0x20031848]
  41532b:	add    ah,dl
  41532d:	push   0x14c00041
  415332:	add    al,0x0
  415334:	rol    BYTE PTR [ecx],0x0
  415337:	add    al,cl
  415339:	add    al,dl
  41533b:	and    ah,BYTE PTR [ecx]
  41533d:	and    BYTE PTR [esi],al
  41533f:	add    al,BYTE PTR [eax]
  415341:	sbb    BYTE PTR [eax-0x5fbffc00],al
  415347:	or     al,0x4
  415349:	add    BYTE PTR [edx+eax*1-0x6beffec5],al
  415350:	adc    BYTE PTR [ecx],ah
  415352:	inc    eax
  415353:	add    DWORD PTR [ecx+0x281e02],0x13
  41535a:	add    DWORD PTR [eax+0x61811180],ebx
  415360:	add    al,BYTE PTR [ecx+0x0]
  415363:	push   ecx
  415364:	ret    
  415365:	and    BYTE PTR [edx+edx*1],al
  415368:	add    BYTE PTR [eax-0x7f57c000],ah
  41536e:	or     eax,0x28004400
  415373:	push   cs
  415374:	and    DWORD PTR [eax+eax*8],ebp
  415377:	mov    al,ds:0x21088a10
  41537c:	nop
  41537d:	add    BYTE PTR [eax],ah
  41537f:	js     0x4153a1
  415381:	or     ecx,DWORD PTR [eax+0x52]
  415384:	add    BYTE PTR [eax],al
  415386:	data16 add BYTE PTR [ecx],al
  415389:	add    BYTE PTR [eax+eax*1-0x6a],al
  41538d:	or     al,BYTE PTR [eax]
  41538f:	add    BYTE PTR [eax+edx*1],al
  415392:	push   esp
  415393:	add    BYTE PTR [ecx],al
  415395:	inc    ecx
  415396:	add    al,BYTE PTR [edx]
  415398:	and    BYTE PTR [ecx+0x20810e44],cl
  41539e:	or     BYTE PTR [ebx],al
  4153a0:	add    BYTE PTR [eax],al
  4153a2:	add    dl,al
  4153a4:	add    al,0x60
  4153a6:	add    BYTE PTR [ecx],cl
  4153a8:	rol    DWORD PTR [eax+edx*1],0x0
  4153ac:	add    BYTE PTR [ebp+0x50],ah
  4153af:	or     BYTE PTR [eax],0x0
  4153b2:	add    BYTE PTR [eax],al
  4153b4:	add    BYTE PTR [eax+eax*1-0x2d],cl
  4153b8:	add    eax,0x43c0c302
  4153bd:	add    BYTE PTR [eax],ah
  4153bf:	add    BYTE PTR [eax],al
  4153c1:	sub    BYTE PTR [ecx],al
  4153c3:	inc    ecx
  4153c4:	add    al,0x8a
  4153c6:	and    dl,BYTE PTR [eax+edx*2]
  4153c9:	or     al,0x4c
  4153cb:	or     ah,BYTE PTR [ecx]
  4153cd:	es pusha 
  4153cf:	sub    al,0x0
  4153d1:	pop    eax
  4153d2:	xor    BYTE PTR [eax],ch
  4153d4:	adc    eax,0x25809104
  4153d9:	adc    ah,BYTE PTR [eax]
  4153db:	add    BYTE PTR [eax],al
  4153dd:	dec    ebp
  4153de:	add    ah,BYTE PTR [edx]
  4153e0:	or     BYTE PTR [eax+eax*2],al
  4153e3:	or     BYTE PTR [edi-0x7b],ah
  4153e6:	cmp    BYTE PTR [ecx+eax*4],cl
  4153e9:	add    BYTE PTR [eax],al
  4153eb:	inc    ecx
  4153ec:	add    BYTE PTR [ecx],al
  4153ee:	loopne 0x415461
  4153f0:	add    DWORD PTR [edx+0x1d000000],ebx
  4153f6:	add    BYTE PTR [ecx],al
  4153f8:	mov    BYTE PTR [ecx-0x5b],al
  4153fb:	lds    esi,FWORD PTR [ecx]
  4153fd:	and    BYTE PTR [eax],al
  4153ff:	or     cl,BYTE PTR [ebx]
  415401:	add    BYTE PTR [eax+ecx*1+0x19205504],al
  415408:	inc    eax
  415409:	dec    ecx
  41540a:	das    
  41540b:	dec    eax
  41540c:	add    BYTE PTR [eax+eax*2+0x8],dl
  415410:	and    DWORD PTR [ecx+0x0],eax
  415413:	loopne 0x4153b9
  415415:	add    BYTE PTR [edx],cl
  415417:	adc    DWORD PTR [ebp-0x70],eax
  41541a:	add    dl,BYTE PTR [edx]
  41541c:	add    al,al
  41541e:	add    BYTE PTR [esi],bl
  415420:	add    DWORD PTR [eax],eax
  415422:	adc    BYTE PTR [eax],dl
  415424:	inc    ecx
  415425:	add    BYTE PTR [eax],cl
  415427:	add    al,0x0
  415429:	or     al,0x20
  41542b:	adc    al,0xa0
  41542d:	add    BYTE PTR [eax+esi*1+0x1818010],cl
  415434:	push   eax
  415435:	adc    bl,BYTE PTR [ecx+0xa]
  415438:	and    BYTE PTR [eax],dh
  41543a:	add    al,0x0
  41543c:	and    DWORD PTR [eax+0x14842220],eax
  415442:	shl    BYTE PTR [eax+eax*1],0x54
  415446:	adc    BYTE PTR [edx],al
  415448:	or     DWORD PTR [esp+eax*1],ecx
  41544b:	add    BYTE PTR [eax],al
  41544d:	and    DWORD PTR [edx+0x44130800],0x13
  415454:	xor    eax,0x808091
  415459:	add    al,BYTE PTR [eax+0x1010202]
  41545f:	add    BYTE PTR [ebx-0x6f],al
  415462:	add    al,0x18
  415464:	inc    eax
  415465:	add    BYTE PTR [eax+0x0],cl
  415468:	add    BYTE PTR [ecx],ah
  41546a:	add    BYTE PTR [ecx+0x190e02],al
  415470:	add    BYTE PTR [eax+0x58],al
  415473:	dec    ecx
  415474:	add    al,0xa
  415476:	bound  eax,QWORD PTR [eax+0xc20c800]
  41547c:	data16 mov al,ds:0x81044149
  415482:	pushw  es
  415484:	add    eax,DWORD PTR [eax]
  415486:	add    BYTE PTR cs:[eax],0xc
  41548a:	and    DWORD PTR [eax],edx
  41548c:	add    DWORD PTR [edi+0x10],edx
  41548f:	inc    ecx
  415490:	add    DWORD PTR [eax],ebx
  415492:	add    BYTE PTR [eax],cl
  415494:	xor    al,BYTE PTR [eax+0x0]
  415497:	add    BYTE PTR [edx],al
  415499:	add    BYTE PTR [ecx],dh
  41549b:	adc    al,0xe4
  41549d:	sbb    al,0x0
  41549f:	add    BYTE PTR [eax],ah
  4154a1:	adc    DWORD PTR [edx],0x81c05601
  4154a7:	xchg   BYTE PTR [eax+0x20],al
  4154aa:	add    eax,0xa000300
  4154af:	or     cl,ah
  4154b1:	add    BYTE PTR [eax],al
  4154b3:	add    BYTE PTR [eax-0x7ffced72],al
  4154b9:	add    cl,BYTE PTR [eax+eax*1]
  4154bc:	add    BYTE PTR [ecx+ecx*2-0x73feb2e0],al
  4154c3:	add    cl,BYTE PTR [eax+ecx*2+0x2]
  4154c7:	add    BYTE PTR [edx],al
  4154c9:	add    bl,BYTE PTR [edx+0x10]
  4154cc:	adc    al,0x6
  4154ce:	add    DWORD PTR [eax+0x2c],eax
  4154d1:	add    BYTE PTR [ecx+0x28100062],cl
  4154d7:	add    BYTE PTR [esi+edx*2],al
  4154da:	inc    ecx
  4154db:	add    al,BYTE PTR [eax+edx*1]
  4154de:	adc    BYTE PTR [eax+0x0],cl
  4154e4:	add    BYTE PTR [ebx-0x7ebfffff],0x5
  4154eb:	adc    BYTE PTR [eax+eax*1],dl
  4154ee:	or     eax,0x28000021
  4154f3:	mov    ebx,0x84000005
  4154f8:	adc    BYTE PTR [eax+0x2],cl
  4154fb:	iret   
  4154fc:	add    ch,BYTE PTR [eax+0x14680]
  415502:	and    BYTE PTR [eax+0x0],al
  415505:	dec    eax
  415506:	adc    BYTE PTR [esi+0x1000e0],cl
  41550c:	add    BYTE PTR [eax],al
  41550e:	sbb    esp,DWORD PTR [esp+eax*2]
  415511:	enter  0x60,0x8a
  415515:	mov    WORD PTR [eax],es
  415517:	add    al,0x0
  415519:	inc    eax
  41551a:	iret   
  41551b:	and    BYTE PTR [esp+eax*1],0x2a
  41551f:	add    cl,ah
  415521:	add    eax,0x2001070
  415526:	xor    BYTE PTR [edx],0x4
  415529:	dec    eax
  41552a:	and    BYTE PTR [ecx+0x4000428],al
  415530:	std    
  415531:	jne    0x41557d
  415533:	(bad)  
  415534:	cs xor eax,0x95867300
  41553a:	(bad)  
  41553c:	xchg   edx,eax
  41553d:	das    
  41553e:	fnstcw WORD PTR [edx+0x64d78a52]
  415544:	adc    BYTE PTR [edx],cl
  415546:	cmps   DWORD PTR ds:[esi],DWORD PTR es:[edi]
  415547:	push   esi
  415548:	jns    0x415596
  41554a:	call   0xe6c907da
  41554f:	xchg   edi,eax
  415550:	sub    al,0xa0
  415552:	and    eax,0x63c7eb70
  415557:	adc    DWORD PTR [edx+0x1f],edi
  41555a:	cwde   
  41555b:	aas    
  41555c:	(bad)  
  41555d:	mul    ebx
  41555f:	add    al,0x8a
  415561:	fbld   TBYTE PTR [ebx-0x6654a9b9]
  415567:	push   ebx
  415568:	or     DWORD PTR [ebp-0x79eeae23],ebp
  41556e:	push   esi
  41556f:	inc    ebx
  415570:	or     ch,BYTE PTR [ebp-0x7cac4e9b]
  415576:	loope  0x415507
  415578:	pop    ds
  415579:	lods   eax,DWORD PTR ds:[esi]
  41557a:	adc    DWORD PTR gs:[esi-0xd],edx
  41557e:	mov    bh,0x7b
  415580:	push   edx
  415581:	in     al,0xd0
  415583:	pop    edi
  415584:	outs   dx,BYTE PTR ds:[esi]
  415585:	sti    
  415586:	stos   DWORD PTR es:[edi],eax
  415587:	or     BYTE PTR [esi+0x1b],0x64
  41558b:	pop    ecx
  41558c:	data16 sbb al,0xb4
  41558f:	pop    edi
  415590:	push   ds
  415591:	pop    ecx
  415592:	mov    ah,0x5f
  415594:	pushf  
  415595:	fistp  QWORD PTR [eax]
  415597:	pop    edi
  415598:	leave  
  415599:	mov    esp,DWORD PTR [ebp-0x1e]
  41559c:	out    dx,al
  41559d:	sar    BYTE PTR [eax],0xdb
  4155a0:	test   BYTE PTR [eax-0x48b6c5bd],0x79
  4155a7:	push   ebp
  4155a8:	loope  0x4155a7
  4155aa:	sub    ah,ah
  4155ac:	fsubr  st(1),st
  4155ae:	cmp    al,0x32
  4155b0:	push   edx
  4155b1:	mov    bl,BYTE PTR [ebp+0x9]
  4155b4:	push   eax
  4155b5:	xchg   edi,eax
  4155b6:	and    DWORD PTR [esi+0x13],ebp
  4155b9:	retf   
  4155ba:	mov    ss,WORD PTR [eax+0x15afd5f0]
  4155c0:	ins    BYTE PTR es:[edi],dx
  4155c1:	int    0x95
  4155c3:	test   DWORD PTR ds:0xfaea251c,ecx
  4155c9:	mov    eax,ds:0x7fcb8cf2
  4155ce:	inc    ebx
  4155cf:	adc    DWORD PTR ds:0x2009b1ca,ecx
  4155d5:	sub    DWORD PTR [ecx+edx*1+0x3d],ebp
  4155d9:	mov    cl,0x45
  4155db:	cli    
  4155dc:	sbb    al,0xad
  4155de:	imul   edx,DWORD PTR [ecx],0x1163b713
  4155e4:	jecxz  0x415582
  4155e6:	inc    ebx
  4155e7:	adc    DWORD PTR [edi],ebx
  4155e9:	lods   eax,DWORD PTR ds:[esi]
  4155ea:	leave  
  4155eb:	push   cs
  4155ec:	(bad)  
  4155ed:	js     0x415626
  4155ef:	cmp    esp,DWORD PTR [ebx]
  4155f1:	lods   eax,DWORD PTR ds:[esi]
  4155f2:	ins    DWORD PTR es:[edi],dx
  4155f3:	push   cs
  4155f4:	sbb    eax,0x6f2969a9
  4155f9:	mov    edx,0xbd061164
  4155fe:	pusha  
  4155ff:	dec    eax
  415600:	push   ss
  415601:	std    
  415602:	cld    
  415603:	xor    esi,ebp
  415605:	lods   al,BYTE PTR ds:[esi]
  415606:	loop   0x41566d
  415608:	sti    
  415609:	outs   dx,DWORD PTR ds:[esi]
  41560a:	xchg   ebp,eax
  41560b:	jmp    0x41562a
  41560d:	lods   eax,DWORD PTR ds:[esi]
  41560e:	push   ebp
  41560f:	pop    es
  415610:	xor    BYTE PTR [ebp+0x63],0x65
  415614:	and    ebp,DWORD PTR [ebp-0x62d8f173]
  41561a:	addr16 popa 
  41561c:	inc    edi
  41561d:	fbld   TBYTE PTR [edi+0x9]
  415620:	(bad)  
  415621:	or     edi,DWORD PTR [edx-0x4a52dff1]
  415627:	adc    ebp,DWORD PTR ds:0x8cfb3db1
  41562d:	jg     0x415696
  41562f:	adc    DWORD PTR [edi],ebx
  415631:	lods   eax,DWORD PTR ds:[esi]
  415632:	adc    DWORD PTR [ecx-0x2b],edx
  415635:	jnp    0x41569c
  415637:	in     eax,0xee
  415639:	xor    BYTE PTR [edi],0xc7
  41563c:	add    al,0x81
  41563e:	sti    
  41563f:	popa   
  415640:	rcr    ecx,cl
  415642:	sbb    esp,DWORD PTR ds:0xe42ceb55
  415648:	sbb    eax,0x381b2db1
  41564d:	stos   BYTE PTR es:[edi],al
  41564e:	imul   edx,DWORD PTR [ecx],0x1161811f
  415654:	jle    0x415667
  415656:	mov    WORD PTR ds:0x1eafe41b,?
  41565c:	mov    bh,0xcf
  41565e:	dec    ebx
  41565f:	and    DWORD PTR [edi+0x4c615b01],ebx
  415665:	xchg   edi,eax
  415666:	cmp    eax,0x3dfdce11
  41566b:	inc    eax
  41566c:	dec    ecx
  41566d:	stos   BYTE PTR es:[edi],al
  41566e:	mov    ebp,0x68fd20d9
  415673:	adc    DWORD PTR [ecx],esp
  415675:	movs   DWORD PTR es:[edi],DWORD PTR ds:[esi]
  415676:	ins    DWORD PTR es:[edi],dx
  415677:	add    DWORD PTR [ebx+ebp*4-0x73],esi
  41567b:	sti    
  41567c:	fdiv   DWORD PTR [eax-0x67cf8ff7]
  415682:	adc    DWORD PTR [bx+si],esp
  415685:	lods   eax,DWORD PTR ds:[esi]
  415686:	jno    0x41569d
  415688:	icebp  
  415689:	mov    ds:0xcb093b90,al
  41568e:	add    ebp,ebp
  415690:	and    BYTE PTR ds:0xb13d116c,ah
  415696:	xor    eax,0x66a1f8fb
  41569b:	adc    ebx,ecx
  41569d:	jg     0x4156f2
  41569f:	adc    DWORD PTR [edi],ebx
  4156a1:	sub    dh,BYTE PTR [ecx+eax*2-0x3802302]
  4156a8:	test   eax,0x2ee43d8b
  4156ad:	adc    BYTE PTR [edi-0x5b],0x12
  4156b1:	cmp    eax,edi
  4156b3:	das    
  4156b4:	push   ecx
  4156b5:	sub    eax,DWORD PTR [ebp-0x1b]
  4156b8:	(bad)  
  4156b9:	loopne 0x415713
  4156bb:	cmp    eax,0x221d4bd3
  4156c0:	imul   ebx,DWORD PTR [esi-0x5488b467],0x51
  4156c7:	lock or BYTE PTR [edx-0x67c78fdf],dh
  4156ce:	push   0x34a51211
  4156d3:	inc    ecx
  4156d4:	fsub   DWORD PTR [ecx]
  4156d6:	mov    dh,0x71
  4156d8:	mov    fs,WORD PTR [eax-0x2f1c3aa7]
  4156de:	push   cs
  4156df:	lock pushf 
  4156e1:	mov    eax,ds:0xa0ae0d5d
  4156e6:	pop    ecx
  4156e7:	add    eax,0xf051aaf3
  4156ec:	dec    BYTE PTR [eax+0x28affd57]
  4156f2:	push   esp
  4156f3:	cmp    ah,0xac
  4156f6:	inc    ecx
  4156f7:	push   es
  4156f8:	ins    DWORD PTR es:[edi],dx
  4156f9:	lods   eax,DWORD PTR ds:[esi]
  4156fa:	or     eax,0x8fd523e4
  4156ff:	fistp  QWORD PTR [esi+ebp*4-0x72078ebf]
  415706:	adc    DWORD PTR [bp+di],eax
  415709:	fwait
  41570a:	push   esp
  41570b:	adc    DWORD PTR [edi],0xf2f0d59a
  415711:	cli    
  415712:	popa   
  415713:	mov    ebp,0xff58296c
  415718:	pop    ds
  415719:	lods   eax,DWORD PTR ds:[esi]
  41571a:	lds    ecx,FWORD PTR ds:0xd651c6d
  415720:	pop    ds
  415721:	lods   al,BYTE PTR ds:[esi]
  415722:	sbb    eax,0xf5b311c3
  415727:	fistp  DWORD PTR [esi]
  415729:	ins    DWORD PTR es:[edi],dx
  41572a:	and    BYTE PTR [ecx],dl
  41572c:	and    eax,0x999c1ad
  415731:	mov    esp,0x1b5ce965
  415736:	ret    
  415737:	mov    bl,0x48
  415739:	mov    ebx,0xad221485
  41573e:	rcr    DWORD PTR [ecx-0x169a33f7],0xda
  415745:	dec    esi
  415746:	ret    
  415747:	out    0x48,eax
  415749:	mov    ebx,0xad221185
  41574e:	rcr    ecx,0x9
  415751:	fsub   QWORD PTR [ebp-0x17]
  415754:	cs popf 
  415756:	cmp    ebx,edi
  415758:	jecxz  0x41572a
  41575a:	bound  esp,QWORD PTR [eax]
  41575c:	jmp    0x4156f8
  41575e:	and    al,0xc0
  415760:	repz push 0x5c
  415763:	mov    cl,0xcb
  415765:	mov    ebx,0x9d5e0531
  41576a:	inc    ecx
  41576b:	mov    ebx,0xd02456fb
  415770:	sub    ebx,edi
  415772:	mov    cl,0xe1
  415774:	pop    esi
  415775:	mov    ebp,0xfb8a3b38
  41577a:	xchg   BYTE PTR ds:0x7071cf48,bh
  415780:	jmp    0x41571c
  415782:	cmp    bh,dh
  415784:	xor    ebx,DWORD PTR [eax-0x3a91ff5c]
  41578a:	cmp    BYTE PTR [ecx],0x1f
  41578d:	lods   eax,DWORD PTR ds:[esi]
  41578e:	in     eax,0x10
  415790:	sub    al,BYTE PTR [ecx+0x435b730]
  415796:	int3   
  415797:	or     ecx,DWORD PTR [esi]
  415799:	and    eax,0x81bc413e
  41579e:	mov    WORD PTR [ecx+0x7f],fs
  4157a1:	aad    0x63
  4157a3:	daa    
  4157a4:	cmc    
  4157a5:	cmps   DWORD PTR ds:[esi],DWORD PTR es:[edi]
  4157a6:	add    eax,0x3198dae5
  4157ab:	fistp  WORD PTR [esi-0x1f]
  4157ae:	ja     0x41578c
  4157b0:	jmp    0x4157ad
  4157b2:	xor    DWORD PTR ds:0xf3987833,esp
  4157b8:	push   ss
  4157b9:	add    DWORD PTR [edx+0x7b6c353d],edx
  4157bf:	or     bl,ch
  4157c1:	fisub  DWORD PTR [ebx]
  4157c3:	iret   
  4157c4:	adc    eax,0x5ce50d19
  4157c9:	jmp    0x6c1fa56f
  4157ce:	jo     0x4157a0
  4157d0:	push   es
  4157d1:	lods   eax,DWORD PTR ds:[esi]
  4157d2:	and    edi,DWORD PTR [eax+esi*2]
  4157d5:	fnstcw WORD PTR [ebx+0x17]
  4157d8:	or     al,0x9e
  4157da:	dec    edi
  4157db:	and    esp,DWORD PTR gs:[ecx+0x5a]
  4157df:	(bad)  
  4157e0:	adc    al,0x9a
  4157e2:	loope  0x4157cf
  4157e4:	repnz cli 
  4157e6:	popa   
  4157e7:	mov    ebp,0xe3e57b49
  4157ec:	(bad)  
  4157ed:	mov    esp,0x40511b35
  4157f2:	call   0x1f42:0xd20d150e
  4157f9:	lods   eax,DWORD PTR ds:[esi]
  4157fa:	mov    cl,0xf
  4157fc:	push   eax
  4157fd:	mov    BYTE PTR [esi-0x3a52e1c9],dl
  415803:	jge    0x4157b3
  415805:	loopne 0x41586b
  415807:	inc    ebp
  415808:	mov    al,0xab
  41580a:	outs   dx,BYTE PTR gs:[esi]
  41580c:	push   ebx
  41580d:	pop    ds
  41580e:	adc    DWORD PTR gs:[ebx],ebx
  415811:	in     al,dx
  415812:	xchg   esi,eax
  415813:	push   es
  415814:	loopne 0x4157c1
  415816:	and    eax,0x62acd771
  41581b:	adc    DWORD PTR [eax-0x51],ecx
  41581e:	cwde   
  41581f:	xor    ecx,esp
  415821:	or     DWORD PTR [edx+0x31ad1f62],edi
  415827:	adc    BYTE PTR [eax+0x6b],cl
  41582a:	mov    ecx,0xc5ad1ee4
  41582f:	add    eax,0x6562fc7c
  415834:	dec    esp
  415835:	ja     0x415857
  415837:	outs   dx,BYTE PTR ds:[esi]
  415838:	jo     0x415873
  41583a:	sbb    ebp,ebp
  41583c:	sbb    ch,BYTE PTR [edx]
  41583e:	push   ds
  41583f:	out    dx,eax
  415840:	jge    0x41583b
  415842:	inc    esp
  415843:	popa   
  415844:	pop    ds
  415845:	mov    ecx,0xad1e1164
  41584a:	gs sbb eax,0xe795bb1f
  415850:	push   es
  415851:	mov    eax,ds:0xa342454f
  415856:	test   DWORD PTR [ecx],edx
  415858:	retf   0x5f7e
  41585b:	or     al,0x19
  41585d:	push   ebp
  41585e:	push   eax
  41585f:	inc    edx
  415860:	jo     0x41584e
  415862:	xor    eax,0x95ffa533
  415867:	jge    0x415840
  415869:	aad    0x2b
  41586b:	pop    es
  41586c:	lds    edx,FWORD PTR [eax+edx*2+0x1cde10e9]
  415873:	leave  
  415874:	jle    0x415867
  415876:	cmp    eax,0x695d200a
  41587b:	adc    DWORD PTR [eax+0x546e3dad],eax
  415881:	jecxz  0x4158e8
  415883:	adc    DWORD PTR [edi],ebp
  415885:	sbb    ebx,DWORD PTR [ecx+0x62]
  415888:	sub    eax,0xfaecc51b
  41588d:	mov    eax,ds:0x7fcb8cf2
  415892:	inc    ebx
  415893:	adc    DWORD PTR ds:0x901b1ea,ecx
  415899:	mov    ebp,fs
  41589b:	jecxz  0x4158fc
  41589d:	lods   eax,DWORD PTR ds:[esi]
  41589e:	int    0x10
  4158a0:	sbb    cl,bl
  4158a2:	push   0x315f4a75
  4158a7:	test   al,0x2e
  4158a9:	test   al,0x37
  4158ab:	iret   
  4158ac:	fild   QWORD PTR [ebp+edi*2+0x6414fe0d]
  4158b3:	inc    ebp
  4158b4:	pop    ss
  4158b5:	ins    DWORD PTR es:[edi],dx
  4158b6:	pusha  
  4158b7:	pop    ds
  4158b8:	add    bh,cl
  4158ba:	push   eax
  4158bb:	inc    eax
  4158bc:	pop    ds
  4158bd:	lods   eax,DWORD PTR ds:[esi]
  4158be:	gs sar eax,1
  4158c1:	xchg   esi,eax
  4158c2:	mov    eax,0x45ad1c91
  4158c7:	jno    0x4158e4
  4158c9:	sti    
  4158ca:	fs adc ebx,ecx
  4158cd:	lods   al,BYTE PTR ds:[esi]
  4158ce:	aam    0x14
  4158d0:	jmp    0xa1ac:0x1fa5639e
  4158d7:	leave  
  4158d8:	pop    esp
  4158d9:	mov    ecx,0x96f87021
  4158de:	push   0xa5947d11
  4158e3:	sub    DWORD PTR [ebx],edx
  4158e5:	and    DWORD PTR [ebx+0x11],0xc9f1ac1f
  4158ec:	add    DWORD PTR ds:[eax-0x25],eax
  4158f0:	push   ds
  4158f1:	in     eax,dx
  4158f2:	fs jo  0x4158d0
  4158f5:	add    esp,DWORD PTR [ecx+edx*1-0xa]
  4158f9:	ja     0x415960
  4158fb:	jno    0x415920
  4158fd:	aad    0x2b
  4158ff:	jmp    0x96f8:0x6da1b554
  415906:	push   0x72aa5111
  41590b:	fstp   DWORD PTR [esi]
  41590d:	sbb    DWORD PTR [edi],0x7076f011
  415913:	pop    ds
  415914:	mov    ds:0x8c0184fd,eax
  415919:	jbe    0x415906
  41591b:	inc    ecx
  41591c:	leave  
  41591d:	lods   al,BYTE PTR ds:[esi]
  41591e:	pop    eax
  41591f:	scas   eax,DWORD PTR es:[edi]
  415920:	pushf  
  415921:	jne    0x415986
  415923:	adc    eax,0x6e98acc0
  415928:	push   eax
  415929:	bound  edx,QWORD PTR ss:0x1120551e
  415930:	lods   eax,DWORD PTR cs:[esi]
  415932:	rcl    DWORD PTR [ebp+0x21662713],0x1e
  415939:	jno    0x41595c
  41593b:	adc    DWORD PTR [edi],edx
  41593d:	lods   eax,DWORD PTR ds:[esi]
  41593e:	push   ecx
  41593f:	adc    DWORD PTR [eax+0x16],0x62
  415943:	adc    eax,0x1120051e
  415948:	pop    edx
  415949:	fsub   QWORD PTR [ebx+0x70]
  41594c:	and    dl,ch
  41594e:	jae    0x415962
  415950:	xchg   esp,eax
  415951:	mov    dh,0xa1
  415953:	ins    DWORD PTR es:[edi],dx
  415954:	clc    
  415955:	xchg   esi,eax
  415956:	push   0x956e1f11
  41595b:	loope  0x415974
  41595d:	lods   eax,DWORD PTR ds:[esi]
  41595e:	push   ebp
  41595f:	add    edi,DWORD PTR ds:0x30e56451
  415965:	mov    bl,0x5
  415967:	jo     0x415999
  415969:	mov    al,ds:0xac1f1167
  41596e:	ror    ecx,1
  415970:	movs   DWORD PTR es:[edi],DWORD PTR gs:[esi]
  415972:	sub    ebp,edi
  415974:	fisttp WORD PTR [edi+0x64]
  415977:	adc    DWORD PTR [edi],ebp
  415979:	lods   eax,DWORD PTR ds:[esi]
  41597a:	shl    DWORD PTR [ebp+0x21660713],0x1e
  415981:	jno    0x4159a4
  415983:	adc    DWORD PTR [eax],ebx
  415985:	lods   eax,DWORD PTR ds:[esi]
  415986:	push   ecx
  415987:	mov    ds:0xe5658b49,eax
  41598c:	dec    esi
  41598d:	lds    esi,FWORD PTR [esi]
  41598f:	sbb    ebx,DWORD PTR [edi]
  415991:	lods   eax,DWORD PTR ds:[esi]
  415992:	jne    0x4159a4
  415994:	cmp    esp,esp
  415996:	jg     0x415978
  415998:	mov    WORD PTR [esi+0x5b],?
  41599b:	inc    ebp
  41599c:	repz mov dh,0x8f
  41599f:	out    dx,eax
  4159a0:	and    edi,DWORD PTR [ebx+0x142e0194]
  4159a6:	pop    eax
  4159a7:	cmp    esi,eax
  4159a9:	adc    al,0x38
  4159ab:	test   esi,0x10f33f80
  4159b1:	mov    DWORD PTR [eax],esi
  4159b3:	inc    eax
  4159b4:	push   ds
  4159b5:	pop    ebp
  4159b6:	je     0x415a20
  4159b8:	and    ah,ch
  4159ba:	mov    ebx,0x258b480f
  4159bf:	adc    al,0x63
  4159c1:	xchg   ebx,eax
  4159c2:	lds    edx,FWORD PTR [ebx+0x48]
  4159c5:	jmp    0x4159e8
  4159c7:	adc    eax,0x61c1ad2b
  4159cc:	repnz mov dh,0x67
  4159cf:	lods   eax,DWORD PTR ds:[esi]
  4159d0:	dec    ecx
  4159d1:	fild   DWORD PTR [ecx-0x1b]
  4159d4:	adc    BYTE PTR [ebp+0x38],dh
  4159d7:	xlat   BYTE PTR ds:[ebx]
  4159d8:	stc    
  4159d9:	pop    ebx
  4159da:	je     0x4159c0
  4159dc:	icebp  
  4159dd:	ss cwde 
  4159df:	jge    0x415994
  4159e1:	mov    ebx,0x93f10544
  4159e6:	sub    DWORD PTR ds:0x35295b51,esi
  4159ec:	cmps   BYTE PTR ds:[esi],BYTE PTR es:[edi]
  4159ed:	dec    esp
  4159ee:	xor    DWORD PTR [edi],edi
  4159f0:	repnz mov dh,0xb
  4159f3:	int3   
  4159f4:	daa    
  4159f5:	jnp    0x415a3c
  4159f7:	add    eax,0xd73780fe
  4159fc:	call   FWORD PTR [edi+0x1ddc3059]
  415a02:	inc    ebp
  415a03:	xor    bh,BYTE PTR [eax-0x5f]
  415a06:	inc    ebp
  415a07:	or     dl,BYTE PTR [eax-0x3]
  415a0a:	xchg   esi,eax
  415a0b:	adc    dh,bl
  415a0d:	xor    BYTE PTR [edi],0xd7
  415a10:	repz shr BYTE PTR [ebx-0x21],cl
  415a14:	dec    ebx
  415a15:	fist   DWORD PTR [ecx]
  415a17:	add    eax,0x1d55e0fe
  415a1c:	cmps   BYTE PTR ds:[esi],BYTE PTR es:[edi]
  415a1d:	lahf   
  415a1e:	shr    DWORD PTR [edx+0x6e4a7997],cl
  415a24:	dec    esi
  415a25:	or     DWORD PTR [eax+0x39],ebp
  415a28:	jae    0x415a49
  415a2a:	lock xchg esi,eax
  415a2c:	pop    esi
  415a2d:	or     DWORD PTR [esi+0x39],esp
  415a30:	and    BYTE PTR [ebp-0x54f2e1af],ch
  415a36:	cmp    ebx,esp
  415a38:	xchg   ebx,eax
  415a39:	std    
  415a3a:	arpl   WORD PTR [ecx],dx
  415a3c:	sbb    eax,0x13a339ab
  415a41:	cmp    DWORD PTR [ecx+edx*1+0x51],esp
  415a45:	jnp    0x415a8c
  415a47:	in     eax,0x4c
  415a49:	aas    
  415a4a:	cmp    BYTE PTR [ecx],bh
  415a4c:	(bad)  
  415a4d:	push   esp
  415a4e:	pop    eax
  415a4f:	cmp    eax,0x29c1ad32
  415a54:	pop    ds
  415a55:	(bad)  
  415a56:	addr16 loope 0x415ad7
  415a59:	ja     0x415a76
  415a5b:	mov    ecx,0xa6db020
  415a60:	jl     0x415ac7
  415a62:	(bad)  
  415a63:	dec    edi
  415a64:	and    BYTE PTR [ebp+0x75],bh
  415a67:	adc    DWORD PTR [edx-0x80],eax
  415a6a:	arpl   WORD PTR [esi],di
  415a6c:	xor    DWORD PTR [ebx+0x25],ebp
  415a6f:	loop   0x415a64
  415a71:	aam    0x35
  415a73:	inc    ebx
  415a74:	repz into 
  415a76:	lea    eax,[edi]
  415a78:	(bad)  
  415a79:	mov    al,ds:0x7e6b3d59
  415a7e:	jno    0x415a6f
  415a80:	mov    ds:0xa03e6570,al
  415a85:	in     al,0x7b
  415a87:	dec    esi
  415a88:	or     ecx,DWORD PTR [ecx+edx*2+0x646bd605]
  415a8f:	adc    BYTE PTR [edx],ah
  415a91:	sub    eax,0xd520701d
  415a96:	jae    0x415a83
  415a98:	mov    ah,0xbb
  415a9a:	mov    eax,ds:0x66ffb46d
  415a9f:	adc    DWORD PTR [eax],edx
  415aa1:	lahf   
  415aa2:	mov    dh,0x9d
  415aa4:	movs   BYTE PTR es:[edi],BYTE PTR ds:[esi]
  415aa5:	jle    0x415aba
  415aa7:	gs repz ss adc al,dh
  415aac:	mov    bl,0xbb
  415aae:	inc    esp
  415aaf:	add    eax,0xc4b7dc4e
  415ab4:	loop   0x415a7a
  415ab6:	and    bh,BYTE PTR [eax+0x1f]
  415ab9:	in     eax,0xd7
  415abb:	mov    bh,0x31
  415abd:	sbb    al,BYTE PTR [ebx+0x4]
  415ac0:	pop    ds
  415ac1:	lods   eax,DWORD PTR ds:[esi]
  415ac2:	gs adc ebx,esi
  415ac5:	(bad)  
  415ac6:	xchg   ebx,eax
  415ac7:	adc    edx,DWORD PTR [ebx+0x2a]
  415aca:	inc    ebx
  415acb:	add    eax,0x1163811f
  415ad0:	sub    ecx,DWORD PTR [ebx-0x5ef1fb93]
  415ad6:	aaa    
  415ad7:	xlat   BYTE PTR ds:[ebx]
  415ad8:	fild   DWORD PTR ds:0xf66bedbe
  415ade:	(bad)  
  415adf:	jno    0x415a66
  415ae1:	pop    es
  415ae2:	retf   
  415ae3:	pop    ebx
  415ae4:	dec    edi
  415ae5:	mov    esp,DWORD PTR [ebp+0x51]
  415ae8:	loopne 0x415a96
  415aea:	rcl    DWORD PTR [edi+ecx*8],1
  415aed:	int3   
  415aee:	fs or  eax,0x55dc96f0
  415af4:	adc    ebp,DWORD PTR [ebx]
  415af6:	inc    ebx
  415af7:	add    eax,0x1165a11f
  415afc:	sbb    eax,0x5f7f59ad
  415b01:	loope  0x415b66
  415b03:	and    eax,0xe23a9af1
  415b08:	pop    ds
  415b09:	and    DWORD PTR [edx+0x11],esp
  415b0c:	dec    eax
  415b0d:	mov    eax,DWORD PTR [ebp+0x15]
  415b10:	xor    BYTE PTR [ebp-0x1565e23f],ch
  415b16:	push   0x63811f7d
  415b1b:	adc    ebx,esi
  415b1d:	stos   BYTE PTR es:[edi],al
  415b1e:	fs loopne 0x415b1e
  415b21:	dec    ebx
  415b22:	xor    eax,0x38c8fee5
  415b27:	mov    ebx,0xb025874f
  415b2c:	cmp    ecx,DWORD PTR [eax+edi*1+0x1fd4e0f]
  415b33:	cmp    eax,0xe4a90bf1
  415b38:	dec    BYTE PTR [eax+0x76fbdd57]
  415b3e:	inc    esp
  415b3f:	mov    al,ds:0xf5552c1c
  415b44:	pop    ds
  415b45:	lods   eax,DWORD PTR ds:[esi]
  415b46:	popa   
  415b47:	adc    DWORD PTR [eax],edx
  415b49:	push   esp
  415b4a:	int    0x33
  415b4c:	dec    ebx
  415b4d:	(bad)  
  415b4e:	gs xchg ecx,eax
  415b50:	fisubr WORD PTR [ecx+ecx*2+0x62911ffa]
  415b57:	adc    DWORD PTR [edi+0x1f8055ac],ebp
  415b5d:	sub    DWORD PTR [ecx+edx*1+0xc],esp
  415b61:	lods   eax,DWORD PTR ds:[esi]
  415b62:	inc    ecx
  415b63:	push   es
  415b64:	jg     0x415be1
  415b66:	mov    edx,0x5b08b0f
  415b6b:	iret   
  415b6c:	jl     0x415b03
  415b6e:	(bad)  
  415b6f:	dec    edi
  415b70:	and    BYTE PTR [ebp+0x78],dh
  415b73:	adc    esi,ebx
  415b75:	retf   0xa884
  415b78:	push   ss
  415b79:	popf   
  415b7a:	pop    ecx
  415b7b:	jns    0x415b9f
  415b7d:	movs   DWORD PTR es:[edi],DWORD PTR ds:[esi]
  415b7e:	aas    
  415b7f:	dec    ebp
  415b80:	fsub   DWORD PTR [esi-0x6b37f97b]
  415b86:	bound  ecx,QWORD PTR [eax]
  415b88:	scas   eax,DWORD PTR es:[edi]
  415b89:	je     0x415b10
  415b8b:	jmp    0x292b04cd
  415b90:	jmp    0x415bb7
  415b92:	xchg   ebp,eax
  415b93:	jmp    0x77e:0xa82abef
  415b9a:	cmp    al,0xc1
  415b9c:	out    0xec,eax
  415b9e:	xchg   edi,eax
  415b9f:	pop    DWORD PTR [edx+0x2539c0f]
  415ba5:	pop    ds
  415ba6:	loopne 0x415c03
  415ba8:	mov    ds:0x94584870,al
  415bad:	pop    ss
  415bae:	xchg   esp,eax
  415baf:	jae    0x415bf9
  415bb1:	das    
  415bb2:	test   al,0xd2
  415bb4:	push   es
  415bb5:	popf   
  415bb6:	add    al,0x6b
  415bb8:	rcr    BYTE PTR [edi+0x178e1829],cl
  415bbe:	mov    al,0x53
  415bc0:	sti    
  415bc1:	sub    BYTE PTR [ebp-0x2a6ff124],0xe0
  415bc8:	sub    eax,0xd4ad6045
  415bcd:	sbb    BYTE PTR [ecx+0x30],0xbf
  415bd1:	mov    bl,0x4
  415bd3:	add    BYTE PTR [edi+0x30],dh
  415bd6:	rcr    bh,1
  415bd8:	mov    al,ds:0x243b2144
  415bde:	pop    ebp
  415bdf:	push   ss
  415be0:	outs   dx,DWORD PTR ds:[esi]
  415be1:	je     0x415ba6
  415be3:	(bad)  
  415be4:	neg    bl
  415be6:	push   esp
  415be7:	clc    
  415be8:	(bad)  
  415be9:	js     0x415c4f
  415beb:	retf   
  415bec:	aas    
  415bed:	pusha  
  415bee:	inc    ebp
  415bef:	or     eax,0xc4950999
  415bf4:	fnsave [eax+0x7609f17e]
  415bfa:	add    al,0xe
  415bfc:	sub    eax,DWORD PTR [edi+eiz*1+0x43ba3350]
  415c03:	icebp  
  415c04:	call   0x5c1f:0x7a085970
  415c0b:	(bad)  
  415c0c:	popf   
  415c0d:	mov    ebx,0xac0aefc2
  415c12:	and    edx,eax
  415c14:	pop    edi
  415c15:	mov    ds:0xe94c0c35,eax
  415c1a:	cmp    esi,DWORD PTR ds:0xc0262a0f
  415c20:	sbb    eax,DWORD PTR [ecx-0x13fc189f]
  415c26:	xor    eax,0x559187ce
  415c2b:	mov    ebp,0xad12b8db
  415c30:	pop    ss
  415c31:	sbb    bh,BYTE PTR [ecx]
  415c33:	rcr    DWORD PTR [edx],1
  415c35:	jl     0x415c88
  415c37:	jmp    0x892d127
  415c3c:	test   BYTE PTR [ecx+eiz*2-0x5a84e0f3],0x7f
  415c44:	jmp    0x4df8:0xa28c4fc6
  415c4b:	cmc    
  415c4c:	aas    
  415c4d:	dec    eax
  415c4e:	sbb    esp,ebx
  415c50:	loope  0x415c0e
  415c52:	inc    esp
  415c53:	ins    DWORD PTR es:[edi],dx
  415c54:	js     0x415c35
  415c56:	xlat   BYTE PTR ds:[ebx]
  415c57:	cmp    eax,0xcbe54b39
  415c5c:	jecxz  0x415be5
  415c5e:	in     al,0xd0
  415c60:	sbb    bh,BYTE PTR [ebp+0x174fa5dd]
  415c66:	lods   al,BYTE PTR ds:[esi]
  415c67:	mov    al,ds:0x6b8356e8
  415c6c:	or     ebx,eax
  415c6e:	xor    ebp,ecx
  415c70:	aas    
  415c71:	mov    ds:0x5c563d55,al
  415c76:	and    al,0x5
  415c78:	sti    
  415c79:	sub    ebp,DWORD PTR ds:0x37e467e8
  415c7f:	fst    DWORD PTR [edx-0x71186689]
  415c85:	cmp    cl,BYTE PTR [edi]
  415c87:	xchg   ecx,eax
  415c88:	fidiv  DWORD PTR [ebp+ebx*1+0x550cada9]
  415c8f:	inc    ecx
  415c90:	and    ecx,DWORD PTR [ebx-0x4a]
  415c93:	or     al,0x5c
  415c95:	jg     0x415cd0
  415c97:	ret    0xacf7
  415c9a:	xor    dl,BYTE PTR [ebp+esi*4-0x1b]
  415c9e:	mov    ebx,0xccf52388
  415ca3:	paddusw mm6,mm7
  415ca6:	jmp    0x8da1fd9d
  415cab:	jo     0x415cce
  415cad:	cmp    BYTE PTR [ebp+0x52e61eba],dl
  415cb3:	cmps   DWORD PTR ds:[esi],DWORD PTR es:[edi]
  415cb4:	imul   ebx,DWORD PTR [ebx],0xffffff86
  415cb7:	mov    dh,0x1b
  415cb9:	xchg   ebx,eax
  415cba:	cmp    cl,BYTE PTR [edi]
  415cbc:	fisubr WORD PTR [esi+0x6f2388ac]
  415cc2:	add    BYTE PTR [edi+edx*4-0x54],0x85
  415cc7:	mov    ah,0xfd
  415cc9:	push   esi
  415cca:	enter  0x7a74,0x6e
  415cce:	and    DWORD PTR [ebx+ebp*4+0x59],ebx
  415cd2:	popf   
  415cd3:	sbb    al,0xde
  415cd5:	or     al,0xe5
  415cd7:	lea    ebx,[edi]
  415cd9:	rcr    ecx,0x7
  415cdc:	icebp  
  415cdd:	mov    ecx,0xa0f2d8c6
  415ce2:	add    eax,0x9086ab70
  415ce7:	pop    edx
  415ce8:	icebp  
  415ce9:	jb     0x415ca0
  415ceb:	mov    cl,BYTE PTR [eax]
  415ced:	sub    eax,0x1ccca624
  415cf2:	pop    eax
  415cf3:	xchg   ebp,eax
  415cf4:	in     eax,0x49
  415cf6:	ja     0x415cd6
  415cf8:	clc    
  415cf9:	stos   BYTE PTR es:[edi],al
  415cfa:	add    ecx,ebp
  415cfc:	ret    0x6692
  415cff:	imul   eax,DWORD PTR ds:0xd7eeb145,0x7c0562f2
  415d09:	mov    bl,0x23
  415d0b:	mov    esp,0x90fecb42
  415d10:	add    BYTE PTR [ebx+esi*4+0x63f43218],ah
  415d17:	leave  
  415d18:	jno    0x415d3f
  415d1a:	mov    gs,ebx
  415d1c:	xchg   BYTE PTR [ecx+edi*8+0x7bcc3922],ch
  415d23:	adc    al,0x92
  415d25:	mov    ebx,0xdd260a77
  415d2a:	or     BYTE PTR [ebx-0x622d52e4],0x88
  415d31:	hlt    
  415d32:	int3   
  415d33:	xor    ebp,DWORD PTR [esi+0x3acc7e14]
  415d39:	xor    edi,ecx
  415d3b:	sbb    ch,BYTE PTR ds:[edx-0x1b468449]
  415d42:	ret    0x1d31
  415d45:	dec    ebp
  415d46:	jp     0x415db3
  415d48:	dec    eax
  415d49:	mov    ds:0x1c753b6b,al
  415d4e:	push   ss
  415d4f:	xchg   ebp,eax
  415d50:	adc    edi,DWORD PTR [ecx]
  415d52:	es repnz loopne 0x415cfe
  415d56:	rcr    BYTE PTR [edi+edi*2],1
  415d59:	(bad)  
  415d5b:	mov    edx,0x6b0920a6
  415d60:	pop    ds
  415d61:	adc    edi,edi
  415d63:	push   edx
  415d64:	fwait
  415d65:	out    0x18,eax
  415d67:	mov    ch,0x1f
  415d69:	dec    edi
  415d6a:	mov    dh,0x10
  415d6c:	adc    dh,BYTE PTR [esi-0x12e3533d]
  415d72:	scas   al,BYTE PTR es:[edi]
  415d73:	aas    
  415d74:	out    dx,al
  415d75:	xor    dh,BYTE PTR [edi+0x55ac6296]
  415d7b:	mov    esi,?
  415d7d:	mov    ecx,0x399e85ce
  415d82:	(bad)  
  415d83:	jp     0x415dcd
  415d85:	addr16 fs leave 
  415d88:	sahf   
  415d89:	jae    0x415dce
  415d8b:	sub    esi,DWORD PTR [edi]
  415d8d:	lock and al,0xe
  415d90:	sub    al,0x9a
  415d92:	jnp    0x415d85
  415d94:	movs   DWORD PTR es:[edi],DWORD PTR ds:[esi]
  415d95:	xchg   esp,eax
  415d96:	push   eax
  415d97:	sub    BYTE PTR [ebx],dl
  415d99:	into   
  415d9a:	fs pop esp
  415d9c:	lods   eax,DWORD PTR ds:[esi]
  415d9d:	mov    WORD PTR [esi-0x4a557533],ss
  415da3:	mov    eax,0xbc98582b
  415da8:	nop
  415da9:	test   BYTE PTR [ebx+0x58],bl
  415dac:	cs mov al,0x62
  415daf:	fnstenv [ebx+0x37a7d03d]
  415db5:	push   cs
  415db6:	xor    BYTE PTR [esi],cl
  415db8:	dec    esi
  415db9:	je     0x415d49
  415dbb:	cwde   
  415dbc:	sub    al,0x4b
  415dbe:	daa    
  415dbf:	fsubrp st(3),st
  415dc1:	jo     0x415e26
  415dc3:	sub    eax,0x7567abed
  415dc8:	imul   esp,DWORD PTR [eax+0x2e],0x10
  415dcc:	enter  0xa058,0x77
  415dd0:	push   ds
  415dd1:	std    
  415dd2:	mov    eax,ds:0xa2c05e59
  415dd7:	movaps xmm5,XMMWORD PTR [ebx-0x5ff50beb]
  415dde:	imul   ebx,eax,0xfffffffd
  415de1:	push   0xfffffff5
  415de3:	cmps   BYTE PTR ds:[esi],BYTE PTR es:[edi]
  415de4:	retf   
  415de5:	arpl   WORD PTR gs:[ebp-0x68],sp
  415de9:	xchg   edx,eax
  415dea:	inc    edx
  415deb:	ins    BYTE PTR es:[edi],dx
  415dec:	push   ebx
  415ded:	call   0xb8fd6f43
  415df2:	dec    ebp
  415df3:	loopne 0x415e4b
  415df5:	pslld  mm2,QWORD PTR ds:0x9961bbcc
  415dfc:	lea    ebx,[ebx]
  415dfe:	loop   0x415e11
  415e00:	sbb    ecx,DWORD PTR [edi-0xd74eef7]
  415e06:	(bad)  
  415e07:	and    bl,BYTE PTR [esi]
  415e09:	imul   edx,ecx,0xcad6026c
  415e0f:	pop    esi
  415e10:	inc    edx
  415e11:	shr    BYTE PTR [ebx-0x7f4353da],0x5f
  415e18:	sbb    al,0xab
  415e1a:	imul   edi,DWORD PTR [ebx+esi*4+0x1d03a49a],0xffffffa1
  415e22:	cmp    ebx,DWORD PTR [ebx+0x54]
  415e25:	push   es
  415e26:	mov    ecx,0xa93b6759
  415e2b:	cmps   BYTE PTR ds:[esi],BYTE PTR es:[edi]
  415e2c:	aaa    
  415e2d:	stos   DWORD PTR es:[edi],eax
  415e2e:	ins    DWORD PTR es:[edi],dx
  415e2f:	push   esp
  415e30:	xchg   esp,eax
  415e31:	xchg   ebx,ebx
  415e33:	cmp    DWORD PTR [ecx+edi*1],ebx
  415e36:	mov    eax,0xefe5c398
  415e3b:	push   ebp
  415e3c:	ins    DWORD PTR es:[edi],dx
  415e3d:	mov    ebx,0x5b01b824
  415e42:	dec    edi
  415e43:	pop    ebx
  415e44:	cmp    eax,0xc667342a
  415e49:	popf   
  415e4a:	pop    ebp
  415e4b:	push   0xffffff91
  415e4d:	mov    ah,0x63
  415e4f:	jmp    0x6e4f6d95
  415e54:	(bad)  
  415e55:	pop    ebx
  415e56:	call   DWORD PTR [ebp+0x10b11221]
  415e5c:	jg     0x415e62
  415e5e:	and    eax,0x46a37a5e
  415e63:	mov    ch,0xdf
  415e65:	(bad)  
  415e66:	or     DWORD PTR [esi+eiz*4],esp
  415e69:	test   eax,0xfeb857b5
  415e6e:	cmp    dl,BYTE PTR [edi]
  415e70:	les    ecx,FWORD PTR [ecx+0x32]
  415e73:	dec    eax
  415e74:	inc    eax
  415e75:	out    0x62,al
  415e77:	stc    
  415e78:	outs   dx,BYTE PTR ds:[si]
  415e7a:	repz repnz sti 
  415e7d:	and    cl,al
  415e7f:	or     esp,DWORD PTR [eax-0x234cc0d8]
  415e85:	lea    esi,[ebx-0x80]
  415e88:	or     cl,BYTE PTR [edx]
  415e8a:	gs inc ebp
  415e8c:	int    0x4f
  415e8e:	xchg   esp,eax
  415e8f:	sbb    eax,0xd0d5aa2d
  415e94:	push   edx
  415e95:	inc    ecx
  415e96:	aaa    
  415e97:	xlat   BYTE PTR ds:[ebx]
  415e98:	sub    ch,BYTE PTR [edx-0x11]
  415e9b:	mov    al,0x7d
  415e9d:	mov    bl,0x64
  415e9f:	xchg   ebp,eax
  415ea0:	sbb    DWORD PTR [edx],ebp
  415ea2:	inc    edx
  415ea3:	xor    ebp,DWORD PTR [eax]
  415ea5:	lods   al,BYTE PTR ds:[esi]
  415ea6:	loope  0x415ee0
  415ea8:	sbb    bl,BYTE PTR [eax]
  415eaa:	jle    0x415e82
  415eac:	call   DWORD PTR [edx+edi*2]
  415eaf:	cmp    edi,DWORD PTR [ebp+0x4a]
  415eb2:	(bad)  
  415eb3:	in     eax,dx
  415eb4:	mov    esi,0xd3bb8db6
  415eb9:	aas    
  415eba:	add    edx,DWORD PTR [eax]
  415ebc:	movs   DWORD PTR es:[edi],DWORD PTR ds:[esi]
  415ebd:	in     eax,0xf8
  415ebf:	int    0x1f
  415ec1:	add    DWORD PTR [eax],0x62dcaf84
  415ec7:	(bad)  
  415ec8:	sub    al,0xac
  415eca:	dec    ecx
  415ecb:	out    0x13,al
  415ecd:	(bad)  
  415ece:	push   0xffffffd5
  415ed0:	(bad)  
  415ed1:	lea    ebx,[ebp+0x6faa085d]
  415ed7:	add    BYTE PTR [ecx],0x9c
  415eda:	xor    eax,0xb19d52c4
  415edf:	push   0x7245624b
  415ee4:	sbb    al,0x62
  415ee6:	fwait
  415ee7:	les    ebx,FWORD PTR [eax]
  415ee9:	imul   ebp,eax,0x46f8b337
  415eef:	ficomp DWORD PTR [ebx+ecx*8-0x60]
  415ef3:	(bad)  
  415ef4:	mov    ebx,0xa70f292a
  415ef9:	std    
  415efa:	dec    BYTE PTR [ebx]
  415efc:	jg     0x415ee7
  415efe:	or     BYTE PTR [edx],ch
  415f00:	xchg   BYTE PTR [esi+eax*2-0x6f41e2f7],cl
  415f07:	in     al,0x56
  415f09:	dec    esp
  415f0a:	or     DWORD PTR [eax+0x60],ecx
  415f0d:	jmp    0x9aac:0x351e55cc
  415f14:	pop    eax
  415f15:	and    eax,0xab0aa611
  415f1a:	in     eax,dx
  415f1b:	(bad)  
  415f1c:	out    dx,al
  415f1d:	mov    esi,DWORD PTR [ebp-0x7d]
  415f20:	jnp    0x415f78
  415f22:	sbb    DWORD PTR [edx+0x6964abca],esp
  415f28:	push   eax
  415f29:	push   ecx
  415f2a:	mov    DWORD PTR [eax+0x4],esi
  415f2d:	lods   eax,DWORD PTR ds:[esi]
  415f2e:	sub    DWORD PTR [eax],ebp
  415f30:	or     eax,0x48cb5fe7
  415f36:	pop    ss
  415f37:	and    eax,ebx
  415f39:	repz bound ebp,QWORD PTR [ecx-0x170d8d4e]
  415f40:	aaa    
  415f41:	jno    0x415f03
  415f43:	or     eax,0x4df19694
  415f48:	add    dh,ch
  415f4a:	jge    0x415fca
  415f4c:	lods   eax,DWORD PTR ds:[esi]
  415f4d:	sbb    eax,0x666a89b6
  415f52:	pop    ds
  415f53:	fs mov esp,0x5fba55aa
  415f59:	jge    0x415f4c
  415f5b:	cmp    cl,dh
  415f5d:	aad    0x1f
  415f5f:	push   0xffffffa4
  415f61:	call   0x28c114ca
  415f66:	push   ss
  415f67:	and    al,0x67
  415f69:	sar    DWORD PTR [ecx+esi*8+0x1a4f1d82],0xbf
  415f71:	fucom  st(4)
  415f73:	std    
  415f74:	push   ds
  415f75:	cdq    
  415f76:	in     al,dx
  415f77:	adc    BYTE PTR [edx-0x357758d5],bh
  415f7d:	mov    esp,0x8d463640
  415f82:	sbb    DWORD PTR [ebx+0x4d32a10e],esp
  415f88:	lahf   
  415f89:	stos   BYTE PTR es:[edi],al
  415f8a:	sub    edx,DWORD PTR [ebp-0x41e9ef22]
  415f90:	sti    
  415f91:	adc    BYTE PTR [ebx-0x3f],ah
  415f94:	sbb    esi,ecx
  415f96:	mov    al,ds:0x1db33356
  415f9b:	cmc    
  415f9c:	mov    gs,WORD PTR [esi+esi*2]
  415f9f:	sub    eax,0x50301e50
  415fa4:	push   ecx
  415fa5:	lods   eax,DWORD PTR ds:[esi]
  415fa6:	bound  ecx,QWORD PTR [ebp+0x49f57df7]
  415fac:	inc    esp
  415fad:	mov    DWORD PTR [eax-0x547ee281],0xb65c271e
  415fb7:	xor    DWORD PTR [edi],ebx
  415fb9:	pop    ecx
  415fba:	sbb    cl,BYTE PTR [esi+0x580fc80f]
  415fc0:	mov    ah,0x9d
  415fc2:	or     eax,0x71ca6640
  415fc7:	dec    ebp
  415fc8:	mov    esp,0x1def4c19
  415fcd:	mov    ecx,0xa648797b
  415fd2:	iret   
  415fd3:	std    
  415fd4:	add    DWORD PTR [ebp+ecx*1+0xd18195b],ebp
  415fdb:	icebp  
  415fdc:	je     0x416014
  415fde:	cli    
  415fdf:	xchg   ebx,eax
  415fe0:	cmc    
  415fe1:	dec    esp
  415fe2:	pusha  
  415fe3:	cmp    ebp,edi
  415fe5:	xchg   ecx,eax
  415fe6:	loopne 0x415f88
  415fe8:	call   0x7ca3c596
  415fed:	icebp  
  415fee:	es int3 
  415ff0:	fwait
  415ff1:	inc    ecx
  415ff2:	xor    eax,0x61e46546
  415ff7:	push   ebp
  415ff8:	fiadd  WORD PTR [ebp-0x72f49d14]
  415ffe:	push   0x3a933e0f
  416003:	mov    DWORD PTR [esi],ebx
  416005:	inc    ecx
  416006:	pop    esi
  416007:	push   esp
  416008:	mov    DWORD PTR [eax-0x16cd640d],0x89bcfd5
  416012:	fimul  DWORD PTR ds:0xb92edb9
  416018:	test   al,0x68
  41601a:	inc    ebp
  41601b:	jne    0x41603c
  41601d:	movs   DWORD PTR es:[edi],DWORD PTR ds:[esi]
  41601e:	add    bl,dh
  416020:	imul   ecx,DWORD PTR [ebx+0x7013aef0],0xffffffac
  416027:	push   cs
  416028:	int    0x64
  41602a:	dec    bh
  41602c:	push   ds
  41602d:	sub    DWORD PTR [ecx-0x22],esp
  416030:	(bad)  
  416031:	dec    ebp
  416032:	js     0x41602f
  416034:	scas   al,BYTE PTR es:[edi]
  416035:	stos   BYTE PTR es:[edi],al
  416036:	inc    ecx
  416037:	cwde   
  416038:	jnp    0x416055
  41603a:	adc    BYTE PTR [edx-0x2f],dl
  41603d:	repnz add BYTE PTR [edx-0x1b188788],bl
  416044:	ins    BYTE PTR es:[edi],dx
  416045:	outs   dx,BYTE PTR ds:[esi]
  416046:	bound  eax,QWORD PTR [edx-0x4a]
  416049:	in     eax,0x3f
  41604b:	or     al,BYTE PTR [edi+0x4a]
  41604e:	mov    ah,0x10
  416050:	sub    ebx,DWORD PTR [edi]
  416052:	std    
  416053:	pop    ss
  416054:	scas   al,BYTE PTR es:[edi]
  416055:	mov    al,0x8a
  416057:	ins    BYTE PTR es:[edi],dx
  416058:	sbb    BYTE PTR [edi],bh
  41605a:	push   ebp
  41605b:	aaa    
  41605c:	add    al,0x48
  41605e:	pop    ds
  41605f:	xor    esp,DWORD PTR [ebp+0x6f2245a9]
  416065:	sahf   
  416066:	mov    ds:0x6a8c122,eax
  41606b:	mov    cs,WORD PTR [esi]
  41606d:	inc    ebx
  41606e:	daa    
  41606f:	adc    eax,0xe0c02bd5
  416074:	out    0x3,eax
  416076:	add    dl,dh
  416078:	mov    bl,0x2b
  41607a:	xchg   ecx,eax
  41607b:	call   0xc51a:0x9bfaf8f9
  416082:	outs   dx,BYTE PTR ds:[esi]
  416083:	rcl    DWORD PTR [eax+0x146c0092],cl
  416089:	sub    al,BYTE PTR [esp+eax*8-0x68ca55d8]
  416090:	xor    dl,ch
  416092:	jmp    0x2cd8238b
  416097:	out    dx,eax
  416098:	xchg   ebx,eax
  416099:	aam    0x61
  41609b:	mov    DWORD PTR [ebx+0x77],esi
  41609e:	out    dx,eax
  41609f:	mov    ecx,0x4150b440
  4160a4:	fisttp WORD PTR [ebx+0x62]
  4160a7:	je     0x416078
  4160a9:	std    
  4160aa:	lock es clc 
  4160ad:	scas   al,BYTE PTR es:[edi]
  4160ae:	inc    edi
  4160af:	ret    
  4160b0:	lahf   
  4160b1:	cmp    cl,bh
  4160b3:	or     eax,0x5f1211d
  4160b8:	int3   
  4160b9:	adc    ecx,0x24
  4160bc:	out    dx,al
  4160bd:	ins    DWORD PTR es:[edi],dx
  4160be:	mov    ebp,0x42f57084
  4160c3:	sahf   
  4160c4:	(bad)  
  4160c6:	arpl   bx,si
  4160c8:	adc    edx,DWORD PTR [ebp-0x31c0aaf4]
  4160ce:	adc    al,0xde
  4160d0:	cmp    cl,ch
  4160d2:	stc    
  4160d3:	add    edx,edx
  4160d5:	popf   
  4160d6:	movs   DWORD PTR es:[edi],DWORD PTR ds:[esi]
  4160d7:	das    
  4160d8:	ror    DWORD PTR [esi+edi*2],1
  4160db:	sub    ch,bl
  4160dd:	push   ebp
  4160de:	fnstenv [ebx]
  4160e0:	add    cl,bl
  4160e2:	mov    ds,WORD PTR [ecx]
  4160e4:	dec    esp
  4160e5:	ror    BYTE PTR [eax-0x40],cl
  4160e8:	inc    sp
  4160ea:	out    0x10,eax
  4160ec:	fldcw  WORD PTR ds:0xabf28c81
  4160f2:	clc    
  4160f3:	int    0xa6
  4160f5:	mov    ebx,0x211fa2da
  4160fa:	add    DWORD PTR [ecx+0x25897559],esi
  416100:	lock cmps BYTE PTR ds:[esi],BYTE PTR es:[edi]
  416102:	adc    eax,0x140d9063
  416107:	jo     0x4160c3
  416109:	dec    edx
  41610a:	xchg   edx,eax
  41610b:	mov    ds:0xc5281d1c,al
  416110:	ror    BYTE PTR [ebp+edi*1+0x28],0x7d
  416115:	lods   al,BYTE PTR ds:[esi]
  416116:	push   ebp
  416117:	in     al,0x11
  416119:	and    eax,0xc732d22a
  41611e:	push   0x10
  416120:	mov    esi,0x89055912
  416125:	jmp    0xa6240c3c
  41612a:	popf   
  41612b:	cmp    dh,bl
  41612d:	stos   DWORD PTR es:[edi],eax
  41612e:	stos   BYTE PTR es:[edi],al
  41612f:	outs   dx,DWORD PTR ds:[esi]
  416130:	jge    0x416158
  416132:	les    esp,FWORD PTR [ebp+0x42]
  416135:	jle    0x416158
  416137:	push   cs
  416138:	dec    edx
  416139:	sbb    edi,DWORD PTR [ecx+0x28b1e48c]
  41613f:	sub    DWORD PTR [eax-0x566ebe62],eax
  416145:	lods   al,BYTE PTR ds:[esi]
  416146:	shl    ecx,0xd8
  416149:	std    
  41614a:	daa    
  41614b:	pop    esi
  41614c:	push   edi
  41614d:	outs   dx,DWORD PTR ds:[esi]
  41614e:	test   esi,0xfc7fac4f
  416154:	sbb    DWORD PTR [ebx],esi
  416156:	mov    BYTE PTR [ecx+0x26],dh
  416159:	mov    al,ds:0xdcaedf65
  41615e:	and    DWORD PTR [eax],ebx
  416160:	jo     0x4161b4
  416162:	push   esi
  416163:	adc    BYTE PTR [esi+esi*1-0x5435991b],cl
  41616a:	jno    0x416180
  41616c:	fs xor edx,DWORD PTR fs:[ecx+0x554dabe8]
  416174:	sub    esp,edx
  416176:	iret   
  416177:	xchg   edx,eax
  416178:	icebp  
  416179:	dec    ecx
  41617a:	push   ecx
  41617b:	push   eax
  41617c:	fsub   st,st(0)
  41617e:	pop    edi
  41617f:	(bad)
  416182:	and    dh,BYTE PTR [esi-0x3b]
  416185:	outs   dx,DWORD PTR ds:[esi]
  416186:	xchg   ebp,eax
  416187:	xor    DWORD PTR [eax-0x73],esp
  41618a:	in     al,dx
  41618b:	xor    DWORD PTR [edx+esi*8],edi
  41618e:	fs jbe 0x4161ad
  416191:	int    0x98
  416193:	pop    es
  416194:	leave  
  416195:	and    ebp,DWORD PTR [di+0x36]
  416199:	iret   
  41619a:	adc    eax,0x5a9edfd
  41619f:	mov    dh,0x42
  4161a1:	xchg   ebx,eax
  4161a2:	xor    ecx,DWORD PTR [eax+0x3c]
  4161a5:	sub    eax,0x9f0bb3b8
  4161aa:	gs or  eax,0x932f56f8
  4161b0:	(bad)  
  4161b1:	out    dx,eax
  4161b2:	xchg   ebx,eax
  4161b3:	add    eax,DWORD PTR [ecx+edi*8-0x146d61a0]
  4161ba:	ffreep st(6)
  4161bc:	pop    esi
  4161bd:	inc    edx
  4161be:	cs xchg ebx,eax
  4161c0:	arpl   cx,sp
  4161c2:	arpl   WORD PTR ds:0x6894d150,sp
  4161c8:	pop    ds
  4161c9:	jbe    0x416220
  4161cb:	xchg   edx,eax
  4161cc:	mov    eax,0x50107382
  4161d1:	out    dx,al
  4161d2:	cwde   
  4161d3:	jnp    0x4161c2
  4161d5:	das    
  4161d6:	gs xor esp,eax
  4161d9:	jmp    0xd7f8:0xde8345f4
  4161e0:	mov    edi,DWORD PTR [edi]
  4161e2:	fnstsw WORD PTR [ecx+edx*8-0x18]
  4161e6:	enter  0xf80c,0xfa
  4161ea:	scas   eax,DWORD PTR es:[edi]
  4161eb:	xor    BYTE PTR [esi+0x1e],bl
  4161ee:	fs push ebp
  4161f0:	sti    
  4161f1:	fst    DWORD PTR [ebx+0x36c527f8]
  4161f7:	adc    BYTE PTR [ebx+0x1c49a49c],bh
  4161fd:	adc    eax,0x4693e4e4
  416202:	jmp    0x416187
  416204:	rep stos DWORD PTR es:[edi],eax
  416206:	popa   
  416207:	js     0x4161eb
  416209:	push   ebp
  41620a:	and    al,0x8a
  41620c:	or     al,0x69
  41620e:	cmp    eax,0x65926672
  416213:	xchg   ecx,eax
  416214:	sti    
  416215:	sti    
  416216:	out    dx,eax
  416217:	adc    ch,BYTE PTR [ebx]
  416219:	sbb    ch,BYTE PTR [ebx-0x5cea4df0]
  41621f:	push   cs
  416220:	mov    ebp,0x972ceeab
  416225:	cmps   BYTE PTR ds:[esi],BYTE PTR es:[edi]
  416226:	enter  0xb30e,0x64
  41622a:	cmps   DWORD PTR ds:[esi],DWORD PTR es:[edi]
  41622b:	cmp    BYTE PTR [ebx-0x140115ca],ch
  416231:	lods   al,BYTE PTR ds:[esi]
  416232:	aaa    
  416233:	inc    ebp
  416234:	fisub  WORD PTR [edx]
  416236:	mov    dl,0xa1
  416238:	dec    edi
  416239:	movs   BYTE PTR es:[edi],BYTE PTR ds:[esi]
  41623a:	arpl   WORD PTR [ecx+0x16],bp
  41623d:	lock or eax,0x81f4af2c
  416243:	rol    DWORD PTR [eax],cl
  416245:	lods   eax,DWORD PTR ds:[esi]
  416246:	ror    ch,cl
  416248:	and    al,0xd6
  41624a:	outs   dx,DWORD PTR ds:[esi]
  41624b:	inc    edx
  41624c:	ins    DWORD PTR es:[edi],dx
  41624d:	rol    DWORD PTR [edx+0x46],1
  416250:	cmp    edi,DWORD PTR [ebx]
  416252:	cmc    
  416253:	ret    
  416254:	sbb    al,0x57
  416256:	ret    0xe1b
  416259:	in     al,dx
  41625a:	adc    esp,DWORD PTR [ebp+0x4b]
  41625d:	sbb    esp,DWORD PTR [edx+0x41b2e810]
  416263:	push   0x6dc7511f
  416268:	and    ah,cl
  41626a:	das    
  41626b:	in     al,dx
  41626c:	mov    cl,0x9e
  41626e:	add    DWORD PTR [edi+0x53],ecx
  416271:	dec    ecx
  416272:	sahf   
  416273:	aad    0xbe
  416275:	mov    eax,ds:0x111309a2
  41627a:	fidivr DWORD PTR ds:0xf3369c12
  416280:	push   ecx
  416281:	mov    dh,0x6e
  416283:	lea    esp,[edi+0x5d]
  416286:	data16 jne 0x416268
  416289:	inc    ebx
  41628a:	inc    edx
  41628b:	aam    0x2a
  41628d:	scas   eax,DWORD PTR es:[edi]
  41628e:	in     al,0x34
  416290:	push   ds
  416291:	dec    ecx
  416292:	sub    al,0x2e
  416294:	mov    edi,0xc6cc8717
  416299:	stos   DWORD PTR es:[edi],eax
  41629a:	xor    DWORD PTR [eax],ebx
  41629c:	shr    eax,0xcb
  41629f:	(bad)  
  4162a0:	scas   eax,DWORD PTR es:[edi]
  4162a1:	and    BYTE PTR [ebp+0x6234cd5c],bh
  4162a7:	add    eax,0xc4c94167
  4162ac:	add    edi,DWORD PTR [ebp+0x4]
  4162af:	ud2    
  4162b1:	not    DWORD PTR [eax+0x498502d1]
  4162b7:	mov    edx,0x685f2f32
  4162bc:	test   al,0x17
  4162be:	arpl   bp,sp
  4162c0:	shl    DWORD PTR [edi-0x26],cl
  4162c3:	adc    BYTE PTR [edx+edx*8+0x52],cl
  4162c7:	ins    BYTE PTR es:[edi],dx
  4162c8:	sbb    eax,0xb6da1205
  4162cd:	cmps   BYTE PTR ds:[esi],BYTE PTR es:[edi]
  4162ce:	fadd   DWORD PTR ds:0x32098d81
  4162d4:	sub    eax,0x1415325d
  4162d9:	cmps   BYTE PTR ds:[esi],BYTE PTR es:[edi]
  4162da:	jmp    0x8773:0xd0791ecf
  4162e1:	out    0x71,al
  4162e3:	out    0x2e,eax
  4162e5:	stos   BYTE PTR es:[edi],al
  4162e6:	pop    ebp
  4162e7:	pop    ebp
  4162e8:	pushf  
  4162e9:	push   es
  4162ea:	imul   ecx,DWORD PTR [esi-0x5cdf7b5f],0xbd636469
  4162f4:	cmc    
  4162f5:	mov    al,0xc
  4162f7:	fdivrp st(3),st
  4162f9:	mov    DWORD PTR [edi+0xe],edx
  4162fc:	sahf   
  4162fd:	out    0x92,al
  4162ff:	mov    esi,0xa44c1d1d
  416304:	pop    ss
  416305:	iret   
  416306:	add    BYTE PTR [edi],dh
  416308:	ss stos DWORD PTR es:[edi],eax
  41630a:	sub    eax,0x63d11e
  41630f:	dec    esi
  416310:	mov    bl,0x99
  416312:	test   eax,0x64ad334a
  416317:	jmp    0x5b832afb
  41631c:	mov    ds:0x9c0fdbc4,eax
  416321:	sub    ebp,DWORD PTR [edi]
  416323:	xchg   edi,eax
  416324:	pop    ds
  416325:	and    ebx,eax
  416327:	push   ebp
  416328:	cmc    
  416329:	or     edx,DWORD PTR [ebp+0x47]
  41632c:	lock lods al,BYTE PTR ds:[esi]
  41632e:	lea    ebx,[edx+ebx*2]
  416331:	push   es
  416332:	sbb    al,BYTE PTR [edx+ecx*1-0x49]
  416336:	(bad)  
  416337:	jg     0x416378
  416339:	(bad)  
  41633a:	arpl   WORD PTR [ebp-0x26],di
  41633d:	jge    0x416316
  41633f:	into   
  416340:	daa    
  416341:	inc    ebx
  416342:	popa   
  416343:	pop    ds
  416344:	add    dh,BYTE PTR [eax-0x2ff4b09e]
  41634a:	stos   BYTE PTR es:[edi],al
  41634b:	dec    ebx
  41634c:	lods   al,BYTE PTR ds:[esi]
  41634d:	ds or  cl,ah
  416350:	sbb    al,0x21
  416352:	sbb    cl,BYTE PTR [ecx]
  416354:	fwait
  416355:	push   esp
  416356:	and    dl,bh
  416358:	dec    edi
  416359:	stc    
  41635a:	sub    eax,0x25582f11
  41635f:	pop    edi
  416360:	stc    
  416361:	push   0xacf4879f
  416366:	pop    ecx
  416367:	add    eax,0xf9ac2225
  41636c:	xchg   ebx,eax
  41636d:	dec    edx
  41636e:	cmp    DWORD PTR [edi],ecx
  416370:	jp     0x416366
  416372:	add    BYTE PTR [esi+0x1a],cl
  416375:	rol    esi,0xb0
  416378:	sti    
  416379:	dec    edi
  41637a:	hlt    
  41637b:	cmp    DWORD PTR [edi-0x6c],ebx
  41637e:	xor    bh,ah
  416380:	(bad)  
  416381:	fs sub edx,ebx
  416384:	pushf  
  416385:	dec    esi
  416386:	and    DWORD PTR [ebp-0x7f],0x3f
  41638a:	pop    es
  41638b:	and    DWORD PTR [ebx],ebp
  41638d:	jge    0x4163d6
  41638f:	inc    ebp
  416390:	sbb    al,0x12
  416392:	mov    es,ecx
  416394:	push   cs
  416395:	lods   al,BYTE PTR ds:[esi]
  416396:	std    
  416397:	xchg   ecx,eax
  416398:	xor    DWORD PTR [ecx],ebp
  41639a:	std    
  41639b:	cld    
  41639c:	test   DWORD PTR [ebx+0x6ef77a8e],ebx
  4163a2:	daa    
  4163a3:	aad    0x4f
  4163a5:	jo     0x416410
  4163a7:	push   ebp
  4163a8:	mov    cl,0x96
  4163aa:	xor    al,0x10
  4163ac:	imul   ebp,DWORD PTR [ebx+0x1626b755],0x997cbfda
  4163b6:	rcr    edx,0xa5
  4163b9:	imul   eax,DWORD PTR [edi-0x7],0x9ce8fc9f
  4163c0:	mov    esi,0xec59f53a
  4163c5:	test   eax,0x68c54600
  4163ca:	mov    eax,0x33d83ded
  4163cf:	lods   al,BYTE PTR ds:[esi]
  4163d0:	fwait
  4163d1:	repnz pop ebp
  4163d3:	adc    BYTE PTR [ebx+0x2fe8b7f7],ah
  4163d9:	fild   QWORD PTR [edx+ecx*1-0x500dfbf3]
  4163e0:	clc    
  4163e1:	es sbb esp,ecx
  4163e4:	jmp    0xe4d3:0x95cd641d
  4163eb:	outs   dx,BYTE PTR ds:[esi]
  4163ec:	movlps QWORD PTR [edx+0x10],xmm6
  4163f0:	sar    edi,0x5d
  4163f3:	out    dx,al
  4163f4:	sbb    al,0x5d
  4163f6:	mov    DWORD PTR [edx],ebp
  4163f8:	fld    DWORD PTR [edx-0x537d243f]
  4163fe:	popf   
  4163ff:	xchg   edi,eax
  416400:	cmp    al,BYTE PTR [esp+esi*1]
  416403:	lahf   
  416404:	addr16 xchg edi,eax
  416406:	or     eax,DWORD PTR [esi]
  416408:	mov    dl,0xce
  41640a:	retf   0x5994
  41640d:	lods   al,BYTE PTR ds:[esi]
  41640e:	fld    DWORD PTR es:[edx-0x6d]
  416412:	jno    0x41642b
  416414:	lahf   
  416415:	cld    
  416416:	push   es
  416417:	adc    DWORD PTR [eax],edx
  416419:	mov    edx,0x333fb767
  41641e:	addr16 xchg bh,al
  416421:	stos   DWORD PTR es:[edi],eax
  416422:	adc    BYTE PTR [di+0x3b42],0x2d
  416428:	dec    ebx
  416429:	test   eax,0x5dfc7b8d
  41642e:	mov    al,ds:0xe9b69fe7
  416433:	ret    
  416434:	fidiv  WORD PTR [eax-0x328b4a9e]
  41643a:	jle    0x4163ce
  41643c:	daa    
  41643d:	xor    BYTE PTR ds:0xb54c9ed5,bh
  416443:	out    dx,al
  416444:	add    DWORD PTR [ebx-0x53f77301],ecx
  41644a:	fs or  eax,0xdefe093a
  416450:	scas   eax,DWORD PTR es:[edi]
  416451:	xor    DWORD PTR [eax+0xe],ebx
  416454:	xchg   edx,eax
  416455:	mov    eax,ds:0x4ae1fb2
  41645a:	add    eax,0x299a1e30
  41645f:	or     al,0x0
  416461:	xor    esp,edi
  416463:	xor    DWORD PTR [ebp+eiz*4+0x35],edi
  416467:	xor    BYTE PTR [ebp+0x52bda298],bl
  41646d:	push   0xffffffd2
  41646f:	aad    0x1d
  416471:	sub    eax,0xb44aeba3
  416476:	mov    ebx,0xadaa93c8
  41647b:	in     eax,dx
  41647c:	and    bl,dl
  41647e:	mov    ebx,0x9d8df03b
  416483:	fcomp  DWORD PTR [ebx-0x34]
  416486:	popa   
  416487:	push   ecx
  416488:	ja     0x4164d3
  41648a:	retf   
  41648b:	xchg   esp,eax
  41648c:	das    
  41648d:	dec    eax
  41648e:	test   al,0xd
  416490:	loope  0x416470
  416492:	ror    DWORD PTR [edx+0x156004d0],1
  416498:	push   ds
  416499:	lods   eax,DWORD PTR ds:[esi]
  41649a:	fst    DWORD PTR [ebx+0x1e5170fe]
  4164a0:	(bad)  [edx-0x44]
  4164a3:	ror    BYTE PTR ds:0x244c18cb,cl
  4164a9:	cmps   BYTE PTR ds:[esi],BYTE PTR es:[edi]
  4164aa:	hlt    
  4164ab:	add    dh,BYTE PTR [ebx+0xe]
  4164ae:	inc    edx
  4164af:	mov    ds:0x32a41d1e,al
  4164b4:	and    eax,0x5e12f78
  4164b9:	jno    0x4164c8
  4164bb:	pop    edi
  4164bc:	push   esp
  4164bd:	sar    BYTE PTR ds:0xe23b4d37,0xd5
  4164c4:	clc    
  4164c5:	fs pop ecx
  4164c7:	push   ds
  4164c8:	jae    0x416476
  4164ca:	jmp    0xdc30534f
  4164cf:	pop    esi
  4164d0:	imul   ebx,DWORD PTR [edi],0x12
  4164d3:	popf   
  4164d4:	lods   al,BYTE PTR ds:[esi]
  4164d5:	scas   al,BYTE PTR es:[edi]
  4164d6:	and    dl,ah
  4164d8:	cmp    eax,0x1596440
  4164dd:	sbb    eax,0x248750ed
  4164e2:	sbb    eax,0xd6ab231d
  4164e7:	lods   al,BYTE PTR ds:[esi]
  4164e8:	mov    ch,0xaa
  4164ea:	or     eax,0x86e2816f
  4164ef:	mov    esp,0x7213943c
  4164f4:	jo     0x4164ba
  4164f6:	popa   
  4164f7:	sbb    eax,0xc95d6cee
  4164fc:	scas   eax,DWORD PTR es:[edi]
  4164fd:	in     al,dx
  4164fe:	xor    esp,edx
  416500:	push   ds
  416501:	or     dl,BYTE PTR [esp+esi*8-0xab1c3ac]
  416508:	sbb    eax,0x9e477bc5
  41650d:	bound  edx,QWORD PTR [edi+0x29aba389]
  416513:	mov    bl,0x33
  416515:	adc    al,BYTE PTR ds:0x37823b63
  41651b:	stc    
  41651c:	outs   dx,BYTE PTR ds:[esi]
  41651d:	mov    ebp,0x8dc24163
  416522:	je     0x416555
  416524:	xchg   edi,eax
  416525:	ja     0x416505
  416527:	(bad)  
  416529:	fld    DWORD PTR [esi+esi*4-0x2dac1ae2]
  416530:	xor    esp,DWORD PTR [esp+eax*8+0x26]
  416534:	mov    bl,0x3a
  416536:	fld    QWORD PTR [eax]
  416538:	sbb    ch,BYTE PTR [ebx-0x7553fb0d]
  41653e:	outs   dx,DWORD PTR ds:[esi]
  41653f:	dec    edx
  416540:	aad    0xe0
  416542:	dec    esi
  416543:	sbb    DWORD PTR [esi],ebx
  416545:	(bad)
  416548:	icebp  
  416549:	sbb    al,0xae
  41654b:	outs   dx,BYTE PTR ds:[esi]
  41654c:	das    
  41654d:	jo     0x416575
  41654f:	nop    DWORD PTR [ecx]
  416552:	or     cl,BYTE PTR [ebp+0x1c]
  416555:	cmp    DWORD PTR [edi+0x1c],edx
  416558:	jle    0x416596
  41655a:	cvtdq2ps xmm6,XMMWORD PTR [esi+0xa]
  41655e:	and    eax,0x4daac096
  416563:	or     ah,dh
  416565:	sbb    cl,BYTE PTR [edx]
  416567:	jo     0x41657a
  416569:	icebp  
  41656a:	aaa    
  41656b:	cmp    ebp,esp
  41656d:	je     0x4165a7
  41656f:	inc    ebp
  416570:	dec    ecx
  416571:	mov    BYTE PTR [esi+0x10],bh
  416574:	fnstsw WORD PTR [ecx]
  416576:	fnstcw WORD PTR [esi]
  416578:	shr    DWORD PTR [ebp+ecx*2+0x249f2bb1],1
  41657f:	push   ecx
  416580:	pop    ds
  416581:	jns    0x41655b
  416583:	lods   eax,DWORD PTR ds:[esi]
  416584:	popf   
  416585:	jg     0x4165f4
  416587:	push   es
  416588:	sub    al,0xac
  41658a:	(bad)  
  41658d:	xor    al,0x69
  41658f:	jbe    0x416591
  416591:	xchg   BYTE PTR [ebx-0x7e5623e9],dh
  416597:	ins    BYTE PTR es:[edi],dx
  416598:	mov    al,ds:0xa37bad2c
  41659d:	test   eax,0xfda6e55d
  4165a2:	rcr    BYTE PTR [ecx+edi*4-0x4a],0x6
  4165a7:	pop    ebp
  4165a8:	sub    BYTE PTR [eax-0x616c529f],bh
  4165ae:	sub    dl,al
  4165b0:	and    esp,DWORD PTR [eax+eax*8+0x2e]
  4165b4:	push   0x51956415
  4165b9:	scas   eax,DWORD PTR es:[edi]
  4165ba:	jg     0x4165d3
  4165bc:	sub    eax,0x743164a7
  4165c1:	fiadd  WORD PTR gs:[ebp+0x3b]
  4165c5:	(bad)  [esi+ecx*1+0x6f630859]
  4165cc:	and    eax,0x32a3fb1
  4165d1:	ss gs push ecx
  4165d4:	ja     0x4165fc
  4165d6:	movs   DWORD PTR es:[edi],DWORD PTR ds:[esi]
  4165d7:	xor    eax,0x101906a7
  4165dc:	ds adc edi,eax
  4165df:	mov    ecx,0xcfe4891e
  4165e4:	loop   0x41656c
  4165e6:	xchg   ebx,eax
  4165e7:	stos   DWORD PTR es:[edi],eax
  4165e8:	cwde   
  4165e9:	lods   al,BYTE PTR ds:[esi]
  4165ea:	inc    ecx
  4165eb:	dec    ebp
  4165ec:	fimul  DWORD PTR [edi+0x74]
  4165ef:	out    0xe5,al
  4165f1:	cli    
  4165f2:	fld    QWORD PTR [edi+0x18]
  4165f5:	retf   
  4165f6:	arpl   WORD PTR [ecx-0x31],ax
  4165f9:	or     BYTE PTR [edx+0x57],ch
  4165fc:	lahf   
  4165fd:	shl    bl,cl
  4165ff:	or     eax,0xda7b0ea8
  416604:	push   ds
  416605:	xchg   ecx,eax
  416606:	pushf  
  416607:	sti    
  416608:	lock call FWORD PTR [edx]
  41660b:	cs push 0x6b6decfa
  416611:	stos   BYTE PTR es:[edi],al
  416612:	jmp    0x66952073
  416617:	mov    BYTE PTR [edi],bl
  416619:	cmp    DWORD PTR gs:[ecx],ecx
  41661c:	sbb    al,0xb7
  41661e:	pop    ebp
  41661f:	(bad)  
  416620:	pop    ebx
  416621:	lods   al,BYTE PTR ds:[esi]
  416622:	dec    ebp
  416623:	aad    0x40
  416625:	movs   BYTE PTR es:[edi],BYTE PTR ds:[esi]
  416626:	dec    eax
  416627:	or     ax,0x178e
  41662b:	sahf   
  41662c:	popa   
  41662d:	jp     0x416693
  41662f:	pop    ebp
  416630:	mov    dh,0xa7
  416632:	mov    edx,0x205ae7a3
  416637:	push   cs
  416638:	xchg   BYTE PTR [ecx],dh
  41663a:	xchg   ecx,esp
  41663c:	sbb    al,0x71
  41663e:	jo     0x4165c5
  416640:	fimul  WORD PTR [esi+edx*1-0xe]
  416644:	ins    DWORD PTR es:[edi],dx
  416645:	lods   al,BYTE PTR ds:[esi]
  416646:	jmp    0xd514f659
  41664b:	pop    ebp
  41664c:	es xchg esp,eax
  41664e:	loopne 0x4166b6
  416650:	(bad)  
  416651:	jecxz  0x4166b5
  416653:	cdq    
  416654:	mov    dh,0x9a
  416656:	push   ss
  416657:	fsubr  QWORD PTR [edi]
  416659:	inc    esi
  41665a:	adc    bl,BYTE PTR [eax+0xe0ac1cb]
  416660:	sbb    DWORD PTR [eax],ebx
  416662:	or     eax,ebp
  416664:	pop    ebx
  416665:	push   0x65
  416667:	push   ecx
  416668:	lock stos DWORD PTR es:[edi],eax
  41666a:	(bad)  
  41666b:	push   ss
  41666c:	addr16 jb 0x4166be
  41666f:	adc    BYTE PTR [edi+ecx*2-0x2af42f23],ch
  416676:	rol    edx,1
  416678:	mov    ebx,0x560b4bf7
  41667d:	and    BYTE PTR [ebx+ebp*8-0x51],0xac
  416682:	jecxz  0x416675
  416684:	cmp    eax,0x1aff9629
  416689:	inc    edx
  41668a:	and    ah,BYTE PTR [edi]
  41668c:	stos   BYTE PTR es:[edi],al
  41668d:	jnp    0x4166b9
  41668f:	adc    eax,0x7998592a
  416694:	adc    BYTE PTR [eax+0x3879764],0xd6
  41669b:	cwde   
  41669c:	(bad)  
  41669d:	stc    
  41669e:	and    cl,BYTE PTR [esi]
  4166a0:	jmp    0x4166f7
  4166a2:	call   0x6f99:0x62c4b78b
  4166a9:	pop    ebx
  4166aa:	hlt    
  4166ab:	sbb    eax,DWORD PTR ds:[eax]
  4166ae:	mov    esp,0x332ae90a
  4166b3:	jns    0x4166e5
  4166b5:	retf   0x6f52
  4166b8:	xchg   esi,eax
  4166b9:	inc    ebp
  4166ba:	add    eax,0x64d8d11b
  4166bf:	test   ebp,esp
  4166c1:	jno    0x416734
  4166c3:	out    0xb,eax
  4166c5:	mov    BYTE PTR [edx+0xd14a01],dh
  4166cb:	pop    edx
  4166cc:	stos   DWORD PTR es:[edi],eax
  4166cd:	sub    al,0x84
  4166cf:	imul   esp,DWORD PTR es:[edx],0x53
  4166d3:	cmp    eax,0x80ff5213
  4166d8:	sbb    eax,0xba318708
  4166dd:	jb     0x41674c
  4166df:	xchg   esi,eax
  4166e0:	nop
  4166e1:	shr    BYTE PTR [ebp+edx*8-0x40],0xa
  4166e6:	(bad)  
  4166e7:	ror    DWORD PTR [ebp+0x7bd182f1],1
  4166ed:	popf   
  4166ee:	jg     0x416734
  4166f0:	jge    0x416766
  4166f2:	repnz movs BYTE PTR es:[edi],BYTE PTR ds:[esi]
  4166f4:	push   eax
  4166f5:	and    BYTE PTR [ebx-0x2cd2cf],dl
  4166fb:	ins    DWORD PTR es:[edi],dx
  4166fc:	add    ebp,DWORD PTR [ebx]
  4166fe:	loopne 0x41670c
  416700:	bound  ebx,QWORD PTR [ebp+0x7c409dbc]
  416706:	mov    WORD PTR [esi],gs
  416708:	cld    
  416709:	mul    BYTE PTR [edx+0x1]
  41670c:	hlt    
  41670d:	sub    al,0xd7
  41670f:	cmp    al,0xbf
  416711:	nop
  416712:	lods   eax,DWORD PTR ds:[esi]
  416713:	push   cs
  416714:	dec    eax
  416715:	mov    esi,0x511e037a
  41671a:	fs and al,0x57
  41671d:	adc    eax,0xa9d2217b
  416722:	movs   DWORD PTR es:[edi],DWORD PTR ds:[esi]
  416723:	(bad)  
  416724:	inc    edi
  416725:	data16 scas al,BYTE PTR es:[edi]
  416727:	test   DWORD PTR [eax-0x166e4e2f],edx
  41672d:	xchg   edx,eax
  41672e:	fs xchg ebp,eax
  416730:	icebp  
  416731:	sub    DWORD PTR [eax+0x11bd9b0b],edi
  416737:	push   cs
  416738:	(bad)  
  416739:	xchg   edx,eax
  41673a:	dec    ebp
  41673b:	imul   esp,DWORD PTR [esp+ecx*4+0x751fa9dd],0xffffffb2
  416743:	push   eax
  416744:	std    
  416745:	xchg   BYTE PTR [eax-0x5d],dh
  416748:	retf   
  416749:	cwde   
  41674a:	mov    al,ds:0x7eaf5f0f
  41674f:	sub    bl,BYTE PTR ds:0x16f323d9
  416755:	cmp    bh,dh
  416757:	ror    DWORD PTR [eax-0x6919c656],cl
  41675d:	loope  0x416715
  41675f:	sbb    DWORD PTR [ecx+eax*8],edx
  416762:	mov    cl,0x6
  416764:	ds push edx
  416766:	bound  esi,QWORD PTR [ebp+0x79]
  416769:	add    al,0x7
  41676b:	inc    ebx
  41676c:	dec    ebx
  41676d:	add    BYTE PTR [edx-0x4493470f],cl
  416773:	je     0x416734
  416775:	mul    cl
  416777:	sub    DWORD PTR [eax+0x143dd0b5],0x3a41644b
  416781:	mov    ch,0xe7
  416783:	mov    esp,0x108282cf
  416788:	jge    0x416803
  41678a:	pop    ebx
  41678b:	lea    ebx,[ecx*2+0x202b49f]
  416792:	repz adc bh,ch
  416795:	stos   DWORD PTR es:[edi],eax
  416796:	aad    0x60
  416798:	cld    
  416799:	lock in al,0xf8
  41679c:	(bad)
  4167a1:	dec    eax
  4167a2:	out    0x9c,al
  4167a4:	in     al,0xaa
  4167a6:	sub    ecx,ecx
  4167a8:	push   es
  4167a9:	jmp    0x6a407763
  4167ae:	and    al,0x11
  4167b0:	jns    0x416763
  4167b2:	pop    esp
  4167b3:	adc    DWORD PTR [edx],esp
  4167b5:	cwde   
  4167b6:	(bad)  
  4167b7:	in     al,dx
  4167b8:	xor    eax,0xc109b6f9
  4167bd:	cli    
  4167be:	xchg   ebx,ecx
  4167c0:	js     0x416761
  4167c2:	gs dec esi
  4167c4:	out    dx,eax
  4167c5:	test   DWORD PTR [edi-0x22e4e193],eax
  4167cb:	mov    ecx,0x3a68611d
  4167d0:	push   eax
  4167d1:	dec    eax
  4167d2:	xor    eax,0x61aa1f53
  4167d7:	push   eax
  4167d8:	call   0x9a9d:0x4b6d2328
  4167df:	lods   al,BYTE PTR es:[esi]
  4167e1:	(bad)  
  4167e2:	(bad)  
  4167e3:	stc    
  4167e4:	dec    eax
  4167e5:	bound  esp,QWORD PTR [edi+esi*4+0xf7c78a7]
  4167ec:	inc    esi
  4167ed:	call   0xf55ed286
  4167f2:	test   al,0xf6
  4167f4:	aad    0x92
  4167f6:	mov    esp,0xc9a8bb07
  4167fb:	xor    BYTE PTR [ecx],cl
  4167fd:	pop    edx
  4167fe:	add    eax,0xa8b3d2b
  416803:	jg     0x416824
  416805:	push   ecx
  416806:	mov    ds:0xbd1d179,al
  41680b:	pusha  
  41680c:	aas    
  41680d:	test   eax,0xf856bcc5
  416812:	sub    al,0xde
  416814:	mov    ch,0xfd
  416816:	push   0xffffffb2
  416818:	xchg   edi,eax
  416819:	add    al,0x63
  41681b:	imul   ecx,DWORD PTR [ebp-0x348e95ef],0x6f0e95f5
  416825:	call   0x4df0:0xdd1ef545
  41682c:	cwde   
  41682d:	mov    edi,0xabfa2c90
  416832:	fstp   QWORD PTR [edx]
  416834:	imul   esi,DWORD PTR [edi-0x31fc8d8c],0x23
  41683b:	jmp    0x95bb615f
  416840:	mov    eax,0x76c9a4bc
  416845:	mov    al,al
  416847:	cmp    DWORD PTR ds:0x46a0a82d,ebx
  41684d:	xchg   edx,eax
  41684e:	cmps   BYTE PTR ds:[esi],BYTE PTR es:[edi]
  41684f:	adc    ch,BYTE PTR [eax+ecx*2]
  416852:	pop    edx
  416853:	fidiv  WORD PTR ds:0x370febcd
  416859:	ficomp WORD PTR [ecx+0x45]
  41685c:	dec    ebx
  41685d:	sub    al,0xd5
  41685f:	or     eax,0x632bbe2d
  416864:	push   ds
  416865:	leave  
  416866:	movs   BYTE PTR es:[edi],BYTE PTR ds:[esi]
  416867:	push   eax
  416868:	xchg   edi,eax
  416869:	sar    DWORD PTR [ecx-0x5e543a86],cl
  41686f:	shl    dh,1
  416871:	mov    cl,0xd0
  416873:	cmp    esp,DWORD PTR [ecx-0x15]
  416876:	(bad)  
  416877:	icebp  
  416878:	cmp    al,BYTE PTR [esi+0x65]
  41687b:	ror    DWORD PTR [ebx-0x32],1
  41687e:	scas   al,BYTE PTR es:[edi]
  41687f:	popf   
  416880:	adc    edx,DWORD PTR [esi+0x7c9ad185]
  416886:	push   esp
  416887:	sub    eax,0x21427297
  41688c:	sbb    al,0x3d
  41688e:	pop    ecx
  41688f:	and    bl,dh
  416891:	test   eax,0xba08acaf
  416896:	pushf  
  416897:	sbb    DWORD PTR [edi],ebx
  416899:	xor    ecx,edi
  41689b:	dec    esp
  41689c:	(bad)  
  41689d:	js     0x41685b
  41689f:	nop
  4168a0:	ds jbe 0x4168f8
  4168a3:	push   ebp
  4168a4:	shl    DWORD PTR [eax+0x19eff479],0x3f
  4168ab:	jae    0x41689e
  4168ad:	dec    edi
  4168ae:	xchg   ebx,eax
  4168af:	or     eax,0xd7894b5b
  4168b4:	sahf   
  4168b5:	pop    edx
  4168b6:	jb     0x416912
  4168b8:	xor    ecx,DWORD PTR [ecx+0x62]
  4168bb:	adc    ecx,DWORD PTR [ecx]
  4168bd:	stc    
  4168be:	nop
  4168bf:	and    esi,0xffffffd9
  4168c2:	(bad)  
  4168c3:	push   ss
  4168c4:	je     0x416930
  4168c6:	arpl   bp,di
  4168c8:	mov    bp,0xbd14
  4168cc:	pop    ss
  4168cd:	movs   DWORD PTR es:[edi],DWORD PTR ds:[esi]
  4168ce:	sub    bh,ch
  4168d0:	retf   
  4168d1:	cmc    
  4168d2:	fsub   QWORD PTR [edx+0x2a]
  4168d5:	lods   al,BYTE PTR ds:[esi]
  4168d6:	pop    edi
  4168d7:	push   0x6
  4168d9:	dec    eax
  4168da:	and    ecx,DWORD PTR [ecx-0xaacdce]
  4168e0:	cmps   DWORD PTR ds:[esi],DWORD PTR es:[edi]
  4168e2:	hlt    
  4168e3:	adc    al,0x5a
  4168e5:	sub    al,0x1a
  4168e7:	std    
  4168e8:	call   0x612fa55c
  4168ed:	cmp    eax,0xb05d564
  4168f2:	out    0x9f,al
  4168f4:	inc    edi
  4168f5:	jns    0x4168ea
  4168f7:	lahf   
  4168f8:	sub    dl,BYTE PTR [edx-0x23]
  4168fb:	or     al,0xd4
  4168fd:	in     al,dx
  4168fe:	push   ebx
  4168ff:	add    DWORD PTR ds:0xf79b529,ebx
  416905:	out    dx,eax
  416906:	sti    
  416907:	retf   0xc37d
  41690a:	std    
  41690b:	nop
  41690c:	push   edi
  41690d:	push   es
  41690e:	or     al,0xf
  416910:	mov    edi,0x5b581c7e
  416915:	jae    0x416936
  416917:	or     BYTE PTR [esp-0x6c],bh
  41691b:	aas    
  41691c:	sbb    BYTE PTR ds:0x64f3b122,ch
  416922:	mov    bh,0x63
  416924:	in     eax,dx
  416925:	sbb    eax,0x7d7302db
  41692a:	scas   al,BYTE PTR es:[edi]
  41692b:	push   cs
  41692c:	and    ecx,DWORD PTR [edi+eiz*8]
  41692f:	ret    
  416930:	sbb    al,0x8d
  416932:	pop    esi
  416933:	xor    al,0xdc
  416935:	sti    
  416936:	fs aaa 
  416938:	xlat   BYTE PTR ds:[ebx]
  416939:	int3   
  41693a:	lds    ecx,FWORD PTR [edi+ecx*2]
  41693d:	aam    0xd3
  41693f:	push   cs
  416940:	in     eax,dx
  416941:	push   ss
  416942:	sbb    edi,ebp
  416944:	pop    ds
  416945:	jns    0x416997
  416947:	int    0x13
  416949:	mov    dl,0xc7
  41694b:	ss add al,0xad
  41694e:	in     eax,dx
  41694f:	es (bad) 
  416951:	jl     0x416917
  416953:	jmp    0x4169ac
  416955:	fiadd  DWORD PTR [edx+0x620eda18]
  41695b:	fstp   DWORD PTR [edx+0x39]
  41695e:	push   0x8ddbd70a
  416963:	pushf  
  416964:	fldcw  WORD PTR [ebx+edi*8]
  416967:	adc    BYTE PTR [esi],bh
  416969:	adc    DWORD PTR [edx-0x17],ebp
  41696c:	mov    dh,0xef
  41696e:	bound  ecx,QWORD PTR [esi]
  416970:	int    0xa9
  416972:	cmp    eax,0x27b320ec
  416977:	push   cs
  416978:	push   0x74c6b745
  41697d:	inc    ebx
  41697e:	test   DWORD PTR gs:[esi-0x5179fba2],esp
  416985:	outs   dx,BYTE PTR ds:[esi]
  416986:	shr    DWORD PTR [esp+edx*8],0x2f
  41698a:	fcmovb st,st(4)
  41698c:	fstp   DWORD PTR [eax+0x202a90e4]
  416992:	lds    ebx,FWORD PTR [edi]
  416994:	adc    ah,BYTE PTR [ecx+0x3c]
  416997:	inc    eax
  416998:	mov    edx,0xa8cc999f
  41699d:	add    eax,0x8f2609e7
  4169a2:	inc    ebp
  4169a3:	jmp    0x2a1f:0xe5ea5fb1
  4169aa:	daa    
  4169ab:	adc    DWORD PTR [edx*8-0x3590350e],ebx
  4169b2:	out    dx,al
  4169b3:	sbb    BYTE PTR [ecx+esi*2],al
  4169b6:	adc    DWORD PTR [ecx+0x7d],esi
  4169b9:	adc    ch,BYTE PTR [edi-0x47]
  4169bc:	jne    0x4169f2
  4169be:	in     eax,0x87
  4169c0:	sbb    al,0xb5
  4169c2:	ss int 0x5f
  4169c5:	sub    ch,cl
  4169c7:	sub    al,0x23
  4169c9:	xchg   BYTE PTR [ecx],ah
  4169cb:	jnp    0x416969
  4169cd:	add    dh,BYTE PTR [edx+0x62431f53]
  4169d3:	aad    0x1f
  4169d5:	jno    0x4169ec
  4169d7:	push   esi
  4169d8:	nop
  4169d9:	call   0xd60d:0x39315e6c
  4169e0:	sub    ch,BYTE PTR [ebx-0x1d7582b4]
  4169e6:	add    al,0xb7
  4169e8:	add    BYTE PTR [ecx+0x5357424c],al
  4169ee:	dec    ecx
  4169ef:	fwait
  4169f0:	loope  0x416a23
  4169f2:	mov    ds:0x58daabbb,eax
  4169f7:	punpckhwd mm3,QWORD PTR [ecx-0x36e9b6f9]
  4169fe:	or     BYTE PTR [edx*2+0x64e997bb],ch
  416a05:	shl    DWORD PTR [ebx+0xe],1
  416a08:	mov    bh,0x58
  416a0a:	add    eax,DWORD PTR [edx]
  416a0c:	jg     0x4169d5
  416a0e:	loope  0x416a11
  416a10:	push   eax
  416a11:	mov    edi,0x92a366e3
  416a16:	fs stc 
  416a18:	ret    
  416a19:	aad    0x97
  416a1b:	xor    BYTE PTR [ebx-0x7fef3a07],ah
  416a21:	add    eax,0x251f259a
  416a26:	sbb    al,0x35
  416a28:	xor    BYTE PTR [ecx],dl
  416a2a:	pop    ds
  416a2b:	push   ss
  416a2c:	repnz stos DWORD PTR es:[edi],eax
  416a2e:	aad    0x0
  416a30:	ins    DWORD PTR es:[edi],dx
  416a31:	inc    edi
  416a32:	sub    eax,0x995670a
  416a37:	ss pop esi
  416a39:	scas   eax,DWORD PTR es:[edi]
  416a3a:	popa   
  416a3b:	inc    ebp
  416a3c:	pop    edx
  416a3d:	add    eax,0x39fdc23
  416a42:	ja     0x416a48
  416a44:	dec    esp
  416a45:	repnz iret 
  416a47:	dec    ebp
  416a48:	fwait
  416a49:	add    eax,0x37901e56
  416a4e:	cwde   
  416a4f:	pop    ds
  416a50:	inc    ebp
  416a51:	lahf   
  416a52:	gs stc 
  416a54:	xchg   ecx,eax
  416a55:	pop    esp
  416a56:	mov    bh,0x11
  416a58:	ja     0x416ac1
  416a5a:	adc    BYTE PTR ss:[edx+esi*1],dh
  416a5e:	lods   al,BYTE PTR ds:[esi]
  416a5f:	mov    BYTE PTR [edi*8-0x73e9fca6],bl
  416a66:	pop    ebp
  416a68:	inc    eax
  416a69:	(bad)  [edi-0x7486d320]
  416a6f:	cmp    eax,ebx
  416a71:	stos   DWORD PTR es:[edi],eax
  416a72:	xchg   ebp,eax
  416a73:	xor    BYTE PTR [edx+ecx*1+0x23c7b2af],bl
  416a7a:	mov    al,0xff
  416a7c:	loope  0x416a09
  416a7e:	test   DWORD PTR gs:[esi-0x6c296706],edx
  416a85:	(bad)  
  416a87:	adc    DWORD PTR [edx+esi*1],edi
  416a8a:	mov    cl,0xae
  416a8c:	push   ds
  416a8d:	cdq    
  416a8e:	aam    0x1a
  416a90:	lahf   
  416a91:	and    eax,0x96a3460e
  416a96:	test   eax,0x73535627
  416a9b:	popf   
  416a9c:	rcr    BYTE PTR [esi+0x1d],0x10
  416aa0:	sbb    ch,cl
  416aa2:	aaa    
  416aa3:	jl     0x416a2b
  416aa5:	mov    eax,ds:0x5f5fb489
  416aaa:	jbe    0x416b22
  416aac:	(bad)  
  416aad:	out    dx,al
  416aae:	pop    ecx
  416aaf:	or     cl,BYTE PTR [edi]
  416ab1:	ret    
  416ab2:	and    al,cl
  416ab4:	jo     0x416ae6
  416ab6:	test   DWORD PTR [eax],eax
  416ab8:	mov    bl,0xe
  416aba:	gs cdq 
  416abc:	stos   BYTE PTR es:[edi],al
  416abd:	rol    BYTE PTR [edi+0x5a],cl
  416ac0:	daa    
  416ac1:	fs addr16 or eax,0xbc25049f
  416ac8:	pop    ds
  416ac9:	adc    DWORD PTR [edi+ebp*2-0x19],ebx
  416acd:	xchg   esp,eax
  416ace:	neg    DWORD PTR [edx-0x3c]
  416ad1:	stos   DWORD PTR es:[edi],eax
  416ad2:	test   eax,0x66be0c0c
  416ad7:	fs mov ch,0x22
  416ada:	inc    edi
  416adb:	jecxz  0x416a7b
  416add:	cmps   BYTE PTR ds:[esi],BYTE PTR es:[edi]
  416ade:	add    eax,DWORD PTR [edi-0x2b7aef94]
  416ae4:	sbb    al,0x4d
  416ae6:	inc    esp
  416ae7:	aas    
  416ae8:	or     eax,ecx
  416aea:	test   ebp,edx
  416aec:	inc    edi
  416aed:	sub    al,0x4
  416aef:	psubsb mm7,mm3
  416af2:	mov    eax,ds:0x92091c56
  416af7:	mov    dh,BYTE PTR [edi-0xd]
  416afa:	sub    cl,al
  416afc:	outs   dx,DWORD PTR ds:[esi]
  416afd:	out    0x97,al
  416aff:	dec    edi
  416b00:	lahf   
  416b01:	mov    eax,0x88e009cc
  416b06:	scas   al,BYTE PTR es:[edi]
  416b07:	push   edx
  416b08:	sub    al,0xa9
  416b0a:	jmp    DWORD PTR [eax+0x43]
  416b0d:	cmc    
  416b0e:	pop    ebp
  416b0f:	jne    0x416b3a
  416b11:	bound  edi,QWORD PTR [ebp+esi*1+0xd8995bf]
  416b18:	add    al,0x99
  416b1a:	ss jge 0x416b61
  416b1d:	and    eax,0xc6bc3dd9
  416b22:	sub    ebx,DWORD PTR [ebp+0x1013b4bf]
  416b28:	sbb    al,0x90
  416b2a:	jns    0x416b29
  416b2c:	xor    eax,0xd85927fc
  416b31:	and    DWORD PTR [ebx-0x31],0x3b
  416b35:	fild   WORD PTR [ebx-0x609efc24]
  416b3b:	div    DWORD PTR [ebx+ebp*8-0x2]
  416b3f:	or     ch,ah
  416b41:	jl     0x416b68
  416b43:	js     0x416bbc
  416b45:	pop    ecx
  416b46:	bnd jl 0x1fcaf796
  416b4d:	cmc    
  416b4e:	jmp    0x26015db2
  416b53:	xor    bl,dh
  416b55:	stos   BYTE PTR es:[edi],al
  416b56:	leave  
  416b57:	js     0x416ae8
  416b59:	and    cl,BYTE PTR [edi]
  416b5b:	jecxz  0x416b01
  416b5d:	ja     0x416b9e
  416b5f:	stc    
  416b60:	dec    esi
  416b61:	imul   esp,DWORD PTR [ebp+0x9],0x333e6bb1
  416b68:	stos   DWORD PTR es:[edi],eax
  416b69:	add    al,0x60
  416b6b:	repnz and al,0xe9
  416b6e:	mov    bl,BYTE PTR [ebx-0x259c477d]
  416b74:	pop    ds
  416b75:	stos   DWORD PTR es:[edi],eax
  416b76:	add    eax,0x61d8cdb4
  416b7b:	pusha  
  416b7c:	dec    ebx
  416b7d:	lods   al,BYTE PTR ds:[esi]
  416b7e:	popa   
  416b7f:	cwde   
  416b80:	pop    edi
  416b81:	fnsave [eax-0x5f]
  416b84:	push   esp
  416b85:	push   esi
  416b86:	cli    
  416b87:	enter  0x2e2c,0x5d
  416b8b:	in     eax,0x52
  416b8d:	test   eax,0xaa0990d4
  416b92:	arpl   WORD PTR gs:[ecx-0x21fc85a6],si
  416b99:	push   edi
  416b9a:	sahf   
  416b9b:	sub    eax,0x2d62ed3a
  416ba0:	out    0x7,al
  416ba2:	test   eax,0x62749f3f
  416ba7:	aam    0x9f
  416ba9:	sbb    al,0x2
  416bab:	xor    BYTE PTR ds:0x3f17fb42,bh
  416bb1:	daa    
  416bb2:	cmp    DWORD PTR fs:[ebx+0x31],eax
  416bb6:	aam    0xba
  416bb8:	pop    ebx
  416bb9:	pop    ss
  416bba:	mov    ss,edx
  416bbc:	push   ds
  416bbd:	retf   
  416bbe:	or     eax,0xa8197ac3
  416bc3:	(bad)  
  416bc4:	adc    DWORD PTR [ecx],esi
  416bc6:	fnsave [ecx-0x7b]
  416bc9:	mov    ds,WORD PTR [esi]
  416bcb:	push   ecx
  416bcc:	mov    ecx,0xfe8edc52
  416bd1:	lods   al,BYTE PTR ds:[esi]
  416bd2:	adc    eax,0x96ed8b2d
  416bd7:	int    0xd5
  416bd9:	call   0x5d92:0x100118e
  416be0:	ins    DWORD PTR es:[edi],dx
  416be1:	and    al,0x84
  416be3:	test   eax,0x8a44df2
  416be8:	sub    eax,DWORD PTR [ecx+eiz*1+0x691dc50e]
  416bef:	or     BYTE PTR ds:0x52852f61,bl
  416bf5:	jo     0x416bdb
  416bf7:	cmp    DWORD PTR [esi-0x57],edx
  416bfa:	pop    ebp
  416bfb:	push   es
  416bfc:	pop    edi
  416bfd:	pop    ss
  416bfe:	push   es
  416bff:	cwde   
  416c00:	dec    esi
  416c01:	push   eax
  416c02:	jmp    0x416c7b
  416c04:	pop    ss
  416c05:	leave  
  416c06:	pushf  
  416c07:	lds    edx,FWORD PTR [edi+edx*1]
  416c0a:	xchg   ebx,eax
  416c0b:	jbe    0x416c17
  416c0d:	test   bh,cl
  416c0f:	adc    BYTE PTR [ebx+0x5091e840],ch
  416c15:	(bad)  
  416c16:	lea    ecx,[edi]
  416c18:	pop    ds
  416c19:	ins    BYTE PTR es:[edi],dx
  416c1a:	and    al,0xb2
  416c1c:	xor    BYTE PTR [edx+eiz*2-0x79e48357],bh
  416c23:	out    dx,al
  416c24:	pop    ss
  416c25:	pushf  
  416c26:	push   eax
  416c27:	or     al,0xf
  416c29:	fidivr WORD PTR [esp+ebx*4]
  416c2c:	les    ebp,FWORD PTR [ebx]
  416c2e:	je     0x416cac
  416c30:	push   ds
  416c31:	cdq    
  416c32:	neg    BYTE PTR [edx-0x51]
  416c35:	xor    DWORD PTR [ebx+0x985b58a],eax
  416c3b:	or     eax,0x692d5d76
  416c40:	push   ebp
  416c41:	cwde   
  416c42:	arpl   WORD PTR [ebp-0x530623c3],dx
  416c48:	shrd   DWORD PTR [eax+0xd],edi,0x1
  416c4d:	repnz dec ebx
  416c4f:	xor    BYTE PTR [edi-0x1b],al
  416c52:	inc    ebp
  416c53:	adc    BYTE PTR [esi-0x3dd475be],dh
  416c59:	call   0x515f5674
  416c5e:	sbb    DWORD PTR [ebp+0xe],0xffffff8b
  416c62:	lock js 0x416c27
  416c65:	cmp    DWORD PTR ds:0x55aa0250,eax
  416c6b:	dec    ebp
  416c6c:	outs   dx,DWORD PTR ds:[esi]
  416c6d:	adc    BYTE PTR [esp+esi*2+0x318c211f],0x8a
  416c75:	arpl   dx,sp
  416c77:	sti    
  416c78:	dec    edx
  416c79:	add    al,0x22
  416c7b:	cmp    edi,ecx
  416c7d:	mov    edi,0x3ed10e11
  416c82:	leave  
  416c83:	push   ds
  416c84:	scas   al,BYTE PTR es:[edi]
  416c85:	outs   dx,DWORD PTR ds:[esi]
  416c86:	retf   
  416c87:	mov    esp,0xdc93c8f
  416c8c:	shl    DWORD PTR [eax+0x9],0x0
  416c90:	mov    edi,0x890d9dfe
  416c95:	jecxz  0x416cd9
  416c97:	cmc    
  416c98:	movs   BYTE PTR es:[edi],BYTE PTR ds:[esi]
  416c99:	hlt    
  416c9a:	jbe    0x416c2e
  416c9c:	pop    ds
  416c9d:	popf   
  416c9e:	ret    0x170b
  416ca1:	add    esp,DWORD PTR [esi-0x7a71e6c9]
  416ca7:	lods   eax,DWORD PTR ds:[esi]
  416ca8:	pop    eax
  416ca9:	je     0x416c5d
  416cab:	inc    esp
  416cac:	xchg   ecx,eax
  416cad:	xor    eax,0xd1f8eb3
  416cb2:	push   es
  416cb3:	mov    bl,0x75
  416cb5:	neg    BYTE PTR [ebx-0x74]
  416cb8:	mov    gs,WORD PTR [ebx-0x7dfe784b]
  416cbe:	xchg   esi,eax
  416cbf:	and    esp,DWORD PTR [edi+0x27]
  416cc2:	stc    
  416cc3:	in     al,0xd0
  416cc5:	inc    edi
  416cc6:	sub    BYTE PTR [ecx],bh
  416cc8:	push   cs
  416cc9:	neg    DWORD PTR [eax+0x10]
  416ccc:	xchg   edi,eax
  416ccd:	dec    esp
  416cce:	(bad)  
  416ccf:	cmp    eax,0x1079c637
  416cd4:	aaa    
  416cd5:	out    dx,eax
  416cd6:	xor    edx,edx
  416cd8:	pop    ds
  416cd9:	adc    eax,0x50561773
  416cde:	pop    ds
  416cdf:	xchg   esp,eax
  416ce0:	xor    esp,DWORD PTR [esi+0x5f5e30f5]
  416ce6:	dec    eax
  416ce7:	shr    dl,1
  416ce9:	pop    ebx
  416cea:	mov    dl,0xd
  416cec:	push   ds
  416ced:	jge    0x416d4e
  416cef:	xchg   esi,eax
  416cf0:	nop
  416cf1:	retf   0xe530
  416cf4:	fisubr DWORD PTR [ebp+eiz*2+0xeaacba3]
  416cfb:	popa   
  416cfc:	mov    dl,0x54
  416cfe:	jle    0x416ce3
  416d00:	cmp    BYTE PTR [ecx],al
  416d02:	aas    
  416d03:	sub    ebp,0x570e033e
  416d09:	lods   al,BYTE PTR ds:[esi]
  416d0a:	icebp  
  416d0b:	xchg   ebx,eax
  416d0c:	(bad)  
  416d0d:	jl     0x416ceb
  416d0f:	and    ch,BYTE PTR [edx-0x33]
  416d12:	and    BYTE PTR ds:0xf1659235,bl
  416d18:	push   esi
  416d19:	jnp    0x416cc0
  416d1b:	movs   DWORD PTR es:[edi],DWORD PTR ds:[esi]
  416d1c:	retf   
  416d1d:	dec    eax
  416d1e:	jge    0x416d2d
  416d20:	or     esi,DWORD PTR fs:[esi-0x22cee336]
  416d27:	iret   
  416d28:	dec    edx
  416d29:	loope  0x416da0
  416d2b:	jp     0x416d71
  416d2d:	stos   BYTE PTR es:[edi],al
  416d2e:	pop    ecx
  416d2f:	inc    ecx
  416d30:	je     0x416d1b
  416d32:	pusha  
  416d33:	jne    0x416d57
  416d35:	cmp    cl,ch
  416d37:	scas   al,BYTE PTR es:[edi]
  416d38:	push   eax
  416d39:	lods   al,BYTE PTR ds:[esi]
  416d3a:	jae    0x416d34
  416d3c:	inc    edx
  416d3d:	call   0x1f11:0xab24f365
  416d44:	out    dx,al
  416d45:	fisubr DWORD PTR [esi-0x19fd8da3]
  416d4b:	data16 fild QWORD PTR [esi+0x65]
  416d4f:	popf   
  416d50:	pushf  
  416d51:	pop    ecx
  416d52:	inc    ecx
  416d53:	pop    edi
  416d54:	repz shl BYTE PTR [esi+ecx*1],cl
  416d58:	sub    al,0x16
  416d5a:	ret    
  416d5b:	cmps   DWORD PTR ds:[esi],DWORD PTR es:[edi]
  416d5c:	out    0xb0,al
  416d5e:	pop    edx
  416d5f:	inc    edi
  416d60:	(bad)
  416d64:	aad    0xa1
  416d66:	sub    BYTE PTR [edi+esi*4+0x5f0dcb1e],ch
  416d6d:	lahf   
  416d6e:	xchg   esi,eax
  416d6f:	pop    ss
  416d70:	sbb    al,0x35
  416d72:	out    0x9a,al
  416d74:	pop    edx
  416d76:	fadd   QWORD PTR [esi]
  416d78:	adc    al,0xc3
  416d7a:	icebp  
  416d7b:	sub    ebx,0xffffffc9
  416d7e:	push   eax
  416d7f:	aad    0x1d
  416d81:	es cmp eax,0xad0489b
  416d87:	sbb    esp,DWORD PTR [eax]
  416d89:	dec    esi
  416d8a:	or     ebp,DWORD PTR [ebp+0x2960c07f]
  416d90:	imul   edx,ecx,0xab2d3cd2
  416d96:	xchg   ebp,eax
  416d97:	sbb    al,0x17
  416d99:	pop    esi
  416d9a:	push   ecx
  416d9b:	mov    ds:0x412ece00,al
  416da0:	xchg   edx,eax
  416da1:	push   edi
  416da2:	popa   
  416da3:	mov    ebp,0x8133dd3f
  416da8:	jbe    0x416d55
  416daa:	in     eax,0xd8
  416dac:	aam    0x18
  416dae:	pop    esp
  416daf:	dec    ebx
  416db0:	jae    0x416dd3
  416db2:	sbb    dl,bl
  416db4:	xlat   BYTE PTR ds:[ebx]
  416db5:	(bad)  
  416db6:	arpl   WORD PTR [ecx-0xe],si
  416db9:	jno    0x416d69
  416dbb:	leave  
  416dbc:	mov    ds:0xbe0d7cd2,eax
  416dc1:	ret    0x8e3
  416dc4:	jecxz  0x416d8e
  416dc6:	mov    bl,0x73
  416dc8:	jnp    0x416d73
  416dca:	ins    BYTE PTR es:[edi],dx
  416dcb:	mov    edi,0x11855bd
  416dd0:	jecxz  0x416e02
  416dd2:	inc    esi
  416dd3:	add    al,0x84
  416dd5:	aad    0x3b
  416dd7:	enter  0x3ac5,0x25
  416ddb:	mov    dl,0xd2
  416ddd:	pop    ebx
  416dde:	inc    esi
  416ddf:	int    0x5c
  416de1:	push   0x9d0a24d
  416de6:	adc    al,BYTE PTR [edi]
  416de8:	fwait
  416de9:	jno    0x416db3
  416deb:	movq   mm2,mm1
  416dee:	and    dl,ch
  416df0:	sbb    al,0xdd
  416df2:	inc    esp
  416df3:	jnp    0x416dcd
  416df5:	and    cl,BYTE PTR [esi+0x1ac6667]
  416dfb:	push   eax
  416dfc:	xlat   BYTE PTR ds:[ebx]
  416dfd:	inc    edi
  416dfe:	xchg   DWORD PTR [esi*1+0x95469d2],ebp
  416e05:	mov    eax,ds:0xd27de963
  416e0a:	add    cl,BYTE PTR [edi+ecx*4-0xdf007a6]
  416e11:	inc    edx
  416e12:	sbb    BYTE PTR ds:0x2ca5311c,0x66
  416e19:	mov    dl,0x65
  416e1b:	inc    ebx
  416e1c:	jmp    0x4ff2df5a
  416e21:	aaa    
  416e22:	pop    edi
  416e23:	xor    ebx,DWORD PTR [edi+ebp*4]
  416e26:	mul    BYTE PTR [eax]
  416e28:	xchg   DWORD PTR [ebx-0x65],esp
  416e2b:	daa    
  416e2c:	cmps   BYTE PTR ds:[esi],BYTE PTR es:[edi]
  416e2d:	ror    BYTE PTR [edi+0x70f01c0b],0x54
  416e34:	out    dx,al
  416e35:	das    
  416e36:	push   esp
  416e37:	jo     0x416eb8
  416e39:	loopne 0x416e1f
  416e3b:	or     al,0x97
  416e3d:	(bad)  
  416e3e:	jmp    0xf44e:0x3f5e18f7
  416e45:	jl     0x416e90
  416e47:	stc    
  416e48:	pop    esi
  416e49:	cmp    esp,edi
  416e4b:	movs   DWORD PTR es:[edi],DWORD PTR ds:[esi]
  416e4c:	popa   
  416e4d:	jge    0x416df4
  416e4f:	mov    ds:0x32b26442,eax
  416e54:	push   cs
  416e55:	sub    eax,0x1a8c0d5f
  416e5a:	fisttp QWORD PTR ds:0x5645b90
  416e60:	pop    edx
  416e61:	ja     0x416de7
  416e63:	lods   al,BYTE PTR ds:[esi]
  416e64:	push   edi
  416e65:	(bad)
  416e69:	pop    ds
  416e6a:	lods   eax,DWORD PTR ds:[esi]
  416e6b:	cld    
  416e6c:	dec    ebx
  416e6d:	or     BYTE PTR [eax],dl
  416e6f:	pop    edx
  416e70:	sbb    ebx,DWORD PTR [ecx+0x286f5f19]
  416e76:	cmp    ch,BYTE PTR [ecx+ebp*2]
  416e79:	out    dx,eax
  416e7a:	pusha  
  416e7b:	addr16 fldpi 
  416e7e:	lods   al,BYTE PTR ds:[esi]
  416e7f:	mov    ch,0x5c
  416e81:	fdivrp st(5),st
  416e83:	inc    edx
  416e84:	sbb    eax,0x8d957599
  416e89:	add    bh,BYTE PTR [eax+0x15a11085]
  416e8f:	jbe    0x416e8e
  416e91:	lahf   
  416e92:	sub    al,0x8f
  416e94:	cld    
  416e95:	mov    ecx,0x40ac1c36
  416e9a:	mov    ds:0xaba71d81,eax
  416e9f:	sar    BYTE PTR [eax+0x5bfb97b2],cl
  416ea5:	ds loope 0x416eb6
  416ea8:	pop    ds
  416ea9:	mov    bl,0xd1
  416eab:	mov    DWORD PTR [edi],ebx
  416ead:	fnstenv [esi*8+0x39398ce4]
  416eb4:	mov    esp,DWORD PTR [edi-0x1238d5d7]
  416eba:	stos   BYTE PTR es:[edi],al
  416ebb:	rcr    eax,1
  416ebd:	sub    al,0x96
  416ebf:	pop    ebx
  416ec0:	pop    ds
  416ec1:	jmp    0xff47ae9b
  416ec6:	fild   DWORD PTR [ebx]
  416ec8:	les    edi,FWORD PTR [ebx]
  416eca:	cdq    
  416ecb:	xchg   ecx,eax
  416ecc:	jmp    0x31d56c7d
  416ed1:	mov    dh,BYTE PTR [ebp+0x2e8d1a17]
  416ed7:	les    ecx,FWORD PTR [esi+0x7b]
  416eda:	mov    dl,ah
  416edc:	fbld   TBYTE PTR ds:0x50536036
  416ee2:	push   eax
  416ee3:	movzx  ecx,BYTE PTR [eax-0x44]
  416ee7:	int3   
  416ee8:	sti    
  416ee9:	xor    al,0xbc
  416eeb:	shr    BYTE PTR ds:[ecx-0x6bf14eed],cl
  416ef2:	inc    ecx
  416ef3:	adc    BYTE PTR [ebx],bh
  416ef5:	mov    ds,WORD PTR [ebx-0x1eeb2cf1]
  416efb:	loopne 0x416f1c
  416efd:	ror    DWORD PTR [esi+ebx*4],1
  416f00:	sbb    ch,cl
  416f02:	jbe    0x416eb5
  416f04:	or     BYTE PTR [edi],ch
  416f06:	loope  0x416f07
  416f08:	or     al,0xac
  416f0a:	aas    
  416f0b:	imul   ecx,DWORD PTR [ebx-0x7c],0xc127f6c5
  416f12:	mov    ecx,0x6233dce0
  416f17:	test   DWORD PTR [edx+0x2f68b3f6],esi
  416f1d:	daa    
  416f1e:	repz adc BYTE PTR [eax+0x1c65e7ca],bh
  416f25:	in     eax,dx
  416f26:	and    DWORD PTR [edx-0x3e],esi
  416f29:	sub    al,0x4e
  416f2b:	push   ebp
  416f2c:	xor    DWORD PTR [eax+eiz*4-0x48e2e30b],esi
  416f33:	add    ecx,0xffffffef
  416f36:	mov    al,BYTE PTR [ebx*1-0x5b92067b]
  416f3d:	pop    ecx
  416f3e:	jmp    0xf5ec6dc3
  416f43:	xlat   BYTE PTR ds:[ebx]
  416f44:	or     ecx,DWORD PTR [ecx-0x20bb300]
  416f4a:	aad    0xac
  416f4c:	mov    ch,0xcb
  416f4e:	arpl   cx,bx
  416f50:	push   ss
  416f51:	sbb    ah,cl
  416f53:	mov    DWORD PTR [edi],esi
  416f55:	or     BYTE PTR [eax+0xf],bh
  416f58:	adc    DWORD PTR [esi+0x14],edx
  416f5b:	call   FWORD PTR [ebp*4+0x66c366c3]
  416f62:	dec    esp
  416f63:	mov    gs,ebx
  416f65:	mov    ah,0x80
  416f67:	or     BYTE PTR [edi],bl
  416f69:	fbld   TBYTE PTR [esp+edx*8]
  416f6c:	test   DWORD PTR [ebx],ebp
  416f6e:	add    al,0xe8
  416f70:	pop    ds
  416f71:	mov    ebp,edx
  416f73:	mov    ds:0x8c9bef5a,eax
  416f78:	clc    
  416f79:	jnp    0x416efb
  416f7b:	or     dl,BYTE PTR fs:[ecx+0x10]
  416f7f:	add    DWORD PTR [ebx],0xffffffab
  416f82:	call   DWORD PTR [edx-0x1d5b4153]
  416f88:	inc    ebx
  416f89:	lods   al,BYTE PTR ds:[esi]
  416f8a:	pop    edi
  416f8b:	popa   
  416f8c:	dec    ecx
  416f8d:	movs   BYTE PTR es:[edi],BYTE PTR ds:[esi]
  416f8e:	mov    ecx,0x623001f7
  416f93:	nop
  416f94:	iret   
  416f95:	or     ecx,DWORD PTR [edx-0x3ff9e029]
  416f9b:	jo     0x416f9d
  416f9d:	xchg   ebp,eax
  416f9e:	xchg   DWORD PTR [ebx],esp
  416fa0:	loop   0x416f8b
  416fa2:	fs cdq 
  416fa4:	or     eax,DWORD PTR [ebx+0x2b]
  416fa7:	int    0x9f
  416fa9:	pop    ebx
  416faa:	and    eax,0x85609fd6
  416faf:	lods   al,BYTE PTR ds:[esi]
  416fb0:	pop    ebx
  416fb1:	cmp    bh,BYTE PTR [eax+0x60a7ce4c]
  416fb7:	inc    ecx
  416fb8:	xor    al,0xb9
  416fba:	inc    esp
  416fbb:	xor    al,BYTE PTR [edi-0x78e63a56]
  416fc1:	aas    
  416fc2:	jg     0x41702f
  416fc4:	adc    DWORD PTR [ecx+0x45],0xffffff9c
  416fc8:	(bad)  
  416fc9:	iret   
  416fca:	test   DWORD PTR fs:[esi+0x3bbe063f],esi
  416fd1:	dec    edx
  416fd2:	and    DWORD PTR [eax],edx
  416fd4:	xadd   DWORD PTR [ecx+0x48],edx
  416fd8:	adc    ecx,eax
  416fda:	into   
  416fdb:	jecxz  0x417021
  416fdd:	movs   BYTE PTR es:[edi],BYTE PTR ds:[esi]
  416fde:	mov    ds:0x3376645f,al
  416fe3:	scas   eax,DWORD PTR es:[edi]
  416fe4:	test   DWORD PTR [esi+eiz*4-0x1cc007f3],0xe4346f35
  416fef:	addr16 push ds
  416ff1:	xor    DWORD PTR [edx-0x49],0x8aa35155
  416ff8:	mov    bh,0x2e
  416ffa:	out    0xf,al
  416ffc:	xor    DWORD PTR [edi],edi
  416ffe:	mov    ebp,0xb4e11eea
  417003:	dec    ecx
  417004:	out    dx,eax
  417005:	mov    DWORD PTR ds:0xf4c86c4c,ecx
  41700b:	int    0x5c
  41700d:	xchg   esi,eax
  41700e:	push   0xc44228d1
  417013:	in     al,0xe5
  417015:	mov    ebp,0x64c29d2a
  41701a:	jb     0x416fab
  41701c:	ins    BYTE PTR es:[edi],dx
  41701d:	stos   BYTE PTR es:[edi],al
  41701e:	imul   esp,DWORD PTR [ebx],0x34e7614f
  417024:	pop    esp
  417025:	cmps   DWORD PTR ds:[esi],DWORD PTR es:[edi]
  417026:	add    ecx,DWORD PTR [ebx]
  417028:	cwde   
  417029:	rol    DWORD PTR [ebp-0x63],0x1f
  41702d:	jns    0x416fc5
  41702f:	jl     0x416fea
  417031:	sub    ch,dh
  417033:	test   edi,0x5d15796a
  417039:	inc    ecx
  41703a:	pop    ebp
  41703b:	mov    ebp,0x836ab21f
  417040:	pop    ds
  417041:	popf   
  417042:	sti    
  417043:	das    
  417044:	inc    edi
  417045:	xor    ebp,ecx
  417047:	add    ebx,DWORD PTR [ebp+0x73e321d9]
  41704d:	(bad)  
  41704e:	adc    DWORD PTR ss:[edi],eax
  417051:	test   al,0x50
  417053:	cmps   BYTE PTR ds:[esi],BYTE PTR es:[edi]
  417054:	sbb    eax,0x1eda4d65
  417059:	add    DWORD PTR [ebp-0x1e5315e7],0x7c
  417060:	pop    edi
  417061:	mov    cl,0x31
  417063:	int    0xb6
  417065:	cdq    
  417066:	ins    BYTE PTR es:[edi],dx
  417067:	xlat   BYTE PTR ds:[ebx]
  417068:	pop    edx
  417069:	push   ebp
  41706a:	dec    eax
  41706b:	dec    ecx
  41706c:	sahf   
  41706d:	xchg   esi,eax
  41706e:	sahf   
  41706f:	pop    es
  417070:	xor    BYTE PTR [ebx-0x3d6430af],ch
  417076:	das    
  417077:	clc    
  417078:	lahf   
  417079:	pop    edx
  41707a:	loopne 0x4170ed
  41707c:	movs   DWORD PTR es:[edi],DWORD PTR ds:[esi]
  41707d:	push   0x93554d64
  417082:	outs   dx,DWORD PTR ds:[esi]
  417083:	cmp    ebp,DWORD PTR [ebx-0x40f21bee]
  417089:	add    dl,dl
  41708b:	inc    esi
  41708c:	fisubr WORD PTR [edx-0xea47fca]
  417092:	sub    DWORD PTR [ebp-0x6f5d013e],ecx
  417098:	pop    eax
  417099:	stos   BYTE PTR es:[edi],al
  41709a:	mov    eax,ds:0xe6618744
  41709f:	addr16 xchg edx,eax
  4170a1:	mov    ch,0xb6
  4170a3:	adc    ebx,DWORD PTR [esi]
  4170a5:	lds    esp,FWORD PTR [ecx-0x3374957b]
  4170ab:	aaa    
  4170ac:	test   eax,0x4d605da5
  4170b1:	sub    eax,0xc7ebe705
  4170b6:	xor    ebx,esi
  4170b8:	cld    
  4170b9:	stc    
  4170ba:	or     eax,0xe64d1cbd
  4170bf:	jb     0x4170dd
  4170c1:	(bad)  
  4170c2:	and    al,0x50
  4170c4:	mov    eax,0x436c45ac
  4170c9:	aad    0x37
  4170cb:	aad    0x1c
  4170cd:	mov    al,0x3c
  4170cf:	and    eax,0x457ad957
  4170d4:	xor    BYTE PTR [ecx+0x57],0xf5
  4170d8:	loope  0x4170f1
  4170da:	mov    bh,0x6b
  4170dc:	push   0xffffffc3
  4170de:	arpl   WORD PTR [esi+0x67],cx
  4170e1:	cmp    dl,ch
  4170e3:	push   cs
  4170e4:	sub    DWORD PTR [edi],0xffffff93
  4170e7:	cmp    esp,DWORD PTR ds:0x8beb6235
  4170ed:	shl    BYTE PTR [ecx-0x4b],1
  4170f0:	fwait
  4170f1:	add    al,0x32
  4170f3:	(bad)  
  4170f4:	xlat   BYTE PTR ds:[ebx]
  4170f5:	(bad)  
  4170f6:	fwait
  4170f7:	stc    
  4170f8:	or     BYTE PTR [ebp-0x575605e5],ch
  4170fe:	inc    ebx
  4170ff:	movs   BYTE PTR es:[edi],BYTE PTR ds:[esi]
  417100:	mov    al,ds:0x8d8d6222
  417105:	cmp    bh,BYTE PTR [edx+eax*8]
  417108:	xchg   edi,eax
  417109:	mov    bh,0xcb
  41710b:	or     eax,0x872476b
  417110:	mov    al,ds:0x10be430
  417115:	pop    ebx
  417116:	(bad)  
  417117:	xor    ebx,DWORD PTR ds:0x46a09e8e
  41711d:	stos   BYTE PTR es:[edi],al
  41711e:	mov    DWORD PTR [ebp-0x7c],eax
  417121:	movs   DWORD PTR es:[edi],DWORD PTR ds:[esi]
  417122:	push   eax
  417123:	xchg   edi,eax
  417124:	cmps   DWORD PTR ds:[esi],DWORD PTR es:[edi]
  417125:	jmp    0x7304:0xe91df965
  41712c:	pop    ebp
  41712d:	(bad)  
  41712f:	cmp    ecx,DWORD PTR [edi]
  417131:	stos   DWORD PTR es:[edi],eax
  417132:	mov    eax,ds:0xfee714bd
  417137:	sub    dl,dl
  417139:	jnp    0x417109
  41713b:	sub    al,0x1d
  41713d:	aad    0x9a
  41713f:	mov    ecx,0xd1286cef
  417144:	push   eax
  417145:	cmp    al,0x61
  417147:	jns    0x417105
  417149:	stos   DWORD PTR es:[edi],eax
  41714a:	mov    ah,0x37
  41714c:	push   es
  41714d:	mov    ds:0x9020c474,eax
  417152:	sub    al,0x40
  417154:	mov    eax,ds:0x7e0f0933
  417159:	jmp    0x6784db88
  41715e:	jmp    0x41716f
  417160:	(bad)
  417163:	xchg   ecx,eax
  417164:	aaa    
  417165:	and    BYTE PTR [edx+0x5f13afe7],al
  41716b:	push   cs
  41716c:	adc    al,0x93
  41716e:	sbb    esp,edx
  417170:	jecxz  0x417105
  417172:	lods   al,BYTE PTR ds:[esi]
  417173:	punpcklwd mm0,DWORD PTR [ebx+0x4b]
  417177:	ds pop ds
  417179:	add    DWORD PTR [ecx-0x52],ebp
  41717c:	sub    esp,ebp
  41717e:	test   BYTE PTR [eax-0x637e5a15],0xa3
  417185:	pop    ds
  417186:	js     0x417167
  417188:	icebp  
  417189:	sub    bh,BYTE PTR [eax]
  41718b:	push   0x71205d1c
  417190:	sbb    al,0x60
  417192:	push   eax
  417193:	scas   al,BYTE PTR es:[edi]
  417194:	dec    edi
  417195:	es push esi
  417197:	sti    
  417198:	cmp    BYTE PTR [ebx+0x79e135d5],ch
  41719e:	adc    eax,0xfe67f2a2
  4171a3:	adc    bh,bl
  4171a5:	dec    esp
  4171a6:	fs or  esp,0xeb0f222c
  4171ad:	cwde   
  4171ae:	retf   
  4171af:	mov    bh,0x2f
  4171b1:	sbb    DWORD PTR [esi-0x7474e7f1],0x63007e94
  4171bb:	add    eax,0xfee75288
  4171c0:	aas    
  4171c1:	ret    0x107b
  4171c4:	imul   eax,DWORD PTR [edi+0x28],0x97b91e9a
  4171cb:	dec    edi
  4171cc:	cmp    BYTE PTR [eax],ch
  4171ce:	add    al,0x8b
  4171d0:	dec    ebp
  4171d1:	scas   eax,DWORD PTR es:[edi]
  4171d2:	mov    BYTE PTR [edx-0xdff0b56],ch
  4171d8:	stos   DWORD PTR es:[edi],eax
  4171d9:	fwait
  4171da:	sub    al,0x10
  4171dc:	and    DWORD PTR [eax+0x148df2f4],ebp
  4171e2:	xchg   ecx,eax
  4171e3:	outs   dx,DWORD PTR ds:[esi]
  4171e4:	sbb    DWORD PTR [ecx-0xd8ec463],esp
  4171ea:	inc    ecx
  4171eb:	dec    ebp
  4171ec:	inc    eax
  4171ed:	stos   BYTE PTR es:[edi],al
  4171ee:	adc    eax,0xc92cd262
  4171f3:	push   0x8cab76da
  4171f8:	fcomp  QWORD PTR [ebx+0x62]
  4171fb:	inc    ecx
  4171fc:	retf   
  4171fd:	ficom  DWORD PTR [edi-0x47e12c52]
  417203:	adc    al,cl
  417205:	popa   
  417206:	movs   DWORD PTR es:[edi],DWORD PTR ds:[esi]
  417207:	leave  
  417208:	adc    DWORD PTR [ebp+0x55bd6f1],eax
  41720e:	push   cs
  41720f:	sbb    DWORD PTR [ebp+0x2c],ebx
  417212:	push   eax
  417213:	sysret 
  417215:	jge    0x41727d
  417217:	rcr    DWORD PTR [edi+0x7298e89f],cl
  41721d:	inc    eax
  41721e:	xor    ah,BYTE PTR [ebp+ebx*1+0x75]
  417222:	xchg   esi,eax
  417223:	pop    ds
  417224:	sub    ebx,ebx
  417226:	adc    ebp,DWORD PTR [edx+0xa]
  417229:	stos   BYTE PTR es:[edi],al
  41722a:	mov    ch,0x93
  41722c:	retf   
  41722d:	inc    edi
  41722e:	shr    edx,1
  417230:	pop    edi
  417231:	aaa    
  417232:	cld    
  417233:	jle    0x41723b
  417235:	jmp    0x6fb2db70
  41723a:	mov    cl,0xf
  41723c:	push   ebx
  41723d:	lea    ebp,[ecx]
  41723f:	push   0x24
  417241:	dec    esp
  417242:	shr    DWORD PTR [esi-0x1f],1
  417245:	(bad)
  417249:	ins    DWORD PTR es:[edi],dx
  41724a:	cmc    
  41724b:	arpl   WORD PTR [eax+eiz*4-0xa],ax
  41724f:	sub    eax,0x1e09ac82
  417254:	mov    ah,0x18
  417256:	bound  eax,QWORD PTR [ebx+0x4c]
  417259:	mov    esp,0xcd1e1c5d
  41725e:	jb     0x41729d
  417260:	sub    esp,DWORD PTR [edi+0x17]
  417263:	cwde   
  417264:	(bad)  [ebp+eiz*8+0x45556096]
  41726b:	jle    0x4172dd
  41726d:	and    al,0xcf
  41726f:	adc    al,0x77
  417271:	mov    bl,0x62
  417273:	ins    DWORD PTR es:[edi],dx
  417274:	xchg   edx,eax
  417275:	loope  0x417221
  417277:	cli    
  417278:	push   DWORD PTR [esp+esi*8+0xe]
  41727c:	xor    al,0xad
  41727e:	sub    al,0x93
  417280:	pop    ds
  417281:	adc    eax,0x30d49b78
  417286:	aam    0x39
  417288:	pop    ebx
  417289:	lods   al,BYTE PTR ds:[esi]
  41728a:	sub    eax,0x16da15e6
  41728f:	jge    0x4172d8
  417291:	ins    BYTE PTR es:[di],dx
  417293:	jae    0x417292
  417295:	inc    esp
  417296:	mov    DWORD PTR gs:[ebx-0x4b],eax
  41729a:	cmc    
  41729b:	jle    0x41728b
  41729d:	jb     0x41725c
  41729f:	adc    bh,BYTE PTR [edx-0x569c712f]
  4172a5:	adc    esp,esp
  4172a7:	and    BYTE PTR [esi],ch
  4172a9:	nop
  4172aa:	or     ebx,ecx
  4172ac:	shl    DWORD PTR [edi+0x72],0xd
  4172b0:	inc    ebx
  4172b1:	nop
  4172b2:	xchg   BYTE PTR [ecx],dl
  4172b4:	arpl   WORD PTR [ecx],si
  4172b6:	je     0x4172d7
  4172b8:	and    al,0xaa
  4172ba:	out    0xd8,al
  4172bc:	mov    ds:0x1d577735,eax
  4172c1:	jmp    0x66fda095
  4172c6:	fwait
  4172c7:	adc    ah,BYTE PTR [edx+0x2be31cba]
  4172cd:	jmp    0x5363:0x48f92296
  4172d4:	inc    esp
  4172d5:	loopne 0x417303
  4172d7:	cld    
  4172d8:	sub    BYTE PTR [eax+0x139d1d84],ah
  4172de:	mov    ecx,DWORD PTR [edi]
  4172e0:	sbb    bh,dl
  4172e2:	popf   
  4172e3:	mov    ah,0x37
  4172e5:	pop    eax
  4172e6:	pop    ss
  4172e7:	adc    DWORD PTR [esi],ebp
  4172e9:	sub    BYTE PTR [ebp-0x6],al
  4172ec:	pop    ds
  4172ed:	xchg   ecx,eax
  4172ee:	lods   al,BYTE PTR ds:[esi]
  4172ef:	xor    ebx,0xffffff87
  4172f2:	jl     0x41729e
  4172f4:	dec    ebx
  4172f5:	stos   DWORD PTR es:[edi],eax
  4172f6:	add    DWORD PTR [edi-0x60671d43],esi
  4172fc:	in     eax,dx
  4172fd:	ror    DWORD PTR [ebx+0x50],cl
  417300:	adc    DWORD PTR [esi+eax*2+0x26105de5],esi
  417307:	mov    esp,0x7d45a9cd
  41730c:	inc    ecx
  41730d:	pop    es
  41730e:	inc    ecx
  41730f:	dec    eax
  417310:	sub    edx,ecx
  417312:	std    
  417313:	shr    DWORD PTR [ecx],cl
  417315:	les    edi,FWORD PTR [edx-0x6fbb26d7]
  41731b:	or     eax,0x83931466
  417320:	sti    
  417321:	jne    0x4172ac
  417323:	or     bl,BYTE PTR [edx]
  417325:	mov    al,ds:0x9150f54
  41732a:	pushw  cs
  41732c:	fild   QWORD PTR [esi-0x31]
  41732f:	inc    esi
  417330:	and    edx,esp
  417332:	inc    eax
  417333:	adc    BYTE PTR [esp+edx*4],ah
  417336:	lahf   
  417337:	js     0x4173b6
  417339:	ror    DWORD PTR [esi-0x6472e0e9],1
  41733f:	repz addr16 pop ebp
  417342:	fcomp  DWORD PTR [esi]
  417344:	imul   DWORD PTR [edx-0x23ab207]
  41734a:	inc    eax
  41734b:	sbb    eax,DWORD PTR [eax-0x52d19d35]
  417351:	cmp    BYTE PTR [ebp-0x3982f51e],al
  417357:	test   al,0x1e
  417359:	mov    edi,0xaaa63b64
  41735e:	int    0xcb
  417360:	cmps   BYTE PTR ds:[esi],BYTE PTR es:[edi]
  417361:	xchg   ebx,eax
  417362:	sbb    edx,DWORD PTR [edi+ecx*2+0x2070871e]
  417369:	in     al,0xe5
  41736b:	and    BYTE PTR [eax-0x16],dl
  41736e:	pop    eax
  41736f:	lods   eax,DWORD PTR ds:[esi]
  417370:	xor    eax,0xf0eb9b2
  417375:	and    eax,0x60820ac3
  41737a:	clc    
  41737b:	dec    edi
  41737c:	lea    esp,cs:[edx+0x6280028e]
  417383:	jns    0x41739f
  417385:	shl    BYTE PTR [esi*4+0xd8087d7],1
  41738c:	xor    eax,0xa8ad1d73
  417391:	add    al,0xd
  417393:	movlps xmm4,QWORD PTR [edi+ecx*1+0x62aa556a]
  41739b:	sbb    esp,ebx
  41739d:	test   eax,0xbe176231
  4173a2:	(bad)  
  4173a3:	loop   0x417403
  4173a5:	fistp  QWORD PTR [edi-0xf876603]
  4173ab:	inc    eax
  4173ac:	mov    ch,0xc1
  4173ae:	pop    ebx
  4173af:	arpl   WORD PTR [ecx],dx
  4173b1:	ja     0x41741d
  4173b3:	adc    BYTE PTR [edi],cl
  4173b5:	lods   eax,DWORD PTR ds:[esi]
  4173b6:	cmp    edx,eax
  4173b8:	fild   QWORD PTR [ecx+0x6b]
  4173bb:	pop    ds
  4173bc:	cmps   BYTE PTR ds:[esi],BYTE PTR es:[edi]
  4173bd:	sbb    al,BYTE PTR [edx+eiz*8+0x1f]
  4173c1:	fnstenv [esi+0x23]
  4173c4:	mov    DWORD PTR [esi-0x548afc93],ebp
  4173ca:	in     eax,dx
  4173cb:	aaa    
  4173cc:	cli    
  4173cd:	iret   
  4173ce:	mov    bl,0xfd
  4173d0:	test   eax,0x6ce50e36
  4173d5:	mov    BYTE PTR [ebx+0x4d],ah
  4173d8:	fs jmp 0xec3:0x2b380b
  4173e0:	fadd   st(2),st
  4173e2:	inc    ecx
  4173e3:	(bad)  
  4173e4:	sbb    eax,0x12030c05
  4173e9:	push   ss
  4173ea:	mov    ch,0x48
  4173ec:	pop    ebx
  4173ed:	lods   al,BYTE PTR ds:[esi]
  4173ee:	mov    ch,0x47
  4173f0:	cwde   
  4173f1:	movs   BYTE PTR es:[edi],BYTE PTR ds:[esi]
  4173f2:	and    DWORD PTR [edx],ebx
  4173f4:	int    0x70
  4173f6:	in     al,0x21
  4173f8:	cli    
  4173f9:	push   es
  4173fa:	pusha  
  4173fb:	jne    0x417396
  4173fd:	xchg   DWORD PTR [ebp-0x22],edx
  417400:	scas   eax,DWORD PTR es:[edi]
  417401:	mov    fs,WORD PTR [edx+0x37]
  417404:	inc    eax
  417405:	push   edx
  417406:	mov    ebx,0x4832cb77
  41740b:	leave  
  41740c:	fild   WORD PTR [eax-0x3]
  41740f:	mov    edx,0x30d9a9ec
  417414:	xchg   edx,eax
  417415:	sub    DWORD PTR [eax-0x25],0x479ffd3b
  41741c:	movs   BYTE PTR es:[edi],BYTE PTR ds:[esi]
  41741d:	mov    ebp,0x5ccf6961
  417422:	sbb    al,0x23
  417424:	retf   
  417425:	or     DWORD PTR [ecx+0x4],0x10
  417429:	and    BYTE PTR ds:0xa33ace8f,ah
  41742f:	and    al,BYTE PTR [edx+eax*4]
  417432:	(bad)  
  417434:	call   0xda0e:0xa7097994
  41743b:	adc    dl,al
  41743d:	retf   0x338b
  417440:	push   ds
  417441:	icebp  
  417442:	push   cs
  417443:	ror    BYTE PTR [ecx+edx*8],1
  417446:	fisub  DWORD PTR [ecx-0xb4256c2]
  41744c:	cmp    bl,BYTE PTR [ecx]
  41744e:	das    
  41744f:	adc    DWORD PTR [esi+0x4919ceea],esi
  417455:	movs   DWORD PTR es:[edi],DWORD PTR ds:[esi]
  417456:	fs aad 0x2b
  417459:	(bad)  
  41745a:	cmp    cl,BYTE PTR [ecx+0x47]
  41745d:	hlt    
  41745e:	pop    eax
  41745f:	pushf  
  417460:	sbb    al,0xcf
  417462:	jne    0x417471
  417464:	push   ecx
  417465:	dec    ecx
  417466:	sahf   
  417467:	dec    esi
  417468:	lahf   
  417469:	or     DWORD PTR [ebp+0x35],esp
  41746c:	test   al,0x83
  41746e:	daa    
  41746f:	test   eax,0x3eabe83
  417474:	pop    ebp
  417475:	pusha  
  417476:	rcl    BYTE PTR [edx+eiz*1],cl
  417479:	jecxz  0x41745f
  41747b:	add    DWORD PTR ds:0xb5f1ad25,ebx
  417481:	xor    al,0x4d
  417483:	sub    dl,0xab
  417486:	popa   
  417487:	test   DWORD PTR ds:0xbdd9c39e,esi
  41748d:	pop    esp
  41748e:	mov    BYTE PTR [ebx],dh
  417490:	xchg   ah,dl
  417492:	fs (bad) 
  417494:	hlt    
  417495:	mov    al,ds:0x8e7b2672
  41749a:	loope  0x41749d
  41749c:	inc    esp
  41749d:	push   esi
  41749e:	in     eax,dx
  41749f:	sub    al,0xa9
  4174a1:	sahf   
  4174a2:	and    edi,DWORD PTR [edi]
  4174a4:	and    dl,BYTE PTR [esi-0x3634900b]
  4174aa:	xor    dh,BYTE PTR ds:0x6f576b58
  4174b0:	xchg   edi,eax
  4174b1:	stos   DWORD PTR es:[edi],eax
  4174b2:	test   eax,0xbc5ac3f1
  4174b7:	xchg   esi,eax
  4174b8:	retf   
  4174b9:	es cli 
  4174bb:	cmp    BYTE PTR [esp+edx*4],0x63
  4174bf:	push   ecx
  4174c0:	inc    esi
  4174c1:	(bad)  
  4174c2:	or     dh,ah
  4174c4:	sbb    ebp,DWORD PTR [esi+0x47]
  4174c7:	adc    DWORD PTR [esi],edx
  4174c9:	push   ss
  4174ca:	cmp    esp,DWORD PTR [edi]
  4174cc:	loopne 0x4174e6
  4174ce:	mov    esi,0x4434943f
  4174d3:	cmc    
  4174d4:	sbb    al,al
  4174d6:	jmp    0x6129:0x863516b5
  4174dd:	(bad)  
  4174de:	cmc    
  4174df:	and    DWORD PTR [esi],0x839d67b5
  4174e5:	retf   0xd1d3
  4174e8:	loop   0x41746a
  4174ea:	jne    0x41747c
  4174ec:	pop    ds
  4174ed:	stc    
  4174ee:	icebp  
  4174ef:	fidiv  WORD PTR [ebx+0x6ebcd781]
  4174f5:	retf   0x417
  4174f8:	addr16 sbb al,0x5c
  4174fb:	mov    eax,ds:0xdb69df7
  417500:	sbb    ecx,ecx
  417502:	shr    DWORD PTR [eax-0x7e],cl
  417505:	sti    
  417506:	arpl   WORD PTR [ecx],cx
  417508:	or     eax,0xf9158f1
  41750d:	push   eax
  41750e:	lahf   
  41750f:	or     DWORD PTR [edx-0x33c20998],edi
  417515:	dec    ecx
  417516:	pop    eax
  417517:	scas   eax,DWORD PTR es:[edi]
  417518:	stc    
  417519:	clc    
  41751a:	popa   
  41751b:	leave  
  41751c:	out    0x6a,eax
  41751e:	cmc    
  41751f:	jg     0x417544
  417521:	mov    esp,0x542c10e1
  417526:	inc    edx
  417527:	adc    bl,BYTE PTR [edi]
  417529:	push   ebp
  41752a:	and    edx,eax
  41752c:	fwait
  41752d:	cmp    al,0x83
  41752f:	pop    ss
  417530:	pushf  
  417531:	mov    al,ds:0x17a6ebd5
  417536:	sahf   
  417537:	int    0x5e
  417539:	mov    eax,ds:0xb91c7bd9
  41753e:	cmp    eax,0x9e0f5a61
  417543:	inc    esp
  417544:	(bad)  
  417545:	int3   
  417546:	inc    ebx
  417547:	sahf   
  417548:	dec    DWORD PTR [eax-0x1a]
  41754b:	add    al,0x98
  41754d:	mov    bl,0x90
  41754f:	xchg   BYTE PTR [ebp+0x889826c],dh
  417555:	sbb    al,0x64
  417557:	dec    ecx
  417558:	idiv   bl
  41755a:	movs   BYTE PTR es:[edi],BYTE PTR ds:[esi]
  41755b:	in     al,0x7f
  41755d:	(bad)  
  41755e:	sbb    al,0xf
  417560:	adc    cl,ch
  417562:	setp   ch
  417565:	pand   mm3,QWORD PTR [eax-0x35]
  417569:	cwde   
  41756a:	daa    
  41756b:	push   cs
  41756c:	mov    al,0xd5
  41756f:	jg     0x417524
  417571:	stos   DWORD PTR es:[edi],eax
  417572:	dec    eax
  417573:	push   cs
  417574:	test   BYTE PTR [ecx+0x351d57f3],0x61
  41757b:	jecxz  0x417568
  41757d:	test   DWORD PTR [edi-0x255c543],esp
  417583:	aam    0xc3
  417585:	or     al,0xf3
  417587:	xchg   BYTE PTR [ebx],cl
  417589:	pop    eax
  41758a:	sbb    DWORD PTR cs:0x5a7d6392,esp
  417591:	add    DWORD PTR [ebp+0x1b26fb76],eax
  417597:	(bad)  
  417598:	jns    0x417544
  41759a:	push   edi
  41759b:	mov    esp,0xbdc7a8c9
  4175a0:	adc    DWORD PTR [eax+0x63],0xe81bd15
  4175a7:	in     al,0x7
  4175a9:	xor    al,0x1c
  4175ab:	push   cs
  4175ac:	mov    bl,0x58
  4175ae:	lahf   
  4175af:	pusha  
  4175b0:	cs sub al,0xe8
  4175b3:	adc    bh,bl
  4175b5:	push   ecx
  4175b6:	or     BYTE PTR [edx],0x8c
  4175b9:	rol    BYTE PTR [ebx],1
  4175bb:	jge    0x417590
  4175bd:	add    al,0xc2
  4175bf:	std    
  4175c0:	xchg   edi,eax
  4175c1:	arpl   dx,cx
  4175c3:	hlt    
  4175c4:	fwait
  4175c5:	sub    al,0x80
  4175c7:	div    DWORD PTR [eax+eiz*8+0x5]
  4175cb:	add    eax,esp
  4175cd:	shr    BYTE PTR [ecx+eiz*2],0x47
  4175d1:	mov    ecx,0xe9ae0ae0
  4175d6:	xor    DWORD PTR [esi+0x17],ecx
  4175d9:	xchg   ebx,eax
  4175da:	das    
  4175db:	or     bl,dl
  4175dd:	jns    0x4175df
  4175df:	jmp    0x8e13fc12
  4175e4:	sbb    al,0xbd
  4175e6:	outs   dx,DWORD PTR ds:[esi]
  4175e7:	out    0x29,eax
  4175e9:	inc    eax
  4175ea:	jmp    0x41764b
  4175ec:	jmp    0xa7d5:0xd1f769ab
  4175f3:	mov    ah,0xbb
  4175f5:	jns    0x417676
  4175f7:	and    bl,dl
  4175f9:	cmps   BYTE PTR ds:[esi],BYTE PTR es:[edi]
  4175fa:	arpl   cx,sp
  4175fc:	arpl   di,bp
  4175fe:	pop    edx
  4175ff:	in     al,0xfb
  417601:	xchg   ecx,eax
  417602:	or     BYTE PTR [edi],0x71
  417605:	popa   
  417606:	std    
  417607:	and    ebx,DWORD PTR ds:0xe57f1429
  41760d:	xchg   edi,eax
  41760e:	fdiv   DWORD PTR [edi-0x3712538e]
  417614:	test   BYTE PTR [ebp+0x7004ab85],0x54
  41761b:	pop    ss
  41761c:	xchg   ebx,eax
  41761d:	shl    BYTE PTR [ecx-0x43],1
  417620:	adc    DWORD PTR [ebp+esi*4+0x433dcb52],esp
  417627:	add    ch,BYTE PTR [edx-0x31340bb6]
  41762d:	hlt    
  41762e:	add    al,0xbf
  417630:	fcmovu st,st(0)
  417632:	pusha  
  417633:	pop    ecx
  417634:	sbb    al,0x17
  417636:	call   0xf5eab45f
  41763b:	mov    ch,0x4
  41763d:	cwde   
  41763e:	fldcw  WORD PTR [esi*2-0x4435b579]
  417645:	add    BYTE PTR [edx],ch
  417647:	jns    0x41761a
  417649:	and    DWORD PTR [ecx+0xe],ecx
  41764c:	imul   ecx,DWORD PTR [edx],0x6a
  41764f:	sbb    esp,DWORD PTR [edi+0x2f]
  417652:	cmp    al,0x5
  417654:	inc    ecx
  417655:	mov    dl,0xf4
  417657:	rcl    DWORD PTR [edx],1
  417659:	int    0x24
  41765b:	sbb    ebx,DWORD PTR ds:0x4af9d4b9
  417661:	mov    cl,dh
  417663:	sub    DWORD PTR [eax-0x28d63a54],edx
  417669:	add    al,0x5b
  41766b:	mov    esi,0xf0455571
  417670:	mov    ds:0x6b0562e8,eax
  417675:	xor    ch,BYTE PTR [edi+ebp*1+0xdc980af]
  41767c:	sub    eax,0xa8f2c39c
  417681:	pushf  
  417682:	jne    0x417703
  417684:	sbb    BYTE PTR [edx-0x4c],bl
  417687:	lock mov dh,0xf3
  41768a:	push   es
  41768b:	add    DWORD PTR [esi-0x55],0xffffffe5
  41768f:	aad    0xa8
  417691:	pusha  
  417692:	add    DWORD PTR es:[eax+0x142b4392],ecx
  417699:	mov    ecx,0x22bcb561
  41769e:	jo     0x417692
  4176a0:	xlat   BYTE PTR ds:[ebx]
  4176a1:	loop   0x417721
  4176a3:	in     al,0x1e
  4176a5:	adc    DWORD PTR [edx+0x249d4707],eax
  4176ab:	and    ah,0x10
  4176ae:	je     0x4176d9
  4176b0:	dec    ebp
  4176b1:	sub    DWORD PTR [ecx],edx
  4176b3:	pop    es
  4176b4:	test   al,0xb
  4176b6:	es jmp 0x4176dc
  4176b9:	add    edx,ecx
  4176bb:	maskmovq mm2,(bad)
  4176bc:	not    DWORD PTR [ebx]
  4176be:	or     edi,DWORD PTR [edi+0x1e]
  4176c1:	mov    eax,ds:0x1630d19f
  4176c6:	or     BYTE PTR [eax-0x1c0e5fc9],ah
  4176cc:	cmp    DWORD PTR [eax+edx*1+0x36],0x3c
  4176d1:	mov    dl,0xbe
  4176d3:	ja     0x4176f1
  4176d5:	inc    ecx
  4176d6:	in     eax,dx
  4176d7:	rcr    BYTE PTR [edx],1
  4176d9:	mov    eax,ds:0x9d69b3c4
  4176de:	mov    ch,0x3b
  4176e0:	and    edi,DWORD PTR [ebp-0x22e3a45a]
  4176e6:	fisubr DWORD PTR [esi]
  4176e8:	pop    esi
  4176e9:	cmp    BYTE PTR [ecx+eax*8],dh
  4176ec:	js     0x417698
  4176ee:	and    DWORD PTR [ebx-0x4c],ecx
  4176f1:	push   0xc01acf6
  4176f6:	xlat   BYTE PTR ds:[ebx]
  4176f7:	sbb    al,al
  4176f9:	jg     0x417744
  4176fb:	aad    0xdd
  4176fd:	inc    ebx
  4176fe:	ds and dh,dl
  417701:	stos   BYTE PTR es:[edi],al
  417702:	dec    ebp
  417703:	pop    edx
  417704:	retf   0x854a
  417707:	int    0xe6
  417709:	mov    edi,0xc0d17a4f
  41770e:	inc    esi
  41770f:	or     ecx,eax
  417711:	bound  esi,QWORD PTR [esi*1-0x6d5cfd6f]
  417718:	call   0xd288ecc6
  41771d:	icebp  
  41771e:	jae    0x4176f1
  417720:	xchg   esi,eax
  417721:	add    ecx,eax
  417723:	loopne 0x417772
  417725:	test   BYTE PTR [ecx-0x67],cl
  417728:	sbb    eax,0xeca7dbd1
  41772d:	test   eax,0xdaedd8a1
  417732:	or     DWORD PTR [ebx],edi
  417734:	add    al,0xf9
  417736:	xor    ecx,edx
  417738:	stos   BYTE PTR es:[edi],al
  417739:	fild   QWORD PTR [ebx]
  41773b:	jne    0x417732
  41773d:	pextrw ecx,(bad),0xc5
  41773f:	or     eax,0xd8632ac3
  417744:	aam    0xac
  417746:	cmc    
  417747:	(bad)  
  417748:	lock shl BYTE PTR [eax],1
  41774b:	sti    
  41774c:	addr16 mov cl,0x37
  41774f:	cmp    ebp,DWORD PTR cs:[edx+0x1144ac6d]
  417756:	fsub   st(7),st
  417758:	sbb    eax,0x8364d13
  41775d:	stos   BYTE PTR es:[edi],al
  41775e:	sbb    eax,0x12df79ac
  417763:	rcr    BYTE PTR ds:0x3f665731,1
  417769:	cmp    bl,BYTE PTR [edi+ebp*8]
  41776c:	jge    0x417718
  41776e:	mov    ebp,0x14028e00
  417773:	pop    es
  417774:	adc    dl,ah
  417776:	pop    es
  417777:	xor    BYTE PTR [ebx+0x21],0x63
  41777b:	fstp   DWORD PTR [ecx+0x53daf37c]
  417781:	frstor [edi-0x3a42d96a]
  417787:	adc    BYTE PTR [ebx],cl
  417789:	push   0xa5c5934f
  41778e:	gs jge 0x4177d5
  417791:	jb     0x4177cd
  417793:	cmp    eax,0x10a250cb
  417798:	stos   DWORD PTR es:[edi],eax
  417799:	mov    ecx,0x7d2745bb
  41779e:	mul    ecx
  4177a0:	pop    edx
  4177a1:	cmp    BYTE PTR [ebx-0x6f],ah
  4177a4:	jle    0x4177d5
  4177a6:	mov    bl,0xea
  4177a8:	inc    ebx
  4177a9:	outs   dx,BYTE PTR ds:[esi]
  4177aa:	ins    BYTE PTR es:[edi],dx
  4177ab:	call   0xf939:0x9e09ab2e
  4177b2:	adc    BYTE PTR [edi],ah
  4177b4:	ss push ecx
  4177b6:	xchg   esp,eax
  4177b7:	and    esi,esp
  4177b9:	jns    0x41781f
  4177bb:	pop    ebp
  4177bc:	cmp    DWORD PTR [ebx+0x37],ebp
  4177bf:	pop    eax
  4177c0:	fsubr  DWORD PTR [ebx+0x4fe530e9]
  4177c6:	inc    edx
  4177c7:	or     ah,BYTE PTR [esi]
  4177c9:	es call 0xa3f5:0x362ad330
  4177d1:	ret    
  4177d2:	lds    ecx,FWORD PTR ds:0x8b54fae2
  4177d8:	dec    edx
  4177d9:	stos   BYTE PTR es:[edi],al
  4177da:	or     DWORD PTR [edx+eiz*4],edi
  4177dd:	push   ss
  4177de:	xor    esp,DWORD PTR [edx+0x1d]
  4177e1:	in     eax,dx
  4177e2:	mov    ah,0x48
  4177e4:	mov    ebp,0x4eb72b49
  4177e9:	test   eax,0x9d149511
  4177ee:	loop   0x4177bc
  4177f0:	push   ebx
  4177f1:	mov    esi,ebp
  4177f3:	aas    
  4177f4:	mov    ah,0xc2
  4177f6:	bound  ecx,QWORD PTR [ebp-0x65]
  4177f9:	push   0x94c77967
  4177fe:	push   esi
  4177ff:	or     dh,ah
  417801:	xchg   ebx,eax
  417802:	in     eax,dx
  417803:	adc    eax,0xfc226bd
  417808:	sahf   
  417809:	sub    BYTE PTR [ecx+0x51],bh
  41780c:	pop    ss
  41780d:	add    BYTE PTR [edi],0x11
  417810:	push   ds
  417811:	cmp    al,BYTE PTR [ebx-0xa]
  417814:	xor    eax,0x9d796afc
  417819:	in     eax,0xd7
  41781b:	or     eax,0xd462b115
  417820:	mov    bl,0xcd
  417822:	cmp    ecx,DWORD PTR [esi]
  417824:	pusha  
  417825:	repz mov ch,0x20
  417828:	pop    ds
  417829:	cmp    eax,0x46576085
  41782e:	popf   
  41782f:	xchg   ecx,eax
  417830:	push   edi
  417831:	lods   al,BYTE PTR ds:[esi]
  417832:	in     eax,dx
  417833:	jl     0x417888
  417835:	adc    DWORD PTR [ecx],0x55910d9c
  41783b:	xchg   esp,eax
  41783c:	sub    dl,BYTE PTR [eax-0x2dd7f37b]
  417842:	mov    esi,?
  417844:	mov    edi,0x5f916224
  417849:	cmp    ch,BYTE PTR [esi+ecx*1-0x5c69c3c7]
  417850:	sbb    al,0xc5
  417852:	(bad)  
  417853:	cld    
  417854:	mov    esi,0x75ab85ee
  417859:	stos   BYTE PTR es:[edi],al
  41785a:	icebp  
  41785b:	aad    0x6c
  41785d:	xchg   DWORD PTR [esi+0x77],edi
  417860:	sub    al,0x39
  417862:	shr    BYTE PTR ds:[ebx],1
  417865:	pop    ebx
  417866:	arpl   cx,si
  417868:	adc    BYTE PTR [esi-0x38],al
  41786b:	cmps   BYTE PTR ds:[esi],BYTE PTR es:[edi]
  41786c:	scas   eax,DWORD PTR es:[edi]
  41786d:	cwde   
  41786e:	pop    eax
  41786f:	add    edx,DWORD PTR [esi+0x52]
  417872:	mov    edi,DWORD PTR [eax]
  417874:	push   edx
  417875:	cmp    eax,0x38f18244
  41787a:	rcr    DWORD PTR gs:[ecx],0x4f
  41787e:	cmp    ebp,DWORD PTR [ecx]
  417880:	jnp    0x417889
  417882:	dec    BYTE PTR [esi]
  417884:	jb     0x4178a3
  417886:	jo     0x417826
  417888:	sbb    al,0x9
  41788a:	xor    DWORD PTR [ebp+0x234482da],ebx
  417890:	mov    dh,0xa9
  417892:	inc    ebp
  417893:	rcl    BYTE PTR [edi-0x2e],0x26
  417897:	mov    dh,0x20
  417899:	sbb    bl,al
  41789b:	xor    al,0x9f
  41789d:	cmc    
  41789e:	popa   
  41789f:	rcr    DWORD PTR [eax-0x37],1
  4178a2:	mov    dl,0x89
  4178a4:	fild   QWORD PTR [edx]
  4178a6:	jmp    0x2ae12047
  4178ab:	bswap  ecx
  4178ad:	or     dh,cl
  4178af:	inc    edx
  4178b0:	paddsw mm6,QWORD PTR [ebp+edi*2+0x6a1e7224]
  4178b8:	adc    eax,0xcf736592
  4178bd:	pop    ebp
  4178be:	stos   DWORD PTR es:[edi],eax
  4178bf:	or     DWORD PTR [ebx],ebx
  4178c1:	fxch   st(7)
  4178c3:	rcr    BYTE PTR [esi+ebx*1-0x3a],1
  4178c7:	dec    ebp
  4178c8:	and    ebx,ebp
  4178ca:	popa   
  4178cb:	fsincos 
  4178cd:	pop    es
  4178ce:	pop    ebp
  4178cf:	mov    ah,0xb3
  4178d1:	push   0x24
  4178d3:	cpuid  
  4178d5:	aad    0xa9
  4178d7:	xchg   BYTE PTR [edx+0x1f],cl
  4178da:	(bad)  [eax+0x35]
  4178dd:	test   eax,0x7176e07b
  4178e2:	jl     0x417942
  4178e4:	aad    0x90
  4178e6:	inc    ebp
  4178e7:	dec    edx
  4178e8:	jns    0x417969
  4178ea:	or     edi,ebx
  4178ec:	cmc    
  4178ed:	popf   
  4178ee:	lds    edx,FWORD PTR [eax]
  4178f0:	sbb    eax,0x26303c99
  4178f5:	adc    eax,0xa96fb994
  4178fa:	dec    ecx
  4178fb:	cmps   DWORD PTR ds:[esi],DWORD PTR es:[edi]
  4178fc:	inc    esi
  4178fd:	test   DWORD PTR [edi-0xd],edx
  417900:	dec    edx
  417901:	jmp    0x72de40cf
  417906:	arpl   WORD PTR [ecx],bp
  417908:	push   eax
  417909:	or     DWORD PTR [ebp+0xcb81e8c],0x1b
  417910:	pop    DWORD PTR [edx-0xc5cbb40]
  417916:	jae    0x417923
  417918:	adc    al,0xbc
  41791a:	(bad)  
  41791c:	pop    ds
  41791d:	mov    eax,ds:0x4f8c9988
  417922:	out    dx,eax
  417923:	inc    edi
  417924:	test   al,0xaa
  417926:	mov    ch,0xd5
  417928:	push   esp
  417929:	in     al,dx
  41792a:	(bad)  
  41792b:	add    al,BYTE PTR [ecx]
  41792d:	push   edx
  41792e:	dec    edi
  41792f:	movs   DWORD PTR es:[edi],DWORD PTR ds:[esi]
  417930:	push   eax
  417931:	cmp    BYTE PTR ds:0xbeb2de7d,ch
  417937:	adc    BYTE PTR [eax-0x56],ch
  41793a:	mov    ebp,0x88c874c6
  41793f:	xor    eax,0x38b5000d
  417944:	cmp    eax,0x2f496495
  417949:	pusha  
  41794a:	repz int 0x63
  41794d:	mov    cl,0x1a
  41794f:	adc    BYTE PTR [ecx+0x3cdbdadf],dh
  417955:	xor    al,0xbb
  417957:	daa    
  417958:	sub    eax,0xad0cd49b
  41795d:	push   eax
  41795e:	push   0x95a9bfbe
  417963:	mov    cl,0x6b
  417965:	mov    al,ds:0x7d64c2e6
  41796a:	mov    edi,0x15e9b83e
  41796f:	ins    DWORD PTR es:[edi],dx
  417970:	vpunpckldq ymm1,ymm5,YMMWORD PTR ds:0x586436be
  417978:	sbb    al,0xc1
  41797a:	mov    dh,BYTE PTR [edi+ebx*2-0x74]
  41797e:	arpl   di,dx
  417980:	dec    edx
  417981:	jnp    0x417921
  417983:	inc    edx
  417984:	sahf   
  417985:	and    BYTE PTR [ecx+esi*2+0x1b],0x45
  41798a:	jno    0x4179e6
  41798c:	mov    ds:0xed356dac,al
  417991:	inc    eax
  417992:	mul    BYTE PTR [edi+0x561bd903]
  417998:	gs jae 0x417a00
  41799b:	cdq    
  41799c:	aas    
  41799d:	jmp    0x9250f21b
  4179a2:	je     0x4179b2
  4179a4:	pop    edx
  4179a5:	ret    
  4179a6:	pop    DWORD PTR [eax+0x1d]
  4179a9:	jno    0x417a1c
  4179ab:	test   dh,ch
  4179ad:	aas    
  4179ae:	jae    0x41799f
  4179b0:	ret    0x618f
  4179b3:	adc    esi,0x3ea0a675
  4179b9:	mov    ds:0x8d1f503a,al
  4179be:	mov    edx,0xb0f5f234
  4179c3:	mov    ds:0x8005ab2d,al
  4179c8:	test   ecx,ecx
  4179ca:	sbb    eax,0xddb0e5f9
  4179cf:	addr16 jmp 0x4179ac
  4179d2:	fs in  eax,0xcb
  4179d5:	pusha  
  4179d6:	inc    ebx
  4179d7:	push   ebp
  4179d8:	(bad)  
  4179d9:	lods   al,BYTE PTR ds:[esi]
  4179da:	stos   DWORD PTR es:[edi],eax
  4179db:	out    dx,al
  4179dc:	dec    edx
  4179dd:	sbb    al,0x64
  4179df:	lods   eax,DWORD PTR ds:[esi]
  4179e0:	les    eax,FWORD PTR [ebp-0x3b67f85d]
  4179e6:	popa   
  4179e7:	add    DWORD PTR [edx],edx
  4179e9:	mov    ch,0x9f
  4179eb:	push   0x47
  4179ed:	out    dx,al
  4179ee:	xchg   ecx,eax
  4179ef:	sysret 
  4179f1:	popa   
  4179f2:	inc    ecx
  4179f3:	or     DWORD PTR [edi],ebx
  4179f5:	lea    ebx,[ebp+0x5e]
  4179f8:	push   edi
  4179f9:	jp     0x41798b
  4179fb:	fsubr  st,st(0)
  4179fd:	cmp    cl,cl
  4179ff:	xchg   BYTE PTR ss:[esi+ebx*8+0x7b3b5bf3],ch
  417a07:	outs   dx,DWORD PTR ds:[esi]
  417a08:	sbb    al,0x95
  417a0a:	push   0x7a
  417a0c:	sbb    eax,0xc63a996f
  417a11:	test   eax,0x5e5685f1
  417a16:	jmp    0xc8f577b1
  417a1b:	out    0xb2,eax
  417a1d:	shl    BYTE PTR [edx-0x33],0x79
  417a21:	or     eax,0xf0a70b73
  417a26:	jbe    0x417a33
  417a28:	xchg   DWORD PTR [ecx+0x1ebf7525],eax
  417a2e:	cdq    
  417a2f:	dec    esi
  417a30:	data16 sbb BYTE PTR [ebp-0xf],ah
  417a34:	xor    BYTE PTR [esi+0x3faba7a7],cl
  417a3a:	and    DWORD PTR [esi],ecx
  417a3c:	sub    bh,BYTE PTR [ecx]
  417a3e:	jno    0x417aa6
  417a40:	das    
  417a41:	jno    0x417a51
  417a43:	(bad)  
  417a45:	in     al,dx
  417a46:	lods   eax,DWORD PTR fs:[esi]
  417a48:	shl    DWORD PTR [esi-0x3c],0xbd
  417a4c:	(bad)  
  417a4d:	(bad)  
  417a4e:	pop    eax
  417a4f:	adc    DWORD PTR [edx],ecx
  417a51:	push   eax
  417a52:	sub    DWORD PTR [esp+ebx*1+0x41],esi
  417a56:	int    0x55
  417a58:	sbb    BYTE PTR [ecx],ch
  417a5a:	add    BYTE PTR [ebx+ecx*2],ah
  417a5d:	stos   BYTE PTR es:[edi],al
  417a5e:	fisttp QWORD PTR [eax+0x9]
  417a61:	mov    ebp,0xed6f3717
  417a66:	xchg   esi,eax
  417a67:	jbe    0x417a9e
  417a69:	xchg   edi,eax
  417a6a:	bound  edi,QWORD PTR [ebp-0x24]
  417a6d:	scas   al,BYTE PTR es:[edi]
  417a6e:	lock test al,0x3b
  417a71:	in     eax,0x4b
  417a73:	push   cs
  417a74:	bound  ecx,QWORD PTR [edi+0x351f9983]
  417a7a:	pop    esi
  417a7b:	mov    ah,BYTE PTR [ecx-0x6]
  417a7e:	pop    edi
  417a7f:	les    ecx,FWORD PTR [edx-0x12e62257]
  417a85:	ss iret 
  417a87:	mov    edi,0x897c2e12
  417a8c:	cmp    eax,0x1ad62a9
  417a91:	pop    ecx
  417a92:	neg    DWORD PTR [ebp+0x4b]
  417a95:	out    dx,al
  417a96:	adc    ecx,DWORD PTR [esi]
  417a98:	mov    ds:0x1e7116ed,eax
  417a9d:	test   eax,0x1f175686
  417aa2:	sub    al,0x46
  417aa4:	leave  
  417aa5:	lods   al,BYTE PTR ds:[esi]
  417aa6:	in     eax,0xb3
  417aa8:	mov    ecx,0x13c3dcfb
  417aad:	lds    edi,FWORD PTR [edi]
  417aaf:	fisub  DWORD PTR [esi]
  417ab1:	popa   
  417ab2:	fs mov cl,0x8d
  417ab5:	dec    esp
  417ab6:	push   ebx
  417ab7:	push   eax
  417ab8:	pop    edx
  417ab9:	movs   DWORD PTR es:[edi],DWORD PTR ds:[esi]
  417aba:	and    DWORD PTR [ebx],0x10134121
  417ac0:	dec    esi
  417ac1:	fwait
  417ac2:	retf   0x13b7
  417ac5:	shr    DWORD PTR [esi-0x3658636a],1
  417acb:	lods   eax,DWORD PTR ds:[esi]
  417acc:	sbb    eax,0x6f32a05d
  417ad1:	test   al,0xed
  417ad3:	inc    ebp
  417ad4:	test   DWORD PTR [ecx-0x44],edi
  417ad7:	dec    eax
  417ad8:	or     al,0x6a
  417ada:	jle    0x417ad5
  417adc:	mov    eax,ds:0xa1887ffc
  417ae1:	jmp    0x1ef95dc9
  417ae6:	push   edx
  417ae7:	xchg   ebp,eax
  417ae8:	and    BYTE PTR [ebp+0x4b6ab260],0xc4
  417aef:	adc    eax,0xc2f7acf0
  417af4:	in     eax,0x78
  417af6:	jnp    0x417b64
  417af8:	mov    cl,0x39
  417afa:	loop   0x417a97
  417afc:	fst    st(6)
  417afe:	in     eax,0xee
  417b00:	xor    cl,BYTE PTR [ebp+0x4f]
  417b03:	popa   
  417b04:	sbb    eax,0xf113eeca
  417b09:	fisttp DWORD PTR [edi]
  417b0b:	cld    
  417b0c:	mov    ebx,0x9ed659a5
  417b11:	cmp    eax,0x14179009
  417b16:	sbb    cl,bl
  417b18:	cdq    
  417b19:	lods   al,BYTE PTR ds:[esi]
  417b1a:	inc    ebp
  417b1b:	lods   al,BYTE PTR ds:[esi]
  417b1c:	stc    
  417b1d:	call   0xac80e438
  417b22:	mov    ch,0x2b
  417b24:	ss dec ebx
  417b26:	jmp    0x2a78e90
  417b2b:	dec    esi
  417b2c:	inc    edx
  417b2d:	mov    esp,DWORD PTR [ebp+0x3d]
  417b30:	mov    ebp,0x57cc40e3
  417b35:	pop    edi
  417b36:	xor    BYTE PTR [ecx-0xbdfc605],al
  417b3c:	nop
  417b3d:	ins    BYTE PTR es:[edi],dx
  417b3e:	mov    dh,cl
  417b40:	scas   al,BYTE PTR es:[edi]
  417b41:	mov    ds:0x39fa6be,eax
  417b46:	fadd   DWORD PTR [eax+ebp*1]
  417b49:	out    0x76,al
  417b4b:	rcr    BYTE PTR [esi+0x14],0x20
  417b4f:	xchg   edi,edx
  417b51:	jns    0x417b3f
  417b53:	(bad)  
  417b54:	pop    ds
  417b55:	jle    0x417bc1
  417b57:	fld    TBYTE PTR [esi]
  417b59:	cmp    edi,DWORD PTR [esi]
  417b5b:	dec    esi
  417b5c:	cmp    al,BYTE PTR [ecx+ebx*2+0x5d]
  417b60:	sub    cl,BYTE PTR [esi+edi*4]
  417b63:	xor    ebx,DWORD PTR [edi]
  417b65:	aam    0x71
  417b67:	or     bl,0xa7
  417b6a:	out    dx,al
  417b6b:	add    al,0xd8
  417b6d:	int    0x21
  417b6f:	scas   al,BYTE PTR es:[edi]
  417b70:	mov    esp,0xbc0af227
  417b75:	int3   
  417b76:	sbb    eax,0x6ab11e4f
  417b7b:	mov    cl,0x33
  417b7d:	jae    0x417b1f
  417b7f:	jns    0x417b42
  417b81:	enter  0xf540,0x1f
  417b85:	gs (bad) 
  417b87:	push   eax
  417b88:	cmp    al,0xcf
  417b8a:	jns    0x417b40
  417b8c:	sbb    al,0x1d
  417b8e:	ds retf 0x5b6c
  417b92:	xchg   esi,eax
  417b93:	repnz inc ebx
  417b95:	das    
  417b96:	in     eax,0x51
  417b98:	jp     0x417b45
  417b9a:	push   esp
  417b9b:	dec    edi
  417b9c:	fs pop edi
  417b9e:	cli    
  417b9f:	xor    eax,0xcfc56d1c
  417ba4:	test   DWORD PTR [esp+ecx*4],esi
  417ba7:	(bad)  
  417ba8:	jmp    0x82c0:0xe8efb19f
  417baf:	sti    
  417bb0:	sbb    dl,al
  417bb2:	pop    es
  417bb3:	adc    ebx,0xdc4f94ac
  417bb9:	cmp    eax,DWORD PTR [eax+0xbd79e47]
  417bbf:	xchg   edi,eax
  417bc0:	hlt    
  417bc1:	inc    eax
  417bc2:	movs   BYTE PTR es:[edi],BYTE PTR fs:[esi]
  417bc4:	test   al,0xf9
  417bc6:	add    DWORD PTR [ecx+0x14],edx
  417bc9:	mov    dl,0x2f
  417bcb:	js     0x417c04
  417bcd:	mov    dh,0xce
  417bcf:	adc    BYTE PTR [edx+0x1dd8a127],bh
  417bd5:	popa   
  417bd6:	mov    eax,ds:0x4961428a
  417bdb:	or     al,0x8b
  417bdd:	les    eax,FWORD PTR [ecx]
  417bdf:	xchg   DWORD PTR [esi-0x56],ecx
  417be2:	imul   edi,DWORD PTR [eax],0x1d331da6
  417be8:	test   BYTE PTR [ebx],0xfc
  417beb:	lods   eax,DWORD PTR ds:[esi]
  417bec:	retf   
  417bed:	addr16 fs leave 
  417bf0:	std    
  417bf1:	pop    ebp
  417bf2:	ja     0x417bec
  417bf4:	pop    ds
  417bf5:	or     BYTE PTR ds:0xb971c506,bh
  417bfb:	ins    BYTE PTR es:[edi],dx
  417bfc:	and    ebp,DWORD PTR [ebx]
  417bfe:	in     al,0xd1
  417c00:	sub    al,0x13
  417c02:	dec    ecx
  417c03:	dec    ecx
  417c04:	fisubr WORD PTR [edi-0x74]
  417c07:	(bad)  
  417c08:	daa    
  417c09:	lahf   
  417c0a:	jne    0x417c0a
  417c0c:	or     BYTE PTR [eax+0x32333a49],ah
  417c12:	ds loope 0x417c32
  417c15:	pop    ss
  417c16:	and    cl,BYTE PTR [edx]
  417c18:	sbb    eax,0x63d6bc1
  417c1d:	adc    BYTE PTR [ecx+edx*1],cl
  417c20:	shr    BYTE PTR [ebp+eax*2+0x1f9a4370],cl
  417c27:	fldenv [edi-0x33000f78]
  417c2d:	arpl   WORD PTR [ebp-0x7b],sp
  417c30:	inc    ebx
  417c31:	(bad)  
  417c32:	bnd jae 0x417c94
  417c35:	test   BYTE PTR [ebx-0x4496e4f1],bh
  417c3b:	xchg   BYTE PTR [esi],bl
  417c3d:	xor    eax,0xdc4815c3
  417c42:	loop   0x417bec
  417c44:	inc    ebx
  417c45:	test   eax,0x1b31d7c5
  417c4a:	js     0x417c86
  417c4c:	mov    ds:0x6808b213,al
  417c51:	mov    cl,0x55
  417c53:	mov    ecx,0xbee9ae79
  417c58:	mov    dh,0x70
  417c5a:	xlat   BYTE PTR ds:[ebx]
  417c5b:	in     eax,dx
  417c5c:	pop    ebp
  417c5d:	cmp    eax,ecx
  417c5f:	pop    ebp
  417c60:	mov    cl,0xa9
  417c62:	aad    0xf9
  417c64:	dec    esi
  417c65:	outs   dx,BYTE PTR ds:[esi]
  417c66:	jb     0x417c93
  417c68:	xor    edi,ebp
  417c6a:	sbb    ebx,esi
  417c6c:	inc    eax
  417c6d:	mov    cl,0x35
  417c6f:	add    DWORD PTR [edi],ebp
  417c71:	iret   
  417c72:	pop    esi
  417c73:	add    bl,BYTE PTR [eax+0x38edeeb]
  417c79:	mov    DWORD PTR gs:[eax],edx
  417c7c:	mov    ecx,0x113d5ede
  417c81:	push   ecx
  417c82:	into   
  417c83:	les    eax,FWORD PTR [ebp+0xa]
  417c86:	and    BYTE PTR [edx-0x4b],0x2d
  417c8a:	adc    cl,BYTE PTR [edx]
  417c8c:	jl     0x417c37
  417c8e:	mov    ch,0xa1
  417c90:	daa    
  417c91:	mov    bh,0x98
  417c93:	push   ebp
  417c94:	dec    ecx
  417c95:	mov    esp,0x54f0bbb
  417c9a:	or     BYTE PTR [ecx-0x50],cl
  417c9d:	xchg   ebx,eax
  417c9e:	arpl   WORD PTR ds:0x7621a91a,si
  417ca4:	std    
  417ca5:	push   0x27
  417ca7:	loopne 0x417c72
  417ca9:	jmp    0x417d2a
  417cab:	dec    eax
  417cac:	dec    edi
  417cad:	lods   eax,DWORD PTR ds:[esi]
  417cae:	push   esp
  417caf:	mov    WORD PTR [eax],gs
  417cb1:	jp     0x417c65
  417cb3:	mov    ah,0x79
  417cb5:	xchg   DWORD PTR [ecx+edi*1+0x30],esp
  417cb9:	les    edx,FWORD PTR [eax+0x35]
  417cbc:	add    ecx,DWORD PTR [edi]
  417cbe:	sar    BYTE PTR [edx+edx*2],1
  417cc1:	sub    ebp,esp
  417cc3:	aas    
  417cc4:	mov    bl,0x73
  417cc6:	loope  0x417c4a
  417cc8:	movs   BYTE PTR es:[edi],BYTE PTR ds:[esi]
  417cc9:	sub    eax,0x707854f0
  417cce:	inc    edi
  417ccf:	xor    ecx,ebp
  417cd1:	pop    edi
  417cd2:	mov    ds:0x41ab8c39,eax
  417cd7:	push   ecx
  417cd8:	adc    edx,edx
  417cda:	shr    ecx,0x98
  417cdd:	xor    bl,ch
  417cdf:	ret    
  417ce0:	pop    ebx
  417ce1:	in     al,dx
  417ce2:	popa   
  417ce3:	dec    ecx
  417ce4:	nop
  417ce5:	les    ebx,FWORD PTR [ebx+0x1587901f]
  417ceb:	aaa    
  417cec:	xor    al,0xae
  417cee:	ja     0x417c84
  417cf0:	jae    0x417cb6
  417cf2:	popa   
  417cf3:	test   DWORD PTR [eax],ebx
  417cf5:	mov    cl,0x1a
  417cf7:	dec    ebx
  417cf8:	in     eax,dx
  417cf9:	repnz mov esi,0x651df09
  417cff:	mov    ebp,0x9e323cdb
  417d04:	loop   0x417ce3
  417d06:	bound  ecx,QWORD PTR [edi]
  417d08:	xor    ah,dl
  417d0a:	xor    BYTE PTR [esi+0x8],0x1c
  417d0e:	arpl   WORD PTR [ecx-0x3cfcaf67],ax
  417d14:	mov    bl,0x85
  417d16:	mov    ebx,0x12dbc0a0
  417d1b:	push   cs
  417d1c:	push   ebx
  417d1d:	mov    dl,0x39
  417d1f:	xor    eax,edx
  417d21:	pop    ebp
  417d22:	sub    eax,0x2b78bb39
  417d27:	adc    DWORD PTR ds:0x735991aa,esi
  417d2d:	fidiv  DWORD PTR [ecx+0x1c]
  417d30:	icebp  
  417d31:	lds    ebp,FWORD PTR ds:0xf1dd3cb0
  417d37:	cmp    BYTE PTR [ebx-0x6eeb9ae0],dh
  417d3d:	test   eax,0x93152aa9
  417d42:	dec    edi
  417d43:	jb     0x417d92
  417d45:	out    dx,al
  417d46:	in     eax,dx
  417d47:	add    BYTE PTR [ebx+0x1e1d47cc],bl
  417d4d:	jp     0x417d44
  417d4f:	xlat   BYTE PTR ds:[ebx]
  417d50:	sub    DWORD PTR [ebx+0x7e4619],0xb0cfdc0c
  417d5a:	adc    al,cl
  417d5c:	scas   eax,DWORD PTR es:[edi]
  417d5d:	call   0xb2f16466
  417d62:	jg     0x417d86
  417d64:	scas   al,BYTE PTR es:[edi]
  417d65:	cs (bad) 
  417d67:	in     al,dx
  417d68:	int3   
  417d69:	jae    0x417d64
  417d6b:	arpl   WORD PTR [edx+0x7b9645f6],sp
  417d71:	push   esp
  417d72:	loop   0x417cf9
  417d74:	add    eax,DWORD PTR [ebp-0x64]
  417d77:	sub    ebx,DWORD PTR [edx+0x25bac287]
  417d7d:	pop    ecx
  417d7e:	mov    ds:0x90e0b1d,al
  417d83:	cmove  ecx,DWORD PTR [edi+0x44f18335]
  417d8a:	sub    DWORD PTR [edx-0x4ffc53b7],ebp
  417d90:	mov    ds:0x9163b67,eax
  417d95:	mov    edi,0x1e0bcdff
  417d9a:	ja     0x417d9d
  417d9c:	jo     0x417d22
  417d9e:	jmp    0x9df:0x45380bbd
  417da5:	repz in eax,dx
  417da7:	dec    esp
  417da8:	jb     0x417d63
  417daa:	popa   
  417dab:	cmp    eax,0x4b1a9a7
  417db0:	cmp    BYTE PTR [ecx+0x2dd780eb],ch
  417db6:	add    al,0x17
  417db8:	push   esi
  417db9:	lds    esp,FWORD PTR [edx-0x7]
  417dbc:	xchg   BYTE PTR [ecx+0x6c],ah
  417dbf:	push   ss
  417dc0:	mov    ds:0x130f2155,eax
  417dc5:	fcmovb st,st(0)
  417dc7:	mov    WORD PTR [esi],ds
  417dc9:	ins    DWORD PTR es:[edi],dx
  417dca:	arpl   WORD PTR [ebx],ax
  417dcc:	cmovno edx,DWORD PTR [eax-0x603be669]
  417dd3:	add    esp,DWORD PTR [edi-0x70f41b0e]
  417dd9:	mov    al,0x20
  417ddb:	fbld   TBYTE PTR [edi+ebx*2]
  417dde:	sub    dl,BYTE PTR [eax-0x2e1e89c4]
  417de4:	sbb    eax,0xdcb86acd
  417de9:	loopne 0x417e28
  417deb:	je     0x417da1
  417ded:	test   eax,0x6cf726e9
  417df2:	nop
  417df3:	pop    ds
  417df4:	mov    ch,0x32
  417df6:	les    ebx,FWORD PTR [esi+ebx*1]
  417df9:	int    0x9d
  417dfb:	push   ebx
  417dfc:	jg     0x417e61
  417dfe:	pop    DWORD PTR [ecx+0x49]
  417e01:	xchg   edi,eax
  417e02:	sbb    DWORD PTR [ebp+0x16974f3a],edi
  417e08:	sbb    BYTE PTR [ebp-0x42e1efbb],0x22
  417e0f:	inc    ebp
  417e10:	movs   BYTE PTR es:[edi],BYTE PTR ds:[esi]
  417e11:	gs adc eax,0xa9ab9a83
  417e17:	mov    bl,0x99
  417e19:	ds xor eax,0x4ba3d517
  417e1f:	scas   eax,DWORD PTR es:[edi]
  417e20:	push   esp
  417e21:	xor    DWORD PTR [ebp+edi*1-0x7c],esp
  417e25:	and    BYTE PTR [ebx+0x7c10a3c2],dh
  417e2b:	push   cs
  417e2c:	mov    ds:0x7ce6cdfd,al
  417e31:	mov    eax,ds:0xfb5d370b
  417e36:	sub    ah,BYTE PTR [ebp+0xdd725b5]
  417e3c:	xor    BYTE PTR [esi-0xf03542f],ah
  417e42:	sbb    edi,ebx
  417e44:	jmp    0xae24bbf5
  417e49:	cwde   
  417e4a:	icebp  
  417e4b:	adc    eax,0xdea2809a
  417e50:	or     al,0x6e
  417e52:	or     DWORD PTR [edi],0xffffffbf
  417e55:	push   es
  417e56:	jg     0x417dd8
  417e58:	inc    ecx
  417e59:	jmp    0x455ecd3d
  417e5e:	out    dx,al
  417e5f:	jmp    0xaa05:0x15ad5300
  417e66:	cmp    eax,0x4c71d04d
  417e6b:	js     0x417ea2
  417e6d:	loope  0x417e39
  417e6f:	loop   0x417e20
  417e71:	loopne 0x417ed7
  417e73:	mov    ebp,0x4f81e15e
  417e78:	dec    ebx
  417e79:	imul   ecx,DWORD PTR gs:[esi],0xffffffa7
  417e7d:	sub    al,BYTE PTR [ebx+0x3e]
  417e80:	sbb    al,0x1
  417e82:	mov    ah,0xb0
  417e84:	pop    ecx
  417e85:	mov    al,ds:0xabbdb8cb
  417e8a:	ror    DWORD PTR [esi-0x6b],0x70
  417e8e:	push   ss
  417e8f:	pop    edi
  417e90:	sbb    ecx,DWORD PTR [ecx-0x30]
  417e93:	mov    ds:0x1465d9f,al
  417e98:	inc    edx
  417e99:	dec    ebx
  417e9a:	pop    ebp
  417e9b:	push   edx
  417e9c:	cmc    
  417e9d:	mov    ah,0x23
  417e9f:	sub    BYTE PTR [ebx+0x1a],0x32
  417ea3:	adc    DWORD PTR [edx+0x13768fdf],edx
  417ea9:	popf   
  417eaa:	inc    edx
  417eab:	(bad)  
  417eac:	loope  0x417e4a
  417eae:	out    dx,eax
  417eaf:	add    eax,DWORD PTR [ebp+0x18]
  417eb2:	and    BYTE PTR [edi],ch
  417eb4:	sti    
  417eb5:	jmp    0x417e7c
  417eb7:	loope  0x417eb9
  417eb9:	arpl   WORD PTR [eax],sp
  417ebb:	pop    edx
  417ebc:	sbb    DWORD PTR [edx-0x69],edx
  417ebf:	into   
  417ec0:	pop    ds
  417ec1:	fnsave ds:0x1cc18516
  417ec7:	retf   0xab01
  417eca:	imul   ebp,ecx,0x62cfcfa2
  417ed0:	dec    ebx
  417ed1:	xchg   ecx,eax
  417ed2:	mov    ebx,0x57a21a76
  417ed7:	mov    ebp,ebp
  417ed9:	retf   0x4d09
  417edc:	movs   DWORD PTR es:[edi],DWORD PTR ds:[esi]
  417edd:	stos   BYTE PTR es:[edi],al
  417ede:	sub    DWORD PTR [edi],ebx
  417ee0:	fbstp  TBYTE PTR [ebx-0x2f9e523d]
  417ee6:	imul   edx,DWORD PTR [eax],0x1bf5ac85
  417eec:	mov    dh,0x45
  417eee:	jg     0x417ef7
  417ef0:	fild   QWORD PTR [ecx+ebx*4+0x3b6a1c81]
  417ef7:	enter  0xc2bf,0xff
  417efb:	xor    dh,dl
  417efd:	stos   DWORD PTR es:[edi],eax
  417efe:	pop    eax
  417eff:	fnsave [eax-0x14]
  417f02:	push   cs
  417f03:	ja     0x417f10
  417f05:	cdq    
  417f06:	lods   eax,DWORD PTR ds:[esi]
  417f07:	es pop esi
  417f09:	pop    edx
  417f0a:	lds    esp,FWORD PTR [edi-0x50]
  417f0d:	out    dx,al
  417f0e:	inc    ebp
  417f0f:	push   cs
  417f10:	pop    ds
  417f11:	loope  0x417eb3
  417f13:	lods   eax,DWORD PTR ds:[esi]
  417f14:	add    eax,0xda2cdca2
  417f19:	lods   al,BYTE PTR ds:[esi]
  417f1a:	jno    0x417f28
  417f1c:	scas   al,BYTE PTR es:[edi]
  417f1d:	xor    DWORD PTR [ebx+0x35],ecx
  417f20:	mov    eax,0xa2b876c3
  417f25:	ins    BYTE PTR es:[edi],dx
  417f26:	jge    0x417ee7
  417f28:	sbb    al,0x20
  417f2a:	arpl   WORD PTR [ebp+ebp*4+0x3aa34dc],dx
  417f31:	pop    esp
  417f32:	and    ecx,DWORD PTR [ebx]
  417f34:	sub    al,0xd0
  417f36:	rol    DWORD PTR [esi+ebx*1-0x646fad9a],1
  417f3d:	push   ds
  417f3e:	dec    edi
  417f3f:	xchg   ebp,eax
  417f40:	pop    ds
  417f41:	lods   eax,DWORD PTR ds:[esi]
  417f42:	out    dx,eax
  417f43:	or     DWORD PTR [esi],eax
  417f45:	inc    ecx
  417f46:	js     0x417f09
  417f48:	ja     0x417f0c
  417f4a:	xor    eax,0x10cda611
  417f4f:	scas   eax,DWORD PTR es:[edi]
  417f50:	pop    ds
  417f51:	(bad)
  417f54:	(bad)  [ebp-0x5521bacc]
  417f5a:	in     eax,dx
  417f5b:	or     al,0x85
  417f5d:	scas   eax,DWORD PTR es:[edi]
  417f5e:	sub    ecx,edi
  417f60:	bnd jae 0x417f67
  417f63:	push   ebx
  417f64:	inc    esi
  417f65:	mov    ecx,0xcab16564
  417f6a:	popf   
  417f6b:	mov    dl,0x7b
  417f6d:	jne    0x417f7f
  417f6f:	psrlw  mm5,QWORD PTR [eax]
  417f72:	(bad)  
  417f73:	call   FWORD PTR [eax*1-0x61fc6592]
  417f7a:	push   edi
  417f7b:	pop    ecx
  417f7c:	cmc    
  417f7d:	stos   BYTE PTR es:[edi],al
  417f7e:	cmp    eax,0xccdaaf35
  417f83:	jns    0x417f91
  417f85:	xchg   esp,eax
  417f86:	add    eax,0x63dd4472
  417f8b:	std    
  417f8c:	and    dh,cl
  417f8e:	out    dx,eax
  417f8f:	jle    0x417f68
  417f91:	cdq    
  417f92:	mov    ds:0x7159c501,al
  417f97:	iret   
  417f98:	add    eax,0x9a32a573
  417f9d:	jns    0x418004
  417f9f:	fdecstp 
  417fa1:	test   DWORD PTR [eax],edx
  417fa3:	pop    edi
  417fa4:	das    
  417fa5:	mov    edx,0x6cdb0e3d
  417faa:	out    0xe9,al
  417fac:	sbb    eax,0xd32dff19
  417fb1:	and    eax,0xace00060
  417fb6:	mov    eax,ds:0x924c9d0d
  417fbb:	adc    DWORD PTR [esi],0x6649b7f2
  417fc1:	test   BYTE PTR [ebp-0x7],ah
  417fc4:	mov    eax,ds:0xe70ecf45
  417fc9:	out    dx,eax
  417fca:	mov    BYTE PTR [ebp+0xe9c9966],bl
  417fd0:	sub    dh,BYTE PTR [esi+eiz*2-0x6d]
  417fd4:	mov    edx,0x1b84ad15
  417fd9:	xchg   ebx,eax
  417fda:	ja     0x417fec
  417fdc:	jns    0x417f89
  417fde:	scas   al,BYTE PTR es:[edi]
  417fdf:	push   esp
  417fe0:	(bad)  
  417fe2:	imul   edx,DWORD PTR [eax],0x3f
  417fe5:	(bad)  
  417fe7:	cmc    
  417fe8:	push   ds
  417fe9:	ins    DWORD PTR es:[edi],dx
  417fea:	push   ss
  417feb:	adc    eax,0xc18769f9
  417ff0:	popf   
  417ff1:	stos   DWORD PTR es:[edi],eax
  417ff2:	popf   
  417ff3:	in     eax,dx
  417ff4:	movs   DWORD PTR es:[edi],DWORD PTR ds:[esi]
  417ff5:	dec    esp
  417ff6:	dec    ecx
  417ff7:	dec    esp
  417ff8:	adc    DWORD PTR [edx+0x35],eax
  417ffb:	cmp    DWORD PTR [eax+edx*4],eax
  417ffe:	ja     0x417fc8
  418000:	mov    esp,0xa3d1cc57
  418005:	xchg   esi,eax
  418006:	and    al,0x9e
  418008:	dec    edi
  418009:	dec    ebp
  41800a:	dec    DWORD PTR ds:0x21336f05
  418010:	in     eax,0xdc
  418012:	sub    al,0x27
  418014:	push   ds
  418015:	stos   BYTE PTR es:[edi],al
  418016:	ret    0x6635
  418019:	jecxz  0x417fc6
  41801b:	cmp    DWORD PTR [ebx-0x7fefe599],edi
  418021:	scas   al,BYTE PTR es:[edi]
  418022:	push   0xffffffff
  418024:	sbb    eax,0xbfe9a9a1
  418029:	pop    esp
  41802a:	retf   0x45cf
  41802d:	xchg   esi,eax
  41802e:	(bad)  [esi]
  418030:	fsubr  DWORD PTR [eax-0x5757c59d]
  418036:	mov    al,ds:0xedc51310
  41803b:	inc    edi
  41803c:	das    
  41803d:	push   cs
  41803e:	inc    esp
  41803f:	fcom   DWORD PTR [ebp-0x5c512bed]
  418045:	stos   BYTE PTR es:[edi],al
  418046:	ret    
  418047:	adc    cl,bh
  418049:	cmp    eax,DWORD PTR [esi-0x31c6e370]
  41804f:	pusha  
  418050:	push   es
  418051:	ds retf 
  418053:	add    BYTE PTR [esi],bl
  418055:	stos   BYTE PTR es:[edi],al
  418056:	ror    ecx,1
  418058:	mov    esp,0x7cb7b5e9
  41805d:	adc    bl,BYTE PTR [edi+edi*4]
  418060:	sbb    al,0x6d
  418062:	xchg   esi,eax
  418063:	jmp    0x418077
  418065:	lea    ebx,[esp+eax*1]
  418068:	stos   DWORD PTR es:[edi],eax
  418069:	stos   DWORD PTR es:[edi],eax
  41806a:	test   ecx,ebx
  41806c:	sbb    edx,edx
  41806e:	jmp    0x41801c
  418070:	out    0x5a,eax
  418072:	nop
  418073:	jnp    0x41809d
  418075:	sahf   
  418076:	sbb    al,0xf9
  418078:	int3   
  418079:	xchg   ebp,eax
  41807a:	gs add eax,0x1f5aa91
  418080:	test   DWORD PTR [ebx],eax
  418082:	or     eax,0xf9f54e4e
  418087:	and    BYTE PTR [esi],0x42
  41808a:	pop    eax
  41808b:	std    
  41808c:	arpl   bx,bp
  41808e:	cmp    DWORD PTR [ecx+0x6],esp
  418091:	rcr    BYTE PTR [edi],0x6f
  418094:	or     edi,DWORD PTR [esi-0x3646d8d2]
  41809a:	fs fwait
  41809c:	cmp    ah,BYTE PTR [ecx-0x24]
  41809f:	pusha  
  4180a0:	or     al,0xa0
  4180a2:	gs in  eax,0xa7
  4180a5:	xchg   edi,eax
  4180a6:	fcom   DWORD PTR [edx+0x2a]
  4180a9:	lods   al,BYTE PTR ds:[esi]
  4180aa:	jge    0x4180fa
  4180ac:	dec    esi
  4180ad:	pop    esi
  4180ae:	cmc    
  4180af:	out    dx,al
  4180b0:	les    edx,FWORD PTR [edi-0x64]
  4180b3:	into   
  4180b4:	cwde   
  4180b5:	and    DWORD PTR [edx+0x45],esp
  4180b8:	loopne 0x41809d
  4180ba:	jae    0x41807b
  4180bc:	or     ebx,DWORD PTR [ebp+0x25]
  4180bf:	add    esp,DWORD PTR [ebx-0x36]
  4180c2:	iret   
  4180c3:	addr16 fwait
  4180c5:	arpl   WORD PTR fs:[ecx-0x477ef73f],bx
  4180cc:	mov    eax,db7
  4180cf:	shr    BYTE PTR [edx],cl
  4180d1:	cmp    bl,BYTE PTR [eax+0x1]
  4180d4:	dec    ebx
  4180d5:	pop    edi
  4180d6:	cmp    edx,DWORD PTR [ecx]
  4180d8:	cmp    al,0x88
  4180da:	and    BYTE PTR [ebp+0x46],bh
  4180dd:	dec    ebx
  4180de:	pop    esi
  4180df:	stc    
  4180e0:	jb     0x4180fb
  4180e2:	lods   eax,DWORD PTR ds:[esi]
  4180e3:	fiadd  DWORD PTR [eax+0x5d]
  4180e6:	xchg   ebp,eax
  4180e7:	sar    ebp,1
  4180e9:	lods   al,BYTE PTR ds:[esi]
  4180ea:	lods   eax,DWORD PTR ds:[esi]
  4180eb:	sub    edx,DWORD PTR [edi+0x58e8c6b9]
  4180f1:	jne    0x41816d
  4180f3:	cwde   
  4180f4:	mov    ebx,0xb28daa83
  4180f9:	pusha  
  4180fa:	arpl   WORD PTR [ecx-0x7b104b89],cx
  418100:	pop    DWORD PTR [edi]
  418102:	sahf   
  418103:	push   cs
  418104:	dec    BYTE PTR [edi-0x3e]
  418107:	mov    esi,0xb1bc44c7
  41810c:	jecxz  0x41815a
  41810e:	pop    ss
  41810f:	lods   al,BYTE PTR ds:[esi]
  418110:	push   ebp
  418111:	sbb    dh,cl
  418113:	mov    fs,WORD PTR [ecx-0x72]
  418116:	jge    0x41814c
  418118:	mov    ch,0x8d
  41811a:	add    dl,BYTE PTR [eax-0x5f]
  41811d:	pop    ebp
  41811e:	xchg   BYTE PTR [edi+0x0],cl
  418121:	pop    ecx
  418122:	inc    esp
  418123:	sti    
  418124:	jno    0x41812a
  418126:	dec    ebx
  418127:	sub    eax,0xfacfe61e
  41812c:	jmp    0x4180d7
  41812e:	cmp    DWORD PTR [eax+0x2e],esp
  418131:	cli    
  418132:	adc    DWORD PTR [eax-0x56066121],esi
  418138:	jle    0x4180fa
  41813a:	lock push 0xe14e93d0
  418140:	mov    ebx,esi
  418142:	(bad)  
  418143:	into   
  418144:	das    
  418145:	and    al,0xa3
  418147:	add    eax,DWORD PTR [edi]
  418149:	pop    edi
  41814a:	jmp    0xa231:0x5e763ec0
  418151:	sbb    BYTE PTR [ecx],ch
  418153:	xlat   BYTE PTR ds:[ebx]
  418154:	in     eax,dx
  418155:	stos   DWORD PTR es:[edi],eax
  418156:	inc    ebp
  418157:	ret    0x59ab
  41815a:	dec    esi
  41815b:	add    BYTE PTR [ecx+0x1f53c4c0],0x2d
  418162:	and    eax,DWORD PTR [ebx-0x8]
  418165:	sar    BYTE PTR [edx+ebx*8-0x739b505d],cl
  41816c:	add    ecx,DWORD PTR [ecx-0x54]
  41816f:	xor    dl,cl
  418171:	sub    al,0xc3
  418173:	fnsave [ecx+0x21]
  418176:	ins    BYTE PTR es:[edi],dx
  418177:	sub    al,0x3a
  418179:	arpl   WORD PTR [edx+0x1d],sp
  41817c:	xor    eax,0x37a1c727
  418181:	shl    BYTE PTR [ebx+0x7395580d],0x98
  418188:	sbb    al,0xa5
  41818a:	mov    ebp,0x32231e11
  41818f:	xor    al,0xd9
  418191:	mov    edi,0x351c1e2c
  418196:	stc    
  418197:	loopne 0x418138
  418199:	std    
  41819a:	das    
  41819b:	mov    ch,0x1e
  41819d:	lods   eax,DWORD PTR ds:[esi]
  41819e:	or     al,dl
  4181a0:	mov    ch,0x3b
  4181a2:	sbb    al,0x3a
  4181a4:	into   
  4181a5:	stos   DWORD PTR es:[edi],eax
  4181a6:	pop    ecx
  4181a7:	dec    eax
  4181a8:	pop    esp
  4181a9:	push   ecx
  4181aa:	inc    edx
  4181ab:	jb     0x418185
  4181ad:	pop    ds
  4181ae:	stc    
  4181af:	xlat   BYTE PTR ds:[ebx]
  4181b0:	xchg   ebp,eax
  4181b1:	xor    BYTE PTR [ebx+0x39],ah
  4181b4:	stos   BYTE PTR es:[edi],al
  4181b5:	mov    edx,0x9a678345
  4181ba:	fs adc bh,ch
  4181bd:	mov    esp,0xc901bcdf
  4181c2:	shl    BYTE PTR [ebx+0x41],cl
  4181c5:	jle    0x418155
  4181c7:	test   edi,ebx
  4181c9:	jo     0x4181ad
  4181cb:	xchg   esi,eax
  4181cc:	(bad)  
  4181cd:	aas    
  4181ce:	or     DWORD PTR ds:0x14a60b59,0x2185e935
  4181d8:	repnz movs DWORD PTR es:[edi],DWORD PTR ds:[esi]
  4181da:	in     al,dx
  4181db:	pop    esp
  4181dc:	xor    DWORD PTR [ebx+0x62],esp
  4181df:	les    eax,FWORD PTR [ebx-0x54]
  4181e2:	ins    DWORD PTR es:[edi],dx
  4181e3:	out    0x12,al
  4181e5:	add    eax,0xef7a409
  4181ea:	adc    eax,0x668e3c81
  4181ef:	out    dx,eax
  4181f0:	cmp    BYTE PTR ds:0x265edd64,ah
  4181f6:	xor    esi,DWORD PTR [edx]
  4181f8:	out    dx,eax
  4181f9:	data16 mov cs,WORD PTR [edi]
  4181fc:	mov    bh,0x1a
  4181fe:	shl    BYTE PTR [esi+0x5e],1
  418201:	mov    edx,0x1fac77a5
  418206:	inc    esi
  418207:	movs   DWORD PTR es:[edi],DWORD PTR ds:[esi]
  418208:	popf   
  418209:	push   edx
  41820a:	pop    esp
  41820b:	ins    DWORD PTR es:[edi],dx
  41820c:	in     al,0xaa
  41820e:	mov    ecx,0x3d293aaa
  418213:	xchg   esp,eax
  418214:	push   esi
  418215:	jnp    0x418231
  418217:	ss out 0x3f,al
  41821a:	gs popa 
  41821c:	adc    al,0x6
  41821e:	movaps XMMWORD PTR [ebx],xmm7
  418221:	add    esp,DWORD PTR [ebx+0xf]
  418224:	pop    ecx
  418225:	movs   BYTE PTR es:[edi],BYTE PTR ds:[esi]
  418226:	jmp    0xcceea11b
  41822b:	retf   0x69fe
  41822e:	jno    0x418294
  418230:	shrd   ecx,ecx,0x82
  418234:	lods   al,BYTE PTR ds:[esi]
  418235:	mov    ebx,0x8ede2b0c
  41823b:	(bad)
  41823f:	sar    DWORD PTR [edx+eax*4-0x38cbcc8],1
  418246:	pop    esp
  418247:	hlt    
  418248:	(bad)  
  418249:	sub    DWORD PTR [edx+0x2],ecx
  41824c:	jp     0x418226
  41824e:	sub    al,0x30
  418250:	out    dx,eax
  418251:	sub    BYTE PTR [esi-0x6857285],dl
  418257:	cmp    al,0x47
  418259:	push   esi
  41825a:	inc    edi
  41825b:	mov    esi,0x8668811d
  418260:	jnp    0x418238
  418262:	mov    ebp,0x35591f31
  418267:	dec    esi
  418268:	mov    cl,0xfc
  41826a:	rol    DWORD PTR [ebp-0x60],cl
  41826d:	xor    eax,0xa76a19ed
  418272:	arpl   WORD PTR [esi],dx
  418274:	cmps   BYTE PTR ds:[esi],BYTE PTR es:[edi]
  418275:	mov    gs,WORD PTR ds:0x5fabba2f
  41827b:	mov    esi,esi
  41827d:	jecxz  0x4182b8
  41827f:	pop    ds
  418280:	cmp    al,0xac
  418282:	add    DWORD PTR [ebx],edx
  418284:	mov    eax,0xec73f198
  418289:	dec    ecx
  41828a:	in     eax,dx
  41828b:	inc    ebx
  41828c:	cwde   
  41828d:	and    BYTE PTR [ebp+ebp*8-0x4b],ah
  418291:	mov    bl,0x53
  418293:	aad    0x6b
  418295:	mov    edi,0xd206111c
  41829a:	inc    edx
  41829b:	cmp    DWORD PTR [esi+0x55],edi
  41829e:	cdq    
  41829f:	psllw  mm2,mm1
  4182a2:	popa   
  4182a3:	popf   
  4182a4:	pusha  
  4182a5:	mov    cl,0x66
  4182a7:	or     BYTE PTR [edi],dh
  4182a9:	mov    esi,0xbbf41150
  4182ae:	cs pop esp
  4182b0:	xor    dh,BYTE PTR [ecx+ebx*4+0x768b2960]
  4182b7:	movaps xmm4,xmm1
  4182ba:	mov    esi,0xf52afb48
  4182bf:	or     dh,BYTE PTR [eax+0x1e]
  4182c2:	cld    
  4182c3:	retf   0x64ae
  4182c6:	fcom   QWORD PTR [eax-0x56a23714]
  4182cc:	js     0x418265
  4182ce:	mov    cs,WORD PTR [edi]
  4182d0:	xchg   ebp,eax
  4182d1:	stos   DWORD PTR es:[edi],eax
  4182d2:	add    eax,0xd682c4ca
  4182d7:	add    BYTE PTR [eax-0x5e],0x80
  4182db:	scas   al,BYTE PTR es:[edi]
  4182dc:	pop    ebp
  4182dd:	inc    ebp
  4182de:	fs aad 0xf3
  4182e1:	cmps   BYTE PTR ds:[esi],BYTE PTR es:[edi]
  4182e2:	add    BYTE PTR fs:[ebx+0x310c83df],ah
  4182e9:	or     BYTE PTR [edi],0x55
  4182ec:	sub    al,0x7f
  4182ee:	dec    ebp
  4182ef:	(bad)  
  4182f1:	fwait
  4182f2:	bound  eax,QWORD PTR [ecx-0x6eeb2e6d]
  4182f8:	scas   eax,DWORD PTR es:[edi]
  4182f9:	fcom   DWORD PTR [edi+0x4b09000d]
  4182ff:	leave  
  418300:	sbb    al,0xdd
  418302:	div    BYTE PTR [edi-0x2cf17f4c]
  418308:	jmp    FWORD PTR [ebx-0x7b23291b]
  41830e:	jle    0x418356
  418310:	fnstsw WORD PTR [edx-0x647e9aea]
  418316:	movs   DWORD PTR es:[edi],DWORD PTR fs:[esi]
  418318:	push   esp
  418319:	cmps   BYTE PTR ds:[esi],BYTE PTR es:[edi]
  41831a:	daa    
  41831b:	dec    ebx
  41831c:	out    dx,eax
  41831d:	or     bh,dl
  41831f:	add    ebx,DWORD PTR [esi+0x7b]
  418322:	push   0xc1d5b966
  418327:	loop   0x4182f3
  418329:	mov    fs,WORD PTR [ebx+0x31]
  41832c:	xlat   BYTE PTR ds:[ebx]
  41832d:	mov    esp,0xe207d86a
  418332:	xor    BYTE PTR [ebx],cl
  418334:	in     eax,dx
  418335:	dec    DWORD PTR [eax+eiz*8+0xf05c940]
  41833c:	sbb    DWORD PTR [esi],eax
  41833e:	gs or  eax,0x867f1dee
  418344:	outs   dx,DWORD PTR ds:[esi]
  418345:	inc    esp
  418346:	push   esi
  418347:	xsavec [esi+edi*1+0x1591b1c]
  41834f:	mov    dl,0xb4
  418351:	inc    eax
  418352:	push   es
  418353:	push   0xffffff9d
  418355:	clc    
  418356:	and    ch,bh
  418358:	jecxz  0x4182e2
  41835a:	movs   DWORD PTR es:[edi],DWORD PTR ds:[esi]
  41835b:	adc    BYTE PTR [ebp-0x1e11cd3b],dh
  418361:	cwde   
  418362:	(bad)  
  418363:	(bad)  
  418364:	push   ebx
  418365:	stos   DWORD PTR es:[edi],eax
  418366:	sub    BYTE PTR [eax+0x2c],0xd1
  41836a:	repz add al,BYTE PTR [esp+ebp*4-0x3939d223]
  418372:	ins    BYTE PTR es:[edi],dx
  418373:	call   ecx
  418375:	in     eax,0x1b
  418377:	xor    dh,bh
  418379:	push   cs
  41837a:	arpl   WORD PTR [ecx+0x6a],dx
  41837d:	cwde   
  41837e:	push   eax
  41837f:	mov    ecx,0x103f1a47
  418384:	movs   DWORD PTR es:[edi],DWORD PTR ds:[esi]
  418385:	jle    0x418368
  418387:	(bad)  
  418388:	pop    esi
  418389:	xchg   ebp,eax
  41838a:	sar    BYTE PTR [ebp-0x54],cl
  41838d:	add    al,0xb4
  41838f:	in     al,dx
  418390:	add    bh,BYTE PTR [ecx]
  418392:	sub    dh,BYTE PTR [ebp+0x106dba7d]
  418398:	(bad)
  41839c:	ja     0x418327
  41839e:	mov    ds:0x47b6a0e,al
  4183a3:	sbb    esi,DWORD PTR [esi]
  4183a5:	iret   
  4183a6:	sub    eax,0x63fd096c
  4183ab:	lods   eax,DWORD PTR ds:[esi]
  4183ac:	add    BYTE PTR [esi],0x42
  4183af:	retf   
  4183b0:	adc    ah,BYTE PTR [esi-0x448bc9ff]
  4183b6:	add    dl,BYTE PTR [ebx+0x42161cf7]
  4183bc:	repz mov eax,0xa55c711f
  4183c2:	pop    es
  4183c3:	ds mov ch,0x92
  4183c6:	pop    ss
  4183c7:	jno    0x418378
  4183c9:	aam    0xa1
  4183cb:	cld    
  4183cc:	div    edx
  4183ce:	sub    eax,0x10e51ed3
  4183d3:	dec    esi
  4183d4:	cmp    eax,0xa6666131
  4183d9:	mov    esi,0x8d277cac
  4183de:	cmp    dh,BYTE PTR ds:0x7564dd52
  4183e4:	and    eax,0xbc5a31ac
  4183e9:	in     eax,dx
  4183ea:	mov    ds:0x2ec84bf3,al
  4183ef:	push   eax
  4183f0:	call   0x53edb99f
  4183f5:	cmp    al,0x20
  4183f7:	imul   edx,DWORD PTR ds:0x6b9ebddb,0x670e944d
  418401:	cmps   BYTE PTR ds:[esi],BYTE PTR es:[edi]
  418402:	push   ds
  418403:	and    bl,BYTE PTR [esi]
  418405:	adc    eax,0x26792440
  41840a:	not    bl
  41840c:	(bad)  
  41840d:	test   eax,0x7e968119
  418412:	or     bh,bh
  418414:	dec    edx
  418415:	cmps   BYTE PTR ds:[esi],BYTE PTR es:[edi]
  418416:	lods   al,BYTE PTR ds:[esi]
  418417:	test   al,0x59
  418419:	fisttp QWORD PTR [ecx]
  41841b:	popa   
  41841c:	pop    ds
  41841d:	sbb    al,0x63
  41841f:	mov    al,0xcd
  418421:	xor    dh,BYTE PTR [ecx]
  418423:	or     al,0x6d
  418425:	dec    ebp
  418426:	jne    0x418430
  418428:	dec    ebx
  418429:	loopne 0x4183ef
  41842b:	setnp  BYTE PTR [eax+0x1345da5a]
  418432:	ret    0xe81d
  418435:	sbb    DWORD PTR [ebp+0x65],esp
  418438:	mov    ah,0xf9
  41843a:	scas   eax,DWORD PTR es:[edi]
  41843b:	outs   dx,BYTE PTR ds:[esi]
  41843c:	adc    cl,al
  41843e:	test   eax,0x62b44eae
  418443:	xchg   ecx,eax
  418444:	shr    BYTE PTR [eax-0x7d],0xe1
  418448:	in     eax,0xe4
  41844a:	cmp    BYTE PTR [edi],0x7c
  41844d:	sub    cl,al
  41844f:	clc    
  418450:	imul   eax,DWORD PTR [esi-0x66],0xadbb4f64
  418457:	rcr    DWORD PTR [edi-0x2e4a424f],cl
  41845d:	push   eax
  41845e:	pop    ds
  41845f:	xchg   ebp,eax
  418460:	sbb    al,0x89
  418462:	movs   BYTE PTR es:[edi],BYTE PTR ds:[esi]
  418463:	out    dx,al
  418464:	lahf   
  418465:	adc    DWORD PTR [ecx],eax
  418467:	sbb    BYTE PTR [ecx-0x7e73b257],0x1f
  41846e:	jb     0x41849a
  418470:	popa   
  418471:	cmp    edi,DWORD PTR [ebp+0x64f77708]
  418477:	aad    0x54
  418479:	dec    esi
  41847a:	into   
  41847b:	ret    
  41847c:	jmp    0x418436
  41847e:	jnp    0x418457
  418480:	pop    ds
  418481:	cmps   DWORD PTR ds:[esi],DWORD PTR es:[edi]
  418482:	ins    DWORD PTR es:[edi],dx
  418483:	out    dx,al
  418484:	push   ss
  418485:	popf   
  418486:	dec    ecx
  418487:	add    edx,edi
  418489:	test   eax,0x5b24707d
  41848e:	inc    ecx
  41848f:	jg     0x4184c7
  418491:	movs   DWORD PTR es:[edi],DWORD PTR ds:[esi]
  418492:	ins    DWORD PTR es:[edi],dx
  418493:	jno    0x418501
  418495:	imul   ebx,DWORD PTR [ebp-0x7ad674d5],0xbca51c43
  41849f:	(bad)  [ebp-0x15ea3cd6]
  4184a5:	stos   BYTE PTR es:[edi],al
  4184a6:	mov    DWORD PTR [eax],eax
  4184a8:	xchg   edx,eax
  4184a9:	movd   mm7,DWORD PTR [edx]
  4184ac:	or     bl,BYTE PTR [ecx+0x5b]
  4184af:	jbe    0x4184fd
  4184b1:	pop    ebx
  4184b2:	gs add eax,0xae2acdc1
  4184b8:	ja     0x41843b
  4184ba:	outs   dx,BYTE PTR ds:[esi]
  4184bb:	or     eax,0x948d9b3e
  4184c0:	lods   eax,DWORD PTR ds:[esi]
  4184c1:	pop    edi
  4184c2:	dec    eax
  4184c3:	mov    eax,ds:0xce2480ea
  4184c8:	and    eax,0x330d653e
  4184cd:	mov    esi,0xbf4bbb21
  4184d2:	fist   DWORD PTR [eax]
  4184d4:	or     ebp,DWORD PTR [ebp-0x67]
  4184d7:	xlat   BYTE PTR ds:[ebx]
  4184d8:	pop    ds
  4184d9:	gs aas 
  4184db:	xor    eax,0xebc90cc5
  4184e0:	aad    0xab
  4184e2:	loope  0x418513
  4184e4:	addr16 retf 
  4184e6:	scas   eax,DWORD PTR es:[edi]
  4184e7:	jnp    0x418545
  4184e9:	sahf   
  4184ea:	pusha  
  4184eb:	push   esi
  4184ec:	js     0x4184e8
  4184ee:	sub    bl,BYTE PTR [ebp+0x10964470]
  4184f4:	adc    DWORD PTR [ebx-0x67f34f33],ebp
  4184fa:	(bad)  
  4184fb:	and    BYTE PTR [ecx],ch
  4184fd:	ins    BYTE PTR es:[edi],dx
  4184fe:	inc    ebp
  418500:	push   ds
  418501:	inc    ebp
  418502:	mov    ds:0x84644095,eax
  418507:	shl    DWORD PTR ds:0xde49c99e,1
  41850d:	fwait
  41850e:	jae    0x418543
  418510:	cmp    al,0x95
  418512:	icebp  
  418513:	inc    eax
  418514:	jecxz  0x41854a
  418516:	dec    ebx
  418517:	retf   0x1e10
  41851a:	pop    esi
  41851b:	es mov dh,0x7d
  41851e:	test   BYTE PTR [ebx],0xc5
  418521:	mov    ds:0x9a834dec,al
  418526:	jle    0x41853d
  418528:	bound  ebp,QWORD PTR [eax+0x64]
  41852b:	push   ecx
  41852c:	mov    dh,0xfa
  41852e:	test   al,0xc5
  418530:	mov    dh,cl
  418532:	pop    esp
  418533:	add    eax,0x228eabb3
  418538:	ret    0x65ab
  41853b:	mov    ebp,0xf46fe3c4
  418540:	or     al,0xee
  418542:	mov    dh,0x20
  418544:	and    bl,BYTE PTR [ebx+0x64]
  418547:	cmp    eax,0x6ff4e614
  41854c:	iret   
  41854d:	mov    dh,0x43
  41854f:	shrd   DWORD PTR [esi-0x5ae7225c],esp,cl
  418556:	sub    BYTE PTR [edx+0x6],bl
  418559:	inc    ecx
  41855a:	pop    ebx
  41855b:	jge    0x4185ba
  41855d:	mov    eax,0x11a75dcc
  418562:	jne    0x418573
  418564:	jmp    0x7ad5:0x36fa1c6e
  41856b:	dec    ebp
  41856c:	and    BYTE PTR [ecx+0x5c],0x95
  418570:	mov    ch,BYTE PTR [eax+ebx*8+0x113944d0]
  418577:	mov    ebx,0x887eaa1d
  41857c:	dec    ebp
  41857d:	dec    esp
  41857e:	cmp    ebx,ebp
  418580:	sbb    al,0x41
  418582:	push   ds
  418583:	sahf   
  418584:	jmp    0x9030ce3a
  418589:	cmp    DWORD PTR [ecx+0x60],ecx
  41858c:	popf   
  41858d:	lods   al,BYTE PTR ds:[esi]
  41858e:	fiadd  DWORD PTR [ebp+edx*1+0x1055f0e9]
  418595:	push   ecx
  418596:	mov    ds:0x1d6a3b00,al
  41859b:	sub    BYTE PTR ds:0x97f42467,bl
  4185a1:	cmps   BYTE PTR ds:[esi],BYTE PTR es:[edi]
  4185a2:	icebp  
  4185a3:	cmp    ebx,DWORD PTR [ecx-0xa96c2d5]
  4185a9:	sub    DWORD PTR [esi],edx
  4185ab:	inc    ebp
  4185ac:	push   edi
  4185ad:	sti    
  4185ae:	dec    ebp
  4185af:	jo     0x41860d
  4185b1:	pop    ecx
  4185b2:	gs loope 0x4185d5
  4185b5:	cmp    al,0x24
  4185b7:	hlt    
  4185b8:	ins    BYTE PTR es:[edi],dx
  4185b9:	movs   DWORD PTR es:[edi],DWORD PTR ds:[esi]
  4185ba:	stc    
  4185bb:	mov    WORD PTR [edi],cs
  4185bd:	pop    ebx
  4185be:	jbe    0x4185d0
  4185c0:	cld    
  4185c1:	add    esp,DWORD PTR [ebx]
  4185c3:	sbb    eax,DWORD PTR [esi+0x16d50bdc]
  4185c9:	sbb    DWORD PTR [ebx-0x3d],0xffffffc8
  4185cd:	sub    al,bl
  4185cf:	push   0x5d
  4185d1:	test   esp,ecx
  4185d3:	leave  
  4185d4:	mov    bl,0x42
  4185d6:	and    edx,ebx
  4185d8:	popf   
  4185d9:	inc    edx
  4185da:	add    ch,BYTE PTR [edi-0x3e]
  4185dd:	std    
  4185de:	jae    0x418651
  4185e0:	shl    BYTE PTR [eax-0x4185be9c],0xc6
  4185e7:	xchg   ecx,eax
  4185e8:	pop    ds
  4185e9:	cwde   
  4185ea:	xchg   BYTE PTR [esi],cl
  4185ec:	and    BYTE PTR [ecx+0xe],ch
  4185ef:	out    dx,al
  4185f0:	sbb    esp,ecx
  4185f2:	aaa    
  4185f3:	call   0x5a875107
  4185f8:	or     al,0x3e
  4185fa:	inc    ecx
  4185fb:	push   0xf6af26b
  418600:	lds    ecx,FWORD PTR [ebx+0x38f3dac7]
  418606:	(bad)  
  418607:	push   ds
  418608:	(bad)  
  418609:	nop
  41860a:	stc    
  41860b:	xlat   BYTE PTR ds:[ebx]
  41860c:	xchg   edx,eax
  41860d:	ret    0xc474
  418610:	cmp    eax,0xbb8dc545
  418615:	std    
  418616:	sahf   
  418617:	xchg   edi,eax
  418618:	xor    esp,DWORD PTR [edx-0x6ffaef99]
  41861e:	fcmovu st,st(7)
  418620:	shr    ebp,0x61
  418623:	adc    DWORD PTR [ebp-0x5d],eax
  418626:	adc    eax,0x75acd647
  41862b:	inc    eax
  41862c:	outs   dx,BYTE PTR ds:[esi]
  41862d:	pop    ecx
  41862e:	and    DWORD PTR [eax+0x6d7815f5],edi
  418634:	xor    BYTE PTR [eax+0x4cea0564],ah
  41863a:	fist   WORD PTR [ecx]
  41863c:	pop    eax
  41863d:	stos   DWORD PTR es:[edi],eax
  41863e:	in     eax,0x3e
  418640:	clc    
  418641:	sbb    bh,0x5e
  418644:	sti    
  418645:	inc    ebx
  418646:	inc    esp
  418647:	sahf   
  418648:	push   esp
  418649:	packsswb mm4,QWORD PTR [ecx]
  41864c:	inc    edx
  41864d:	pop    edi
  41864e:	(bad)  
  41864f:	sub    eax,0xfeb7993
  418654:	test   eax,0x36944b1
  418659:	dec    ebp
  41865a:	stos   DWORD PTR es:[edi],eax
  41865b:	cld    
  41865c:	out    dx,eax
  41865d:	dec    esp
  41865e:	fadd   QWORD PTR [eax]
  418660:	jge    0x4185e4
  418662:	movs   BYTE PTR es:[edi],BYTE PTR fs:[esi]
  418664:	push   ebx
  418665:	cmp    dl,BYTE PTR [edx+0x79886c0f]
  41866b:	mov    ah,0x1c
  41866d:	loope  0x4186bf
  41866f:	ja     0x41864c
  418671:	jae    0x4186b5
  418673:	adc    al,0x9e
  418675:	mov    edx,0x84ec3b23
  41867a:	std    
  41867b:	dec    eax
  41867c:	loop   0x41863f
  41867e:	adc    BYTE PTR [ebx+0xef7a59f],0x89
  418685:	in     eax,dx
  418686:	sbb    eax,0x61071c1d
  41868b:	popa   
  41868c:	hlt    
  41868d:	xchg   esi,eax
  41868e:	sbb    al,BYTE PTR [ecx+0x50]
  418691:	(bad)  
  418692:	aad    0xc1
  418694:	jno    0x4186b6
  418696:	test   bh,0x6d
  418699:	outs   dx,DWORD PTR ds:[esi]
  41869a:	les    ecx,FWORD PTR [edi+0x12]
  41869d:	lds    edi,FWORD PTR [esi]
  41869f:	push   edi
  4186a0:	or     BYTE PTR [eax+0x56],0x46
  4186a4:	jmp    0x1591d704
  4186a9:	stos   DWORD PTR es:[edi],eax
  4186aa:	add    DWORD PTR [eax-0x230dad71],esi
  4186b0:	daa    
  4186b1:	pop    ds
  4186b2:	(bad)  
  4186b3:	xchg   edx,eax
  4186b4:	popf   
  4186b5:	mov    cl,0x62
  4186b7:	push   ebp
  4186b8:	repnz sbb esi,DWORD PTR [ebp+0x10c56374]
  4186bf:	add    al,0x5b
  4186c1:	mov    cs,WORD PTR [ebx-0x3e]
  4186c4:	sub    DWORD PTR [ecx],edi
  4186c6:	sahf   
  4186c7:	dec    esi
  4186c8:	push   ds
  4186c9:	pop    ecx
  4186ca:	not    BYTE PTR [ebx+0x26]
  4186cd:	fstp   QWORD PTR [edx+edx*4]
  4186d0:	cmps   BYTE PTR ds:[esi],BYTE PTR es:[edi]
  4186d1:	stos   BYTE PTR es:[edi],al
  4186d2:	leave  
  4186d3:	mov    edi,0xb42bde4b
  4186d8:	pavgb  mm0,mm5
  4186db:	fstp   DWORD PTR [edi]
  4186dd:	out    0x62,eax
  4186df:	dec    ecx
  4186e0:	(bad)  
  4186e1:	push   esp
  4186e2:	lods   eax,DWORD PTR ds:[esi]
  4186e3:	cli    
  4186e4:	xlat   BYTE PTR ds:[ebx]
  4186e5:	iret   
  4186e6:	call   0xdf1f:0x4174adb9
  4186ed:	dec    ebp
  4186ee:	cmp    al,0xd6
  4186f0:	shl    bl,1
  4186f2:	jecxz  0x4186cc
  4186f4:	dec    BYTE PTR [edi-0x6f78a148]
  4186fa:	mov    ecx,0xb9e050e
  4186ff:	fwait
  418700:	mov    bl,0x36
  418702:	movs   DWORD PTR es:[edi],DWORD PTR ds:[esi]
  418703:	and    al,0xdb
  418705:	sub    al,dl
  418707:	add    al,0x2f
  418709:	cmp    eax,0xd7280fc4
  41870e:	ss push eax
  418710:	sbb    ebp,ebx
  418712:	and    BYTE PTR [edx],dh
  418714:	pop    es
  418715:	jne    0x4186fd
  418717:	push   ebx
  418718:	out    dx,al
  418719:	dec    ebp
  41871a:	add    DWORD PTR [edi+edi*4+0x58],ebx
  41871e:	ror    BYTE PTR [ecx],cl
  418720:	fwait
  418721:	xor    DWORD PTR [edi-0x41],esi
  418724:	cmp    dl,BYTE PTR [ecx-0x1b]
  418727:	mov    ds,WORD PTR ds:0xa4cb8669
  41872d:	push   ebp
  41872e:	call   0x1debf115
  418733:	xor    eax,0x9ed506e6
  418738:	rcl    DWORD PTR [edi-0x7f1fc37c],1
  41873e:	test   DWORD PTR fs:0xef595a8c,ebp
  418745:	push   edi
  418746:	mov    bh,0xf
  418748:	and    BYTE PTR [esi+0x791d0800],ah
  41874e:	xor    BYTE PTR [esi-0x34a85c04],ah
  418754:	xchg   ebx,eax
  418755:	cmp    ah,BYTE PTR [ecx-0x45]
  418758:	dec    eax
  418759:	call   0xf887:0xa9a57fd5
  418760:	dec    ebp
  418761:	hlt    
  418762:	jg     0x4187b5
  418764:	in     al,0x43
  418766:	dec    eax
  418767:	sub    DWORD PTR [eax+0x28e422f3],edx
  41876d:	scas   eax,DWORD PTR es:[edi]
  41876e:	cwde   
  41876f:	sub    al,0x17
  418771:	aaa    
  418772:	lds    ebp,FWORD PTR [ebp-0x3e178fe3]
  418778:	popf   
  418779:	jbe    0x418714
  41877b:	out    dx,al
  41877c:	call   DWORD PTR [edi-0x544b58e6]
  418782:	ins    DWORD PTR es:[edi],dx
  418783:	les    esp,FWORD PTR [edx]
  418785:	je     0x4187ce
  418787:	cdq    
  418788:	pushf  
  418789:	sub    eax,0xc4add8ed
  41878e:	call   0xe341:0x6232798a
  418795:	shr    BYTE PTR [eax+0x63155c28],cl
  41879b:	pop    ebp
  41879c:	jmp    0x41877c
  41879e:	add    BYTE PTR [esi-0xd],al
  4187a1:	xchg   esi,eax
  4187a2:	mov    eax,0x154af50f
  4187a7:	sbb    DWORD PTR ds:0xfed361f1,ebx
  4187ad:	pop    eax
  4187ae:	nop
  4187af:	xchg   esi,eax
  4187b0:	mov    ebp,0x4cdf573
  4187b5:	push   ebp
  4187b6:	push   esp
  4187b7:	jnp    0x418768
  4187b9:	cmp    BYTE PTR [esi+eiz*2+0x1e],ah
  4187bd:	popa   
  4187be:	jo     0x418760
  4187c0:	inc    edi
  4187c1:	sub    al,0x40
  4187c3:	lea    esi,[ebx-0x611de257]
  4187c9:	add    al,0xfb
  4187cb:	sub    al,BYTE PTR [edx-0x391cba90]
  4187d1:	mov    BYTE PTR [ebp+ebx*1+0x5e],ah
  4187d5:	xchg   edi,eax
  4187d6:	and    BYTE PTR [ecx+0xdf10743],cl
  4187dc:	ins    DWORD PTR es:[edi],dx
  4187dd:	jae    0x418782
  4187df:	adc    cl,BYTE PTR [ebp+edi*2+0x39a11afd]
  4187e6:	gs jns 0x41878f
  4187e9:	int    0xa5
  4187eb:	sbb    DWORD PTR [ebx+0x4c115387],esi
  4187f1:	push   ecx
  4187f2:	push   ebx
  4187f3:	dec    ebx
  4187f4:	test   BYTE PTR [eax+0x7d],bh
  4187f7:	dec    eax
  4187f8:	push   ds
  4187f9:	std    
  4187fa:	jns    0x41884f
  4187fc:	(bad)  
  4187fd:	xchg   ebp,eax
  4187fe:	add    DWORD PTR [ebp+0xe3e6def],0xf8671b0f
  418808:	pop    ds
  418809:	movs   DWORD PTR es:[edi],DWORD PTR ds:[esi]
  41880a:	shl    BYTE PTR [eax+0x341f2f02],1
  418810:	imul   ebp,DWORD PTR [ebp+ecx*2+0x718c4090],0xffffffa0
  418818:	sub    al,0x91
  41881a:	loop   0x4187ed
  41881c:	call   0x52e0:0xc2c15ecf
  418823:	pop    edx
  418824:	mov    dl,0xa9
  418826:	cmc    
  418827:	in     eax,dx
  418828:	shl    BYTE PTR [edx+0x73af36b8],1
  41882e:	sub    DWORD PTR [edx-0x6f],0xd7a963ad
  418835:	mov    gs,ecx
  418837:	lea    edi,[ebx-0x130ac6b1]
  41883d:	sub    esi,edi
  41883f:	sbb    BYTE PTR [edi+0x9],dl
  418842:	and    DWORD PTR [ecx],ebx
  418844:	sub    ebp,0x63
  418847:	xor    DWORD PTR [edi+esi*1],edx
  41884a:	push   edx
  41884b:	xchg   DWORD PTR [ebx],ecx
  41884d:	sti    
  41884e:	jmp    0x41883c
  418850:	sbb    eax,0xc03c40d7
  418855:	mov    DWORD PTR [edx-0x31],eax
  418858:	sub    esp,DWORD PTR [edi+0x65]
  41885b:	sub    eax,0x72b4d8a2
  418860:	pop    ss
  418861:	pop    ss
  418862:	(bad)
  418866:	jg     0x418873
  418868:	jnp    0x418845
  41886a:	adc    eax,0xeee912a1
  41886f:	cmp    eax,0xcda9d6c1
  418874:	adc    al,0x5f
  418876:	lods   al,BYTE PTR ds:[esi]
  418877:	inc    eax
  418878:	jp     0x4188dc
  41887a:	add    edx,DWORD PTR [eax]
  41887c:	repnz stos BYTE PTR es:[edi],al
  41887e:	lods   eax,DWORD PTR ds:[esi]
  41887f:	ds mov dh,0x56
  418882:	cdq    
  418883:	retf   0xa3ae
  418886:	inc    ecx
  418887:	xchg   ebx,eax
  418888:	loopne 0x41881c
  41888a:	fs cmc 
  41888c:	bound  ebx,QWORD PTR [esi]
  41888e:	ficomp WORD PTR [ecx]
  418890:	xchg   DWORD PTR [esi],ecx
  418892:	test   al,0xf
  418894:	std    
  418895:	pop    ss
  418896:	mov    bl,0x7
  418898:	adc    eax,0x4f3d1021
  41889d:	sub    eax,0x8ace7020
  4188a2:	mov    edx,DWORD PTR [eax+0x30f5ac28]
  4188a8:	jmp    0xb758d444
  4188ad:	xchg   dl,bl
  4188af:	mov    eax,0x45492c0d
  4188b4:	push   ds
  4188b5:	ret    
  4188b6:	mov    bl,0x13
  4188b8:	mov    gs,WORD PTR [ebx+0x54e008f9]
  4188be:	in     al,dx
  4188bf:	cwde   
  4188c0:	(bad)  
  4188c2:	sti    
  4188c3:	mov    esp,0xc165224c
  4188c8:	inc    ebx
  4188c9:	mov    bh,0x36
  4188cb:	pop    ds
  4188cc:	fwait
  4188cd:	push   edx
  4188ce:	aas    
  4188cf:	(bad)  
  4188d1:	lods   eax,DWORD PTR ds:[esi]
  4188d2:	push   esi
  4188d3:	or     ebp,DWORD PTR [eax]
  4188d5:	push   ebx
  4188d6:	clc    
  4188d7:	adc    eax,0xf9659e6b
  4188dc:	rep outs dx,DWORD PTR ds:[esi]
  4188de:	aas    
  4188df:	sbb    al,0xce
  4188e1:	stos   DWORD PTR es:[edi],eax
  4188e2:	aad    0x3d
  4188e4:	test   DWORD PTR [ebx],edx
  4188e6:	mov    DWORD PTR [ecx+0x61],ecx
  4188e9:	adc    bh,BYTE PTR [ebx+0x7b]
  4188ec:	inc    esi
  4188ed:	shl    DWORD PTR [edx-0x2f],0x92
  4188f1:	pop    ss
  4188f2:	mov    DWORD PTR [edx-0x7d],ebx
  4188f5:	test   al,0x96
  4188f7:	ret    
  4188f8:	pop    ss
  4188f9:	dec    ebp
  4188fa:	pop    ds
  4188fb:	push   cs
  4188fc:	pop    esp
  4188fd:	in     eax,dx
  4188fe:	adc    ecx,edi
  418900:	call   0x81aaedb8
  418905:	pop    ss
  418906:	(bad)  
  418907:	leave  
  418908:	repz mov ecx,0x5bdb9a2f
  41890e:	inc    eax
  41890f:	adc    DWORD PTR [esi],edi
  418911:	jmp    0x1bdbb06d
  418916:	fs sbb eax,0x33c5e732
  41891c:	imul   edi,ebx,0xc
  41891f:	adc    BYTE PTR [ebx-0x6c],ah
  418922:	out    0xae,eax
  418924:	push   ds
  418925:	mov    ecx,0x3844e434
  41892a:	out    0xf4,eax
  41892c:	xor    BYTE PTR [edi+0x1f137cfc],bh
  418932:	mov    ah,0x41
  418934:	bound  esi,QWORD PTR [ecx+0x74]
  418937:	add    eax,0x8202e419
  41893c:	xchg   edi,eax
  41893d:	jl     0x418985
  41893f:	imul   edx,DWORD PTR [ecx+0x51ea922b],0xea6dd058
  418949:	sub    al,0xef
  41894b:	lock cmp esp,DWORD PTR [eax+0x776e30f0]
  418952:	mov    dl,cl
  418954:	(bad)
  418957:	call   0xa5f:0xc18a1427
  41895e:	cld    
  41895f:	adc    BYTE PTR [esi-0x34ed2f6c],bl
  418965:	mov    al,ds:0x769b0f1c
  41896a:	stos   DWORD PTR es:[edi],eax
  41896b:	sbb    ebx,DWORD PTR [esi]
  41896d:	sbb    eax,0xf6ced031
  418972:	out    dx,al
  418973:	mov    dh,0xa1
  418975:	stos   DWORD PTR es:[edi],eax
  418976:	mov    eax,ds:0xed7cb8f
  41897b:	int    0x78
  41897d:	cdq    
  41897e:	cmps   BYTE PTR ds:[esi],BYTE PTR es:[edi]
  41897f:	and    al,0xd8
  418981:	int    0xb4
  418983:	js     0x418911
  418985:	adc    al,0x58
  418987:	lods   eax,DWORD PTR ds:[esi]
  418988:	cmc    
  418989:	xchg   DWORD PTR [ebp-0x1a712396],edx
  41898f:	xor    esp,DWORD PTR [edi+esi*8-0x39]
  418993:	push   es
  418994:	sbb    al,0x8a
  418996:	dec    ebp
  418997:	push   cs
  418998:	aam    0x4
  41899a:	sub    dl,bl
  41899c:	out    0xac,al
  41899e:	cdq    
  41899f:	movs   BYTE PTR es:[edi],BYTE PTR ds:[esi]
  4189a0:	xor    cl,bh
  4189a2:	mov    eax,0xa55d3a90
  4189a7:	push   edi
  4189a8:	retf   
  4189a9:	stos   DWORD PTR es:[edi],eax
  4189aa:	lds    eax,FWORD PTR [ecx]
  4189ac:	dec    esp
  4189ad:	inc    ebx
  4189ae:	lock ja 0x4189cd
  4189b1:	sbb    eax,0x3b27b2c5
  4189b6:	ror    edi,cl
  4189b8:	loopne 0x418963
  4189ba:	add    eax,0x2d2ad4b9
  4189bf:	loopne 0x418a14
  4189c1:	cdq    
  4189c2:	test   al,0x63
  4189c4:	pop    esp
  4189c5:	xchg   edi,eax
  4189c6:	add    DWORD PTR gs:[ebx+0x74350f0],eax
  4189cd:	int3   
  4189ce:	push   edx
  4189cf:	adc    esp,eax
  4189d1:	jbe    0x418973
  4189d3:	sbb    eax,0xe366591e
  4189d8:	push   0x24
  4189da:	stos   DWORD PTR es:[edi],eax
  4189db:	(bad)  
  4189dc:	fdivr  QWORD PTR [edx]
  4189de:	dec    ebp
  4189df:	xchg   ebp,eax
  4189e0:	lods   al,BYTE PTR ds:[esi]
  4189e1:	mov    edi,0x62572ae3
  4189e6:	cmp    cl,ah
  4189e8:	f2xm1  
  4189ea:	bound  edx,QWORD PTR [ebx]
  4189ec:	sbb    eax,0x217b6561
  4189f1:	test   bh,al
  4189f3:	jno    0x418a5d
  4189f5:	cmp    ch,BYTE PTR [ecx]
  4189f7:	call   0xe8b3:0xc3ea90fc
  4189fe:	xor    al,0x61
  418a00:	addr16 jp 0x4189dd
  418a03:	push   0xffffffa3
  418a05:	nop
  418a06:	cdq    
  418a07:	(bad)  
  418a08:	pop    ds
  418a09:	(bad)  
  418a0a:	test   al,0xa9
  418a0c:	aaa    
  418a0d:	push   ss
  418a0e:	call   0x13f25109
  418a13:	push   ss
  418a14:	pop    edi
  418a15:	fnstsw WORD PTR [ecx+0x10]
  418a18:	icebp  
  418a19:	push   esi
  418a1a:	add    al,0xdf
  418a1c:	lods   al,BYTE PTR ds:[esi]
  418a1d:	fs inc ecx
  418a1f:	mov    dh,0x11
  418a21:	xchg   ebp,eax
  418a22:	popa   
  418a23:	popf   
  418a24:	inc    esi
  418a25:	int3   
  418a26:	lods   eax,DWORD PTR ds:[esi]
  418a27:	enter  0xa932,0x4d
  418a2b:	mov    esi,DWORD PTR [eax-0x563ef8b1]
  418a31:	arpl   WORD PTR [edi+0x64ec2bd4],sp
  418a37:	shl    DWORD PTR [eax+0x9],0x62
  418a3b:	add    ebx,edi
  418a3d:	sbb    dh,BYTE PTR [ebp-0x3]
  418a40:	jb     0x4189ec
  418a42:	retf   0x31f0
  418a45:	or     eax,0x985a9721
  418a4a:	gs mov ecx,0x8a884717
  418a50:	aas    
  418a51:	out    0xb1,eax
  418a53:	adc    cl,bl
  418a55:	retf   0xd660
  418a58:	out    0x6c,eax
  418a5a:	shr    BYTE PTR [ecx+0x17],1
  418a5d:	sub    al,0x79
  418a5f:	push   edi
  418a60:	ins    DWORD PTR es:[edi],dx
  418a61:	(bad)  
  418a62:	cmc    
  418a63:	jmp    0x92030033
  418a68:	mov    ebp,0xcd11101d
  418a6d:	(bad)  
  418a6e:	cld    
  418a6f:	and    DWORD PTR [edx],0xffffffed
  418a72:	sub    DWORD PTR [ecx],ebp
  418a74:	add    bh,ch
  418a76:	and    dl,BYTE PTR [eax+0x1a85abc0]
  418a7c:	push   edx
  418a7d:	pavgb  mm3,QWORD PTR [edi+0x6]
  418a81:	jmp    0x6b5677d9
  418a86:	gs cmc 
  418a88:	xchg   edx,eax
  418a89:	cmps   BYTE PTR ds:[esi],BYTE PTR es:[edi]
  418a8a:	and    DWORD PTR [ebx+0x10d25b9b],0xb8ec2389
  418a94:	push   ds
  418a95:	mov    ch,0x19
  418a97:	push   cs
  418a98:	push   esp
  418a99:	or     bl,BYTE PTR [edx+0x1dabce13]
  418a9f:	mov    ds:0xfbb238a7,eax
  418aa4:	add    bh,dl
  418aa6:	js     0x418a52
  418aa8:	pop    ds
  418aa9:	sbb    eax,0xa1fe7f88
  418aae:	pop    ebx
  418aaf:	mov    cs,WORD PTR [edi-0x56]
  418ab2:	adc    eax,0xa5ff67b9
  418ab7:	dec    ebx
  418ab8:	xor    ecx,ebp
  418aba:	cld    
  418abb:	test   BYTE PTR [ecx+0x71],0x65
  418abf:	sub    eax,0xaf204ede
  418ac4:	mov    ds:0xe1026d1,eax
  418ac9:	(bad)  
  418aca:	mov    ebp,0x33bd1df4
  418acf:	cld    
  418ad0:	push   edi
  418ad1:	test   al,0x4
  418ad3:	pop    ss
  418ad4:	pop    esi
  418ad5:	stos   BYTE PTR es:[edi],al
  418ad6:	imul   ebx,esp,0x10914fcc
  418adc:	fsub   DWORD PTR [esi+0x2b81d7f7]
  418ae2:	pop    esp
  418ae3:	pop    ecx
  418ae4:	call   0x8dac:0xbf9d862b
  418aeb:	sub    eax,0x4d426b62
  418af0:	or     eax,0x305c7616
  418af5:	mov    ebx,0x599ed76a
  418afa:	pop    eax
  418afb:	cmp    eax,0x436a6ab2
  418b00:	leave  
  418b01:	mov    bh,0xbc
  418b03:	bound  ebx,QWORD PTR [esi]
  418b05:	sti    
  418b06:	sbb    cl,BYTE PTR fs:[edi-0x5b]
  418b0a:	stos   BYTE PTR es:[edi],al
  418b0b:	cdq    
  418b0c:	pop    ds
  418b0d:	jge    0x418b3b
  418b0f:	fmul   st,st(6)
  418b11:	and    BYTE PTR [edi-0xa549c5f],0x22
  418b18:	add    ecx,DWORD PTR [edx+0x2bbea6a]
  418b1e:	pop    esp
  418b1f:	mov    al,0x66
  418b21:	sub    DWORD PTR [ecx+ebx*8-0x26a1cef4],ecx
  418b28:	pop    esp
  418b29:	adc    DWORD PTR [ebx],0x4e
  418b2c:	jns    0x418ad8
  418b2e:	in     eax,0x47
  418b30:	add    DWORD PTR [ebx-0x7a37f1e],edi
  418b36:	fnstenv [esi]
  418b38:	dec    esp
  418b39:	movs   BYTE PTR es:[edi],BYTE PTR ds:[esi]
  418b3a:	bound  esi,QWORD PTR [ebp+0x28]
  418b3d:	push   ebp
  418b3e:	cmc    
  418b3f:	add    DWORD PTR [ebx],edi
  418b41:	cmp    eax,0xb94310e7
  418b46:	xchg   ebx,eax
  418b47:	add    DWORD PTR [ecx+ebx*1],ebx
  418b4a:	aaa    
  418b4b:	mov    al,0x86
  418b4d:	int3   
  418b4e:	out    dx,eax
  418b4f:	sbb    ecx,DWORD PTR [eax+0x78d276c]
  418b55:	out    dx,al
  418b56:	or     ecx,DWORD PTR [esi]
  418b58:	not    DWORD PTR [edi-0x2e2b9ca]
  418b5e:	sti    
  418b5f:	pop    es
  418b60:	je     0x418b61
  418b62:	sbb    DWORD PTR [edx*4+0x14a79aa],ebx
  418b69:	or     al,0x1b
  418b6b:	push   edx
  418b6c:	out    0x16,eax
  418b6e:	(bad)  
  418b6f:	mov    esp,0x7d64e719
  418b74:	div    DWORD PTR [eax]
  418b76:	mov    al,0xfc
  418b78:	adc    esi,esp
  418b7a:	lods   al,BYTE PTR ds:[esi]
  418b7b:	mov    ebp,cr2
  418b7e:	mov    dh,ch
  418b80:	sub    eax,0xd8739963
  418b85:	push   esp
  418b86:	fs jno 0x418b7f
  418b89:	(bad)  
  418b8a:	xor    eax,0xdffc8f5d
  418b8f:	(bad)  
  418b91:	nop
  418b92:	inc    edx
  418b93:	pop    esi
  418b94:	pop    ds
  418b95:	mov    eax,edx
  418b97:	(bad)  
  418b98:	cli    
  418b99:	rcl    ecx,1
  418b9b:	gs lock popf 
  418b9e:	dec    ebp
  418b9f:	xchg   esi,eax
  418ba0:	pop    ss
  418ba1:	pop    es
  418ba2:	icebp  
  418ba3:	push   edi
  418ba4:	pop    ebp
  418ba5:	sub    DWORD PTR [ebx],ecx
  418ba7:	jp     0x418b68
  418ba9:	ins    BYTE PTR es:[edi],dx
  418baa:	repnz daa 
  418bac:	jle    0x418b64
  418bae:	bound  ecx,QWORD PTR es:[edi]
  418bb1:	std    
  418bb2:	and    al,0x99
  418bb4:	fidiv  DWORD PTR [edi+0x4]
  418bb7:	(bad)  
  418bb9:	add    al,0xf6
  418bbb:	mov    edi,0xe9d1e11d
  418bc0:	fisttp QWORD PTR [ebp+0x615eb6f4]
  418bc6:	and    eax,0x99a69a41
  418bcb:	or     cl,BYTE PTR [ebp-0x1c]
  418bce:	dec    esi
  418bcf:	leave  
  418bd0:	dec    esp
  418bd1:	jle    0x418ba7
  418bd3:	jo     0x418c37
  418bd5:	xchg   esi,eax
  418bd6:	daa    
  418bd7:	push   ecx
  418bd8:	push   0x7a
  418bda:	into   
  418bdb:	adc    BYTE PTR [eax],ah
  418bdd:	cmp    DWORD PTR ds:0x4a3790d8,esp
  418be3:	jecxz  0x418c58
  418be5:	in     eax,0xcd
  418be7:	mov    esi,0x89659be5
  418bec:	dec    esi
  418bed:	arpl   WORD PTR [edx+esi*4+0x1d62a3c5],dx
  418bf4:	sbb    cl,ch
  418bf6:	out    0x92,al
  418bf8:	imul   edi,DWORD PTR [esi+eiz*2],0xffffffb8
  418bfc:	stos   DWORD PTR es:[edi],eax
  418bfd:	cmp    BYTE PTR [esi+0x10],0xf7
  418c01:	(bad)
  418c04:	mov    ebp,0x11596230
  418c09:	fld    TBYTE PTR [eax+0x1d]
  418c0c:	xor    eax,0xc82f5d80
  418c11:	in     al,dx
  418c12:	data16 mov dl,0x3d
  418c15:	and    eax,0x1ccc2de5
  418c1a:	bound  esp,QWORD PTR [ebp-0x36242d3]
  418c20:	cld    
  418c21:	lea    ebx,ds:0x2c648081
  418c27:	inc    ecx
  418c28:	cwde   
  418c29:	ja     0x418bdf
  418c2b:	xchg   esp,eax
  418c2c:	mov    al,ds:0x1c6555e9
  418c31:	jns    0x418c91
  418c33:	xlat   BYTE PTR ds:[ebx]
  418c34:	xchg   ebx,eax
  418c35:	call   0x9a6d:0x8f3f31dc
  418c3c:	mov    ds:0x6f5ce5e2,eax
  418c41:	test   BYTE PTR ds:0xc0d10b50,ah
  418c47:	fstp   TBYTE PTR [ebx]
  418c49:	rcl    BYTE PTR [edx],0xd9
  418c4c:	sbb    eax,0x8ae1627a
  418c51:	stos   DWORD PTR es:[edi],eax
  418c52:	in     eax,dx
  418c53:	loopne 0x418be5
  418c55:	clc    
  418c56:	jo     0x418cc1
  418c58:	les    esp,FWORD PTR [esi+ebp*8]
  418c5b:	lods   eax,DWORD PTR ds:[esi]
  418c5c:	retf   0x62d3
  418c5f:	(bad)  [edi+0x60]
  418c62:	aas    
  418c63:	mov    DWORD PTR [ebp-0x55],eax
  418c66:	jge    0x418cb6
  418c68:	or     al,0x18
  418c6a:	inc    eax
  418c6b:	xchg   edx,eax
  418c6c:	or     al,0x3a
  418c6e:	(bad)  
  418c6f:	sti    
  418c70:	xor    ah,BYTE PTR [ecx-0x1a]
  418c73:	lods   al,BYTE PTR ds:[esi]
  418c74:	das    
  418c75:	push   esp
  418c76:	fs mov ch,0x4e
  418c79:	test   eax,0x7e30cdd1
  418c7e:	lods   eax,DWORD PTR ds:[esi]
  418c7f:	(bad)  
  418c80:	xor    al,0x5b
  418c82:	lods   eax,DWORD PTR ds:[esi]
  418c83:	xchg   edx,eax
  418c84:	ins    DWORD PTR es:[edi],dx
  418c85:	mov    ds:0xe9395563,al
  418c8a:	inc    ecx
  418c8b:	mov    ds:0x106ec9a7,eax
  418c90:	es pop esp
  418c92:	aas    
  418c93:	push   esi
  418c94:	rcl    ah,cl
  418c96:	mov    cs,WORD PTR [ecx]
  418c98:	pop    ds
  418c99:	fldenv [ecx+0x1de24b30]
  418c9f:	(bad)  
  418ca0:	fisttp DWORD PTR [esi+0x25131067]
  418ca6:	and    al,BYTE PTR [ebp+0x12]
  418ca9:	jns    0x418cbc
  418cab:	cs dec esi
  418cad:	or     al,0x1f
  418caf:	ror    DWORD PTR [ebp+0x55],0x40
  418cb3:	(bad)  
  418cb4:	arpl   sp,cx
  418cb6:	enter  0x1dd1,0xe
  418cba:	inc    ecx
  418cbb:	sbb    al,0xf4
  418cbd:	iret   
  418cbe:	sbb    DWORD PTR [ebx],ecx
  418cc0:	div    dl
  418cc2:	(bad)  
  418cc4:	jno    0x418d0d
  418cc6:	call   0x18a128c5
  418ccb:	mov    cl,0x7e
  418ccd:	sti    
  418cce:	pop    ecx
  418ccf:	aas    
  418cd0:	clc    
  418cd1:	jnp    0x418cc0
  418cd3:	mov    al,0x24
  418cd5:	sbb    al,0x65
  418cd7:	test   al,0xa3
  418cd9:	lahf   
  418cda:	stc    
  418cdb:	xor    eax,0x2c79a5dd
  418ce0:	push   ds
  418ce1:	sbb    eax,0x1b9f8b10
  418ce6:	sti    
  418ce7:	mov    BYTE PTR [eax],bl
  418ce9:	stos   DWORD PTR es:[edi],eax
  418cea:	icebp  
  418ceb:	mov    edi,0x688891a1
  418cf0:	push   esp
  418cf1:	fsub   st,st(5)
  418cf3:	mov    bh,0xa8
  418cf5:	push   0xe97b4165
  418cfa:	cmp    DWORD PTR [ecx],ebp
  418cfc:	out    0xc,eax
  418cfe:	add    BYTE PTR [esi],cl
  418d00:	mov    ebp,0x181027d0
  418d05:	push   ebp
  418d06:	cmp    esp,edi
  418d08:	mov    eax,ds:0x7fb9a77b
  418d0d:	or     eax,0x9f0b2821
  418d12:	jp     0x418d06
  418d14:	push   es
  418d15:	ins    BYTE PTR es:[edi],dx
  418d16:	out    dx,eax
  418d17:	xchg   ebp,eax
  418d18:	popa   
  418d19:	adc    eax,DWORD PTR [eax-0x5bf6e2b0]
  418d1f:	xor    eax,0x93961bf3
  418d24:	shr    BYTE PTR [ebx-0xc8d85cb],0xf5
  418d2b:	(bad)  
  418d2c:	mov    cl,0x57
  418d2e:	cmp    BYTE PTR [ebx-0x6],dh
  418d31:	lea    edi,[ebp+0x18]
  418d34:	inc    ebx
  418d35:	ss and al,0x34
  418d38:	xchg   ebx,eax
  418d39:	outs   dx,DWORD PTR ds:[esi]
  418d3a:	mov    ds:0x89804b25,eax
  418d3f:	paddsb mm1,QWORD PTR [ecx+0x2]
  418d43:	jl     0x418d61
  418d45:	jns    0x418d69
  418d47:	not    DWORD PTR [edx-0x68]
  418d4a:	loop   0x418cda
  418d4c:	leave  
  418d4d:	cwde   
  418d4e:	inc    ecx
  418d4f:	daa    
  418d50:	stos   DWORD PTR es:[edi],eax
  418d51:	jo     0x418d8c
  418d53:	xor    al,0xc5
  418d55:	cmp    BYTE PTR [edi-0x688ee0f1],ch
  418d5b:	loope  0x418d19
  418d5d:	retf   
  418d5e:	sbb    edi,DWORD PTR [edi-0x9]
  418d61:	ins    DWORD PTR es:[edi],dx
  418d62:	add    DWORD PTR [ebx],esp
  418d64:	pop    esi
  418d65:	test   DWORD PTR ds:0x64ad9bf5,edi
  418d6b:	jns    0x418d8a
  418d6d:	jge    0x418de1
  418d6f:	mov    edi,0xafd5736c
  418d74:	stos   DWORD PTR es:[edi],eax
  418d75:	stos   DWORD PTR es:[edi],eax
  418d76:	sbb    DWORD PTR [esi-0x54c8ec8],esp
  418d7c:	mov    esi,0x1db914cf
  418d81:	adc    eax,0xcefb4df3
  418d86:	mov    bh,BYTE PTR [ecx+0x47]
  418d89:	aaa    
  418d8a:	prefetcht2 BYTE PTR [edi]
  418d8d:	jmp    0x418e0e
  418d8f:	cmp    al,0x25
  418d91:	cmp    al,0x17
  418d93:	ficomp DWORD PTR ds:0x3fe27405
  418d99:	cmp    ebp,DWORD PTR [ecx]
  418d9b:	sub    DWORD PTR [edi-0x57],edx
  418d9e:	mov    eax,ds:0x436fbcd9
  418da3:	pop    esi
  418da4:	jo     0x418d3c
  418da6:	cmp    ecx,DWORD PTR [ebp+0x3163540c]
  418dac:	pop    edx
  418dad:	out    dx,eax
  418dae:	xor    DWORD PTR [ecx],edi
  418db0:	sub    esi,esi
  418db2:	add    eax,0x1a95770e
  418db7:	mov    cl,0x1f
  418db9:	mov    ecx,0x50b970e4
  418dbe:	sub    eax,0xacfb89e4
  418dc3:	jne    0x418e32
  418dc5:	pop    ebp
  418dc7:	(bad)  
  418dc9:	stos   BYTE PTR es:[edi],al
  418dca:	mov    edx,0x5ddd00b
  418dcf:	mov    bl,BYTE PTR [esi]
  418dd1:	test   eax,0xaf5e2a4
  418dd6:	daa    
  418dd7:	jb     0x418e43
  418dd9:	test   eax,0xa2a739a1
  418dde:	mov    ah,BYTE PTR [edi-0x4a8f76ea]
  418de4:	xchg   ecx,eax
  418de5:	sub    BYTE PTR [ecx],0xe1
  418de8:	mov    esp,0xfb54b7ac
  418ded:	xor    bl,BYTE PTR [ebp+0x7267e7b8]
  418df3:	rcr    DWORD PTR [ebp-0x59929531],cl
  418df9:	arpl   WORD PTR [ebx+0x22],cx
  418dfc:	adc    ebp,edx
  418dfe:	popa   
  418dff:	xchg   ebp,eax
  418e00:	xor    esp,DWORD PTR [ebx+edx*4]
  418e03:	jns    0x418e19
  418e05:	stos   BYTE PTR es:[edi],al
  418e06:	or     DWORD PTR [ecx+0x72fd7d86],eax
  418e0c:	jns    0x418e3c
  418e0e:	push   0xfffffffb
  418e10:	mov    DWORD PTR [ebp+0x48e4607f],esp
  418e16:	adc    DWORD PTR [ebx],esp
  418e18:	cs or  eax,0x7413d21f
  418e1e:	rcl    dh,1
  418e20:	sahf   
  418e21:	cld    
  418e22:	and    DWORD PTR [esi],ebp
  418e24:	jmp    0x73aa:0xa43348ad
  418e2b:	mov    WORD PTR [ebp+edx*1-0x7144ed96],?
  418e32:	sbb    eax,0x9ed27ce3
  418e37:	jno    0x418de5
  418e39:	frstor [ebp-0x311f59f2]
  418e3f:	sbb    bl,BYTE PTR ds:0x8149476c
  418e45:	inc    eax
  418e46:	mov    eax,ds:0x826fc326
  418e4b:	adc    BYTE PTR [ebx-0x17],ah
  418e4e:	sbb    bh,0x1f
  418e51:	cmp    eax,0xfb73fe34
  418e56:	aam    0x21
  418e58:	add    BYTE PTR [edx+0xce47a94],dh
  418e5e:	imul   esi,DWORD PTR [edi-0x27c68e63],0xb41b0aca
  418e68:	cmp    DWORD PTR [ebx+0x65],0xde3ca0b9
  418e6f:	or     eax,0xed76b93
  418e74:	ins    DWORD PTR es:[edi],dx
  418e75:	jno    0x418e9e
  418e77:	mov    ds:0x99c734a2,al
  418e7c:	xor    ebx,DWORD PTR [ebp+0xbd18991]
  418e82:	inc    ebx
  418e83:	aas    
  418e84:	jne    0x418ee8
  418e86:	cmps   DWORD PTR ds:[esi],DWORD PTR es:[edi]
  418e87:	mov    fs,WORD PTR [edi-0x65]
  418e8a:	enter  0x3010,0x16
  418e8e:	pop    ebx
  418e8f:	xor    ebx,DWORD PTR [ecx]
  418e91:	pop    ebp
  418e92:	mov    DWORD PTR [ebx+0x1f7b24e9],edx
  418e98:	pop    ds
  418e99:	arpl   WORD PTR [edx-0x1c7e9ccb],bx
  418e9f:	push   esp
  418ea0:	xor    ebx,DWORD PTR [edi]
  418ea2:	repnz cmp esi,ebp
  418ea5:	jmp    DWORD PTR [ebx-0x6b]
  418ea8:	cmps   DWORD PTR ds:[esi],DWORD PTR es:[edi]
  418ea9:	or     bx,WORD PTR [edx+0x52]
  418ead:	stos   BYTE PTR es:[edi],al
  418eae:	mov    DWORD PTR [ecx],edi
  418eb0:	loop   0x418f20
  418eb2:	pop    eax
  418eb3:	lock adc ecx,DWORD PTR [edi]
  418eb6:	into   
  418eb7:	mov    ds:0x8c6fac87,al
  418ebc:	dec    esp
  418ebd:	mov    edx,0xac90137d
  418ec2:	popa   
  418ec3:	dec    edi
  418ec4:	or     al,0x58
  418ec6:	push   ebx
  418ec7:	dec    ecx
  418ec8:	stos   BYTE PTR es:[edi],al
  418ec9:	sti    
  418eca:	(bad)  [ecx]
  418ecc:	sub    DWORD PTR [esi+edx*2+0x1d],ebp
  418ed0:	outs   dx,BYTE PTR ds:[esi]
  418ed1:	mov    al,BYTE PTR [esi+0x29acaee0]
  418ed7:	iret   
  418ed8:	pop    ss
  418ed9:	lods   eax,DWORD PTR ds:[esi]
  418eda:	test   al,0xd6
  418edc:	lahf   
  418edd:	mov    bh,0x8f
  418edf:	fimul  DWORD PTR [ebp-0x688ed580]
  418ee5:	nop
  418ee6:	adc    cl,BYTE PTR [edi]
  418ee8:	lock xor bl,BYTE PTR [ebp+0x52ad18af]
  418eef:	sub    cl,ch
  418ef1:	jmp    DWORD PTR [ebp-0x7d07df68]
  418ef7:	pop    es
  418ef8:	std    
  418ef9:	std    
  418efa:	xor    bl,dh
  418efc:	pop    edi
  418efd:	and    eax,0x8e9e05e3
  418f02:	and    eax,0x1a253414
  418f07:	xor    al,0x67
  418f09:	add    DWORD PTR [edi+0x50],0x1d
  418f0d:	inc    ebp
  418f0e:	clc    
  418f0f:	sahf   
  418f10:	out    0x87,eax
  418f12:	retf   
  418f13:	(bad)  
  418f14:	in     al,0xa9
  418f16:	in     eax,dx
  418f17:	in     eax,dx
  418f18:	addr16 push ebp
  418f1a:	in     al,dx
  418f1b:	jl     0x418f64
  418f1d:	add    al,0x13
  418f1f:	sbb    ebx,esi
  418f21:	cmp    BYTE PTR [ebp+eax*4-0x52],ah
  418f25:	sti    
  418f26:	push   eax
  418f27:	bound  esp,QWORD PTR [ebx]
  418f29:	enter  0xda8,0xb5
  418f2d:	sbb    esp,DWORD PTR [ebx-0xf3eeb65]
  418f33:	mov    ebp,0x8e750812
  418f38:	sbb    ch,ch
  418f3a:	mov    eax,0xd063970e
  418f3f:	or     ch,BYTE PTR [edx+0x64]
  418f42:	cli    
  418f43:	and    BYTE PTR [eax],0xdb
  418f46:	jno    0x418ef8
  418f48:	mov    edx,?
  418f4a:	arpl   WORD PTR [ebp+0x39],ax
  418f4d:	ins    DWORD PTR es:[edi],dx
  418f4e:	out    0x1c,eax
  418f50:	out    0xe9,eax
  418f52:	inc    ebx
  418f53:	popf   
  418f54:	or     eax,0x2f102476
  418f59:	add    al,0x3
  418f5b:	cmp    ah,al
  418f5d:	clc    
  418f5e:	popa   
  418f5f:	xor    DWORD PTR [edx-0x13],edx
  418f62:	jl     0x418f0b
  418f64:	pop    es
  418f65:	push   es
  418f66:	push   ebx
  418f67:	std    
  418f68:	lahf   
  418f69:	lods   al,BYTE PTR ds:[esi]
  418f6a:	shl    BYTE PTR [ebx],cl
  418f6c:	int    0x51
  418f6e:	jecxz  0x418fb8
  418f70:	out    dx,eax
  418f71:	repnz arpl WORD PTR [ecx],sp
  418f74:	cdq    
  418f75:	sub    DWORD PTR [ebx],0x3a
  418f78:	sti    
  418f79:	outs   dx,BYTE PTR ds:[esi]
  418f7a:	sbb    eax,0x66cb7111
  418f7f:	bound  ebx,QWORD PTR ds:0x33afc0d5
  418f85:	mov    edi,0xaa5f61ba
  418f8a:	push   ebp
  418f8b:	or     BYTE PTR [edi+edx*4],bl
  418f8e:	iret   
  418f8f:	ret    0xfa98
  418f92:	popf   
  418f93:	iret   
  418f94:	call   0x7ff6f415
  418f99:	inc    eax
  418f9a:	ins    DWORD PTR es:[edi],dx
  418f9b:	pop    edi
  418f9c:	mov    esi,ecx
  418f9e:	loopne 0x418faf
  418fa0:	sub    eax,DWORD PTR ds:0x6d1e944d
  418fa6:	in     al,dx
  418fa7:	and    DWORD PTR [eax+0x4b],esi
  418faa:	loop   0x418fef
  418fac:	es jl  0x419007
  418faf:	pushf  
  418fb0:	push   ds
  418fb1:	inc    ecx
  418fb2:	stos   DWORD PTR es:[di],eax
  418fb4:	mov    bh,ah
  418fb6:	cmp    al,0x1c
  418fb8:	cmps   BYTE PTR ds:[esi],BYTE PTR es:[edi]
  418fb9:	cmp    al,0x91
  418fbb:	jge    0x418fdb
  418fbd:	push   edx
  418fbe:	sub    DWORD PTR [ebx+0x24],ebx
  418fc1:	mov    BYTE PTR [ecx+0x70],0xa3
  418fc5:	add    bl,BYTE PTR [eax]
  418fc7:	adc    dh,ch
  418fc9:	scas   al,BYTE PTR es:[edi]
  418fca:	cld    
  418fcb:	je     0x418fef
  418fcd:	mov    al,ds:0x32933ed3
  418fd2:	psubsw mm2,QWORD PTR cs:[ebx]
  418fd6:	sbb    DWORD PTR [edi+ebp*1-0x2c],0xffffff99
  418fdb:	or     eax,0xc3db36cd
  418fe0:	xor    BYTE PTR [edx+edi*1+0x46aa1921],dl
  418fe7:	punpckldq mm2,DWORD PTR [ecx-0x6354e12d]
  418fee:	and    edx,DWORD PTR [ecx]
  418ff0:	call   0x1e683fc7
  418ff5:	jne    0x418f94
  418ff7:	xchg   edx,eax
  418ff8:	jns    0x41903d
  418ffa:	inc    ecx
  418ffb:	data16 mov ch,0xa9
  418ffe:	push   ebp
  418fff:	cs and eax,0xc80dc3eb
  419005:	jno    0x419067
  419007:	mov    edi,0x1d28c32f
  41900c:	mov    dl,0x96
  41900e:	fisttp WORD PTR [esi-0x534e558b]
  419014:	add    eax,DWORD PTR [esi]
  419016:	and    ch,BYTE PTR [eax+0x5d712baf]
  41901c:	jg     0x419045
  41901e:	movs   DWORD PTR es:[edi],DWORD PTR fs:[esi]
  419020:	lods   eax,DWORD PTR ds:[esi]
  419021:	sub    esi,eax
  419023:	rcr    DWORD PTR [edi-0x10],1
  419026:	(bad)  
  419027:	jge    0x418fe4
  419029:	mov    al,ds:0x3a260e1c
  41902e:	adc    DWORD PTR [esi-0x1a9d1246],0xffffffe1
  419035:	adc    eax,DWORD PTR [ebx+edi*4+0x1b]
  419039:	pop    ds
  41903a:	pusha  
  41903b:	push   cs
  41903c:	cmps   BYTE PTR ds:[esi],BYTE PTR es:[edi]
  41903d:	call   0xd588:0x191e0ca1
  419044:	cwde   
  419045:	inc    ebx
  419046:	xchg   ebp,eax
  419047:	test   eax,0xedab41
  41904c:	sub    al,0xb5
  41904e:	aam    0x6b
  419050:	mov    dl,0xce
  419052:	stos   BYTE PTR es:[edi],al
  419053:	sbb    BYTE PTR [edx+0x1f1145be],0x18
  41905a:	imul   edx,DWORD PTR [ecx-0x183de450],0x50d5d13e
  419064:	sbb    edx,DWORD PTR [edi-0x3d]
  419067:	or     eax,0xcaae760d
  41906c:	sbb    al,0x21
  41906e:	jp     0x41900d
  419070:	adc    DWORD PTR [esi+ebp*1],ebp
  419073:	cdq    
  419074:	shr    BYTE PTR [edx-0x27f384db],cl
  41907a:	push   edi
  41907b:	(bad)  
  41907c:	mov    ecx,0x8032fba4
  419081:	xchg   DWORD PTR [edi+0x49],edx
  419084:	movs   DWORD PTR es:[edi],DWORD PTR es:[esi]
  419086:	mov    ds:0xb0294616,eax
  41908b:	or     dl,bl
  41908d:	test   eax,0x2825a619
  419092:	and    DWORD PTR [esi-0x72ca9c47],ebp
  419098:	cmp    eax,0x3f193e2d
  41909d:	mov    eax,0xbb1401f7
  4190a2:	xchg   ebp,eax
  4190a3:	das    
  4190a4:	iret   
  4190a5:	jg     0x4190f3
  4190a7:	adc    DWORD PTR [edi+0x30bb8d9f],edi
  4190ad:	pusha  
  4190ae:	test   bl,bl
  4190b0:	sti    
  4190b1:	pop    es
  4190b2:	in     eax,0x10
  4190b4:	pop    edx
  4190b5:	sbb    esp,ebp
  4190b7:	cwde   
  4190b8:	aaa    
  4190b9:	jl     0x41912b
  4190bb:	adc    BYTE PTR [ebx+0x3e],ch
  4190be:	pop    es
  4190bf:	jg     0x4190e0
  4190c1:	cmp    eax,0xbf651f4
  4190c6:	(bad)  
  4190c7:	(bad)  
  4190c8:	mov    edx,0x6f8593d7
  4190cd:	jbe    0x41906b
  4190cf:	psllq  mm2,mm5
  4190d2:	(bad)  
  4190d3:	xchg   edx,eax
  4190d4:	and    dh,bh
  4190d6:	fxch   st(0)
  4190d8:	mov    bl,0x2f
  4190da:	bound  esp,QWORD PTR [ecx+0x7b64025b]
  4190e0:	mov    edi,0xca0ffb5a
  4190e5:	mov    dl,0xe
  4190e7:	xchg   ebp,eax
  4190e8:	sbb    eax,0xc3720239
  4190ed:	jns    0x41907d
  4190ef:	push   es
  4190f0:	pop    ecx
  4190f1:	sahf   
  4190f2:	test   eax,0x4553a5e1
  4190f7:	sbb    eax,0x3862497d
  4190fc:	push   ds
  4190fd:	xchg   ecx,eax
  4190fe:	pop    edi
  4190ff:	push   esi
  419100:	add    cl,ah
  419102:	test   BYTE PTR [eax+eiz*8],0xaa
  419106:	inc    ecx
  419107:	int3   
  419108:	repnz and DWORD PTR [edx+0x15556c24],0xffffff94
  419110:	sub    al,0x1d
  419112:	dec    eax
  419113:	in     eax,0x1f
  419115:	repz and al,0xda
  419118:	ret    
  419119:	xchg   BYTE PTR [ebp+0x53],dl
  41911c:	dec    eax
  41911d:	xor    al,0xb7
  41911f:	xchg   DWORD PTR [edx+0x7e],ebx
  419122:	fs aaa 
  419124:	sbb    cl,BYTE PTR [ebp-0x10]
  419127:	dec    edi
  419128:	in     eax,dx
  419129:	or     eax,0xf5bf5e94
  41912e:	sub    ah,BYTE PTR [ecx+0x5249a9b]
  419134:	pop    ds
  419135:	cmp    BYTE PTR [ecx+0x62],ch
  419138:	sub    al,0x24
  41913a:	movs   BYTE PTR es:[edi],BYTE PTR ds:[esi]
  41913b:	loope  0x419120
  41913d:	sub    al,0x9f
  41913f:	mov    ebx,0xab04ab2f
  419144:	adc    ch,BYTE PTR [edx]
  419146:	test   al,0x29
  419148:	jg     0x4190f1
  41914a:	hlt    
  41914b:	aam    0x9d
  41914d:	(bad)  
  41914e:	es mov esp,0x1750c391
  419154:	add    eax,0xef9d6301
  419159:	cmps   BYTE PTR ds:[esi],BYTE PTR es:[edi]
  41915a:	push   ecx
  41915b:	fadd   st,st(7)
  41915d:	xor    DWORD PTR [edi-0x1d56a2f2],ecx
  419163:	mov    esi,0x35fe0518
  419168:	inc    ecx
  419169:	dec    edx
  41916a:	and    esp,DWORD PTR [edi]
  41916c:	pop    esp
  41916d:	sbb    al,0xc2
  41916f:	mov    edx,0x9b86ed6f
  419174:	(bad)  
  419175:	(bad)  
  419177:	vmwrite edx,DWORD PTR [eax+0x3fa76043]
  41917e:	arpl   WORD PTR [ebp-0x7f],cx
  419181:	add    BYTE PTR [ecx+0x3bd8f3a7],dh
  419187:	jmp    0xa894:0x444c591c
  41918e:	ds cs pop ds
  419191:	sbb    DWORD PTR [esi+0x74a51323],edx
  419197:	dec    ebp
  419198:	mov    ebp,DWORD PTR [ebp+edx*8+0x31901356]
  41919f:	sub    eax,0xf93bcc86
  4191a4:	sbb    al,0xe
  4191a6:	popa   
  4191a7:	in     eax,dx
  4191a8:	loop   0x4191cb
  4191aa:	xor    al,0x99
  4191ac:	pop    ecx
  4191ad:	mov    eax,0xec249654
  4191b2:	xchg   esi,eax
  4191b3:	repz jle 0x41915d
  4191b6:	fist   WORD PTR gs:[edi]
  4191b9:	(bad)
  4191bc:	into   
  4191bd:	sbb    eax,0xbdf41963
  4191c2:	rol    BYTE PTR [edx+0x28a57eff],cl
  4191c8:	fild   QWORD PTR [ecx+0x54563109]
  4191ce:	repnz cwde 
  4191d0:	pop    ds
  4191d1:	dec    ebp
  4191d2:	xor    DWORD PTR [eax+0xc],ebx
  4191d5:	mov    dl,BYTE PTR [ecx+0x5]
  4191d8:	ins    DWORD PTR es:[edi],dx
  4191d9:	stos   BYTE PTR es:[edi],al
  4191da:	adc    esi,DWORD PTR gs:[ebp+eiz*4-0x793516a]
  4191e2:	inc    edx
  4191e3:	mov    al,ds:0x2d64abda
  4191e8:	inc    edx
  4191e9:	into   
  4191ea:	paddw  mm7,mm7
  4191ed:	int3   
  4191ee:	xchg   DWORD PTR ds:0x9d6c2cc1,ecx
  4191f4:	sbb    al,0xd9
  4191f6:	fwait
  4191f7:	cmp    ebx,DWORD PTR [bp+di-0x3174]
  4191fc:	cdq    
  4191fd:	lods   al,BYTE PTR ds:[esi]
  4191fe:	sbb    DWORD PTR [edi+0x5b],edx
  419201:	jbe    0x41924c
  419203:	out    dx,al
  419204:	cmp    eax,0x1ad0e59f
  419209:	lds    eax,FWORD PTR [ecx]
  41920b:	das    
  41920c:	push   es
  41920d:	pop    ss
  41920e:	mov    ecx,0x97935f5a
  419213:	mov    al,dl
  419215:	lods   al,BYTE PTR ds:[esi]
  419216:	xchg   ecx,eax
  419217:	inc    esp
  419218:	jecxz  0x419282
  41921a:	dec    eax
  41921b:	pop    ecx
  41921c:	icebp  
  41921d:	dec    edi
  41921e:	cld    
  41921f:	stos   DWORD PTR es:[edi],eax
  419220:	mul    BYTE PTR [ecx]
  419222:	lods   eax,DWORD PTR gs:[esi]
  419224:	aas    
  419225:	mov    ebx,ebp
  419227:	leave  
  419228:	retf   
  419229:	and    cl,al
  41922b:	adc    al,BYTE PTR [ebp+ebp*2+0x61]
  41922f:	mov    ebx,DWORD PTR [esi]
  419231:	jmp    0xd426:0x91d9a09
  419238:	mov    cl,0xde
  41923a:	xor    BYTE PTR [edi+0x207dac74],cl
  419240:	pop    ss
  419241:	dec    ebx
  419242:	and    dh,ch
  419244:	lods   al,BYTE PTR ds:[esi]
  419245:	or     BYTE PTR [eax+edx*8+0x3c],0x9b
  41924a:	pop    edi
  41924b:	frstor [esi+ecx*4+0x1185ff40]
  419252:	push   ebp
  419253:	ret    0xaa50
  419256:	std    
  419257:	xor    BYTE PTR [esi+0x7e341dd0],bh
  41925d:	in     eax,0xab
  41925f:	dec    ebp
  419260:	sbb    eax,0x472d62ca
  419265:	inc    ecx
  419266:	or     ecx,edi
  419268:	mov    ebx,0xc910b70f
  41926d:	pushf  
  41926e:	cmp    ebp,DWORD PTR es:[edi+0x1e8eb5bc]
  419275:	mov    bh,0x87
  419277:	sbb    ch,bh
  419279:	pushf  
  41927a:	sub    eax,0x3a2217db
  41927f:	push   cs
  419280:	or     DWORD PTR [ebx-0x72fd534c],eax
  419286:	xor    eax,DWORD PTR [esi]
  419288:	dec    ecx
  419289:	out    0xbc,al
  41928b:	(bad)  
  41928c:	mov    esi,0xdcdfa344
  419291:	test   eax,0x70d286a5
  419296:	es ins DWORD PTR es:[edi],dx
  419298:	and    DWORD PTR [edi],esi
  41929a:	jg     0x419281
  41929c:	push   ds
  41929d:	adc    eax,0xf3070b83
  4192a2:	pop    esp
  4192a3:	adc    bh,0xab
  4192a6:	mov    DWORD PTR [ecx],ebp
  4192a8:	dec    edi
  4192a9:	aam    0xda
  4192ab:	mov    DWORD PTR [ecx],edx
  4192ad:	xchg   ecx,eax
  4192ae:	add    al,BYTE PTR ds:0xf473a965
  4192b4:	sbb    DWORD PTR [edi],ecx
  4192b6:	or     DWORD PTR [eax],eax
  4192b8:	mov    bl,0xe3
  4192ba:	adc    eax,0xa75c6f25
  4192bf:	mov    bh,0xf1
  4192c1:	stos   DWORD PTR es:[edi],eax
  4192c2:	fstp   DWORD PTR ds:0x4dc6adfe
  4192c8:	enter  0x35ac,0xff
  4192cc:	aad    0x6
  4192ce:	or     BYTE PTR [ebx-0x7a871081],0x63
  4192d5:	aad    0x61
  4192d7:	or     ebx,eax
  4192d9:	mov    WORD PTR [edi],gs
  4192db:	or     bl,BYTE PTR [ebx+0x1fe520c8]
  4192e1:	cmp    ecx,0x65
  4192e4:	das    
  4192e5:	aaa    
  4192e6:	cmp    dl,cl
  4192e8:	int3   
  4192e9:	loopne 0x41934d
  4192eb:	jmp    0xf171206a
  4192f0:	arpl   WORD PTR [edx],si
  4192f2:	jmp    0x9ce9:0x6c471deb
  4192f9:	mov    ah,BYTE PTR [edx+0x50]
  4192fc:	lea    edx,[esi+eiz*8]
  4192ff:	or     al,0xc6
  419301:	jg     0x419365
  419303:	mov    dh,cl
  419305:	test   eax,0xc72dcd09
  41930a:	sbb    esi,DWORD PTR [ecx+0x6d49e544]
  419310:	(bad)  
  419311:	or     eax,0xbb0fd64
  419316:	mov    edx,0x16c6b8e
  41931b:	push   cs
  41931c:	jle    0x419318
  41931e:	arpl   WORD PTR [ebp+ebx*1-0x3b5cc3f],bp
  419325:	mov    al,0x6e
  419327:	bound  edx,QWORD PTR [edx+ebp*4+0x19]
  41932b:	inc    edi
  41932c:	jnp    0x41935e
  41932e:	or     ecx,DWORD PTR [edi-0x48]
  419331:	push   eax
  419332:	inc    edi
  419333:	pop    edx
  419334:	sbb    ch,0x64
  419337:	inc    ecx
  419338:	fisubr WORD PTR [ecx]
  41933a:	xchg   edi,eax
  41933b:	mov    ch,0xef
  41933d:	cmp    eax,0xc470056a
  419342:	js     0x41932a
  419344:	fxch   st(4)
  419346:	loop   0x4192f3
  419348:	test   al,0xf8
  41934a:	push   esi
  41934b:	lods   eax,DWORD PTR ds:[esi]
  41934c:	or     eax,0x601216ee
  419351:	imul   edx,esi,0xc1703e8c
  419357:	add    BYTE PTR [edx+ebp*2],dl
  41935a:	xchg   ebx,eax
  41935b:	cmp    ah,BYTE PTR [eax]
  41935d:	(bad)  
  41935e:	fst    QWORD PTR [eax+eiz*1]
  419361:	mov    esi,0xacbb9035
  419366:	jge    0x4193cc
  419368:	leave  
  419369:	dec    DWORD PTR fs:[edx]
  41936c:	sub    DWORD PTR [ebx+0x67f6494d],0xba98a6e9
  419376:	and    eax,edi
  419378:	aaa    
  419379:	xchg   ecx,eax
  41937a:	bound  esp,QWORD PTR [ebp-0xa]
  41937d:	bound  ebx,QWORD PTR [edi-0x34d4b53e]
  419383:	cmp    bh,BYTE PTR ds:0x1a351aa
  419389:	dec    ebx
  41938a:	stos   DWORD PTR es:[edi],eax
  41938b:	imul   edi,edi,0x99f996c1
  419391:	test   BYTE PTR [ebp-0x53],ah
  419394:	xor    DWORD PTR [ecx+0x127390c4],edi
  41939a:	dec    esi
  41939b:	lahf   
  41939c:	mov    ah,0x8d
  41939e:	push   0xe
  4193a0:	(bad)  
  4193a2:	mov    bh,0x2c
  4193a4:	push   es
  4193a5:	cdq    
  4193a6:	bound  ebp,QWORD PTR [ebp+0x26]
  4193a9:	jmp    0x4193a4
  4193ab:	dec    edx
  4193ac:	lahf   
  4193ad:	into   
  4193ae:	test   DWORD PTR [esi],ecx
  4193b0:	popa   
  4193b1:	push   eax
  4193b2:	pop    eax
  4193b3:	mov    ebx,0xa730f8f2
  4193b8:	and    ah,BYTE PTR [eax+0x4ac5d8e9]
  4193be:	repz ret 0xd04c
  4193c2:	imul   DWORD PTR [ecx+0x3]
  4193c5:	fbld   TBYTE PTR [ebp+ecx*1-0x4edb0a9d]
  4193cc:	sbb    eax,0x471015f5
  4193d1:	jmp    0xaaf56bf5
  4193d6:	adc    DWORD PTR [eax+0x18],edi
  4193d9:	(bad)  
  4193da:	cwde   
  4193db:	pop    ecx
  4193dc:	xchg   edx,eax
  4193dd:	(bad)  
  4193de:	sbb    al,0x75
  4193e0:	adc    DWORD PTR [ecx],eax
  4193e2:	outs   dx,DWORD PTR ds:[esi]
  4193e3:	jae    0x419396
  4193e5:	outs   dx,DWORD PTR ds:[esi]
  4193e6:	dec    edi
  4193e7:	jecxz  0x419461
  4193e9:	rcl    dh,1
  4193eb:	nop
  4193ec:	jg     0x419419
  4193ee:	(bad)  
  4193f0:	daa    
  4193f1:	mov    ebp,0xd5eec201
  4193f6:	jge    0x419408
  4193f8:	push   ds
  4193f9:	aad    0xff
  4193fb:	sub    al,0xb5
  4193fd:	add    al,0xc8
  4193ff:	sti    
  419400:	pop    esi
  419401:	stos   DWORD PTR es:[edi],eax
  419402:	and    eax,0xfb184c05
  419407:	int    0x62
  419409:	aas    
  41940a:	add    al,0x8
  41940c:	dec    ebp
  41940d:	daa    
  41940e:	dec    eax
  41940f:	add    DWORD PTR [ebp+esi*2+0x2a],ebx
  419413:	mov    bh,0xab
  419415:	lods   al,BYTE PTR ds:[esi]
  419416:	int    0x22
  419418:	mov    WORD PTR [edx+ebx*8],es
  41941b:	pop    esi
  41941c:	jne    0x419476
  41941e:	aaa    
  41941f:	cmp    ebx,esp
  419421:	cmp    bl,BYTE PTR [edi-0x4b]
  419424:	sub    bl,ah
  419426:	sub    al,BYTE PTR [ebx+0x32]
  419429:	test   eax,0x4b671da5
  41942e:	jmp    0x419479
  419430:	pusha  
  419431:	and    BYTE PTR [edi],ah
  419433:	xchg   DWORD PTR ds:[ecx+0x5e],ebx
  419437:	loope  0x4193fa
  419439:	or     eax,0xabe3fba8
  41943e:	movs   DWORD PTR es:[edi],DWORD PTR ds:[esi]
  41943f:	dec    eax
  419440:	and    bl,bh
  419442:	fsub   DWORD PTR [edi-0x25]
  419445:	pop    esi
  419446:	push   DWORD PTR [edi]
  419448:	or     esp,DWORD PTR [ecx+0x5c]
  41944b:	in     eax,0xa9
  41944d:	lahf   
  41944e:	inc    esp
  41944f:	das    
  419450:	xor    ah,bh
  419452:	jns    0x4194a4
  419454:	ret    
  419455:	ins    BYTE PTR es:[edi],dx
  419456:	push   edx
  419457:	(bad)  
  419459:	ret    
  41945a:	sub    BYTE PTR [edi+0x48128b29],ah
  419460:	xchg   BYTE PTR [esi+0x62],al
  419463:	sub    eax,edx
  419465:	hlt    
  419466:	scas   al,BYTE PTR es:[edi]
  419467:	xchg   edx,eax
  419468:	pop    es
  419469:	or     ah,ch
  41946b:	or     eax,0x4d44e8e4
  419470:	ss int 0x6c
  419473:	mov    dh,0xb5
  419475:	mov    ebp,0x6cbd63
  41947a:	(bad)  
  41947b:	mov    bh,0xdb
  41947d:	sbb    BYTE PTR [edi+0x10],ah
  419480:	mov    eax,ds:0xe3cf61f2
  419485:	js     0x4194ec
  419487:	fs xchg ecx,eax
  419489:	(bad)  
  41948a:	adc    BYTE PTR [esi],bl
  41948c:	sbb    eax,0x1603ec71
  419491:	stos   BYTE PTR es:[edi],al
  419492:	movs   DWORD PTR es:[edi],DWORD PTR ds:[esi]
  419493:	outs   dx,DWORD PTR ds:[esi]
  419494:	adc    DWORD PTR [edi+esi*2],edi
  419497:	push   0xbfe07ecf
  41949c:	mov    DWORD PTR [eax],0x6a24bd5f
  4194a2:	cmp    cl,0x1c
  4194a5:	stos   DWORD PTR es:[edi],eax
  4194a6:	inc    ebp
  4194a7:	ss popf 
  4194a9:	hlt    
  4194aa:	cld    
  4194ab:	and    BYTE PTR [eax],bl
  4194ad:	adc    BYTE PTR [ecx-0x3d],al
  4194b0:	sar    BYTE PTR [eax],cl
  4194b2:	test   DWORD PTR [ebx*1-0x5fe3b690],eax
  4194b9:	cmp    DWORD PTR [edx],ebx
  4194bb:	dec    ebx
  4194bc:	adc    eax,DWORD PTR [esi+0x42a00e1e]
  4194c2:	mov    bl,BYTE PTR [ebx]
  4194c4:	pop    ds
  4194c5:	test   DWORD PTR [ebp-0x1e],ecx
  4194c8:	sbb    bh,BYTE PTR [eax+0x47]
  4194cb:	loop   0x4194d9
  4194cd:	lods   al,BYTE PTR ds:[esi]
  4194ce:	sub    esi,ecx
  4194d0:	and    al,0x64
  4194d2:	xchg   bh,bh
  4194d4:	loopne 0x4194ec
  4194d6:	imul   edx,DWORD PTR [ecx+0x2d157275],0x1e
  4194dd:	xor    eax,0xf83819bb
  4194e2:	ret    
  4194e3:	lahf   
  4194e4:	inc    edx
  4194e5:	sahf   
  4194e6:	cdq    
  4194e7:	dec    ebx
  4194e8:	push   esi
  4194e9:	leave  
  4194ea:	das    
  4194eb:	mov    al,ds:0x52e91efe
  4194f0:	lea    ebx,[ecx+0x67]
  4194f3:	dec    ecx
  4194f4:	aas    
  4194f5:	mov    eax,ds:0x4fd09564
  4194fa:	sub    eax,ebx
  4194fc:	jnp    0x4194e8
  4194fe:	xchg   esp,eax
  4194ff:	push   cs
  419500:	xor    dl,BYTE PTR [ecx+eiz*4-0x19]
  419504:	das    
  419505:	sbb    eax,0xc11fdd40
  41950a:	mov    ebx,0x25fe2e01
  41950f:	pop    edx
  419510:	mov    cl,0xaa
  419512:	mov    ebp,edx
  419514:	out    dx,al
  419515:	xchg   esp,eax
  419516:	repz jmp 0xe593:0xd072ac5e
  41951e:	bound  eax,QWORD PTR [ecx]
  419520:	clc    
  419521:	(bad)  
  419522:	sbb    al,0xf9
  419524:	(bad)  
  419525:	sub    eax,0xfeb80e38
  41952a:	jp     0x41951a
  41952c:	sbb    al,0xb1
  41952e:	stos   DWORD PTR es:[edi],eax
  41952f:	mov    esp,0x55e75155
  419534:	ja     0x4194e1
  419536:	xor    eax,0x63755b3e
  41953b:	iret   
  41953c:	inc    ecx
  41953d:	pop    es
  41953e:	jo     0x419585
  419540:	hlt    
  419541:	dec    edi
  419542:	arpl   bp,bp
  419544:	std    
  419545:	cmp    BYTE PTR [ebp-0x79],0x4
  419549:	(bad)  
  41954a:	scas   eax,DWORD PTR es:[edi]
  41954b:	aaa    
  41954c:	fwait
  41954d:	lods   eax,DWORD PTR ds:[esi]
  41954e:	pop    edi
  41954f:	adc    BYTE PTR [ebx],bh
  419551:	mov    al,0xcc
  419553:	mov    esi,0xb7a28ca1
  419558:	sbb    eax,0x4deae218
  41955d:	dec    esi
  41955e:	mov    bl,0x85
  419560:	pop    edi
  419561:	cli    
  419562:	ror    BYTE PTR [edx],cl
  419564:	fsubr  QWORD PTR [ebx+0xf]
  419567:	arpl   WORD PTR [eax-0x3321a9aa],si
  41956d:	mov    edx,0xdc00a561
  419572:	xor    eax,0xbd374b09
  419577:	getsec 
  419579:	cli    
  41957a:	mov    esi,0x35691e2a
  41957f:	fst    QWORD PTR ds:0x75b3cde5
  419585:	test   eax,0xaa153911
  41958a:	lods   al,BYTE PTR ds:[esi]
  41958b:	shr    BYTE PTR [eax+0x30],cl
  41958e:	push   edx
  41958f:	ret    0xd17f
  419592:	pop    edi
  419593:	(bad)  
  419594:	icebp  
  419595:	sti    
  419596:	rcl    BYTE PTR [eax],0xf9
  419599:	jo     0x4195f0
  41959b:	mov    ds:0xd489822d,al
  4195a0:	and    eax,0xc0aae19e
  4195a5:	shl    dh,1
  4195a7:	sbb    eax,0xe55d03d5
  4195ac:	cmp    al,0x2b
  4195ae:	push   edx
  4195af:	sub    DWORD PTR [ecx+esi*2+0x61],ebx
  4195b3:	and    al,0xf
  4195b5:	sbb    ch,BYTE PTR [ebx]
  4195b7:	test   edx,esi
  4195b9:	cmp    al,0xe2
  4195bb:	cmp    DWORD PTR [esi],ebx
  4195bd:	pop    ecx
  4195be:	dec    ecx
  4195bf:	sub    BYTE PTR [ebx],0x9
  4195c2:	ins    BYTE PTR es:[edi],dx
  4195c3:	retf   
  4195c4:	xor    eax,0x50432dab
  4195c9:	mov    eax,0xc570f73
  4195ce:	ja     0x419571
  4195d0:	ror    BYTE PTR [ebx+0x63],1
  4195d3:	inc    ebp
  4195d4:	push   ebx
  4195d5:	cmp    edx,DWORD PTR [eax+0x55]
  4195d8:	iret   
  4195d9:	jle    0x41956d
  4195db:	repz xchg cl,ch
  4195de:	cmp    al,0x82
  4195e0:	(bad)  
  4195e1:	pop    ebp
  4195e2:	mov    cs,WORD PTR [eax]
  4195e4:	cli    
  4195e5:	sbb    BYTE PTR [edx-0x4655fe5f],cl
  4195eb:	xchg   al,cl
  4195ed:	ret    
  4195ee:	clc    
  4195ef:	adc    al,0x5b
  4195f1:	retf   
  4195f2:	sar    esi,0x4e
  4195f5:	stos   BYTE PTR es:[edi],al
  4195f6:	aas    
  4195f7:	add    al,0x21
  4195f9:	pop    ebx
  4195fa:	mov    ds:0x622b83d5,al
  4195ff:	jne    0x4195a2
  419601:	sbb    al,0x8a
  419603:	repz mov ebx,0x930e5cd6
  419609:	imul   ebp,DWORD PTR [esi],0x5540e665
  41960f:	sbb    eax,0x5606ab85
  419614:	aas    
  419615:	cdq    
  419616:	xor    al,0x4c
  419618:	mov    edi,0x9ed9445b
  41961d:	ss pop edi
  41961f:	pusha  
  419620:	stc    
  419621:	call   DWORD PTR [edi+0x73]
  419624:	jno    0x4195e4
  419626:	lock dec esp
  419628:	adc    edi,DWORD PTR [esp+eiz*2]
  41962b:	in     eax,dx
  41962c:	mov    esi,0xa04ce1aa
  419631:	pusha  
  419632:	xchg   BYTE PTR [ebx+0x54],cl
  419635:	lock loop 0x41963d
  419638:	les    esp,FWORD PTR [ebx]
  41963a:	arpl   WORD PTR [ecx+0x231c5864],di
  419640:	dec    ebx
  419641:	fst    DWORD PTR [edi+0x1066a910]
  419647:	aad    0xa4
  419649:	mov    al,0xd1
  41964b:	test   eax,0x5bf74f1d
  419650:	retf   
  419651:	mov    ebp,0x78bbd618
  419656:	mov    al,ds:0x89fc3e0e
  41965b:	ret    0x6cf1
  41965e:	pop    esi
  41965f:	inc    esp
  419660:	je     0x41960d
  419662:	out    dx,eax
  419663:	sub    DWORD PTR [ecx-0x583d9d84],eax
  419669:	inc    ecx
  41966a:	jp     0x419631
  41966c:	fisttp DWORD PTR [esi-0x47aff134]
  419672:	and    al,0xc5
  419674:	loopne 0x4196e3
  419676:	fs add eax,0x6ee1536
  41967c:	xchg   ebx,eax
  41967d:	ds pop ecx
  41967f:	adc    DWORD PTR [esi+0x4dc03f],esp
  419685:	popa   
  419686:	retf   
  419687:	lock sub al,0xdc
  41968a:	hlt    
  41968b:	cmp    cl,BYTE PTR [ebx-0x24149cfb]
  419691:	adc    al,0xff
  419693:	adc    dh,ch
  419695:	jnp    0x4196cd
  419697:	stos   DWORD PTR es:[edi],eax
  419698:	pop    esi
  419699:	mov    DWORD PTR [edx+edx*4-0x3e9b4961],edx
  4196a0:	mov    ds:0xab714df6,al
  4196a5:	inc    edx
  4196a6:	push   ebx
  4196a7:	adc    BYTE PTR [edx],al
  4196a9:	stc    
  4196aa:	add    dl,ah
  4196ac:	xor    al,0xc
  4196ae:	dec    ecx
  4196af:	xor    BYTE PTR [ecx],cl
  4196b1:	pushf  
  4196b2:	pop    edx
  4196b3:	adc    bl,ah
  4196b5:	jmp    0xc0d8d9f9
  4196ba:	pop    edx
  4196bb:	or     eax,0xd8238325
  4196c0:	sub    al,0x3e
  4196c2:	dec    edx
  4196c3:	cmp    eax,0xac46087
  4196c8:	into   
  4196c9:	adc    al,0x38
  4196cb:	pop    ebp
  4196cc:	jnp    0x419701
  4196ce:	sbb    eax,0x1dac3f0f
  4196d3:	inc    esp
  4196d4:	pop    ds
  4196d5:	inc    ebx
  4196d6:	push   0xffffffb8
  4196d8:	lods   al,BYTE PTR ds:[esi]
  4196d9:	or     DWORD PTR cs:[ebx],edx
  4196dc:	pusha  
  4196dd:	xor    edx,DWORD PTR [edi-0x2f]
  4196e0:	aad    0x8e
  4196e2:	pop    edx
  4196e3:	icebp  
  4196e4:	mov    eax,ds:0x2b78a4af
  4196e9:	ja     0x4196c3
  4196eb:	mov    cl,0x7f
  4196ed:	dec    ebx
  4196ee:	push   es
  4196ef:	push   cs
  4196f0:	sub    DWORD PTR [eax],0xffffffde
  4196f3:	push   es
  4196f4:	int    0x3a
  4196f6:	pusha  
  4196f7:	jmp    0x93cde6dc
  4196fc:	ds test eax,0xaf3e20e5
  419702:	inc    esi
  419703:	sub    DWORD PTR [eax-0x4a88f67c],eax
  419709:	add    BYTE PTR [eax+0x41],0xd3
  41970d:	add    ch,BYTE PTR [eax+0x3d352a0d]
  419713:	xchg   esi,eax
  419714:	jmp    0x74f6:0xae5fd4a9
  41971b:	in     al,0x3
  41971d:	ins    DWORD PTR es:[edi],dx
  41971e:	xchg   esp,eax
  41971f:	mov    ds:0x8488aa94,al
  419724:	xchg   ebx,eax
  419725:	mov    eax,0x2917ade1
  41972a:	inc    edx
  41972b:	adc    bl,ch
  41972d:	push   esi
  41972e:	std    
  41972f:	pop    esp
  419730:	push   ds
  419731:	popa   
  419732:	enter  0x2e0c,0x90
  419736:	aas    
  419737:	jno    0x4196e4
  419739:	test   eax,0x6d0d9fad
  41973e:	jge    0x41979f
  419740:	pop    edx
  419741:	sahf   
  419742:	(bad)  
  419743:	data16 jo 0x41978f
  419746:	fs sub eax,0x91a77f0d
  41974c:	out    dx,eax
  41974d:	das    
  41974e:	mov    cl,BYTE PTR [esi]
  419750:	retf   0x745f
  419753:	adc    edx,DWORD PTR ds:0xee06ea11
  419759:	fldenv [ecx-0x2ac1d36f]
  41975f:	nop
  419760:	out    dx,eax
  419761:	retf   0xf41
  419764:	xchg   edi,eax
  419765:	ins    DWORD PTR es:[edi],dx
  419766:	jbe    0x4197dc
  419768:	sbb    eax,0xa75e115d
  41976d:	mov    gs,WORD PTR [edx+0x29aae43f]
  419773:	and    BYTE PTR [ebx],cl
  419775:	jle    0x4197d6
  419777:	mov    bh,0x8
  419779:	jecxz  0x4197f6
  41977b:	ja     0x41979b
  41977d:	dec    ecx
  41977e:	jl     0x4197e1
  419780:	int    0xe7
  419782:	retf   
  419783:	nop
  419784:	gs rcr cl,cl
  419787:	fs add esp,ecx
  41978a:	add    ecx,DWORD PTR [esi]
  41978c:	inc    eax
  41978d:	int    0x9f
  41978f:	cld    
  419790:	sbb    al,0x11
  419792:	mov    ah,0x59
  419794:	jg     0x4197f0
  419796:	sbb    DWORD PTR [esi+0x1e33e211],0x304931e6
  4197a0:	mov    edi,0xe028a9a9
  4197a5:	jae    0x4197c7
  4197a7:	jnp    0x4197c8
  4197a9:	add    ebp,ecx
  4197ab:	mov    edx,0xb2477336
  4197b0:	xchg   esp,eax
  4197b1:	mov    dl,0xf4
  4197b3:	jae    0x4197d2
  4197b5:	imul   eax,DWORD PTR [edi],0x7a7d3f07
  4197bb:	inc    esi
  4197bc:	mov    ss,ecx
  4197be:	sub    BYTE PTR [edx+0x2c],dh
  4197c1:	dec    ecx
  4197c2:	pusha  
  4197c3:	int    0x48
  4197c5:	mov    al,ds:0xa9df1127
  4197ca:	in     eax,0x94
  4197cc:	xchg   DWORD PTR [esi+0x66],ebx
  4197cf:	add    eax,0xde5ca7ad
  4197d4:	pop    ds
  4197d5:	jns    0x419851
  4197d7:	movs   DWORD PTR es:[edi],DWORD PTR ds:[esi]
  4197d8:	xchg   esp,eax
  4197d9:	je     0x419848
  4197db:	cmps   BYTE PTR ds:[esi],BYTE PTR es:[edi]
  4197dc:	adc    ch,BYTE PTR [edx+0x6339d975]
  4197e2:	pop    eax
  4197e3:	(bad)  
  4197e4:	scas   eax,DWORD PTR es:[edi]
  4197e5:	xchg   BYTE PTR [esi-0x2],ch
  4197e8:	push   0xffffffb0
  4197ea:	push   esi
  4197eb:	inc    ecx
  4197ec:	mov    ah,0xa9
  4197ee:	jae    0x4197a2
  4197f0:	inc    edx
  4197f1:	jb     0x41980c
  4197f3:	mov    eax,ds:0x1d940134
  4197f8:	cmp    al,0x6c
  4197fa:	jecxz  0x4197b3
  4197fc:	sbb    eax,0x9469a579
  419801:	cs loopne 0x4197f3
  419804:	xchg   edx,eax
  419805:	(bad)  
  419806:	pop    ebp
  419807:	test   eax,0xe8fc7262
  41980c:	(bad)  
  41980d:	cmps   DWORD PTR ds:[esi],DWORD PTR es:[edi]
  41980e:	add    eax,0xa9d9134f
  419813:	pop    esp
  419814:	(bad)  
  419815:	jl     0x4197b0
  419817:	aad    0x44
  419819:	xchg   ah,cl
  41981b:	dec    esi
  41981c:	push   DWORD PTR [esp+edi*8-0xf]
  419820:	sub    al,0xaa
  419822:	scas   eax,DWORD PTR es:[edi]
  419823:	repnz add al,dh
  419826:	add    BYTE PTR [ebp+0x5d6407b7],0xb4
  41982d:	popf   
  41982e:	aad    0xd8
  419830:	pop    ds
  419831:	push   esi
  419832:	test   eax,0x4e1b0a0e
  419837:	mov    ebp,0x6f7330e4
  41983c:	clc    
  41983d:	lods   al,BYTE PTR ds:[esi]
  41983e:	and    al,0xd5
  419840:	pop    ebx
  419841:	cli    
  419842:	and    al,0xff
  419844:	pop    esp
  419845:	outs   dx,DWORD PTR ds:[esi]
  419846:	jne    0x41988d
  419848:	popa   
  419849:	(bad)  
  41984a:	mov    BYTE PTR [edi+0x57e35b30],cl
  419850:	add    bh,BYTE PTR [ecx+0x58]
  419853:	imul   eax,DWORD PTR [edi+0x6a38919f],0xffffffa8
  41985a:	in     al,0x16
  41985c:	sti    
  41985d:	das    
  41985e:	mov    bh,0xe
  419860:	mov    bl,0x3
  419862:	adc    eax,DWORD PTR [ebp-0x20]
  419865:	xchg   esp,eax
  419866:	or     ebx,DWORD PTR [esi+0x5c]
  419869:	lods   al,BYTE PTR ds:[esi]
  41986a:	jno    0x419816
  41986c:	and    al,0x50
  41986e:	stos   DWORD PTR es:[edi],eax
  41986f:	mov    cl,0x17
  419871:	pop    esi
  419872:	mov    WORD PTR ds:0xf6e6f1df,cs
  419878:	fisubr WORD PTR [esi-0x5d397c24]
  41987e:	imul   eax,DWORD PTR fs:[eax-0x1f],0xeeeb102c
  419886:	ins    BYTE PTR es:[edi],dx
  419887:	adc    BYTE PTR [eax],ah
  419889:	test   eax,0x91cb10f
  41988e:	repz lds edi,FWORD PTR [esi-0x6e]
  419892:	jl     0x4198aa
  419894:	gs or  DWORD PTR ss:[ebx+0x76],ebx
  419899:	mov    al,ds:0xef914dce
  41989e:	xchg   ebp,eax
  41989f:	push   0x5f44599c
  4198a4:	sub    dl,0x64
  4198a7:	cmp    eax,0x9eb72f14
  4198ac:	aam    0x73
  4198ae:	aad    0x7e
  4198b0:	int    0x8d
  4198b2:	scas   eax,DWORD PTR es:[edi]
  4198b3:	dec    esi
  4198b4:	cld    
  4198b5:	cmp    ah,ch
  4198b7:	cmps   DWORD PTR ds:[esi],DWORD PTR es:[edi]
  4198b8:	sbb    BYTE PTR [ecx+0x28],ah
  4198bb:	addr16 sub bh,bl
  4198be:	inc    DWORD PTR [edx-0x66]
  4198c1:	adc    edi,DWORD PTR [esi]
  4198c3:	and    ch,cl
  4198c5:	lods   al,BYTE PTR ds:[esi]
  4198c6:	gs retf 0x1dac
  4198ca:	add    DWORD PTR ds:0x46e81764,ebp
  4198d0:	jbe    0x4198d7
  4198d2:	movs   DWORD PTR es:[edi],DWORD PTR fs:[esi]
  4198d4:	mov    al,ds:0x845799d4
  4198d9:	lods   al,BYTE PTR ds:[esi]
  4198da:	xor    eax,0x14b2ad59
  4198df:	(bad)  
  4198e0:	cmp    ebx,DWORD PTR [esi]
  4198e2:	mov    ah,bl
  4198e4:	mov    ah,0x87
  4198e6:	bound  esi,QWORD PTR [ecx+0x43a458d6]
  4198ec:	shl    ecx,cl
  4198ee:	pop    ebp
  4198ef:	xchg   esi,eax
  4198f0:	lods   eax,DWORD PTR ds:[esi]
  4198f1:	fmul   QWORD PTR [eax+0x25bae90f]
  4198f7:	jns    0x419880
  4198f9:	xor    BYTE PTR [ecx+esi*4+0x1c],dh
  4198fd:	xor    DWORD PTR [ebx],eax
  4198ff:	or     al,0x13
  419901:	fdivrp st(2),st
  419903:	jbe    0x41991c
  419905:	test   eax,0xad670e87
  41990a:	push   ebp
  41990b:	test   eax,0x2c7b0d1e
  419910:	pusha  
  419911:	shl    DWORD PTR [ecx-0x6],1
  419914:	imul   ecx,DWORD PTR [edi+0x589b8195],0x64b5f088
  41991e:	jb     0x41992c
  419920:	mov    al,0x57
  419922:	ret    0x36df
  419925:	mov    al,0xf4
  419927:	or     al,0x1e
  419929:	imul   esi,esp,0x4a21f20e
  41992f:	pop    ecx
  419930:	outs   dx,DWORD PTR ds:[esi]
  419931:	addr16 pop ecx
  419933:	cvtpi2ps xmm7,QWORD PTR [edi]
  419936:	rol    BYTE PTR [ebp+0x1e],0x29
  41993a:	cmps   BYTE PTR ds:[esi],BYTE PTR es:[edi]
  41993b:	scas   al,BYTE PTR es:[edi]
  41993c:	pop    ebp
  41993d:	lods   eax,DWORD PTR ds:[esi]
  41993e:	mov    bh,0xe0
  419940:	xor    ch,BYTE PTR [ebp+eiz*2+0x6a5bf76c]
  419947:	call   0x8b52:0x5ace3ae0
  41994e:	bound  esi,QWORD PTR [ebp+0x2a]
  419951:	add    eax,0xd77bab23
  419956:	mov    eax,0xc52a2bf3
  41995b:	and    DWORD PTR [edi],ebx
  41995d:	mov    ah,bl
  41995f:	xchg   edi,eax
  419960:	cmp    dh,BYTE PTR [ecx]
  419962:	arpl   WORD PTR [ecx],ax
  419964:	jmp    0x32ad:0xdf5f7dc3
  41996b:	das    
  41996c:	enter  0xcd9f,0x60
  419970:	icebp  
  419971:	jp     0x419941
  419973:	jmp    0x4199d5
  419975:	mov    ebx,0x31000ec6
  41997a:	and    eax,ebp
  41997c:	push   edi
  41997d:	mov    ecx,0xb5038259
  419982:	loope  0x4199a2
  419984:	pop    ds
  419985:	outs   dx,BYTE PTR ds:[esi]
  419986:	push   ds
  419987:	popf   
  419988:	in     eax,dx
  419989:	mov    WORD PTR [edi+0x29e5d50e],gs
  41998f:	movs   BYTE PTR es:[edi],BYTE PTR ds:[esi]
  419990:	scas   eax,DWORD PTR es:[edi]
  419991:	js     0x419946
  419993:	jno    0x4199ca
  419995:	jb     0x419950
  419997:	sub    ch,BYTE PTR [eax-0x2444e2d6]
  41999d:	mov    ebp,0x329bb692
  4199a2:	dec    edx
  4199a3:	cwde   
  4199a4:	inc    esp
  4199a5:	stos   BYTE PTR es:[edi],al
  4199a6:	inc    eax
  4199a7:	xchg   edi,eax
  4199a8:	jmp    0x4199ca
  4199aa:	imul   edx,DWORD PTR [esi+0x21],0x777012c8
  4199b1:	xchg   edx,eax
  4199b2:	retf   0x620e
  4199b5:	push   esp
  4199b6:	mov    dl,dl
  4199b8:	mov    bl,0x70
  4199ba:	add    eax,0x491bd30f
  4199bf:	jne    0x4199d1
  4199c1:	icebp  
  4199c2:	or     DWORD PTR [ecx-0x39],ebx
  4199c5:	ss inc ebp
  4199c7:	xor    BYTE PTR [eax],al
  4199c9:	loop   0x419a48
  4199cb:	push   eax
  4199cc:	icebp  
  4199cd:	sbb    DWORD PTR [esi],ecx
  4199cf:	(bad)  
  4199d0:	push   ss
  4199d1:	mov    cl,dl
  4199d3:	int    0x7f
  4199d5:	sub    DWORD PTR [ecx-0x15],edi
  4199d8:	sbb    eax,0xa9cbf605
  4199dd:	push   ebp
  4199de:	adc    ah,BYTE PTR [ebx+eax*8+0x54]
  4199e2:	or     edi,0x9357791e
  4199e8:	and    BYTE PTR [edi+0x52],0x9a
  4199ec:	jle    0x419a6b
  4199ee:	mov    cl,0x44
  4199f0:	mov    ecx,0xc9312db0
  4199f5:	pop    edi
  4199f6:	arpl   WORD PTR [ebx+0x1f],si
  4199f9:	cmc    
  4199fa:	xchg   esi,eax
  4199fb:	or     DWORD PTR [edx],esp
  4199fd:	add    al,0x69
  4199ff:	jle    0x4199b2
  419a01:	lods   al,BYTE PTR ds:[esi]
  419a02:	xchg   ecx,eax
  419a03:	adc    eax,0xaf5913f3
  419a08:	sahf   
  419a09:	xlat   BYTE PTR es:[ebx]
  419a0b:	xchg   edx,eax
  419a0c:	aad    0xb6
  419a0e:	jb     0x419a20
  419a10:	jne    0x419a55
  419a12:	sbb    BYTE PTR [edi],cl
  419a14:	pop    ebx
  419a15:	jecxz  0x419a46
  419a17:	shl    edi,cl
  419a19:	fisttp QWORD PTR es:[esi]
  419a1c:	mov    ah,0xf5
  419a1e:	adc    dh,dh
  419a20:	jecxz  0x4199fa
  419a22:	mov    ds:0x6d9e4425,eax
  419a27:	fdiv   st,st(5)
  419a29:	or     edx,DWORD PTR [ebx-0x22067f23]
  419a2f:	ret    
  419a30:	dec    ebx
  419a31:	scas   al,BYTE PTR es:[edi]
  419a32:	adc    DWORD PTR [eax],0x79
  419a35:	push   ecx
  419a36:	dec    eax
  419a37:	ror    BYTE PTR [ecx+0x43],0x17
  419a3b:	das    
  419a3c:	iret   
  419a3d:	and    esp,DWORD PTR [ebp+edi*4-0x3c]
  419a41:	pop    ebp
  419a42:	in     eax,0x41
  419a44:	out    0xbf,eax
  419a46:	cmps   DWORD PTR ds:[esi],DWORD PTR es:[edi]
  419a47:	(bad)  
  419a49:	mov    esp,es
  419a4b:	scas   eax,DWORD PTR es:[edi]
  419a4c:	sbb    esp,DWORD PTR [ecx-0x78]
  419a4f:	xchg   ecx,eax
  419a50:	jns    0x419a96
  419a52:	(bad)  
  419a53:	jge    0x419abb
  419a55:	lods   al,BYTE PTR ds:[esi]
  419a56:	cmp    eax,0x9bde8695
  419a5b:	mov    esp,ds
  419a5d:	jbe    0x4199f5
  419a5f:	sub    DWORD PTR [ebx+0x23996308],edx
  419a65:	dec    eax
  419a66:	xchg   BYTE PTR [ebp+0x33],dl
  419a69:	mov    WORD PTR [ebp+0xf],ds
  419a6c:	add    BYTE PTR [ecx+0x7a],0xf8
  419a70:	outs   dx,BYTE PTR ds:[esi]
  419a71:	cmc    
  419a72:	cmps   BYTE PTR ds:[esi],BYTE PTR es:[edi]
  419a73:	stos   BYTE PTR es:[edi],al
  419a74:	stc    
  419a75:	xchg   edx,eax
  419a76:	fs icebp 
  419a78:	loope  0x419ade
  419a7a:	shr    DWORD PTR [ecx],0x3
  419a7d:	arpl   WORD PTR [edi],bx
  419a7f:	fwait
  419a80:	cmps   DWORD PTR ds:[esi],DWORD PTR es:[edi]
  419a81:	jmp    0xd0e5:0x72c41090
  419a88:	shl    DWORD PTR [edi],0x2
  419a8b:	pop    ecx
  419a8c:	adc    BYTE PTR [ecx],bh
  419a8e:	sub    eax,0xf4910cd6
  419a93:	outs   dx,DWORD PTR ds:[esi]
  419a94:	jmp    0x419adb
  419a96:	cli    
  419a97:	or     al,0xc1
  419a99:	in     al,dx
  419a9a:	arpl   di,bp
  419a9c:	push   ds
  419a9d:	mov    eax,ds:0x98918b8c
  419aa2:	push   edi
  419aa3:	mov    ds:0x9255ab19,al
  419aa8:	fs clc 
  419aaa:	addr16 mov bh,0x14
  419aad:	add    DWORD PTR [ecx+0x62263e84],ebx
  419ab3:	icebp  
  419ab4:	scas   eax,DWORD PTR es:[edi]
  419ab5:	jmp    0xe21:0x9253bd03
  419abc:	or     al,0x4d
  419abe:	inc    eax
  419abf:	pop    ebp
  419ac0:	sahf   
  419ac1:	popf   
  419ac2:	div    DWORD PTR [edx+0x32]
  419ac5:	adc    al,0x88
  419ac7:	jmp    0x419a82
  419ac9:	add    al,0xf
  419acb:	or     al,0xfe
  419acd:	dec    esp
  419ace:	cdq    
  419acf:	cmp    DWORD PTR [edi],ebp
  419ad1:	stos   DWORD PTR es:[edi],eax
  419ad2:	test   DWORD PTR [ecx-0x4f],edx
  419ad5:	or     eax,0x52eae2bf
  419ada:	push   ecx
  419adb:	mov    bl,0x1c
  419add:	imul   ebx,DWORD PTR [ebp+0x6a520d6b],0x44c0e35a
  419ae7:	(bad)  
  419ae8:	cs mov dl,dl
  419aeb:	add    esp,esp
  419aed:	stos   BYTE PTR es:[edi],al
  419aee:	or     DWORD PTR [ebp+0x7a44424a],edi
  419af4:	sbb    edx,ebp
  419af6:	push   0xc66d66ef
  419afb:	sar    BYTE PTR [edi-0x506a8203],cl
  419b01:	pusha  
  419b02:	nop
  419b03:	or     eax,0xb8c2bd28
  419b08:	push   ds
  419b09:	inc    ecx
  419b0a:	imul   DWORD PTR [ecx-0xbf881b]
  419b10:	sub    BYTE PTR [ebp+eax*8-0x1818d851],ch
  419b17:	jle    0x419b0c
  419b19:	clc    
  419b1a:	jmp    0x2c21:0x61a410fa
  419b21:	add    eax,eax
  419b23:	pop    esp
  419b24:	pushf  
  419b25:	jmp    0x419ad3
  419b27:	pop    es
  419b28:	ficom  WORD PTR [esi]
  419b2a:	fnstcw WORD PTR [edi+0x2]
  419b2d:	mov    eax,ds:0x184ab83d
  419b32:	jmp    0xb070:0x9a2ab404
  419b39:	test   eax,0xb03dbcb1
  419b3e:	xor    eax,DWORD PTR [eax]
  419b40:	cmc    
  419b41:	jne    0x419b42
  419b43:	add    al,0x6a
  419b45:	and    DWORD PTR [esi],esp
  419b47:	adc    DWORD PTR [edi-0x4a],eax
  419b4a:	mov    dh,0xfb
  419b4c:	adc    ecx,esi
  419b4e:	popa   
  419b4f:	xor    ch,BYTE PTR [edi]
  419b51:	mov    ds,edx
  419b53:	xlat   BYTE PTR ds:[ebx]
  419b54:	lahf   
  419b55:	or     al,0xa5
  419b57:	arpl   WORD PTR [eax+0x2a],sp
  419b5a:	mov    ebp,0x622c0292
  419b5f:	sbb    eax,0x613946a0
  419b64:	cmps   DWORD PTR ds:[esi],DWORD PTR es:[edi]
  419b65:	jmp    0x73a4:0x991d52a9
  419b6c:	inc    eax
  419b6d:	lea    esi,[edi+0x65aa1388]
  419b73:	mov    al,0x55
  419b75:	sub    eax,0x25f78ace
  419b7a:	xor    BYTE PTR [ebx],bl
  419b7c:	(bad)  
  419b7d:	push   ds
  419b7e:	gs sar esp,0xd8
  419b82:	xchg   ebp,eax
  419b83:	mov    bh,0x27
  419b85:	mov    bh,BYTE PTR [edi+edi*8-0x44]
  419b89:	stos   BYTE PTR es:[edi],al
  419b8a:	test   DWORD PTR [eax],0xe459425a
  419b90:	mov    al,ds:0x5565635b
  419b95:	sbb    eax,0x7e6bc872
  419b9a:	ja     0x419bc0
  419b9c:	jbe    0x419c02
  419b9e:	fs pop ss
  419ba0:	fdivr  QWORD PTR [ecx]
  419ba2:	retf   0xb3b0
  419ba5:	stos   DWORD PTR es:[edi],eax
  419ba6:	jnp    0x419b9c
  419ba8:	adc    esi,DWORD PTR [edx-0x5480b5c8]
  419bae:	sub    eax,0x81083cd7
  419bb3:	mov    ebp,0xeae08c
  419bb8:	jecxz  0x419b65
  419bba:	xor    eax,0xc2cd25cc
  419bbf:	dec    ebp
  419bc0:	cmp    al,0xd2
  419bc2:	arpl   sp,si
  419bc4:	xor    eax,DWORD PTR [ebp+0x7a]
  419bc7:	(bad)
  419bcc:	retf   
  419bcd:	dec    esi
  419bce:	xlat   BYTE PTR ds:[ebx]
  419bcf:	inc    DWORD PTR [edx]
  419bd1:	add    esp,DWORD PTR [ecx+esi*8+0x5e]
  419bd5:	rol    ecx,0x4c
  419bd8:	aaa    
  419bd9:	cmp    BYTE PTR [ecx+ebx*8],0x82
  419bdd:	jmp    0x2c21a99a
  419be2:	shl    DWORD PTR [ecx],cl
  419be4:	scas   eax,DWORD PTR es:[edi]
  419be5:	aad    0x3f
  419be7:	ds and BYTE PTR es:[ebp+eiz*2-0x18],ah
  419bed:	adc    dl,bl
  419bef:	inc    edi
  419bf0:	(bad)  
  419bf1:	xchg   ebp,eax
  419bf2:	jno    0x419c02
  419bf4:	cmp    eax,DWORD PTR [ecx+0x351d71b7]
  419bfa:	inc    edi
  419bfb:	ins    BYTE PTR es:[edi],dx
  419bfc:	jg     0x419c28
  419bfe:	test   al,dh
  419c00:	popa   
  419c01:	stos   BYTE PTR es:[edi],al
  419c02:	add    eax,0x99137cb5
  419c07:	mov    BYTE PTR ds:0x1370,0x38
  419c0d:	mov    esp,0x84abe191
  419c12:	dec    edx
  419c13:	push   cs
  419c14:	arpl   WORD PTR [edi],sp
  419c16:	pop    eax
  419c17:	jo     0x419ba0
  419c19:	in     eax,dx
  419c1a:	pusha  
  419c1b:	setns  dl
  419c1e:	xor    eax,0x1dc8c119
  419c23:	adc    BYTE PTR ds:0x7d3ed51,bl
  419c29:	push   esi
  419c2a:	fcomp  DWORD PTR [ebx+0x100a1fb7]
  419c30:	sub    ah,BYTE PTR [ecx+ecx*8-0x4]
  419c34:	sub    esi,DWORD PTR cs:[edi+0x63d1a471]
  419c3b:	lods   eax,DWORD PTR ds:[esi]
  419c3c:	pushf  
  419c3d:	adc    eax,0x16cf0d72
  419c42:	sub    ecx,DWORD PTR [edi]
  419c44:	cmp    ah,BYTE PTR [edx+0xa]
  419c47:	xor    eax,0xa2f3411c
  419c4c:	and    al,0x77
  419c4e:	add    ah,dh
  419c50:	xchg   DWORD PTR [ebp-0x66a97667],ebx
  419c56:	movs   DWORD PTR es:[edi],DWORD PTR ds:[esi]
  419c57:	mov    esp,0xe293c99c
  419c5c:	push   ds
  419c5d:	test   DWORD PTR [ecx+0x3c3e8be],ecx
  419c63:	mov    ebx,0xc8b5abd9
  419c68:	xchg   edi,eax
  419c69:	cmp    eax,0xebffaf3f
  419c6e:	in     al,dx
  419c6f:	daa    
  419c70:	xor    eax,0x5acd650d
  419c75:	pop    es
  419c76:	jecxz  0x419cbf
  419c78:	jmp    0x419c81
  419c7a:	loope  0x419c89
  419c7c:	add    DWORD PTR ds:0xdb56e69a,esp
  419c82:	movs   DWORD PTR es:[edi],DWORD PTR ds:[esi]
  419c83:	sbb    bl,BYTE PTR ds:0x15a192d5
  419c89:	retf   
  419c8a:	addr16 jns 0x419c1d
  419c8d:	stos   DWORD PTR es:[edi],eax
  419c8e:	adc    edx,ebp
  419c90:	ins    DWORD PTR es:[edi],dx
  419c91:	mov    eax,ds:0xdd98cd16
  419c96:	jo     0x419ce1
  419c98:	sbb    eax,0x4e068405
  419c9d:	ins    BYTE PTR es:[edi],dx
  419c9e:	or     bl,BYTE PTR [edx-0x52]
  419ca1:	mov    ds:0x125cb109,eax
  419ca6:	sbb    BYTE PTR [ebx+0x25ad9d9c],0x9
  419cad:	icebp  
  419cae:	pop    esi
  419caf:	mov    cl,0x6d
  419cb1:	jb     0x419d1d
  419cb3:	div    DWORD PTR [ebp-0x729eea57]
  419cb9:	test   BYTE PTR [ebx-0xaa34f20],dl
  419cbf:	bnd ja 0x419d1f
  419cc2:	pop    ss
  419cc3:	adc    ecx,DWORD PTR [edx]
  419cc5:	lods   eax,DWORD PTR ds:[esi]
  419cc6:	out    0x60,al
  419cc8:	test   DWORD PTR [eax],edi
  419cca:	outs   dx,BYTE PTR ds:[esi]
  419ccb:	ins    DWORD PTR es:[edi],dx
  419ccc:	sbb    eax,0x5683fd05
  419cd1:	dec    eax
  419cd2:	jmp    0xf9eb9c3d
  419cd7:	push   ss
  419cd8:	mov    al,ds:0xb7170265
  419cde:	(bad)  
  419cdf:	retf   
  419ce0:	fbstp  TBYTE PTR [edi]
  419ce2:	lahf   
  419ce3:	xchg   DWORD PTR [edi-0xe098730],ebp
  419ce9:	cmp    BYTE PTR [esi-0x75],dh
  419cec:	pop    ss
  419ced:	call   0xabd0ac73
  419cf2:	and    eax,0x5c5ff01b
  419cf7:	inc    esi
  419cf8:	mov    esi,esp
  419cfa:	add    al,0x70
  419cfc:	stos   DWORD PTR es:[edi],eax
  419cfd:	push   eax
  419cfe:	gs ins DWORD PTR es:[edi],dx
  419d00:	ret    0x69fb
  419d03:	push   ss
  419d04:	pop    ecx
  419d06:	pop    eax
  419d07:	paddq  mm2,QWORD PTR [esi-0x78]
  419d0b:	(bad)  
  419d0c:	push   ds
  419d0d:	jge    0x419cae
  419d0f:	movs   DWORD PTR es:[edi],DWORD PTR ds:[esi]
  419d10:	loop   0x419cc1
  419d12:	xor    eax,0x9da22a05
  419d17:	fisttp DWORD PTR [ecx+0x2c]
  419d1a:	add    al,0x0
  419d1c:	jge    0x419d09
  419d1e:	pop    ebp
  419d1f:	mov    al,ds:0x97a9e51e
  419d24:	loope  0x419d7a
  419d26:	lock mov ch,0xce
  419d29:	xor    BYTE PTR [ecx-0x66],bh
  419d2c:	pop    edi
  419d2d:	nop
  419d2e:	xchg   edi,edi
  419d30:	dec    eax
  419d31:	sub    DWORD PTR [edi-0x69],edx
  419d34:	cmp    al,0x52
  419d36:	mov    eax,ds:0x2a0c8f27
  419d3b:	jge    0x419cf4
  419d3d:	test   eax,0x1fc86bb7
  419d42:	pop    eax
  419d43:	jmp    0x419cd8
  419d45:	adc    ah,bh
  419d47:	and    eax,0xbd57e068
  419d4c:	jl     0x419d07
  419d4e:	test   al,0xf4
  419d50:	sbb    eax,0x93b68c5
  419d55:	push   edx
  419d56:	pusha  
  419d57:	push   esi
  419d58:	retf   0xe161
  419d5b:	loope  0x419d3f
  419d5d:	je     0x419d6c
  419d5f:	addr16 call 0x92a9:0xd8efd10e
  419d67:	loope  0x419d88
  419d69:	rol    DWORD PTR [ecx+0x5f],0xd6
  419d6d:	rcr    cl,cl
  419d6f:	xchg   edi,eax
  419d70:	rcr    BYTE PTR [esi-0x1eefd36f],0xa8
  419d77:	inc    ecx
  419d78:	lahf   
  419d79:	cmp    ebx,eax
  419d7b:	and    bl,BYTE PTR [esi]
  419d7d:	inc    ebp
  419d7e:	lods   eax,DWORD PTR ds:[esi]
  419d7f:	jp     0x419d19
  419d81:	(bad)  [edi+ebx*8+0x57]
  419d85:	fistp  DWORD PTR [edi-0x572f6c40]
  419d8b:	icebp  
  419d8c:	ins    BYTE PTR es:[edi],dx
  419d8d:	imul   ebp,DWORD PTR [esi+0x7f],0xaeea95d8
  419d94:	push   ds
  419d95:	adc    eax,0x2f6c0db3
  419d9a:	adc    ch,BYTE PTR ds:0x2875ab22
  419da0:	shl    BYTE PTR [edi+0x4bfab3c8],cl
  419da6:	mov    bh,0x0
  419da8:	into   
  419da9:	nop
  419daa:	pop    ecx
  419dab:	stc    
  419dac:	xchg   DWORD PTR [edx+edx*1+0x4d8d49b3],ebp
  419db3:	inc    edx
  419db4:	movs   DWORD PTR es:[edi],DWORD PTR ds:[esi]
  419db5:	test   al,0xa0
  419db7:	push   ecx
  419db8:	dec    esp
  419db9:	test   ebp,ebp
  419dbb:	into   
  419dbc:	pop    ds
  419dbd:	sub    eax,0xe2180056
  419dc2:	sub    ah,bh
  419dc4:	jp     0x419de2
  419dc6:	call   0xac03:0xc6950be7
  419dcd:	fistp  QWORD PTR [ebx+ebp*1]
  419dd0:	mov    ecx,0x5e65c2f8
  419dd5:	mov    edx,0xe7119d64
  419dda:	add    BYTE PTR [ebx-0x71],0xed
  419dde:	mov    dh,0x10
  419de0:	inc    ecx
  419de1:	clc    
  419de2:	jae    0x419d66
  419de4:	pop    ds
  419de5:	adc    dl,BYTE PTR gs:[edi+edi*1]
  419de9:	out    0xfb,al
  419deb:	lds    eax,FWORD PTR [edx-0x6be13263]
  419df1:	frstor [ebx+0x22]
  419df4:	mov    ds:0x5531465a,eax
  419df9:	pop    ss
  419dfa:	cwde   
  419dfb:	push   cs
  419dfc:	pop    ds
  419dfd:	or     DWORD PTR [ecx],eax
  419dff:	fild   QWORD PTR [ecx]
  419e01:	mov    dh,0xbf
  419e03:	or     DWORD PTR [edx],esi
  419e05:	stos   DWORD PTR es:[edi],eax
  419e06:	or     eax,0xb23ba1c5
  419e0b:	jg     0x419dd0
  419e0d:	inc    esi
  419e0e:	push   eax
  419e0f:	xchg   edx,eax
  419e10:	adc    edx,DWORD PTR [ecx+0x3be50875]
  419e16:	bndstx [ecx+0x480dec7a],bnd3
  419e1d:	test   eax,0x98c22215
  419e22:	jg     0x419e64
  419e24:	shl    DWORD PTR [edi+0x10561759],cl
  419e2a:	fs gs xchg edx,eax
  419e2d:	jmp    0x419e56
  419e2f:	add    DWORD PTR [edi+0x31],ebx
  419e32:	push   cs
  419e33:	adc    bh,bh
  419e35:	cmp    al,0x59
  419e37:	push   0x1e
  419e39:	leave  
  419e3a:	push   DWORD PTR [esi+0x385b3c83]
  419e40:	pop    ebx
  419e41:	lods   al,BYTE PTR ds:[esi]
  419e42:	dec    ebp
  419e43:	out    0x31,al
  419e45:	add    BYTE PTR [ecx],0xbc
  419e48:	sbb    ecx,edx
  419e4a:	inc    edi
  419e4b:	xlat   BYTE PTR ds:[ebx]
  419e4c:	call   0x622b0322
  419e51:	xchg   ebp,eax
  419e52:	(bad)  
  419e53:	cmps   BYTE PTR ds:[esi],BYTE PTR es:[edi]
  419e54:	mov    ch,0xa9
  419e56:	jns    0x419e06
  419e58:	fiadd  DWORD PTR [ecx+ebx*8-0x5df35f4d]
  419e5f:	lods   eax,DWORD PTR ds:[esi]
  419e60:	(bad)  
  419e61:	sub    eax,0xe7ac2d63
  419e66:	jb     0x419def
  419e68:	jmp    0x419eac
  419e6a:	xchg   ebx,eax
  419e6b:	push   ebp
  419e6c:	push   ebx
  419e6d:	sub    eax,0xd234ff88
  419e72:	lea    bx,[edx]
  419e75:	imul   ebp,DWORD PTR ds:0x4f95f615,0xffffff91
  419e7c:	fwait
  419e7d:	scas   al,BYTE PTR es:[edi]
  419e7e:	imul   ebp,DWORD PTR [esi+0x10e600c7],0x66
  419e85:	mul    DWORD PTR [ebp+0x2e]
  419e88:	push   ds
  419e89:	loope  0x419e8a
  419e8b:	jmp    0xf0933a5c
  419e90:	shr    BYTE PTR [ebx+0x56d68af5],cl
  419e96:	ja     0x419ec1
  419e98:	mov    ebx,0x93092ff8
  419e9d:	fwait
  419e9e:	arpl   bp,cx
  419ea0:	xchg   DWORD PTR [esi+0x3dfe002],esp
  419ea6:	inc    eax
  419ea7:	or     ecx,DWORD PTR [edx-0xb1965c4]
  419ead:	ret    0xa0bf
  419eb0:	and    ecx,ebx
  419eb2:	arpl   WORD PTR [ebp+0x52],cx
  419eb5:	sub    ah,bh
  419eb7:	mov    ebx,0xb448639f
  419ebc:	mov    bl,0xc7
  419ebe:	mov    ch,0x8
  419ec0:	fwait
  419ec1:	mov    bh,0x51
  419ec3:	rol    BYTE PTR [edi+eiz*8],cl
  419ec6:	fcom   DWORD PTR [eax]
  419ec8:	pop    ds
  419ec9:	or     DWORD PTR [ebp+0x1a7cdf9b],ecx
  419ecf:	xlat   BYTE PTR ds:[ebx]
  419ed0:	cmps   DWORD PTR ds:[esi],DWORD PTR es:[edi]
  419ed1:	stos   DWORD PTR es:[edi],eax
  419ed2:	in     eax,dx
  419ed3:	int3   
  419ed4:	mov    ebx,0x59ee5498
  419ed9:	iret   
  419eda:	adc    bh,ch
  419edc:	push   0x524881ac
  419ee1:	jle    0x419ed6
  419ee3:	adc    ah,BYTE PTR [edx-0x56]
  419ee6:	std    
  419ee7:	ins    DWORD PTR es:[edi],dx
  419ee8:	arpl   WORD PTR [edi],si
  419eea:	cmp    al,0xa5
  419eec:	jp     0x419eab
  419eee:	inc    edx
  419eef:	push   cs
  419ef0:	push   0x7b
  419ef2:	fs xchg ebp,eax
  419ef4:	mov    ebx,0x5bf63b62
  419ef9:	pop    ecx
  419efa:	or     BYTE PTR [ebx],0x89
  419efd:	inc    esp
  419efe:	mov    esi,0x83c6e6b
  419f03:	nop
  419f04:	arpl   WORD PTR [eiz*2+0x2b973a59],bp
  419f0b:	push   edx
  419f0c:	adc    edi,edx
  419f0e:	or     eax,0x5f13d12c
  419f13:	shr    DWORD PTR [eax+0x28],cl
  419f16:	ss jle 0x419f24
  419f19:	or     dl,ah
  419f1b:	(bad)  
  419f1c:	in     al,dx
  419f1d:	mov    ds:0xa44a255d,al
  419f22:	xchg   ebx,eax
  419f23:	test   eax,0x29b1ea30
  419f28:	pop    ds
  419f29:	loop   0x419f25
  419f2b:	or     eax,0xc4076df7
  419f30:	pop    ds
  419f31:	xor    DWORD PTR [ebx-0x27],ebx
  419f34:	or     edi,DWORD PTR [edx-0x53568757]
  419f3a:	mov    ch,0x1b
  419f3c:	xlat   BYTE PTR ds:[ebx]
  419f3d:	xchg   esi,eax
  419f3e:	pop    ds
  419f3f:	xchg   ecx,eax
  419f40:	stc    
  419f41:	xchg   edx,eax
  419f42:	(bad)  
  419f43:	js     0x419fa6
  419f45:	mov    DWORD PTR [edx-0x2f],esp
  419f48:	jbe    0x419f31
  419f4a:	clc    
  419f4b:	jno    0x419ef3
  419f4d:	lods   al,BYTE PTR ds:[esi]
  419f4e:	popa   
  419f4f:	xor    ebp,DWORD PTR [edx]
  419f51:	and    al,0x1
  419f53:	xor    eax,0x3fd9fb63
  419f58:	xor    BYTE PTR [eax-0x2d5136d5],dl
  419f5e:	push   es
  419f5f:	(bad)
  419f63:	in     eax,dx
  419f64:	or     eax,0xda3d31e3
  419f69:	test   eax,0xde367d87
  419f6e:	(bad)  
  419f6f:	pop    edi
  419f70:	jne    0x419feb
  419f72:	arpl   cx,bx
  419f74:	mov    eax,ds:0xdf5b4542
  419f79:	add    al,0xe1
  419f7b:	or     eax,DWORD PTR [esi*8+0x1008fe40]
  419f82:	sbb    al,0x50
  419f84:	sbb    cl,BYTE PTR ds:0x624198a
  419f8a:	jbe    0x419f22
  419f8c:	sahf   
  419f8d:	cmp    esi,DWORD PTR [edx+0x45f5db76]
  419f93:	(bad)  
  419f96:	and    eax,edi
  419f98:	adc    DWORD PTR [ecx],eax
  419f9a:	mov    ch,0x53
  419f9c:	call   0xd91862e7
  419fa1:	inc    eax
  419fa2:	inc    esi
  419fa3:	xchg   ecx,eax
  419fa4:	cmp    eax,DWORD PTR [ebx]
  419fa6:	sub    DWORD PTR [ecx],edx
  419fa8:	xor    DWORD PTR [ebx],esp
  419faa:	popa   
  419fab:	inc    edx
  419fac:	aas    
  419fad:	retf   
  419fae:	or     al,0x61
  419fb0:	mov    ebp,0x7fa394ce
  419fb5:	cmp    eax,0x8045d164
  419fba:	dec    edi
  419fbb:	add    eax,0x1097b63b
  419fc0:	jae    0x419f88
  419fc2:	inc    esp
  419fc3:	stc    
  419fc4:	push   ds
  419fc5:	aad    0xbb
  419fc7:	mov    ch,0x11
  419fc9:	repnz add edx,DWORD PTR [edx-0x13ea54a9]
  419fd0:	jne    0x419f9c
  419fd2:	out    dx,eax
  419fd3:	repz scas al,BYTE PTR es:[edi]
  419fd5:	add    bh,dh
  419fd7:	fcomp  DWORD PTR [edi]
  419fd9:	jno    0x41a04e
  419fdb:	retf   
  419fdc:	test   BYTE PTR [ebx-0x13814116],al
  419fe2:	pusha  
  419fe3:	retf   
  419fe4:	in     eax,0x38
  419fe6:	mov    esp,0x8511d89
  419feb:	dec    esi
  419fec:	or     al,0xb7
  419fee:	outs   dx,BYTE PTR ds:[esi]
  419fef:	cmp    al,0xd6
  419ff1:	stos   BYTE PTR es:[edi],al
  419ff2:	and    eax,0x62f1990a
  419ff7:	jb     0x419f7c
  419ff9:	in     eax,0xad
  419ffb:	fsubp  st(6),st
  419ffd:	ret    
  419ffe:	xor    edi,DWORD PTR [eax]
  41a000:	dec    edi
  41a001:	jno    0x41a068
  41a003:	test   DWORD PTR [ebp-0x2b],edx
  41a006:	imul   ebp,DWORD PTR [ecx],0xdcfa3df
  41a00c:	fstp   st(5)
  41a00e:	aas    
  41a00f:	sbb    edx,DWORD PTR ss:[ebp+0x58]
  41a013:	stc    
  41a014:	push   0x28
  41a016:	repz or BYTE PTR [ebp+ecx*1+0x59ab58d6],bl
  41a01e:	pop    ecx
  41a01f:	paddq  mm5,mm7
  41a022:	pop    esp
  41a023:	mov    ch,0x30
  41a025:	and    BYTE PTR [eax+edi*4],bh
  41a028:	xchg   DWORD PTR [esi+0x79],edi
  41a02b:	push   cs
  41a02c:	cmps   BYTE PTR ds:[esi],BYTE PTR es:[edi]
  41a02d:	xlat   BYTE PTR ds:[ebx]
  41a02e:	pop    eax
  41a02f:	xor    ch,BYTE PTR [edi-0x4c]
  41a032:	mov    ecx,0x7244340e
  41a037:	add    eax,0x2e26ad1c
  41a03c:	push   0xa66b09e6
  41a041:	mov    ch,0x58
  41a043:	ds sbb edi,ebx
  41a046:	mov    bh,0x81
  41a048:	ins    DWORD PTR es:[edi],dx
  41a049:	mov    edx,0x523cc795
  41a04e:	les    esp,FWORD PTR [eax+0x34]
  41a051:	das    
  41a052:	gs test eax,0x336db1cd
  41a058:	fwait
  41a059:	mov    ecx,0xc54201d8
  41a05e:	bound  edi,QWORD PTR [esi-0x24bd72d2]
  41a064:	pop    ds
  41a065:	shl    BYTE PTR [ebx-0x63],0x75
  41a069:	mov    BYTE PTR [edi-0x51596027],bh
  41a06f:	sahf   
  41a070:	inc    esi
  41a071:	imul   ecx,DWORD PTR [esi-0x27],0xa1e3db01
  41a078:	in     eax,0xa0
  41a07a:	(bad)  
  41a07b:	std    
  41a07c:	aaa    
  41a07d:	sub    al,0xc
  41a07f:	loope  0x41a0ed
  41a081:	std    
  41a082:	es clc 
  41a084:	pop    ebx
  41a085:	scas   eax,DWORD PTR es:[edi]
  41a086:	inc    esp
  41a087:	punpcklbw mm0,DWORD PTR [eax+0x997ceaa]
  41a08e:	mov    ch,0xeb
  41a090:	jl     0x41a0d9
  41a092:	pop    edi
  41a093:	cmp    edx,ecx
  41a095:	shr    BYTE PTR [edi+0x27],cl
  41a098:	(bad)
  41a09b:	fsubr  DWORD PTR [edi-0x2af1ceaa]
  41a0a1:	aad    0xcb
  41a0a3:	test   al,0x0
  41a0a5:	rcl    DWORD PTR [ebx-0x59957791],1
  41a0ab:	scas   eax,DWORD PTR es:[edi]
  41a0ac:	dec    eax
  41a0ad:	sub    ah,BYTE PTR [edx+eax*4]
  41a0b0:	repz mov bl,0x6c
  41a0b3:	xchg   ebp,eax
  41a0b4:	inc    ebp
  41a0b5:	bound  edi,QWORD PTR [edi-0x14430afe]
  41a0bb:	cwde   
  41a0bc:	xchg   edi,eax
  41a0bd:	out    dx,al
  41a0be:	pop    esi
  41a0bf:	mov    bh,0x2e
  41a0c1:	and    BYTE PTR [ebp+0x5d],ah
  41a0c4:	adc    ch,BYTE PTR [ebp+0xb9f83ad]
  41a0ca:	and    DWORD PTR [ecx+0x4d5f587a],0x316246f4
  41a0d4:	add    ch,BYTE PTR [esi]
  41a0d6:	into   
  41a0d7:	arpl   WORD PTR ds:[ebx],bx
  41a0da:	sbb    eax,0x2f658d0e
  41a0df:	cmc    
  41a0e0:	lds    ebx,FWORD PTR [eax]
  41a0e2:	or     BYTE PTR [edi-0x63ac8af0],bl
  41a0e8:	fisttp DWORD PTR [ebx]
  41a0ea:	ret    
  41a0eb:	cmps   BYTE PTR ds:[esi],BYTE PTR es:[edi]
  41a0ec:	xor    cl,BYTE PTR [ebp-0x3097bb1b]
  41a0f2:	aaa    
  41a0f3:	shl    BYTE PTR [edi+0x1ccde233],1
  41a0f9:	sub    eax,0x93c65ce7
  41a0fe:	push   cs
  41a0ff:	jge    0x41a0a8
  41a101:	lods   al,BYTE PTR ds:[esi]
  41a102:	adc    eax,0x3f997fd5
  41a107:	pusha  
  41a108:	int    0x8d
  41a10a:	mov    BYTE PTR [ebx],ah
  41a10c:	dec    edi
  41a10d:	int    0x62
  41a10f:	mov    DWORD PTR [ecx*8+0x46d3a3bb],ecx
  41a116:	test   DWORD PTR [eax],edx
  41a118:	mov    dh,0xa0
  41a11a:	mov    esp,0x27e51ba6
  41a11f:	(bad)  
  41a120:	jecxz  0x41a118
  41a122:	idiv   BYTE PTR [eax-0x2]
  41a125:	mov    ebp,0xbd075ef2
  41a12a:	icebp  
  41a12b:	adc    BYTE PTR [ebp+eiz*4-0x3d],al
  41a12f:	mov    ah,BYTE PTR [eax+0x1d9cc778]
  41a135:	cmp    DWORD PTR [eax],edi
  41a137:	add    eax,0x8b38e1e2
  41a13c:	cmp    al,al
  41a13e:	cld    
  41a13f:	xor    DWORD PTR ds:0x77a9a99d,ebx
  41a145:	(bad)  
  41a147:	and    ch,BYTE PTR [esi+0x1dc8a5c8]
  41a14d:	push   edi
  41a14e:	int    0xc5
  41a150:	movs   DWORD PTR es:[edi],DWORD PTR ds:[esi]
  41a151:	std    
  41a152:	in     al,dx
  41a153:	pop    esp
  41a154:	xchg   ebx,eax
  41a156:	dec    edi
  41a157:	adc    esp,esp
  41a159:	addr16 xchg esi,eax
  41a15b:	cmp    DWORD PTR [eax],ebx
  41a15d:	stc    
  41a15e:	cmp    BYTE PTR [esi+esi*2],ch
  41a161:	sub    eax,0x51bdda5b
  41a166:	out    dx,eax
  41a167:	xchg   esi,eax
  41a168:	sti    
  41a169:	mov    bh,0x8e
  41a16b:	or     bl,BYTE PTR [ebp-0x23502209]
  41a171:	add    eax,0xadec7f3e
  41a176:	fs xor eax,0x53201083
  41a17c:	push   0xffffffac
  41a17e:	popa   
  41a17f:	dec    ebx
  41a180:	push   esp
  41a181:	mov    ecx,0xf92c92f8
  41a186:	nop
  41a187:	out    dx,al
  41a188:	cli    
  41a189:	rcr    DWORD PTR [edi-0x3b],cl
  41a18c:	adc    BYTE PTR [edx+0x4bb065ea],0x63
  41a193:	(bad)  
  41a194:	xlat   BYTE PTR ds:[ebx]
  41a195:	pop    esp
  41a196:	adc    BYTE PTR [ebx+0xe7d9ad4],dl
  41a19c:	hlt    
  41a19d:	adc    DWORD PTR [edi+0x71d91f43],0x59e1d16f
  41a1a7:	pop    ebx
  41a1a8:	jmp    0x61d68b57
  41a1ad:	jno    0x41a21b
  41a1af:	retf   
  41a1b0:	add    eax,0x2bc541be
  41a1b5:	add    BYTE PTR [ecx+edx*2+0x29],ah
  41a1b9:	dec    ebp
  41a1ba:	(bad)  
  41a1bb:	dec    esi
  41a1bc:	cmp    esp,esp
  41a1be:	rcl    BYTE PTR [ebx+0xdbb6647],1
  41a1c4:	push   edi
  41a1c5:	scas   eax,DWORD PTR es:[edi]
  41a1c6:	jl     0x41a192
  41a1c8:	push   es
  41a1c9:	pusha  
  41a1ca:	pop    esi
  41a1cb:	fnsave [edi+eiz*2-0x7afa2482]
  41a1d2:	jne    0x41a1bd
  41a1d4:	sub    al,0x7f
  41a1d6:	jg     0x41a238
  41a1d8:	stos   DWORD PTR es:[edi],eax
  41a1d9:	popa   
  41a1da:	xchg   BYTE PTR ds:0x60c790be,cl
  41a1e0:	mov    ah,0x33
  41a1e2:	gs gs ficomp WORD PTR ss:[eax]
  41a1e7:	enter  0x6a03,0xa2
  41a1eb:	or     eax,0xfd3394fd
  41a1f0:	pop    ds
  41a1f1:	jne    0x41a194
  41a1f3:	outs   dx,DWORD PTR ds:[esi]
  41a1f4:	add    dl,BYTE PTR [ecx]
  41a1f6:	(bad)  
  41a1f7:	mov    ah,0x11
  41a1f9:	stos   BYTE PTR es:[edi],al
  41a1fa:	mov    DWORD PTR [eax-0x1cca0011],ecx
  41a200:	cmp    al,0xad
  41a202:	xchg   DWORD PTR [edx-0x2f],ecx
  41a205:	stos   BYTE PTR es:[edi],al
  41a206:	jns    0x41a234
  41a208:	mov    ds:0xf0979ff9,eax
  41a20d:	adc    ecx,edi
  41a20f:	imul   BYTE PTR [si-0x51f]
  41a214:	xchg   ebp,eax
  41a215:	mov    al,0xf0
  41a217:	mov    eax,0xedf8f11f
  41a21c:	xlat   BYTE PTR ds:[ebx]
  41a21d:	sub    DWORD PTR [edi],edi
  41a21f:	or     cl,BYTE PTR [edx+esi*1-0x7b]
  41a223:	fs xchg edi,eax
  41a225:	test   eax,0xd068aaa
  41a22a:	fbld   TBYTE PTR [edi]
  41a22c:	sbb    eax,0x46cf2d8d
  41a231:	mov    edi,0x1405308
  41a236:	adc    dl,BYTE PTR [edx]
  41a238:	add    edx,DWORD PTR [ebx]
  41a23a:	jecxz  0x41a289
  41a23c:	pushf  
  41a23d:	scas   eax,DWORD PTR es:[edi]
  41a23e:	adc    esp,DWORD PTR [eax+edx*4]
  41a241:	add    BYTE PTR [ebp-0x2b],ah
  41a244:	fs mov bh,0x9e
  41a247:	aad    0xbf
  41a249:	add    cl,al
  41a24b:	movq   mm0,QWORD PTR [eax+0x7b524cac]
  41a252:	cmovo  ebx,DWORD PTR [ebx+esi*1]
  41a256:	(bad)
  41a25a:	leave  
  41a25b:	jmp    0x8cbc:0x113ad527
  41a262:	fidivr DWORD PTR [ebx+0x1]
  41a265:	popf   
  41a266:	mov    eax,0x58ea6b0a
  41a26b:	or     BYTE PTR [edi-0x7b],bl
  41a26e:	in     eax,0x3e
  41a270:	adc    esi,DWORD PTR [esi+0x78]
  41a273:	repz mov eax,ds:0x15f7e2c
  41a279:	sub    esp,edi
  41a27b:	mov    ch,0xd6
  41a27d:	inc    ecx
  41a27e:	sub    eax,0xa102ce71
  41a283:	(bad)  
  41a284:	psubsb mm0,QWORD PTR [ebx]
  41a287:	cmp    al,BYTE PTR [edi]
  41a289:	add    al,0x57
  41a28b:	push   cs
  41a28c:	inc    edx
  41a28d:	das    
  41a28e:	jge    0x41a2d6
  41a290:	sbb    al,0x39
  41a292:	cs push esi
  41a294:	loopne 0x41a23d
  41a296:	mul    DWORD PTR ds:0x3bedab3c
  41a29c:	mov    eax,0x9c4ce3e6
  41a2a1:	mov    fs,WORD PTR [esi+ebx*4+0x39fc51f]
  41a2a8:	dec    cx
  41a2aa:	fld    TBYTE PTR [ebp+eiz*1-0x54]
  41a2ae:	inc    ecx
  41a2af:	aad    0xda
  41a2b1:	inc    edi
  41a2b2:	out    dx,al
  41a2b3:	jo     0x41a2e6
  41a2b5:	jmp    0x67e2:0x417d59f3
  41a2bc:	dec    eax
  41a2bd:	jmp    0x41a240
  41a2bf:	push   ebx
  41a2c0:	mov    ds:0x840b3509,eax
  41a2c5:	pushf  
  41a2c6:	mov    DWORD PTR [eax+ecx*8],ebx
  41a2c9:	cmps   BYTE PTR ds:[esi],BYTE PTR es:[edi]
  41a2ca:	mov    ecx,0x81a95adf
  41a2cf:	aam    0xad
  41a2d1:	push   ecx
  41a2d2:	add    eax,0x7dac7908
  41a2d7:	movaps xmm2,xmm5
  41a2da:	add    eax,0x40011a97
  41a2df:	jno    0x41a2d2
  41a2e1:	pop    edx
  41a2e2:	pusha  
  41a2e3:	movs   DWORD PTR es:[edi],DWORD PTR ds:[esi]
  41a2e4:	(bad)  
  41a2e5:	ins    BYTE PTR es:[edi],dx
  41a2e6:	push   ebp
  41a2e7:	or     BYTE PTR [esi+0x19],bl
  41a2ea:	(bad)  
  41a2ec:	arpl   WORD PTR [esi-0x3ad9f4a4],sp
  41a2f2:	gs jle 0x41a311
  41a2f5:	arpl   WORD PTR [eax-0x5f],dx
  41a2f8:	adc    bh,bh
  41a2fa:	popa   
  41a2fb:	add    eax,0x190d284d
  41a300:	int3   
  41a301:	lods   al,BYTE PTR ds:[esi]
  41a302:	and    eax,0xe5b69f71
  41a307:	fiadd  WORD PTR ds:0x7e7f7107
  41a30d:	cmp    al,0x64
  41a30f:	in     eax,0x6a
  41a311:	and    al,0x78
  41a313:	not    BYTE PTR [edi+0x320da7f8]
  41a319:	js     0x41a342
  41a31b:	(bad)  
  41a31c:	pop    edi
  41a31d:	(bad)  
  41a31e:	jl     0x41a314
  41a320:	mov    ds:0x80b564b6,al
  41a325:	shl    DWORD PTR es:[edi+0x7],0xe
  41a32a:	mov    ecx,edx
  41a32c:	push   ds
  41a32d:	hlt    
  41a32e:	adc    bh,bl
  41a330:	loop   0x41a2db
  41a332:	or     esi,DWORD PTR [ebp+0x1d]
  41a335:	int    0xa2
  41a337:	add    DWORD PTR [edi+0x6c],0x8723b9b4
  41a33e:	dec    ecx
  41a33f:	(bad)  
  41a341:	xchg   BYTE PTR [eax+0x78],bh
  41a344:	jns    0x41a2cd
  41a346:	(bad)  
  41a347:	in     eax,dx
  41a348:	adc    eax,ecx
  41a34a:	jae    0x41a35f
  41a34c:	enter  0xd27a,0x44
  41a350:	out    dx,eax
  41a351:	repnz xchg ecx,eax
  41a353:	movsx  eax,WORD PTR [ecx+0x112f95eb]
  41a35a:	pop    esi
  41a35b:	cmc    
  41a35c:	mov    edx,0x499962f5
  41a361:	dec    ebp
  41a362:	outs   dx,BYTE PTR ds:[esi]
  41a363:	adc    ecx,DWORD PTR [edi]
  41a365:	xchg   BYTE PTR [ebp+0x10],cl
  41a368:	mov    ds,WORD PTR [esi]
  41a36a:	hlt    
  41a36b:	fistp  DWORD PTR ds:0x7092de35
  41a371:	mov    edx,0x3b79e2c8
  41a376:	pop    ebp
  41a377:	cmps   BYTE PTR ds:[esi],BYTE PTR es:[edi]
  41a378:	es test eax,0x8628cef5
  41a37e:	int    0xcb
  41a380:	sbb    al,0xd1
  41a382:	repnz and al,0xd7
  41a385:	mov    ch,0x7c
  41a387:	jg     0x41a389
  41a389:	stos   BYTE PTR es:[edi],al
  41a38a:	loope  0x41a332
  41a38c:	sahf   
  41a38d:	scas   eax,DWORD PTR es:[edi]
  41a38e:	mov    ch,0x29
  41a390:	add    eax,0x78b03781
  41a395:	popf   
  41a396:	pop    edi
  41a397:	mov    ch,0x52
  41a399:	aaa    
  41a39a:	out    0x2,al
  41a39c:	push   esp
  41a39d:	test   eax,0x9b71b665
  41a3a2:	pop    esi
  41a3a3:	inc    ebx
  41a3a4:	cmp    al,0xbb
  41a3a6:	dec    esi
  41a3a7:	adc    DWORD PTR [ebp+0x3748a4d4],eax
  41a3ad:	stos   BYTE PTR es:[edi],al
  41a3ae:	inc    ebp
  41a3af:	imul   ecx,DWORD PTR cs:[ebx-0x75],0x98e19ddc
  41a3b7:	pop    ss
  41a3b8:	fisub  DWORD PTR [ecx+0x351f28f2]
  41a3be:	rol    BYTE PTR [ebx],cl
  41a3c0:	jo     0x41a3be
  41a3c2:	retf   
  41a3c3:	mov    ah,0x9a
  41a3c5:	lods   al,BYTE PTR ds:[esi]
  41a3c6:	int    0x3f
  41a3c8:	push   ss
  41a3c9:	je     0x41a37e
  41a3cb:	mov    eax,ds:0x44d41a37
  41a3d0:	cmps   BYTE PTR ds:[esi],BYTE PTR es:[edi]
  41a3d1:	dec    ebp
  41a3d2:	arpl   WORD PTR [ebp+0x13],si
  41a3d5:	out    dx,al
  41a3d6:	cmp    BYTE PTR [ebp+0xd7bcf7f],ah
  41a3dc:	add    eax,0x1d879d74
  41a3e1:	adc    DWORD PTR [ecx-0x108735b3],esp
  41a3e7:	pop    ds
  41a3e8:	xchg   ebp,eax
  41a3e9:	test   eax,0xcaa7f039
  41a3ee:	js     0x41a389
  41a3f0:	jecxz  0x41a39a
  41a3f2:	or     BYTE PTR [ecx],ch
  41a3f4:	xchg   edx,eax
  41a3f5:	(bad)  
  41a3f6:	popa   
  41a3f7:	adc    DWORD PTR [ebx+0x560c2d80],ebx
  41a3fd:	stos   DWORD PTR es:[edi],eax
  41a3fe:	popa   
  41a3ff:	ds dec ebx
  41a401:	daa    
  41a402:	cli    
  41a403:	movs   DWORD PTR es:[edi],DWORD PTR ds:[esi]
  41a404:	es jmp 0xe12a:0x5fb60a45
  41a40c:	call   0x420c:0x78febf6
  41a413:	in     eax,0x8b
  41a415:	loop   0x41a467
  41a417:	adc    BYTE PTR [esi+0x6d],bl
  41a41a:	in     al,dx
  41a41b:	xor    DWORD PTR [ebp+0x34c33f90],esp
  41a421:	stos   DWORD PTR es:[edi],eax
  41a422:	xor    ecx,esi
  41a424:	rcr    DWORD PTR [edx],0x71
  41a427:	xor    BYTE PTR [edx+ebp*4-0x47],dh
  41a42b:	xor    ebx,DWORD PTR [edi]
  41a42d:	add    al,0xba
  41a42f:	jecxz  0x41a446
  41a431:	add    al,ch
  41a433:	stos   BYTE PTR es:[edi],al
  41a434:	and    dl,BYTE PTR [ecx-0xb627e9c]
  41a43a:	into   
  41a43b:	and    DWORD PTR [edi+0x2220f532],eax
  41a441:	dec    esp
  41a442:	arpl   cx,cx
  41a444:	int    0xbb
  41a446:	push   0x64fb1597
  41a44b:	dec    ecx
  41a44c:	push   edx
  41a44d:	shr    dl,1
  41a44f:	repz adc BYTE PTR [bx+si],0xe
  41a454:	pop    ecx
  41a455:	mov    BYTE PTR [ebx],bl
  41a457:	adc    eax,0x5f9e11c
  41a45c:	js     0x41a469
  41a45e:	dec    ebp
  41a45f:	inc    eax
  41a460:	scas   eax,DWORD PTR es:[edi]
  41a461:	stos   BYTE PTR es:[edi],al
  41a462:	rcr    DWORD PTR [ecx+0x258e27f5],0x8a
  41a469:	ins    DWORD PTR es:[edi],dx
  41a46a:	sahf   
  41a46b:	xor    bl,bh
  41a46d:	jno    0x41a4d3
  41a46f:	(bad)  
  41a470:	ror    dl,0xe3
  41a473:	leave  
  41a474:	adc    eax,ebp
  41a476:	adc    eax,0x71b2480e
  41a47b:	test   DWORD PTR [ebp+esi*8+0x79b8313a],eax
  41a482:	(bad)  
  41a483:	fnstsw WORD PTR [edi-0x4b2fa955]
  41a489:	outs   dx,BYTE PTR ds:[esi]
  41a48a:	push   ecx
  41a48b:	dec    eax
  41a48c:	or     ecx,esi
  41a48e:	lahf   
  41a48f:	fidivr DWORD PTR [edi-0x57]
  41a492:	dec    eax
  41a493:	lods   eax,DWORD PTR ds:[esi]
  41a494:	mov    eax,ds:0xb4268fdc
  41a499:	outs   dx,DWORD PTR ds:[esi]
  41a49a:	sub    BYTE PTR [ecx+0x61],bh
  41a49d:	pop    ecx
  41a49e:	addr16 or eax,0x26b9abd6
  41a4a4:	pop    es
  41a4a5:	retf   0xde6f
  41a4a8:	mov    cl,bh
  41a4aa:	imul   ebp,DWORD PTR [edi+ebx*1+0x61],0x4
  41a4af:	push   DWORD PTR [esp+edi*1+0x52]
  41a4b3:	ret    0xe806
  41a4b6:	xchg   ebp,eax
  41a4b7:	and    ebp,DWORD PTR [ebp+0x19]
  41a4ba:	jo     0x41a499
  41a4bc:	arpl   WORD PTR [ecx-0x484ff085],sp
  41a4c2:	inc    ecx
  41a4c3:	fwait
  41a4c4:	or     bh,ch
  41a4c6:	pop    esp
  41a4c7:	mov    ebp,0x78121968
  41a4cc:	xchg   esp,eax
  41a4cd:	sub    dl,BYTE PTR [esi-0x42]
  41a4d0:	or     eax,0x84f725ab
  41a4d5:	xor    ebp,DWORD PTR [edi]
  41a4d7:	xor    BYTE PTR [edx-0x15ab6522],ch
  41a4dd:	retf   0xd90a
  41a4e0:	pop    ds
  41a4e1:	pop    ebp
  41a4e2:	and    BYTE PTR [esi],0x50
  41a4e5:	add    edi,DWORD PTR [eax+0x5]
  41a4e8:	pop    ds
  41a4e9:	sub    DWORD PTR [edx-0x51],edx
  41a4ec:	mov    ds:0x6fa308eb,eax
  41a4f1:	stos   DWORD PTR es:[edi],eax
  41a4f2:	jmp    0x1af36331
  41a4f7:	xchg   ecx,eax
  41a4f8:	popf   
  41a4f9:	xchg   bh,cl
  41a4fb:	push   esi
  41a4fc:	add    edi,eax
  41a4fe:	arpl   WORD PTR [ecx-0x6d],ax
  41a501:	xlat   BYTE PTR ds:[ebx]
  41a502:	rol    BYTE PTR [ebp+0x37],1
  41a505:	mov    bh,0xae
  41a507:	adc    BYTE PTR [ecx+ebp*8-0x12],dh
  41a50b:	adc    al,0x1c
  41a50d:	mov    DWORD PTR ds:0xe7f419df,esp
  41a513:	int3   
  41a514:	(bad)  
  41a515:	stos   DWORD PTR es:[edi],eax
  41a516:	lea    ecx,[ebp-0x53463a87]
  41a51c:	fsubr  QWORD PTR [esi-0x24e17206]
  41a522:	bound  esi,QWORD PTR [ecx]
  41a524:	fs pop ds
  41a526:	mov    cl,0x73
  41a528:	hlt    
  41a529:	stos   BYTE PTR es:[edi],al
  41a52a:	mov    eax,ds:0x429a87f
  41a52f:	pop    esi
  41a530:	push   0xf603bb08
  41a535:	das    
  41a536:	and    DWORD PTR fs:[edx+0x1a],edx
  41a53a:	sahf   
  41a53b:	adc    DWORD PTR [ebx],edi
  41a53d:	mov    esi,0x9ffd0e4b
  41a542:	loopne 0x41a51a
  41a544:	sbb    eax,0x2cc09b25
  41a549:	inc    ebx
  41a54a:	lods   eax,DWORD PTR ds:[esi]
  41a54b:	adc    ebx,DWORD PTR [edx]
  41a54d:	mov    al,0x47
  41a54f:	jne    0x41a5d0
  41a551:	leave  
  41a552:	pop    edi
  41a553:	js     0x1c5a9938
  41a559:	int    0x70
  41a55b:	fwait
  41a55c:	rcr    BYTE PTR [ecx+0x28],cl
  41a55f:	push   ebp
  41a560:	push   ss
  41a561:	test   DWORD PTR [ecx+0x2fc6386b],esp
  41a567:	inc    ecx
  41a568:	mov    ds:0xf30dd946,eax
  41a56d:	shl    BYTE PTR [eax-0x7d],1
  41a570:	icebp  
  41a571:	dec    edx
  41a572:	gs adc eax,0x6e98a04f
  41a578:	sbb    BYTE PTR [ebx+ecx*1+0x29ab3441],dh
  41a57f:	cmp    BYTE PTR [ebp-0x63b441f7],ch
  41a585:	mov    cl,0x83
  41a587:	mov    BYTE PTR [ebp+0x38856315],dh
  41a58d:	xchg   esi,eax
  41a58e:	shl    esp,cl
  41a590:	xor    DWORD PTR [ecx+edx*4+0x76cb982f],ebp
  41a597:	enter  0x6eb0,0xa7
  41a59b:	or     cl,cl
  41a59d:	shl    DWORD PTR [ecx+0x29],1
  41a5a0:	fstp   DWORD PTR [esi]
  41a5a2:	mov    cs,WORD PTR [edi+eiz*8]
  41a5a5:	lock mov dh,0xf
  41a5a8:	fsubr  st(7),st
  41a5aa:	sub    ebx,DWORD PTR [edx+0x1e]
  41a5ad:	or     DWORD PTR [eax+0x5b],edx
  41a5b0:	mov    dh,0x2b
  41a5b2:	dec    ebp
  41a5b3:	lods   eax,DWORD PTR ds:[esi]
  41a5b4:	mov    dh,0x4c
  41a5b6:	in     al,0x23
  41a5b8:	sbb    al,0xed
  41a5ba:	and    eax,0x272914d8
  41a5bf:	adc    eax,0x72664518
  41a5c4:	pushf  
  41a5c5:	les    esp,FWORD PTR [edx]
  41a5c7:	xlat   BYTE PTR ds:[ebx]
  41a5c8:	sahf   
  41a5c9:	add    eax,0xb503f2a3
  41a5ce:	aam    0xe
  41a5d0:	gs or  al,0xb2
  41a5d3:	pop    ds
  41a5d4:	pop    esp
  41a5d5:	adc    eax,0xc1ffdef4
  41a5da:	inc    esi
  41a5db:	rcr    DWORD PTR ds:0x7e565790,1
  41a5e1:	lods   al,BYTE PTR ds:[esi]
  41a5e2:	stc    
  41a5e3:	push   edx
  41a5e4:	mov    BYTE PTR ds:0x3f33a532,bl
  41a5ea:	fmul   st,st(0)
  41a5ec:	cli    
  41a5ed:	sbb    BYTE PTR [ebp-0x67],ah
  41a5f0:	or     BYTE PTR [ecx+0x68],bl
  41a5f3:	rol    dl,0xd2
  41a5f6:	add    eax,0x64deb0f1
  41a5fb:	sar    DWORD PTR [eax+0x4a],1
  41a5fe:	mov    ecx,0x49446b93
  41a603:	cdq    
  41a604:	ficomp WORD PTR [ebp-0x1e]
  41a607:	or     DWORD PTR [eax],0xffffffab
  41a60a:	loope  0x41a5a2
  41a60c:	adc    ebp,DWORD PTR [eax-0x5f2890a]
  41a612:	arpl   bx,cx
  41a614:	pop    ecx
  41a615:	and    eax,0x2c30b965
  41a61a:	sbb    dh,BYTE PTR [edx+edx*4+0x76150937]
  41a621:	lods   al,BYTE PTR ds:[esi]
  41a622:	xchg   ebx,eax
  41a623:	sub    bh,bh
  41a625:	sbb    ch,dl
  41a627:	mov    ebp,0x2b89574e
  41a62c:	shr    BYTE PTR [ebp-0x5370f388],0x5b
  41a633:	xor    DWORD PTR [ebp+0x7a],edi
  41a636:	xor    BYTE PTR [edi-0x7],ah
  41a639:	dec    ebx
  41a63a:	lea    esp,[edi]
  41a63c:	mov    eax,0x6c5f4ee9
  41a641:	and    DWORD PTR [ebx-0x69],0xd659c48
  41a648:	xchg   edx,eax
  41a649:	(bad)  
  41a64a:	(bad)  
  41a64c:	fistp  QWORD PTR [esi-0x1d]
  41a64f:	add    BYTE PTR [ecx-0x54],dh
  41a652:	imul   esp,DWORD PTR [ecx+0x603c8829],0x3e
  41a659:	xor    esp,DWORD PTR [ebp-0x2f]
  41a65c:	and    ecx,ecx
  41a65e:	fdivr  DWORD PTR [eax]
  41a660:	out    0x6c,eax
  41a662:	or     DWORD PTR [eax],0x9d84fb7b
  41a668:	and    eax,0xb6cfe52b
  41a66d:	cs arpl bp,bp
  41a670:	add    al,0xb0
  41a672:	pop    esp
  41a673:	xchg   edx,eax
  41a674:	movs   BYTE PTR es:[edi],BYTE PTR ds:[esi]
  41a675:	stos   BYTE PTR es:[edi],al
  41a676:	icebp  
  41a677:	and    eax,0xfd2bf7cf
  41a67c:	xor    ch,BYTE PTR [ecx]
  41a67e:	and    bl,BYTE PTR [edx]
  41a680:	daa    
  41a681:	cdq    
  41a682:	bound  ebx,QWORD PTR [ebp+0x3ad72cc8]
  41a688:	adc    esi,DWORD PTR [ebx]
  41a68a:	jge    0x41a61f
  41a68c:	push   edx
  41a68d:	stos   DWORD PTR es:[edi],eax
  41a68e:	test   BYTE PTR [eax-0x78afa6ba],ah
  41a694:	sbb    al,0x49
  41a696:	fwait
  41a697:	std    
  41a698:	sti    
  41a699:	cmps   BYTE PTR ds:[esi],BYTE PTR es:[edi]
  41a69a:	stos   BYTE PTR es:[edi],al
  41a69b:	sub    bh,BYTE PTR ds:0x92ce01ab
  41a6a1:	xor    DWORD PTR [edi+0x24],esi
  41a6a4:	je     0x41a6ea
  41a6a6:	popa   
  41a6a7:	je     0x41a667
  41a6a9:	push   esi
  41a6aa:	(bad)  
  41a6ab:	std    
  41a6ac:	test   al,0xd7
  41a6ae:	mov    cl,0xee
  41a6b0:	mov    ebx,0xbc103ac1
  41a6b5:	popa   
  41a6b6:	adc    eax,0x576d1d2f
  41a6bb:	mov    al,ds:0x394f6091
  41a6c0:	adc    al,0xac
  41a6c2:	pop    ebp
  41a6c3:	sbb    ebp,esp
  41a6c5:	lods   al,BYTE PTR ds:[esi]
  41a6c6:	jb     0x41a72b
  41a6c8:	ss adc dl,al
  41a6cb:	xchg   edx,eax
  41a6cc:	pop    edi
  41a6cd:	loop   0x41a733
  41a6cf:	aad    0xbf
  41a6d1:	inc    BYTE PTR [edi-0x1e]
  41a6d4:	(bad)  
  41a6d5:	loopne 0x41a6df
  41a6d7:	rcr    DWORD PTR [ebp+0x77815685],cl
  41a6dd:	sbb    bl,BYTE PTR [ecx]
  41a6df:	pop    ebx
  41a6e0:	jbe    0x41a6e9
  41a6e2:	arpl   WORD PTR [ecx+0x14453048],sp
  41a6e8:	jae    0x41a6c1
  41a6ea:	repnz xchg edx,eax
  41a6ec:	lahf   
  41a6ed:	inc    ebx
  41a6ee:	cmp    eax,0x26351f51
  41a6f3:	outs   dx,DWORD PTR ds:[esi]
  41a6f4:	sub    BYTE PTR ds:0xace38650,bl
  41a6fa:	test   eax,0xa6c2a5a
  41a6ff:	(bad)
  41a702:	xor    DWORD PTR [ecx],ecx
  41a704:	outs   dx,BYTE PTR ds:[esi]
  41a705:	dec    ebp
  41a706:	lock lods al,BYTE PTR ds:[esi]
  41a708:	xlat   BYTE PTR ds:[ebx]
  41a709:	jnp    0x41a68f
  41a70b:	adc    BYTE PTR [esi+0xe67c2d9],bh
  41a711:	mov    ebp,0xcffe14a8
  41a716:	or     al,0xd9
  41a718:	sbb    al,BYTE PTR [edx-0xe84be9d]
  41a71e:	into   
  41a71f:	dec    ebx
  41a720:	in     eax,dx
  41a721:	stos   DWORD PTR es:[edi],eax
  41a722:	sub    bh,BYTE PTR [ecx-0x71c7abb3]
  41a728:	xor    al,0xd6
  41a72a:	and    ecx,ebx
  41a72c:	imul   ebx,DWORD PTR [edi-0x150a0db9],0xffffffcb
  41a733:	loopne 0x41a6cf
  41a735:	mov    ebp,0x58fa4116
  41a73a:	lahf   
  41a73b:	add    eax,DWORD PTR [ebx+ebp*4-0x65]
  41a73f:	bound  ebx,QWORD PTR [ebp+0x67f0f9f8]
  41a745:	add    cl,BYTE PTR [ebx+0x11]
  41a748:	and    DWORD PTR [eax+0x2c],eax
  41a74b:	xchg   ecx,eax
  41a74c:	sbb    al,0xc9
  41a74e:	xchg   esi,eax
  41a74f:	stc    
  41a750:	or     eax,0x9097fa82
  41a755:	enter  0x3178,0x35
  41a759:	(bad)  
  41a75a:	(bad)  
  41a75c:	sbb    eax,0x40671b3
  41a761:	(bad)  
  41a762:	and    al,0x49
  41a764:	push   ds
  41a765:	popa   
  41a766:	daa    
  41a767:	or     ah,dh
  41a769:	mov    ch,0xb1
  41a76b:	daa    
  41a76c:	dec    DWORD PTR [esi-0x664206bb]
  41a772:	mov    ds:0x5ee9c3a8,eax
  41a777:	xor    dl,BYTE PTR [ecx]
  41a779:	sbb    BYTE PTR [ecx],al
  41a77b:	sub    eax,0xa91d70f4
  41a780:	das    
  41a781:	mov    cl,0x63
  41a783:	leave  
  41a784:	dec    esi
  41a785:	test   al,0x69
  41a787:	aas    
  41a788:	out    0x1,eax
  41a78a:	fs adc al,0x30
  41a78d:	or     esi,DWORD PTR [esi+0x41]
  41a790:	pop    ebp
  41a791:	stc    
  41a792:	arpl   WORD PTR [edi],bp
  41a794:	retf   
  41a795:	lds    esp,FWORD PTR [ecx-0x63]
  41a798:	jl     0x41a74a
  41a79a:	cs mov ch,0x9f
  41a79d:	ds jmp 0xae82:0xbb0f600f
  41a7a5:	xchg   DWORD PTR ds:0x29ab3fdc,ebp
  41a7ab:	cs ds data16 cld 
  41a7af:	push   edi
  41a7b0:	pop    es
  41a7b1:	outs   dx,BYTE PTR ds:[esi]
  41a7b2:	cmp    eax,0x87ecf60a
  41a7b7:	ds sub ah,BYTE PTR gs:[eax+ebp*4+0x1d]
  41a7bd:	mov    ebp,0x98a18ecf
  41a7c2:	cmps   BYTE PTR ds:[esi],BYTE PTR es:[edi]
  41a7c3:	lds    ecx,FWORD PTR [eax]
  41a7c5:	cmps   DWORD PTR ds:[esi],DWORD PTR es:[edi]
  41a7c6:	add    eax,0x6540a507
  41a7cb:	daa    
  41a7cc:	cdq    
  41a7cd:	int3   
  41a7ce:	lds    edi,FWORD PTR [eax]
  41a7d0:	add    edx,DWORD PTR [ecx]
  41a7d2:	pop    es
  41a7d3:	mov    al,ds:0xe1706ab1
  41a7d8:	(bad)  
  41a7d9:	out    0x24,al
  41a7db:	xchg   BYTE PTR [edx+ecx*8],al
  41a7de:	les    ebp,FWORD PTR [edi+0x1e]
  41a7e1:	popf   
  41a7e2:	jne    0x41a7a0
  41a7e4:	dec    ebx
  41a7e5:	dec    esp
  41a7e6:	loop   0x41a7b6
  41a7e8:	test   DWORD PTR [ebp+0x67413560],ebx
  41a7ee:	bound  esi,QWORD PTR [ecx]
  41a7f0:	xor    al,0x58
  41a7f2:	push   ecx
  41a7f4:	xchg   DWORD PTR [edi+ebx*8+0x1],ebp
  41a7f8:	or     al,0xcf
  41a7fa:	rol    BYTE PTR [edi+0xdeeafc8],0x1f
  41a801:	cmp    DWORD PTR [edi],ebx
  41a803:	pop    edx
  41a804:	inc    esi
  41a805:	sbb    eax,0x4f694930
  41a80a:	add    eax,0xddabeb2b
  41a80f:	mov    ebp,0xac7d687
  41a814:	sbb    eax,0x6544d099
  41a819:	xchg   dl,ah
  41a81b:	jmp    0xc8d74f30
  41a820:	stos   DWORD PTR es:[edi],eax
  41a821:	push   edx
  41a822:	sbb    al,0x77
  41a824:	lds    edi,FWORD PTR [edx+eax*4-0x56]
  41a828:	sbb    BYTE PTR [ecx-0x30dbbcd2],dl
  41a82e:	stc    
  41a82f:	sti    
  41a830:	lahf   
  41a831:	pop    ebx
  41a832:	cmp    BYTE PTR [ebx],bh
  41a834:	test   BYTE PTR [ecx+edx*1+0x44b59181],ch
  41a83b:	pop    ebp
  41a83c:	inc    esp
  41a83d:	pop    esp
  41a83e:	mov    ?,WORD PTR [ebx-0x4b]
  41a841:	pusha  
  41a842:	inc    esi
  41a843:	icebp  
  41a844:	and    ch,BYTE PTR [ebx]
  41a846:	pop    edi
  41a847:	and    cl,ch
  41a849:	shl    DWORD PTR [edi],1
  41a84b:	ret    
  41a84c:	fistp  WORD PTR [ecx]
  41a84e:	jns    0x41a860
  41a850:	leave  
  41a851:	lock mov eax,0x54ad1d6c
  41a857:	pop    es
  41a858:	jg     0x41a84d
  41a85a:	pop    eax
  41a85b:	inc    edi
  41a85c:	xor    eax,0x3a5189ac
  41a861:	into   
  41a862:	inc    BYTE PTR [esi]
  41a864:	pop    esi
  41a865:	leave  
  41a866:	rep movs DWORD PTR es:[edi],DWORD PTR ds:[esi]
  41a868:	aaa    
  41a869:	icebp  
  41a86a:	popa   
  41a86b:	imul   edi,eax,0xb664d76
  41a871:	fs mov edi,0x7568132a
  41a877:	outs   dx,DWORD PTR ds:[esi]
  41a878:	test   al,0xab
  41a87a:	mov    ebp,0x2cccaa36
  41a87f:	int3   
  41a880:	and    al,0x10
  41a882:	idiv   BYTE PTR [ebx+0x1a]
  41a885:	aad    0x4e
  41a887:	stc    
  41a888:	adc    esi,ebp
  41a88a:	sti    
  41a88b:	inc    ebp
  41a88c:	je     0x41a8a9
  41a88e:	mov    eax,esi
  41a890:	dec    esi
  41a891:	lods   al,BYTE PTR ds:[esi]
  41a892:	cmp    eax,0xa62d7c12
  41a897:	push   0x5014f659
  41a89c:	dec    eax
  41a89d:	es fs mov ecx,0xfb33d2c0
  41a8a4:	mov    ds:0xcb0dad6c,eax
  41a8a9:	js     0x41a8ac
  41a8ab:	rcr    BYTE PTR [esi],0xad
  41a8ae:	mov    ebx,DWORD PTR [edx]
  41a8b0:	ss push cs
  41a8b2:	cmp    al,0x22
  41a8b4:	(bad)  
  41a8b6:	sub    eax,0xc750ffc6
  41a8bb:	push   es
  41a8bc:	sub    BYTE PTR [edx+0x7c],dh
  41a8bf:	pusha  
  41a8c0:	leave  
  41a8c1:	cmp    al,0xe4
  41a8c3:	cmp    DWORD PTR [ecx-0x2d529b45],edi
  41a8c9:	fnsave [ebp-0x412af850]
  41a8cf:	xchg   esp,eax
  41a8d0:	sbb    BYTE PTR [eax+0x9e80d81],bl
  41a8d6:	mov    ds:0x655a6b6f,eax
  41a8db:	dec    ebp
  41a8dc:	in     eax,dx
  41a8dd:	push   ebp
  41a8de:	or     edx,DWORD PTR [ebp+edi*1-0x442f1415]
  41a8e5:	xchg   ecx,eax
  41a8e6:	or     BYTE PTR [edx],0x26
  41a8e9:	add    BYTE PTR [edx+0x37],bl
  41a8ec:	loopne 0x41a94d
  41a8ee:	push   esi
  41a8ef:	and    bl,bl
  41a8f1:	jnp    0x41a957
  41a8f3:	and    edx,ebp
  41a8f5:	ins    DWORD PTR es:[edi],dx
  41a8f6:	inc    edi
  41a8f7:	inc    edx
  41a8f8:	xchg   DWORD PTR [ecx+0x6a65f353],edx
  41a8fe:	xchg   esp,eax
  41a8ff:	pop    es
  41a900:	xchg   ebp,eax
  41a901:	data16 cmp bh,BYTE PTR [edx+0xd47c097]
  41a908:	pop    esp
  41a909:	adc    ah,bl
  41a90b:	popf   
  41a90c:	dec    ebp
  41a90d:	mov    eax,0x9a0df53e
  41a912:	arpl   WORD PTR [ebx+0x1c],si
  41a915:	ins    DWORD PTR es:[edi],dx
  41a916:	mov    cl,0xb0
  41a918:	push   es
  41a919:	fcmovbe st,st(5)
  41a91b:	xor    ch,ch
  41a91d:	cmps   DWORD PTR ds:[esi],DWORD PTR es:[edi]
  41a91e:	imul   edx,DWORD PTR gs:[esi+ecx*2+0xe],0xffffffda
  41a924:	sti    
  41a925:	jnp    0x41a8e1
  41a927:	fwait
  41a928:	sbb    al,0x91
  41a92a:	mov    esp,0x61854178
  41a92f:	sub    ebx,DWORD PTR [edx+0x62a3a1a9]
  41a935:	xchg   edi,eax
  41a936:	xor    BYTE PTR [edi+0x4c],0xf5
  41a93a:	es jp  0x41a939
  41a93d:	inc    ebp
  41a93e:	bound  edx,QWORD PTR ds:0x4ab7e411
  41a944:	dec    ebx
  41a945:	mov    es,WORD PTR [ecx]
  41a947:	adc    DWORD PTR [eax+ebp*1],edx
  41a94a:	push   edi
  41a94b:	cdq    
  41a94c:	sbb    eax,0x7d676201
  41a951:	ret    
  41a952:	loop   0x41a9cc
  41a954:	mov    eax,0x1cb87cc1
  41a959:	sub    eax,0x1a6193af
  41a95e:	test   al,0x7f
  41a960:	(bad)  [ebx+0x16]
  41a963:	jmp    0x6e7a:0x3a44651e
  41a96a:	(bad)  
  41a96b:	and    eax,0x1f45aaae
  41a970:	mov    al,0x73
  41a972:	popa   
  41a973:	out    dx,eax
  41a974:	pop    esi
  41a975:	lea    esi,[edx+0x59791809]
  41a97b:	sub    eax,0xf1962aee
  41a980:	push   ebx
  41a981:	lods   al,BYTE PTR ds:[esi]
  41a982:	sbb    eax,0x8d3795f4
  41a987:	mov    esi,0xf9d2e2eb
  41a98c:	imul   edx,DWORD PTR [edi-0x6e470e9d],0xac6a9087
  41a996:	ins    DWORD PTR es:[edi],dx
  41a997:	adc    DWORD PTR [ebx+ebp*2-0x34ae07b9],esi
  41a99e:	retf   
  41a99f:	push   edi
  41a9a0:	mov    ah,0x30
  41a9a2:	pusha  
  41a9a3:	imul   ecx,DWORD PTR [esi-0x72c60a29],0xc39462fa
  41a9ad:	dec    esp
  41a9ae:	dec    BYTE PTR [edi]
  41a9b0:	cld    
  41a9b1:	(bad)  [ebp+0x1]
  41a9b4:	pop    ds
  41a9b5:	sub    DWORD PTR [ecx],esi
  41a9b7:	xor    DWORD PTR [ecx-0x3],ebp
  41a9ba:	aad    0xe2
  41a9bc:	sub    ebp,DWORD PTR [eax+0x568ed4a9]
  41a9c2:	cwde   
  41a9c3:	or     al,0x9b
  41a9c5:	sub    bh,BYTE PTR [eax-0x2976eedc]
  41a9cb:	aaa    
  41a9cc:	ret    
  41a9cd:	test   DWORD PTR [eax+ecx*4+0x11423605],0xf1592e7
  41a9d8:	test   BYTE PTR [eax],dh
  41a9da:	xor    al,0xa3
  41a9dc:	sbb    eax,0x8862096d
  41a9e1:	xchg   ecx,eax
  41a9e2:	les    ecx,FWORD PTR [ecx+0x3febe292]
  41a9e8:	jnp    0x41a9bb
  41a9ea:	jae    0x41a9ed
  41a9ec:	xchg   ebx,eax
  41a9ed:	adc    al,0xef
  41a9ef:	pop    es
  41a9f0:	mov    esp,0x8ebe450f
  41a9f5:	shl    DWORD PTR [ecx+edi*8+0x44],cl
  41a9f9:	(bad)  
  41a9fb:	inc    esp
  41a9fc:	repz xor ecx,ebp
  41a9ff:	lahf   
  41aa00:	imul   eax
  41aa02:	aaa    
  41aa03:	adc    dl,dh
  41aa05:	xchg   esi,eax
  41aa06:	repz and esp,DWORD PTR [ebx+0x614163dd]
  41aa0d:	and    cl,0x95
  41aa10:	jecxz  0x41a9e1
  41aa12:	mov    ch,0x10
  41aa14:	mov    ds:0x1cb5d26e,eax
  41aa19:	popa   
  41aa1a:	ins    BYTE PTR es:[edi],dx
  41aa1b:	sub    ah,bl
  41aa1d:	xor    ch,BYTE PTR [esi+0x5f]
  41aa20:	stc    
  41aa21:	(bad)  
  41aa22:	cmp    eax,0xb3d644ca
  41aa27:	xor    ch,bh
  41aa29:	rol    BYTE PTR [ecx+0x4be51fd0],cl
  41aa2f:	sahf   
  41aa30:	xor    al,0x8d
  41aa32:	xchg   ebx,eax
  41aa33:	mov    eax,0x81c1ac3a
  41aa38:	inc    edi
  41aa39:	mov    al,0x24
  41aa3b:	in     eax,0xe0
  41aa3d:	js     0x41a9c2
  41aa3f:	jne    0x41a9d6
  41aa41:	sub    eax,0xfcfb8d63
  41aa46:	retf   0x873e
  41aa49:	fsubr  DWORD PTR [ebx-0x5b1bc0f0]
  41aa4f:	push   ds
  41aa50:	pop    ds
  41aa51:	sbb    DWORD PTR [ecx+0x6b260ac4],ecx
  41aa57:	(bad)  
  41aa58:	or     ch,BYTE PTR [ebp+ebx*1+0x5b63ce92]
  41aa5f:	mov    ch,0xbf
  41aa61:	inc    edx
  41aa62:	and    BYTE PTR ds:0x9563e875,0x71
  41aa69:	xor    BYTE PTR [edx+0x1b],dh
  41aa6c:	xchg   ebx,eax
  41aa6d:	dec    ebp
  41aa6e:	and    al,BYTE PTR ds:0x3a3e7f3f
  41aa74:	or     al,0x1c
  41aa76:	ret    
  41aa77:	pop    ecx
  41aa78:	push   0x58
  41aa7a:	or     eax,0x61b919c1
  41aa7f:	sbb    DWORD PTR [ebp*4-0x74430364],edi
  41aa86:	test   BYTE PTR [edx-0x1d],dh
  41aa89:	jne    0x41aab7
  41aa8b:	test   eax,0xf1e44f15
  41aa90:	sbb    al,0x59
  41aa92:	xor    al,0xa
  41aa94:	pop    ebx
  41aa95:	push   0x90699289
  41aa9a:	inc    ebp
  41aa9b:	ins    DWORD PTR es:[edi],dx
  41aa9c:	cmp    bl,BYTE PTR [ecx+0x391a7357]
  41aaa2:	pop    eax
  41aaa3:	push   eax
  41aaa4:	sbb    al,0x6d
  41aaa6:	and    ah,BYTE PTR [ebx-0x366e9378]
  41aaac:	(bad)  
  41aaad:	mov    ebx,0x591e3dd0
  41aab2:	and    BYTE PTR [ecx+ebp*4+0x45800175],0xad
  41aaba:	add    DWORD PTR [edx],eax
  41aabc:	and    BYTE PTR [edi+0x1269c962],dh
  41aac2:	fcom   QWORD PTR ds:0x2e8deb68
  41aac8:	daa    
  41aac9:	adc    ecx,DWORD PTR [ebp+0x10]
  41aacc:	add    BYTE PTR [ebp-0x1b],ah
  41aacf:	xchg   edi,eax
  41aad0:	sbb    eax,0xa82ac645
  41aad5:	ret    
  41aad6:	dec    ebx
  41aad7:	dec    ecx
  41aad8:	cs stos DWORD PTR es:[edi],eax
  41aada:	and    esp,0xa5c32fe
  41aae0:	xchg   ebp,eax
  41aae1:	and    dh,BYTE PTR [ecx+eiz*4+0x19]
  41aae5:	adc    DWORD PTR [edx+0x5d4b3242],esp
  41aaeb:	jne    0x41ab45
  41aaed:	mov    esp,0xac530c23
  41aaf2:	mov    ch,0xb1
  41aaf4:	movs   DWORD PTR es:[edi],DWORD PTR ds:[esi]
  41aaf5:	sar    DWORD PTR [ebx],cl
  41aaf7:	dec    edi
  41aaf8:	push   ss
  41aaf9:	add    DWORD PTR [ebp-0x7eb2e120],0xa06491ef
  41ab03:	pusha  
  41ab04:	mov    edi,0x20880dab
  41ab09:	adc    eax,DWORD PTR [ebx+ebx*2]
  41ab0c:	arpl   WORD PTR [ebx-0x20fa16cb],dx
  41ab12:	pop    edi
  41ab13:	leave  
  41ab14:	sbb    al,0xb
  41ab16:	cmp    eax,0x5a0a8fa
  41ab1b:	push   es
  41ab1c:	xchg   edi,eax
  41ab1d:	sti    
  41ab1e:	leave  
  41ab1f:	push   esp
  41ab20:	mov    edi,0xe580f8d9
  41ab25:	fmul   DWORD PTR [esi]
  41ab27:	in     eax,dx
  41ab28:	adc    DWORD PTR [ebx+0x7d059abb],ebp
  41ab2e:	fisubr DWORD PTR [eax]
  41ab30:	mov    ds:0xaaddd0c7,al
  41ab35:	in     eax,dx
  41ab36:	popa   
  41ab37:	sbb    edi,esi
  41ab39:	or     DWORD PTR [esi-0x5e2dfb48],eax
  41ab3f:	movs   BYTE PTR es:[edi],BYTE PTR ds:[esi]
  41ab40:	xchg   esp,eax
  41ab41:	lods   al,BYTE PTR ds:[esi]
  41ab42:	add    eax,0xc2be84c3
  41ab47:	mov    eax,0x7e158e38
  41ab4c:	mov    ds:0x4b564a4,al
  41ab51:	adc    BYTE PTR [ecx-0x4680e4e6],0x10
  41ab58:	ins    BYTE PTR es:[edi],dx
  41ab59:	ins    DWORD PTR es:[edi],dx
  41ab5a:	push   0x951d1eb4
  41ab5f:	call   0xac6a:0x871cba7c
  41ab66:	and    eax,0xae0222e6
  41ab6b:	pop    ebp
  41ab6c:	adc    DWORD PTR [ecx+0x5a9c69e9],edi
  41ab72:	sub    esp,ebp
  41ab74:	stos   BYTE PTR es:[edi],al
  41ab75:	add    BYTE PTR [edi],bl
  41ab77:	(bad)  
  41ab78:	repnz stos DWORD PTR es:[edi],eax
  41ab7a:	mov    ecx,0x76bdf977
  41ab7f:	icebp  
  41ab80:	cmp    DWORD PTR [ebp-0x46e3e81b],eax
  41ab86:	mov    ds:0xc048bcc9,eax
  41ab8b:	dec    eax
  41ab8c:	dec    BYTE PTR [eax*8-0x40398a2d]
  41ab93:	fist   WORD PTR [ebx+0x71a11ebf]
  41ab99:	bound  ecx,QWORD PTR [eax+edx*1+0x6a23bcaf]
  41aba0:	ror    BYTE PTR [ebx],0x56
  41aba3:	sub    DWORD PTR [eax-0x99e7954],esi
  41aba9:	dec    edx
  41abaa:	cmp    BYTE PTR [edi-0x1e],al
  41abad:	pop    esp
  41abae:	shl    BYTE PTR [esi],1
  41abb0:	xchg   ebx,eax
  41abb1:	sub    eax,0x19dc8fe3
  41abb6:	fsubrp st(6),st
  41abb8:	and    edx,edi
  41abba:	shr    BYTE PTR [edi+0x35],cl
  41abbd:	cmps   BYTE PTR ds:[esi],BYTE PTR es:[edi]
  41abbe:	jno    0x41ab60
  41abc0:	inc    edi
  41abc1:	fdiv   QWORD PTR [edi-0x19]
  41abc4:	ins    BYTE PTR es:[edi],dx
  41abc5:	cdq    
  41abc6:	pop    ebx
  41abc7:	rol    DWORD PTR [edi+0x32],1
  41abca:	push   0xd
  41abcc:	mov    dl,0x44
  41abce:	jne    0x41ac3e
  41abd0:	push   ds
  41abd1:	int    0xc1
  41abd3:	gs cdq 
  41abd5:	aam    0x98
  41abd7:	sbb    al,BYTE PTR [edx+0x636c9dab]
  41abdd:	jnp    0x41ac1a
  41abdf:	or     eax,0x2570bc40
  41abe4:	pop    ds
  41abe5:	pop    ecx
  41abe6:	mov    ah,0xad
  41abe8:	idiv   BYTE PTR [edx]
  41abea:	das    
  41abeb:	(bad)  
  41abec:	xchg   BYTE PTR [ebp+0x511facbc],dh
  41abf2:	dec    si
  41abf4:	mov    ebp,DWORD PTR [eax+esi*2-0x10bee749]
  41abfb:	test   al,0xac
  41abfd:	cmp    bl,BYTE PTR [edi+ebx*1]
  41ac00:	cmp    eax,0x120b8f35
  41ac05:	lods   eax,DWORD PTR ds:[esi]
  41ac06:	aad    0x28
  41ac08:	retf   0x7543
  41ac0b:	xchg   BYTE PTR [esi],ah
  41ac0d:	or     BYTE PTR ds:0x623efc94,bh
  41ac13:	imul   edi,esp,0x9743777b
  41ac19:	sbb    BYTE PTR [edi+0x45b19302],ch
  41ac1f:	cs mov al,0x7e
  41ac22:	ret    
  41ac23:	xor    dl,BYTE PTR [edx]
  41ac25:	shl    BYTE PTR [ecx+ecx*1+0x48],0x93
  41ac2a:	dec    ebx
  41ac2b:	cmp    DWORD PTR [edi-0x7af00d32],esi
  41ac31:	loope  0x41abe6
  41ac33:	retf   0xe51e
  41ac36:	inc    esi
  41ac37:	push   ecx
  41ac38:	mov    al,ds:0x75e16050
  41ac3d:	dec    edx
  41ac3e:	or     esi,eax
  41ac40:	out    0x5,eax
  41ac42:	xor    DWORD PTR [esi],ecx
  41ac44:	es mov ch,0x8a
  41ac47:	retf   0x2d02
  41ac4a:	adc    al,BYTE PTR [ebp+0x1c]
  41ac4d:	or     BYTE PTR [edi-0x33],al
  41ac50:	shl    DWORD PTR [eax+0x716f4162],1
  41ac56:	sbb    ecx,DWORD PTR [edi]
  41ac58:	outs   dx,BYTE PTR ds:[esi]
  41ac59:	ja     0x41ac56
  41ac5b:	adc    DWORD PTR [eax],edx
  41ac5d:	jns    0x41ac79
  41ac5f:	or     BYTE PTR ds:0xddad31e3,ah
  41ac65:	jge    0x41ac53
  41ac67:	dec    esp
  41ac68:	call   0x9bf71a8
  41ac6d:	lods   al,BYTE PTR ds:[esi]
  41ac6e:	mov    WORD PTR [esp+edx*8+0x1b943c5],ss
  41ac75:	mov    ecx,0x3a19ece0
  41ac7a:	ret    0x599b
  41ac7d:	and    esp,DWORD PTR [edx-0x3a90b14d]
  41ac83:	sub    DWORD PTR [edi-0x7],ecx
  41ac86:	imul   esi,DWORD PTR [ecx-0x3a1d8e6d],0x1c
  41ac8d:	jmp    0x4476518b
  41ac92:	mov    edx,0xbdacbfba
  41ac97:	stc    
  41ac98:	sub    eax,0xedcfd615
  41ac9d:	ins    BYTE PTR es:[edi],dx
  41ac9e:	mov    al,0x23
  41aca0:	cmp    DWORD PTR [edi+edx*2-0x77],edi
  41aca4:	xchg   ebx,eax
  41aca5:	mov    WORD PTR [ebx],ds
  41aca7:	ficomp DWORD PTR ds:0xc24e59ac
  41acad:	inc    ebx
  41acae:	sbb    al,0xab
  41acb0:	jl     0x41ad0b
  41acb2:	pop    ebx
  41acb3:	rol    DWORD PTR [eax+0x1a],cl
  41acb6:	gs ins DWORD PTR es:[edi],dx
  41acb8:	inc    ebp
  41acb9:	add    al,0xc8
  41acbb:	mov    bl,0x77
  41acbd:	lock mov ebp,0x8e6bfa0f
  41acc3:	jo     0x41ace1
  41acc5:	jns    0x41aca9
  41acc7:	sub    ch,BYTE PTR [ebp+0x7]
  41acca:	jb     0x41ac54
  41accc:	mov    esp,0x167615aa
  41acd1:	xor    DWORD PTR [ecx+0x5f6c4f64],ecx
  41acd7:	stc    
  41acd8:	test   esp,edx
  41acda:	arpl   WORD PTR [ecx-0x675f8044],di
  41ace0:	out    dx,eax
  41ace1:	jg     0x41acbc
  41ace3:	push   cs
  41ace4:	out    0x6b,al
  41ace6:	sub    ebx,DWORD PTR fs:[edi]
  41ace9:	and    eax,0xfbc9c98f
  41acee:	push   ss
  41acef:	pop    es
  41acf0:	push   DWORD PTR [edx+0x35]
  41acf3:	mov    ds:0x6b874b32,eax
  41acf8:	push   esi
  41acf9:	sub    eax,DWORD PTR [esi-0x2f]
  41acfc:	jl     0x41ac87
  41acfe:	sbb    al,0xaa
  41ad00:	inc    ecx
  41ad01:	lock arpl WORD PTR [ecx],cx
  41ad04:	int3   
  41ad05:	ror    BYTE PTR [edx-0x14],1
  41ad08:	addr16 push ds
  41ad0a:	jne    0x41ad1a
  41ad0c:	fwait
  41ad0d:	pop    eax
  41ad0e:	call   0x9edd:0x3f7d2f1e
  41ad15:	pop    esp
  41ad16:	pusha  
  41ad17:	jne    0x41acf5
  41ad19:	ss int 0xa0
  41ad1c:	enter  0x43bf,0x5e
  41ad20:	dec    ebp
  41ad21:	test   al,0x8d
  41ad23:	iret   
  41ad24:	loop   0x41acf4
  41ad26:	cmp    edi,esi
  41ad28:	cmp    eax,0x1cb5825b
  41ad2d:	leave  
  41ad2e:	lock push ebp
  41ad30:	and    dh,0x98
  41ad33:	jle    0x41acfc
  41ad35:	or     al,0xd9
  41ad37:	and    al,0x97
  41ad39:	stos   BYTE PTR es:[edi],al
  41ad3a:	cdq    
  41ad3b:	add    eax,0x2de83903
  41ad40:	cmps   BYTE PTR ds:[esi],BYTE PTR es:[edi]
  41ad41:	fisttp WORD PTR [esi+0x68]
  41ad44:	jmp    0xdcb6:0x458d64aa
  41ad4b:	scas   eax,DWORD PTR es:[edi]
  41ad4c:	out    0xce,eax
  41ad4e:	int3   
  41ad4f:	pop    esi
  41ad50:	cmp    esi,DWORD PTR ds:0x3ffd0e5f
  41ad56:	xchg   esi,eax
  41ad57:	inc    ebx
  41ad58:	adc    ebx,ecx
  41ad5a:	arpl   WORD PTR [ecx],cx
  41ad5c:	fwait
  41ad5d:	jecxz  0x41ad9c
  41ad5f:	jle    0x41adc2
  41ad61:	jle    0x41ad60
  41ad63:	nop
  41ad64:	rcl    eax,cl
  41ad66:	mov    ah,0xf
  41ad68:	fist   DWORD PTR [eax]
  41ad6a:	mov    eax,0x8fb2392
  41ad6f:	add    DWORD PTR [edi+0x54],esp
  41ad72:	test   bl,bh
  41ad74:	push   ds
  41ad75:	xor    esp,edx
  41ad77:	bswap  ecx
  41ad79:	ss push ebx
  41ad7b:	and    al,bl
  41ad7d:	in     eax,dx
  41ad7e:	sub    eax,0xff4b1810
  41ad83:	retf   0xc42f
  41ad86:	lds    eax,FWORD PTR [eax+0x1d]
  41ad89:	dec    edx
  41ad8a:	xor    DWORD PTR [edi],ecx
  41ad8c:	(bad)  
  41ad8d:	jnp    0x41add2
  41ad8f:	(bad)  
  41ad90:	mov    edx,0x1f9f6db9
  41ad95:	add    DWORD PTR [eax+0x3c],esi
  41ad98:	rcl    bh,1
  41ad9a:	jno    0x41ad43
  41ad9c:	sbb    al,0x61
  41ad9e:	imul   ebp,ecx,0xbf6d9381
  41ada4:	xor    dl,0x65
  41ada7:	pop    ds
  41ada8:	cmps   DWORD PTR ds:[esi],DWORD PTR es:[edi]
  41ada9:	cmp    ch,BYTE PTR [ecx]
  41adab:	adc    BYTE PTR [esi+0x7],dh
  41adae:	test   DWORD PTR [ecx+0x1f],0x30ba85a1
  41adb5:	pop    ebp
  41adb6:	ds ds inc ebp
  41adb9:	test   eax,0x81c29509
  41adbe:	test   eax,0xb11552c2
  41adc3:	cs add eax,0x72a56511
  41adc9:	ja     0x41ae45
  41adcb:	and    eax,0xfb0e33b
  41add0:	outs   dx,DWORD PTR ds:[esi]
  41add1:	mov    BYTE PTR [edx],0x9
  41add4:	cmp    al,0xb2
  41add6:	or     al,0x5e
  41add8:	push   ebp
  41add9:	das    
  41adda:	arpl   bp,bx
  41addc:	int    0x35
  41adde:	or     al,ch
  41ade0:	mov    edi,0x3710760b
  41ade5:	cmc    
  41ade6:	sbb    al,0x8b
  41ade8:	add    BYTE PTR [ebp-0x36],bh
  41adeb:	(bad)  [edx-0x1926801]
  41adf1:	jae    0x41ae17
  41adf3:	popa   
  41adf4:	test   ax,0x26f9
  41adf8:	leave  
  41adf9:	lds    esi,FWORD PTR [eax]
  41adfb:	pop    ecx
  41adfc:	fwait
  41adfd:	loope  0x41ada1
  41adff:	fist   DWORD PTR ds:[ebx]
  41ae02:	pop    ebx
  41ae03:	gs jae 0x41ae31
  41ae06:	test   al,0x6
  41ae08:	sub    ch,BYTE PTR [ebx-0x7da11dd7]
  41ae0e:	call   0x16a7f7c1
  41ae13:	jp     0x41adf8
  41ae15:	xor    ah,BYTE PTR [edx-0x17]
  41ae18:	push   ebp
  41ae19:	neg    DWORD PTR [ebp+edx*1+0xe468c2b]
  41ae20:	sbb    esp,DWORD PTR [ebp+edx*1+0x13]
  41ae24:	(bad)  
  41ae25:	hlt    
  41ae26:	scas   al,BYTE PTR es:[edi]
  41ae27:	rcr    DWORD PTR [esi],0xf1
  41ae2a:	outs   dx,BYTE PTR ds:[esi]
  41ae2b:	lds    ecx,FWORD PTR [edi]
  41ae2d:	les    ecx,FWORD PTR [edx+0x11aa22d5]
  41ae33:	xor    al,0x3d
  41ae35:	fst    QWORD PTR [eax]
  41ae37:	data16 arpl dx,si
  41ae3a:	stc    
  41ae3b:	int    0x1d
  41ae3d:	xchg   ecx,eax
  41ae3e:	mov    esp,DWORD PTR [ebx+0x1482cad2]
  41ae44:	sbb    BYTE PTR [edx+edx*2],ah
  41ae47:	or     DWORD PTR [ebx-0x47],0xe69a0af9
  41ae4e:	scas   al,BYTE PTR es:[edi]
  41ae4f:	daa    
  41ae50:	test   BYTE PTR [eax],al
  41ae52:	dec    esi
  41ae53:	push   ds
  41ae54:	and    eax,0xc2755eed
  41ae59:	dec    esp
  41ae5a:	fdiv   QWORD PTR [ecx+0x6251049d]
  41ae60:	sub    BYTE PTR [ebp+ebx*1+0x74723b1e],0xd9
  41ae68:	dec    ebx
  41ae69:	inc    eax
  41ae6a:	mov    esi,0x482f4f77
  41ae6f:	int    0x19
  41ae71:	cmp    ah,cl
  41ae73:	inc    esp
  41ae74:	lea    edx,[eax+0x21]
  41ae77:	add    ch,bl
  41ae79:	dec    edx
  41ae7a:	ret    
  41ae7b:	or     eax,0x879a886d
  41ae80:	imul   ebp,DWORD PTR [ecx],0x2d
  41ae83:	mov    esp,0x3deb7d03
  41ae88:	les    ebx,FWORD PTR [esp+ebx*2+0x61d19f9c]
  41ae8f:	jb     0x41ae18
  41ae91:	mov    edi,0xe2150dbf
  41ae96:	ins    BYTE PTR es:[edi],dx
  41ae97:	fwait
  41ae98:	push   ds
  41ae99:	sub    DWORD PTR [esi+0x29],edx
  41ae9c:	fistp  DWORD PTR [ebp+0x330e7136]
  41aea2:	cmc    
  41aea3:	cdq    
  41aea4:	mov    BYTE PTR [ecx-0x3ebfe473],ch
  41aeaa:	fcomp  DWORD PTR [ebp+0x3]
  41aead:	fld    st(7)
  41aeaf:	aad    0xcb
  41aeb1:	push   0xffffffc2
  41aeb3:	pop    es
  41aeb4:	mov    ds:0xefeb641e,eax
  41aeb9:	clc    
  41aeba:	push   ebx
  41aebb:	adc    DWORD PTR [eiz*1-0x6ee2f076],edi
  41aec2:	xchg   ebp,eax
  41aec3:	add    al,0xcc
  41aec5:	jmp    0x6f1bd7bc
  41aeca:	jne    0x41aed7
  41aecc:	in     al,dx
  41aecd:	cdq    
  41aece:	inc    esi
  41aecf:	mov    dh,0x9d
  41aed1:	lock sub al,0xc6
  41aed4:	ror    BYTE PTR [eax-0x16],1
  41aed7:	mov    ecx,ds
  41aed9:	mov    ah,0x61
  41aedb:	lds    edi,FWORD PTR [ebp-0x30]
  41aede:	retf   
  41aedf:	popa   
  41aee0:	stos   WORD PTR es:[edi],ax
  41aee2:	mov    DWORD PTR [ecx],ebp
  41aee4:	lds    esp,FWORD PTR [eax-0x7abb3a4a]
  41aeea:	enter  0xcc7e,0xe3
  41aeee:	dec    eax
  41aeef:	popf   
  41aef0:	add    ebp,edi
  41aef2:	(bad)  
  41aef3:	push   ecx
  41aef4:	dec    ebp
  41aef5:	mov    bh,0x63
  41aef7:	cli    
  41aef8:	cmp    esi,DWORD PTR [edi]
  41aefa:	jae    0x41aeee
  41aefc:	add    al,0x6b
  41aefe:	dec    esp
  41aeff:	jbe    0x41aee3
  41af01:	cmc    
  41af02:	ret    0xcf83
  41af05:	cmp    al,0x63
  41af07:	adc    eax,0x6d33675f
  41af0c:	iret   
  41af0d:	push   esi
  41af0e:	cmp    eax,0xf994be0b
  41af13:	add    ah,bl
  41af15:	icebp  
  41af16:	jnp    0x41af4c
  41af18:	sbb    BYTE PTR [ecx-0x74],bl
  41af1b:	add    BYTE PTR [edi+0x4b83611b],cl
  41af21:	test   DWORD PTR [edx],edx
  41af23:	adc    eax,0x5ce3bffe
  41af28:	rcl    DWORD PTR ds:0x75670500,cl
  41af2e:	pop    ds
  41af2f:	sub    al,BYTE PTR [edx]
  41af31:	out    0x24,al
  41af33:	call   0x81c:0x2db2b175
  41af3a:	dec    esi
  41af3b:	movs   DWORD PTR es:[edi],DWORD PTR ds:[esi]
  41af3c:	push   ds
  41af3d:	out    0x8,eax
  41af3f:	or     eax,0x3f81ace8
  41af44:	hlt    
  41af45:	inc    ebx
  41af46:	inc    edx
  41af47:	scas   eax,DWORD PTR es:[edi]
  41af48:	iret   
  41af49:	mov    BYTE PTR [eax],cl
  41af4b:	xchg   edx,eax
  41af4c:	imul   edi,DWORD PTR [ebx],0x65
  41af4f:	lods   eax,DWORD PTR ds:[esi]
  41af50:	retf   
  41af51:	bound  edi,QWORD PTR [edi+edx*8]
  41af54:	daa    
  41af55:	mov    eax,ds:0xd2dbc3ce
  41af5a:	popa   
  41af5b:	push   cs
  41af5c:	movs   DWORD PTR es:[edi],DWORD PTR ds:[esi]
  41af5d:	cmp    cl,BYTE PTR [edi+ebx*1]
  41af60:	sub    al,0x5f
  41af62:	arpl   WORD PTR [ebp-0x609026d1],si
  41af68:	shr    BYTE PTR [edx-0x3e84d237],0x1f
  41af6f:	retf   
  41af70:	retf   
  41af71:	push   ecx
  41af72:	test   al,0x63
  41af74:	adc    esp,ebp
  41af76:	xor    BYTE PTR [esi],0xeb
  41af79:	and    DWORD PTR [ecx],edx
  41af7b:	mov    eax,0xbf751f1c
  41af80:	ret    0xbdab
  41af83:	repz inc ecx
  41af85:	fs ret 0xff12
  41af89:	sub    eax,0xc19973ef
  41af8e:	pusha  
  41af8f:	icebp  
  41af90:	push   cs
  41af91:	xor    eax,0x9de65c53
  41af96:	movs   DWORD PTR es:[edi],DWORD PTR ds:[esi]
  41af97:	aas    
  41af98:	push   es
  41af99:	sbb    DWORD PTR [esi+esi*4-0x64],0xab8f5305
  41afa1:	xor    BYTE PTR [ebx+0x1d203cc],dl
  41afa7:	pop    ds
  41afa8:	sahf   
  41afa9:	paddusb mm3,mm5
  41afac:	push   ebx
  41afad:	test   eax,0x6fa59595
  41afb2:	repz mov ebp,0xb6d15563
  41afb8:	jmp    0x1cb7006c
  41afbd:	mov    dh,0x6d
  41afbf:	or     eax,0x7791ac16
  41afc4:	pop    ebp
  41afc5:	push   0x29b94e11
  41afca:	ins    BYTE PTR es:[edi],dx
  41afcb:	daa    
  41afcc:	dec    edx
  41afcd:	sub    ah,BYTE PTR [ebp+0x25]
  41afd0:	or     DWORD PTR ss:[eax+ebx*4-0x50d65a07],esi
  41afd8:	sar    BYTE PTR [ebp+0x2ab27516],cl
  41afde:	and    BYTE PTR [edi-0x19d16e9],ah
  41afe4:	popf   
  41afe5:	outs   dx,DWORD PTR ds:[esi]
  41afe6:	inc    edi
  41afe7:	pop    ecx
  41afe8:	mov    edx,0x678f9aa1
  41afed:	in     al,dx
  41afee:	cwde   
  41afef:	rcr    DWORD PTR [ebp+0x437b4f3e],1
  41aff5:	push   es
  41aff6:	or     bh,0x5b
  41aff9:	xchg   BYTE PTR [ebp+0x5d],ah
  41affc:	push   es
  41affd:	cdq    
  41affe:	dec    ebp
  41afff:	stos   DWORD PTR es:[edi],eax
  41b000:	push   cs
  41b001:	cdq    
  41b002:	fnstenv [esi]
  41b004:	in     al,dx
  41b005:	push   ecx
  41b006:	(bad)  
  41b007:	mov    ds:0x10331ba1,eax
  41b00c:	add    edi,DWORD PTR [ecx-0x2a61d604]
  41b012:	cmp    al,0x0
  41b014:	jge    0x41b06b
  41b016:	jbe    0x41b028
  41b018:	icebp  
  41b019:	jnp    0x41b014
  41b01b:	pop    ecx
  41b01c:	jmp    FWORD PTR [edi]
  41b01e:	stos   BYTE PTR es:[edi],al
  41b01f:	repz push ds
  41b021:	or     DWORD PTR [edx-0x5a],eax
  41b024:	sub    edi,DWORD PTR [ebx]
  41b026:	lods   al,BYTE PTR ds:[esi]
  41b027:	xor    eax,0x4a559de7
  41b02c:	hlt    
  41b02d:	add    esp,DWORD PTR [eax+0x69efd85]
  41b033:	or     BYTE PTR ds:0x97284b8,ah
  41b039:	lea    ecx,[eax+0xe]
  41b03c:	jmp    0x7520:0x7fa21356
  41b043:	push   cs
  41b044:	mov    ?,WORD PTR [eax+ebp*2+0x6b982a85]
  41b04b:	pop    edi
  41b04c:	loope  0x41afd8
  41b04e:	ins    DWORD PTR es:[edi],dx
  41b04f:	or     eax,0x673d7418
  41b054:	outs   dx,DWORD PTR ds:[esi]
  41b055:	xor    bl,ch
  41b057:	push   cs
  41b058:	pop    ebx
  41b059:	xchg   ecx,eax
  41b05a:	jle    0x41b0bc
  41b05c:	out    0x14,eax
  41b05e:	push   ecx
  41b05f:	push   0xade7949e
  41b064:	cmp    al,0xab
  41b066:	sbb    eax,0x2e47da76
  41b06b:	fucom  st(4)
  41b06d:	add    ch,cl
  41b06f:	cli    
  41b070:	or     al,0x5f
  41b072:	arpl   cx,sp
  41b074:	add    ecx,DWORD PTR [eax+0x11]
  41b077:	jge    0x41b048
  41b079:	or     al,bl
  41b07b:	adc    BYTE PTR [eax],cl
  41b07d:	iret   
  41b07e:	test   cl,bl
  41b080:	sbb    al,0x9d
  41b082:	jge    0x41b09d
  41b084:	inc    ebp
  41b085:	pop    ds
  41b086:	xor    eax,0x31a99102
  41b08b:	mov    esp,0x21f83b23
  41b090:	jle    0x41b04d
  41b092:	cpuid  
  41b094:	push   ecx
  41b095:	cmp    BYTE PTR [edx+0x1],ah
  41b098:	xchg   BYTE PTR [ebp-0x51],bl
  41b09b:	fst    QWORD PTR [edi]
  41b09d:	jp     0x41b024
  41b09f:	cmpxchg DWORD PTR [ebp+0x511f3e8d],ebp
  41b0a6:	movs   BYTE PTR es:[edi],BYTE PTR ds:[esi]
  41b0a7:	cld    
  41b0a8:	adc    ecx,0xcaa8539d
  41b0ae:	adc    BYTE PTR [edx],bh
  41b0b0:	adc    BYTE PTR [ecx-0xdd8525],al
  41b0b6:	imul   edi,DWORD PTR [esi+edi*8+0x7cdb22a0],0x7f516271
  41b0c1:	nop
  41b0c2:	mov    esp,0x50506b26
  41b0c7:	add    edi,DWORD PTR [esi]
  41b0c9:	sbb    al,0x4
  41b0cb:	xor    DWORD PTR [ebp-0x57],ecx
  41b0ce:	in     al,0xb6
  41b0d0:	sbb    eax,0x6ec0779e
  41b0d5:	xchg   esi,eax
  41b0d6:	pop    ebx
  41b0d7:	and    esp,ebp
  41b0d9:	sahf   
  41b0da:	jns    0x41b14a
  41b0dc:	mov    ebx,0x500b3c1
  41b0e1:	mov    ah,0xee
  41b0e3:	mov    edx,ds
  41b0e5:	enter  0x2163,0x9e
  41b0e9:	mov    eax,0xcabfefa7
  41b0ee:	lahf   
  41b0ef:	push   cs
  41b0f0:	and    al,0x5
  41b0f2:	mov    WORD PTR [edi+0x1c],?
  41b0f5:	mov    cl,0xa6
  41b0f7:	and    eax,0xaac79542
  41b0fc:	aaa    
  41b0fd:	mov    edx,0x84db3aab
  41b102:	in     eax,0xe
  41b104:	es add al,0x43
  41b107:	and    ah,BYTE PTR [eax+ebp*2-0x32]
  41b10b:	(bad)  
  41b10c:	out    0x4c,al
  41b10e:	adc    cl,BYTE PTR [eax-0x2bc9543f]
  41b114:	repnz sbb bl,0x4a
  41b118:	sti    
  41b119:	test   DWORD PTR [ebp+0x11],edx
  41b11c:	aas    
  41b11d:	or     BYTE PTR [ecx-0x364f53d7],bl
  41b123:	and    BYTE PTR [edi],bl
  41b125:	push   ecx
  41b126:	nop
  41b127:	(bad)  
  41b128:	(bad)  
  41b129:	popa   
  41b12a:	jmp    0xa3c7c36
  41b12f:	movlps xmm7,QWORD PTR [edx-0x42e20bb3]
  41b136:	xor    ah,dh
  41b138:	lods   al,BYTE PTR ds:[esi]
  41b139:	xor    al,0x1
  41b13b:	fs stc 
  41b13d:	xor    eax,0xaaab5fbd
  41b142:	push   ecx
  41b143:	movs   DWORD PTR es:[edi],DWORD PTR ds:[esi]
  41b144:	mov    edx,0xa0156d28
  41b149:	sbb    BYTE PTR [edx-0x4b],cl
  41b14c:	sbb    eax,0xd7c66891
  41b151:	pop    ebx
  41b152:	or     eax,0x54e86b80
  41b157:	and    al,0xbe
  41b159:	repz bound eax,QWORD PTR [ecx-0x17]
  41b15d:	or     dl,BYTE PTR [ebx]
  41b15f:	(bad)
  41b163:	or     BYTE PTR [esp+edx*2+0x2c],al
  41b167:	ins    BYTE PTR es:[edi],dx
  41b168:	nop
  41b169:	popf   
  41b16a:	dec    ebp
  41b16b:	xchg   edx,eax
  41b16c:	cmp    eax,0x9c1d5947
  41b171:	cmps   BYTE PTR ds:[esi],BYTE PTR es:[edi]
  41b172:	ins    BYTE PTR es:[edi],dx
  41b173:	shl    DWORD PTR [eax],cl
  41b175:	(bad)  
  41b177:	push   ds
  41b178:	mov    esi,0x5e1d6410
  41b17d:	fdivr  st(2),st
  41b17f:	stc    
  41b180:	mov    bl,0x1e
  41b182:	jae    0x41b177
  41b184:	jbe    0x41b124
  41b186:	dec    ebx
  41b187:	mov    esi,0xef45e5df
  41b18c:	xchg   BYTE PTR [ebp-0x1e507c90],ch
  41b192:	fs stc 
  41b194:	or     BYTE PTR [ecx-0x75016e86],bh
  41b19a:	js     0x41b1e6
  41b19c:	sbb    al,0x7d
  41b19e:	jle    0x41b214
  41b1a0:	(bad)  
  41b1a1:	push   edi
  41b1a2:	hlt    
  41b1a3:	mov    ds,WORD PTR ds:0xe66b005d
  41b1a9:	inc    esi
  41b1aa:	adc    al,0x4b
  41b1ac:	mov    eax,0xed9954ad
  41b1b1:	and    DWORD PTR [esi+0x781515e9],eax
  41b1b7:	mov    al,ds:0xda21f5e1
  41b1bc:	inc    edx
  41b1bd:	push   esp
  41b1be:	in     eax,0x3
  41b1c0:	repz sbb al,0x64
  41b1c3:	in     eax,dx
  41b1c4:	js     0x41b218
  41b1c6:	pop    esi
  41b1c7:	pop    es
  41b1c8:	pextrw ecx,mm1,0xf
  41b1cc:	das    
  41b1cd:	(bad)  
  41b1cf:	inc    ebp
  41b1d0:	sub    eax,0xa3ac19f8
  41b1d5:	std    
  41b1d6:	or     dl,BYTE PTR [eax]
  41b1d8:	(bad)  
  41b1d9:	jmp    0xfff:0xc30344cc
  41b1e0:	and    ebp,DWORD PTR [esi-0x8]
  41b1e3:	pushf  
  41b1e4:	adc    BYTE PTR [ecx+0x13],ch
  41b1e7:	dec    eax
  41b1e8:	das    
  41b1e9:	cmc    
  41b1ea:	xor    BYTE PTR [eax],bl
  41b1ec:	mov    DWORD PTR [eax-0x47],ecx
  41b1ef:	pop    DWORD PTR [edi]
  41b1f1:	mov    ss,WORD PTR [ebx-0x7f99dcf2]
  41b1f7:	das    
  41b1f8:	sbb    eax,0xcebc8d1
  41b1fd:	shr    DWORD PTR [ebx+0x6573edb6],1
  41b203:	call   edx
  41b205:	lods   eax,DWORD PTR ds:[esi]
  41b206:	lods   eax,DWORD PTR ds:[esi]
  41b207:	paddd  mm7,QWORD PTR [edi-0x1d]
  41b20b:	ret    0xd0a1
  41b20e:	push   eax
  41b20f:	jne    0x41b22f
  41b211:	jne    0x41b1c3
  41b213:	and    bl,al
  41b215:	fs mov ebp,0xc3b80631
  41b21b:	and    bh,BYTE PTR [ebx-0xcf00ef7]
  41b221:	cmp    DWORD PTR [edi-0x9],ecx
  41b224:	fcomp  QWORD PTR [esi-0x13]
  41b227:	leave  
  41b228:	pop    es
  41b229:	xchg   esi,eax
  41b22a:	bound  edi,QWORD PTR [ebp-0x13]
  41b22d:	cmp    BYTE PTR [ebp-0x72],bl
  41b230:	pop    ebx
  41b231:	lea    esi,[ebx+0xe136c0e]
  41b237:	push   esi
  41b238:	push   ds
  41b239:	or     eax,0x45a8bda8
  41b23e:	xor    eax,0xb938e582
  41b243:	and    al,0x6d
  41b245:	mov    al,ds:0x2ad67886
  41b24a:	pop    ebp
  41b24b:	xor    bh,BYTE PTR [edx]
  41b24d:	mov    esp,0xfc5bbf64
  41b252:	(bad)  {k1}{z}
  41b257:	stc    
  41b258:	arpl   WORD PTR [ebx+0x46],bp
  41b25b:	adc    BYTE PTR [eax-0x5911774a],bh
  41b261:	or     BYTE PTR [esi],bl
  41b263:	add    BYTE PTR [esi*1-0x2ba4a1f0],bl
  41b26a:	cmps   BYTE PTR ds:[esi],BYTE PTR es:[edi]
  41b26b:	push   ebp
  41b26c:	out    dx,eax
  41b26d:	daa    
  41b26e:	daa    
  41b26f:	push   cs
  41b270:	scas   eax,DWORD PTR es:[edi]
  41b271:	shr    BYTE PTR [edi-0x67],1
  41b274:	pop    ss
  41b275:	dec    ebp
  41b276:	inc    esp
  41b277:	fs aad 0x56
  41b27a:	icebp  
  41b27b:	pop    edi
  41b27c:	sahf   
  41b27d:	out    0xe6,al
  41b27f:	push   cs
  41b280:	fwait
  41b281:	mov    al,0xdc
  41b283:	jmp    0x41b2a1
  41b285:	fucomp st(7)
  41b287:	out    0x6,al
  41b289:	mov    DWORD PTR [edx],eax
  41b28b:	adc    BYTE PTR [ebx+0x10],al
  41b28e:	push   esi
  41b28f:	jmp    0x5ec41f94
  41b294:	movs   DWORD PTR es:[edi],DWORD PTR ds:[esi]
  41b295:	shl    ebp,1
  41b297:	and    ah,al
  41b299:	stos   DWORD PTR es:[edi],eax
  41b29a:	or     DWORD PTR [eax+0x3b968aab],0xd5fc4fda
  41b2a4:	mov    ds:0xfa0d6309,eax
  41b2a9:	(bad)  
  41b2ac:	outs   dx,DWORD PTR ds:[esi]
  41b2ad:	aaa    
  41b2ae:	mov    al,0xc
  41b2b0:	xchg   ecx,eax
  41b2b1:	mov    edi,0xa530062b
  41b2b6:	push   esi
  41b2b7:	push   ecx
  41b2b8:	aaa    
  41b2b9:	mov    WORD PTR [ecx+edi*2-0xd],fs
  41b2bd:	scas   eax,DWORD PTR es:[edi]
  41b2be:	add    ah,dh
  41b2c0:	fild   QWORD PTR [esi]
  41b2c2:	ror    BYTE PTR ds:0xfe1cea05,0x1d
  41b2c9:	jno    0x41b2b1
  41b2cb:	sbb    cl,ah
  41b2cd:	xchg   esi,eax
  41b2ce:	or     DWORD PTR [edx-0x171e5433],ebp
  41b2d4:	loope  0x41b33a
  41b2d6:	loop   0x41b352
  41b2d8:	mov    DWORD PTR [ebx-0x5554cbc6],ebp
  41b2de:	imul   ebp,DWORD PTR [ebx+edx*8+0x14],0xa95fe704
  41b2e6:	inc    ebp
  41b2e7:	xor    BYTE PTR gs:[eax+0x1e],ch
  41b2eb:	mov    DWORD PTR [ecx+0x6a],esp
  41b2ee:	adc    dh,bl
  41b2f0:	call   0xdf031592
  41b2f5:	into   
  41b2f6:	push   ss
  41b2f7:	sbb    DWORD PTR [ebx+0x2c],0x784c0f30
  41b2fe:	(bad)  [ebx+0x1c]
  41b301:	xor    ebx,edi
  41b303:	adc    esi,eax
  41b305:	lds    edx,FWORD PTR [ecx+0x35]
  41b308:	test   ah,0x3d
  41b30b:	mov    edi,0xe08c3d3
  41b310:	(bad)  
  41b311:	xchg   esi,eax
  41b312:	mov    eax,0x9fe11cab
  41b317:	call   0xabbc:0xc381f52c
  41b31e:	pop    ebp
  41b31f:	pop    esi
  41b320:	pop    ecx
  41b321:	mov    ds:0x5853a2b1,eax
  41b326:	mov    ah,BYTE PTR [edi+ebx*4-0x54de9d67]
  41b32d:	(bad)  
  41b32e:	xor    BYTE PTR [ebx+ebp*4],bh
  41b331:	lock add edx,DWORD PTR [ecx]
  41b334:	jle    0x41b36f
  41b336:	lea    esp,ds:0xf8aecd00
  41b33c:	add    DWORD PTR fs:[esi-0x1caf6d2a],0xffffffdb
  41b344:	cmp    ecx,DWORD PTR [edx+eiz*1-0x27]
  41b348:	sbb    al,0xf
  41b34a:	cmp    BYTE PTR [ebp+0x4e0e15a0],ah
  41b350:	pop    ds
  41b351:	or     DWORD PTR [eax+0x745b4a67],eax
  41b357:	mov    al,ds:0x61fda94b
  41b35c:	test   edi,ebp
  41b35e:	jno    0x41b34f
  41b360:	jmp    FWORD PTR [eax-0x3edadc16]
  41b366:	arpl   bp,bp
  41b368:	ror    DWORD PTR [eax],0xa6
  41b36b:	push   0xffffffc3
  41b36d:	loop   0x41b354
  41b36f:	(bad)  
  41b371:	mov    bh,0x75
  41b373:	ja     0x41b375
  41b375:	pop    ecx
  41b376:	jp     0x41b30e
  41b378:	das    
  41b379:	pop    esp
  41b37a:	pop    esp
  41b37b:	ret    
  41b37c:	inc    edx
  41b37d:	dec    esp
  41b37e:	mov    ds:0x60d64f17,al
  41b383:	adc    edx,ebx
  41b385:	dec    BYTE PTR [edi+0x31991c29]
  41b38b:	inc    edx
  41b38c:	movs   DWORD PTR es:[edi],DWORD PTR ds:[esi]
  41b38d:	(bad)  
  41b38f:	fadd   st,st(0)
  41b391:	lods   al,BYTE PTR ds:[esi]
  41b392:	in     eax,0x2c
  41b394:	fdiv   DWORD PTR [ecx-0x4b]
  41b397:	inc    ebp
  41b398:	pop    edi
  41b399:	adc    DWORD PTR [esi],0x69ab67e3
  41b39f:	lods   al,BYTE PTR ds:[esi]
  41b3a0:	fdecstp 
  41b3a2:	pushf  
  41b3a3:	dec    esi
  41b3a4:	and    BYTE PTR [ebp+0x513f9341],cl
  41b3aa:	fs xchg ebx,eax
  41b3ac:	cmp    eax,0x1f1112f6
  41b3b1:	leave  
  41b3b2:	cmp    DWORD PTR [esi+0x7b],esi
  41b3b5:	addr16 inc esp
  41b3b7:	jmp    0xd0a16929
  41b3bc:	pop    ebx
  41b3bd:	sti    
  41b3be:	xchg   BYTE PTR [edi],cl
  41b3c0:	or     BYTE PTR ds:0x411fcba8,dl
  41b3c6:	popf   
  41b3c7:	sbb    dh,BYTE PTR [esi-0x6328c2b]
  41b3cd:	cmps   DWORD PTR ds:[esi],DWORD PTR es:[edi]
  41b3ce:	shl    DWORD PTR [ebx],1
  41b3d0:	mov    es,WORD PTR [edx]
  41b3d2:	les    esi,FWORD PTR [ebp+0x7387e585]
  41b3d8:	push   ss
  41b3d9:	pop    ds
  41b3da:	mov    bh,0xd
  41b3dc:	mov    es,WORD PTR [eax]
  41b3de:	aas    
  41b3df:	push   0x1c
  41b3e1:	add    esi,ebx
  41b3e3:	pop    ds
  41b3e4:	aaa    
  41b3e5:	ja     0x41b410
  41b3e7:	inc    esi
  41b3e8:	pop    ebx
  41b3e9:	repnz lods al,BYTE PTR ds:[esi]
  41b3eb:	add    DWORD PTR [edx-0x4d],eax
  41b3ee:	pusha  
  41b3ef:	pop    ebx
  41b3f0:	test   cl,al
  41b3f2:	inc    esp
  41b3f3:	ret    
  41b3f4:	push   DWORD PTR [edx+0x63]
  41b3f7:	mov    eax,ds:0x1071ee82
  41b3fc:	mov    edi,DWORD PTR [eax-0x1f]
  41b3ff:	bswap  ecx
  41b401:	rcr    DWORD PTR [edx-0x76],1
  41b404:	sub    ebx,ebp
  41b406:	stos   BYTE PTR es:[edi],al
  41b407:	jns    0x41b42d
  41b409:	leave  
  41b40a:	push   ecx
  41b40b:	rcr    DWORD PTR ds:0xd175b2af,0xab
  41b412:	sbb    DWORD PTR [esi-0x36218377],eax
  41b418:	add    al,0xd9
  41b41a:	fdiv   DWORD PTR [edi]
  41b41c:	sbb    BYTE PTR [ebx+0x65],bl
  41b41f:	mov    ch,0x57
  41b421:	xchg   DWORD PTR [eax-0x69],esi
  41b424:	pop    ss
  41b425:	int3   
  41b426:	test   BYTE PTR ds:0xed62814f,bl
  41b42c:	out    0x3a,eax
  41b42e:	or     ecx,DWORD PTR ds:0xfd63d6ff
  41b434:	jb     0x41b488
  41b436:	push   eax
  41b437:	mov    edx,0xf184147
  41b43c:	pop    esi
  41b43d:	cmp    dh,dl
  41b43f:	int3   
  41b440:	pop    ebp
  41b441:	mov    ebp,0xa0c1d3af
  41b446:	out    dx,eax
  41b447:	xor    BYTE PTR [edi],ah
  41b449:	xchg   edi,eax
  41b44a:	arpl   WORD PTR [edx+0x5a6dac94],ax
  41b450:	cs dec ecx
  41b452:	xchg   ecx,eax
  41b453:	xchg   esi,eax
  41b454:	aam    0xc2
  41b456:	and    eax,0xa43900e5
  41b45b:	loop   0x41b4db
  41b45d:	and    esi,esi
  41b45f:	rep ins BYTE PTR es:[edi],dx
  41b461:	add    ah,dl
  41b463:	movs   BYTE PTR es:[edi],BYTE PTR ds:[esi]
  41b464:	pop    es
  41b465:	mov    ch,0xe
  41b467:	adc    DWORD PTR [ebx+ebx*1],edx
  41b46a:	and    esi,DWORD PTR [eax-0x7b]
  41b46d:	mov    al,ds:0x84f0ff5e
  41b472:	call   eax
  41b474:	xor    ebx,esi
  41b476:	cwde   
  41b477:	push   cs
  41b478:	push   ebp
  41b479:	test   eax,0x55b2e475
  41b47e:	lds    ecx,FWORD PTR [esi]
  41b480:	push   ecx
  41b481:	addr16 inc eax
  41b483:	adc    DWORD PTR [edx-0x737f15a5],edi
  41b489:	inc    edx
  41b48a:	movs   BYTE PTR es:[edi],BYTE PTR ds:[esi]
  41b48b:	xchg   ebp,eax
  41b48c:	sbb    esi,ecx
  41b48e:	and    BYTE PTR [edi],cl
  41b490:	mov    al,0x5
  41b492:	out    dx,eax
  41b493:	popa   
  41b494:	sbb    eax,0x772d2dc5
  41b499:	idiv   BYTE PTR [ebp+0x29]
  41b49c:	xchg   ebx,eax
  41b49d:	cmps   DWORD PTR ds:[esi],DWORD PTR es:[edi]
  41b49e:	jne    0x41b43a
  41b4a0:	out    dx,al
  41b4a1:	in     eax,0x5a
  41b4a3:	sbb    al,0xbf
  41b4a5:	imul   esp,DWORD PTR [edx],0xffffffbc
  41b4a8:	inc    esp
  41b4a9:	scas   eax,DWORD PTR es:[edi]
  41b4aa:	inc    ax
  41b4ac:	jbe    0x41b4e7
  41b4ae:	pop    ecx
  41b4af:	pop    ecx
  41b4b0:	sbb    BYTE PTR [edx+0x6e4b32b7],ch
  41b4b6:	stc    
  41b4b7:	test   cl,cl
  41b4b9:	(bad)  
  41b4ba:	cmp    al,0x81
  41b4bc:	loopne 0x41b486
  41b4be:	arpl   ax,sp
  41b4c0:	sbb    eax,0xba48b02d
  41b4c5:	ins    BYTE PTR es:[edi],dx
  41b4c6:	fcmovne st,st(5)
  41b4c8:	(bad)  
  41b4c9:	stos   BYTE PTR es:[edi],al
  41b4ca:	jno    0x41b4cf
  41b4cc:	sbb    al,BYTE PTR [ebp-0x61]
  41b4cf:	or     esp,0xc8b46cb7
  41b4d5:	xchg   edi,eax
  41b4d6:	arpl   WORD PTR [ecx],bp
  41b4d8:	loope  0x41b4de
  41b4da:	les    esp,FWORD PTR [esp+edx*1-0x14a1ea59]
  41b4e1:	mov    al,ds:0x9b02a16
  41b4e6:	out    dx,al
  41b4e7:	lahf   
  41b4e8:	sbb    eax,0x5fb93a9d
  41b4ed:	ins    BYTE PTR es:[edi],dx
  41b4ee:	mov    ebp,0x4d6dd639
  41b4f3:	add    al,0x3e
  41b4f5:	mov    bl,0x43
  41b4f7:	sub    DWORD PTR [edx],esp
  41b4f9:	ins    BYTE PTR es:[edi],dx
  41b4fa:	inc    esi
  41b4fb:	adc    bl,ah
  41b4fd:	push   ss
  41b4fe:	imul   edi,ecx,0xe5646ed9
  41b504:	mov    WORD PTR [ecx-0x4f1c3d2a],fs
  41b50a:	fisttp WORD PTR [edi]
  41b50c:	sbb    ecx,DWORD PTR [esi+eiz*1+0x57]
  41b510:	push   ds
  41b511:	in     eax,dx
  41b512:	mov    edi,0xb9109ca6
  41b517:	sbb    esp,DWORD PTR fs:[esi+0x3443aa75]
  41b51e:	out    dx,al
  41b51f:	sub    DWORD PTR [edx],ebx
  41b521:	out    dx,eax
  41b522:	int    0x45
  41b524:	mov    eax,ds:0xb506a52c
  41b529:	out    dx,al
  41b52a:	sub    BYTE PTR [ebp-0x71],dh
  41b52d:	push   ebp
  41b52e:	test   eax,0x24374e71
  41b533:	dec    esi
  41b534:	xor    esp,DWORD PTR [edx]
  41b536:	push   0xd
  41b538:	and    ebx,eax
  41b53a:	fucom  st(2)
  41b53c:	pop    ds
  41b53d:	leave  
  41b53e:	mov    esi,0xe352dd68
  41b543:	sub    BYTE PTR es:[edx+0xf9ed709],0xe6
  41b54b:	adc    eax,0xe137714b
  41b550:	jo     0x41b599
  41b552:	gs jmp 0xdffcf769
  41b558:	scas   eax,DWORD PTR es:[edi]
  41b559:	imul   ecx,DWORD PTR ds:0xf6ca67b3,0x1c
  41b561:	(bad)  
  41b562:	retf   
  41b563:	sti    
  41b564:	pop    edi
  41b565:	in     eax,0xd7
  41b567:	add    eax,esi
  41b569:	test   eax,0x44593309
  41b56e:	add    eax,0x5d782c02
  41b573:	push   esi
  41b574:	fisub  DWORD PTR [ebx]
  41b576:	in     al,dx
  41b577:	mov    esp,0xf646e00d
  41b57c:	xchg   esp,eax
  41b57d:	inc    ecx
  41b57e:	push   0xffffff8e
  41b580:	sub    al,0xa2
  41b582:	pop    ecx
  41b583:	rol    DWORD PTR [eax+0x1df6602f],cl
  41b589:	xor    dh,0xa6
  41b58c:	sbb    eax,0xd89d60c9
  41b591:	dec    edx
  41b592:	test   DWORD PTR [esi-0x51],edi
  41b595:	stos   DWORD PTR es:[edi],eax
  41b596:	imul   edi,DWORD PTR [ebp-0x2e6e331b],0xbc9023a8
  41b5a0:	ficom  WORD PTR [ebx-0x5042de9e]
  41b5a6:	jb     0x41b53d
  41b5a8:	lahf   
  41b5a9:	mov    cl,0x54
  41b5ab:	add    bh,al
  41b5ad:	lods   al,BYTE PTR ds:[esi]
  41b5ae:	retf   
  41b5af:	loope  0x41b57a
  41b5b1:	mov    al,ds:0x382357cb
  41b5b6:	popa   
  41b5b7:	lds    ebp,FWORD PTR [ecx-0x7b1a2011]
  41b5bd:	jb     0x41b634
  41b5bf:	lea    edi,[eax+0x56366200]
  41b5c5:	shl    DWORD PTR [ebx-0xa],cl
  41b5c8:	lods   eax,DWORD PTR ds:[esi]
  41b5c9:	mov    BYTE PTR [edx-0x7bb8e0bc],dl
  41b5cf:	add    DWORD PTR [esi+0x6b00ec00],edi
  41b5d5:	add    BYTE PTR [ecx],cl
  41b5d7:	cmc    
  41b5d8:	fs test eax,0xb56d27c4
  41b5de:	faddp  st(7),st
  41b5e0:	movs   DWORD PTR es:[edi],DWORD PTR ds:[esi]
  41b5e1:	sbb    ah,BYTE PTR [ebp-0x7f]
  41b5e4:	aas    
  41b5e5:	sbb    eax,0x6d9b422c
  41b5ea:	sbb    ch,dl
  41b5ec:	sahf   
  41b5ed:	ret    0x2c7e
  41b5f0:	adc    ebx,DWORD PTR [eax+ebp*2+0x6c]
  41b5f4:	adc    al,BYTE PTR [edx]
  41b5f6:	bound  edi,QWORD PTR [ebp-0x2417bd48]
  41b5fc:	xchg   DWORD PTR [ecx+edx*8-0x22],edi
  41b600:	pop    ebp
  41b601:	dec    eax
  41b602:	mov    edi,ecx
  41b604:	pushf  
  41b605:	push   ecx
  41b606:	push   esi
  41b607:	loope  0x41b5a3
  41b609:	add    eax,0x809d96c3
  41b60e:	xchg   esi,eax
  41b60f:	jb     0x41b5e4
  41b611:	fst    QWORD PTR [ebx-0x2e]
  41b614:	sahf   
  41b615:	pop    esi
  41b616:	fdiv   QWORD PTR [ebx+0x1a]
  41b619:	out    0x73,eax
  41b61b:	ss sbb eax,0x55dba55d
  41b621:	inc    eax
  41b622:	mov    ah,0xed
  41b624:	and    eax,0x8a0f2dac
  41b629:	mov    ebp,0xbc199f86
  41b62e:	mov    ds:0x64739a5f,al
  41b633:	ins    DWORD PTR es:[edi],dx
  41b634:	mov    esi,0xcfdcf0be
  41b639:	push   esi
  41b63a:	mov    dh,0xd4
  41b63c:	jmp    0x23a:0x218d
  41b642:	jecxz  0x41b638
  41b644:	pop    ss
  41b645:	pop    ebp
  41b646:	jo     0x41b636
  41b648:	ds ja  0x41b6ab
  41b64b:	adc    eax,0x8d7b5128
  41b650:	inc    edi
  41b651:	imul   esp,esi,0xd
  41b654:	jno    0x41b660
  41b656:	dec    esp
  41b657:	into   
  41b658:	pop    ds
  41b659:	cmp    esi,0x808b5224
  41b65f:	cli    
  41b660:	ins    DWORD PTR es:[edi],dx
  41b661:	scas   al,BYTE PTR es:[edi]
  41b662:	or     BYTE PTR [edx],dl
  41b664:	pop    ss
  41b665:	cmp    eax,0x535e42c3
  41b66a:	imul   ecx,DWORD PTR [ecx-0x43],0x23
  41b66e:	gs mov ah,0xcb
  41b671:	(bad)  
  41b672:	pop    ebp
  41b673:	cmp    eax,0x60221f2a
  41b678:	mov    BYTE PTR [ecx-0x5416fc99],ch
  41b67e:	cmc    
  41b67f:	xchg   ecx,eax
  41b680:	cmp    BYTE PTR [ecx],bl
  41b682:	ret    0xa290
  41b685:	push   0xdc1b8d25
  41b68a:	popa   
  41b68b:	xor    eax,0xa80aaf2f
  41b690:	aaa    
  41b691:	pushf  
  41b692:	cmp    al,0x11
  41b694:	adc    eax,0x1b9a1feb
  41b699:	inc    ebp
  41b69a:	rcr    DWORD PTR [esi+0xc],cl
  41b69d:	and    al,BYTE PTR [ebx+0x26]
  41b6a0:	or     al,0xea
  41b6a2:	bound  ebx,QWORD PTR [esi+0xe5f1667]
  41b6a8:	(bad)  
  41b6a9:	mov    dh,0xe5
  41b6ab:	jmp    0xaaabdfcc
  41b6b0:	jp     0x41b658
  41b6b2:	scas   eax,DWORD PTR es:[edi]
  41b6b3:	jo     0x41b644
  41b6b5:	test   eax,0xfdd5ec69
  41b6ba:	(bad)  
  41b6bb:	cmp    al,0x29
  41b6bd:	js     0x41b6ce
  41b6bf:	jg     0x41b6d5
  41b6c1:	sub    eax,0xf5214562
  41b6c6:	movs   BYTE PTR es:[edi],BYTE PTR ds:[esi]
  41b6c7:	push   esp
  41b6c8:	fist   WORD PTR [eax-0x24a8f379]
  41b6ce:	enter  0x14da,0xaf
  41b6d2:	(bad)  
  41b6d3:	ins    DWORD PTR es:[edi],dx
  41b6d4:	lds    ecx,FWORD PTR [edx+0x2ada565]
  41b6da:	fisttp QWORD PTR [ebx+edi*8+0x3d023ed3]
  41b6e1:	or     ebp,esp
  41b6e3:	test   DWORD PTR [ecx],0xad02053f
  41b6e9:	adc    al,0x64
  41b6eb:	mov    ch,0x13
  41b6ed:	ds (bad) 
  41b6ef:	cmp    ecx,eax
  41b6f1:	adc    edi,DWORD PTR [esi]
  41b6f3:	into   
  41b6f4:	pop    ds
  41b6f5:	sbb    al,0x2e
  41b6f7:	push   cs
  41b6f8:	int3   
  41b6f9:	adc    dh,BYTE PTR [edi]
  41b6fb:	mov    edx,0x5c96711f
  41b700:	inc    edi
  41b701:	push   0xffffffe8
  41b703:	js     0x41b695
  41b705:	movs   DWORD PTR es:[edi],DWORD PTR ds:[esi]
  41b706:	inc    ebp
  41b707:	mov    bh,BYTE PTR [edi-0x18]
  41b70a:	loop   0x41b748
  41b70c:	int    0xcb
  41b70e:	gs cli 
  41b710:	in     al,dx
  41b711:	iret   
  41b712:	pop    edi
  41b713:	jae    0x41b6b8
  41b715:	call   0x2364:0x1c5cf2ab
  41b71c:	xor    BYTE PTR [edi-0x67],ch
  41b71f:	fs jb  0x41b799
  41b722:	push   ecx
  41b723:	fst    QWORD PTR [ebx-0x65]
  41b726:	popa   
  41b727:	bnd jp 0x41b751
  41b72a:	jmp    0x643620be
  41b72f:	inc    ecx
  41b730:	leave  
  41b731:	sar    ebp,cl
  41b733:	jb     0x41b770
  41b735:	fadd   QWORD PTR [ebx]
  41b737:	add    al,BYTE PTR [edx-0x1a]
  41b73a:	mov    esp,0x8536e760
  41b73f:	stc    
  41b740:	adc    edi,DWORD PTR ds:0x130219aa
  41b746:	in     al,dx
  41b747:	ret    
  41b748:	mov    ah,0x29
  41b74a:	jns    0x41b77b
  41b74c:	fwait
  41b74d:	and    BYTE PTR [edi+0x10],dl
  41b750:	xchg   ecx,eax
  41b751:	fld    DWORD PTR [edi+0x71]
  41b754:	push   ds
  41b755:	in     eax,0x41
  41b757:	in     eax,dx
  41b758:	pop    esp
  41b759:	xchg   esi,eax
  41b75a:	scas   al,BYTE PTR es:[edi]
  41b75b:	(bad)  
  41b75c:	lods   eax,DWORD PTR ds:[esi]
  41b75d:	lods   al,BYTE PTR ds:[esi]
  41b75e:	jno    0x41b71c
  41b760:	add    bh,ch
  41b762:	xlat   BYTE PTR ds:[ebx]
  41b763:	xchg   edi,eax
  41b764:	mov    bl,0x67
  41b766:	xchg   edi,eax
  41b767:	std    
  41b768:	ja     0x41b6f0
  41b76a:	fs mov ecx,0xb5a164e6
  41b770:	aaa    
  41b771:	(bad)  
  41b772:	cmp    BYTE PTR [ecx],dl
  41b774:	retf   0xda40
  41b777:	jnp    0x41b797
  41b779:	cmc    
  41b77a:	sub    dh,ch
  41b77c:	scas   eax,DWORD PTR es:[edi]
  41b77d:	mov    ecx,DWORD PTR [esi+0x1e2005b]
  41b783:	inc    edi
  41b784:	out    dx,eax
  41b785:	ja     0x41b7a9
  41b787:	adc    BYTE PTR [ecx+0x2e],cl
  41b78a:	lds    ebx,FWORD PTR [esi]
  41b78c:	pop    ds
  41b78d:	or     eax,0xaf157392
  41b792:	jmp    0xd04b:0xc1ab3dc1
  41b799:	mov    bl,0xb6
  41b79b:	mov    edx,DWORD PTR [eax]
  41b79d:	xor    bh,ah
  41b79f:	pop    esp
  41b7a0:	mov    ah,0xa9
  41b7a2:	imul   edi,DWORD PTR [ebx+edx*8+0x1a],0xffffffe9
  41b7a7:	sbb    dh,BYTE PTR [ebx+ebp*4]
  41b7aa:	xor    esp,0xf11174b7
  41b7b0:	xchg   dl,cl
  41b7b2:	or     ecx,DWORD PTR [ebp+0x712a5a28]
  41b7b8:	pop    ds
  41b7b9:	rcr    BYTE PTR ds:[esi+0x65c81dad],1
  41b7c0:	push   edi
  41b7c1:	ficom  DWORD PTR [ebx-0x73ee21f0]
  41b7c7:	pop    edx
  41b7c8:	inc    esp
  41b7c9:	and    DWORD PTR [ecx+0x61f18a8b],ebp
  41b7cf:	aad    0x8c
  41b7d1:	xchg   ecx,eax
  41b7d2:	mov    al,ds:0xc1133bff
  41b7d7:	push   cs
  41b7d8:	test   al,0xc5
  41b7da:	pop    ebp
  41b7db:	imul   ebx,DWORD PTR ds:0x986405fd,0xa033626
  41b7e5:	cmp    BYTE PTR [ecx-0x7248198d],0x4c
  41b7ec:	fld    QWORD PTR [eax]
  41b7ee:	bound  esi,QWORD PTR [ecx]
  41b7f0:	sbb    eax,0x179a4b49
  41b7f5:	mov    eax,ds:0xa93c9aa2
  41b7fa:	mov    eax,ds:0xf0e4fe1
  41b7ff:	jbe    0x41b7ae
  41b801:	addr16 push ss
  41b803:	xor    BYTE PTR [eax-0x57],0x71
  41b807:	dec    eax
  41b808:	gs mov ebx,0xadf5e7b7
  41b80e:	sbb    cl,dh
  41b810:	loope  0x41b7c2
  41b812:	adc    eax,0x7b990bdf
  41b817:	(bad)  
  41b818:	sti    
  41b819:	stos   BYTE PTR es:[edi],al
  41b81a:	cdq    
  41b81b:	xchg   esp,eax
  41b81c:	jns    0x41b812
  41b81e:	add    BYTE PTR [edi+ebx*1],ah
  41b821:	sbb    eax,ebx
  41b823:	adc    edi,DWORD PTR [ebp+0x4c]
  41b826:	pop    ecx
  41b827:	into   
  41b828:	fsubr  DWORD PTR [ecx-0x5a5e8bb7]
  41b82e:	imul   esi,DWORD PTR [edx],0xc745892f
  41b834:	mov    ebx,0xd0596574
  41b839:	jb     0x41b85f
  41b83b:	adc    ebx,esi
  41b83d:	aas    
  41b83e:	leave  
  41b83f:	and    ebx,DWORD PTR [edi+edi*4]
  41b842:	jnp    0x41b80e
  41b844:	movs   DWORD PTR es:[edi],DWORD PTR ds:[esi]
  41b845:	jae    0x41b7f6
  41b847:	and    dl,BYTE PTR [ebp-0x7acf1e1f]
  41b84d:	in     eax,0x9e
  41b84f:	cmps   DWORD PTR ds:[esi],DWORD PTR es:[edi]
  41b850:	addr16 out dx,eax
  41b852:	dec    eax
  41b853:	rcr    DWORD PTR [esi+0xae464f9],1
  41b859:	pop    ebp
  41b85a:	add    eax,0xc1dc13b3
  41b85f:	cmp    eax,0x1638035
  41b864:	sbb    dh,BYTE PTR [edi+0x6e0065f2]
  41b86a:	xchg   edi,eax
  41b86b:	sbb    eax,0x2d63e0f9
  41b870:	or     eax,0x37db1361
  41b875:	leave  
  41b876:	inc    esi
  41b877:	daa    
  41b878:	xchg   edx,eax
  41b879:	jmp    0x41b8dd
  41b87b:	fistp  DWORD PTR [edx-0x61]
  41b87e:	sub    al,0x36
  41b880:	dec    ecx
  41b881:	movs   BYTE PTR es:[edi],BYTE PTR ds:[esi]
  41b882:	daa    
  41b883:	imul   esp,esp,0xef0d6c5f
  41b889:	sub    eax,0xaa0523f9
  41b88e:	fdivr  st(2),st
  41b890:	cli    
  41b891:	enter  0x7d76,0xa5
  41b895:	movs   BYTE PTR es:[edi],BYTE PTR ds:[esi]
  41b896:	and    edx,DWORD PTR [edi-0x77b07af0]
  41b89c:	stos   BYTE PTR es:[edi],al
  41b89d:	int3   
  41b89e:	inc    ecx
  41b89f:	push   0xff09aa3f
  41b8a4:	outs   dx,BYTE PTR ss:[esi]
  41b8a6:	repz in al,0x97
  41b8a9:	cwde   
  41b8aa:	sbb    eax,0x629da9d3
  41b8af:	sub    eax,0xbb5bb09f
  41b8b4:	arpl   cx,sp
  41b8b6:	or     eax,0xcbd25810
  41b8bb:	pop    ebx
  41b8bc:	push   ds
  41b8bd:	shl    DWORD PTR [ecx-0x5e],1
  41b8c0:	mov    eax,ds:0x5626ff2a
  41b8c5:	stos   BYTE PTR es:[edi],al
  41b8c6:	jmp    0x9359353e
  41b8cb:	cmp    edx,0x1dc41d9f
  41b8d1:	dec    ecx
  41b8d2:	mov    esp,0xa234dff1
  41b8d7:	out    dx,al
  41b8d8:	sbb    ebp,DWORD PTR [edx-0x59ac2d33]
  41b8de:	dec    ebp
  41b8df:	fwait
  41b8e0:	mov    esi,0x91f7b4ac
  41b8e5:	loop   0x41b94a
  41b8e7:	sub    DWORD PTR [ebx],eax
  41b8e9:	mov    edi,0x96fb7100
  41b8ee:	into   
  41b8ef:	aad    0x70
  41b8f1:	mov    ds:0x85af78f9,al
  41b8f6:	gs dec ecx
  41b8f8:	ins    DWORD PTR es:[edi],dx
  41b8f9:	mov    ecx,0x3d05f87b
  41b8fe:	fs inc ebp
  41b900:	inc    edx
  41b901:	pop    esi
  41b902:	or     al,0x3c
  41b904:	mov    esi,DWORD PTR [edi+0x7beb0e50]
  41b90a:	inc    edx
  41b90b:	pop    ebp
  41b90c:	sbb    al,0x89
  41b90e:	sbb    cl,BYTE PTR [edi+0x3d]
  41b911:	loopne 0x41b930
  41b913:	adc    eax,edx
  41b915:	and    al,BYTE PTR [esi]
  41b917:	ret    0x4cdf
  41b91a:	mov    DWORD PTR [edi+0x4b7bfeb],esi
  41b920:	ds (bad) 
  41b922:	sbb    edx,DWORD PTR [edi+0x1c]
  41b925:	movs   DWORD PTR es:[edi],DWORD PTR ds:[esi]
  41b926:	hlt    
  41b927:	or     al,0xa7
  41b929:	lea    edx,ss:[edi-0x25]
  41b92d:	lods   al,BYTE PTR ds:[esi]
  41b92e:	and    eax,0xa73a3e83
  41b933:	pop    ebx
  41b934:	sbb    bl,dl
  41b936:	or     DWORD PTR [edi+0x1f],edi
  41b939:	lods   eax,DWORD PTR ds:[esi]
  41b93a:	xchg   BYTE PTR [ebx+0x4b],ch
  41b93d:	out    dx,al
  41b93e:	push   0xe5ad1468
  41b943:	(bad)  
  41b944:	out    0xb4,al
  41b946:	(bad)  
  41b947:	adc    cl,bl
  41b949:	pop    ebp
  41b94a:	jmp    0xec163935
  41b94f:	hlt    
  41b950:	bound  esp,QWORD PTR [ecx+0x63]
  41b953:	(bad)  
  41b954:	ins    BYTE PTR es:[edi],dx
  41b955:	test   eax,0x10868fcd
  41b95a:	and    eax,0xbecdde85
  41b95f:	push   edi
  41b960:	sbb    eax,0x12a162c8
  41b965:	jbe    0x41b94d
  41b967:	daa    
  41b968:	aaa    
  41b969:	inc    ebp
  41b96a:	out    dx,eax
  41b96b:	push   cs
  41b96c:	sbb    edx,esi
  41b96e:	not    DWORD PTR [ebx+0x2f099503]
  41b974:	les    eax,FWORD PTR [edi]
  41b976:	(bad)  
  41b977:	and    bl,BYTE PTR [ebp*1+0x6757447d]
  41b97e:	cmc    
  41b97f:	ds jnp 0x41b9c9
  41b982:	in     eax,dx
  41b983:	or     eax,0xf51adc20
  41b988:	in     al,dx
  41b989:	cmps   DWORD PTR ds:[esi],DWORD PTR es:[edi]
  41b98a:	lods   al,BYTE PTR ds:[esi]
  41b98b:	adc    edi,ebx
  41b98d:	test   al,0x41
  41b98f:	push   ds
  41b990:	sub    BYTE PTR ds:[ecx],bh
  41b993:	inc    eax
  41b994:	pop    ebp
  41b995:	cmp    BYTE PTR [esi+ebp*2+0x3f],0x3b
  41b99a:	out    dx,eax
  41b99b:	add    ebp,DWORD PTR [esi-0x6f]
  41b99e:	sub    DWORD PTR [edi-0x7a7d1f72],ebx
  41b9a4:	sub    DWORD PTR [ecx+0x62],ebx
  41b9a7:	pop    ecx
  41b9a8:	mov    ecx,0x47c91fda
  41b9ad:	aam    0x49
  41b9af:	adc    BYTE PTR [ebx+0x370a4de],ah
  41b9b5:	cmc    
  41b9b6:	test   eax,0xebaf5224
  41b9bb:	outs   dx,DWORD PTR ds:[esi]
  41b9bc:	mov    cl,0xfd
  41b9be:	loop   0x41b9ed
  41b9c0:	pop    ebx
  41b9c1:	jp     0x41b99b
  41b9c3:	jp     0x41b946
  41b9c5:	pop    edi
  41b9c6:	arpl   WORD PTR [eax+0x7],sp
  41b9c9:	(bad)  
  41b9ca:	fs inc ebp
  41b9cc:	imul   esp,eax,0xffffffef
  41b9cf:	into   
  41b9d0:	jnp    0x41b9e3
  41b9d2:	xchg   DWORD PTR ds:0x6cf84412,ecx
  41b9d8:	sbb    al,0x35
  41b9da:	test   al,0xb4
  41b9dc:	cmp    BYTE PTR [eax-0x32],0x3e
  41b9e0:	jmp    0x41b98e
  41b9e2:	sub    eax,0xa51ddd33
  41b9e7:	pop    ecx
  41b9e8:	push   cs
  41b9e9:	xchg   edx,eax
  41b9ea:	mov    al,ds:0x91a51c99
  41b9ef:	sti    
  41b9f0:	add    dl,BYTE PTR [eax]
  41b9f2:	adc    eax,0x55abe48f
  41b9f7:	adc    al,0x39
  41b9f9:	mov    edx,0x27fe1671
  41b9fe:	jle    0x41b998
  41ba00:	pop    esp
  41ba01:	sahf   
  41ba02:	fs icebp 
  41ba04:	fimul  DWORD PTR ds:0x511b60be
  41ba0a:	mov    cl,0x10
  41ba0c:	or     bl,BYTE PTR [ebp-0x4a]
  41ba0f:	xchg   ebx,eax
  41ba10:	pop    ds
  41ba11:	cmc    
  41ba12:	xchg   esi,eax
  41ba13:	mov    esp,0xa8166eed
  41ba18:	inc    ecx
  41ba19:	lods   al,BYTE PTR ds:[esi]
  41ba1a:	add    eax,0x85ebe3e5
  41ba1f:	fst    QWORD PTR [ebp-0x1d]
  41ba22:	scas   al,BYTE PTR es:[edi]
  41ba23:	aam    0x9e
  41ba25:	cld    
  41ba26:	arpl   WORD PTR [ebp+0xde9b1b],bp
  41ba2c:	dec    edi
  41ba2d:	fs cmp eax,0x3033210e
  41ba33:	std    
  41ba34:	push   ds
  41ba35:	lea    ebp,[edi-0x2ac82e35]
  41ba3b:	call   0xc66c:0x7cf9a535
  41ba42:	call   0xa359:0x9fff0cfb
  41ba49:	push   0x63
  41ba4b:	cmp    eax,0xf04daa76
  41ba50:	sub    esp,ebp
  41ba52:	fst    QWORD PTR [ecx]
  41ba54:	stc    
  41ba55:	arpl   WORD PTR [ecx],ax
  41ba57:	mov    ecx,0x11642a65
  41ba5c:	add    eax,0xb3751683
  41ba61:	lods   eax,DWORD PTR ds:[esi]
  41ba62:	push   ds
  41ba63:	adc    DWORD PTR [ebp+0x1cf32d3c],ecx
  41ba69:	mov    eax,ds:0xd8302243
  41ba6e:	mov    cl,0x5b
  41ba70:	sti    
  41ba71:	popf   
  41ba72:	popa   
  41ba73:	test   al,0xf5
  41ba75:	mov    ch,0xd2
  41ba77:	sete   cl
  41ba7a:	xchg   esp,eax
  41ba7b:	adc    cl,BYTE PTR [ebx+0x58]
  41ba7e:	jmp    0xabae1190
  41ba83:	clc    
  41ba84:	inc    ebx
  41ba85:	mov    al,ds:0xe6a90ddd
  41ba8a:	and    al,0xe7
  41ba8c:	pop    ds
  41ba8d:	jmp    0x7ea0817b
  41ba92:	adc    eax,0x2d3c71b0
  41ba97:	sbb    al,0x10
  41ba99:	sahf   
  41ba9a:	fwait
  41ba9b:	mov    DWORD PTR [ebp+0x30],esi
  41ba9e:	std    
  41ba9f:	test   BYTE PTR [edi+0x7c3e44d6],ah
  41baa5:	jno    0x41bb0a
  41baa7:	std    
  41baa8:	stos   DWORD PTR es:[edi],eax
  41baa9:	sub    al,0x6c
  41baab:	in     eax,dx
  41baac:	mov    ebp,DWORD PTR [edx-0xf8f0b00]
  41bab2:	scas   al,BYTE PTR es:[edi]
  41bab3:	lock inc ebp
  41bab5:	sbb    al,0x67
  41bab7:	(bad)  
  41bab9:	mov    ah,0x22
  41babb:	int    0x6e
  41babd:	jnp    0x41bb24
  41babf:	(bad)  [esi+0x4c6677a4]
  41bac5:	cmps   DWORD PTR ds:[esi],DWORD PTR es:[edi]
  41bac6:	mov    DWORD PTR [eax+0x74],edx
  41bac9:	push   cs
  41baca:	sbb    BYTE PTR [ebp+0xa],al
  41bacd:	out    0xab,al
  41bacf:	sar    al,cl
  41bad1:	nop
  41bad2:	dec    esi
  41bad3:	jno    0x41badc
  41bad5:	outs   dx,DWORD PTR ds:[esi]
  41bad6:	arpl   WORD PTR [ecx-0x1716829c],si
  41badc:	out    dx,eax
  41badd:	or     eax,0x9e6c0e43
  41bae2:	fwait
  41bae3:	jns    0x41bb1e
  41bae5:	mov    ah,0x79
  41bae7:	js     0x41bb28
  41bae9:	pop    ebx
  41baea:	stos   DWORD PTR es:[edi],eax
  41baeb:	setno  BYTE PTR [eax]
  41baee:	adc    BYTE PTR [edi+0x6dd9a9e4],al
  41baf4:	add    dl,dl
  41baf6:	iret   
  41baf7:	(bad)
  41bafb:	and    eax,0xd1639fc2
  41bb00:	sub    dh,bh
  41bb02:	xor    ch,BYTE PTR [edi+ecx*4+0x60f494f4]
  41bb09:	sub    al,0x61
  41bb0b:	inc    edx
  41bb0c:	lock xchg DWORD PTR [eax+0x63e4c102],esp
  41bb13:	or     DWORD PTR [ebx-0x47],esp
  41bb16:	ror    BYTE PTR [ebp+0x43],0x62
  41bb1a:	xchg   ebx,eax
  41bb1b:	or     eax,0xde4758f4
  41bb20:	pop    ds
  41bb21:	lea    ecx,[ebx-0x51]
  41bb24:	imul   ecx,DWORD PTR [edi+0x2e],0x1ac5621
  41bb2b:	ss hlt 
  41bb2d:	pop    edx
  41bb2e:	push   ecx
  41bb2f:	leave  
  41bb30:	jnp    0x41bad9
  41bb32:	or     eax,0x1fcf343
  41bb37:	(bad)  
  41bb38:	cli    
  41bb39:	test   eax,0x2dc7d0b9
  41bb3e:	sub    edi,eax
  41bb40:	out    dx,eax
  41bb41:	dec    eax
  41bb42:	je     0x41bb46
  41bb44:	or     cl,BYTE PTR [edx]
  41bb46:	pop    ds
  41bb47:	mov    ah,0x1c
  41bb49:	mov    al,0x64
  41bb4b:	pop    edi
  41bb4c:	cmp    al,0x2d
  41bb4e:	pop    esi
  41bb4f:	dec    ebp
  41bb50:	sbb    ebx,esi
  41bb52:	jo     0x41bbbe
  41bb54:	ins    DWORD PTR es:[edi],dx
  41bb55:	shl    BYTE PTR [ecx+0x2f],1
  41bb58:	fidiv  WORD PTR [esp+edx*8-0x37]
  41bb5c:	cli    
  41bb5d:	jbe    0x41bbc3
  41bb5f:	sub    eax,0x91180fe0
  41bb64:	cmps   BYTE PTR ds:[esi],BYTE PTR es:[edi]
  41bb65:	stos   DWORD PTR es:[edi],eax
  41bb66:	test   DWORD PTR ds:0x188a577e,ebp
  41bb6c:	or     BYTE PTR [esi],dh
  41bb6e:	hlt    
  41bb6f:	pop    ds
  41bb70:	mov    es,WORD PTR [edx+0x48]
  41bb73:	sub    eax,0x1f8f331e
  41bb78:	loope  0x41bb42
  41bb7a:	pusha  
  41bb7b:	adc    BYTE PTR ds:0xe851b1f5,0x66
  41bb82:	movs   BYTE PTR es:[edi],BYTE PTR ds:[esi]
  41bb83:	pop    es
  41bb84:	mov    ah,0x84
  41bb86:	loop   0x41bb79
  41bb88:	sbb    eax,esp
  41bb8a:	sub    bl,BYTE PTR ds:0x91146997
  41bb90:	cmps   DWORD PTR ds:[esi],DWORD PTR es:[edi]
  41bb91:	test   eax,0x3eca38f9
  41bb96:	push   0xffffffc5
  41bb98:	test   DWORD PTR [ebx+0x74709462],esi
  41bb9e:	gs test eax,0x39206ba
  41bba4:	dec    edx
  41bba5:	stos   BYTE PTR es:[edi],al
  41bba6:	fstp   DWORD PTR [esi]
  41bba8:	pop    es
  41bba9:	xor    BYTE PTR [esi+0x14],dh
  41bbac:	xchg   edx,eax
  41bbad:	mov    ecx,0x627307a7
  41bbb2:	add    DWORD PTR fs:[ecx],eax
  41bbb5:	mov    eax,0x95f28de9
  41bbba:	sar    DWORD PTR [edi],0x49
  41bbbd:	les    edi,FWORD PTR [esi]
  41bbbf:	ret    0xf54c
  41bbc2:	or     ecx,DWORD PTR [edx]
  41bbc4:	xor    BYTE PTR [ecx*8-0x5f9ee376],ch
  41bbcb:	pop    edi
  41bbcc:	fmul   QWORD PTR [edi-0x54372731]
  41bbd2:	or     DWORD PTR [edx-0x3a0057bf],ecx
  41bbd8:	test   BYTE PTR [edi+0x71],bl
  41bbdb:	or     eax,0x5dbd8b98
  41bbe0:	sub    BYTE PTR [edx+0x930bfa3],dh
  41bbe6:	loop   0x41bbd4
  41bbe8:	aas    
  41bbe9:	dec    esi
  41bbea:	ror    BYTE PTR [edi],cl
  41bbec:	push   ecx
  41bbed:	stos   DWORD PTR es:[edi],eax
  41bbee:	dec    esi
  41bbef:	pop    edi
  41bbf0:	sbb    eax,0x9c14d4c5
  41bbf5:	inc    ebx
  41bbf6:	and    eax,0xe9a92454
  41bbfb:	pop    esp
  41bbfc:	scas   al,BYTE PTR es:[edi]
  41bbfd:	and    bl,BYTE PTR [edi]
  41bbff:	mov    al,0xbf
  41bc01:	mov    dl,0x42
  41bc03:	aam    0xe2
  41bc05:	jbe    0x41bc69
  41bc07:	mov    ch,0xd9
  41bc09:	not    BYTE PTR [eax-0x3f]
  41bc0c:	repz push es
  41bc0e:	and    BYTE PTR [esi],cl
  41bc10:	inc    ecx
  41bc11:	shr    BYTE PTR [edi+0x10],cl
  41bc14:	pop    ds
  41bc15:	std    
  41bc16:	mul    DWORD PTR [ebx+0x42ca37b8]
  41bc1c:	xchg   edi,eax
  41bc1d:	popf   
  41bc1e:	movs   DWORD PTR es:[edi],DWORD PTR ds:[esi]
  41bc1f:	pusha  
  41bc20:	push   edi
  41bc21:	mov    al,ds:0xb25d2387
  41bc26:	dec    ebx
  41bc27:	jmp    0x95a7:0x7c82ad2e
  41bc2e:	gs stc 
  41bc30:	movs   DWORD PTR es:[edi],DWORD PTR ds:[esi]
  41bc31:	jnp    0x41bc38
  41bc33:	dec    edx
  41bc34:	pop    ebx
  41bc35:	retf   
  41bc36:	aad    0xe
  41bc38:	(bad)  
  41bc39:	mov    BYTE PTR [eax+0x39],ch
  41bc3c:	push   ds
  41bc3d:	inc    ebp
  41bc3e:	pop    ds
  41bc3f:	jge    0x41bc1e
  41bc41:	rol    DWORD PTR [esi+0x6d],1
  41bc44:	pop    ecx
  41bc45:	test   eax,0x11894725
  41bc4a:	add    DWORD PTR [edx+0x414320cf],edx
  41bc50:	hlt    
  41bc51:	and    DWORD PTR [ebx-0x77],esp
  41bc54:	fxch   st(1)
  41bc56:	lods   al,BYTE PTR ds:[esi]
  41bc57:	fs push ebx
  41bc59:	in     eax,0x2b
  41bc5b:	push   cs
  41bc5c:	std    
  41bc5d:	push   edi
  41bc5e:	mov    ch,0x76
  41bc60:	sbb    eax,0x249d9ba1
  41bc65:	gs aaa 
  41bc67:	lods   al,BYTE PTR ds:[esi]
  41bc68:	icebp  
  41bc69:	lods   al,BYTE PTR ds:[esi]
  41bc6a:	in     eax,dx
  41bc6b:	sub    al,BYTE PTR [ebx-0x4c]
  41bc6e:	or     BYTE PTR [ebp-0x1769d5d1],0x19
  41bc75:	push   eax
  41bc76:	int    0xf4
  41bc78:	sbb    al,0xc9
  41bc7a:	in     al,dx
  41bc7b:	je     0x41bc8e
  41bc7d:	fadd   st,st(4)
  41bc7f:	je     0x41bc5c
  41bc81:	es mov ah,0xd
  41bc84:	xor    BYTE PTR [ebx+0x5f],al
  41bc87:	sbb    BYTE PTR [esi],0xbd
  41bc8a:	xor    dh,BYTE PTR [ecx]
  41bc8c:	nop
  41bc8d:	repz cwde 
  41bc8f:	lock adc eax,0x838264f4
  41bc95:	test   eax,0xb5490299
  41bc9a:	jecxz  0x41bc95
  41bc9c:	push   ds
  41bc9d:	sub    DWORD PTR [esi],esi
  41bc9f:	fcomip st,st(5)
  41bca1:	pop    ds
  41bca2:	inc    ecx
  41bca3:	cwde   
  41bca4:	jns    0x41bc52
  41bca6:	int    0x0
  41bca8:	jmp    0xc1a0ed0e
  41bcad:	and    al,0x41
  41bcaf:	jnp    0x41bcfc
  41bcb1:	cmp    esp,DWORD PTR [ebx-0x4f]
  41bcb4:	test   DWORD PTR [ebp-0x67],ebp
  41bcb7:	frstor [ebx+0x730f121f]
  41bcbd:	pop    eax
  41bcbe:	and    ah,BYTE PTR [ebx]
  41bcc0:	pop    ds
  41bcc1:	xor    DWORD PTR [edi],edx
  41bcc3:	jbe    0x41bcee
  41bcc5:	mov    ?,WORD PTR [edx]
  41bcc7:	retf   0xecfe
  41bcca:	retf   0x3f1d
  41bccd:	arpl   WORD PTR [ebx+ebx*4+0xd9e07c3],dx
  41bcd4:	push   eax
  41bcd5:	inc    eax
  41bcd6:	scas   al,BYTE PTR es:[edi]
  41bcd7:	sti    
  41bcd8:	mov    ecx,DWORD PTR [ecx]
  41bcda:	fs xchg ecx,eax
  41bcdc:	dec    esi
  41bcdd:	mov    BYTE PTR [eax+eiz*4],ah
  41bce0:	pop    ebx
  41bce1:	cld    
  41bce2:	push   ebp
  41bce3:	push   cs
  41bce4:	push   0x4c
  41bce6:	cmp    DWORD PTR [eax+0x12],ebx
  41bce9:	sar    DWORD PTR [edx-0x37],1
  41bcec:	cmp    DWORD PTR [edi+0x6bc143e2],esp
  41bcf2:	movs   BYTE PTR es:[edi],BYTE PTR ds:[esi]
  41bcf3:	lea    ebp,[edi]
  41bcf5:	addr16 pop ecx
  41bcf7:	mov    ah,0x3b
  41bcf9:	fisubr WORD PTR [ecx]
  41bcfb:	adc    BYTE PTR [esi+edx*2-0xede6a8a],bh
  41bd02:	bound  edi,QWORD PTR [ecx+0x3b3bf8b1]
  41bd08:	jmp    DWORD PTR [edx]
  41bd0a:	or     al,0xd2
  41bd0c:	add    BYTE PTR [ecx],bh
  41bd0e:	mov    WORD PTR [ebp+0x4dba49b8],?
  41bd14:	push   es
  41bd15:	jne    0x41bd8c
  41bd17:	js     0x41bd84
  41bd19:	adc    eax,0x28aa8725
  41bd1e:	inc    ebp
  41bd1f:	scas   al,BYTE PTR es:[edi]
  41bd20:	jbe    0x41bd28
  41bd22:	push   edi
  41bd23:	popa   
  41bd24:	cmp    al,0x7e
  41bd26:	cmc    
  41bd27:	cwde   
  41bd28:	pop    ds
  41bd29:	jge    0x41bcf6
  41bd2b:	(bad)
  41bd2e:	ins    BYTE PTR es:[edi],dx
  41bd2f:	inc    ebp
  41bd30:	stos   DWORD PTR es:[edi],eax
  41bd31:	out    0xc3,al
  41bd33:	stos   DWORD PTR es:[edi],eax
  41bd34:	(bad)  [ebx+0x6fac5089]
  41bd3a:	cs pop esi
  41bd3c:	xchg   edi,eax
  41bd3d:	fstp   QWORD PTR [edx+0x65379ed8]
  41bd43:	dec    ebp
  41bd44:	scas   eax,DWORD PTR es:[edi]
  41bd45:	in     eax,dx
  41bd46:	and    eax,0x2a0a331
  41bd4b:	adc    bl,cl
  41bd4d:	lahf   
  41bd4e:	cdq    
  41bd4f:	adc    ebx,DWORD PTR [ecx+esi*4]
  41bd52:	mov    ah,BYTE PTR [esi+0x2c]
  41bd55:	bound  esi,QWORD PTR [ecx]
  41bd57:	movs   BYTE PTR es:[edi],BYTE PTR ds:[esi]
  41bd58:	mov    esi,0x37f23daa
  41bd5d:	jmp    0x5a20:0x6ad9b0a5
  41bd64:	in     al,dx
  41bd65:	shr    BYTE PTR [eax],0x1
  41bd68:	mov    ah,0xb0
  41bd6a:	mov    BYTE PTR [eax],dl
  41bd6c:	es stos DWORD PTR es:[edi],eax
  41bd6e:	lods   eax,DWORD PTR ds:[esi]
  41bd6f:	inc    ebx
  41bd70:	dec    ebx
  41bd71:	and    DWORD PTR [ebx+0x4bb6a696],esp
  41bd77:	ss (bad) 
  41bd79:	lea    esp,[ecx+ebx*8+0x28]
  41bd7d:	adc    edx,eax
  41bd7f:	hlt    
  41bd80:	adc    ecx,DWORD PTR [ebx+0x6f870fa1]
  41bd86:	mov    ebx,0xcee51ffc
  41bd8b:	inc    ecx
  41bd8c:	pop    esp
  41bd8d:	rcr    dl,0xfe
  41bd90:	dec    edi
  41bd91:	mov    ecx,0xba7b26a5
  41bd96:	(bad)  
  41bd97:	xchg   ebp,eax
  41bd98:	(bad)  
  41bd99:	retf   
  41bd9a:	dec    edx
  41bd9b:	push   cs
  41bd9c:	lods   al,BYTE PTR ds:[esi]
  41bd9d:	clc    
  41bd9e:	cmp    eax,0x494e6cc7
  41bda3:	cmc    
  41bda4:	add    BYTE PTR [ebx],0x47
  41bda7:	cdq    
  41bda8:	jne    0x41bdd1
  41bdaa:	in     al,0xfb
  41bdac:	fstp   TBYTE PTR [esi-0x6aeaef54]
  41bdb2:	or     ebx,ebp
  41bdb4:	sbb    bl,BYTE PTR [ecx-0x5ea9d68e]
  41bdba:	pop    eax
  41bdbb:	or     BYTE PTR [ebp-0xb],0xd9
  41bdbf:	mov    esp,0x10260953
  41bdc4:	cmp    dl,cl
  41bdc6:	fucom  st(2)
  41bdc8:	xchg   cl,ch
  41bdca:	sbb    eax,0x628f4f1f
  41bdcf:	jge    0x41bde2
  41bdd1:	xchg   esi,eax
  41bdd2:	push   ds
  41bdd3:	stos   BYTE PTR es:[edi],al
  41bdd4:	ja     0x41bdbd
  41bdd6:	pop    eax
  41bdd7:	add    ebp,DWORD PTR [ecx+ebx*1-0x22924aac]
  41bdde:	inc    esp
  41bddf:	mov    dl,0x2
  41bde1:	sbb    DWORD PTR [ebx],ebp
  41bde3:	sbb    DWORD PTR [edi],ebx
  41bde5:	mov    ds:0xc268921d,al
  41bdea:	ins    DWORD PTR es:[edi],dx
  41bdeb:	imul   ecx,DWORD PTR [ebx-0x4ff07294],0xfffffff5
  41bdf2:	fs push esi
  41bdf4:	pop    ebp
  41bdf5:	jmp    0x7e097d49
  41bdfa:	jmp    0x41be5c
  41bdfc:	call   0xcdad:0x2640292c
  41be03:	inc    ebp
  41be04:	sti    
  41be05:	in     eax,dx
  41be06:	fadd   QWORD PTR [edx]
  41be08:	(bad)  
  41be09:	mov    ch,0x33
  41be0b:	lahf   
  41be0c:	iret   
  41be0d:	xor    eax,0x2fd8b2a2
  41be12:	gs inc ebp
  41be14:	jecxz  0x41bdd2
  41be16:	cmp    esp,DWORD PTR [edx+eax*1+0x4b4a59aa]
  41be1d:	mov    eax,ds:0xceded1
  41be22:	aam    0xd1
  41be24:	das    
  41be25:	bound  esp,QWORD PTR [ebp+edx*4-0x2f]
  41be29:	in     eax,dx
  41be2a:	or     dh,BYTE PTR [ebx+eax*4]
  41be2d:	push   edi
  41be2e:	std    
  41be2f:	push   cs
  41be30:	mov    esi,0xece2777f
  41be35:	imul   esi,DWORD PTR [ebp+0x20dabb01],0x10
  41be3c:	sub    BYTE PTR [ecx+0x6ec25cab],ch
  41be42:	sti    
  41be43:	scas   al,BYTE PTR es:[edi]
  41be44:	shr    BYTE PTR [ebx+0x40e040eb],cl
  41be4a:	sbb    eax,0x9d9720b6
  41be4f:	inc    esi
  41be50:	xor    BYTE PTR [esi+edi*8],bh
  41be53:	sbb    al,0x1d
  41be55:	ret    0xf782
  41be58:	pop    es
  41be59:	dec    bp
  41be5b:	adc    dl,dh
  41be5d:	add    al,0xe9
  41be5f:	add    eax,0xfcd0f03e
  41be64:	out    dx,eax
  41be65:	cli    
  41be66:	or     BYTE PTR [eax],dl
  41be68:	sahf   
  41be69:	mov    al,ds:0xb55fcdc2
  41be6e:	lods   eax,DWORD PTR ds:[esi]
  41be6f:	adc    BYTE PTR [ecx-0x53],cl
  41be72:	inc    eax
  41be73:	fistp  DWORD PTR [edi*8+0x388bb24e]
  41be7a:	inc    edi
  41be7b:	(bad)  
  41be7c:	sbb    DWORD PTR [eax-0x4484a313],ebp
  41be82:	loopne 0x41bea6
  41be84:	fdivr  DWORD PTR [ecx+0x7e]
  41be87:	sub    BYTE PTR [esi],cl
  41be89:	sbb    DWORD PTR [edi+0x2f],edi
  41be8c:	lock shr BYTE PTR [ebx],1
  41be8f:	xchg   DWORD PTR [ebp+0x63a663fe],ecx
  41be95:	aaa    
  41be96:	scas   eax,DWORD PTR es:[edi]
  41be97:	adc    BYTE PTR [ecx+0x1dca82f9],ch
  41be9d:	dec    ebp
  41be9e:	dec    esp
  41be9f:	fist   WORD PTR [eax]
  41bea1:	adc    DWORD PTR [eax+edx*2+0x52],esp
  41bea5:	jo     0x41be60
  41bea7:	and    al,0xac
  41bea9:	mov    ebx,0xa0ae5918
  41beae:	rcr    BYTE PTR [ebx+0x3204923d],cl
  41beb4:	pop    ds
  41beb5:	shr    DWORD PTR [ebx],1
  41beb7:	cmp    esi,DWORD PTR [ecx-0x9]
  41beba:	movs   DWORD PTR es:[edi],DWORD PTR ds:[esi]
  41bebb:	(bad)  
  41bebc:	sti    
  41bebd:	test   eax,0x961c7b21
  41bec2:	sti    
  41bec3:	dec    edx
  41bec4:	pusha  
  41bec5:	ret    0x95d1
  41bec8:	rol    BYTE PTR [esi],1
  41beca:	fs sbb esi,ebx
  41becd:	ins    DWORD PTR es:[edi],dx
  41bece:	rcl    BYTE PTR [eax],cl
  41bed0:	(bad)  
  41bed1:	jne    0x41bea6
  41bed3:	psubw  mm5,QWORD PTR [ebp+0x4c]
  41bed7:	xchg   esp,eax
  41bed8:	sbb    ecx,DWORD PTR ds:0x28097478
  41bede:	fdivr  QWORD PTR [edx+0x298185fe]
  41bee4:	stos   DWORD PTR es:[edi],eax
  41bee5:	shl    BYTE PTR [esi+0xe],1
  41bee8:	jmp    0xa9bef188
  41beed:	cwde   
  41beee:	jne    0x41bec8
  41bef0:	push   ds
  41bef1:	mov    al,ds:0xe5ebd861
  41bef6:	daa    
  41bef7:	repnz daa 
  41bef9:	into   
  41befa:	cmp    esi,0x6c
  41befd:	lods   al,BYTE PTR ds:[esi]
  41befe:	ficom  WORD PTR [eax+0x5e]
  41bf01:	call   DWORD PTR [ecx]
  41bf03:	mov    WORD PTR [ebx],?
  41bf05:	movs   DWORD PTR es:[edi],DWORD PTR ds:[esi]
  41bf06:	add    eax,0xa18a31e0
  41bf0b:	push   cs
  41bf0c:	lods   al,BYTE PTR ds:[esi]
  41bf0d:	mov    ch,0xc7
  41bf0f:	rcl    esp,1
  41bf11:	lods   al,BYTE PTR ds:[esi]
  41bf12:	sub    DWORD PTR [ecx],ebp
  41bf14:	pushf  
  41bf15:	mov    eax,0x53bd2954
  41bf1a:	xlat   BYTE PTR ds:[ebx]
  41bf1b:	std    
  41bf1c:	sbb    eax,0x78af83bd
  41bf21:	jnp    0x41bf00
  41bf23:	je     0x41befb
  41bf25:	retf   0xb77c
  41bf28:	pop    ds
  41bf29:	das    
  41bf2a:	loopne 0x41bf9a
  41bf2c:	dec    esi
  41bf2d:	sahf   
  41bf2e:	jne    0x41bef5
  41bf30:	cmp    esp,DWORD PTR [eax+0x18]
  41bf33:	xor    ebx,ebx
  41bf35:	xchg   esi,eax
  41bf36:	hlt    
  41bf37:	or     eax,0xdf2d95ed
  41bf3c:	inc    ebx
  41bf3d:	das    
  41bf3e:	enter  0x5d0e,0x4f
  41bf42:	jecxz  0x41bf27
  41bf44:	and    al,0x34
  41bf46:	xor    bx,bx
  41bf49:	inc    esi
  41bf4a:	jmp    0x9fe7:0xb138050f
  41bf51:	jae    0x41bfbf
  41bf53:	push   cs
  41bf54:	push   ss
  41bf55:	nop
  41bf56:	test   BYTE PTR [ebp+0x20],ah
  41bf59:	jmp    0x207958fb
  41bf5e:	sahf   
  41bf5f:	mov    dh,0xf7
  41bf61:	stos   BYTE PTR es:[edi],al
  41bf62:	je     0x41bf70
  41bf64:	mov    WORD PTR [eax-0x78],?
  41bf67:	scas   al,BYTE PTR es:[edi]
  41bf68:	jne    0x41bf13
  41bf6a:	lds    edi,FWORD PTR [ebp-0x5d]
  41bf6d:	in     eax,dx
  41bf6e:	call   0x732e:0xd894739b
  41bf75:	std    
  41bf76:	arpl   WORD PTR [ecx-0x10],bx
  41bf79:	sub    ecx,esi
  41bf7b:	inc    esi
  41bf7c:	dec    ebx
  41bf7d:	inc    eax
  41bf7e:	inc    edx
  41bf7f:	fcomp  DWORD PTR ds:0x60382922
  41bf85:	shl    DWORD PTR [edx+0x5f03492d],0x2d
  41bf8c:	xlat   BYTE PTR ds:[ebx]
  41bf8d:	mov    ebx,0xac40f3d6
  41bf92:	xor    eax,0x338bf0ea
  41bf97:	(bad)  
  41bf98:	or     dh,bl
  41bf9a:	adc    edx,DWORD PTR [ebp-0x2f]
  41bf9d:	pop    esi
  41bf9e:	(bad)  
  41bfa0:	pop    ecx
  41bfa1:	std    
  41bfa2:	push   edi
  41bfa3:	xchg   edx,eax
  41bfa4:	jmp    FWORD PTR [ebp+0x15f822cb]
  41bfaa:	inc    ecx
  41bfab:	ror    DWORD PTR [edi-0x4b],0x63
  41bfaf:	sbb    DWORD PTR [edi],ebx
  41bfb1:	popf   
  41bfb2:	dec    ebx
  41bfb3:	mov    eax,ds:0x71e6687d
  41bfb8:	jmp    0x41bf64
  41bfba:	mov    ebp,0x6d864fe3
  41bfbf:	retf   0x579d
  41bfc2:	int    0x5e
  41bfc4:	sub    ch,BYTE PTR [ebx+ebp*2+0x79f9afb4]
  41bfcb:	sub    edi,DWORD PTR [ecx+edi*2-0x5b]
  41bfcf:	fld    TBYTE PTR [edx+0x4b]
  41bfd2:	mov    edx,0x92391d30
  41bfd7:	or     al,0xfe
  41bfd9:	(bad)  
  41bfda:	shl    BYTE PTR [ebx-0x3],1
  41bfdd:	lods   al,BYTE PTR ds:[esi]
  41bfde:	test   eax,0xdeaf15e
  41bfe3:	mov    eax,ds:0x464acc83
  41bfe8:	dec    ecx
  41bfe9:	shl    BYTE PTR [edi],cl
  41bfeb:	lods   eax,DWORD PTR ds:[esi]
  41bfec:	ja     0x41bfb7
  41bfee:	cdq    
  41bfef:	add    eax,esp
  41bff1:	and    al,0xa0
  41bff3:	or     BYTE PTR [ebx-0x5b05d166],bh
  41bff9:	sbb    ah,BYTE PTR [ebp+0xb]
  41bffc:	sti    
  41bffd:	sub    al,0x29
  41bfff:	(bad)  
  41c001:	adc    al,0x19
  41c003:	int    0x1a
  41c005:	(bad)  
  41c006:	jecxz  0x41c03e
  41c008:	or     al,0xd3
  41c00a:	sbb    eax,0x76bdc023
  41c00f:	jl     0x41bfa1
  41c011:	xchg   BYTE PTR [di-0x4ec9],cl
  41c016:	dec    ebx
  41c017:	(bad)  
  41c018:	lahf   
  41c019:	jp     0x41c027
  41c01b:	or     DWORD PTR [ebx],0x958f86a4
  41c021:	jle    0x41c086
  41c023:	dec    ebp
  41c024:	daa    
  41c025:	lea    ecx,[ebx+eiz*1]
  41c028:	stos   DWORD PTR es:[edi],eax
  41c029:	inc    edi
  41c02a:	sbb    al,0xfe
  41c02c:	sub    al,0xaa
  41c02e:	repnz mov ebp,0x1aa691f9
  41c034:	ret    0x62a3
  41c037:	cmp    eax,0x837c06b2
  41c03c:	mov    bl,0xf3
  41c03e:	and    DWORD PTR [eax],edx
  41c040:	stos   BYTE PTR es:[edi],al
  41c041:	ret    0xfb15
  41c044:	push   ds
  41c045:	and    DWORD PTR [ecx],esi
  41c047:	out    dx,eax
  41c048:	add    al,0x84
  41c04a:	rol    DWORD PTR [edx-0x5d],0xaa
  41c04e:	push   ebp
  41c04f:	pop    esi
  41c050:	(bad)  
  41c051:	stos   DWORD PTR es:[edi],eax
  41c052:	ins    BYTE PTR es:[edi],dx
  41c053:	lahf   
  41c054:	dec    esp
  41c055:	jns    0x41c019
  41c057:	lahf   
  41c058:	cmp    al,0xbf
  41c05a:	popa   
  41c05b:	dec    ecx
  41c05c:	aas    
  41c05d:	(bad)  
  41c05e:	not    BYTE PTR [eax+0xdfd3303]
  41c064:	pop    edx
  41c065:	test   DWORD PTR [ebx-0x720ee32a],ebx
  41c06b:	push   0x1504e707
  41c070:	loopne 0x41c0f0
  41c072:	mov    cl,0x55
  41c074:	(bad)  
  41c075:	dec    edx
  41c076:	push   0x64cad8b5
  41c07b:	std    
  41c07c:	ja     0x41c017
  41c07e:	push   ecx
  41c07f:	leavew 
  41c081:	mov    esi,0x4a187957
  41c086:	xchg   edx,eax
  41c087:	mov    esi,0x2b09abd2
  41c08c:	xor    al,0xee
  41c08e:	jg     0x41c02e
  41c090:	js     0x41c095
  41c092:	push   esi
  41c093:	pop    ebx
  41c094:	fdivr  QWORD PTR [edi]
  41c096:	(bad)  
  41c098:	bound  esi,QWORD PTR [ecx-0x7a]
  41c09b:	and    eax,0x1f9ac023
  41c0a0:	sbb    ecx,ebx
  41c0a2:	bound  edi,QWORD PTR [ecx]
  41c0a4:	sar    DWORD PTR [ecx],1
  41c0a6:	in     eax,0x74
  41c0a8:	mov    dh,0xeb
  41c0aa:	popa   
  41c0ab:	xor    DWORD PTR [esi+eax*2-0x2a],esp
  41c0af:	mov    BYTE PTR [esi+ebp*2+0x25],dh
  41c0b3:	push   ecx
  41c0b4:	sti    
  41c0b5:	jmp    0x41c133
  41c0b7:	xchg   edi,eax
  41c0b8:	or     ebp,DWORD PTR [ebx+eiz*2-0xfd2e0e5]
  41c0bf:	mov    dh,0xd5
  41c0c1:	or     bh,BYTE PTR [esi-0x2a531a41]
  41c0c7:	and    al,0xb9
  41c0c9:	in     al,0x4
  41c0cb:	sbb    al,0xd8
  41c0cd:	mov    ds:0x396b6a97,al
  41c0d2:	arpl   WORD PTR [ecx],cx
  41c0d4:	cmp    eax,DWORD PTR [eax+0x4f]
  41c0d7:	pop    edi
  41c0d8:	out    dx,eax
  41c0d9:	fcomip st,st(1)
  41c0db:	add    al,0x17
  41c0dd:	push   0xee0e9971
  41c0e2:	popa   
  41c0e3:	jecxz  0x41c0a6
  41c0e5:	test   eax,0xff069885
  41c0ea:	int    0x58
  41c0ec:	fild   QWORD PTR [ebp+ebx*1-0x267fdfa4]
  41c0f3:	adc    BYTE PTR [eax+0x3c585fa2],cl
  41c0f9:	sahf   
  41c0fa:	bound  ebx,QWORD PTR [ebp-0x39fbd385]
  41c100:	mov    ds:0x320d6e98,eax
  41c105:	or     BYTE PTR [ecx+0x1364a068],0x61
  41c10c:	push   ds
  41c10d:	add    eax,DWORD PTR [ebx+0x7a]
  41c110:	cmp    ebx,ecx
  41c112:	lods   al,BYTE PTR ds:[esi]
  41c113:	pop    ecx
  41c114:	(bad)  
  41c116:	stc    
  41c117:	or     eax,0x894e9141
  41c11c:	sbb    eax,0x5c9ca0f5
  41c121:	adc    dh,ah
  41c123:	je     0x41c141
  41c125:	stos   BYTE PTR es:[edi],al
  41c126:	mov    eax,ds:0xdf5585a1
  41c12b:	jle    0x41c0ae
  41c12d:	cli    
  41c12e:	(bad)  
  41c12f:	aam    0xab
  41c131:	jnp    0x41c18a
  41c133:	jmp    0xfd9bbf97
  41c138:	shl    DWORD PTR [ecx+0x6b],1
  41c13b:	dec    edi
  41c13c:	fist   DWORD PTR [ebx-0x556004cf]
  41c142:	sbb    edx,DWORD PTR [eax+0x4aac343a]
  41c148:	sub    DWORD PTR [eax],ebp
  41c14a:	fs add ebp,0x5cb14dd4
  41c151:	sub    esi,DWORD PTR [eax-0x2b89bc96]
  41c157:	or     al,0x57
  41c159:	pusha  
  41c15a:	xchg   edx,eax
  41c15b:	jno    0x41c12c
  41c15d:	mov    ah,0x4e
  41c15f:	mov    cs,edi
  41c161:	pop    eax
  41c162:	pop    eax
  41c163:	mov    DWORD PTR [ebx+0x2a],ecx
  41c166:	pop    ds
  41c167:	xlat   BYTE PTR ds:[ebx]
  41c168:	or     al,0xad
  41c16a:	fxch   st(7)
  41c16c:	mov    esp,0x54ab047b
  41c171:	xchg   ecx,eax
  41c172:	popf   
  41c173:	cli    
  41c174:	mov    ah,0x8c
  41c176:	dec    eax
  41c177:	test   eax,0xa75c35d1
  41c17c:	call   0x12f14d99
  41c181:	lods   al,BYTE PTR ds:[esi]
  41c182:	fldcw  WORD PTR [eax+edi*8]
  41c185:	xlat   BYTE PTR ds:[ebx]
  41c186:	cmp    BYTE PTR [edi+ebp*2+0x17c6e688],0x66
  41c18e:	bound  edi,QWORD PTR [ebp+0x1ddb7f18]
  41c194:	inc    ebx
  41c195:	stc    
  41c196:	int    0x1d
  41c198:	enter  0x6597,0x6b
  41c19c:	jl     0x41c1df
  41c19e:	add    DWORD PTR ds:0xb165a8e6,ebx
  41c1a4:	(bad)  [esi+0x34]
  41c1a7:	jns    0x41c1e4
  41c1a9:	shl    BYTE PTR [edx+0x24d01301],1
  41c1af:	xchg   esp,eax
  41c1b0:	pop    ebp
  41c1b1:	sbb    al,0xc8
  41c1b3:	dec    ebp
  41c1b4:	test   al,0x38
  41c1b6:	arpl   WORD PTR [eax],si
  41c1b8:	adc    BYTE PTR [esi+0x21],al
  41c1bb:	in     al,dx
  41c1bc:	push   cs
  41c1bd:	jmp    0x3b9:0xeaa3d82d
  41c1c4:	dec    edi
  41c1c5:	out    dx,al
  41c1c6:	ins    BYTE PTR es:[edi],dx
  41c1c7:	or     eax,0x48ceb
  41c1cc:	sbb    al,0x59
  41c1ce:	pusha  
  41c1cf:	inc    edx
  41c1d0:	pop    eax
  41c1d1:	enter  0xf217,0xec
  41c1d5:	mov    eax,0xc3e3607b
  41c1da:	push   edi
  41c1db:	add    eax,0x33949a8c
  41c1e0:	loope  0x41c16b
  41c1e2:	ret    
  41c1e3:	es jmp 0x618326f0
  41c1e9:	ins    BYTE PTR es:[edi],dx
  41c1ea:	test   al,0x4d
  41c1ec:	sti    
  41c1ed:	lods   eax,DWORD PTR ds:[esi]
  41c1ee:	dec    ebx
  41c1ef:	adc    BYTE PTR [ebp+0x2f5f05a7],dl
  41c1f5:	inc    esp
  41c1f6:	arpl   WORD PTR [edx],ax
  41c1f8:	(bad)  
  41c1fa:	mov    ds:0xd960ef0f,eax
  41c1ff:	arpl   WORD PTR [ebx-0x43f268c1],bp
  41c205:	mov    edi,0x851d7f71
  41c20a:	mov    ch,0x57
  41c20c:	retf   
  41c20d:	xlat   BYTE PTR ds:[ebx]
  41c20e:	ss dec esi
  41c210:	cmp    ah,BYTE PTR [esi+0x35378df1]
  41c216:	int3   
  41c217:	xor    al,0xc0
  41c219:	jmp    0x815ff325
  41c21e:	fadd   DWORD PTR [esi+0x3a]
  41c221:	dec    eax
  41c222:	jle    0x41c23d
  41c224:	xchg   esi,eax
  41c225:	lods   al,BYTE PTR ds:[esi]
  41c226:	movs   DWORD PTR es:[edi],DWORD PTR ds:[esi]
  41c227:	sub    DWORD PTR [esi],ebp
  41c229:	xchg   edx,eax
  41c22a:	inc    ebx
  41c22b:	rcr    BYTE PTR [ebx+0x1e61c1c4],cl
  41c231:	sbb    DWORD PTR [ebx-0x6967ce09],eax
  41c237:	fnstenv [ebx-0x6e6392cf]
  41c23d:	xor    al,0xab
  41c23f:	out    0xcc,eax
  41c241:	push   esi
  41c242:	xor    DWORD PTR [ecx],edx
  41c244:	push   esp
  41c245:	aaa    
  41c246:	xchg   edx,eax
  41c247:	lock pusha 
  41c249:	stos   BYTE PTR es:[edi],al
  41c24a:	add    DWORD PTR [eax-0x7e8038d0],0x58b5aa31
  41c254:	lea    ebx,[edx+0x31bb422f]
  41c25a:	mov    ebp,DWORD PTR [ebx-0x4a4c9ee8]
  41c260:	adc    al,0xf5
  41c262:	or     BYTE PTR [ecx-0x654ed225],ah
  41c268:	cmp    eax,0xfee625aa
  41c26d:	aas    
  41c26e:	and    ah,al
  41c270:	cmc    
  41c271:	jne    0x41c2a1
  41c273:	mov    ecx,eax
  41c275:	in     al,dx
  41c276:	lods   eax,DWORD PTR fs:[esi]
  41c278:	push   edi
  41c279:	mov    bh,0x15
  41c27b:	push   0xffffff83
  41c27d:	pop    eax
  41c27e:	pop    ds
  41c27f:	mov    eax,ds:0xf056265
  41c284:	clc    
  41c285:	pop    ss
  41c286:	lahf   
  41c287:	mov    al,ds:0x3d648ded
  41c28c:	sub    bh,0x3a
  41c28f:	xor    BYTE PTR [edi+0x46],bl
  41c292:	aas    
  41c293:	push   cs
  41c294:	imul   ebp,esi,0xffffff8c
  41c297:	sahf   
  41c298:	pop    ds
  41c299:	icebp  
  41c29a:	sbb    esi,DWORD PTR [ecx-0x2ef79574]
  41c2a0:	pop    eax
  41c2a1:	jns    0x41c25f
  41c2a3:	(bad)
  41c2a6:	dec    edx
  41c2a7:	loopne 0x41c2cb
  41c2a9:	lods   al,BYTE PTR ds:[esi]
  41c2aa:	cdq    
  41c2ab:	test   al,0x72
  41c2ad:	pop    ecx
  41c2ae:	lahf   
  41c2af:	test   BYTE PTR [esi],bh
  41c2b1:	xor    cl,BYTE PTR [edi+ebx*8-0x2aa77363]
  41c2b8:	cld    
  41c2b9:	and    al,BYTE PTR [esi-0xe7af569]
  41c2bf:	adc    BYTE PTR [ebx-0x9],dl
  41c2c2:	sbb    DWORD PTR [ecx],edx
  41c2c4:	lds    esp,FWORD PTR [ebp+0x2a]
  41c2c7:	outs   dx,BYTE PTR ds:[esi]
  41c2c8:	sbb    eax,0xe1f54df5
  41c2cd:	adc    DWORD PTR [esp+edx*2-0x20],edi
  41c2d1:	sbb    BYTE PTR [ebp-0x553e4247],0xa7
  41c2d8:	pop    esi
  41c2d9:	sub    esp,DWORD PTR [ebx-0x65]
  41c2dc:	pop    ds
  41c2dd:	xchg   ebp,eax
  41c2de:	mov    ecx,0xf92f01c6
  41c2e3:	mov    cl,0x47
  41c2e5:	lods   al,BYTE PTR ds:[esi]
  41c2e6:	mov    ecx,0x5ef76363
  41c2eb:	dec    ecx
  41c2ec:	lds    edx,FWORD PTR [esi]
  41c2ee:	aad    0x2c
  41c2f0:	mov    ebp,0x23f5a513
  41c2f5:	cmp    dl,BYTE PTR [ecx+0xe]
  41c2f8:	ret    0x3852
  41c2fb:	icebp  
  41c2fc:	fwait
  41c2fd:	pop    esp
  41c2fe:	rcl    DWORD PTR [eax],0x61
  41c301:	(bad)  
  41c302:	xchg   ecx,eax
  41c303:	mov    bl,BYTE PTR [edi]
  41c305:	popa   
  41c306:	push   ebp
  41c307:	int    0x73
  41c309:	jecxz  0x41c328
  41c30b:	into   
  41c30c:	mov    BYTE PTR [ecx+esi*4-0x3e7221fe],ch
  41c313:	or     esp,esp
  41c315:	in     eax,dx
  41c316:	mov    BYTE PTR [edi-0x4d],dh
  41c319:	jne    0x41c37e
  41c31b:	jne    0x41c2b2
  41c31d:	retf   
  41c31e:	hlt    
  41c31f:	and    BYTE PTR [edi],bh
  41c321:	test   eax,0x89470f13
  41c326:	mov    dh,0x3a
  41c328:	ret    
  41c329:	aam    0xda
  41c32b:	aam    0x1d
  41c32d:	shr    esp,1
  41c32f:	xchg   ebp,eax
  41c330:	mov    edx,0x2f4d34c9
  41c335:	dec    ecx
  41c336:	orpd   xmm2,XMMWORD PTR [ebp-0x77]
  41c33b:	cmp    ebp,DWORD PTR [eax+0x1d734df8]
  41c341:	adc    BYTE PTR [edi-0x2e],ah
  41c344:	xor    BYTE PTR [ebx+eiz*4],ah
  41c347:	ficom  DWORD PTR [edi-0x4eef4315]
  41c34d:	(bad)  
  41c34e:	(bad)  
  41c34f:	aas    
  41c350:	pop    ds
  41c351:	test   DWORD PTR [ecx-0x35005588],ecx
  41c357:	mov    ch,0x97
  41c359:	stos   BYTE PTR es:[edi],al
  41c35a:	test   eax,0xc887c08f
  41c35f:	cs mov ah,0xeb
  41c362:	pop    DWORD PTR [eax+0x19]
  41c365:	inc    eax
  41c366:	dec    eax
  41c367:	mov    ecx,0xfad12a5c
  41c36c:	pop    eax
  41c36d:	int3   
  41c36e:	adc    BYTE PTR [eax-0x4dcc46e3],ah
  41c374:	push   edi
  41c375:	add    DWORD PTR [esi-0x43],esp
  41c378:	cmp    eax,0xb556b747
  41c37d:	add    ah,BYTE PTR [ecx-0x2f]
  41c380:	(bad)  
  41c381:	nop
  41c382:	enter  0x9d7,0xc8
  41c386:	movs   BYTE PTR es:[edi],BYTE PTR ds:[esi]
  41c387:	inc    ebx
  41c388:	pop    ds
  41c389:	cdq    
  41c38a:	push   edi
  41c38b:	mov    eax,ds:0x1bb63e44
  41c390:	sbb    eax,0xc898bd2d
  41c395:	mov    edi,0xacd85ddb
  41c39a:	sub    eax,0xa7fec8ff
  41c39f:	scas   al,BYTE PTR es:[edi]
  41c3a0:	inc    eax
  41c3a1:	or     BYTE PTR [edx-0x5e],bh
  41c3a4:	or     al,0x85
  41c3a6:	pop    esi
  41c3a7:	inc    ebp
  41c3a8:	add    cl,BYTE PTR [edx-0x57e551e]
  41c3ae:	adc    DWORD PTR [edx-0x55],eax
  41c3b1:	sub    eax,0xab33f237
  41c3b6:	retf   0x6718
  41c3b9:	jne    0x41c3aa
  41c3bb:	xchg   edx,eax
  41c3bc:	push   ds
  41c3bd:	in     eax,0xc9
  41c3bf:	xchg   ebp,eax
  41c3c0:	pop    esp
  41c3c1:	cmp    esi,DWORD PTR [edi+0x1aacfb5]
  41c3c7:	push   ebp
  41c3c8:	mov    esp,0x957cb182
  41c3cd:	sar    BYTE PTR [esi],0x72
  41c3d0:	movs   BYTE PTR es:[edi],BYTE PTR ds:[esi]
  41c3d1:	dec    edi
  41c3d2:	lds    eax,FWORD PTR gs:[eax-0x24]
  41c3d6:	cmc    
  41c3d7:	push   ebp
  41c3d8:	inc    edi
  41c3d9:	and    DWORD PTR [esi+0x37fdcb0d],ecx
  41c3df:	ficomp DWORD PTR ds:0x8abfede1
  41c3e5:	mov    BYTE PTR [edi-0x7a],bh
  41c3e8:	push   0xc79b43a
  41c3ed:	ins    DWORD PTR es:[edi],dx
  41c3ee:	dec    edi
  41c3ef:	dec    edi
  41c3f0:	das    
  41c3f1:	stos   BYTE PTR es:[edi],al
  41c3f2:	scas   al,BYTE PTR es:[edi]
  41c3f3:	xchg   DWORD PTR [edi+0xd],edx
  41c3f6:	and    ebp,DWORD PTR [edi+0x5a]
  41c3f9:	fldenv [ecx+edi*4+0x9]
  41c3fd:	(bad)  
  41c3fe:	push   esi
  41c3ff:	xor    DWORD PTR [edi+0x70dba42],0x74
  41c406:	shr    BYTE PTR [ecx+0x1c],0x41
  41c40a:	clc    
  41c40b:	and    ecx,0xafeb2f90
  41c411:	xor    cl,BYTE PTR [ecx]
  41c413:	xchg   ecx,eax
  41c414:	mov    cl,0x9e
  41c416:	inc    ebp
  41c417:	jae    0x41c3a6
  41c419:	imul   edx,DWORD PTR [edi+eiz*1-0x6d],0x7a
  41c41e:	and    DWORD PTR [ecx-0x52b87940],0xffffff9e
  41c425:	rcl    bl,1
  41c427:	or     BYTE PTR [ebx+ecx*1+0x45],bl
  41c42b:	inc    esi
  41c42c:	xchg   DWORD PTR [edx-0x1376036b],ebp
  41c432:	add    al,0x19
  41c434:	sub    BYTE PTR [ebx+0x6c0fe648],0x62
  41c43b:	in     eax,dx
  41c43c:	add    eax,DWORD PTR [edi-0x2440cf56]
  41c442:	add    DWORD PTR [ebx],0xffffffcc
  41c445:	fbld   TBYTE PTR [edi+0x24b47104]
  41c44b:	pop    es
  41c44c:	mov    ah,bl
  41c44e:	popa   
  41c44f:	test   eax,0xdd8ceac1
  41c454:	and    esi,DWORD PTR [esi+0xf4f0e99]
  41c45a:	jnp    0x41c446
  41c45c:	push   ds
  41c45d:	sbb    ebp,esp
  41c45f:	cmp    al,0xd
  41c461:	adc    eax,0x90402c84
  41c466:	sbb    eax,0x73124f72
  41c46b:	sub    edi,esp
  41c46d:	push   ds
  41c46e:	xchg   esp,eax
  41c46f:	or     al,0xf8
  41c471:	push   esp
  41c472:	push   ebp
  41c473:	adc    BYTE PTR [ecx-0x70],0x63
  41c477:	push   ecx
  41c478:	sbb    BYTE PTR [edx],cl
  41c47a:	call   0x2c0f:0xfa8307c9
  41c481:	(bad)  
  41c482:	sti    
  41c483:	stc    
  41c484:	sbb    edx,ecx
  41c486:	cmp    cl,BYTE PTR ds:0x9f0b2e02
  41c48c:	lahf   
  41c48d:	imul   ebp,DWORD PTR [ecx-0x183a34fb],0x4d682710
  41c497:	repz adc ecx,ebx
  41c49a:	(bad)  
  41c49b:	into   
  41c49c:	jb     0x41c513
  41c49e:	repnz inc edx
  41c4a0:	call   0x2b918c14
  41c4a5:	(bad)  
  41c4a6:	push   ss
  41c4a7:	xlat   BYTE PTR ds:[ebx]
  41c4a8:	push   ds
  41c4a9:	pop    ds
  41c4aa:	xchg   esp,eax
  41c4ab:	cmp    DWORD PTR [esi-0x31],edi
  41c4ae:	pushf  
  41c4af:	push   ebx
  41c4b0:	repnz movs DWORD PTR es:[edi],DWORD PTR ds:[esi]
  41c4b2:	and    al,0x10
  41c4b4:	movs   BYTE PTR es:[edi],BYTE PTR ds:[esi]
  41c4b5:	adc    DWORD PTR [edx-0x17],esp
  41c4b8:	gs mov ecx,0xe5bbd8dc
  41c4be:	sbb    DWORD PTR ds:0x89629251,ebx
  41c4c4:	nop
  41c4c5:	jg     0x41c4d1
  41c4c7:	sub    ebp,edi
  41c4c9:	xchg   ebp,eax
  41c4ca:	inc    esi
  41c4cb:	xchg   ebp,eax
  41c4cc:	fist   WORD PTR ds:0x90c102ac
  41c4d2:	gs push 0xcca765ce
  41c4d8:	lahf   
  41c4d9:	xor    dl,bl
  41c4db:	dec    edx
  41c4dc:	enter  0x4dff,0xf1
  41c4e0:	jp     0x41c479
  41c4e2:	bound  ebp,QWORD PTR [ecx+0x77]
  41c4e5:	xchg   ecx,eax
  41c4e6:	pop    ds
  41c4e7:	jge    0x41c550
  41c4e9:	lods   eax,DWORD PTR ds:[esi]
  41c4ea:	add    bl,cl
  41c4ec:	sbb    eax,0x29ee8a2
  41c4f1:	pop    ss
  41c4f2:	xchg   edx,eax
  41c4f3:	out    dx,eax
  41c4f4:	cmp    BYTE PTR [esi+0x24],bl
  41c4f7:	inc    eax
  41c4f8:	jg     0x41c50c
  41c4fa:	(bad)  
  41c4fb:	fldenv [edi-0x20]
  41c4fe:	mov    BYTE PTR [edx+0xc038177],dh
  41c504:	inc    esp
  41c505:	enter  0x23b5,0x98
  41c509:	mov    ebp,0x30553efa
  41c50e:	or     eax,DWORD PTR ds:0x6556fbb3
  41c514:	pusha  
  41c515:	adc    eax,0x8af7045
  41c51a:	push   edx
  41c51b:	cs jle 0x41c54e
  41c51e:	gs jmp 0x41c517
  41c521:	push   edi
  41c522:	mov    BYTE PTR [ecx+ecx*1],al
  41c525:	repz pop ebx
  41c527:	jns    0x41c596
  41c529:	stos   BYTE PTR es:[edi],al
  41c52a:	das    
  41c52b:	sbb    ecx,eax
  41c52d:	mov    al,ds:0x17635a87
  41c532:	push   cs
  41c533:	pop    es
  41c534:	jo     0x41c57b
  41c536:	ror    al,cl
  41c538:	xchg   edi,eax
  41c539:	(bad)  
  41c53a:	jecxz  0x41c593
  41c53c:	xchg   edx,eax
  41c53d:	or     ah,BYTE PTR [ebp+0x49]
  41c540:	add    al,bl
  41c542:	out    0xbb,eax
  41c544:	mov    bl,0xae
  41c546:	mov    cl,BYTE PTR [esi]
  41c548:	push   ecx
  41c549:	sbb    al,0x1e
  41c54b:	mov    esi,0x4acd991f
  41c550:	(bad)  
  41c551:	and    esp,DWORD PTR [ecx-0x5a564efa]
  41c557:	jno    0x41c59c
  41c559:	sub    esp,DWORD PTR [esp+edx*8]
  41c55c:	inc    DWORD PTR [esi+0x14]
  41c55f:	ja     0x41c571
  41c561:	data16 arpl WORD PTR [ebp+0x5fb328a9],ax
  41c568:	out    0x18,eax
  41c56a:	aas    
  41c56b:	adc    BYTE PTR [ebp+0x98f5fc],ch
  41c571:	dec    ecx
  41c572:	sub    eax,0xc42a69ba
  41c577:	push   edx
  41c578:	fmul   QWORD PTR [esi]
  41c57a:	inc    esi
  41c57b:	xchg   edx,eax
  41c57c:	test   eax,0x231971ec
  41c581:	mov    ecx,0x52a90fba
  41c586:	mov    DWORD PTR fs:[ebx-0x31],0xb214d42
  41c58e:	arpl   WORD PTR [ecx-0x74],di
  41c591:	and    ah,BYTE PTR [eax-0x74]
  41c594:	sbb    DWORD PTR [edx-0x7455f241],0xffffffbf
  41c59b:	lock dec BYTE PTR [ebx]
  41c59e:	nop
  41c59f:	lds    esi,FWORD PTR [ebx+0x27]
  41c5a2:	lods   eax,DWORD PTR ds:[esi]
  41c5a3:	or     eax,0x545ee52f
  41c5a8:	mov    edx,0xe53f25a8
  41c5ad:	and    ecx,DWORD PTR [ebp-0x35860455]
  41c5b3:	push   0x25
  41c5b5:	mov    BYTE PTR [ebp+0x41],al
  41c5b8:	sti    
  41c5b9:	mov    ds:0x91921679,eax
  41c5be:	xchg   edi,eax
  41c5bf:	fcomip st,st(2)
  41c5c1:	mov    cl,0xa6
  41c5c3:	or     eax,0x3045ac7e
  41c5c8:	push   ds
  41c5c9:	dec    edi
  41c5ca:	xchg   ecx,eax
  41c5cb:	lea    edi,[esi+edx*8-0x5e8e17f6]
  41c5d2:	bound  edi,QWORD PTR [ebp-0x15]
  41c5d5:	and    DWORD PTR ds:0x80b9db5b,edi
  41c5db:	or     eax,0xb6b8c263
  41c5e0:	push   esi
  41c5e1:	push   ebp
  41c5e2:	movs   DWORD PTR es:[edi],DWORD PTR ds:[esi]
  41c5e3:	inc    eax
  41c5e4:	xor    edi,0x9513d61
  41c5ea:	cli    
  41c5eb:	outs   dx,DWORD PTR ds:[esi]
  41c5ec:	dec    edi
  41c5ed:	sub    dl,0xd
  41c5f0:	int    0x46
  41c5f2:	xchg   edi,eax
  41c5f3:	sub    DWORD PTR [ecx],0x2b
  41c5f6:	xchg   edx,eax
  41c5f7:	imul   edi,edx,0x68
  41c5fa:	arpl   WORD PTR [ecx+0x67],sp
  41c5fd:	mov    al,ds:0x92b309f5
  41c602:	xchg   ebp,eax
  41c603:	push   cs
  41c604:	jge    0x41c5b7
  41c606:	loop   0x41c657
  41c608:	pop    esi
  41c609:	hlt    
  41c60a:	in     eax,dx
  41c60b:	jo     0x41c625
  41c60d:	pop    ss
  41c60e:	fcmovb st,st(5)
  41c610:	fwait
  41c611:	or     DWORD PTR [ebx],esi
  41c613:	add    esi,esi
  41c615:	fiadd  DWORD PTR ds:0x2602397
  41c61b:	cmps   BYTE PTR ds:[esi],BYTE PTR es:[edi]
  41c61c:	or     DWORD PTR [ebp+0x63],ebx
  41c61f:	and    eax,0x570e9fa8
  41c624:	fwait
  41c625:	dec    BYTE PTR [edi-0x7c32b4f1]
  41c62b:	out    dx,eax
  41c62c:	add    cl,BYTE PTR [ebp-0xd]
  41c62f:	fldenv [ebx+ebx*1]
  41c632:	xor    eax,0x64958b34
  41c637:	sub    DWORD PTR [ebx],ebp
  41c639:	mov    cl,0xc
  41c63b:	(bad)  
  41c63c:	ja     0x41c654
  41c63e:	lds    ecx,FWORD PTR [esi]
  41c640:	fst    DWORD PTR [edx]
  41c642:	stos   DWORD PTR es:[edi],eax
  41c643:	ror    eax,1
  41c645:	ins    DWORD PTR es:[edi],dx
  41c646:	bound  eax,QWORD PTR [ebp+0x647659d7]
  41c64c:	pop    ebx
  41c64d:	sbb    dh,ah
  41c64f:	bsf    edi,DWORD PTR [ebx+0x2b]
  41c653:	ficomp WORD PTR ds:0x7249af0d
  41c659:	test   eax,0xa96e288e
  41c65e:	icebp  
  41c65f:	or     DWORD PTR [edx+eiz*1+0x73],0xffffff9e
  41c664:	mov    eax,0x60cbc9dc
  41c669:	mov    eax,0xa76fcd96
  41c66e:	out    0x5c,al
  41c670:	jg     0x41c6d0
  41c672:	fs ret 0xad09
  41c676:	jne    0x41c6ab
  41c678:	mul    BYTE PTR [ecx-0x6f]
  41c67b:	cmp    BYTE PTR [edx-0x7f],bl
  41c67e:	pusha  
  41c67f:	in     al,0xd4
  41c681:	dec    edx
  41c682:	gs cdq 
  41c684:	jno    0x41c62d
  41c686:	stc    
  41c687:	cmp    ecx,DWORD PTR [ebx+0x1701d869]
  41c68d:	mov    DWORD PTR [ebp-0x1e],edi
  41c690:	addr16 cmp al,0xa3
  41c693:	add    dh,BYTE PTR [edx-0xf]
  41c696:	dec    esi
  41c697:	cmp    eax,0xe0eddf1f
  41c69c:	gs stos DWORD PTR es:[edi],eax
  41c69e:	mov    ebp,0xec5808ca
  41c6a3:	sbb    edi,DWORD PTR [ebx+0x3f38ece8]
  41c6a9:	(bad)  
  41c6aa:	bound  edi,QWORD PTR [ebp+0x11]
  41c6ad:	push   0xffffffaa
  41c6af:	add    bh,0xd8
  41c6b2:	mov    cl,BYTE PTR [esi]
  41c6b4:	adc    eax,0x1de323d1
  41c6b9:	ins    DWORD PTR es:[edi],dx
  41c6ba:	and    DWORD PTR [ecx-0x4d],ecx
  41c6bd:	push   ebp
  41c6be:	mov    ds:0x89ac8365,al
  41c6c3:	and    cl,BYTE PTR [edi+0x0]
  41c6c6:	dec    ebp
  41c6c7:	xchg   ebx,eax
  41c6c8:	idiv   BYTE PTR [edx]
  41c6ca:	jmp    0xdec5:0x6348e031
  41c6d1:	outs   dx,BYTE PTR ds:[esi]
  41c6d2:	(bad)  
  41c6d3:	xchg   edi,eax
  41c6d4:	(bad)  
  41c6d5:	fsqrt  
  41c6d7:	loopne 0x41c72e
  41c6d9:	or     eax,0x9ca9e16f
  41c6de:	gs cmc 
  41c6e0:	pop    ds
  41c6e1:	in     al,dx
  41c6e2:	test   al,0x1b
  41c6e4:	inc    edi
  41c6e5:	sub    dh,BYTE PTR [edi+0x1cfc430d]
  41c6eb:	test   DWORD PTR [ebx],edx
  41c6ed:	add    eax,0xee30050b
  41c6f2:	mov    ds:0xdb449cdd,al
  41c6f7:	mov    ecx,DWORD PTR [ebx+ebp*4-0xb]
  41c6fb:	or     DWORD PTR [edi],edi
  41c6fd:	mov    edi,0xd1101779
  41c702:	or     edi,DWORD PTR [edi+0x29659bcf]
  41c708:	cmps   BYTE PTR ds:[esi],BYTE PTR es:[edi]
  41c709:	pop    edi
  41c70a:	iret   
  41c70b:	adc    bh,bh
  41c70d:	xchg   dl,bh
  41c70f:	or     eax,0xb4b830e
  41c714:	dec    esp
  41c715:	cmp    DWORD PTR [ebp+0x61ae5238],ecx
  41c71b:	std    
  41c71c:	test   DWORD PTR ds:0x1b7a4ce,ebx
  41c722:	adc    edx,DWORD PTR [eax]
  41c724:	adc    al,0x55
  41c726:	movs   DWORD PTR es:[edi],DWORD PTR ds:[esi]
  41c727:	dec    eax
  41c728:	sbb    al,0x79
  41c72a:	jbe    0x41c6f5
  41c72c:	stos   BYTE PTR es:[edi],al
  41c72d:	adc    eax,0xa4cdfbda
  41c732:	add    eax,0x5b762cf6
  41c737:	push   ss
  41c738:	popf   
  41c739:	adc    eax,0xd0e12fae
  41c73e:	cmc    
  41c73f:	xchg   esi,ecx
  41c741:	sub    DWORD PTR [ecx],ebx
  41c743:	and    DWORD PTR [ebp-0x7cab23c6],ebx
  41c749:	cmp    BYTE PTR ss:[ebp-0xc658897],bl
  41c750:	inc    ebp
  41c751:	add    dl,0x4d
  41c754:	inc    esi
  41c755:	sub    eax,0x106b5277
  41c75a:	arpl   WORD PTR [ebp-0x57e74826],di
  41c760:	mov    bl,0x9d
  41c762:	sub    eax,0xc8d54511
  41c767:	arpl   WORD PTR [esi],bx
  41c769:	or     eax,0x86526deb
  41c76e:	imul   esp,DWORD PTR ds:0xebada930,0x4d
  41c775:	stos   BYTE PTR es:[edi],al
  41c776:	(bad)  
  41c777:	pushf  
  41c778:	out    dx,eax
  41c779:	mov    bh,0x20
  41c77b:	mov    dl,0xf2
  41c77d:	je     0x41c7e3
  41c77f:	jne    0x41c735
  41c781:	es stc 
  41c783:	push   0x3f
  41c785:	mov    eax,0x96aa0de2
  41c78a:	leave  
  41c78b:	adc    DWORD PTR [edi],ebx
  41c78d:	and    eax,0xc5254837
  41c792:	sub    al,0x85
  41c794:	cmp    edi,DWORD PTR [edx-0x7ce03460]
  41c79a:	adc    BYTE PTR [eax],bh
  41c79c:	into   
  41c79d:	repnz add eax,0xc0d91d69
  41c7a3:	call   0xb077ab67
  41c7a8:	inc    edi
  41c7a9:	cmps   DWORD PTR ds:[esi],DWORD PTR es:[edi]
  41c7aa:	add    DWORD PTR [ebp+0x316f2bc7],edx
  41c7b0:	ja     0x41c75c
  41c7b2:	sbb    BYTE PTR [ecx-0x7151c239],al
  41c7b8:	pop    es
  41c7b9:	cs fs push ebp
  41c7bc:	stos   BYTE PTR es:[edi],al
  41c7bd:	pusha  
  41c7be:	add    BYTE PTR [edi+ebp*2-0x4c],dh
  41c7c2:	outs   dx,DWORD PTR ds:[esi]
  41c7c3:	push   cs
  41c7c4:	or     eax,0x1fbe2abe
  41c7c9:	sbb    eax,0x1709a3ab
  41c7ce:	hlt    
  41c7cf:	jecxz  0x41c76f
  41c7d1:	in     eax,0x83
  41c7d3:	imul   edi,DWORD PTR [edi+0x7c0d894d],0xffffffc6
  41c7da:	dec    ecx
  41c7db:	jnp    0x41c7fb
  41c7dd:	sbb    eax,0x2664e457
  41c7e2:	test   al,0x9f
  41c7e4:	retf   0x29a9
  41c7e7:	mov    ?,WORD PTR [ebx-0x49aa4d3d]
  41c7ed:	shr    BYTE PTR [ebp+0x43],1
  41c7f0:	dec    ebp
  41c7f1:	or     esp,DWORD PTR [edx-0x3f]
  41c7f4:	xchg   esi,eax
  41c7f5:	fmul   DWORD PTR [edx+0x10]
  41c7f8:	inc    ebx
  41c7f9:	ror    DWORD PTR ds:0x40c81fd2,cl
  41c7ff:	movs   BYTE PTR es:[edi],BYTE PTR ds:[esi]
  41c801:	movs   BYTE PTR es:[edi],BYTE PTR ds:[esi]
  41c802:	test   al,0xa8
  41c804:	rol    DWORD PTR [edx],cl
  41c806:	gs jno 0x41c7e0
  41c809:	jnp    0x41c7a2
  41c80b:	adc    esi,edi
  41c80d:	div    BYTE PTR [edi+0x4]
  41c810:	(bad)  
  41c811:	hlt    
  41c812:	test   ecx,esi
  41c814:	or     al,BYTE PTR [esi+0x14da3762]
  41c81a:	pop    ebp
  41c81b:	adc    DWORD PTR [eax-0x56],esp
  41c81e:	(bad)  
  41c81f:	mov    eax,ds:0x3a0a99c5
  41c824:	mov    ah,0xaa
  41c826:	movs   DWORD PTR es:[edi],DWORD PTR ds:[esi]
  41c827:	jo     0x41c880
  41c829:	es fldz 
  41c82c:	sahf   
  41c82d:	sub    cl,BYTE PTR [ebp+0x62ea125c]
  41c833:	stc    
  41c834:	adc    DWORD PTR [ebp+ebx*1+0x64],esp
  41c838:	mov    esi,DWORD PTR [ecx+eiz*1+0x2a903f0f]
  41c83f:	fst    st(0)
  41c841:	lods   al,BYTE PTR ds:[esi]
  41c842:	inc    ebx
  41c843:	jecxz  0x41c857
  41c845:	mov    ebp,0xebc0639d
  41c84a:	cmps   BYTE PTR ds:[esi],BYTE PTR es:[edi]
  41c84b:	int3   
  41c84c:	test   al,0x3a
  41c84e:	cmp    BYTE PTR [edi+0x25],0xe3
  41c852:	jae    0x41c7f9
  41c854:	jg     0x41c7ea
  41c856:	jge    0x41c868
  41c858:	out    dx,al
  41c859:	out    0xe4,eax
  41c85b:	mov    cs,WORD PTR [edx]
  41c85d:	int    0x38
  41c85f:	mov    edx,0xb0ea4b52
  41c864:	sub    eax,0x93bb631f
  41c869:	pop    esp
  41c86a:	in     eax,dx
  41c86b:	or     eax,0xc8b85042
  41c870:	pop    ds
  41c871:	xchg   ebp,eax
  41c872:	pop    ecx
  41c873:	ror    DWORD PTR [ebx+0x36dd8166],1
  41c879:	lea    esp,[ecx]
  41c87b:	loopne 0x41c822
  41c87d:	xchg   esp,eax
  41c87e:	push   es
  41c87f:	in     eax,0x4b
  41c881:	and    edx,ebx
  41c883:	push   cs
  41c884:	sbb    al,0xa5
  41c886:	pusha  
  41c887:	sti    
  41c888:	mov    ebp,0x8511be39
  41c88d:	lods   al,BYTE PTR ds:[esi]
  41c88e:	adc    eax,0x8adf6937
  41c893:	lahf   
  41c894:	out    0x9,al
  41c896:	jmp    0x65addb7e
  41c89b:	int    0x5
  41c89d:	sti    
  41c89e:	call   0xb89d:0xce0b69
  41c8a5:	pop    ds
  41c8a6:	xor    al,0x4
  41c8a8:	fstp   QWORD PTR [esi]
  41c8aa:	fnstenv ds:0xe6d1d11d
  41c8b0:	aaa    
  41c8b1:	mov    al,0x57
  41c8b3:	cmp    al,BYTE PTR [ecx+0x1c1d70bc]
  41c8b9:	cmp    edx,DWORD PTR [esi]
  41c8bb:	inc    esp
  41c8bc:	inc    ebx
  41c8bd:	xchg   dh,ah
  41c8bf:	xor    eax,0xcd9ceadc
  41c8c4:	and    BYTE PTR ds:0xaa21195a,bl
  41c8ca:	cli    
  41c8cb:	push   ds
  41c8cc:	mov    bl,0xa8
  41c8ce:	in     eax,dx
  41c8cf:	jmp    0x2bba:0x820f71a7
  41c8d6:	nop
  41c8d7:	pop    ebp
  41c8d8:	sbb    eax,0xe80cbb51
  41c8dd:	push   0x9a1d6058
  41c8e2:	in     eax,dx
  41c8e3:	stos   DWORD PTR es:[edi],eax
  41c8e4:	retf   0xdb05
  41c8e7:	inc    edi
  41c8e8:	aad    0x19
  41c8ea:	retf   0xfc02
  41c8ed:	enter  0xcb64,0xa4
  41c8f1:	dec    ecx
  41c8f2:	fs (bad) 
  41c8f4:	into   
  41c8f5:	mov    eax,ds:0x32948b08
  41c8fa:	sbb    DWORD PTR [eax],ebx
  41c8fc:	imul   DWORD PTR [ecx+0xeedf995]
  41c902:	sbb    eax,0xa0b11c76
  41c907:	sbb    ah,bh
  41c909:	shl    eax,1
  41c90b:	pop    es
  41c90c:	xchg   DWORD PTR [ecx-0x43e29cfb],ebp
  41c912:	xchg   ebx,eax
  41c913:	das    
  41c914:	jns    0x41c923
  41c916:	clc    
  41c917:	push   edi
  41c918:	out    0x22,al
  41c91a:	gs push ecx
  41c91c:	cmp    BYTE PTR [eax],dh
  41c91e:	dec    ebx
  41c91f:	inc    esp
  41c920:	and    DWORD PTR [ecx-0x47],0x22
  41c924:	inc    esp
  41c925:	xor    eax,0x8ebfc536
  41c92a:	lea    ebx,fs:[edi]
  41c92d:	in     eax,0x48
  41c92f:	mov    DWORD PTR [esi-0x40db5dad],ebp
  41c935:	lea    ecx,[ecx+0x53]
  41c938:	xor    eax,0x23a4bc50
  41c93d:	daa    
  41c93e:	xchg   esp,eax
  41c93f:	adc    BYTE PTR [edi],bl
  41c941:	lea    edx,[eax+edx*8]
  41c944:	adc    edi,ebp
  41c946:	out    0xc4,eax
  41c948:	sub    DWORD PTR [ecx+0x3bdaad39],0xbb57d4f3
  41c952:	clc    
  41c953:	sub    eax,DWORD PTR [ebx-0x1edb7cd1]
  41c959:	dec    esp
  41c95a:	sbb    dh,BYTE PTR [esi-0x70fbfce6]
  41c960:	cmps   BYTE PTR ds:[esi],BYTE PTR es:[edi]
  41c961:	stos   DWORD PTR es:[edi],eax
  41c962:	popf   
  41c963:	add    al,dh
  41c965:	inc    esp
  41c966:	dec    edi
  41c967:	cdq    
  41c968:	sub    bl,BYTE PTR [edi-0x70fd427b]
  41c96e:	sub    DWORD PTR fs:[eax+ebp*4],0x86fb83ae
  41c976:	mov    ah,0xf
  41c978:	ror    DWORD PTR [edx+0x28],1
  41c97b:	cmp    BYTE PTR [edx],al
  41c97d:	or     eax,0x1b4b0eba
  41c982:	std    
  41c983:	sub    bl,ch
  41c985:	cld    
  41c986:	xchg   DWORD PTR [eax+eiz*8-0x3c],esp
  41c98a:	ins    BYTE PTR es:[edi],dx
  41c98b:	dec    esi
  41c98c:	not    BYTE PTR [edx]
  41c98e:	icebp  
  41c98f:	(bad)  
  41c991:	stos   BYTE PTR es:[edi],al
  41c992:	loope  0x41c953
  41c994:	imul   edx,DWORD PTR [edx],0x20
  41c997:	jnp    0x41c9cf
  41c999:	mov    ebx,0x6e926c5
  41c99e:	gs sbb eax,0x6199facb
  41c9a4:	iret   
  41c9a5:	pop    edi
  41c9a6:	ror    BYTE PTR [esi],cl
  41c9a8:	repnz bound ebx,QWORD PTR [edx-0x6f]
  41c9ac:	sbb    DWORD PTR [ecx-0x76],ecx
  41c9af:	sub    eax,0xa610d673
  41c9b4:	pop    ebp
  41c9b5:	addr16 add bl,bl
  41c9b8:	arpl   WORD PTR [esi+0x698a1100],sp
  41c9be:	out    dx,al
  41c9bf:	inc    esi
  41c9c0:	pop    ds
  41c9c1:	int    0x5f
  41c9c3:	cmp    DWORD PTR [eax-0x64d217f9],ecx
  41c9c9:	movs   DWORD PTR es:[edi],DWORD PTR ds:[esi]
  41c9ca:	ins    DWORD PTR es:[edi],dx
  41c9cb:	xlat   BYTE PTR ds:[ebx]
  41c9cc:	mov    esp,0x7c2c01f6
  41c9d1:	sub    DWORD PTR [ecx],eax
  41c9d3:	pop    ecx
  41c9d4:	sbb    al,0x3d
  41c9d6:	push   0x79ad4f7a
  41c9db:	xchg   ebx,eax
  41c9dc:	xchg   ebp,eax
  41c9dd:	aaa    
  41c9de:	aaa    
  41c9df:	add    edx,DWORD PTR [edx]
  41c9e1:	int    0x23
  41c9e3:	nop
  41c9e4:	xor    ecx,DWORD PTR [ecx]
  41c9e6:	mov    eax,0x1577dd02
  41c9eb:	mov    dl,0xef
  41c9ed:	stos   DWORD PTR es:[edi],eax
  41c9ee:	imul   eax,DWORD PTR [eax],0x8647a34d
  41c9f4:	dec    eax
  41c9f5:	call   0xa5b9:0xe91b5116
  41c9fc:	pop    eax
  41c9fd:	ds mov ecx,0x41cc5ed1
  41ca03:	cmp    al,0xcb
  41ca05:	fsubp  st(0),st
  41ca07:	adc    BYTE PTR [edi+0x1d0c37a3],bh
  41ca0d:	imul   eax,DWORD PTR [esi],0x9f8ce4a1
  41ca13:	mov    al,0xc7
  41ca15:	mov    WORD PTR [eax+edi*8],ds
  41ca18:	loopne 0x41ca36
  41ca1a:	pop    edx
  41ca1b:	dec    ebp
  41ca1c:	lahf   
  41ca1d:	dec    esi
  41ca1e:	nop
  41ca1f:	sti    
  41ca20:	push   cs
  41ca21:	sbb    ecx,DWORD PTR [edi]
  41ca23:	(bad)  
  41ca24:	pop    ds
  41ca25:	int    0xe3
  41ca27:	adc    DWORD PTR [ecx],ebx
  41ca29:	or     ebx,DWORD PTR [ebx+edx*1+0x61]
  41ca2d:	stos   DWORD PTR es:[edi],eax
  41ca2e:	popa   
  41ca2f:	clc    
  41ca30:	ficom  WORD PTR [ebp-0x69]
  41ca33:	ret    0xe48
  41ca36:	repnz clc 
  41ca38:	and    dh,BYTE PTR [edi+0x65]
  41ca3b:	xchg   ebp,eax
  41ca3c:	test   esi,esi
  41ca3e:	nop
  41ca3f:	sti    
  41ca40:	ja     0x41cab4
  41ca42:	or     BYTE PTR [edi],0xc
  41ca45:	cmp    BYTE PTR [ebp-0x61f2e6e8],0x44
  41ca4c:	cdq    
  41ca4d:	push   ds
  41ca4e:	or     BYTE PTR [eax+ebx*2-0x19],cl
  41ca52:	xchg   ebp,eax
  41ca53:	adc    DWORD PTR [esi-0x80],ebx
  41ca56:	(bad)  
  41ca57:	dec    ebp
  41ca58:	(bad)  
  41ca59:	aam    0x4b
  41ca5b:	dec    esp
  41ca5c:	ret    
  41ca5d:	ja     0x41ca96
  41ca5f:	adc    DWORD PTR [ebx-0x59fef9c3],edi
  41ca65:	cwde   
  41ca66:	xor    dl,BYTE PTR [ebx+0x1d]
  41ca69:	dec    ebp
  41ca6a:	gs out 0x90,eax
  41ca6d:	out    0x42,al
  41ca6f:	mov    DWORD PTR [eax+0x70644c99],ebp
  41ca75:	cmp    BYTE PTR [ebp+ecx*1-0x2bbc39d5],bl
  41ca7c:	sbb    eax,0xc934874f
  41ca81:	push   ebx
  41ca82:	dec    eax
  41ca83:	fs xchg esi,eax
  41ca85:	nop
  41ca86:	arpl   WORD PTR [ecx-0x78],si
  41ca89:	jl     0x41ca9a
  41ca8b:	xor    cl,BYTE PTR [ebx+0x280d9edf]
  41ca91:	retf   
  41ca92:	je     0x41ca49
  41ca94:	sbb    eax,0x79514fc1
  41ca99:	fmul   QWORD PTR [eax]
  41ca9b:	push   0xffffffb3
  41ca9d:	lahf   
  41ca9e:	popa   
  41ca9f:	dec    ebp
  41caa0:	mov    ds,WORD PTR [esi]
  41caa2:	mov    ds:0x18d1fec,eax
  41caa7:	mov    DWORD PTR [edi+0x65],0xa7f2175e
  41caae:	cmp    eax,0xe04f435c
  41cab3:	jne    0x41ca3f
  41cab5:	push   0xffffffea
  41cab7:	push   edi
  41cab8:	pop    ds
  41cab9:	imul   ebp,DWORD PTR [ebx+0x6],0x3358ff55
  41cac0:	mov    BYTE PTR [ecx+0x61238ffd],ch
  41cac6:	adc    bl,al
  41cac8:	or     eax,0x36c252fb
  41cacd:	out    dx,eax
  41cace:	bound  eax,QWORD PTR [ecx]
  41cad0:	or     ch,cl
  41cad2:	xor    al,0xb5
  41cad4:	scas   eax,DWORD PTR es:[edi]
  41cad5:	add    eax,0x11980f9c
  41cada:	mov    bh,0x2d
  41cadc:	push   ds
  41cadd:	ins    DWORD PTR es:[edi],dx
  41cade:	mov    DWORD PTR [eax+0x592ca7f5],esi
  41cae4:	leave  
  41cae5:	outs   dx,BYTE PTR ds:[esi]
  41cae6:	dec    ecx
  41cae7:	sub    eax,0x2829516d
  41caec:	add    bh,ch
  41caee:	mov    edi,0x9627fbae
  41caf3:	shl    BYTE PTR [eax+0x1d24d5bc],1
  41caf9:	mov    ch,0xf5
  41cafb:	mov    edi,DWORD PTR [ecx-0x19]
  41cafe:	dec    esp
  41caff:	sub    DWORD PTR [ebx],edx
  41cb01:	aaa    
  41cb02:	ror    DWORD PTR [edi],cl
  41cb04:	or     al,0x7e
  41cb06:	dec    edi
  41cb07:	ror    DWORD PTR [edi],cl
  41cb09:	jmp    0xe2c202a9
  41cb0e:	jo     0x41caa8
  41cb10:	inc    edi
  41cb11:	int    0x5b
  41cb13:	pop    esi
  41cb14:	mov    DWORD PTR [ecx-0x1d],edx
  41cb17:	sbb    DWORD PTR [esi-0x303a9d6a],edx
  41cb1d:	mov    BYTE PTR ds:0xc0727b3d,ch
  41cb23:	sbb    eax,0x5acdabab
  41cb28:	jge    0x41cac1
  41cb2a:	xor    edi,esi
  41cb2c:	sbb    al,0x49
  41cb2e:	aas    
  41cb2f:	lock loope 0x41cad0
  41cb32:	imul   esp,DWORD PTR ds:0x54ddaa1b,0xf0d8fed5
  41cb3c:	pop    ebp
  41cb3d:	fmul   QWORD PTR [edx+0x62fed2cb]
  41cb43:	mov    ebp,0x8afd93a9
  41cb48:	xchg   DWORD PTR [ecx-0x29f5d4],eax
  41cb4e:	xchg   edi,eax
  41cb4f:	cmps   BYTE PTR ds:[si],BYTE PTR es:[di]
  41cb51:	loopne 0x41cb4b
  41cb53:	dec    edi
  41cb54:	jmp    0x41cbcb
  41cb56:	inc    edi
  41cb57:	add    eax,0x6f4c4b9d
  41cb5c:	inc    edx
  41cb5d:	stos   BYTE PTR es:[edi],al
  41cb5e:	jne    0x41cb29
  41cb60:	stos   BYTE PTR es:[edi],al
  41cb61:	pop    esp
  41cb62:	popa   
  41cb63:	or     BYTE PTR [edi+0x1d],ch
  41cb66:	push   edx
  41cb67:	mov    BYTE PTR [ebx+0x73d564f5],bl
  41cb6d:	cmp    bl,bl
  41cb6f:	inc    edi
  41cb70:	div    DWORD PTR ds:0x2f01110a
  41cb76:	popa   
  41cb77:	jmp    0x79f3cc99
  41cb7c:	adc    edx,eax
  41cb7e:	ds push ebx
  41cb80:	mov    WORD PTR [ecx+eiz*2-0x6d6677e5],gs
  41cb87:	imul   ecx,esp,0x2a
  41cb8a:	cmp    eax,0x653da0a7
  41cb8f:	loope  0x41cb80
  41cb91:	fmul   DWORD PTR [ebp+0x2f9c737]
  41cb97:	adc    DWORD PTR [edi+ecx*8],edi
  41cb9a:	cmc    
  41cb9b:	mov    ds:0xd6a074e4,al
  41cba0:	jp     0x41cb4d
  41cba2:	scas   eax,DWORD PTR es:[edi]
  41cba3:	add    al,0x94
  41cba5:	lods   eax,DWORD PTR ds:[esi]
  41cba6:	int    0x7e
  41cba8:	stos   DWORD PTR es:[edi],eax
  41cba9:	and    al,cl
  41cbab:	push   cs
  41cbac:	add    eax,0xfe86d38c
  41cbb1:	add    esp,DWORD PTR [esi-0x40661476]
  41cbb7:	xchg   ecx,eax
  41cbb8:	pop    ds
  41cbb9:	or     ebp,DWORD PTR gs:[edi+0x65]
  41cbbd:	je     0x41cb49
  41cbbf:	loop   0x41cb44
  41cbc1:	xchg   ecx,eax
  41cbc2:	rcl    DWORD PTR [eax],cl
  41cbc4:	pop    eax
  41cbc5:	add    edi,DWORD PTR [eax+0x36d035d]
  41cbcb:	pop    ds
  41cbcc:	add    bh,cl
  41cbce:	ret    
  41cbcf:	and    BYTE PTR [edx-0x609edb86],cl
  41cbd5:	pop    ss
  41cbd6:	push   ecx
  41cbd7:	rcr    DWORD PTR [ebx+esi*1],cl
  41cbda:	mov    ecx,0xae1c79ef
  41cbdf:	dec    eax
  41cbe0:	in     al,dx
  41cbe1:	and    DWORD PTR [edx+0x7d],0xdbc558bb
  41cbe8:	xor    eax,DWORD PTR [edi+edi*2]
  41cbeb:	mov    BYTE PTR [ebx],0x43
  41cbee:	iret   
  41cbef:	or     bl,ch
  41cbf1:	call   0x717d:0x2918a346
  41cbf8:	and    eax,edi
  41cbfa:	mov    esi,0x13556f06
  41cbff:	movs   DWORD PTR es:[edi],DWORD PTR ds:[esi]
  41cc00:	retf   0xc99d
  41cc03:	cmp    al,BYTE PTR [ebx+0x74]
  41cc06:	xor    eax,0x9a234cf9
  41cc0b:	test   al,0x25
  41cc0d:	or     DWORD PTR [ecx],ebp
  41cc0f:	rol    DWORD PTR [edi],0xeb
  41cc12:	mov    BYTE PTR [ecx-0x2b813961],0x9c
  41cc19:	pop    edi
  41cc1a:	cmp    dh,BYTE PTR [ecx-0x197c552e]
  41cc20:	mov    bl,0xde
  41cc22:	bound  ecx,QWORD PTR [ecx]
  41cc24:	jbe    0x41cbfa
  41cc26:	mov    ah,0x64
  41cc28:	push   fs
  41cc2a:	inc    ebp
  41cc2b:	sbb    edx,DWORD PTR [ebx+0x3d]
  41cc2e:	outs   dx,BYTE PTR ds:[esi]
  41cc2f:	or     eax,0x83cbc7ba
  41cc34:	sbb    eax,0xe6d6ca0d
  41cc39:	xor    eax,0xac087f47
  41cc3e:	mov    eax,ds:0x5b64d1ac
  41cc43:	mov    ebp,edx
  41cc45:	repz repnz xchg edx,eax
  41cc48:	(bad)  
  41cc49:	gs fs dec ecx
  41cc4c:	call   0x242c09f3
  41cc51:	gs retf 0x1706
  41cc55:	les    ebp,FWORD PTR [ecx]
  41cc57:	cmp    bh,BYTE PTR [edi-0x4b461ce0]
  41cc5d:	sub    DWORD PTR [ebx+0x1],esp
  41cc60:	mov    ch,0x3b
  41cc62:	or     al,0xd2
  41cc64:	jns    0x9835c0e8
  41cc6a:	jo     0x41cc7e
  41cc6c:	call   0xda47affa
  41cc71:	adc    eax,0x48d58e62
  41cc76:	arpl   WORD PTR [ebp-0x25bc7933],si
  41cc7c:	xlat   BYTE PTR ds:[ebx]
  41cc7d:	dec    ecx
  41cc7e:	sub    dh,dl
  41cc80:	sbb    al,0xc1
  41cc82:	sub    BYTE PTR [eax],ah
  41cc84:	push   ebp
  41cc85:	pop    esi
  41cc86:	(bad)  
  41cc88:	xchg   edi,eax
  41cc89:	jno    0x41ccee
  41cc8b:	pop    ecx
  41cc8c:	dec    edx
  41cc8d:	test   eax,0x4b8ec706
  41cc92:	sbb    al,ah
  41cc94:	popa   
  41cc95:	ret    0x7864
  41cc98:	mov    ds:0x1ea43c24,al
  41cc9d:	jno    0x41cc3e
  41cc9f:	pop    ss
  41cca0:	lahf   
  41cca1:	out    dx,al
  41cca2:	xchg   ebp,eax
  41cca3:	add    DWORD PTR [eax],edi
  41cca5:	cmp    bl,bh
  41cca7:	rcr    BYTE PTR [edi-0x4cf249b4],1
  41ccad:	xchg   ecx,eax
  41ccae:	test   ah,0x8b
  41ccb1:	shl    BYTE PTR [ebx],1
  41ccb3:	bswap  ecx
  41ccb5:	add    DWORD PTR [eax],ebx
  41ccb7:	rcr    DWORD PTR [esi],1
  41ccb9:	and    eax,0x2f98c1a2
  41ccbe:	xchg   edi,eax
  41ccbf:	into   
  41ccc0:	(bad)  
  41ccc1:	stos   DWORD PTR es:[edi],eax
  41ccc2:	mov    cl,0xce
  41ccc4:	xor    eax,esp
  41ccc6:	jno    0x41cd0f
  41ccc8:	push   0xffffff8d
  41ccca:	cli    
  41cccb:	adc    al,0x1f
  41cccd:	aad    0x6f
  41cccf:	pop    ss
  41ccd0:	(bad)  
  41ccd1:	icebp  
  41ccd2:	in     al,0xc6
  41ccd4:	ret    0x31a9
  41ccd7:	or     esi,DWORD PTR [edx]
  41ccd9:	pop    ss
  41ccda:	mov    bl,0xca
  41ccdc:	xor    esi,DWORD PTR [eax]
  41ccde:	xchg   esp,eax
  41ccdf:	xchg   ebx,eax
  41cce0:	into   
  41cce1:	sbb    ch,dh
  41cce3:	mov    esp,0x68608253
  41cce8:	(bad)  
  41ccea:	jne    0x41ccf5
  41ccec:	xchg   edi,eax
  41cced:	pop    es
  41ccee:	mov    cl,0xf
  41ccf0:	and    eax,0x1bf8536a
  41ccf5:	adc    eax,0x671aa56b
  41ccfa:	fistp  WORD PTR [esi+0x2304453f]
  41cd00:	mov    bl,0xdc
  41cd02:	mov    esi,0x299a590e
  41cd07:	bound  edx,QWORD PTR [eax*1-0x6201eada]
  41cd0e:	mov    ss,WORD PTR [edx-0x722a5b7e]
  41cd14:	lahf   
  41cd15:	dec    edx
  41cd16:	retf   0x18d4
  41cd19:	rol    BYTE PTR [ecx-0x2d951532],0x68
  41cd20:	sbb    al,0x35
  41cd22:	outs   dx,DWORD PTR ds:[esi]
  41cd23:	pop    ds
  41cd24:	wrmsr  
  41cd26:	adc    bl,BYTE PTR [eax+0x19]
  41cd29:	lods   eax,DWORD PTR ds:[esi]
  41cd2a:	cdq    
  41cd2b:	jge    0x41ccd6
  41cd2d:	mov    al,dl
  41cd2f:	fstp   QWORD PTR [edi-0x4f]
  41cd32:	(bad)
  41cd36:	popa   
  41cd37:	adc    DWORD PTR [ebp-0x78d27c91],edi
  41cd3d:	mov    ds:0x78700fe3,al
  41cd42:	ret    
  41cd43:	inc    eax
  41cd44:	sbb    al,0xc1
  41cd46:	sbb    BYTE PTR [edx],cl
  41cd48:	or     al,0x83
  41cd4a:	add    BYTE PTR [esi-0x65843a65],ah
  41cd50:	jnp    0x41cdad
  41cd52:	mov    cl,0xe
  41cd54:	sahf   
  41cd55:	push   esi
  41cd56:	adc    al,0xe
  41cd58:	loope  0x41ccfe
  41cd5a:	pop    ss
  41cd5b:	mov    dl,0x28
  41cd5d:	stos   BYTE PTR es:[edi],al
  41cd5e:	push   ecx
  41cd5f:	and    cl,BYTE PTR ds:0x37630cd9
  41cd65:	xlat   BYTE PTR ds:[ebx]
  41cd66:	sub    edx,DWORD PTR [ecx]
  41cd68:	or     eax,DWORD PTR ds:0xbf2a6aee
  41cd6e:	ret    
  41cd6f:	dec    edi
  41cd70:	mov    ch,0xb5
  41cd72:	arpl   bp,dx
  41cd74:	xchg   edi,eax
  41cd75:	aam    0x84
  41cd77:	inc    ecx
  41cd78:	aaa    
  41cd79:	mov    DWORD PTR [ecx],esp
  41cd7b:	syscall 
  41cd7d:	cwde   
  41cd7e:	xchg   esp,eax
  41cd7f:	push   ss
  41cd80:	pop    ds
  41cd81:	leave  
  41cd82:	sahf   
  41cd83:	sub    DWORD PTR [edi-0x65c31b11],edi
  41cd89:	aam    0x53
  41cd8b:	jns    0x41cd60
  41cd8d:	in     al,dx
  41cd8e:	outs   dx,BYTE PTR ds:[esi]
  41cd8f:	or     DWORD PTR [ecx+0x7cd50991],ebp
  41cd95:	jp     0x41cdc7
  41cd97:	xor    al,0x1d
  41cd99:	loope  0x41cdec
  41cd9b:	mov    ah,0xc5
  41cd9d:	fisttp QWORD PTR [ebp+esi*2+0x73b53644]
  41cda4:	cmps   DWORD PTR ds:[esi],DWORD PTR es:[edi]
  41cda5:	test   eax,0x99b3d678
  41cdaa:	out    dx,al
  41cdab:	push   ss
  41cdac:	or     eax,0x8a060d5
  41cdb1:	lods   eax,DWORD PTR ds:[esi]
  41cdb2:	mov    eax,0x6290004f
  41cdb7:	aaa    
  41cdb8:	aaa    
  41cdb9:	call   0xeeca:0xa3420fe5
  41cdc0:	push   edi
  41cdc1:	lods   eax,DWORD PTR ds:[esi]
  41cdc2:	clc    
  41cdc3:	jle    0x41cdaa
  41cdc5:	fs gs cmc 
  41cdc8:	imul   edi,DWORD PTR [esi-0xb7cd3e9],0x61
  41cdcf:	push   cs
  41cdd0:	mov    al,ds:0x8e92fcf0
  41cdd5:	jno    0x41ce4d
  41cdd7:	icebp  
  41cdd8:	fimul  DWORD PTR [ebp-0x409ac29d]
  41cdde:	out    0x43,eax
  41cde0:	mov    ecx,edx
  41cde2:	ins    BYTE PTR es:[edi],dx
  41cde3:	sbb    edi,esi
  41cde5:	dec    eax
  41cde6:	fs pop ebp
  41cde8:	inc    ecx
  41cde9:	and    al,bh
  41cdeb:	scas   al,BYTE PTR es:[edi]
  41cdec:	mov    ss,WORD PTR [ebx+0x60]
  41cdef:	xor    DWORD PTR [eax-0x16],edx
  41cdf2:	cmp    eax,0xf537372e
  41cdf7:	popf   
  41cdf8:	xchg   edx,eax
  41cdf9:	stos   BYTE PTR es:[edi],al
  41cdfa:	int3   
  41cdfb:	lods   al,BYTE PTR ds:[esi]
  41cdfc:	imul   DWORD PTR [esi-0xae2c814]
  41ce02:	jns    0x41cd8c
  41ce04:	stos   DWORD PTR es:[edi],eax
  41ce05:	xor    bl,bl
  41ce07:	add    al,0x10
  41ce09:	outs   dx,DWORD PTR ds:[esi]
  41ce0a:	mov    DWORD PTR [edx-0x68],eax
  41ce0d:	inc    eax
  41ce0e:	loopne 0x41ce13
  41ce10:	dec    edi
  41ce11:	pushf  
  41ce12:	fidivr WORD PTR [eax]
  41ce14:	test   al,0x6b
  41ce16:	inc    edi
  41ce17:	shl    DWORD PTR [ecx],1
  41ce19:	das    
  41ce1a:	gs imul esp,eax,0x5b49de58
  41ce21:	retf   
  41ce22:	push   eax
  41ce23:	adc    dl,dl
  41ce25:	jle    0x41ce0a
  41ce27:	sub    dl,BYTE PTR [edx]
  41ce29:	aad    0xf9
  41ce2b:	mov    cl,0xfd
  41ce2d:	mov    esi,0xe72d9eda
  41ce32:	arpl   WORD PTR [eax],si
  41ce34:	mov    ebx,0x9611438f
  41ce39:	cmp    ebx,DWORD PTR [edx+0x2]
  41ce3c:	in     al,0x7c
  41ce3e:	(bad)  
  41ce3f:	hlt    
  41ce40:	adc    al,0x1d
  41ce42:	arpl   WORD PTR [esi-0x1bd0a4e2],si
  41ce48:	outs   dx,DWORD PTR ds:[esi]
  41ce49:	stos   DWORD PTR es:[edi],eax
  41ce4a:	leave  
  41ce4b:	sbb    DWORD PTR [eax+0x9],eax
  41ce4e:	pop    edx
  41ce4f:	mov    al,0xe7
  41ce51:	or     bl,bl
  41ce53:	jle    0x41ce7b
  41ce55:	sti    
  41ce56:	popa   
  41ce57:	sub    eax,0x7d70a100
  41ce5c:	xlat   BYTE PTR ds:[ebx]
  41ce5d:	ror    DWORD PTR [edi+0x50],0xa0
  41ce61:	data16 mov bl,0x69
  41ce64:	xor    BYTE PTR [esp+eiz*2-0x57],bl
  41ce68:	out    dx,eax
  41ce69:	push   ecx
  41ce6a:	ret    
  41ce6b:	xor    edx,DWORD PTR [eax+ebp*4+0x15]
  41ce6f:	push   ds
  41ce70:	xor    dl,BYTE PTR [edi-0x52fee626]
  41ce76:	dec    edx
  41ce77:	push   ecx
  41ce78:	movs   DWORD PTR es:[edi],DWORD PTR ds:[esi]
  41ce79:	adc    BYTE PTR [eax+0x1d2a1cae],bl
  41ce7f:	pop    ss
  41ce80:	adc    DWORD PTR [esp+ebx*2],0x30
  41ce84:	les    sp,DWORD PTR [eax]
  41ce87:	xor    bl,BYTE PTR ds:0xc41a924d
  41ce8d:	loopne 0x41ce35
  41ce8f:	(bad)  
  41ce91:	ins    BYTE PTR es:[edi],dx
  41ce92:	or     BYTE PTR [ebx],ah
  41ce94:	in     al,0xb9
  41ce96:	mov    edx,0x5e68745f
  41ce9b:	jmp    0xe98f:0x280a2d4d
  41cea2:	(bad)  
  41cea4:	sbb    al,0x81
  41cea6:	jmp    0x41cefd
  41cea8:	hlt    
  41cea9:	cli    
  41ceaa:	das    
  41ceab:	push   esp
  41ceac:	cld    
  41cead:	pop    ds
  41ceae:	daa    
  41ceaf:	mov    DWORD PTR [esi-0x17],esp
  41ceb2:	and    ebx,DWORD PTR [ebx+0x156566a3]
  41ceb8:	movs   BYTE PTR es:[edi],BYTE PTR ds:[esi]
  41ceb9:	lods   al,BYTE PTR ds:[esi]
  41ceba:	mov    ecx,0xcdb5b912
  41cebf:	sbb    eax,0x5bac28a2
  41cec4:	retf   
  41cec5:	mov    bh,0x62
  41cec7:	push   ecx
  41cec8:	push   cs
  41cec9:	rcr    ch,1
  41cecb:	cmp    DWORD PTR [esi+0x711e2da9],ecx
  41ced1:	inc    ebx
  41ced2:	add    al,0x89
  41ced4:	sbb    ebp,DWORD PTR [edx]
  41ced6:	cmp    al,0xf8
  41ced8:	or     DWORD PTR [ebx],edi
  41ceda:	dec    eax
  41cedb:	sbb    eax,0x9556ed5e
  41cee0:	mov    al,0x2e
  41cee2:	jno    0x41ceb4
  41cee4:	push   esi
  41cee5:	jae    0x41ce69
  41cee7:	lock sbb eax,0xd4e5ab6d
  41ceed:	sti    
  41ceee:	and    ah,BYTE PTR [ecx+0x54]
  41cef1:	fcomp  DWORD PTR [edi+0x71]
  41cef4:	fdiv   DWORD PTR [eax-0x554c1dfb]
  41cefa:	test   DWORD PTR [ebp+0x5a],esi
  41cefd:	jl     0x41cf46
  41ceff:	std    
  41cf00:	sub    edi,edx
  41cf02:	in     eax,dx
  41cf03:	icebp  
  41cf04:	pop    ecx
  41cf05:	aaa    
  41cf06:	popa   
  41cf07:	and    DWORD PTR [edx],ebp
  41cf09:	sub    DWORD PTR [eax],eax
  41cf0b:	push   cs
  41cf0c:	out    dx,al
  41cf0d:	stc    
  41cf0e:	xchg   BYTE PTR ds:[ebx+0x3f],bh
  41cf12:	push   ebx
  41cf13:	(bad)  
  41cf15:	mov    dl,0x33
  41cf17:	mov    ds:0x950f6ca5,eax
  41cf1c:	ss stos BYTE PTR es:[edi],al
  41cf1e:	icebp  
  41cf1f:	(bad)  
  41cf20:	stos   BYTE PTR es:[edi],al
  41cf21:	mov    eax,ds:0xab8c81fa
  41cf26:	add    DWORD PTR [edx+0x4f7fb5f0],eax
  41cf2c:	lods   eax,DWORD PTR ds:[esi]
  41cf2d:	lahf   
  41cf2e:	pop    esp
  41cf2f:	and    DWORD PTR [edi],edi
  41cf31:	addr16 popa 
  41cf33:	test   eax,0x10c2718
  41cf38:	imul   ebp,DWORD PTR [ecx+0x357b2dd5],0x34
  41cf3f:	imul   edx,DWORD PTR [eax],0xb6e7c90f
  41cf45:	fadd   DWORD PTR [edi-0xb]
  41cf48:	pop    esp
  41cf49:	mov    bh,0x33
  41cf4b:	(bad)  
  41cf4d:	cdq    
  41cf4e:	cmc    
  41cf4f:	iret   
  41cf50:	enter  0x99a,0x80
  41cf54:	adc    ebp,esp
  41cf56:	sbb    al,0x4
  41cf58:	popa   
  41cf59:	retf   
  41cf5a:	mov    ds:0x97d51d59,al
  41cf5f:	(bad)  
  41cf60:	scas   al,BYTE PTR es:[edi]
  41cf61:	pop    eax
  41cf62:	pop    eax
  41cf63:	xor    eax,DWORD PTR [edx-0x4c]
  41cf66:	movs   BYTE PTR es:[edi],BYTE PTR ds:[esi]
  41cf67:	or     al,0x1c
  41cf69:	std    
  41cf6a:	lods   al,BYTE PTR ds:[esi]
  41cf6b:	ins    BYTE PTR es:[edi],dx
  41cf6c:	fdiv   QWORD PTR [ebx+edi*8]
  41cf6f:	cdq    
  41cf70:	sbb    cl,BYTE PTR [ebp-0x67a00c2b]
  41cf76:	ficomp WORD PTR [esp+ebx*2+0x4]
  41cf7a:	dec    ecx
  41cf7b:	mov    eax,ds:0x109c20db
  41cf80:	rcl    DWORD PTR [ebx+eiz*1+0x35],0xa6
  41cf85:	ins    BYTE PTR es:[edi],dx
  41cf86:	sbb    al,0xcc
  41cf88:	xor    ch,BYTE PTR [ecx+0x47086771]
  41cf8e:	jns    0x41cf88
  41cf90:	sbb    BYTE PTR [eax-0x73],dh
  41cf93:	cmp    ebp,DWORD PTR [ebx]
  41cf95:	call   0x12e2:0x43ad2f00
  41cf9c:	in     eax,0xc
  41cf9e:	push   0x33abd251
  41cfa3:	adc    eax,0x6c1c1e24
  41cfa8:	dec    ebp
  41cfa9:	jmp    0x41d005
  41cfab:	sar    DWORD PTR [edi+0x390e7078],1
  41cfb1:	push   ecx
  41cfb2:	es pop ecx
  41cfb4:	sbb    al,0xf9
  41cfb6:	es scas al,BYTE PTR es:[edi]
  41cfb8:	mov    gs,ebx
  41cfba:	ret    0xc22
  41cfbd:	lods   al,BYTE PTR ds:[esi]
  41cfbe:	popa   
  41cfbf:	out    dx,al
  41cfc0:	and    esp,DWORD PTR [edi+0x3148b613]
  41cfc6:	inc    ecx
  41cfc7:	xor    ch,bh
  41cfc9:	jne    0x41d02f
  41cfcb:	jge    0x41cfd3
  41cfcd:	ds ja  0x41cfd5
  41cfd0:	cmps   DWORD PTR ds:[esi],DWORD PTR es:[edi]
  41cfd1:	sub    ah,BYTE PTR [ebx+0x3907aeea]
  41cfd7:	aas    
  41cfd8:	adc    esi,DWORD PTR [esi]
  41cfda:	bound  esp,QWORD PTR ds:0x85997317
  41cfe0:	add    DWORD PTR [ebx+0x629f2b09],edx
  41cfe6:	test   eax,0xac45e35c
  41cfeb:	out    dx,al
  41cfec:	push   edx
  41cfed:	mov    ebp,0xb4b18962
  41cff2:	sahf   
  41cff3:	ds iret 
  41cff5:	ins    DWORD PTR es:[edi],dx
  41cff6:	mov    edx,?
  41cff8:	dec    edx
  41cff9:	daa    
  41cffa:	(bad)  
  41cffb:	nop
  41cffc:	rcr    BYTE PTR [esi+ebp*4+0x7b],cl
  41d000:	sti    
  41d001:	mov    ebp,cs
  41d003:	pop    ebp
  41d004:	scas   al,BYTE PTR es:[edi]
  41d005:	stos   BYTE PTR es:[edi],al
  41d006:	push   edi
  41d007:	sbb    al,0xbb
  41d009:	push   edx
  41d00a:	push   esi
  41d00b:	mov    bl,0x4e
  41d00d:	je     0x41d018
  41d00f:	xor    BYTE PTR [esi+0x15caf8ae],ah
  41d015:	je     0x41cffb
  41d017:	xor    eax,0x2fd22b2d
  41d01c:	sbb    edx,DWORD PTR [ebx]
  41d01e:	in     al,dx
  41d01f:	or     BYTE PTR [ecx-0x71ec9b85],bl
  41d025:	mov    ecx,0xf1e75bf7
  41d02a:	mov    bl,0xf
  41d02c:	mov    ebp,ebp
  41d02e:	and    dl,dl
  41d030:	sbb    eax,0x2bcf4801
  41d035:	dec    esp
  41d036:	inc    ebx
  41d037:	cld    
  41d038:	fsubr  DWORD PTR [edx+0x640d8a89]
  41d03e:	xor    BYTE PTR [esi-0x70],0xbc
  41d042:	mov    esp,0x62230f4e
  41d047:	or     eax,0x47d540bf
  41d04c:	or     eax,0x52ae61ab
  41d051:	clc    
  41d052:	fwait
  41d053:	cmps   BYTE PTR ds:[esi],BYTE PTR es:[edi]
  41d054:	pop    esi
  41d055:	(bad)  
  41d056:	sti    
  41d057:	imul   ebx,DWORD PTR [edi],0xf8d78459
  41d05d:	call   0xb3a27077
  41d062:	pop    eax
  41d063:	mov    edx,0x250cab1c
  41d068:	popa   
  41d069:	fcmovu st,st(1)
  41d06b:	or     al,0xa2
  41d06d:	mov    eax,0xe00b7b45
  41d072:	mov    eax,ds:0x52f1d3e
  41d077:	inc    edi
  41d078:	inc    edi
  41d079:	test   eax,0x1d300921
  41d07e:	ficom  DWORD PTR [ebp+ecx*2+0x0]
  41d082:	fstp   TBYTE PTR [esi-0x6ce2fdd]
  41d088:	cmp    ebp,DWORD PTR [ebx+0x1936f5c9]
  41d08e:	push   eax
  41d08f:	test   eax,0x39f8f4bd
  41d094:	popf   
  41d095:	aaa    
  41d096:	bound  esp,QWORD PTR [ebp+0x3a]
  41d099:	jno    0x41d113
  41d09b:	dec    ebx
  41d09c:	stos   DWORD PTR es:[edi],eax
  41d09d:	ficom  DWORD PTR [eax+0x10]
  41d0a0:	mov    ds:0x36891a4a,al
  41d0a5:	lods   eax,DWORD PTR ds:[esi]
  41d0a6:	and    al,0xc3
  41d0a8:	xchg   BYTE PTR [ecx-0x75c3f2d3],ah
  41d0ae:	clc    
  41d0af:	adc    BYTE PTR [edx],dl
  41d0b1:	lods   al,BYTE PTR ds:[esi]
  41d0b2:	inc    ecx
  41d0b3:	mov    esi,fs
  41d0b5:	shl    BYTE PTR [edi-0x4a],cl
  41d0b8:	adc    eax,0x523d40bb
  41d0bd:	cmp    eax,ebp
  41d0bf:	and    ah,bh
  41d0c1:	xchg   ebx,eax
  41d0c2:	fs (bad) 
  41d0c4:	xchg   edi,eax
  41d0c5:	stos   BYTE PTR es:[edi],al
  41d0c6:	or     edx,0xf8be9098
  41d0cc:	xor    BYTE PTR [ebp+0x4f],0x2b
  41d0d0:	icebp  
  41d0d1:	or     al,0x63
  41d0d3:	jmp    0xd14df66e
  41d0d8:	ja     0x41d084
  41d0da:	out    0x10,eax
  41d0dc:	inc    ebx
  41d0dd:	fdiv   DWORD PTR [ebp+ebx*2+0x1f]
  41d0e1:	aad    0xb3
  41d0e3:	jne    0x41d115
  41d0e5:	sub    eax,0xa62e451c
  41d0ea:	mov    ebp,0x8eaf4ed1
  41d0ef:	lahf   
  41d0f0:	test   eax,0xe750fe1a
  41d0f5:	mov    BYTE PTR [ebp+0x3],al
  41d0f8:	cmp    DWORD PTR [esi],edx
  41d0fa:	mov    esp,0xa68a1c23
  41d0ff:	jo     0x41d0d2
  41d101:	cli    
  41d102:	sub    eax,0x6da880e9
  41d107:	push   ss
  41d108:	ficomp DWORD PTR [eax]
  41d10a:	pusha  
  41d10b:	xor    eax,0x24aac5
  41d110:	call   0xace82c04
  41d115:	push   edi
  41d116:	gs sub eax,0xf3247c2c
  41d11c:	(bad)  
  41d11d:	cmp    ah,BYTE PTR [ebp+0x17]
  41d120:	dec    eax
  41d121:	push   cs
  41d122:	arpl   WORD PTR [ebx+0x11],dx
  41d125:	jbe    0x41d10d
  41d127:	mov    eax,ds:0x4d75bde3
  41d12c:	sbb    al,0xb8
  41d12e:	out    dx,al
  41d12f:	cmp    al,0x9e
  41d131:	jp     0x41d196
  41d133:	xchg   esi,eax
  41d134:	inc    esi
  41d135:	jg     0x41d197
  41d137:	lock push eax
  41d139:	cmp    al,0x2
  41d13b:	mov    WORD PTR ds:0xb2e3aba5,ds
  41d141:	inc    edi
  41d142:	xchg   esp,eax
  41d143:	repnz push 0xd058ddab
  41d149:	mov    ?,WORD PTR [edx]
  41d14b:	(bad)  
  41d14c:	ja     0x41d175
  41d14e:	inc    edx
  41d14f:	cmps   BYTE PTR ds:[esi],BYTE PTR es:[edi]
  41d150:	int3   
  41d151:	xchg   edx,eax
  41d152:	daa    
  41d153:	popf   
  41d154:	popf   
  41d155:	cmc    
  41d156:	inc    esp
  41d157:	unpckhps xmm7,XMMWORD PTR [edi+0x39]
  41d15b:	inc    ecx
  41d15c:	dec    ebx
  41d15d:	cmp    edx,DWORD PTR [ebx+0x5ee4b078]
  41d163:	popa   
  41d164:	fcom   DWORD PTR ds:0x1a6ab063
  41d16a:	jmp    0xea33efb3
  41d16f:	xchg   ebx,eax
  41d170:	fsub   QWORD PTR [esi]
  41d172:	inc    ebx
  41d173:	dec    ecx
  41d174:	or     edx,DWORD PTR [edx]
  41d176:	add    DWORD PTR [edi],ecx
  41d178:	nop
  41d179:	loopne 0x41d1ec
  41d17b:	pushf  
  41d17c:	ds push ds
  41d17e:	fwait
  41d17f:	xchg   edi,eax
  41d180:	je     0x41d1b2
  41d182:	call   0x69203edf
  41d187:	call   0x8edc:0x53656a89
  41d18e:	mov    ecx,0x2c1a4d5a
  41d193:	rcl    dl,0x35
  41d196:	adc    BYTE PTR [eax+0xacc451e],0xf1
  41d19d:	sub    BYTE PTR [ecx-0xe],ah
  41d1a0:	mov    dl,0xa9
  41d1a2:	gs out 0xc1,eax
  41d1a5:	sub    al,0x63
  41d1a7:	mov    WORD PTR [ebx],ss
  41d1a9:	adc    al,0xd6
  41d1ab:	and    edx,DWORD PTR [esi+0x290161d2]
  41d1b1:	pusha  
  41d1b2:	es push ss
  41d1b4:	pushf  
  41d1b5:	mov    al,0x50
  41d1b7:	mov    BYTE PTR [ecx],dl
  41d1b9:	pop    ds
  41d1ba:	cmps   DWORD PTR ds:[esi],DWORD PTR es:[edi]
  41d1bb:	inc    esp
  41d1bc:	dec    eax
  41d1bd:	sbb    eax,0x9ab0fbd6
  41d1c2:	bound  esi,QWORD PTR [ebx+0x7f8c891e]
  41d1c8:	pop    edx
  41d1c9:	loope  0x41d1f8
  41d1cb:	xchg   esi,eax
  41d1cc:	imul   eax,esp,0xa95ef529
  41d1d2:	add    eax,0xee8fea3e
  41d1d7:	add    eax,0x9c186e7d
  41d1dc:	scas   eax,DWORD PTR es:[edi]
  41d1dd:	js     0x41d201
  41d1df:	push   edi
  41d1e0:	push   ds
  41d1e1:	mov    dh,0x1
  41d1e3:	xlat   BYTE PTR ds:[ebx]
  41d1e4:	mov    WORD PTR [ecx],ds
  41d1e6:	sbb    ebp,esi
  41d1e8:	sti    
  41d1e9:	(bad)  
  41d1ea:	jnp    0x41d1f9
  41d1ec:	cs and eax,0x4d1871bf
  41d1f2:	and    dl,al
  41d1f4:	adc    BYTE PTR [edx],cl
  41d1f6:	lods   eax,DWORD PTR ds:[esi]
  41d1f7:	cmps   BYTE PTR ds:[esi],BYTE PTR es:[edi]
  41d1f8:	jl     0x41d243
  41d1fa:	repnz out 0x13,eax
  41d1fd:	xor    DWORD PTR [edx-0x7979d8f2],ecx
  41d203:	xchg   edi,eax
  41d204:	addr16 jno 0x41d1ab
  41d207:	or     eax,ebx
  41d209:	popa   
  41d20a:	(bad)  
  41d20b:	std    
  41d20c:	and    bh,BYTE PTR [eax-0x45e4af01]
  41d212:	repz or eax,0x1b5a4e49
  41d218:	sbb    al,0xd5
  41d21a:	rol    BYTE PTR [ecx+0x18],0x23
  41d21e:	xchg   ecx,eax
  41d21f:	dec    edi
  41d220:	push   0xa461da9
  41d225:	mov    cl,0x63
  41d227:	jbe    0x41d288
  41d229:	out    dx,eax
  41d22a:	sub    eax,0x63c2c30d
  41d22f:	cmc    
  41d230:	repnz dec ebx
  41d232:	std    
  41d233:	sahf   
  41d234:	aaa    
  41d235:	loop   0x41d235
  41d237:	adc    BYTE PTR [edx+0x1],ch
  41d23a:	mov    DWORD PTR [edi],eax
  41d23c:	sbb    al,0xbd
  41d23e:	pop    ds
  41d23f:	and    DWORD PTR [edi],0xfffffff5
  41d242:	mov    cl,BYTE PTR [ebp-0x12aa437c]
  41d248:	dec    edx
  41d249:	test   al,0x11
  41d24b:	inc    ecx
  41d24c:	sbb    al,0x10
  41d24e:	fcomi  st,st(7)
  41d250:	push   esi
  41d251:	fadd   st(5),st
  41d253:	cmp    BYTE PTR [edi],bl
  41d255:	pop    ecx
  41d256:	stos   DWORD PTR es:[edi],eax
  41d257:	or     al,0x88
  41d259:	mov    ds:0x7e7f439e,eax
  41d25e:	ins    DWORD PTR es:[edi],dx
  41d25f:	mov    bl,0xde
  41d261:	jg     0x41d26b
  41d263:	pop    edi
  41d264:	int    0xd9
  41d266:	push   esi
  41d267:	xchg   edi,eax
  41d268:	aas    
  41d269:	push   ss
  41d26a:	fs push edx
  41d26c:	movs   BYTE PTR es:[edi],BYTE PTR ds:[esi]
  41d26d:	sbb    BYTE PTR [ebx-0x23],ah
  41d270:	shl    BYTE PTR [edi+edi*1-0x5f],cl
  41d274:	dec    ecx
  41d275:	test   eax,0x74144f91
  41d27a:	movs   DWORD PTR es:[edi],DWORD PTR ds:[esi]
  41d27b:	pop    ds
  41d27c:	cmp    ebp,eax
  41d27e:	xchg   esp,eax
  41d27f:	adc    cl,BYTE PTR [eax]
  41d281:	mov    eax,0x86af6161
  41d286:	and    eax,0x746783d4
  41d28b:	adc    BYTE PTR [ebp+0x10dd8d75],cl
  41d291:	xor    DWORD PTR [edi+0x1629c194],esi
  41d297:	mov    ds:0x8e27200d,eax
  41d29c:	pop    edi
  41d29d:	cmps   DWORD PTR ds:[esi],DWORD PTR es:[edi]
  41d29e:	shl    ah,0x21
  41d2a1:	addr16 mov ds:0xc5ca,al
  41d2a5:	jmp    0xd5601d12
  41d2aa:	inc    ebx
  41d2ab:	arpl   WORD PTR [eax+0x3c30d53],cx
  41d2b1:	lods   eax,DWORD PTR ds:[esi]
  41d2b2:	and    eax,0xd2f21619
  41d2b7:	addr16 mov ch,0x44
  41d2ba:	xor    edx,DWORD PTR [ebp-0x69]
  41d2bd:	mov    al,ds:0xb5898c7f
  41d2c2:	lds    ebx,FWORD PTR [edx+0x50b90360]
  41d2c8:	jae    0x41d2ad
  41d2ca:	cmp    al,0x11
  41d2cc:	test   BYTE PTR [edi+0x39],0xfe
  41d2d0:	mov    esp,0x84fa90b8
  41d2d5:	sbb    ebp,ebx
  41d2d7:	retf   
  41d2d8:	push   ebx
  41d2d9:	mov    ebp,0x3ddc10e4
  41d2de:	ds cdq 
  41d2e0:	pop    ds
  41d2e1:	mov    ch,0xd8
  41d2e3:	jns    0x41d2f7
  41d2e5:	lods   eax,DWORD PTR ds:[esi]
  41d2e6:	xlat   BYTE PTR ds:[ebx]
  41d2e7:	(bad)  
  41d2e8:	jl     0x41d295
  41d2ea:	push   ecx
  41d2eb:	inc    eax
  41d2ec:	in     al,dx
  41d2ed:	jbe    0x41d340
  41d2ef:	push   ecx
  41d2f0:	ins    DWORD PTR es:[edi],dx
  41d2f1:	imul   edx,DWORD PTR [ebp-0x57],0x677c1113
  41d2f8:	scas   eax,DWORD PTR es:[edi]
  41d2f9:	dec    eax
  41d2fa:	imul   ebp,DWORD PTR [eax+0x10719470],0xdbeffbf
  41d304:	or     DWORD PTR [ebx],ebp
  41d306:	rol    esp,1
  41d308:	push   ds
  41d309:	and    eax,0x1f486372
  41d30e:	push   eax
  41d30f:	add    al,0xf1
  41d311:	mov    ah,0xf3
  41d313:	add    al,0xef
  41d315:	dec    edx
  41d316:	fisttp WORD PTR [esi]
  41d318:	and    BYTE PTR [eax],0xef
  41d31b:	outs   dx,BYTE PTR ds:[esi]
  41d31c:	sbb    BYTE PTR [ecx-0x75],bh
  41d31f:	lods   eax,DWORD PTR ds:[esi]
  41d320:	mov    BYTE PTR [ecx-0x61],dl
  41d323:	aas    
  41d324:	int    0xa5
  41d326:	cdq    
  41d327:	cmps   BYTE PTR ds:[esi],BYTE PTR es:[edi]
  41d328:	cwde   
  41d329:	test   eax,0x7e8e4df9
  41d32e:	xchg   ebx,eax
  41d32f:	clc    
  41d330:	or     BYTE PTR [edx+0x25],bl
  41d333:	dec    ebx
  41d334:	jg     0x41d375
  41d336:	arpl   bp,si
  41d338:	mov    eax,ds:0x6b61a3e8
  41d33d:	xor    al,0xb9
  41d33f:	adc    BYTE PTR [ecx+0x3f],ah
  41d342:	push   0xffffff9f
  41d344:	sbb    al,0x69
  41d346:	call   0xbaa9:0x9653537e
  41d34d:	test   eax,0x7fb2d589
  41d352:	aas    
  41d353:	clc    
  41d354:	sahf   
  41d355:	jns    0x41d3c0
  41d357:	je     0x41d374
  41d359:	loopne 0x41d3bc
  41d35b:	(bad)  
  41d35d:	in     eax,0x7f
  41d35f:	mov    ebx,0xee2d687
  41d364:	mov    BYTE PTR [eax+0x1c],ah
  41d367:	sub    eax,0x18a2351e
  41d36c:	mov    al,0x94
  41d36e:	shl    BYTE PTR [edx+eiz*8-0x56],cl
  41d372:	and    eax,0x7a992873
  41d377:	push   cs
  41d378:	xchg   edi,eax
  41d379:	mov    esp,0x3e0064cb
  41d37e:	pop    ebx
  41d37f:	or     eax,0x6112abe4
  41d384:	jbe    0x41d354
  41d386:	ror    DWORD PTR [esi+0x7],cl
  41d389:	movs   BYTE PTR es:[edi],BYTE PTR ds:[esi]
  41d38a:	ret    
  41d38b:	psrld  mm4,QWORD PTR [edi-0x65]
  41d38f:	add    ebx,DWORD PTR [edi]
  41d391:	or     DWORD PTR [esi],edx
  41d393:	xchg   ebx,eax
  41d394:	lea    ebx,[ecx-0x5dc8aebe]
  41d39a:	int    0x4a
  41d39c:	(bad)  
  41d39d:	dec    esp
  41d39e:	xor    ebp,DWORD PTR [edx-0x38a8e8e2]
  41d3a4:	xor    BYTE PTR [edx],ch
  41d3a6:	gs ss dec edx
  41d3a9:	sub    esp,DWORD PTR [edx-0x4b]
  41d3ac:	mov    eax,ss
  41d3ae:	lea    ecx,[edx-0x51]
  41d3b1:	jne    0x41d336
  41d3b3:	add    al,0xa5
  41d3b5:	ficomp DWORD PTR [ecx+0x1b01636]
  41d3bb:	mov    edx,0x65b3611d
  41d3c0:	dec    DWORD PTR [ebp+ecx*4-0x38]
  41d3c4:	jb     0x41d437
  41d3c6:	fnstsw WORD PTR [esi*8+0x140700e1]
  41d3cd:	(bad)  
  41d3cf:	clc    
  41d3d0:	mov    esi,0x7ba6096
  41d3d5:	test   DWORD PTR [ebx+0x606bce90],esi
  41d3db:	loope  0x41d3bc
  41d3dd:	icebp  
  41d3de:	xor    eax,DWORD PTR [ebx-0x55]
  41d3e1:	das    
  41d3e2:	push   ss
  41d3e3:	add    dl,BYTE PTR [ebp+0x7faa1456]
  41d3e9:	mov    ah,0x42
  41d3eb:	(bad)  
  41d3ec:	push   ds
  41d3ed:	in     eax,0x7f
  41d3ef:	daa    
  41d3f0:	test   al,0xe0
  41d3f2:	lahf   
  41d3f3:	fstp   TBYTE PTR [edx+0x27805f4a]
  41d3f9:	adc    DWORD PTR [ebx],esp
  41d3fb:	add    cl,BYTE PTR [eax+eiz*2]
  41d3fe:	test   bh,dl
  41d400:	sub    eax,0xedf621e3
  41d405:	sub    BYTE PTR [ebp+0x19],ah
  41d408:	sub    bl,BYTE PTR [eax-0x32]
  41d40b:	jno    0x41d428
  41d40d:	ja     0x41d3f5
  41d40f:	sahf   
  41d410:	pop    ecx
  41d411:	jbe    0x41d3fe
  41d413:	push   cs
  41d414:	jbe    0x41d3d2
  41d416:	fwait
  41d417:	das    
  41d418:	jae    0x41d411
  41d41a:	bound  edx,QWORD PTR [ecx-0x75fdb898]
  41d420:	ds stos BYTE PTR es:[edi],al
  41d422:	lds    ebx,FWORD PTR [edi]
  41d424:	dec    eax
  41d425:	cwde   
  41d426:	cmps   DWORD PTR ds:[esi],DWORD PTR es:[edi]
  41d427:	push   eax
  41d428:	add    eax,DWORD PTR [ebx-0x2f]
  41d42b:	mov    eax,ds:0x6964daef
  41d430:	sub    eax,0xaae4aa42
  41d435:	cmp    al,0xbd
  41d437:	sub    ebx,eax
  41d439:	lods   al,BYTE PTR ds:[esi]
  41d43a:	cmovne esi,DWORD PTR [edx+0x25]
  41d43e:	loopne 0x41d414
  41d440:	sbb    al,0x1
  41d442:	iret   
  41d443:	mov    esp,0x97ea6ff
  41d448:	scas   al,BYTE PTR es:[edi]
  41d449:	scas   eax,DWORD PTR es:[edi]
  41d44a:	clc    
  41d44b:	mov    cl,0x1d
  41d44d:	sbb    eax,0xd1849fda
  41d452:	xor    al,0x46
  41d454:	pop    ds
  41d455:	jge    0x41d493
  41d457:	int    0x5e
  41d459:	ins    DWORD PTR es:[edi],dx
  41d45a:	pop    ss
  41d45b:	cmp    DWORD PTR [eax-0xc17437],0xf90f3e02
  41d465:	mov    ch,0x36
  41d467:	and    al,0x1e
  41d469:	aad    0xcf
  41d46b:	add    edx,DWORD PTR [edi-0x57c70688]
  41d471:	stos   DWORD PTR es:[edi],eax
  41d472:	pop    ebp
  41d473:	mov    bl,0x5e
  41d475:	std    
  41d476:	jge    0x41d47e
  41d478:	xor    eax,0x44435967
  41d47d:	and    DWORD PTR [ebp+eax*1-0x1b],0x13759315
  41d485:	nop
  41d486:	sahf   
  41d487:	mov    ebx,db1
  41d48a:	movs   BYTE PTR es:[edi],BYTE PTR ds:[esi]
  41d48b:	inc    esi
  41d48c:	loop   0x41d4ea
  41d48e:	stos   BYTE PTR es:[edi],al
  41d48f:	fisttp DWORD PTR [esi]
  41d491:	sub    ah,BYTE PTR [eax]
  41d493:	and    eax,0xd90fccb3
  41d498:	in     al,dx
  41d499:	cwde   
  41d49a:	sub    eax,0xc33b6a40
  41d49f:	sub    ebp,0x9
  41d4a2:	aad    0xd
  41d4a4:	and    dh,BYTE PTR [eax-0x49]
  41d4a7:	mov    dl,0x43
  41d4a9:	jnp    0x41d4fa
  41d4ab:	fsubr  DWORD PTR [eax+0x2590b1eb]
  41d4b1:	lods   al,BYTE PTR ds:[esi]
  41d4b2:	leave  
  41d4b3:	push   ss
  41d4b4:	retf   
  41d4b5:	push   ebx
  41d4b6:	jb     0x41d4e3
  41d4b8:	and    bl,BYTE PTR [edi]
  41d4ba:	xlat   BYTE PTR ds:[ebx]
  41d4bb:	lds    ebp,FWORD PTR [edx]
  41d4bd:	pop    ebx
  41d4be:	fs loope 0x41d4ba
  41d4c1:	sub    eax,0xc0bf9ca2
  41d4c6:	cmp    cl,BYTE PTR [edi]
  41d4c8:	pop    ss
  41d4c9:	sti    
  41d4ca:	mov    bh,0x27
  41d4cc:	sbb    al,0xb1
  41d4ce:	div    BYTE PTR [eax+ebx*8]
  41d4d1:	jne    0x41d4b2
  41d4d3:	rcl    DWORD PTR ds:0x1cc9fcb2,1
  41d4d9:	mov    bh,0x84
  41d4db:	test   DWORD PTR [esi],ebx
  41d4dd:	daa    
  41d4de:	jecxz  0x41d473
  41d4e0:	pop    ds
  41d4e1:	cmc    
  41d4e2:	inc    eax
  41d4e3:	xchg   esp,eax
  41d4e4:	adc    al,0x47
  41d4e6:	push   eax
  41d4e7:	sbb    BYTE PTR [eax+0x29465a2],al
  41d4ed:	xchg   ebx,eax
  41d4ee:	jl     0x41d530
  41d4f0:	push   ds
  41d4f1:	sbb    ch,BYTE PTR [esi-0x42]
  41d4f4:	ds push esi
  41d4f6:	push   cs
  41d4f7:	push   ebx
  41d4f8:	shl    DWORD PTR [ebx+eiz*2+0x31],0xc0
  41d4fd:	inc    esi
  41d4fe:	scas   eax,DWORD PTR es:[edi]
  41d4ff:	cmp    BYTE PTR [edi],al
  41d501:	mov    bl,dh
  41d503:	push   cs
  41d504:	sub    esp,DWORD PTR [ebp-0x1ee677c5]
  41d50a:	and    dl,bh
  41d50c:	xchg   ebx,eax
  41d50d:	cmps   DWORD PTR ds:[esi],DWORD PTR es:[edi]
  41d50e:	xchg   ebp,eax
  41d50f:	jne    0x41d4bd
  41d511:	cmp    eax,0x24bbde9f
  41d516:	adc    BYTE PTR [esi+0x47],dl
  41d519:	sbb    edx,DWORD PTR [edx]
  41d51b:	adc    BYTE PTR [eax],cl
  41d51d:	scas   eax,DWORD PTR es:[edi]
  41d51e:	sar    BYTE PTR [esp+ecx*8],1
  41d521:	jnp    0x41d588
  41d523:	lea    ecx,[ebp-0x4]
  41d526:	mov    dl,0xf0
  41d528:	xlat   BYTE PTR ds:[ebx]
  41d529:	xchg   esp,eax
  41d52a:	ins    DWORD PTR es:[edi],dx
  41d52b:	push   cs
  41d52c:	jp     0x41d535
  41d52e:	xor    eax,0x5ab91eb3
  41d533:	mov    DWORD PTR [ebp+ebx*8-0x54665ead],eax
  41d53a:	or     eax,0xc2d4c4c
  41d53f:	int    0xc8
  41d541:	add    al,0xae
  41d543:	(bad)
  41d546:	test   eax,0x653c7fec
  41d54b:	fld    QWORD PTR [edi+0x38ce19a9]
  41d551:	cmp    dl,BYTE PTR [eax]
  41d553:	and    al,0x63
  41d555:	shl    DWORD PTR [eax+0x4d],0x1a
  41d559:	frstor [ebx+0x31]
  41d55c:	add    al,0x61
  41d55e:	(bad)  
  41d55f:	shl    DWORD PTR [ebx],cl
  41d561:	push   ecx
  41d562:	in     al,0xf
  41d564:	adc    DWORD PTR [eax+eax*4-0x4c93df88],esp
  41d56b:	mov    ebp,0x12e7a5df
  41d570:	aam    0xaf
  41d572:	jno    0x41d4fe
  41d574:	pop    esi
  41d575:	push   edi
  41d576:	xchg   edi,eax
  41d577:	mov    ch,0xc7
  41d579:	or     dh,BYTE PTR ds:0xa4961fd7
  41d57f:	in     eax,dx
  41d580:	mov    cl,0x40
  41d582:	(bad)
  41d587:	mov    BYTE PTR [edi+eax*2],bl
  41d58a:	inc    esi
  41d58b:	sub    cl,BYTE PTR [eax+0x38]
  41d58e:	bound  ecx,QWORD PTR [edx+0x1057540f]
  41d594:	cdq    
  41d595:	mov    ds:0x3d1a743a,eax
  41d59a:	aaa    
  41d59b:	shl    BYTE PTR [edi],1
  41d59d:	adc    BYTE PTR [eax+0x47],dh
  41d5a0:	jle    0x41d5e3
  41d5a2:	cmp    al,0xbe
  41d5a4:	xchg   DWORD PTR [ebx],ebp
  41d5a6:	or     DWORD PTR [eax],edx
  41d5a8:	sbb    ah,ah
  41d5aa:	xlat   BYTE PTR ds:[ebx]
  41d5ab:	cmc    
  41d5ac:	sbb    eax,0xbf5d6ba9
  41d5b1:	add    esp,DWORD PTR [edx-0x2e549119]
  41d5b7:	fld    DWORD PTR [eax+ebp*1]
  41d5ba:	push   0x1e
  41d5bc:	xchg   esp,eax
  41d5bd:	pop    edi
  41d5be:	shl    DWORD PTR [edx],1
  41d5c0:	popf   
  41d5c1:	pop    eax
  41d5c2:	lods   eax,DWORD PTR ds:[esi]
  41d5c3:	jo     0x41d54d
  41d5c5:	mov    edi,0x9e25a963
  41d5ca:	adc    eax,0xd7e87ade
  41d5cf:	dec    ebp
  41d5d0:	fst    st(2)
  41d5d2:	jae    0x41d590
  41d5d4:	sub    al,cl
  41d5d6:	jb     0x41d655
  41d5d8:	sbb    edi,DWORD PTR [ebx]
  41d5da:	jmp    0xc307:0xccacb207
  41d5e1:	add    edi,DWORD PTR [edx-0x35]
  41d5e4:	xchg   edi,eax
  41d5e5:	ds jl  0x41d5f7
  41d5e8:	cmc    
  41d5e9:	inc    ebp
  41d5ea:	cmps   BYTE PTR es:[esi],BYTE PTR es:[edi]
  41d5ec:	sbb    al,0xd
  41d5ee:	(bad)  
  41d5f0:	pop    ss
  41d5f1:	in     eax,dx
  41d5f2:	jp     0x41d57a
  41d5f4:	rep stos BYTE PTR es:[edi],al
  41d5f6:	inc    ebp
  41d5f7:	out    0x7,eax
  41d5f9:	pushf  
  41d5fa:	cmp    BYTE PTR ds:0x80ae6be8,dl
  41d600:	push   ss
  41d601:	mov    es,WORD PTR [esi-0x53]
  41d604:	sahf   
  41d605:	ret    
  41d606:	xchg   esi,edx
  41d608:	sbb    cl,BYTE PTR [edi+0x185fc695]
  41d60e:	cmp    bh,bh
  41d610:	sub    ebp,DWORD PTR [edx+0x7846e5d5]
  41d616:	icebp  
  41d617:	shr    bh,0x6b
  41d61a:	xor    al,0x23
  41d61c:	retf   
  41d61d:	ja     0x41d681
  41d61f:	(bad)  
  41d621:	jl     0x41d5e1
  41d623:	mov    al,ds:0x9338128b
  41d628:	mov    WORD PTR [eax],gs
  41d62a:	inc    edi
  41d62b:	adc    DWORD PTR [eax],ebp
  41d62d:	fs inc esi
  41d62f:	mov    esp,0xc564a022
  41d634:	out    0xe6,eax
  41d636:	in     al,dx
  41d637:	bound  ecx,QWORD PTR [ebx+0x4a]
  41d63a:	cmp    BYTE PTR [ecx],dl
  41d63c:	sub    al,0xbd
  41d63e:	sub    al,0x64
  41d640:	sbb    eax,0x474474fd
  41d645:	ret    0x3467
  41d648:	pushf  
  41d649:	pusha  
  41d64a:	mov    ch,0xdf
  41d64c:	sub    al,0xaa
  41d64e:	leave  
  41d64f:	ins    DWORD PTR es:[edi],dx
  41d650:	ins    BYTE PTR es:[edi],dx
  41d651:	dec    esi
  41d652:	push   0xffffffd4
  41d654:	push   ds
  41d655:	push   ebp
  41d656:	sti    
  41d657:	mov    cl,0x28
  41d659:	loop   0x41d6ca
  41d65b:	mov    al,ds:0x36d72cb
  41d660:	jnp    0x41d685
  41d662:	(bad)  
  41d663:	jb     0x41d6dc
  41d665:	sub    ebp,esp
  41d667:	test   eax,0x79f5e51e
  41d66c:	test   eax,0x5203ccf
  41d671:	stos   BYTE PTR es:[edi],al
  41d672:	lods   eax,DWORD PTR ds:[esi]
  41d673:	dec    eax
  41d674:	lods   eax,DWORD PTR ds:[esi]
  41d675:	jmp    0x2052637f
  41d67a:	adc    al,0x45
  41d67c:	sbb    al,0x25
  41d67e:	mov    esp,0xd333606d
  41d683:	cmp    BYTE PTR [ebp+0x7c],dh
  41d686:	xor    ah,cl
  41d688:	and    al,0xb4
  41d68a:	pop    esp
  41d68b:	jmp    0x41d634
  41d68d:	or     al,0x49
  41d68f:	push   ebp
  41d690:	imul   eax,DWORD PTR [ecx+0x21190ec4],0xfffffff9
  41d697:	dec    esi
  41d698:	iret   
  41d699:	call   0x2a1e8624
  41d69e:	test   eax,0x5b34e336
  41d6a3:	fstp   DWORD PTR [esi+esi*2-0x5c3a0809]
  41d6aa:	dec    edx
  41d6ab:	test   al,0x58
  41d6ad:	jg     0x41d713
  41d6af:	jge    0x41d6a4
  41d6b1:	popa   
  41d6b2:	mov    al,ds:0xe14b3bb9
  41d6b7:	add    al,0xb1
  41d6b9:	in     eax,dx
  41d6ba:	mov    BYTE PTR [ebx-0xa],ch
  41d6bd:	mov    edi,0x604af1c2
  41d6c2:	sbb    DWORD PTR fs:[ecx],ecx
  41d6c5:	stos   BYTE PTR es:[edi],al
  41d6c6:	fbld   TBYTE PTR [edi-0x39]
  41d6c9:	mov    ch,0xe6
  41d6cb:	or     al,0xa7
  41d6cd:	cdq    
  41d6ce:	idiv   DWORD PTR [esp+ecx*8+0x74]
  41d6d2:	or     DWORD PTR [edi+0x9657351],0x49
  41d6d9:	pop    eax
  41d6da:	test   al,0xb2
  41d6dc:	out    0x7f,eax
  41d6de:	add    BYTE PTR [edi+esi*4+0x2a0dc2fb],dh
  41d6e5:	fst    DWORD PTR [eax-0x171a3c39]
  41d6eb:	in     al,0x4b
  41d6ed:	dec    ebp
  41d6ee:	gs push esi
  41d6f0:	mov    dl,0x39
  41d6f2:	mov    eax,ds:0x8aacb1b7
  41d6f7:	dec    ebp
  41d6f8:	mov    bh,0xf0
  41d6fa:	int    0xfb
  41d6fc:	sbb    bl,cl
  41d6fe:	mov    eax,0x1c74033e
  41d703:	jns    0x41d6c6
  41d705:	leave  
  41d706:	bound  ebx,QWORD PTR [edx]
  41d708:	dec    eax
  41d709:	jno    0x41d6ac
  41d70b:	mov    cl,0xc4
  41d70d:	shl    BYTE PTR ds:0xb4855d5a,1
  41d713:	sub    DWORD PTR [edx-0x77bed884],0xffffff8d
  41d71a:	dec    ebp
  41d71b:	movzx  ebp,BYTE PTR [ecx-0x6b08e1d7]
  41d722:	pop    esp
  41d723:	jmp    0xa182:0x42b41c3a
  41d72a:	arpl   WORD PTR [ebp+0x5ffa3c93],cx
  41d730:	jae    0x41d706
  41d732:	sbb    ecx,DWORD PTR [esi]
  41d734:	mov    al,ds:0x1101888f
  41d739:	push   ebp
  41d73a:	pop    es
  41d73b:	test   eax,0x43280478
  41d740:	mov    ah,0x1c
  41d742:	loope  0x41d794
  41d744:	enter  0xb1a9,0x85
  41d748:	jmp    0x41d78b
  41d74a:	sub    BYTE PTR [esi-0x39],dh
  41d74d:	lahf   
  41d74e:	icebp  
  41d74f:	mov    eax,ds:0x1d657f67
  41d754:	mov    ds:0xe358c36b,eax
  41d759:	adc    DWORD PTR [edi],0x684d8ea0
  41d75f:	push   cs
  41d760:	sti    
  41d761:	or     DWORD PTR [esi-0x32],0xffffffea
  41d765:	cmp    DWORD PTR [ebp-0x2f],esp
  41d768:	int3   
  41d769:	mov    dh,0xb1
  41d76b:	sub    al,0xbf
  41d76d:	movs   DWORD PTR es:[edi],DWORD PTR ds:[esi]
  41d76e:	popw   ss
  41d770:	xchg   edi,eax
  41d771:	mov    esp,DWORD PTR [edx-0x1d]
  41d774:	xchg   ebx,eax
  41d775:	mov    ch,0x4a
  41d777:	popf   
  41d778:	mov    bh,0x40
  41d77a:	in     eax,0x63
  41d77c:	xchg   ecx,eax
  41d77d:	stos   DWORD PTR es:[edi],eax
  41d77e:	sbb    DWORD PTR ds:0x262916e2,ebp
  41d784:	jno    0x41d7e9
  41d786:	fldenv [eax]
  41d788:	out    0xae,al
  41d78a:	bound  edi,QWORD PTR ds:0x7789140
  41d790:	mov    bl,0xa5
  41d792:	adc    ecx,DWORD PTR [esi]
  41d794:	xchg   DWORD PTR [eax-0x2ae266a4],eax
  41d79a:	mov    dl,0x53
  41d79c:	dec    ebp
  41d79d:	cmp    DWORD PTR ds:0x2da8e327,ebp
  41d7a3:	adc    al,0xa
  41d7a5:	fcomp  DWORD PTR [ecx+0x3b]
  41d7a8:	sub    bl,0xa4
  41d7ab:	mov    BYTE PTR [edx],0x99
  41d7ae:	(bad)  
  41d7af:	xchg   edi,eax
  41d7b0:	data16 arpl WORD PTR [edi+0x5fcbcbe5],sp
  41d7b7:	jne    0x41d82a
  41d7b9:	aam    0xe6
  41d7bb:	or     eax,0x7b07492c
  41d7c0:	add    esi,edi
  41d7c2:	sbb    eax,0xfaacf800
  41d7c7:	sahf   
  41d7c8:	dec    ebp
  41d7c9:	dec    eax
  41d7ca:	popf   
  41d7cb:	push   ss
  41d7cc:	cdq    
  41d7cd:	popf   
  41d7ce:	arpl   WORD PTR ds:0xdf5ab528,sp
  41d7d4:	dec    ebx
  41d7d5:	stc    
  41d7d6:	adc    al,0xf
  41d7d8:	cmp    eax,DWORD PTR [ebx+0x2b]
  41d7db:	sbb    BYTE PTR [esi],0xb9
  41d7de:	sbb    BYTE PTR [ebp+0x21500176],bl
  41d7e4:	mov    ecx,0x6a53e9a9
  41d7e9:	inc    esp
  41d7ea:	mov    ah,0xb2
  41d7ec:	or     eax,0x2e37b69d
  41d7f1:	clc    
  41d7f2:	(bad)  
  41d7f3:	stc    
  41d7f4:	dec    edx
  41d7f5:	sub    eax,0x15871335
  41d7fa:	mov    eax,ds:0xc6599bd2
  41d7ff:	add    eax,0x4e45b7e7
  41d804:	js     0x41d7cb
  41d806:	cmps   DWORD PTR ds:[esi],DWORD PTR es:[edi]
  41d807:	mov    al,ds:0x8163e390
  41d80c:	shr    DWORD PTR [esi+ebx*8+0x49],cl
  41d810:	fild   QWORD PTR [esp+edi*4+0x10]
  41d814:	sbb    eax,DWORD PTR [ecx]
  41d816:	push   eax
  41d817:	mov    ds:0x3ba3591d,al
  41d81c:	enter  0xfd8b,0x2d
  41d820:	jecxz  0x41d7a7
  41d822:	or     DWORD PTR ds:0xaed0c5a4,esi
  41d828:	sub    esi,DWORD PTR [esi+0x51dbb63]
  41d82e:	push   edx
  41d82f:	dec    edi
  41d830:	cld    
  41d831:	fwait
  41d832:	and    eax,0x19ac3095
  41d837:	adc    DWORD PTR [edx-0x15928177],0xba90ea38
  41d841:	out    0x2c,al
  41d843:	inc    ecx
  41d844:	enter  0xfad,0x11
  41d848:	pop    edx
  41d849:	stos   DWORD PTR es:[edi],eax
  41d84a:	movs   DWORD PTR es:[edi],DWORD PTR ds:[esi]
  41d84b:	push   ecx
  41d84c:	cmc    
  41d84d:	push   edx
  41d84e:	adc    DWORD PTR [edx],0xffffffa2
  41d851:	loop   0x41d876
  41d853:	movs   BYTE PTR es:[edi],BYTE PTR ds:[esi]
  41d854:	push   ds
  41d855:	and    DWORD PTR [ebx-0x469534f3],esi
  41d85b:	sbb    dh,BYTE PTR [esp+esi*2]
  41d85e:	leave  
  41d85f:	dec    eax
  41d860:	or     bh,bl
  41d862:	sub    al,bh
  41d864:	sub    eax,0x1d8d6368
  41d869:	sbb    eax,0x4ef86131
  41d86e:	cli    
  41d86f:	or     edx,DWORD PTR [ecx]
  41d871:	stos   DWORD PTR es:[edi],eax
  41d872:	xor    eax,0x51744e7a
  41d877:	imul   ebx,DWORD PTR [esp+eax*2+0x23e67a22],0x74309916
  41d882:	in     eax,0xf9
  41d884:	test   eax,0xde7ce66
  41d889:	mov    esi,0xc86912e3
  41d88e:	pop    ebp
  41d88f:	aad    0x41
  41d891:	xor    esp,edx
  41d893:	push   cs
  41d894:	aaa    
  41d895:	dec    esp
  41d896:	in     eax,0xd5
  41d898:	iret   
  41d899:	push   edx
  41d89a:	mov    esi,0xba311dc9
  41d89f:	or     DWORD PTR [esi-0x37d6271a],ebp
  41d8a5:	test   eax,0xa0153341
  41d8aa:	in     eax,0x61
  41d8ac:	in     al,0x1d
  41d8ae:	add    BYTE PTR [edx+0x72],bl
  41d8b1:	popa   
  41d8b2:	jmp    0xfbb5:0x622102c4
  41d8b9:	stos   DWORD PTR es:[edi],eax
  41d8ba:	dec    ecx
  41d8bb:	sbb    edi,DWORD PTR [ecx+ebx*2]
  41d8be:	fisttp QWORD PTR [eax+0x28]
  41d8c1:	adc    ah,BYTE PTR [esi+edx*8]
  41d8c4:	cli    
  41d8c5:	fs pop ebx
  41d8c7:	fstp   QWORD PTR [ebx]
  41d8c9:	sub    al,0x50
  41d8cb:	lahf   
  41d8cc:	out    0xab,al
  41d8ce:	popf   
  41d8cf:	push   eax
  41d8d0:	jl     0x41d8a1
  41d8d2:	pushf  
  41d8d3:	aaa    
  41d8d4:	call   0x71f5:0x19243f92
  41d8db:	pop    es
  41d8dc:	and    al,0x88
  41d8de:	loope  0x41d8cc
  41d8e0:	mov    edi,0x56eec10d
  41d8e5:	sahf   
  41d8e6:	frstor [ecx]
  41d8e8:	cmp    DWORD PTR [esi],esi
  41d8ea:	fisttp QWORD PTR [ebx+0x21a275fe]
  41d8f0:	add    edx,DWORD PTR [ecx+0x503a6be4]
  41d8f6:	or     BYTE PTR [edx-0x6e1c59f2],ch
  41d8fc:	loop   0x41d8b8
  41d8fe:	mov    ebp,0xbdb2bbd1
  41d903:	add    al,BYTE PTR [ebp+0x3f5c5a6b]
  41d909:	in     al,dx
  41d90a:	int    0x52
  41d90c:	push   edi
  41d90d:	xchg   edi,eax
  41d90e:	mov    al,0xd
  41d910:	movs   BYTE PTR es:[edi],BYTE PTR ds:[esi]
  41d911:	inc    ebx
  41d912:	neg    dl
  41d914:	sbb    al,0x1d
  41d916:	mov    ecx,0xdedc8f7
  41d91b:	and    ecx,edi
  41d91d:	enter  0x3b94,0x1c
  41d921:	mov    bh,0x21
  41d923:	dec    esi
  41d924:	add    edi,DWORD PTR [esi]
  41d926:	add    BYTE PTR [ecx],al
  41d928:	scas   al,BYTE PTR es:[edi]
  41d929:	sub    al,0x2e
  41d92b:	add    bl,BYTE PTR [esi]
  41d92d:	repz jmp 0x41d8e9
  41d930:	xor    edi,DWORD PTR [eax+0x4c]
  41d933:	sbb    eax,0x4329a9d6
  41d938:	mov    cl,0x83
  41d93a:	ret    
  41d93b:	pop    edx
  41d93c:	outs   dx,BYTE PTR ds:[esi]
  41d93d:	out    0x81,al
  41d93f:	bnd jnp 0x41d8e6
  41d942:	pop    edi
  41d943:	fchs   
  41d945:	cmp    cl,BYTE PTR [esi-0x1c]
  41d948:	(bad)  
  41d949:	retf   
  41d94a:	xchg   esp,eax
  41d94b:	jne    0x41d969
  41d94d:	pop    edi
  41d94e:	popa   
  41d94f:	fisubr WORD PTR [ecx-0x11]
  41d952:	inc    esi
  41d953:	movs   BYTE PTR es:[edi],BYTE PTR ds:[esi]
  41d954:	inc    esi
  41d955:	inc    ecx
  41d956:	mov    ecx,0x659e0ec5
  41d95b:	mov    ebp,0x70e3ba7c
  41d960:	mov    edi,0x1b10a16e
  41d965:	mov    fs,ecx
  41d967:	sbb    BYTE PTR [ecx],ch
  41d969:	mov    al,ds:0x847322bc
  41d96e:	stos   BYTE PTR es:[edi],al
  41d96f:	or     eax,0x701fc701
  41d974:	sub    esp,esp
  41d976:	jb     0x41d986
  41d978:	movs   BYTE PTR es:[edi],BYTE PTR es:[esi]
  41d97a:	push   eax
  41d97b:	and    eax,0x7a3db8d4
  41d980:	sbb    al,0xdd
  41d982:	enter  0xc9a2,0xbb
  41d986:	mov    ebx,0x957adf7e
  41d98b:	call   0xf652:0xead9d08
  41d992:	cmp    cl,BYTE PTR [edx]
  41d994:	out    0xd2,eax
  41d996:	dec    eax
  41d997:	(bad)  
  41d999:	ja     0x41d9aa
  41d99b:	mov    BYTE PTR [edi+0x5fc463c2],al
  41d9a1:	mov    DWORD PTR [edx+0xf],esi
  41d9a4:	ss cmp eax,0x24afc02b
  41d9aa:	xor    eax,0xef38a512
  41d9af:	push   esp
  41d9b0:	jae    0x41d9eb
  41d9b2:	dec    ecx
  41d9b3:	and    bh,BYTE PTR [ebx+0x4f0023cd]
  41d9b9:	xor    al,0x4d
  41d9bb:	jmp    0xdade:0xe603792c
  41d9c2:	popa   
  41d9c3:	imul   edx,esi,0x54e83624
  41d9c9:	test   eax,0xdeef876d
  41d9ce:	rcr    BYTE PTR [eiz*2-0x104c511a],0x39
  41d9d6:	pop    edi
  41d9d7:	movs   DWORD PTR es:[edi],DWORD PTR ds:[esi]
  41d9d8:	movs   DWORD PTR es:[edi],DWORD PTR ds:[esi]
  41d9d9:	test   DWORD PTR [eax-0x44],0xea1dc9ce
  41d9e0:	jmp    0x3e57:0x7c158dab
  41d9e7:	(bad)  
  41d9e8:	push   esp
  41d9e9:	in     al,0x42
  41d9eb:	pop    ds
  41d9ec:	out    0xbc,al
  41d9ee:	bound  esp,QWORD PTR [ebp+0x65]
  41d9f1:	pop    ebx
  41d9f2:	sub    edx,ebx
  41d9f4:	and    ebx,ebx
  41d9f6:	sbb    dh,dl
  41d9f8:	xchg   edi,eax
  41d9f9:	imul   edx,DWORD PTR [eax],0x228c0d4f
  41d9ff:	pop    es
  41da00:	cs call 0x4ad57f65
  41da06:	and    al,0xd
  41da08:	enter  0xec1,0xca
  41da0c:	sub    eax,0xb5b585ab
  41da11:	cmp    BYTE PTR [edx+0x35],bl
  41da14:	mov    al,ds:0x635d4603
  41da19:	ret    0x1964
  41da1c:	jmp    0xf3730d15
  41da21:	call   0xc9c0e8b6
  41da26:	dec    ecx
  41da27:	push   esp
  41da28:	push   ds
  41da29:	mov    eax,ds:0x1d83d3ab
  41da2e:	outs   dx,BYTE PTR ds:[esi]
  41da2f:	pop    ebx
  41da30:	lock test eax,0x515a1bd
  41da36:	js     0x41da07
  41da38:	imul   eax,DWORD PTR [ecx],0xffffffc1
  41da3b:	pop    ebp
  41da3c:	fsubr  QWORD PTR ds:0x6abd0165
  41da42:	popa   
  41da43:	rol    DWORD PTR [ebx-0xafd235b],0x9b
  41da4a:	dec    edi
  41da4b:	jnp    0x41dabf
  41da4d:	xchg   ecx,eax
  41da4e:	and    eax,0x637d250e
  41da53:	movs   DWORD PTR es:[edi],DWORD PTR ds:[esi]
  41da54:	mov    ebx,0x3f5a47e6
  41da59:	sub    eax,0x26980baf
  41da5e:	dec    eax
  41da5f:	xor    esi,esp
  41da61:	clc    
  41da62:	in     eax,0xed
  41da64:	xchg   edi,eax
  41da65:	and    al,0xef
  41da67:	ins    BYTE PTR es:[edi],dx
  41da68:	in     eax,0x47
  41da6a:	bound  eax,QWORD PTR [ecx+0x5d]
  41da6d:	aaa    
  41da6e:	lea    edx,[edi+esi*1+0x1c2968a9]
  41da75:	sub    al,0x81
  41da77:	popf   
  41da78:	push   ds
  41da79:	sub    ecx,edx
  41da7b:	pop    ds
  41da7c:	mov    bl,0xf1
  41da7e:	xlat   BYTE PTR ds:[ebx]
  41da7f:	jo     0x41da8b
  41da81:	sahf   
  41da82:	adc    DWORD PTR [esi-0x21],ebx
  41da85:	test   DWORD PTR [edi-0x79],eax
  41da88:	jl     0x41db00
  41da8a:	jo     0x41da65
  41da8c:	add    edx,ebp
  41da8e:	push   ebx
  41da8f:	loop   0x41db04
  41da91:	inc    esp
  41da92:	xor    bh,BYTE PTR [edx-0x1ddf11db]
  41da98:	cmps   DWORD PTR ds:[esi],DWORD PTR es:[edi]
  41da99:	lods   al,BYTE PTR ds:[esi]
  41da9a:	in     eax,0x23
  41da9c:	adc    DWORD PTR es:[esi+0x4dd33ed4],0x465b271c
  41daa7:	mov    DWORD PTR [esi+ebp*8-0x558bb8d3],ebx
  41daae:	popf   
  41daaf:	push   0xffffff9b
  41dab1:	sub    eax,0x14891b5b
  41dab6:	enter  0x6ec5,0x60
  41daba:	jmp    0x655ef6b7
  41dabf:	dec    ecx
  41dac0:	cmp    ch,BYTE PTR [ecx+0x2b115a89]
  41dac6:	push   esp
  41dac7:	cmp    eax,0x754d42cd
  41dacc:	push   ds
  41dacd:	test   eax,0xccabef9b
  41dad2:	gs nop
  41dad4:	fldcw  WORD PTR [edi+0x49]
  41dad7:	add    DWORD PTR [eax+edx*1+0x55],ebp
  41dadb:	and    bl,BYTE PTR [ecx-0x79]
  41dade:	in     eax,0xeb
  41dae0:	sbb    al,0x35
  41dae2:	or     cl,BYTE PTR [edi]
  41dae4:	xchg   ebx,eax
  41dae5:	cmp    DWORD PTR [esi+0x4dabce29],ebx
  41daeb:	pusha  
  41daec:	gs push es
  41daee:	pop    esi
  41daef:	jmp    0x3e1fbda
  41daf4:	sbb    BYTE PTR [ecx+0x2],ch
  41daf7:	arpl   WORD PTR [eax+ebp*1-0x7],bx
  41dafb:	stos   DWORD PTR es:[edi],eax
  41dafc:	fcom   QWORD PTR [ecx-0x1f]
  41daff:	inc    edx
  41db00:	sbb    edi,DWORD PTR [edi-0x63]
  41db03:	nop    ebp
  41db06:	cli    
  41db07:	jo     0x41db26
  41db09:	mov    cl,0x6
  41db0b:	popa   
  41db0c:	nop
  41db0d:	imul   ecx,DWORD PTR [esp+edx*8-0x28],0xffffffaa
  41db12:	ins    DWORD PTR es:[edi],dx
  41db13:	pop    ds
  41db14:	push   esp
  41db15:	jge    0x41dac9
  41db17:	or     ebp,DWORD PTR [ebp-0x5e65f18f]
  41db1d:	sub    al,0x62
  41db1f:	jmp    0x6f0640ab
  41db24:	add    BYTE PTR [ebx-0x5f637147],ch
  41db2a:	data16 xchg BYTE PTR [edi+0x1f47d950],dh
  41db31:	mov    cl,0xa1
  41db33:	sub    eax,0x36d89101
  41db38:	jb     0x41dae3
  41db3a:	fldenv [ebp+ebp*2+0x2fadafdd]
  41db41:	xor    BYTE PTR [eax],bl
  41db43:	cmp    eax,DWORD PTR [ebp-0x2be69ccb]
  41db49:	lock jl 0x41db86
  41db4c:	dec    ebx
  41db4d:	das    
  41db4e:	repz xchg esp,eax
  41db50:	in     eax,dx
  41db51:	cdq    
  41db52:	push   ebp
  41db53:	(bad)  
  41db55:	fsubr  QWORD PTR [ebx+0x56069dac]
  41db5b:	icebp  
  41db5c:	sub    DWORD PTR [ecx+0x1a],ebp
  41db5f:	pop    eax
  41db60:	cld    
  41db61:	test   eax,0xec5f5835
  41db66:	icebp  
  41db67:	ins    DWORD PTR es:[edi],dx
  41db68:	sbb    DWORD PTR [ebx+0x20e0b9b7],ecx
  41db6e:	jo     0x41dbb3
  41db70:	pop    edx
  41db71:	lods   al,BYTE PTR ds:[esi]
  41db72:	cs (bad) 
  41db75:	aas    
  41db76:	int3   
  41db77:	aaa    
  41db78:	jecxz  0x41db10
  41db7a:	xchg   edi,eax
  41db7b:	cld    
  41db7c:	cli    
  41db7d:	test   eax,0x19ea749a
  41db82:	repnz lods al,BYTE PTR ds:[esi]
  41db84:	add    al,0xad
  41db86:	jno    0x41db8c
  41db88:	iret   
  41db89:	mov    WORD PTR [esi],?
  41db8b:	call   0xa03385f8
  41db90:	xchg   esp,eax
  41db91:	push   eax
  41db92:	rol    DWORD PTR [esi],cl
  41db94:	bound  ebp,QWORD PTR [ebx]
  41db96:	popf   
  41db97:	add    ecx,DWORD PTR [edi]
  41db99:	mov    BYTE PTR [eax-0x2b],ah
  41db9c:	mov    DWORD PTR [edi-0x702516bf],edi
  41dba2:	adc    eax,0xba559dda
  41dba7:	push   esi
  41dba8:	addr16 push ecx
  41dbaa:	push   esp
  41dbab:	sar    ebx,1
  41dbad:	clc    
  41dbae:	cmp    eax,eax
  41dbb0:	jg     0x41db58
  41dbb2:	cdq    
  41dbb3:	dec    ecx
  41dbb4:	pusha  
  41dbb5:	fadd   DWORD PTR [esp+edi*1+0xafdf5aa]
  41dbbd:	aad    0x78
  41dbbf:	bswap  ebx
  41dbc1:	jne    0x41dc0d
  41dbc3:	xchg   ebx,eax
  41dbc4:	loopne 0x41dc0a
  41dbc6:	mov    bl,0xf4
  41dbc8:	ds nop
  41dbca:	in     eax,dx
  41dbcb:	js     0x41dc3a
  41dbcd:	(bad)  
  41dbce:	mov    esi,0xe5029fae
  41dbd3:	(bad)  
  41dbd4:	out    dx,eax
  41dbd5:	mov    edx,DWORD PTR [ebx+0x35]
  41dbd8:	xchg   ebp,eax
  41dbd9:	mov    edx,0xf51ecf2a
  41dbde:	sahf   
  41dbdf:	(bad)  
  41dbe0:	ficomp DWORD PTR [eax+ebx*1-0x1c]
  41dbe4:	xchg   ebx,eax
  41dbe5:	(bad)  
  41dbe6:	xchg   ebp,eax
  41dbe7:	imul   eax,ebx,0xffffffee
  41dbea:	or     eax,0xffe9a6fc
  41dbef:	adc    BYTE PTR [esi],bl
  41dbf1:	popf   
  41dbf2:	xchg   DWORD PTR [ebp-0x5c1395f9],esi
  41dbf8:	stos   BYTE PTR es:[edi],al
  41dbf9:	jmp    0x41dc74
  41dbfb:	fiadd  DWORD PTR [edi-0x59ef8ae7]
  41dc01:	dec    ecx
  41dc02:	adc    eax,0x43d1f1c
  41dc07:	enter  0x1266,0x65
  41dc0b:	call   0x40bb9706
  41dc10:	jp     0x41dbbd
  41dc12:	sub    DWORD PTR [ecx],edi
  41dc14:	cmp    DWORD PTR [edi],edi
  41dc16:	aam    0xe3
  41dc18:	jecxz  0x41dc41
  41dc1a:	jle    0x41dc82
  41dc1c:	sahf   
  41dc1d:	movs   DWORD PTR es:[edi],DWORD PTR ds:[esi]
  41dc1e:	gs mov cl,0x2c
  41dc21:	or     ebx,DWORD PTR [edi-0x1cb4009]
  41dc27:	add    DWORD PTR [edi+0x21e3fc39],esi
  41dc2d:	jae    0x41dbf3
  41dc2f:	adc    ah,al
  41dc31:	push   ds
  41dc32:	movs   DWORD PTR es:[edi],DWORD PTR fs:[esi]
  41dc34:	lds    esi,FWORD PTR [edi-0x31]
  41dc37:	outs   dx,DWORD PTR ds:[esi]
  41dc38:	ror    esp,cl
  41dc3a:	mov    ecx,0x721f310e
  41dc3f:	jno    0x41dca0
  41dc41:	inc    ecx
  41dc42:	inc    edi
  41dc43:	mov    esi,0xa163f931
  41dc48:	mov    ds:0xeb400d1d,al
  41dc4d:	fimul  WORD PTR [edi]
  41dc4f:	xlat   BYTE PTR ds:[ebx]
  41dc50:	pushf  
  41dc51:	(bad)
  41dc54:	aad    0x45
  41dc56:	mov    BYTE PTR [ecx],dh
  41dc58:	jl     0x41dc8e
  41dc5a:	jae    0x41dc00
  41dc5c:	sbb    al,0xd4
  41dc5e:	dec    esp
  41dc5f:	sahf   
  41dc60:	retf   0xb3f1
  41dc63:	icebp  
  41dc64:	push   edx
  41dc65:	pushf  
  41dc66:	mov    ebp,0x6b30f121
  41dc6b:	leave  
  41dc6c:	js     0x41dc92
  41dc6e:	loopne 0x41dc7d
  41dc70:	mov    ds:0x1e78dc8c,al
  41dc75:	pop    edx
  41dc76:	je     0x41dc61
  41dc78:	fdivrp st(7),st
  41dc7a:	add    BYTE PTR [ebx+0xeaf5f13],dh
  41dc80:	jne    0x41dcb2
  41dc82:	jae    0x41dcc0
  41dc84:	pop    ds
  41dc85:	jmp    0xb0db89b1
  41dc8a:	ror    al,1
  41dc8c:	ins    BYTE PTR es:[edi],dx
  41dc8d:	xchg   edi,eax
  41dc8e:	cmc    
  41dc8f:	das    
  41dc90:	or     ah,dh
  41dc92:	push   ds
  41dc93:	ins    DWORD PTR es:[edi],dx
  41dc94:	shl    DWORD PTR [esi+0x1db984e],cl
  41dc9a:	mov    bh,0x4b
  41dc9c:	pop    esp
  41dc9d:	or     al,BYTE PTR [edx-0x5bdf9286]
  41dca3:	and    BYTE PTR [ecx+edx*1],bl
  41dca6:	adc    al,BYTE PTR [edx-0x283225d]
  41dcac:	stos   DWORD PTR es:[edi],eax
  41dcad:	mov    DWORD PTR [ebx+0xf],ebx
  41dcb0:	push   esi
  41dcb1:	sti    
  41dcb2:	pop    ecx
  41dcb3:	add    BYTE PTR [ebx+0x1ee76958],ah
  41dcb9:	(bad)  
  41dcba:	jmp    0x41dd1b
  41dcbc:	test   DWORD PTR [edx+eax*1-0x51fd5761],edx
  41dcc3:	inc    edi
  41dcc4:	mov    bh,0xc2
  41dcc6:	les    eax,FWORD PTR [esi]
  41dcc8:	imul   edx,ecx,0x13
  41dccb:	cmps   BYTE PTR ds:[esi],BYTE PTR es:[edi]
  41dccc:	fidivr WORD PTR [edx]
  41dcce:	(bad)  
  41dccf:	mov    ebx,DWORD PTR [edi]
  41dcd1:	jge    0x41dd42
  41dcd3:	push   ds
  41dcd4:	lds    ebx,FWORD PTR [ebx]
  41dcd6:	enter  0x7f93,0x52
  41dcda:	test   DWORD PTR [edx],esi
  41dcdc:	cdq    
  41dcdd:	mov    esi,0xc91c5d49
  41dce2:	repz cmp al,0x36
  41dce5:	mov    esi,0x930be4a1
  41dcea:	fmul   QWORD PTR ds:0x3cbd5afb
  41dcf0:	int3   
  41dcf1:	inc    eax
  41dcf2:	push   es
  41dcf3:	ret    
  41dcf4:	cmp    BYTE PTR ds:0xba1d3d9d,ch
  41dcfa:	sub    DWORD PTR [ecx-0x3cca8492],edi
  41dd00:	fwait
  41dd01:	mov    ds:0x650b102b,al
  41dd06:	pop    esi
  41dd07:	xchg   BYTE PTR [ecx*1+0x3c6b14d3],bl
  41dd0e:	in     al,0x1b
  41dd10:	sub    DWORD PTR [ebx-0xf55994b],ebp
  41dd16:	test   BYTE PTR [ebp+0x45b08e71],dl
  41dd1c:	mov    bl,0xc8
  41dd1e:	popa   
  41dd1f:	push   ecx
  41dd20:	dec    edi
  41dd21:	js     0x41dd46
  41dd23:	sub    BYTE PTR [ebx-0x56],ah
  41dd26:	scas   eax,DWORD PTR es:[edi]
  41dd27:	xchg   esp,eax
  41dd28:	dec    edi
  41dd29:	sub    dl,BYTE PTR ds:0x332c7d11
  41dd2f:	lods   eax,DWORD PTR ds:[esi]
  41dd30:	sti    
  41dd31:	int3   
  41dd32:	fs sub eax,0x65e2a00
  41dd38:	pop    es
  41dd39:	inc    edi
  41dd3a:	sub    BYTE PTR [esi],cl
  41dd3c:	add    dh,al
  41dd3e:	aas    
  41dd3f:	aam    0x1e
  41dd41:	push   ebp
  41dd42:	push   esi
  41dd43:	xchg   ebx,eax
  41dd44:	jno    0x41dd8c
  41dd46:	or     eax,0x8d3a5699
  41dd4b:	pop    ds
  41dd4c:	mov    edx,0xd40022a9
  41dd51:	sub    DWORD PTR [edx],edi
  41dd53:	xchg   edi,eax
  41dd54:	pop    ds
  41dd55:	lds    edi,FWORD PTR [edx-0x5cf42c1f]
  41dd5b:	imul   esp,DWORD PTR [ebx],0xffffffac
  41dd5e:	loope  0x41dd8f
  41dd60:	jp     0x41dd3b
  41dd62:	mov    BYTE PTR [ebp-0x11],bh
  41dd65:	or     eax,DWORD PTR [edx]
  41dd67:	jmp    0x1da59c66
  41dd6c:	jbe    0x41dde0
  41dd6e:	push   esi
  41dd6f:	ror    DWORD PTR [edi+0x3e],cl
  41dd72:	test   eax,0x4ae8ea0d
  41dd77:	or     al,0x1d
  41dd79:	jne    0x41dd9b
  41dd7b:	call   0xeb2f3097
  41dd80:	out    0x9,eax
  41dd82:	ficomp DWORD PTR [ecx-0x29]
  41dd85:	les    esi,FWORD PTR [esi]
  41dd87:	xchg   esi,eax
  41dd88:	or     eax,0x1dfa743d
  41dd8d:	(bad)  
  41dd8e:	mov    al,ds:0x71a82561
  41dd93:	test   esp,ecx
  41dd95:	or     eax,ebp
  41dd97:	out    0xff,al
  41dd99:	into   
  41dd9a:	or     eax,0x2375aa9d
  41dd9f:	dec    esi
  41dda0:	data16 mov al,ds:0xf11ebb66
  41dda6:	pop    ss
  41dda7:	and    eax,0xe2cfbe2f
  41ddac:	push   ebx
  41ddad:	out    dx,eax
  41ddae:	clc    
  41ddaf:	or     al,0x33
  41ddb1:	(bad)  
  41ddb2:	mov    ebp,0xe218bfb6
  41ddb7:	(bad)  
  41ddb8:	clc    
  41ddb9:	jp     0x41de20
  41ddbb:	lods   eax,DWORD PTR ds:[esi]
  41ddbc:	movs   DWORD PTR es:[edi],DWORD PTR ds:[esi]
  41ddbd:	aad    0x59
  41ddbf:	or     edi,edi
  41ddc1:	out    dx,al
  41ddc2:	clc    
  41ddc3:	or     eax,0x998c171a
  41ddc8:	ss hlt 
  41ddca:	sbb    al,0x14
  41ddcc:	mov    cl,0xc2
  41ddce:	mov    ch,0xa
  41ddd0:	xchg   esp,eax
  41ddd1:	pop    ds
  41ddd2:	push   ecx
  41ddd3:	fdivr  st,st(6)
  41ddd5:	test   eax,0xf6160e15
  41ddda:	sub    eax,0x7e94aeaa
  41dddf:	pushf  
  41dde0:	shl    DWORD PTR [edx+0x65],0xb9
  41dde4:	shr    BYTE PTR [ebx+eiz*1],1
  41dde7:	pop    ecx
  41dde8:	(bad)  
  41dde9:	push   esi
  41ddea:	arpl   WORD PTR [edi],cx
  41ddec:	xchg   esi,eax
  41dded:	std    
  41ddee:	jno    0x41dd8f
  41ddf0:	sbb    al,0xa1
  41ddf2:	js     0x41de1d
  41ddf4:	retf   
  41ddf5:	sub    al,0xf1
  41ddf7:	adc    eax,0xc3b9ac35
  41ddfc:	outs   dx,BYTE PTR ds:[esi]
  41ddfd:	inc    edi
  41ddfe:	sub    eax,0xf385e9cc
  41de03:	sub    dh,cl
  41de05:	push   ecx
  41de06:	push   ss
  41de07:	cmc    
  41de08:	pop    ds
  41de09:	mov    ds:0xca2ac0e8,al
  41de0e:	cmps   DWORD PTR ds:[esi],DWORD PTR es:[edi]
  41de0f:	xchg   ecx,eax
  41de10:	jmp    0x97ab:0x87326136
  41de17:	mov    eax,ds:0xee8955c7
  41de1c:	sbb    eax,0x6b654155
  41de21:	mov    cl,0x5a
  41de23:	into   
  41de24:	jb     0x41de12
  41de26:	mov    cl,0xf3
  41de28:	cmps   DWORD PTR ds:[esi],DWORD PTR es:[edi]
  41de29:	inc    eax
  41de2a:	or     eax,0xc87aee10
  41de2f:	dec    ecx
  41de30:	pop    ds
  41de31:	in     eax,dx
  41de32:	mov    eax,ds:0x45bcc2e4
  41de37:	push   cs
  41de38:	mov    esp,0xe100e9a0
  41de3d:	(bad)  
  41de3e:	aaa    
  41de3f:	sahf   
  41de40:	pop    ds
  41de41:	pop    esi
  41de42:	ds or  eax,0x5e67b91d
  41de48:	(bad)  [edi]
  41de4a:	inc    ebx
  41de4b:	mov    bl,0x7d
  41de4d:	sub    DWORD PTR [esp],edx
  41de50:	push   ss
  41de51:	inc    edi
  41de52:	imul   edi,ebp,0x4a1c40e5
  41de58:	xchg   ebx,eax
  41de59:	stos   DWORD PTR es:[edi],eax
  41de5a:	movs   DWORD PTR es:[edi],DWORD PTR ds:[esi]
  41de5b:	pop    es
  41de5c:	mov    ds:0xbb7d36b5,al
  41de61:	xchg   edx,eax
  41de62:	mov    eax,ds:0x67016375
  41de67:	(bad)  
  41de68:	dec    edi
  41de69:	lahf   
  41de6a:	sbb    eax,DWORD PTR gs:[ebx+0xf4f3289]
  41de71:	cdq    
  41de72:	jl     0x41de70
  41de74:	xchg   BYTE PTR ds:0xb8b8919b,ah
  41de7a:	xchg   BYTE PTR fs:[edi+0x60f7baf],ch
  41de81:	push   eax
  41de82:	test   BYTE PTR [edx+0x57],dh
  41de85:	xor    ecx,0x4
  41de88:	pop    edx
  41de89:	inc    edi
  41de8a:	bound  esp,QWORD PTR [ebp-0xe]
  41de8d:	mov    ecx,0x1cef0938
  41de92:	adc    ecx,DWORD PTR [edi]
  41de94:	mov    al,0x4d
  41de96:	scas   eax,DWORD PTR es:[edi]
  41de97:	pop    edi
  41de98:	adc    DWORD PTR [ecx-0x35],ebp
  41de9b:	ds (bad) 
  41de9d:	lds    ebp,FWORD PTR [edi]
  41de9f:	add    esp,edx
  41dea1:	shr    BYTE PTR [eax-0x1108c012],0x1
  41dea8:	cwde   
  41dea9:	adc    DWORD PTR [ebx],edx
  41deab:	sbb    eax,0xdc5c133
  41deb0:	sbb    eax,0x49e2322d
  41deb5:	or     eax,DWORD PTR [eax+0x49]
  41deb8:	ins    DWORD PTR es:[edi],dx
  41deb9:	lods   al,BYTE PTR ds:[esi]
  41deba:	lods   eax,DWORD PTR ds:[esi]
  41debb:	clc    
  41debc:	xor    DWORD PTR [eax-0x474eb0f7],ebx
  41dec2:	xchg   BYTE PTR [esi],cl
  41dec4:	sbb    ah,BYTE PTR [ebp+0x2]
  41dec7:	jae    0x41df20
  41dec9:	jno    0x41de7a
  41decb:	leave  
  41decc:	outs   dx,BYTE PTR ds:[esi]
  41decd:	adc    DWORD PTR [ecx-0x31],0xde77f87
  41ded4:	ds dec edx
  41ded6:	leave  
  41ded7:	push   eax
  41ded8:	push   ds
  41ded9:	std    
  41deda:	out    dx,al
  41dedb:	rol    esi,cl
  41dedd:	xor    BYTE PTR [ebx-0x2256b512],ah
  41dee3:	or     BYTE PTR [esi-0x20],bh
  41dee6:	outs   dx,BYTE PTR ds:[esi]
  41dee7:	fidivr DWORD PTR [esp+edi*2-0x347f913d]
  41deee:	fs inc ebp
  41def0:	and    dh,0x5a
  41def3:	int    0xa8
  41def5:	push   ds
  41def6:	loop   0x41de78
  41def8:	stc    
  41def9:	sbb    ah,dl
  41defb:	lock stos DWORD PTR es:[edi],eax
  41defd:	push   edi
  41defe:	data16 aad 0x82
  41df01:	pop    ebp
  41df02:	jle    0x41dee7
  41df04:	and    eax,0x1d4fd757
  41df09:	jge    0x41df47
  41df0b:	nop
  41df0c:	or     BYTE PTR [ebp-0x5467c4b2],ah
  41df12:	in     eax,dx
  41df13:	fild   DWORD PTR [eax+0x21]
  41df16:	pusha  
  41df17:	inc    eax
  41df18:	mov    edx,0xb8b51aed
  41df1d:	lea    esp,[edx]
  41df1f:	adc    dl,BYTE PTR fs:0x28914385
  41df26:	hlt    
  41df27:	jbe    0x41df61
  41df29:	or     al,0x33
  41df2b:	xchg   ecx,eax
  41df2c:	scas   al,BYTE PTR es:[edi]
  41df2d:	movs   DWORD PTR es:[edi],DWORD PTR ds:[esi]
  41df2e:	push   ecx
  41df2f:	es gs loopne 0x41df12
  41df33:	pop    edx
  41df34:	fsubr  QWORD PTR [edx]
  41df36:	adc    al,0xad
  41df38:	out    0x44,eax
  41df3a:	push   0x1a
  41df3c:	das    
  41df3d:	lods   al,BYTE PTR ds:[esi]
  41df3e:	mov    dl,BYTE PTR [ebx-0x32d58575]
  41df44:	mov    ecx,DWORD PTR [edi+0x54d77876]
  41df4a:	mov    al,0xe
  41df4c:	add    al,0xa9
  41df4e:	test   DWORD PTR [ebp-0x2a9fcd29],ecx
  41df54:	mov    edi,0xa96040bf
  41df59:	stos   DWORD PTR es:[edi],eax
  41df5a:	and    eax,0x8164d0fe
  41df5f:	jl     0x41df1c
  41df61:	jb     0x41df0d
  41df63:	sub    eax,0xc0f3162f
  41df68:	or     DWORD PTR ds:0x631e0207,ecx
  41df6e:	out    dx,al
  41df6f:	push   ebp
  41df70:	xlat   BYTE PTR ds:[ebx]
  41df71:	test   eax,0xceb7018d
  41df76:	pop    ecx
  41df77:	sub    DWORD PTR [eax+0x57fb69b2],ebx
  41df7d:	call   0x2eee:0xb762d963
  41df84:	aaa    
  41df85:	jmp    0x844deee4
  41df8a:	cmps   BYTE PTR ds:[esi],BYTE PTR es:[edi]
  41df8b:	xchg   esi,eax
  41df8c:	push   ds
  41df8d:	pop    ecx
  41df8e:	lock in al,dx
  41df90:	dec    edi
  41df91:	loopne 0x41df66
  41df93:	pop    edi
  41df94:	lods   al,BYTE PTR ds:[esi]
  41df95:	xchg   esi,eax
  41df96:	dec    ecx
  41df97:	ins    DWORD PTR es:[edi],dx
  41df98:	mov    ebp,?
  41df9a:	imul   edi,DWORD PTR [edx],0xfb6faa29
  41dfa0:	mov    ds:0x37b98c55,eax
  41dfa5:	out    0x63,eax
  41dfa7:	xchg   ebp,eax
  41dfa8:	and    eax,0xebf9f609
  41dfad:	movs   DWORD PTR es:[edi],DWORD PTR ds:[esi]
  41dfae:	iret   
  41dfaf:	aam    0x9d
  41dfb1:	jl     0x41df5c
  41dfb3:	ja     0x41df3a
  41dfb5:	push   edi
  41dfb6:	data16 ss (bad) 
  41dfb9:	shr    dl,1
  41dfbb:	nop
  41dfbc:	jge    0x41dff3
  41dfbe:	arpl   WORD PTR [ebx-0x41],di
  41dfc1:	jo     0x41e003
  41dfc3:	int    0x89
  41dfc5:	test   al,0x99
  41dfc7:	xor    BYTE PTR [edx-0x41],ch
  41dfca:	imul   edi
  41dfcc:	lods   al,BYTE PTR ds:[esi]
  41dfcd:	popf   
  41dfce:	cwde   
  41dfcf:	inc    esi
  41dfd0:	mov    ebx,0x6e0ef1ea
  41dfd5:	dec    edx
  41dfd6:	lds    ebp,FWORD PTR [eax]
  41dfd8:	push   esi
  41dfd9:	inc    ebp
  41dfda:	fscale 
  41dfdc:	es xchg ebx,eax
  41dfde:	sub    DWORD PTR [ebp+0x4c],esp
  41dfe1:	loopne 0x41dfc4
  41dfe3:	mov    ds,WORD PTR [ecx]
  41dfe5:	stos   BYTE PTR es:[edi],al
  41dfe6:	add    DWORD PTR [ecx+edx*4-0x48],edx
  41dfea:	jge    0x41e011
  41dfec:	adc    al,0xda
  41dfee:	test   edi,ecx
  41dff0:	mov    ch,0xef
  41dff2:	and    DWORD PTR fs:[esi-0x5],0x4d3bdb18
  41dffa:	pop    ecx
  41dffb:	add    dl,ah
  41dffd:	sahf   
  41dffe:	imul   esp,DWORD PTR [ebp-0x43],0x1
  41e002:	retf   
  41e003:	clc    
  41e004:	mov    ds:0x180b7a90,al
  41e009:	jl     0x41dfd4
  41e00b:	enter  0xadf8,0xb3
  41e00f:	sti    
  41e010:	fsubr  DWORD PTR [ecx+0x4cfeb215]
  41e016:	ds dec ebp
  41e018:	push   esp
  41e019:	call   0x8162:0x454a2d7d
  41e020:	dec    esi
  41e021:	pop    ebx
  41e022:	push   ebx
  41e023:	addr16 out 0xf9,eax
  41e026:	dec    edi
  41e027:	in     eax,dx
  41e028:	sbb    al,0x61
  41e02a:	adc    dh,dh
  41e02c:	retf   0x3498
  41e02f:	mov    eax,ds:0x1563fde8
  41e034:	jg     0x41e089
  41e036:	adc    esi,0x92e45863
  41e03c:	pop    ds
  41e03d:	rol    DWORD PTR [ebx+0x31],0xec
  41e041:	sub    BYTE PTR [ebp-0x55],al
  41e044:	sbb    eax,0x1007f51
  41e049:	fwait
  41e04a:	popf   
  41e04b:	inc    esp
  41e04c:	pop    edi
  41e04d:	test   eax,0x7144bf9
  41e052:	adc    edx,ebp
  41e054:	in     eax,dx
  41e055:	ins    BYTE PTR es:[edi],dx
  41e056:	push   ss
  41e057:	fwait
  41e058:	add    BYTE PTR [edi-0x6401e6d7],0xad
  41e05f:	or     eax,0x6cd9ac40
  41e064:	push   esi
  41e065:	aam    0xe7
  41e067:	sahf   
  41e068:	pop    edi
  41e069:	popf   
  41e06a:	add    al,0xd8
  41e06c:	sbb    al,0xa5
  41e06e:	aad    0xe1
  41e070:	mov    esp,0xeb1b9cbe
  41e075:	imul   esp,DWORD PTR [edi-0x74],0x52
  41e079:	loopne 0x41e005
  41e07b:	int    0x37
  41e07d:	clc    
  41e07e:	out    0xd3,eax
  41e080:	arpl   WORD PTR [esi+0x79],ax
  41e083:	scas   al,BYTE PTR es:[edi]
  41e084:	or     BYTE PTR [eax+0x65],dl
  41e087:	(bad)  
  41e088:	add    cl,BYTE PTR [ebp+0x5b]
  41e08b:	jae    0x41e10b
  41e08d:	aam    0xe0
  41e08f:	dec    edx
  41e090:	in     al,0x52
  41e092:	stos   BYTE PTR es:[edi],al
  41e093:	adc    BYTE PTR [ebx-0x54],ch
  41e096:	add    DWORD PTR [edi+eiz*4],edx
  41e099:	mov    ebp,0xb4e32950
  41e09e:	out    dx,eax
  41e09f:	push   edi
  41e0a0:	pop    edx
  41e0a1:	dec    eax
  41e0a2:	dec    esi
  41e0a3:	jns    0x41e0d9
  41e0a5:	stos   BYTE PTR es:[edi],al
  41e0a6:	pop    edi
  41e0a7:	dec    ebp
  41e0a8:	cwde   
  41e0a9:	in     al,dx
  41e0aa:	les    ebx,FWORD PTR [edx]
  41e0ac:	ror    DWORD PTR [eax],1
  41e0ae:	aas    
  41e0af:	dec    ecx
  41e0b0:	mov    bl,0xcc
  41e0b2:	mov    dh,0x9
  41e0b4:	in     al,dx
  41e0b5:	mov    ecx,0x76b1910
  41e0ba:	push   edx
  41e0bb:	pmaxsw mm2,QWORD PTR [ebx+0x7d1e94fc]
  41e0c2:	sahf   
  41e0c3:	jl     0x41e129
  41e0c5:	cmp    BYTE PTR [ebx+0x45],dh
  41e0c8:	js     0x41e0ed
  41e0ca:	ret    0x9f3a
  41e0cd:	outs   dx,DWORD PTR ds:[esi]
  41e0ce:	outs   dx,DWORD PTR ds:[esi]
  41e0cf:	pop    eax
  41e0d0:	xor    esp,DWORD PTR [ebp-0x3ed4f106]
  41e0d6:	jb     0x41e10a
  41e0d8:	adc    DWORD PTR [ecx+0x29],ebp
  41e0db:	adc    eax,0x8d6c717f
  41e0e0:	rcl    ch,cl
  41e0e2:	mov    bl,0xa6
  41e0e4:	stos   DWORD PTR es:[edi],eax
  41e0e5:	or     ah,BYTE PTR ss:[ecx+ebp*8]
  41e0e9:	lahf   
  41e0ea:	fs push edi
  41e0ec:	mov    eax,ds:0x1f981a10
  41e0f1:	and    ebx,ebx
  41e0f3:	jno    0x41e0e4
  41e0f5:	es clc 
  41e0f7:	jl     0x41e0b4
  41e0f9:	dec    edx
  41e0fa:	pop    esp
  41e0fb:	adc    ebx,DWORD PTR [edi]
  41e0fd:	loope  0x41e102
  41e0ff:	or     al,0xa1
  41e101:	addr16 ja 0x41e166
  41e104:	sbb    bl,BYTE PTR [ebp+0xc]
  41e107:	cli    
  41e108:	mov    ch,0xae
  41e10a:	or     DWORD PTR [edi+0x66670d39],ebx
  41e110:	enter  0xd46c,0x19
  41e114:	ins    DWORD PTR es:[edi],dx
  41e115:	test   al,0x1
  41e117:	pushf  
  41e118:	inc    esi
  41e119:	(bad)  
  41e11a:	and    DWORD PTR [ecx+ecx*1+0x5b],ebp
  41e11e:	retf   0x1f23
  41e121:	sbb    ecx,edi
  41e123:	loopne 0x41e115
  41e125:	push   ecx
  41e126:	pop    ecx
  41e127:	xor    edx,DWORD PTR [ebp-0x57]
  41e12a:	lods   eax,DWORD PTR ds:[esi]
  41e12b:	pop    ebp
  41e12c:	add    eax,esi
  41e12e:	jp     0x41e0ba
  41e130:	in     eax,dx
  41e131:	imul   edx,DWORD PTR [ebp+ebp*4+0x3c],0x57
  41e136:	inc    esi
  41e137:	mov    ch,0x5c
  41e139:	mov    bh,0xd6
  41e13b:	outs   dx,BYTE PTR ds:[esi]
  41e13c:	inc    eax
  41e13d:	jb     0x41e188
  41e13f:	loope  0x41e0c1
  41e141:	rol    BYTE PTR [ebp+0x64016d67],0xb5
  41e148:	xchg   esp,eax
  41e149:	mov    ch,0x3d
  41e14b:	cmps   BYTE PTR ds:[esi],BYTE PTR es:[edi]
  41e14c:	fs cwde 
  41e14e:	jo     0x41e19b
  41e150:	loop   0x41e156
  41e152:	into   
  41e153:	adc    DWORD PTR [ecx],esi
  41e155:	xor    bh,ah
  41e157:	or     DWORD PTR [ebp+0x59],ecx
  41e15a:	jae    0x41e149
  41e15c:	call   DWORD PTR ds:0x1cb00dd9
  41e162:	adc    ah,BYTE PTR [edx]
  41e164:	jg     0x41e137
  41e166:	pop    ds
  41e167:	(bad)  
  41e168:	retf   
  41e169:	lahf   
  41e16a:	ja     0x41e154
  41e16c:	cmp    eax,0x44d10cd6
  41e171:	sbb    eax,0x8a2b8dfd
  41e176:	inc    ebx
  41e177:	hlt    
  41e178:	iret   
  41e179:	cmps   DWORD PTR ds:[esi],DWORD PTR es:[edi]
  41e17a:	test   ah,bh
  41e17c:	xchg   esp,eax
  41e17d:	retf   0x930d
  41e180:	push   ds
  41e181:	fld    DWORD PTR [ecx]
  41e183:	pop    edi
  41e184:	loop   0x41e192
  41e186:	lds    edx,FWORD PTR [ebp+0x6d]
  41e189:	stos   BYTE PTR es:[edi],al
  41e18a:	jne    0x41e1ca
  41e18c:	mov    fs,WORD PTR [ebx+0x33e1a5a4]
  41e192:	mov    dl,dl
  41e194:	push   edi
  41e195:	in     eax,0x64
  41e197:	sbb    eax,0x365989f3
  41e19c:	out    dx,eax
  41e19d:	pusha  
  41e19e:	mov    ecx,DWORD PTR [esi]
  41e1a0:	push   esi
  41e1a1:	inc    edi
  41e1a2:	dec    ecx
  41e1a3:	sub    al,0x1e
  41e1a5:	and    DWORD PTR [esi],eax
  41e1a7:	sahf   
  41e1a8:	add    BYTE PTR [edi],dh
  41e1aa:	adc    dl,BYTE PTR [esi+0x61a1abdf]
  41e1b0:	xchg   esi,eax
  41e1b1:	sub    eax,0x355518a0
  41e1b6:	std    
  41e1b7:	mov    esi,0xe12b1c29
  41e1bc:	inc    ebx
  41e1bd:	vmovsd xmm3,xmm6,xmm3
  41e1c1:	pop    edi
  41e1c2:	jns    0x41e16f
  41e1c4:	jae    0x41e171
  41e1c6:	jno    0x41e1b1
  41e1c8:	jns    0x41e1bd
  41e1ca:	sub    bl,BYTE PTR [esi]
  41e1cc:	sbb    al,0xbd
  41e1ce:	xor    al,0x8a
  41e1d0:	movs   DWORD PTR es:[edi],DWORD PTR ds:[esi]
  41e1d1:	cwde   
  41e1d2:	add    eax,0x2cfaa56a
  41e1d7:	or     DWORD PTR [edi-0x4120e66a],esi
  41e1dd:	sahf   
  41e1de:	sbb    eax,0x9a500c82
  41e1e3:	loope  0x41e259
  41e1e5:	dec    edi
  41e1e6:	movs   DWORD PTR es:[edi],DWORD PTR ds:[esi]
  41e1e7:	fisubr DWORD PTR [ebx+0x5e6d64ef]
  41e1ed:	mov    ds:0x5cbbc258,al
  41e1f2:	lea    edx,[eax]
  41e1f4:	mov    cl,0xc9
  41e1f6:	addr16 int3 
  41e1f8:	and    ch,BYTE PTR [eax]
  41e1fa:	mov    bh,0xb1
  41e1fc:	jno    0x41e1ba
  41e1fe:	cmp    eax,0x2a0ab405
  41e203:	out    0xa7,al
  41e205:	sti    
  41e206:	test   al,0x25
  41e208:	pop    esp
  41e209:	sbb    esp,DWORD PTR [ebp-0x6752bcf4]
  41e20f:	or     eax,0x1bbfdd9
  41e214:	std    
  41e215:	fs out dx,eax
  41e217:	adc    BYTE PTR [eax-0x124f9ac5],dh
  41e21d:	test   eax,0x28f485a1
  41e222:	cld    
  41e223:	std    
  41e224:	mov    edi,0x4bcc03ba
  41e229:	add    ebp,ebx
  41e22b:	adc    bl,0x9c
  41e22e:	pop    ecx
  41e22f:	push   ss
  41e230:	pop    eax
  41e231:	adc    al,0x32
  41e233:	push   ecx
  41e234:	aam    0xaa
  41e236:	push   ebp
  41e237:	daa    
  41e238:	xadd   bl,bl
  41e23b:	mov    ebp,0x399584e
  41e240:	add    ch,ch
  41e242:	bound  esp,QWORD PTR [ecx+0x54402132]
  41e248:	repz test DWORD PTR [ebp-0x5ec8e6f3],eax
  41e24f:	cmp    DWORD PTR ds:0xbb9b0879,ebx
  41e255:	sub    al,0xd9
  41e257:	aas    
  41e258:	xchg   edx,eax
  41e259:	test   eax,0xd1b7fcad
  41e25e:	mov    al,BYTE PTR [eax-0x148e3f3c]
  41e264:	in     eax,0x41
  41e266:	pop    edi
  41e267:	cmc    
  41e268:	jno    0x41e2d9
  41e26a:	jl     0x41e239
  41e26c:	jecxz  0x41e270
  41e26e:	cmp    cl,0xb2
  41e271:	lods   al,BYTE PTR ds:[esi]
  41e272:	add    DWORD PTR [eax-0x3f],ecx
  41e275:	mov    eax,DWORD PTR [ecx+0x39fc96d8]
  41e27b:	movs   DWORD PTR es:[edi],DWORD PTR ds:[esi]
  41e27c:	inc    ebp
  41e27d:	cs gs mov ch,0x2e
  41e281:	cmp    DWORD PTR [esi-0x183f045b],0xd
  41e288:	imul   DWORD PTR [esi-0x76e25f81]
  41e28e:	jg     0x41e286
  41e290:	movs   BYTE PTR es:[edi],BYTE PTR ds:[esi]
  41e291:	retf   0x2ef
  41e294:	push   ss
  41e295:	mov    ah,0x9d
  41e297:	fsub   DWORD PTR [ebx-0x76ef43af]
  41e29d:	in     eax,0xab
  41e29f:	out    dx,al
  41e2a0:	pop    ebp
  41e2a1:	jle    0x41e265
  41e2a3:	out    0x1e,al
  41e2a5:	cmp    DWORD PTR [ebx],esp
  41e2a7:	mov    ebx,0x46b0ccbc
  41e2ac:	enter  0x6dac,0x2a
  41e2b0:	(bad)  
  41e2b1:	mov    ebx,0xed6805a3
  41e2b6:	pusha  
  41e2b7:	and    al,0x77
  41e2b9:	shl    BYTE PTR [ebx-0x2f],cl
  41e2bc:	movs   DWORD PTR es:[edi],DWORD PTR ds:[esi]
  41e2bd:	jae    0x41e2d2
  41e2bf:	in     al,dx
  41e2c0:	xchg   DWORD PTR [ebp+0x23],ecx
  41e2c3:	or     al,0xcd
  41e2c5:	push   eax
  41e2c6:	inc    esi
  41e2c7:	inc    ebx
  41e2c8:	sar    BYTE PTR [eax+edx*8+0x5e],1
  41e2cc:	inc    esp
  41e2cd:	lods   al,BYTE PTR ds:[esi]
  41e2ce:	bound  ecx,QWORD PTR [ecx]
  41e2d0:	das    
  41e2d1:	leave  
  41e2d2:	sbb    DWORD PTR [esi+0x3b],ebx
  41e2d5:	jl     0x41e34e
  41e2d7:	push   cs
  41e2d8:	call   0x1e7ea1b8
  41e2dd:	mov    ecx,0xcea41c38
  41e2e2:	jns    0x41e2c9
  41e2e4:	pop    ss
  41e2e5:	dec    esi
  41e2e6:	int    0x94
  41e2e8:	mov    al,0x9f
  41e2ea:	cmp    eax,0x2ee6647c
  41e2ef:	cmp    ebp,DWORD PTR [edi+eiz*2-0x57b80de]
  41e2f6:	push   0xfffffff0
  41e2f8:	sbb    eax,0x35b95b9d
  41e2fd:	les    ecx,FWORD PTR [ebx-0x5d]
  41e300:	push   ebx
  41e301:	xor    al,0x46
  41e303:	push   cs
  41e304:	mov    ?,WORD PTR [ebx-0x4a]
  41e307:	add    eax,0xabba091e
  41e30c:	cmp    eax,0xbe4b6791
  41e311:	mov    dh,0x87
  41e313:	jbe    0x41e2c0
  41e315:	cwde   
  41e316:	pop    esi
  41e317:	adc    ah,cl
  41e319:	cmps   DWORD PTR es:[esi],DWORD PTR es:[edi]
  41e31b:	adc    eax,0x6526811c
  41e320:	ret    0x354c
  41e323:	iret   
  41e324:	push   cs
  41e325:	jno    0x41e2e8
  41e327:	mov    edx,0xa462ac52
  41e32c:	(bad)  
  41e32d:	cld    
  41e32e:	fs loope 0x41e34d
  41e331:	fldcw  WORD PTR [ebx+esi*2+0x1c51be4c]
  41e338:	test   DWORD PTR [ebp+edi*1-0x604a8591],ebp
  41e33f:	jns    0x41e327
  41e341:	cld    
  41e342:	fldcw  WORD PTR [ebx]
  41e344:	aaa    
  41e345:	push   ebx
  41e346:	fs std 
  41e348:	icebp  
  41e349:	pop    ss
  41e34a:	jg     0x41e3ad
  41e34c:	mov    bl,0x5c
  41e34e:	movs   DWORD PTR es:[edi],DWORD PTR ds:[esi]
  41e34f:	or     edi,ebx
  41e351:	jns    0x41e2f4
  41e353:	ds aam 0xba
  41e356:	in     al,dx
  41e357:	cmp    eax,0xb164bdd7
  41e35c:	movs   BYTE PTR es:[edi],BYTE PTR ds:[esi]
  41e35d:	pop    edi
  41e35e:	sub    al,0x22
  41e360:	pushf  
  41e361:	mov    al,0xf3
  41e363:	xor    BYTE PTR [edi+0x4c0e52a8],0x38
  41e36a:	sbb    DWORD PTR cs:[ecx+eax*8],0x224c3d0
  41e372:	pushf  
  41e373:	loop   0x41e31b
  41e375:	mov    bh,0x58
  41e377:	popa   
  41e378:	sub    eax,0x1e0b38c1
  41e37d:	mov    bh,0x5f
  41e37f:	push   cs
  41e380:	mov    dh,0x12
  41e382:	movs   DWORD PTR es:[edi],DWORD PTR ds:[esi]
  41e383:	push   ebp
  41e384:	push   ds
  41e385:	add    DWORD PTR [esi-0x57],0xc39e42c1
  41e38c:	and    al,0xac
  41e38e:	cdq    
  41e38f:	push   esi
  41e390:	(bad)  
  41e391:	pop    ds
  41e392:	pop    esi
  41e393:	aad    0x24
  41e395:	cli    
  41e396:	cmps   BYTE PTR ds:[esi],BYTE PTR es:[edi]
  41e397:	hlt    
  41e398:	lea    ebp,[ebx+esi*8]
  41e39b:	hlt    
  41e39c:	imul   esp,DWORD PTR [ecx],0xab573f2b
  41e3a2:	xor    ebx,DWORD PTR [ecx]
  41e3a4:	mov    cl,0xa5
  41e3a6:	leave  
  41e3a7:	dec    edx
  41e3a8:	jnp    0x41e35c
  41e3aa:	sub    edx,DWORD PTR [ecx]
  41e3ac:	hlt    
  41e3ad:	pop    esp
  41e3ae:	jo     0x41e3e9
  41e3b0:	add    cl,al
  41e3b2:	add    edi,ecx
  41e3b4:	mov    dl,0x4e
  41e3b6:	sahf   
  41e3b7:	dec    esp
  41e3b8:	mov    ebx,0x9b6463d9
  41e3bd:	lea    ebp,[ebx+0x6d7f959b]
  41e3c3:	std    
  41e3c4:	cmp    BYTE PTR [edi],cl
  41e3c6:	sbb    al,0xe
  41e3c8:	sbb    al,0x49
  41e3ca:	das    
  41e3cb:	in     eax,dx
  41e3cc:	pop    esi
  41e3cd:	pop    ebx
  41e3ce:	cmp    al,0x2d
  41e3d0:	je     0x41e3e3
  41e3d2:	inc    esi
  41e3d3:	aam    0x4f
  41e3d5:	push   edi
  41e3d6:	ror    DWORD PTR [edi],cl
  41e3d8:	retf   0x43a9
  41e3db:	in     al,dx
  41e3dc:	sbb    al,0x39
  41e3de:	or     esp,eax
  41e3e0:	stos   BYTE PTR es:[edi],al
  41e3e1:	mov    ebp,0xace0e47f
  41e3e6:	adc    eax,0x864c30e1
  41e3eb:	add    eax,0x59eacc5d
  41e3f0:	bound  ebp,QWORD PTR [ebp+esi*8+0x13eae7db]
  41e3f7:	jecxz  0x41e3a7
  41e3f9:	stos   DWORD PTR es:[edi],eax
  41e3fa:	cmp    eax,0x21c5c095
  41e3ff:	jbe    0x41e3ec
  41e401:	sbb    BYTE PTR ds:0x6587e325,ah
  41e407:	cdq    
  41e408:	cmpxchg ch,bl
  41e40b:	(bad)  
  41e40c:	aas    
  41e40d:	inc    esi
  41e40e:	xor    DWORD PTR [edi],ecx
  41e410:	or     eax,0xe756768b
  41e415:	mov    BYTE PTR [esi],dl
  41e417:	sbb    BYTE PTR [ecx-0x55],dl
  41e41a:	arpl   WORD PTR [edi+ebp*8+0x6fea10c6],di
  41e421:	aaa    
  41e422:	pop    ds
  41e423:	repnz test BYTE PTR [edx],ch
  41e426:	into   
  41e427:	xchg   edi,eax
  41e428:	fidivr WORD PTR [ebx+0x62924f4e]
  41e42e:	bound  esp,QWORD PTR ds:0x8757c9f4
  41e434:	scas   eax,DWORD PTR es:[edi]
  41e435:	(bad)  
  41e436:	mov    dl,0x1c
  41e438:	or     eax,0x9ff9575b
  41e43d:	jno    0x41e457
  41e43f:	or     bl,BYTE PTR [esi]
  41e441:	loope  0x41e476
  41e443:	test   DWORD PTR [ecx-0x33c41db8],esi
  41e449:	jmp    0x41e40f
  41e44b:	popa   
  41e44c:	es out dx,eax
  41e44e:	sub    eax,DWORD PTR [esi]
  41e450:	pop    ds
  41e451:	push   ebp
  41e452:	sub    DWORD PTR [ebx+0x1fa41fd1],edx
  41e458:	lods   eax,DWORD PTR ds:[esi]
  41e459:	sub    edi,DWORD PTR [edx]
  41e45b:	pusha  
  41e45c:	push   edi
  41e45d:	popa   
  41e45e:	std    
  41e45f:	add    bh,BYTE PTR [esi]
  41e461:	xchg   edx,eax
  41e462:	aam    0xde
  41e464:	mov    ds:0x9472c595,eax
  41e469:	fbld   TBYTE PTR [edx-0x7]
  41e46c:	stos   BYTE PTR es:[edi],al
  41e46d:	xchg   esp,eax
  41e46e:	cmps   DWORD PTR ds:[esi],DWORD PTR es:[edi]
  41e46f:	aaa    
  41e470:	jmp    0x41e4aa
  41e472:	xor    BYTE PTR [edi],cl
  41e474:	popa   
  41e475:	mov    dh,0xdc
  41e477:	es sbb eax,0xfcef11a9
  41e47d:	imul   eax,DWORD PTR [edi-0x68],0xffffffde
  41e481:	(bad)  
  41e482:	stos   DWORD PTR es:[edi],eax
  41e483:	sahf   
  41e484:	xlat   BYTE PTR ds:[ebx]
  41e485:	adc    edi,DWORD PTR [esi+0xe]
  41e488:	int    0x9a
  41e48a:	lods   al,BYTE PTR ds:[esi]
  41e48b:	adc    BYTE PTR [esp+edi*4-0x4ee1b4a4],ch
  41e492:	xchg   BYTE PTR [ebp-0x72],dl
  41e495:	jmp    0x41e478
  41e497:	push   ss
  41e498:	(bad)  
  41e499:	adc    al,0x85
  41e49b:	and    BYTE PTR [edi],bh
  41e49d:	stos   BYTE PTR es:[edi],al
  41e49e:	dec    ebp
  41e49f:	daa    
  41e4a0:	mov    bh,0xd1
  41e4a2:	lods   al,BYTE PTR ds:[esi]
  41e4a3:	pop    ebp
  41e4a4:	sbb    eax,0xec857d6d
  41e4a9:	xchg   DWORD PTR [ecx],edx
  41e4ab:	in     eax,dx
  41e4ac:	enter  0x39e2,0xa1
  41e4b0:	pop    ss
  41e4b1:	or     al,0xc1
  41e4b3:	adc    BYTE PTR [edx],ch
  41e4b5:	add    eax,0x53dd43e2
  41e4ba:	add    bh,BYTE PTR ds:0x5ec3c11e
  41e4c0:	xchg   edx,eax
  41e4c1:	push   ecx
  41e4c2:	pop    eax
  41e4c3:	daa    
  41e4c4:	sbb    al,0xab
  41e4c6:	mov    cl,0x9b
  41e4c8:	ror    BYTE PTR ds:0x909d51bb,cl
  41e4ce:	mov    dl,0xb9
  41e4d0:	aam    0x1e
  41e4d2:	fs add eax,0xbb8d33eb
  41e4d8:	push   ebx
  41e4d9:	push   esp
  41e4da:	lods   al,BYTE PTR ds:[esi]
  41e4db:	btr    DWORD PTR [eax-0x5e],esi
  41e4df:	dec    edx
  41e4e0:	dec    esp
  41e4e1:	iret   
  41e4e2:	jg     0x41e46f
  41e4e4:	popf   
  41e4e5:	retf   
  41e4e6:	ins    BYTE PTR es:[edi],dx
  41e4e7:	pop    eax
  41e4e8:	(bad)  
  41e4e9:	cmp    DWORD PTR [eax-0x64],ebp
  41e4ec:	lock dec eax
  41e4ee:	bnd ret 0x5c2f
  41e4f2:	push   esi
  41e4f3:	ficom  WORD PTR [ebx]
  41e4f5:	mov    ch,0x39
  41e4f7:	add    al,BYTE PTR [ebx]
  41e4f9:	retf   0x2df7
  41e4fc:	scas   al,BYTE PTR es:[edi]
  41e4fd:	push   esi
  41e4fe:	loop   0x41e51a
  41e500:	hlt    
  41e501:	cmp    esi,DWORD PTR [ecx+0x34]
  41e504:	push   ds
  41e505:	lods   al,BYTE PTR ds:[esi]
  41e506:	sub    BYTE PTR [ecx-0x399bf691],al
  41e50c:	sbb    ecx,DWORD PTR [ebp+0x6c800fea]
  41e512:	pop    edi
  41e513:	test   al,0x1c
  41e515:	lea    edx,[ebx]
  41e517:	sbb    eax,0x54695290
  41e51c:	rcr    BYTE PTR [ebp+ebx*1+0xf97ccd8],cl
  41e523:	scas   eax,DWORD PTR es:[edi]
  41e524:	inc    ebp
  41e525:	cmp    DWORD PTR [esi],ebp
  41e527:	adc    ebx,eax
  41e529:	fs pop ss
  41e52b:	(bad)  
  41e52c:	pop    edx
  41e52d:	call   0xe5c5:0x8f343ad2
  41e534:	ins    DWORD PTR es:[edi],dx
  41e535:	inc    edi
  41e536:	fwait
  41e537:	push   0xffffffa1
  41e539:	xchg   esi,eax
  41e53a:	fmul   DWORD PTR [edi+0x2561591f]
  41e540:	fiadd  DWORD PTR [ebx-0x4a]
  41e543:	jmp    DWORD PTR [ecx-0x32]
  41e546:	push   esi
  41e547:	mov    bh,0xd1
  41e549:	cmp    al,0x2
  41e54b:	fcomp  DWORD PTR [edi*1-0x7aca18a1]
  41e552:	ffree  st(1)
  41e554:	and    ebx,DWORD PTR [ebx+eiz*2+0xf]
  41e558:	dec    ebx
  41e559:	sbb    dl,BYTE PTR [eax+0x4c]
  41e55c:	push   ds
  41e55d:	gs mov al,0xb9
  41e560:	fistp  DWORD PTR [ebx-0x3af694fc]
  41e566:	add    bl,al
  41e568:	push   ds
  41e569:	daa    
  41e56a:	sub    al,0x4c
  41e56c:	xor    al,0x2b
  41e56e:	pop    eax
  41e56f:	dec    eax
  41e570:	sbb    al,0x81
  41e572:	xchg   ebp,eax
  41e573:	fwait
  41e574:	loope  0x41e588
  41e576:	xor    eax,0x47
  41e579:	test   eax,0xd5a1ada1
  41e57e:	adc    DWORD PTR [edx],ebx
  41e580:	scas   eax,DWORD PTR es:[edi]
  41e581:	sub    eax,0x2dec787c
  41e586:	dec    ecx
  41e587:	jns    0x41e5e7
  41e589:	fst    QWORD PTR [ebx]
  41e58b:	pop    ecx
  41e58c:	sub    DWORD PTR [edx-0x54b58257],0xffffffdb
  41e593:	adc    BYTE PTR [ebp+0x141386d9],ah
  41e599:	std    
  41e59a:	movs   BYTE PTR es:[edi],BYTE PTR ds:[esi]
  41e59b:	mov    ds:0xc8729788,eax
  41e5a0:	or     al,0xf5
  41e5a2:	xchg   ebp,eax
  41e5a3:	mov    gs,ebx
  41e5a5:	adc    esp,DWORD PTR [eax+0xa]
  41e5a8:	mov    edi,0x543db0df
  41e5ad:	dec    ebp
  41e5ae:	and    ecx,DWORD PTR [esi-0x1d]
  41e5b1:	bound  esi,QWORD PTR cs:[ebp+0x6d15b238]
  41e5b8:	pop    edi
  41e5b9:	inc    eax
  41e5ba:	push   0xf
  41e5bc:	addr16 jmp 0x5e2a:0x5d1fafc9
  41e5c4:	in     eax,dx
  41e5c5:	movs   BYTE PTR es:[edi],BYTE PTR ds:[esi]
  41e5c6:	jl     0x41e613
  41e5c8:	aad    0xab
  41e5ca:	push   ecx
  41e5cb:	xchg   BYTE PTR [edi-0x5f],dh
  41e5ce:	aad    0x3b
  41e5d0:	cmp    DWORD PTR [ecx],ecx
  41e5d2:	pop    esi
  41e5d3:	jns    0x41e604
  41e5d5:	in     eax,dx
  41e5d6:	pop    ebp
  41e5d7:	xchg   ebp,eax
  41e5d8:	sbb    al,0x96
  41e5da:	xchg   ecx,eax
  41e5db:	sub    BYTE PTR [esi-0x7b],0x0
  41e5df:	test   BYTE PTR [edi+0x1a],0xe6
  41e5e3:	push   cs
  41e5e4:	xor    eax,0x32
  41e5e7:	popf   
  41e5e8:	pop    ds
  41e5e9:	lea    ecx,[esi]
  41e5eb:	cmp    BYTE PTR [ebx+edx*1],dh
  41e5ee:	xor    eax,esp
  41e5f0:	fisubr WORD PTR [edx+0x55a33f79]
  41e5f6:	mov    dh,0x6d
  41e5f8:	std    
  41e5f9:	jbe    0x41e5f0
  41e5fb:	out    0x1d,al
  41e5fd:	cmc    
  41e5fe:	rcr    DWORD PTR [ecx],cl
  41e600:	jle    0x41e61d
  41e602:	mov    ah,0x7b
  41e604:	mov    ebx,0xb77c09aa
  41e609:	loopne 0x41e5e2
  41e60b:	(bad)  
  41e60c:	loopne 0x41e61b
  41e60e:	sub    edi,DWORD PTR [edx]
  41e610:	inc    esi
  41e611:	dec    edi
  41e612:	gs cdq 
  41e614:	mov    WORD PTR [eax-0x65],ss
  41e617:	inc    edi
  41e618:	mov    DWORD PTR [edi+0x6f],0xb2e2a70e
  41e61f:	jmp    0xc70c:0x484bd1c
  41e626:	xchg   edx,eax
  41e627:	dec    DWORD PTR [edi-0x3e0aba59]
  41e62d:	inc    ecx
  41e62e:	push   ss
  41e62f:	cmp    eax,0x5839feeb
  41e634:	sub    esi,esi
  41e636:	add    cl,dl
  41e638:	loope  0x41e650
  41e63a:	sbb    DWORD PTR fs:[ebx-0x1c],ebp
  41e63e:	in     eax,0x11
  41e640:	mov    bh,0xb5
  41e642:	aas    
  41e643:	adc    BYTE PTR [edi],cl
  41e645:	dec    ebp
  41e646:	jle    0x41e644
  41e648:	aad    0x1c
  41e64a:	rol    dh,1
  41e64c:	push   ds
  41e64d:	add    DWORD PTR [edx],edx
  41e64f:	dec    esp
  41e650:	ror    BYTE PTR [ecx],0x71
  41e653:	sub    eax,0xef2aa9b
  41e658:	push   ebx
  41e659:	dec    ebx
  41e65a:	fist   DWORD PTR [esi+0x27dcf51e]
  41e660:	jae    0x41e687
  41e662:	pop    esi
  41e663:	test   DWORD PTR [eax],edx
  41e665:	lods   al,BYTE PTR ds:[esi]
  41e666:	xchg   ebp,eax
  41e667:	int    0x72
  41e669:	mov    al,ds:0x3f679a0d
  41e66e:	sbb    edx,DWORD PTR [edx+0x22]
  41e671:	ins    BYTE PTR es:[edi],dx
  41e672:	out    dx,eax
  41e673:	cmp    BYTE PTR [esi+0x43792bab],ah
  41e679:	test   eax,0xabf046b7
  41e67e:	jno    0x41e6ff
  41e680:	xor    al,0xb0
  41e682:	cli    
  41e683:	adc    ecx,DWORD PTR [esp+edx*4-0x9517025]
  41e68a:	fs popf 
  41e68c:	dec    eax
  41e68d:	jle    0x41e6dd
  41e68f:	div    DWORD PTR [edx+0x179f9c51]
  41e695:	into   
  41e696:	arpl   bp,di
  41e698:	and    BYTE PTR [edx],dl
  41e69a:	sbb    dl,ah
  41e69c:	push   esp
  41e69d:	sub    al,0x63
  41e69f:	xor    eax,0xbf2f1f1d
  41e6a4:	xlat   BYTE PTR ds:[ebx]
  41e6a5:	nop
  41e6a6:	or     DWORD PTR [esi],ecx
  41e6a8:	sbb    BYTE PTR [ecx+0x791e0f5b],dh
  41e6ae:	sbb    bh,BYTE PTR [eax-0x79b4b444]
  41e6b4:	pusha  
  41e6b5:	mov    cs,WORD PTR [ebp+0x2847d913]
  41e6bb:	lahf   
  41e6bc:	mov    esi,0x5d0dd365
  41e6c1:	ins    DWORD PTR es:[edi],dx
  41e6c2:	mov    dh,BYTE PTR ds:0x1561f397
  41e6c8:	nop
  41e6c9:	mov    edi,0x99431778
  41e6ce:	and    eax,0xd4623e0e
  41e6d3:	cld    
  41e6d4:	push   ds
  41e6d5:	push   ebp
  41e6d6:	jge    0x41e6fd
  41e6d8:	push   es
  41e6d9:	cmc    
  41e6da:	jg     0x41e6c9
  41e6dc:	push   ecx
  41e6dd:	lods   al,BYTE PTR ds:[esi]
  41e6de:	mov    ecx,0xf8bb3cbd
  41e6e3:	lea    ebp,[esp+ecx*2+0x72e35ac7]
  41e6ea:	push   esi
  41e6eb:	cmc    
  41e6ec:	cmp    cl,BYTE PTR [edx-0x5f2f2929]
  41e6f2:	popf   
  41e6f3:	popa   
  41e6f4:	fdiv   DWORD PTR ds:0x5dfc01bb
  41e6fa:	(bad)  
  41e6fb:	fst    st(5)
  41e6fd:	add    BYTE PTR [edi-0x7a],bl
  41e700:	or     al,0x85
  41e702:	add    eax,0x16aa61bb
  41e707:	or     BYTE PTR [eax+eiz*1],al
  41e70a:	gs jmp 0x41e6cc
  41e70d:	fistp  DWORD PTR [edx-0xa51c9d]
  41e713:	pop    ds
  41e714:	inc    edx
  41e715:	test   eax,0x3f22dbad
  41e71a:	lahf   
  41e71b:	repz mov gs,WORD PTR [ebx+0x64f69d5]
  41e722:	sub    bh,BYTE PTR [ebx]
  41e724:	adc    ch,bh
  41e726:	rcl    BYTE PTR [ecx+0x30],1
  41e729:	out    dx,al
  41e72a:	bound  edx,QWORD PTR [ebp-0x458ac985]
  41e730:	out    0xb2,eax
  41e732:	sub    eax,0x9838b511
  41e737:	inc    edi
  41e738:	mov    ecx,0xcc8380f0
  41e73d:	lea    edi,[edx]
  41e73f:	jmp    0x41e73a
  41e741:	stos   BYTE PTR es:[edi],al
  41e742:	movs   DWORD PTR es:[edi],DWORD PTR ds:[esi]
  41e743:	add    al,0x66
  41e745:	rol    bl,cl
  41e747:	cmc    
  41e748:	xchg   ebx,eax
  41e749:	mov    ebp,0x4b1562ad
  41e74e:	jmp    0x63750aa3
  41e753:	mov    ebp,0xad5aa5b
  41e758:	cmp    al,BYTE PTR [edx+0x54]
  41e75b:	mov    cl,0xf7
  41e75d:	gs cwde 
  41e75f:	fisttp WORD PTR [eax-0x56]
  41e762:	jae    0x41e79c
  41e764:	gs sbb ch,bl
  41e767:	xchg   edx,eax
  41e768:	test   al,0xab
  41e76a:	and    edx,ebx
  41e76c:	and    ebx,ebp
  41e76e:	xor    DWORD PTR [edx-0xaf2fe5b],edi
  41e774:	cwde   
  41e775:	loop   0x41e739
  41e777:	inc    eax
  41e778:	ficom  WORD PTR [ebx-0x11169d]
  41e77e:	mov    ecx,0x6dd85f3f
  41e783:	push   cs
  41e784:	and    BYTE PTR [edx-0x7f],0x56
  41e788:	pop    ds
  41e789:	inc    ecx
  41e78a:	mov    dl,0x77
  41e78c:	fistp  DWORD PTR [eax]
  41e78e:	in     al,0xec
  41e790:	xor    ch,BYTE PTR [ebx-0x69655f67]
  41e796:	bound  esi,QWORD PTR [esi]
  41e798:	push   ds
  41e799:	das    
  41e79a:	mov    ecx,0x656a2cbf
  41e79f:	adc    eax,0xe351f464
  41e7a4:	imul   ecx,DWORD PTR [edi-0x2cc6efc7],0xffffffa2
  41e7ab:	xchg   esp,eax
  41e7ac:	pop    ds
  41e7ad:	aad    0x24
  41e7af:	push   ds
  41e7b0:	cdq    
  41e7b1:	lods   al,BYTE PTR ds:[esi]
  41e7b2:	push   ss
  41e7b3:	sahf   
  41e7b4:	sbb    ch,BYTE PTR [edx-0x4910a957]
  41e7ba:	or     DWORD PTR [eax+ebx*8],0x77
  41e7be:	nop
  41e7bf:	jnp    0x41e7e0
  41e7c1:	mov    ch,0x76
  41e7c3:	mov    ebx,0xeee28eaf
  41e7c8:	xlat   BYTE PTR ds:[ebx]
  41e7c9:	stos   DWORD PTR es:[edi],eax
  41e7ca:	mov    eax,ds:0xec3a8cb0
  41e7cf:	sub    ch,BYTE PTR [esi-0x64]
  41e7d2:	mov    DWORD PTR ds:0x8564df23,edi
  41e7d8:	sahf   
  41e7d9:	(bad)  
  41e7da:	ja     0x41e83f
  41e7dc:	jg     0x41e7f0
  41e7de:	dec    edi
  41e7df:	(bad)  
  41e7e2:	xor    eax,0x3211c6f
  41e7e7:	add    dl,BYTE PTR [eax-0x779d7520]
  41e7ed:	adc    edx,DWORD PTR [edx+0x60]
  41e7f0:	pop    edi
  41e7f1:	iret   
  41e7f2:	cmp    al,0xe
  41e7f4:	fucomi st,st(7)
  41e7f6:	sub    BYTE PTR [eax],ah
  41e7f8:	and    dl,BYTE PTR [ebp+esi*4-0x68]
  41e7fc:	jne    0x41e82d
  41e7fe:	pop    esp
  41e7ff:	adc    DWORD PTR [ecx+ebp*1],eax
  41e802:	xor    ah,bl
  41e804:	pop    ds
  41e805:	out    0x4b,al
  41e807:	push   cs
  41e808:	or     BYTE PTR [edx+eiz*1+0x75],bl
  41e80c:	sub    eax,0x412b9a44
  41e811:	xor    ebp,DWORD PTR [esi]
  41e813:	cdq    
  41e814:	mov    bl,BYTE PTR [esi-0x548ef79c]
  41e81a:	mov    DWORD PTR [edx-0xb],eax
  41e81d:	(bad)  
  41e81e:	sahf   
  41e81f:	and    eax,0x901a1efc
  41e824:	lock fldenv [ebx+0x45]
  41e828:	mov    al,ds:0xc78c9ed4
  41e82d:	cmp    cl,BYTE PTR [edi+0x10]
  41e830:	or     ebx,DWORD PTR [ebx]
  41e832:	fld    DWORD PTR [ebx]
  41e834:	sbb    al,0xd1
  41e836:	sub    eax,DWORD PTR [ebp+edx*1+0x7c83f2f2]
  41e83d:	mov    al,ds:0x1ba3ff7d
  41e842:	cli    
  41e843:	jae    0x41e7f4
  41e845:	and    al,0x6f
  41e847:	scas   eax,DWORD PTR es:[edi]
  41e848:	pop    ds
  41e849:	sub    ah,cl
  41e84b:	mov    BYTE PTR [eax],al
  41e84d:	push   esp
  41e84e:	and    BYTE PTR [edx+0x61add47],0xee
  41e855:	cmp    esi,ebx
  41e857:	inc    esp
  41e858:	mov    ebx,DWORD PTR [esi+ebx*2+0x2acd1c8e]
  41e85f:	pop    ebx
  41e860:	sti    
  41e861:	mov    dh,0x77
  41e863:	test   DWORD PTR [ebx+0x56c0114a],ecx
  41e869:	xchg   esp,eax
  41e86a:	or     al,0x47
  41e86c:	pop    ds
  41e86d:	sub    eax,0x2d57a3b9
  41e872:	les    edx,FWORD PTR [edi+esi*4]
  41e875:	popf   
  41e876:	aad    0x64
  41e878:	pusha  
  41e879:	gs xchg ebx,eax
  41e87b:	or     edi,DWORD PTR [esi+0x1ecca716]
  41e881:	in     eax,dx
  41e882:	sub    BYTE PTR [eax+ebx*2+0x56],ch
  41e886:	adc    dh,ch
  41e888:	lds    esi,FWORD PTR [ebx]
  41e88a:	std    
  41e88b:	in     eax,dx
  41e88c:	add    esp,DWORD PTR [ecx+0x5d64b771]
  41e892:	and    ebx,ebx
  41e894:	lods   eax,DWORD PTR ds:[esi]
  41e895:	xchg   ecx,eax
  41e896:	or     BYTE PTR [edi+0x1f],cl
  41e899:	pop    ecx
  41e89a:	adc    esi,eax
  41e89c:	push   ebx
  41e89d:	mov    al,ds:0xacc1f7d0
  41e8a2:	int    0x2e
  41e8a4:	ss pop edx
  41e8a6:	mov    DWORD PTR [esi+0x41],ecx
  41e8a9:	push   ebx
  41e8aa:	jb     0x41e8e3
  41e8ac:	jle    0x41e857
  41e8ae:	shr    DWORD PTR fs:[esi+0x4e],0xc8
  41e8b3:	shl    DWORD PTR ds:[ebx],cl
  41e8b6:	cmp    eax,0xf4c3a1f6
  41e8bb:	adc    DWORD PTR [eax],esi
  41e8bd:	out    0x61,eax
  41e8bf:	or     DWORD PTR [ebx-0x3a],ebp
  41e8c2:	inc    ebp
  41e8c3:	out    0xab,eax
  41e8c5:	or     al,0xe8
  41e8c7:	or     eax,0x3c2d9e96
  41e8cc:	adc    BYTE PTR [ecx],cl
  41e8ce:	lea    esp,[ecx]
  41e8d0:	push   0x10
  41e8d2:	mov    dh,BYTE PTR [edi-0x2f7017ff]
  41e8d8:	pop    ebx
  41e8d9:	popa   
  41e8da:	ror    BYTE PTR [esi],cl
  41e8dc:	lds    ebp,FWORD PTR [ecx]
  41e8de:	jo     0x41e8f4
  41e8e0:	pop    ds
  41e8e1:	inc    ecx
  41e8e2:	inc    eax
  41e8e3:	cli    
  41e8e4:	xchg   ecx,eax
  41e8e5:	mov    eax,ds:0xa9a7b403
  41e8ea:	inc    ecx
  41e8eb:	addr16 push 0x5fbcbf32
  41e8f1:	jbe    0x41e880
  41e8f3:	call   0xdda37d0c
  41e8f8:	mov    esi,0xe13866e
  41e8fd:	lods   al,BYTE PTR ds:[esi]
  41e8fe:	in     eax,0xc1
  41e900:	push   es
  41e901:	shr    DWORD PTR [ecx+0x7fbf7983],cl
  41e907:	add    ebx,DWORD PTR ds:0xec5d55d
  41e90d:	cdq    
  41e90e:	arpl   WORD PTR [edi+0x20],di
  41e911:	stos   BYTE PTR es:[edi],al
  41e912:	or     ebp,esp
  41e914:	xor    eax,esi
  41e916:	repz int3 
  41e918:	rcr    DWORD PTR [esi],0x0
  41e91b:	iret   
  41e91c:	jl     0x41e8ac
  41e91e:	arpl   WORD PTR [ecx],bp
  41e920:	ja     0x41e916
  41e922:	pop    ebx
  41e923:	push   edi
  41e924:	ret    
  41e925:	mov    bl,0x8f
  41e927:	or     eax,0xf97ebcb1
  41e92c:	sbb    eax,0x79a7b35
  41e931:	fsubr  st,st(0)
  41e933:	adc    eax,0x171da92c
  41e938:	inc    ebp
  41e939:	xor    cl,BYTE PTR [esi]
  41e93b:	xor    eax,DWORD PTR [edi]
  41e93d:	mov    esi,0xdb09247f
  41e942:	popa   
  41e943:	(bad)
  41e946:	addr16 ret 0xdbf3
  41e94a:	push   ebx
  41e94b:	push   cs
  41e94c:	xchg   ecx,eax
  41e94d:	cli    
  41e94e:	and    BYTE PTR [eax+0x40],dh
  41e951:	sub    eax,DWORD PTR [edi+0x6224889f]
  41e957:	popa   
  41e958:	push   cs
  41e959:	inc    ecx
  41e95a:	xor    al,0x9c
  41e95c:	ja     0x41e9ad
  41e95e:	sti    
  41e95f:	push   cs
  41e960:	rcl    DWORD PTR [eax],1
  41e962:	mov    ch,0x7
  41e964:	sbb    eax,0xdadf1931
  41e969:	inc    ebp
  41e96a:	scas   eax,DWORD PTR es:[edi]
  41e96b:	lods   al,BYTE PTR ds:[esi]
  41e96c:	add    eax,0x36493136
  41e971:	stos   BYTE PTR es:[edi],al
  41e972:	mov    ebp,0x1b3f4af6
  41e977:	mov    ds,WORD PTR [ecx]
  41e979:	xchg   ebp,eax
  41e97a:	and    esp,DWORD PTR [ecx-0x65]
  41e97d:	retf   0xc1f1
  41e980:	sbb    eax,0xbf59be64
  41e985:	stos   BYTE PTR es:[edi],al
  41e986:	sub    eax,0xf5ff7d06
  41e98b:	xor    ah,dh
  41e98d:	add    bh,cl
  41e98f:	push   ebp
  41e990:	mov    BYTE PTR [ebx-0x2623e38d],ch
  41e996:	pop    edi
  41e997:	shr    BYTE PTR ds:0xb7533bcd,cl
  41e99d:	push   eax
  41e99e:	sti    
  41e99f:	ins    DWORD PTR es:[edi],dx
  41e9a0:	jae    0x41e935
  41e9a2:	mov    ebx,0x1ac8520e
  41e9a7:	xchg   edx,eax
  41e9a8:	xor    ecx,DWORD PTR [ebx]
  41e9aa:	loopne 0x41ea2a
  41e9ac:	sub    al,0x10
  41e9ae:	push   esi
  41e9af:	cdq    
  41e9b0:	sub    BYTE PTR [eax+0x16],ah
  41e9b3:	push   ds
  41e9b4:	pop    eax
  41e9b5:	inc    esi
  41e9b6:	shr    bh,cl
  41e9b8:	ja     0x41e999
  41e9ba:	lods   eax,DWORD PTR ds:[esi]
  41e9bb:	bnd ret 0x95ac
  41e9bf:	rol    ah,0x0
  41e9c2:	mov    esp,0x5928b338
  41e9c7:	jno    0x41ea00
  41e9c9:	sub    esp,DWORD PTR [esi-0x26536236]
  41e9cf:	sbb    DWORD PTR [edx-0x2c4ceb86],edx
  41e9d5:	shr    esp,cl
  41e9d7:	ret    
  41e9d8:	cdq    
  41e9d9:	xchg   BYTE PTR [ebp+0x4d],ah
  41e9dc:	xchg   ecx,eax
  41e9dd:	ja     0x41e984
  41e9df:	pop    esp
  41e9e0:	fild   DWORD PTR [esi-0x150ff27e]
  41e9e6:	imul   esi,edx,0x1a
  41e9e9:	xor    eax,0xce84f021
  41e9ee:	sbb    DWORD PTR [ecx-0x63],ebx
  41e9f1:	aam    0xef
  41e9f3:	mov    cl,0x1f
  41e9f5:	and    ebp,DWORD PTR [eax+0xf]
  41e9f8:	xor    BYTE PTR [edi],al
  41e9fa:	xchg   ebx,eax
  41e9fb:	push   ss
  41e9fc:	sbb    al,0xdd
  41e9fe:	pop    esp
  41e9ff:	mov    esp,0x3c47cbb9
  41ea04:	xor    DWORD PTR [ecx-0x3fa3d4b],ebp
  41ea0a:	lahf   
  41ea0b:	push   eax
  41ea0c:	les    edx,FWORD PTR [ebx+0x17]
  41ea0f:	jne    0x41ea1f
  41ea11:	(bad)  [ecx-0x4f]
  41ea14:	jnp    0x41e9e3
  41ea16:	sub    DWORD PTR [esi],ebp
  41ea18:	sub    edx,ecx
  41ea1a:	adc    BYTE PTR es:[esi+0x1fbc8b5b],al
  41ea21:	mov    eax,ds:0x97b3c522
  41ea26:	add    DWORD PTR [edx+0x13b58d53],ecx
  41ea2c:	aaa    
  41ea2d:	xlat   BYTE PTR ds:[ebx]
  41ea2e:	in     eax,dx
  41ea2f:	fisttp DWORD PTR [edx+0x5b]
  41ea32:	dec    ecx
  41ea33:	into   
  41ea34:	sbb    eax,0x372fdd69
  41ea39:	fmul   st(3),st
  41ea3b:	movs   DWORD PTR es:[edi],DWORD PTR ds:[esi]
  41ea3c:	mov    edi,0xdbd4719d
  41ea41:	jge    0x41ea40
  41ea43:	ficomp WORD PTR [ebp-0x2]
  41ea46:	push   cs
  41ea47:	int    0x1c
  41ea49:	leave  
  41ea4a:	cmp    eax,0xa0448a7c
  41ea4f:	shl    DWORD PTR [esi],0xa7
  41ea52:	loope  0x41ea49
  41ea54:	mov    ebx,0xb432df1f
  41ea59:	mov    dl,0x48
  41ea5b:	pushf  
  41ea5c:	sub    cl,BYTE PTR [esp+eiz*8-0xdbee3af]
  41ea63:	shl    BYTE PTR [ebx],0xd5
  41ea66:	push   0x21a91e18
  41ea6b:	(bad)  
  41ea6c:	aam    0x63
  41ea6e:	rol    ebp,1
  41ea70:	loope  0x41ea5c
  41ea72:	xchg   cl,al
  41ea74:	rol    DWORD PTR [ebp+0x409105b],cl
  41ea7a:	add    ah,BYTE PTR [edx]
  41ea7c:	sbb    eax,0x350a1d5
  41ea81:	add    BYTE PTR [ebx-0x6656cca1],0x64
  41ea88:	mov    es,WORD PTR [edx]
  41ea8a:	(bad)  
  41ea8b:	sub    esp,DWORD PTR [edi+0x62d607c1]
  41ea91:	ja     0x41eaf7
  41ea93:	cdq    
  41ea94:	lahf   
  41ea95:	mov    ecx,0x6c17dae1
  41ea9a:	cwde   
  41ea9b:	(bad)  
  41ea9d:	mov    WORD PTR [eax-0x11],fs
  41eaa0:	pushf  
  41eaa1:	mov    ebp,0x363183ff
  41eaa6:	bound  ecx,QWORD PTR [ecx-0x2919cd75]
  41eaac:	shl    DWORD PTR [ebp+0x3d0c9c2a],cl
  41eab2:	aam    0x9d
  41eab4:	imul   ebp,DWORD PTR [edx-0x201180fb],0x33
  41eabb:	scas   al,BYTE PTR es:[edi]
  41eabc:	sbb    eax,0xdc598e05
  41eac1:	adc    DWORD PTR [edi],ebp
  41eac3:	pop    ds
  41eac4:	(bad)  
  41eac5:	retf   
  41eac6:	xchg   esp,eax
  41eac7:	data16 sbb al,0xf5
  41eaca:	or     cl,BYTE PTR [eax]
  41eacc:	ror    BYTE PTR [ecx],0x0
  41eacf:	or     al,0x1c
  41ead1:	or     eax,0x9ff17efa
  41ead6:	xchg   BYTE PTR [edi-0x6b],cl
  41ead9:	les    ecx,FWORD PTR [ebx-0x3]
  41eadc:	imul   edx,DWORD PTR [edx-0x1436da],0xfffffffd
  41eae3:	(bad)  
  41eae4:	xchg   DWORD PTR [ebp+eiz*2-0x7b],edx
  41eae8:	pop    ds
  41eae9:	xchg   ecx,eax
  41eaea:	aaa    
  41eaeb:	or     eax,0xd0af53a2
  41eaf0:	(bad)  
  41eaf1:	cmps   DWORD PTR ds:[esi],DWORD PTR es:[edi]
  41eaf2:	mov    DWORD PTR [ecx],ecx
  41eaf4:	xor    DWORD PTR ss:0x5a5c0ea3,eax
  41eafb:	and    DWORD PTR [edi],ebx
  41eafd:	pop    ebp
  41eafe:	dec    edx
  41eaff:	inc    ebx
  41eb00:	ret    
  41eb01:	retf   0xb741
  41eb04:	stos   DWORD PTR es:[di],eax
  41eb06:	std    
  41eb07:	dec    edx
  41eb08:	mov    ecx,0xb07a52b8
  41eb0d:	ss pusha 
  41eb0f:	ret    
  41eb10:	lock and esp,DWORD PTR [edx-0x63]
  41eb14:	pop    ss
  41eb15:	sub    ah,BYTE PTR [edx+0x38]
  41eb18:	adc    esi,DWORD PTR [edi-0x56]
  41eb1b:	pmuludq mm4,mm4
  41eb1e:	das    
  41eb1f:	scas   eax,DWORD PTR es:[edi]
  41eb20:	dec    BYTE PTR [edi-0x31]
  41eb23:	les    ebx,FWORD PTR [esi]
  41eb25:	mov    ch,0x85
  41eb27:	adc    esp,ecx
  41eb29:	adc    ecx,DWORD PTR [ebx+0x50]
  41eb2c:	lock lods al,BYTE PTR ds:[esi]
  41eb2e:	sub    ebp,ebp
  41eb30:	cmps   BYTE PTR cs:[esi],BYTE PTR es:[edi]
  41eb32:	sti    
  41eb33:	push   es
  41eb34:	ja     0x41eb40
  41eb36:	cli    
  41eb37:	cmp    edx,ebp
  41eb39:	int3   
  41eb3a:	pusha  
  41eb3b:	xchg   ebp,eax
  41eb3c:	popa   
  41eb3d:	lods   al,BYTE PTR ds:[esi]
  41eb3e:	stos   BYTE PTR es:[edi],al
  41eb3f:	shr    BYTE PTR [edi+0x193585ab],1
  41eb45:	retf   0x3509
  41eb48:	or     esi,DWORD PTR [edx+esi*4-0x7e5386c4]
  41eb4f:	js     0x41ebab
  41eb51:	sbb    esp,esp
  41eb53:	imul   esp,DWORD PTR ds:0x831e39ab,0x75ad2101
  41eb5d:	cmp    edi,edi
  41eb5f:	ss loop 0x41eaf4
  41eb62:	daa    
  41eb63:	loope  0x41eb0e
  41eb65:	pop    esp
  41eb66:	sti    
  41eb67:	adc    al,0x11
  41eb69:	mov    cl,0xef
  41eb6b:	mov    bh,0xc3
  41eb6d:	int3   
  41eb6e:	pop    ebp
  41eb6f:	push   esp
  41eb70:	cmp    ecx,DWORD PTR [edi-0x22b3158b]
  41eb76:	pop    ebx
  41eb77:	pop    ebx
  41eb78:	fistp  QWORD PTR [edi]
  41eb7a:	enter  0xdc09,0x1c
  41eb7e:	xchg   ecx,eax
  41eb7f:	add    BYTE PTR [ecx+0x73],ah
  41eb82:	lods   eax,DWORD PTR gs:[esi]
  41eb84:	jp     0x41ebb8
  41eb86:	scas   eax,DWORD PTR es:[edi]
  41eb87:	and    BYTE PTR [edi+0x60],ah
  41eb8a:	hlt    
  41eb8b:	or     eax,0x7da03509
  41eb90:	loop   0x41eb8e
  41eb92:	ret    0x34f
  41eb95:	lods   eax,DWORD PTR ds:[esi]
  41eb96:	jmp    0xabdea448
  41eb9b:	call   0xdf37:0x9fc777b
  41eba2:	ffree  st(0)
  41eba4:	mov    eax,0x33edcec9
  41eba9:	fs movs DWORD PTR es:[edi],DWORD PTR gs:[esi]
  41ebac:	das    
  41ebad:	inc    BYTE PTR ds:0x57bc5bcd
  41ebb3:	mov    bh,0xeb
  41ebb5:	test   eax,0xae17c21d
  41ebba:	cmps   BYTE PTR ds:[esi],BYTE PTR es:[edi]
  41ebbb:	pop    ebx
  41ebbc:	adc    BYTE PTR [ebp+0x6b212d79],ah
  41ebc2:	fwait
  41ebc3:	(bad)  
  41ebc4:	cld    
  41ebc5:	call   0xe57:0xdd638dd3
  41ebcc:	cwde   
  41ebcd:	cmp    al,0x40
  41ebcf:	jecxz  0x41ec22
  41ebd1:	fwait
  41ebd2:	mov    ch,0x6b
  41ebd4:	aas    
  41ebd5:	clc    
  41ebd6:	arpl   WORD PTR [ebp-0x206dce1b],bp
  41ebdc:	daa    
  41ebdd:	dec    ecx
  41ebde:	jmp    0x41ebf0
  41ebe0:	mov    BYTE PTR [eax+0x451d6265],cl
  41ebe6:	lods   eax,DWORD PTR ds:[esi]
  41ebe7:	sub    ecx,edx
  41ebe9:	nop
  41ebea:	mov    dh,0x2
  41ebec:	push   ebp
  41ebed:	lods   al,BYTE PTR ds:[esi]
  41ebee:	in     eax,0xf5
  41ebf0:	je     0x41ec2c
  41ebf2:	rcr    DWORD PTR ds:0x1c4c8cfa,0x20
  41ebf9:	or     DWORD PTR [ecx+eiz*4+0x3c],esp
  41ebfd:	or     BYTE PTR [eax-0x1d],0xf3
  41ec01:	das    
  41ec02:	push   es
  41ec03:	sbb    eax,0x2d64940b
  41ec08:	and    BYTE PTR [ebx-0x53],al
  41ec0b:	sub    ebp,eax
  41ec0d:	mov    DWORD PTR [ebp+0x1],esp
  41ec10:	aas    
  41ec11:	ret    0x6be1
  41ec14:	punpckldq mm5,mm6
  41ec17:	icebp  
  41ec18:	or     BYTE PTR [eax-0x36],ah
  41ec1b:	xchg   BYTE PTR [esi],bl
  41ec1d:	popf   
  41ec1e:	add    BYTE PTR [edi-0x68cb1e81],bh
  41ec24:	fisubr WORD PTR [ecx-0x139e4973]
  41ec2a:	pop    esi
  41ec2b:	mov    edx,0x55779047
  41ec30:	xchg   DWORD PTR [eax+0x25007581],edi
  41ec36:	adc    eax,0xb537dd78
  41ec3b:	pop    ds
  41ec3c:	pop    ebx
  41ec3d:	stos   BYTE PTR es:[edi],al
  41ec3e:	inc    ebp
  41ec3f:	scas   al,BYTE PTR es:[edi]
  41ec40:	fidivr WORD PTR [ecx-0x5d2874b7]
  41ec46:	cwde   
  41ec47:	xchg   edx,eax
  41ec48:	sbb    BYTE PTR [ebp-0x18],bl
  41ec4b:	xor    bl,dh
  41ec4d:	pushf  
  41ec4e:	pop    esi
  41ec4f:	iret   
  41ec50:	aad    0x29
  41ec52:	in     al,dx
  41ec53:	mov    ch,BYTE PTR [ebp+0x6e4e7daa]
  41ec59:	jne    0x41ec6c
  41ec5b:	cmc    
  41ec5c:	inc    ebp
  41ec5d:	ins    DWORD PTR es:[edi],dx
  41ec5e:	ret    0x1d8f
  41ec61:	popf   
  41ec62:	sahf   
  41ec63:	mov    bl,0x9c
  41ec65:	mov    al,ds:0xfaf63416
  41ec6a:	rcr    BYTE PTR [edi],1
  41ec6c:	inc    edi
  41ec6d:	lods   al,BYTE PTR ds:[esi]
  41ec6e:	jns    0x41ec24
  41ec70:	(bad)  
  41ec71:	dec    ebp
  41ec72:	add    bh,BYTE PTR [esi]
  41ec74:	jge    0x41ec0e
  41ec76:	(bad)  
  41ec77:	stc    
  41ec78:	sub    eax,0x75bd2218
  41ec7d:	mul    esi
  41ec7f:	or     bh,BYTE PTR [esi]
  41ec81:	bound  edi,QWORD PTR [eax]
  41ec83:	cdq    
  41ec84:	or     al,0xab
  41ec86:	lds    ebx,FWORD PTR [ecx+0x59119223]
  41ec8c:	dec    esi
  41ec8d:	inc    ebx
  41ec8e:	mov    eax,0x623d314d
  41ec93:	in     eax,0x5c
  41ec95:	popf   
  41ec96:	dec    edx
  41ec97:	mov    esi,0xed91c662
  41ec9c:	loope  0x41ec98
  41ec9e:	fs or  eax,0xda805703
  41eca4:	mov    esi,0x82856423
  41eca9:	pusha  
  41ecaa:	and    BYTE PTR [eax+0xb],0xcc
  41ecae:	jno    0x41eca4
  41ecb0:	mov    edx,0x57db7f2b
  41ecb5:	movs   BYTE PTR es:[edi],BYTE PTR ds:[esi]
  41ecb6:	repnz scas al,BYTE PTR es:[edi]
  41ecb8:	movs   DWORD PTR es:[edi],DWORD PTR ds:[esi]
  41ecb9:	mov    dl,0x47
  41ecbb:	push   ebp
  41ecbc:	lahf   
  41ecbd:	shr    BYTE PTR [esi+0xa],0x4a
  41ecc1:	stos   BYTE PTR es:[edi],al
  41ecc2:	jge    0x41ecef
  41ecc4:	dec    eax
  41ecc5:	xlat   BYTE PTR ds:[ebx]
  41ecc6:	loopne 0x41eccb
  41ecc8:	jp     0x41ecd6
  41ecca:	push   ecx
  41eccb:	stos   DWORD PTR es:[edi],eax
  41eccc:	imul   esp,DWORD PTR [esi+0x50],0x75
  41ecd0:	sbb    al,0x8b
  41ecd2:	sti    
  41ecd3:	or     esi,DWORD PTR ds:0xeb12e1aa
  41ecd9:	dec    esi
  41ecda:	cmp    DWORD PTR cs:[edi+0x1195a374],ebp
  41ece1:	mov    ah,BYTE PTR [ebp-0xf]
  41ece4:	rcr    ecx,cl
  41ece6:	xchg   edx,eax
  41ece7:	lea    edx,[ebx+0x60dc413]
  41eced:	popa   
  41ecee:	jno    0x41ed57
  41ecf0:	push   ds
  41ecf1:	mov    ecx,0xfe54fe84
  41ecf6:	sti    
  41ecf7:	das    
  41ecf8:	test   DWORD PTR [ecx+eax*2+0x27b2aa10],ebp
  41ecff:	dec    esi
  41ed00:	dec    ebp
  41ed01:	cli    
  41ed02:	xlat   BYTE PTR ds:[ebx]
  41ed03:	sahf   
  41ed04:	sbb    eax,0xf4fb76b1
  41ed09:	or     al,0xac
  41ed0b:	adc    eax,0xb1e1ac4b
  41ed10:	mov    al,0xee
  41ed13:	paddd  mm4,QWORD PTR [ecx+esi*8+0x50]
  41ed18:	aas    
  41ed19:	xchg   BYTE PTR ds:0x2d2533a9,bl
  41ed1f:	fnstenv [ecx+eax*8+0x19ee0631]
  41ed26:	inc    ecx
  41ed27:	ss fwait
  41ed29:	movs   DWORD PTR es:[edi],DWORD PTR ds:[esi]
  41ed2a:	out    0xf,al
  41ed2c:	in     al,0xb1
  41ed2e:	stos   DWORD PTR es:[edi],eax
  41ed2f:	(bad)  
  41ed30:	or     edx,DWORD PTR [ecx+0x70e686eb]
  41ed36:	add    eax,0x636ae7da
  41ed3b:	jg     0x41ecd4
  41ed3d:	aaa    
  41ed3e:	sub    edx,DWORD PTR [eax]
  41ed40:	push   edi
  41ed41:	or     bh,BYTE PTR [esi+edx*2-0x302fbae4]
  41ed48:	sub    edi,DWORD PTR [esi-0x72]
  41ed4b:	pop    ss
  41ed4c:	adc    DWORD PTR [ebp-0x71feedb3],ebp
  41ed52:	mov    bl,0x6c
  41ed54:	inc    esp
  41ed55:	popa   
  41ed56:	inc    ecx
  41ed57:	pop    ecx
  41ed58:	add    al,0xf0
  41ed5a:	(bad)
  41ed5f:	mov    dl,0x2b
  41ed61:	lods   eax,DWORD PTR ds:[esi]
  41ed62:	or     eax,0x86273211
  41ed67:	gs sbb eax,0xa338ac2d
  41ed6d:	cdq    
  41ed6e:	pusha  
  41ed6f:	ror    BYTE PTR [ecx],0xab
  41ed72:	popa   
  41ed73:	out    0xf3,eax
  41ed75:	jo     0x41eda8
  41ed77:	jge    0x41edcf
  41ed79:	cs mov bh,0x62
  41ed7c:	inc    eax
  41ed7d:	es fnstcw WORD PTR gs:0x7f0f18fe
  41ed85:	fcmovnu st,st(7)
  41ed87:	or     eax,0xa9f9f063
  41ed8c:	std    
  41ed8d:	ja     0x41ed13
  41ed8f:	lock xor esi,DWORD PTR [ebx-0x606af1f3]
  41ed96:	or     al,0x47
  41ed98:	cmps   BYTE PTR ds:[esi],BYTE PTR es:[edi]
  41ed99:	stos   BYTE PTR es:[edi],al
  41ed9a:	leave  
  41ed9b:	inc    ebx
  41ed9c:	cmp    dh,cl
  41ed9e:	xor    DWORD PTR [ebx+0x3a84b59a],eax
  41eda4:	icebp  
  41eda5:	sub    al,0x9d
  41eda7:	ret    
  41eda8:	lahf   
  41eda9:	test   eax,0xed4f2ed5
  41edae:	mov    ecx,0x69834f3e
  41edb3:	xlat   BYTE PTR ds:[ebx]
  41edb4:	pop    ds
  41edb5:	stos   DWORD PTR es:[edi],eax
  41edb6:	jbe    0x41ee34
  41edb8:	add    ebp,DWORD PTR [ecx-0xa54957d]
  41edbe:	pop    ebp
  41edbf:	leave  
  41edc0:	mov    esp,0xb587efc3
  41edc5:	in     al,0xb1
  41edc7:	jmp    0x4d6b5f46
  41edcc:	cmp    al,0xd3
  41edce:	sbb    dh,BYTE PTR [ebx]
  41edd0:	shr    BYTE PTR [ecx+0x3183c4d3],0xef
  41edd7:	sahf   
  41edd8:	pop    eax
  41edd9:	aam    0x63
  41eddb:	mov    cl,0x96
  41eddd:	ins    DWORD PTR es:[edi],dx
  41edde:	nop
  41eddf:	std    
  41ede0:	aaa    
  41ede1:	mov    ch,0x46
  41ede3:	push   cs
  41ede4:	stos   BYTE PTR es:[edi],al
  41ede5:	and    DWORD PTR [eax-0x550cc6a6],edx
  41edeb:	push   ebx
  41edec:	and    al,0x41
  41edee:	bound  edx,QWORD PTR [ecx]
  41edf0:	mov    bh,0x4b
  41edf2:	arpl   sp,cx
  41edf4:	push   ebx
  41edf5:	or     al,0xb9
  41edf7:	push   cs
  41edf8:	enter  0x4c75,0x33
  41edfc:	or     dl,BYTE PTR [ebp-0x74]
  41edff:	das    
  41ee00:	jae    0x41ee7f
  41ee02:	lds    ebp,FWORD PTR [ecx-0x14]
  41ee05:	mov    eax,ds:0xbb6f5363
  41ee0a:	in     al,0x23
  41ee0c:	clc    
  41ee0d:	xor    eax,0x197ea162
  41ee12:	jp     0x41ee76
  41ee14:	neg    BYTE PTR [eax]
  41ee16:	arpl   WORD PTR [ebp+0x4b],dx
  41ee19:	add    eax,0x382f6cf7
  41ee1e:	and    DWORD PTR [edi],ecx
  41ee20:	adc    dh,BYTE PTR [ebx+0x245e5b33]
  41ee26:	sub    dl,dh
  41ee28:	clc    
  41ee29:	lock and cl,bh
  41ee2c:	call   DWORD PTR [esi-0x14520d1d]
  41ee32:	cs imul bl
  41ee35:	jmp    0x2165:0xfce08
  41ee3c:	loopne 0x41ee0f
  41ee3e:	jecxz  0x41edc8
  41ee40:	ins    BYTE PTR es:[edi],dx
  41ee41:	test   eax,0x4fd240a9
  41ee46:	sub    bl,BYTE PTR cs:[ecx-0x48c25393]
  41ee4d:	xor    eax,0xfa6404e9
  41ee52:	push   esi
  41ee53:	inc    edx
  41ee54:	lods   eax,DWORD PTR ds:[esi]
  41ee55:	ja     0x41ee29
  41ee57:	adc    bl,al
  41ee59:	pop    eax
  41ee5a:	dec    eax
  41ee5b:	pushf  
  41ee5c:	test   DWORD PTR [ebx+0x4d],edi
  41ee5f:	adc    BYTE PTR [ecx],al
  41ee61:	adc    eax,0xe424d641
  41ee66:	bound  esi,QWORD PTR ds:0x10da5f75
  41ee6c:	jnp    0x41ee39
  41ee6e:	mov    cl,BYTE PTR ds:0x501c9a5
  41ee74:	adc    bl,BYTE PTR ds:0xfba14d3c
  41ee7a:	mov    es,WORD PTR [ebx+0x48]
  41ee7d:	pop    esp
  41ee7e:	enter  0xabd0,0xc3
  41ee82:	das    
  41ee83:	add    esp,DWORD PTR [ebx-0x47]
  41ee86:	iret   
  41ee87:	pop    ebp
  41ee88:	xlat   BYTE PTR ds:[ebx]
  41ee89:	mov    eax,ds:0xe91c0d67
  41ee8e:	inc    edx
  41ee8f:	push   0x5ead581e
  41ee94:	mov    ds:0x12d8e590,eax
  41ee99:	jb     0x41ee2d
  41ee9b:	in     eax,0x95
  41ee9d:	das    
  41ee9e:	(bad)  
  41ee9f:	int    0xe0
  41eea1:	xor    dl,bh
  41eea3:	lods   eax,DWORD PTR ds:[esi]
  41eea4:	inc    esi
  41eea5:	mov    BYTE PTR [ebx+ebp*4],dl
  41eea8:	retf   
  41eea9:	push   edx
  41eeaa:	into   
  41eeab:	psubw  mm5,QWORD PTR [edx-0x3061b127]
  41eeb2:	in     al,dx
  41eeb3:	sbb    eax,0xb878b306
  41eeb8:	mov    ebx,DWORD PTR [ebx]
  41eeba:	or     DWORD PTR fs:[edx],edx
  41eebd:	stos   DWORD PTR es:[edi],eax
  41eebe:	xchg   edi,eax
  41eebf:	lds    esi,FWORD PTR [edi-0x72fd56e4]
  41eec5:	imul   edi,DWORD PTR ds:0xc399836e,0x64585bdd
  41eecf:	test   DWORD PTR [edx-0x382812d8],edi
  41eed5:	jnp    0x41ee91
  41eed7:	push   cs
  41eed8:	dec    eax
  41eed9:	clc    
  41eeda:	js     0x41ef15
  41eedc:	iret   
  41eedd:	inc    esp
  41eede:	jecxz  0x41ee88
  41eee0:	aas    
  41eee1:	stos   BYTE PTR es:[edi],al
  41eee2:	or     DWORD PTR [ebx+ebx*4],edx
  41eee5:	jecxz  0x41ef30
  41eee7:	(bad)  
  41eee9:	sbb    cl,BYTE PTR [ebp-0x36538f12]
  41eeef:	pop    ds
  41eef0:	fsubr  DWORD PTR [ebx-0x4c]
  41eef3:	scas   al,BYTE PTR es:[edi]
  41eef4:	sbb    bl,BYTE PTR [ebp-0x6f87ae7c]
  41eefa:	aaa    
  41eefb:	(bad)  
  41eefc:	popf   
  41eefd:	lahf   
  41eefe:	pushf  
  41eeff:	cmp    DWORD PTR [edi-0x71],ebx
  41ef02:	jmp    0x2375d714
  41ef07:	cmp    eax,0x90e6a91f
  41ef0c:	in     al,dx
  41ef0d:	or     eax,0xa712b0a7
  41ef12:	popf   
  41ef13:	xlat   BYTE PTR ds:[ebx]
  41ef14:	mov    cs,WORD PTR [ecx-0x4]
  41ef17:	fwait
  41ef18:	(bad)  
  41ef19:	dec    ecx
  41ef1a:	mov    edx,0x8a491f1c
  41ef1f:	sub    eax,0x7957e156
  41ef24:	or     ebp,DWORD PTR [edx-0x5db3c793]
  41ef2a:	push   edi
  41ef2b:	add    BYTE PTR [edi+0x42],0x6d
  41ef2f:	sub    ch,BYTE PTR [edx-0x29]
  41ef32:	fs shl ebp,1
  41ef35:	mov    bl,0x6f
  41ef37:	jp     0x41eed4
  41ef39:	retf   0xd7f7
  41ef3c:	pop    ds
  41ef3d:	or     ah,BYTE PTR [ebx+edi*8+0x1fef3103]
  41ef44:	jg     0x41ef33
  41ef46:	bound  edi,QWORD PTR ds:0x79dda4ef
  41ef4c:	(bad)  
  41ef4d:	jl     0x41eee6
  41ef4f:	push   cs
  41ef50:	or     edx,DWORD PTR [ebp+0x18]
  41ef53:	stos   DWORD PTR es:[edi],eax
  41ef54:	push   ds
  41ef55:	imul   esi,DWORD PTR [edi-0x7b],0x794c4e8c
  41ef5c:	enter  0x6dac,0x27
  41ef60:	fnstsw WORD PTR [eax]
  41ef62:	ins    DWORD PTR es:[edi],dx
  41ef63:	jb     0x41efcf
  41ef65:	(bad)  
  41ef66:	call   0x5e19:0x4909bc5b
  41ef6d:	popa   
  41ef6e:	test   eax,0x51ac0fd6
  41ef73:	mov    cl,0x71
  41ef75:	push   ecx
  41ef76:	mov    al,ds:0x699c1f3e
  41ef7b:	jg     0x41ef43
  41ef7d:	jbe    0x41efde
  41ef7f:	and    eax,0x9704add3
  41ef84:	and    ah,BYTE PTR [ebp-0x29ae9e5b]
  41ef8a:	mov    ah,0x65
  41ef8c:	loopne 0x41efb3
  41ef8e:	pushf  
  41ef8f:	add    eax,0xdef67314
  41ef94:	lea    ebp,[eax+0x62]
  41ef97:	mov    cl,0x15
  41ef99:	mov    al,ds:0xf3ab2190
  41ef9e:	inc    ecx
  41ef9f:	adc    edx,edx
  41efa1:	clc    
  41efa2:	mov    BYTE PTR [esi-0x69],dh
  41efa5:	rol    DWORD PTR [ecx+0x6a98a602],0x67
  41efac:	out    0x8d,eax
  41efae:	pop    edi
  41efaf:	add    BYTE PTR [edx+0x1],0xf2
  41efb3:	adc    dl,ch
  41efb5:	test   eax,0x1ada74a9
  41efba:	hlt    
  41efbb:	adc    eax,0xd14505c0
  41efc0:	xchg   edi,eax
  41efc1:	test   eax,0xf50f1475
  41efc6:	repnz fild QWORD PTR [esi]
  41efc9:	lods   al,BYTE PTR ds:[esi]
  41efca:	pop    ebp
  41efcb:	ret    0x791a
  41efce:	jbe    0x41efdc
  41efd0:	outs   dx,BYTE PTR ds:[esi]
  41efd1:	mov    ah,0x70
  41efd3:	dec    edi
  41efd4:	test   al,0xdc
  41efd6:	pop    ebp
  41efd7:	leave  
  41efd8:	inc    ebx
  41efd9:	retfw  0x5e75
  41efdd:	leave  
  41efde:	mov    al,ds:0x88467fcd
  41efe3:	icebp  
  41efe4:	pop    edx
  41efe5:	(bad)  
  41efe7:	and    BYTE PTR [esi-0x3a],bl
  41efea:	fisttp DWORD PTR [ecx]
  41efec:	and    al,BYTE PTR [ebx]
  41efee:	xor    edx,DWORD PTR [eax+0x48]
  41eff1:	mov    ch,dl
  41eff3:	pop    esp
  41eff4:	jg     0x41efe2
  41eff6:	popa   
  41eff7:	clc    
  41eff8:	mov    edx,0x91c60d8e
  41effd:	mov    esi,0xce7f095c
  41f002:	ins    DWORD PTR es:[edi],dx
  41f003:	nop    DWORD PTR [ebp-0x4c6128e2]
  41f00a:	adc    edi,DWORD PTR ds:0xf205aa59
  41f010:	fwait
  41f011:	adc    bh,bl
  41f013:	inc    ebx
  41f014:	ficomp DWORD PTR [ebx+0x34]
  41f017:	imul   ebp,DWORD PTR ds:0xa1d5894,0x600705ec
  41f021:	outs   dx,BYTE PTR ds:[esi]
  41f022:	popa   
  41f023:	jbe    0x41f003
  41f025:	jg     0x41effc
  41f027:	in     eax,dx
  41f028:	addr16 daa 
  41f02a:	gs ret 0xb513
  41f02e:	or     eax,0x7604a879
  41f033:	outs   dx,BYTE PTR ds:[esi]
  41f034:	lods   eax,DWORD PTR ds:[esi]
  41f035:	sub    al,0x58
  41f037:	imul   eax,ebp,0x1cd841ac
  41f03d:	retf   0xc915
  41f040:	or     al,0x5d
  41f042:	fisub  DWORD PTR [esp+edi*2-0x49029e2d]
  41f049:	shl    BYTE PTR ss:[edx+0x2f],1
  41f04d:	push   ecx
  41f04e:	(bad)  
  41f04f:	push   esi
  41f050:	daa    
  41f051:	dec    edx
  41f052:	mov    al,ds:0xb1f39110
  41f057:	jecxz  0x41f057
  41f059:	xchg   DWORD PTR [ebp-0x33],esp
  41f05c:	sub    DWORD PTR [ebx-0x3287b99],0x55
  41f063:	cmc    
  41f064:	push   eax
  41f065:	sub    dl,BYTE PTR [edx+edx*8]
  41f068:	aad    0xcf
  41f06a:	mov    esi,0xc1fd2c4c
  41f06f:	clc    
  41f070:	fsubr  QWORD PTR [edi-0x2ce1ce9f]
  41f076:	pop    esp
  41f077:	lock xchg ebx,eax
  41f079:	outs   dx,DWORD PTR ds:[esi]
  41f07b:	adc    BYTE PTR [ebp+0x1c06ae81],al
  41f081:	mov    DWORD PTR [ecx+esi*8],esp
  41f084:	sar    DWORD PTR [edi-0x7],cl
  41f087:	shl    DWORD PTR [ebp-0x1903ce17],0xa9
  41f08e:	leave  
  41f08f:	sbb    BYTE PTR [ecx],ah
  41f091:	sbb    DWORD PTR [edx+0x7e],edi
  41f094:	push   ecx
  41f095:	pop    edi
  41f096:	or     DWORD PTR [edi],ecx
  41f098:	mov    dl,0xf7
  41f09a:	cdq    
  41f09b:	adc    DWORD PTR [edi+0x6eb6e5aa],0x125fd42a
  41f0a5:	cmp    eax,0x3821bfab
  41f0aa:	sub    bl,BYTE PTR [ecx-0x6f684ef8]
  41f0b0:	sub    eax,0x5f1a1da5
  41f0b5:	pop    edx
  41f0b6:	outs   dx,BYTE PTR ds:[esi]
  41f0b7:	popf   
  41f0b8:	mov    al,ds:0x48e3ba2d
  41f0bd:	jp     0x41f0e3
  41f0bf:	aas    
  41f0c0:	ss push ebp
  41f0c2:	daa    
  41f0c3:	in     eax,0xb6
  41f0c5:	and    eax,DWORD PTR [ecx+edx*4-0x24]
  41f0c9:	lods   al,BYTE PTR ds:[esi]
  41f0ca:	xor    eax,0xe18e2a9b
  41f0cf:	pop    ds
  41f0d0:	fld    DWORD PTR [ebp-0x5c9bc3b2]
  41f0d6:	sub    dh,BYTE PTR [ebp+0x3d]
  41f0d9:	ret    0x8f1a
  41f0dc:	stc    
  41f0dd:	outs   dx,DWORD PTR ds:[esi]
  41f0de:	movs   DWORD PTR es:[edi],DWORD PTR ds:[esi]
  41f0df:	xchg   edx,eax
  41f0e0:	(bad)  
  41f0e1:	jo     0x41f14e
  41f0e3:	adc    eax,0x25
  41f0e6:	jmp    0x41f0f8
  41f0e8:	outs   dx,DWORD PTR ds:[esi]
  41f0e9:	dec    edi
  41f0ea:	fisub  DWORD PTR [ecx]
  41f0ec:	pop    ds
  41f0ed:	cmp    eax,0x9e2a277a
  41f0f2:	ins    DWORD PTR es:[edi],dx
  41f0f3:	add    ch,BYTE PTR [eax-0x761dd654]
  41f0f9:	push   es
  41f0fa:	sub    ch,BYTE PTR [ebp-0x67]
  41f0fd:	inc    esi
  41f0fe:	ss sbb eax,0x18
  41f102:	fs inc ebp
  41f104:	addr16 sbb al,0xd5
  41f107:	sub    edi,ebp
  41f109:	cmps   DWORD PTR ds:[esi],DWORD PTR es:[edi]
  41f10a:	mov    bh,0x9
  41f10c:	mov    dh,0xd8
  41f10e:	inc    ecx
  41f10f:	scas   eax,DWORD PTR es:[edi]
  41f110:	fwait
  41f111:	test   eax,0xed258f3f
  41f116:	popa   
  41f117:	ins    DWORD PTR es:[edi],dx
  41f118:	inc    BYTE PTR [ecx-0x1cb6ab]
  41f11e:	in     eax,0xf3
  41f120:	add    BYTE PTR [ebp+0xcc7c467],ch
  41f126:	mov    WORD PTR [eax-0x4d],cs
  41f129:	shr    BYTE PTR [ebx],0xfd
  41f12c:	repz jbe 0x41f162
  41f12f:	xchg   ecx,eax
  41f130:	sub    BYTE PTR [eax-0x742bded3],0xab
  41f137:	jne    0x41f1a9
  41f139:	xchg   edi,eax
  41f13a:	mov    ch,ah
  41f13c:	mov    WORD PTR [edx-0x53],ds
  41f13f:	(bad)  
  41f140:	mov    esp,0x863d64a2
  41f145:	into   
  41f146:	pop    esp
  41f147:	mov    cl,0xb7
  41f149:	aad    0xbe
  41f14b:	call   0x8cc3:0xec4539f
  41f152:	scas   al,BYTE PTR es:[edi]
  41f153:	mov    ebx,0xb961b091
  41f158:	mov    edi,0x67f4837d
  41f15d:	inc    esi
  41f15e:	xchg   BYTE PTR [ebx],al
  41f160:	mov    cl,0xcd
  41f162:	dec    eax
  41f163:	mov    esp,0x7ec4301b
  41f168:	push   ebx
  41f169:	xchg   esi,eax
  41f16a:	sub    ch,cl
  41f16c:	test   BYTE PTR [edx+edi*4-0x2f],dh
  41f170:	cpuid  
  41f172:	add    al,0xe
  41f174:	mov    al,ds:0x839d89aa
  41f179:	jle    0x41f1aa
  41f17b:	scas   eax,DWORD PTR es:[edi]
  41f17c:	ss pop edi
  41f17e:	sub    DWORD PTR [ecx+0x2d5fa537],eax
  41f184:	jae    0x41f144
  41f186:	test   al,0xbb
  41f188:	fistp  WORD PTR [esi]
  41f18a:	jns    0x41f199
  41f18c:	adc    cl,BYTE PTR [ebx]
  41f18e:	mov    bl,0x17
  41f190:	fucomip st,st(3)
  41f192:	fisubr DWORD PTR [edx]
  41f194:	push   ds
  41f195:	mov    ecx,0x29b439b8
  41f19a:	and    DWORD PTR [edx+eax*4],eax
  41f19d:	stos   DWORD PTR es:[edi],eax
  41f19e:	dec    ecx
  41f19f:	(bad)  
  41f1a1:	jnp    0x41f17e
  41f1a3:	pop    esp
  41f1a4:	in     eax,dx
  41f1a5:	arpl   WORD PTR [ecx+esi*2],bp
  41f1a8:	fsubr  DWORD PTR [edx+0x64]
  41f1ab:	jmp    0x583bf0d1
  41f1b0:	outs   dx,DWORD PTR ds:[esi]
  41f1b1:	retf   0x997d
  41f1b4:	movs   DWORD PTR es:[edi],DWORD PTR ds:[esi]
  41f1b5:	jmp    0x41f1e8
  41f1b7:	adc    ecx,esi
  41f1b9:	sti    
  41f1ba:	inc    eax
  41f1bb:	inc    edx
  41f1bc:	xchg   edx,eax
  41f1bd:	jg     0x41f221
  41f1bf:	add    eax,eax
  41f1c1:	aaa    
  41f1c2:	ins    DWORD PTR es:[edi],dx
  41f1c3:	dec    BYTE PTR [edi]
  41f1c5:	aaa    
  41f1c6:	js     0x41f1d8
  41f1c8:	cmp    eax,0x1e36df50
  41f1cd:	gs and ecx,edx
  41f1d0:	stos   DWORD PTR es:[edi],eax
  41f1d1:	mov    dh,0x3b
  41f1d3:	xor    al,BYTE PTR [eax+eiz*4]
  41f1d6:	or     eax,0x252e3c12
  41f1db:	cmps   DWORD PTR ds:[esi],DWORD PTR es:[edi]
  41f1dc:	sbb    al,0xe
  41f1de:	cmc    
  41f1df:	pop    eax
  41f1e0:	sbb    al,0x65
  41f1e2:	fdivr  DWORD PTR [ecx]
  41f1e4:	sub    ebx,DWORD PTR [eax-0x54a3e036]
  41f1ea:	inc    ecx
  41f1eb:	pop    esi
  41f1ec:	xor    DWORD PTR [ecx-0x14],0xffffffab
  41f1f0:	xor    BYTE PTR [eax-0x4409fdca],dh
  41f1f6:	arpl   WORD PTR [ebp+0x6cbfd26d],dx
  41f1fc:	or     edi,DWORD PTR [esi+0x4b]
  41f1ff:	add    al,BYTE PTR [ebx+0x6bc60cda]
  41f205:	adc    DWORD PTR [ebx],esp
  41f207:	jmp    0x41f1bb
  41f209:	mov    ebx,0xd6e74d63
  41f20e:	mov    al,BYTE PTR ds:0xfcbb13b
  41f214:	xor    DWORD PTR [esi+0x111cc887],eax
  41f21a:	jmp    0xfb8c:0x8a34f01e
  41f221:	stos   DWORD PTR es:[edi],eax
  41f222:	imul   edx,DWORD PTR [esi+ebp*1-0x22],0xece5b1c9
  41f22a:	aam    0x5
  41f22c:	adc    al,BYTE PTR [edx]
  41f22e:	arpl   WORD PTR [ebp-0x45],di
  41f231:	mov    ch,0x17
  41f233:	mov    edi,?
  41f235:	push   esi
  41f236:	inc    eax
  41f237:	adc    DWORD PTR [eax+0x2fba66bd],eax
  41f23d:	sbb    BYTE PTR [eax],ch
  41f23f:	repz sbb ecx,ebp
  41f242:	test   edi,edx
  41f244:	into   
  41f245:	pop    es
  41f246:	mov    WORD PTR [esi+0x41359009],cs
  41f24c:	add    eax,0xf9927d9f
  41f251:	ins    BYTE PTR es:[edi],dx
  41f252:	sahf   
  41f253:	nop    DWORD PTR [ebp-0x32]
  41f257:	push   edi
  41f258:	fsub   QWORD PTR [edi-0x5557eb60]
  41f25e:	cmp    eax,0x19caa2d2
  41f263:	cmp    DWORD PTR [edx+0x3df7189a],0x66e784e1
  41f26d:	and    BYTE PTR [ebx-0x67],ah
  41f270:	mov    ds:0x431fe58f,al
  41f275:	and    DWORD PTR [esp+ecx*1+0x61],edi
  41f279:	push   ebp
  41f27a:	push   0xa53cb46f
  41f27f:	nop
  41f280:	data16 jle 0x41f2d9
  41f283:	sub    esi,edi
  41f285:	stos   BYTE PTR es:[edi],al
  41f286:	add    dh,cl
  41f288:	sbb    esp,edx
  41f28a:	mov    eax,ds:0xf8be633f
  41f28f:	or     eax,0xbe34963e
  41f294:	push   ds
  41f295:	test   BYTE PTR gs:[edi],ah
  41f298:	sbb    eax,0x1019dcab
  41f29d:	lods   al,BYTE PTR ds:[esi]
  41f29e:	or     eax,0x1e277bf3
  41f2a3:	js     0x41f242
  41f2a5:	push   edx
  41f2a6:	ins    BYTE PTR es:[edi],dx
  41f2a7:	stc    
  41f2a8:	cmps   DWORD PTR ds:[esi],DWORD PTR es:[edi]
  41f2a9:	mov    al,ds:0xc34f3962
  41f2ae:	mov    eax,ds:0xa2655f57
  41f2b3:	push   cs
  41f2b4:	imul   esp,DWORD PTR [esi-0x6d426e0e],0xffffffb6
  41f2bb:	push   edx
  41f2bc:	adc    al,0x75
  41f2be:	xchg   esp,eax
  41f2bf:	lds    eax,FWORD PTR [eax+0x56]
  41f2c2:	mov    dh,BYTE PTR [ebp+0x16f50a4]
  41f2c8:	mov    eax,ds:0x763247a
  41f2cd:	inc    edx
  41f2ce:	hlt    
  41f2cf:	push   cs
  41f2d0:	loope  0x41f2e2
  41f2d2:	push   ss
  41f2d3:	jb     0x41f2a6
  41f2d5:	sbb    al,0x86
  41f2d7:	dec    ebx
  41f2d8:	sbb    al,0x91
  41f2da:	stc    
  41f2db:	nop
  41f2dc:	and    dh,BYTE PTR ds:0x2d1747af
  41f2e2:	cld    
  41f2e3:	push   cs
  41f2e4:	pop    eax
  41f2e5:	push   0x291e6f4d
  41f2ea:	rcl    BYTE PTR [bx+si-0x217b],1
  41f2ef:	pop    edi
  41f2f0:	ds test eax,0x5af4fda1
  41f2f6:	lea    edx,[ebp+ebx*1+0x6]
  41f2fa:	(bad)  [ecx+0x7f]
  41f2fd:	fbld   TBYTE PTR [ebx+0x4d]
  41f300:	into   
  41f301:	xor    dl,BYTE PTR [ebx-0x23]
  41f304:	xlat   BYTE PTR ds:[ebx]
  41f305:	aaa    
  41f306:	inc    eax
  41f307:	aam    0x9f
  41f309:	pop    esp
  41f30a:	add    BYTE PTR [eax+0x7513b860],dl
  41f310:	nop
  41f311:	popa   
  41f312:	arpl   WORD PTR [ecx-0x60],si
  41f315:	adc    BYTE PTR [eax],dl
  41f317:	arpl   WORD PTR ds:0x77e40efe,sp
  41f31e:	push   eax
  41f31f:	mov    dh,0x1c
  41f321:	lods   eax,DWORD PTR ds:[esi]
  41f322:	int3   
  41f323:	pop    ss
  41f324:	inc    ebx
  41f325:	dec    ebx
  41f326:	add    al,0x72
  41f328:	pop    ebp
  41f329:	int3   
  41f32a:	ret    0xc35b
  41f32d:	and    DWORD PTR [ebp-0x4fdc632c],eax
  41f333:	lea    edi,[edx]
  41f335:	or     al,0xf2
  41f337:	out    0x82,al
  41f339:	mov    dh,0x58
  41f33b:	loope  0x41f347
  41f33d:	dec    ebp
  41f33e:	pop    ebx
  41f33f:	popf   
  41f340:	mov    es,esi
  41f342:	pusha  
  41f343:	jne    0x41f2cb
  41f345:	(bad)  
  41f346:	retf   
  41f347:	mov    eax,ds:0xfb25ce7
  41f34c:	ja     0x41f367
  41f34e:	icebp  
  41f34f:	xchg   esi,eax
  41f350:	mov    al,ds:0xf9d564a1
  41f355:	addr16 or al,cl
  41f358:	stos   DWORD PTR es:[edi],eax
  41f359:	or     BYTE PTR [eax+0xf],dh
  41f35c:	mov    WORD PTR [ebx+0x73],cx
  41f360:	mov    esp,0x2fb44ee7
  41f365:	inc    ebx
  41f366:	mov    ecx,0xb9ff000f
  41f36b:	(bad)  
  41f36d:	add    BYTE PTR [eax+0x4434350d],ch
  41f373:	lods   al,BYTE PTR ds:[esi]
  41f374:	sbb    eax,0x2b7602dd
  41f379:	cmps   DWORD PTR ds:[esi],DWORD PTR es:[edi]
  41f37a:	movq   mm7,mm2
  41f37d:	lea    ebp,[ebp-0x546fd185]
  41f383:	xchg   edx,eax
  41f384:	pop    ds
  41f385:	jnp    0x41f325
  41f387:	dec    ebx
  41f388:	hlt    
  41f389:	jmp    0x58043af
  41f38e:	fnsave fs:[esi-0x48e5de1f]
  41f395:	pop    esi
  41f396:	aam    0xf
  41f398:	in     al,0xea
  41f39a:	inc    edi
  41f39b:	jo     0x41f3bb
  41f39d:	cmp    DWORD PTR [eax-0x1221b2c],ebp
  41f3a3:	scas   al,BYTE PTR es:[edi]
  41f3a4:	xchg   edx,eax
  41f3a5:	das    
  41f3a6:	leave  
  41f3a7:	xchg   edi,eax
  41f3a8:	dec    ecx
  41f3a9:	test   eax,0xc47c8d74
  41f3ae:	push   esp
  41f3af:	push   ss
  41f3b0:	sbb    al,0x75
  41f3b2:	out    0xdf,eax
  41f3b4:	push   ebp
  41f3b5:	jge    0x41f428
  41f3b7:	xor    al,0xc0
  41f3b9:	test   al,0xb5
  41f3bb:	out    dx,al
  41f3bc:	jbe    0x41f360
  41f3be:	(bad)  ss:[edx]
  41f3c1:	cli    
  41f3c2:	lds    esi,FWORD PTR [ebp-0x4cc33320]
  41f3c8:	cdq    
  41f3c9:	stos   DWORD PTR es:[edi],eax
  41f3ca:	cdq    
  41f3cb:	mov    ah,0x36
  41f3cd:	out    dx,eax
  41f3ce:	cli    
  41f3cf:	clc    
  41f3d0:	mov    bl,0xb6
  41f3d2:	cwde   
  41f3d3:	push   cs
  41f3d4:	pop    ecx
  41f3d5:	icebp  
  41f3d6:	(bad)  
  41f3d7:	outs   dx,DWORD PTR ds:[esi]
  41f3d8:	or     ah,BYTE PTR [ecx+0x628832cd]
  41f3de:	call   0x61c6:0x486e1fd5
  41f3e5:	lods   al,BYTE PTR ds:[esi]
  41f3e6:	mov    ch,0x47
  41f3e8:	mov    eax,0xba017f21
  41f3ed:	in     al,0x2c
  41f3ef:	pop    ecx
  41f3f0:	push   esi
  41f3f1:	call   DWORD PTR [ebp-0x2f]
  41f3f4:	shl    BYTE PTR [ebp-0x4a42ceed],1
  41f3fa:	int    0x54
  41f3fc:	lahf   
  41f3fd:	ds in  eax,dx
  41f3ff:	push   cs
  41f400:	mov    ah,0xdb
  41f402:	hlt    
  41f403:	inc    esi
  41f404:	jge    0x41f3e2
  41f406:	rcl    DWORD PTR ds:0x4778611c,cl
  41f40c:	xor    eax,0x3ae4b0b3
  41f411:	stos   DWORD PTR es:[edi],eax
  41f412:	mov    ecx,0xa569715
  41f417:	mov    ds:0x3266ef32,al
  41f41c:	sbb    ch,ch
  41f41e:	imul   esi,ebp,0x72144da1
  41f424:	sbb    al,0xe3
  41f426:	(bad)  
  41f427:	adc    eax,DWORD PTR [edi+0x3e6549f4]
  41f42d:	cmps   BYTE PTR ds:[esi],BYTE PTR es:[edi]
  41f42e:	mov    esi,0xad5a4ce5
  41f433:	mov    BYTE PTR [ebp+0x1b396517],cl
  41f439:	stos   DWORD PTR es:[edi],eax
  41f43a:	sbb    DWORD PTR [ecx+0x5092a4e7],eax
  41f440:	out    dx,eax
  41f441:	jge    0x41f42b
  41f443:	test   eax,0x1563f56e
  41f448:	push   es
  41f449:	xor    ch,BYTE PTR [esi]
  41f44b:	xor    dl,BYTE PTR [ebx-0x4adeb180]
  41f451:	jns    0x41f4b8
  41f453:	sub    eax,0xe7296049
  41f458:	adc    DWORD PTR [edx+0x64],edx
  41f45b:	fst    QWORD PTR [ecx+ebp*8]
  41f45e:	repnz mov dh,0x40
  41f461:	stos   BYTE PTR es:[edi],al
  41f462:	jmp    0x621c0ac6
  41f467:	test   al,0x6c
  41f469:	fbstp  TBYTE PTR [ebp+0x62ed3a5a]
  41f46f:	in     eax,0x4
  41f471:	retf   
  41f472:	push   es
  41f473:	cmp    eax,0x40b59de4
  41f478:	cld    
  41f479:	add    eax,0x2e3e0d6a
  41f47e:	aas    
  41f47f:	cmp    ebx,DWORD PTR [esi]
  41f481:	lea    edi,[ecx+0x6039f276]
  41f487:	dec    ebp
  41f488:	cmp    ch,BYTE PTR [edx+0x681a9b5]
  41f48e:	pop    sp
  41f490:	stc    
  41f491:	push   ss
  41f492:	stc    
  41f493:	gs fucom st(0)
  41f496:	arpl   WORD PTR [ecx],bx
  41f498:	sub    al,BYTE PTR [ecx]
  41f49a:	icebp  
  41f49b:	mov    ch,0xcb
  41f49d:	test   BYTE PTR [ecx],0xf
  41f4a0:	dec    esi
  41f4a1:	cmp    cl,ch
  41f4a3:	cmp    ebx,DWORD PTR [edi]
  41f4a5:	jns    0x41f515
  41f4a7:	mov    edi,ss
  41f4a9:	test   DWORD PTR [eax+edx*8-0x75],esp
  41f4ad:	mov    ch,0x20
  41f4af:	ret    0xc31f
  41f4b2:	fld    TBYTE PTR [ebx]
  41f4b4:	arpl   WORD PTR [eax+0x4d1e3acb],ax
  41f4ba:	stc    
  41f4bb:	fldenv [ebp-0x22dceff1]
  41f4c1:	stos   DWORD PTR es:[edi],eax
  41f4c2:	add    eax,0x3d89d7d8
  41f4c7:	pop    es
  41f4c8:	loope  0x41f4a9
  41f4ca:	mov    ecx,0x62deaea4
  41f4cf:	xchg   ecx,eax
  41f4d0:	gs ss pusha 
  41f4d3:	and    DWORD PTR [edi-0x9],0xeb110d40
  41f4da:	and    edx,ebx
  41f4dc:	sbb    al,0xb2
  41f4de:	ficomp WORD PTR [esi-0x5b]
  41f4e1:	pop    ebp
  41f4e2:	mov    DWORD PTR gs:[edi-0x35],esi
  41f4e6:	push   ebx
  41f4e7:	aas    
  41f4e8:	pop    ss
  41f4e9:	mov    esi,0x291133
  41f4ee:	leave  
  41f4ef:	in     al,dx
  41f4f0:	sbb    eax,0x5fb3f415
  41f4f5:	pushf  
  41f4f6:	(bad)  
  41f4f8:	enter  0xfeea,0x1f
  41f4fc:	pop    ebx
  41f4fd:	push   ds
  41f4fe:	inc    esp
  41f4ff:	psubusw mm5,QWORD PTR [ecx*4-0x43eae298]
  41f507:	ret    
  41f508:	mov    bh,0xd6
  41f50a:	ret    0xa761
  41f50d:	lods   al,BYTE PTR ds:[esi]
  41f50e:	stc    
  41f50f:	add    DWORD PTR [edx-0x2d],ebx
  41f512:	mov    WORD PTR [esi-0x54055441],ss
  41f518:	adc    ax,0xccea
  41f51c:	cmc    
  41f51d:	int3   
  41f51e:	popa   
  41f51f:	scas   eax,DWORD PTR es:[edi]
  41f520:	push   edi
  41f521:	stos   BYTE PTR es:[edi],al
  41f522:	mov    ch,0xc0
  41f524:	(bad)  
  41f525:	fadd   DWORD PTR [esi]
  41f527:	ja     0x41f581
  41f529:	cmps   BYTE PTR ds:[esi],BYTE PTR es:[edi]
  41f52a:	into   
  41f52b:	iret   
  41f52c:	mov    ds,WORD PTR [ecx+0x384d9d4c]
  41f532:	xchg   ebp,eax
  41f533:	jge    0x41f561
  41f535:	stos   BYTE PTR es:[edi],al
  41f536:	cmp    cl,BYTE PTR [eax-0x6c3d5b96]
  41f53c:	push   ds
  41f53d:	add    DWORD PTR [ebx+0x6bfb2e9f],ebp
  41f543:	aam    0x98
  41f545:	lods   al,BYTE PTR ds:[esi]
  41f546:	aad    0x1
  41f548:	or     DWORD PTR [ebx-0x7d],0x51573c0e
  41f54f:	call   0xad93a485
  41f554:	sbb    al,0x93
  41f556:	sub    al,BYTE PTR [eax+0x3d]
  41f559:	lods   al,BYTE PTR ds:[esi]
  41f55a:	pop    ecx
  41f55b:	or     eax,0xa340fcaf
  41f560:	jle    0x41f552
  41f562:	scas   al,BYTE PTR es:[edi]
  41f563:	sub    BYTE PTR [esi],ch
  41f565:	and    BYTE PTR [ebp+esi*4+0x5e],ah
  41f569:	pop    ebp
  41f56a:	ret    0xbf46
  41f56d:	inc    esi
  41f56e:	jne    0x41f57f
  41f570:	jb     0x41f5ae
  41f572:	inc    DWORD PTR [ecx]
  41f574:	sbb    eax,0xb1d17731
  41f579:	out    dx,eax
  41f57a:	sar    BYTE PTR [ebx+0x68],cl
  41f57d:	cwde   
  41f57e:	leave  
  41f57f:	sahf   
  41f580:	sbb    eax,DWORD PTR [eax-0x481e7b4d]
  41f586:	mov    ds:0x95751d0e,al
  41f58b:	mov    cl,0x39
  41f58d:	add    ah,BYTE PTR [edx+0x1c795aed]
  41f593:	mov    BYTE PTR [ecx],bh
  41f595:	dec    eax
  41f596:	jbe    0x41f5ec
  41f598:	ret    0x2859
  41f59b:	addr16 jns 0x41f55e
  41f59e:	loope  0x41f57a
  41f5a0:	add    bh,BYTE PTR [ecx+0x4c]
  41f5a3:	sbb    al,0x18
  41f5a5:	mov    edx,0x89bd5925
  41f5aa:	push   edi
  41f5ab:	imul   ecx,ebp,0x9b2bf9aa
  41f5b1:	sbb    edx,DWORD PTR [ebp-0x77]
  41f5b4:	mov    ecx,0xa03003a2
  41f5b9:	lea    esp,[ebp-0x37]
  41f5bc:	sbb    esp,ebp
  41f5be:	imul   esi,DWORD PTR ds:0xbfa087f,0xffffffe8
  41f5c5:	mov    dl,0xb
  41f5c7:	pop    eax
  41f5c8:	lahf   
  41f5c9:	in     eax,0xf8
  41f5cb:	nop
  41f5cc:	lods   eax,DWORD PTR ds:[esi]
  41f5cd:	dec    ebx
  41f5ce:	fs inc ecx
  41f5d0:	and    edx,DWORD PTR [eax+0x7f]
  41f5d3:	stos   DWORD PTR es:[edi],eax
  41f5d4:	pop    ds
  41f5d5:	call   0xd8930587
  41f5da:	xchg   ebx,eax
  41f5db:	adc    bh,ah
  41f5dd:	or     al,0xa9
  41f5df:	mov    dh,0x38
  41f5e1:	lahf   
  41f5e2:	movs   DWORD PTR es:[edi],DWORD PTR ds:[esi]
  41f5e3:	movs   BYTE PTR es:[edi],BYTE PTR ds:[esi]
  41f5e5:	push   0xffffffbe
  41f5e7:	xor    DWORD PTR [esp+ebp*4-0x498f9e1b],edi
  41f5ee:	data16 mov bh,0x40
  41f5f1:	mov    ds:0xd46c4c4f,al
  41f5f6:	repnz mov al,0x66
  41f5f9:	and    esp,DWORD PTR [edx-0x4a]
  41f5fc:	call   0x27aee3a1
  41f601:	je     0x41f64b
  41f603:	cmp    bh,BYTE PTR [edi]
  41f605:	add    eax,0xfb3f55bd
  41f60a:	icebp  
  41f60b:	push   es
  41f60c:	xchg   edx,eax
  41f60d:	pop    eax
  41f60e:	arpl   WORD PTR [ecx],bp
  41f610:	(bad)  [ecx+0xe0b4430]
  41f616:	xchg   esi,eax
  41f617:	adc    BYTE PTR [ebp-0x46],ah
  41f61a:	jp     0x41f5f4
  41f61c:	xchg   BYTE PTR [esp+eiz*4+0x5d6d1fe3],bl
  41f623:	scas   al,BYTE PTR es:[edi]
  41f624:	sub    eax,0xef652bc1
  41f629:	popa   
  41f62a:	lock push cs
  41f62c:	mov    WORD PTR [edx-0x4ac3894f],es
  41f632:	test   al,0xd8
  41f634:	jmp    0x28cb4c60
  41f639:	sbb    esi,ebx
  41f63b:	mov    ebx,0xa6659ac5
  41f640:	lahf   
  41f641:	retf   
  41f642:	mov    bh,0xf
  41f644:	pusha  
  41f645:	fsubr  DWORD PTR [ebx-0x294ae1bf]
  41f64b:	repnz mov ds:0x969ea24b,al
  41f651:	enter  0x6f2b,0x33
  41f655:	in     eax,0x67
  41f657:	xchg   esi,eax
  41f658:	sbb    al,0x6f
  41f65a:	jmp    0xea7bdc6d
  41f65f:	sbb    DWORD PTR [esi-0x44],eax
  41f662:	popa   
  41f663:	fldl2e 
  41f665:	or     BYTE PTR [ecx],bh
  41f667:	repz sub DWORD PTR [edx+0x64100e22],0xffffffb5
  41f66f:	test   esp,0x2f5f61e4
  41f675:	stos   BYTE PTR es:[edi],al
  41f676:	sub    DWORD PTR [ecx-0x665ab76f],ebx
  41f67c:	xlat   BYTE PTR ds:[ebx]
  41f67d:	test   eax,0x61bee1f5
  41f682:	and    al,0xe4
  41f684:	push   0x1e
  41f686:	xor    esp,DWORD PTR [edx+0x1a]
  41f689:	imul   ecx,DWORD PTR [eax-0x4b],0x127d3c5d
  41f690:	cmp    esi,DWORD PTR [ecx+0x19]
  41f693:	test   eax,0x99949a5e
  41f698:	rcl    ebx,1
  41f69a:	pusha  
  41f69b:	mov    dh,0x4
  41f69d:	inc    edi
  41f69e:	pop    ebx
  41f69f:	pusha  
  41f6a0:	outs   dx,BYTE PTR ds:[esi]
  41f6a1:	xchg   esp,eax
  41f6a2:	bound  edx,QWORD PTR [ecx]
  41f6a4:	aam    0xa2
  41f6a6:	cs test eax,0xf4bd467b
  41f6ac:	lds    ebp,FWORD PTR [ecx-0x25]
  41f6af:	cmp    BYTE PTR [edi+esi*8],bh
  41f6b2:	in     eax,0x1
  41f6b4:	jle    0x41f70b
  41f6b6:	pop    eax
  41f6b7:	lea    eax,[ecx]
  41f6b9:	lods   al,BYTE PTR ds:[esi]
  41f6ba:	into   
  41f6bb:	sti    
  41f6bc:	cli    
  41f6bd:	or     DWORD PTR [ecx],edi
  41f6bf:	jno    0x41f6d3
  41f6c1:	stos   BYTE PTR es:[edi],al
  41f6c2:	jne    0x41f6d6
  41f6c4:	pop    edx
  41f6c5:	xchg   esi,eax
  41f6c6:	call   0xd3db8c8f
  41f6cb:	adc    DWORD PTR [eax-0x78],0x64
  41f6cf:	lds    edi,FWORD PTR [ecx]
  41f6d1:	popa   
  41f6d2:	pop    ecx
  41f6d3:	xchg   esp,eax
  41f6d4:	fstp   TBYTE PTR [eax+0x34b21071]
  41f6da:	(bad)  [edx]
  41f6dc:	sbb    eax,0x4f4a7e69
  41f6e1:	je     0x41f734
  41f6e3:	sbb    eax,0x241590e0
  41f6e8:	jno    0x41f6a4
  41f6ea:	mov    edi,0x97921c08
  41f6ef:	push   ss
  41f6f0:	and    DWORD PTR [ecx-0x7025182b],ebx
  41f6f6:	or     al,0xbd
  41f6f8:	repnz sbb eax,0x7d90c164
  41f6fe:	icebp  
  41f6ff:	or     al,0xb9
  41f701:	in     eax,0xba
  41f703:	int3   
  41f704:	or     BYTE PTR [eax+0x65],cl
  41f707:	imul   DWORD PTR [ebp+0x1e403b34]
  41f70d:	inc    ecx
  41f70e:	adc    BYTE PTR [edi-0x6e],bl
  41f711:	cmp    ebx,DWORD PTR [ebx-0x4f3d27ad]
  41f717:	push   0x44208ea1
  41f71c:	pusha  
  41f71d:	and    DWORD PTR [ecx+ebx*8],edx
  41f720:	pop    ds
  41f721:	sbb    DWORD PTR [edi+0x4af7a10a],esi
  41f727:	xchg   esi,eax
  41f728:	fisub  DWORD PTR [ebp+eiz*2+0x1]
  41f72c:	sar    BYTE PTR [ebx],cl
  41f72e:	je     0x41f706
  41f730:	retf   
  41f731:	(bad)  [esi]
  41f733:	jmp    0x41f753
  41f735:	inc    edi
  41f736:	out    0x40,eax
  41f738:	pop    ebx
  41f739:	add    al,0xee
  41f73b:	out    0x22,al
  41f73d:	mov    eax,ds:0x2e269164
  41f742:	cmps   DWORD PTR ds:[esi],DWORD PTR es:[edi]
  41f743:	das    
  41f744:	add    DWORD PTR [ebx+0x73c40e54],0x3b
  41f74b:	out    dx,al
  41f74c:	pop    ds
  41f74d:	adc    eax,0x8f05de83
  41f752:	sbb    eax,eax
  41f754:	jno    0x41f701
  41f756:	aad    0x31
  41f758:	jno    0x41f71a
  41f75a:	or     al,0xa
  41f75c:	ds dec esi
  41f75e:	mov    BYTE PTR [ebx],cl
  41f760:	enter  0x6592,0x71
  41f764:	in     al,dx
  41f765:	inc    ebx
  41f766:	(bad)  
  41f767:	shl    DWORD PTR [ebx+0x4111938],cl
  41f76d:	push   edx
  41f76e:	cdq    
  41f76f:	push   esi
  41f770:	sbb    al,0x39
  41f772:	enter  0x25b3,0x9
  41f776:	cmp    ebp,edx
  41f778:	sbb    DWORD PTR [edi-0x75229887],esp
  41f77e:	stos   DWORD PTR es:[edi],eax
  41f77f:	mov    al,ds:0x4fae49f3
  41f784:	pop    ds
  41f785:	ins    DWORD PTR es:[edi],dx
  41f786:	adc    al,0xcd
  41f788:	mov    ds:0x58e6e4d8,eax
  41f78d:	test   eax,0x2160b619
  41f792:	inc    ebp
  41f793:	nop
  41f794:	pop    es
  41f795:	mov    BYTE PTR [ebp-0xac748d8],bh
  41f79b:	xor    ch,cl
  41f79d:	lea    edx,[esi+0x1]
  41f7a0:	jmp    0xe3d1d69e
  41f7a5:	mov    WORD PTR [edi+0x11],ds
  41f7a8:	psadbw mm6,mm6
  41f7ab:	(bad)
  41f7ae:	xchg   DWORD PTR [eax+eiz*2-0x32ba2c55],ebx
  41f7b5:	xor    al,0x1a
  41f7b7:	mov    bl,0xc3
  41f7b9:	lock fmul DWORD PTR [esi]
  41f7bc:	push   ebp
  41f7bd:	dec    esp
  41f7be:	fmul   DWORD PTR [edi-0x808be7a]
  41f7c4:	in     al,dx
  41f7c5:	jne    0x41f82a
  41f7c7:	mov    ecx,0xd9baf376
  41f7cc:	stos   DWORD PTR es:[edi],eax
  41f7cd:	(bad)
  41f7d0:	pusha  
  41f7d1:	cmps   BYTE PTR ds:[esi],BYTE PTR es:[edi]
  41f7d2:	push   es
  41f7d3:	mov    edx,0xdb9f451f
  41f7d8:	mov    ch,0xdb
  41f7da:	mov    ecx,0x88be020c
  41f7df:	and    bl,BYTE PTR ds:0x334689bd
  41f7e5:	gs xchg esi,eax
  41f7e7:	ins    DWORD PTR es:[edi],dx
  41f7e8:	push   ds
  41f7e9:	mov    ch,0x73
  41f7eb:	add    al,0xec
  41f7ed:	sub    esp,DWORD PTR [eax+0x3a]
  41f7f0:	cmp    eax,0x2e07b570
  41f7f5:	and    DWORD PTR [edx+ebx*2],0xeec8cb9
  41f7fc:	xor    ebp,ecx
  41f7fe:	jle    0x41f784
  41f800:	sub    BYTE PTR [ebp+0x5c0254f3],ah
  41f806:	bound  ecx,QWORD PTR [esp+esi*2-0x11785a91]
  41f80d:	mov    ebp,0xc67f5ef
  41f812:	(bad)  
  41f814:	inc    esp
  41f815:	adc    BYTE PTR [esi+0x4f],0xad
  41f819:	jmp    0xd606:0x49923564
  41f820:	dec    ebx
  41f821:	punpckhwd mm6,mm2
  41f824:	inc    eax
  41f825:	daa    
  41f826:	inc    esp
  41f827:	xchg   ebx,eax
  41f828:	jmp    0x1e0e9239
  41f82d:	or     DWORD PTR [edx],esi
  41f82f:	in     al,dx
  41f830:	push   ss
  41f831:	rol    al,0xb
  41f834:	ss stos BYTE PTR es:[edi],al
  41f836:	icebp  
  41f837:	mov    eax,ds:0xe9ba5084
  41f83c:	mov    edx,DWORD PTR [edi+0x72]
  41f83f:	xchg   ecx,eax
  41f840:	mov    ah,0xa2
  41f842:	inc    esi
  41f843:	stc    
  41f844:	adc    BYTE PTR [edx-0x12fad8f8],cl
  41f84a:	xchg   ecx,eax
  41f84b:	adc    ecx,0xf681a5
  41f851:	ss addr16 fwait
  41f854:	pushf  
  41f855:	stos   DWORD PTR es:[edi],eax
  41f856:	ret    0x1d2a
  41f859:	xor    eax,0xe4d84799
  41f85e:	sub    BYTE PTR [edi+0x39c1a987],0x21
  41f865:	in     eax,0x47
  41f867:	ret    
  41f868:	inc    ebx
  41f869:	out    0x44,eax
  41f86b:	nop
  41f86c:	jo     0x41f85a
  41f86e:	fs inc ebp
  41f870:	les    eax,FWORD PTR [edx]
  41f872:	imul   ecx,ebx,0x10fae72b
  41f878:	or     BYTE PTR [edx-0x63],dh
  41f87b:	adc    BYTE PTR [esi],bl
  41f87d:	jge    0x41f86c
  41f87f:	fdivrp st(6),st
  41f881:	popf   
  41f882:	stos   BYTE PTR es:[edi],al
  41f883:	ror    bh,1
  41f885:	stos   BYTE PTR es:[edi],al
  41f886:	cmc    
  41f887:	sub    bl,cl
  41f889:	xchg   ch,al
  41f88b:	push   ss
  41f88c:	aas    
  41f88d:	fwait
  41f88e:	ja     0x41f899
  41f890:	dec    eax
  41f891:	stos   BYTE PTR es:[edi],al
  41f892:	addr16 mov esp,0xc17ef0bd
  41f898:	lahf   
  41f899:	cdq    
  41f89a:	mov    ecx,ecx
  41f89c:	jnp    0x41f901
  41f89e:	lods   al,BYTE PTR ds:[esi]
  41f89f:	in     al,0xe0
  41f8a1:	sbb    eax,0xf51a1097
  41f8a6:	(bad)  
  41f8a7:	lods   al,BYTE PTR ds:[esi]
  41f8a8:	sbb    BYTE PTR [eax+0x6b5e87fd],bl
  41f8ae:	fsub   QWORD PTR [edx+0x3b]
  41f8b1:	int    0xf7
  41f8b3:	add    eax,0xf936ada2
  41f8b8:	pop    eax
  41f8b9:	and    al,0xe4
  41f8bb:	mov    bl,0x86
  41f8bd:	shl    DWORD PTR [edx],0x98
  41f8c0:	das    
  41f8c1:	cmps   DWORD PTR ds:[esi],DWORD PTR es:[edi]
  41f8c2:	arpl   bp,bx
  41f8c4:	lods   al,BYTE PTR ds:[esi]
  41f8c5:	sbb    dl,dl
  41f8c7:	cmp    bl,al
  41f8c9:	and    al,0xd2
  41f8cb:	or     eax,0x1d18bfa1
  41f8d0:	push   ds
  41f8d1:	cmp    eax,0x21ba5c2
  41f8d6:	(bad)  
  41f8d7:	fild   WORD PTR [edi]
  41f8d9:	lods   al,BYTE PTR ds:[esi]
  41f8da:	sbb    eax,0x48219c2a
  41f8df:	es mov ah,0xcc
  41f8e2:	stos   BYTE PTR es:[edi],al
  41f8e3:	ins    BYTE PTR es:[edi],dx
  41f8e4:	and    DWORD PTR [eax+0x96acd63],0xffffffe4
  41f8eb:	out    dx,al
  41f8ec:	and    DWORD PTR [edi-0x65],0xf
  41f8f0:	addr16 rol esp,0x8c
  41f8f4:	pop    ds
  41f8f5:	inc    ecx
  41f8f6:	retf   0xe3a5
  41f8f9:	cmps   DWORD PTR ds:[esi],DWORD PTR es:[edi]
  41f8fa:	push   edx
  41f8fb:	bnd ret 0x49a9
  41f8ff:	dec    esp
  41f900:	mov    eax,ds:0xebd0d1ba
  41f905:	pop    es
  41f906:	sbb    eax,0x4634ff61
  41f90b:	sbb    DWORD PTR [ecx+esi*8-0x71],ebx
  41f90f:	jg     0x41f8fd
  41f911:	cmps   DWORD PTR ds:[esi],DWORD PTR es:[edi]
  41f912:	adc    eax,eax
  41f914:	fstp   DWORD PTR [ebp+0x40]
  41f917:	inc    ecx
  41f918:	adc    ch,BYTE PTR [ebp+0x74eb2334]
  41f91e:	aad    0x1d
  41f920:	and    ch,BYTE PTR [edi+0x4cdd9556]
  41f926:	das    
  41f927:	sub    ebp,DWORD PTR [bx]
  41f92a:	(bad)  
  41f92b:	in     al,0x7b
  41f92d:	outs   dx,DWORD PTR ds:[esi]
  41f92e:	push   cs
  41f92f:	icebp  
  41f930:	adc    DWORD PTR [ebx],esp
  41f932:	push   0x5
  41f934:	mov    edi,0x1ffbcfb9
  41f939:	loope  0x41f92a
  41f93b:	mov    al,ds:0xbd1b9a2
  41f940:	jmp    0xebb2d504
  41f945:	pop    eax
  41f946:	leave  
  41f947:	aad    0x1d
  41f949:	adc    bl,BYTE PTR [esi+0x7b]
  41f94c:	mov    esp,0xc56c24da
  41f951:	(bad)  
  41f952:	cmc    
  41f953:	and    BYTE PTR [edx],al
  41f955:	pop    ss
  41f956:	fs loope 0x41f9b2
  41f959:	stos   BYTE PTR es:[edi],al
  41f95a:	pop    ecx
  41f95b:	jne    0x41f92e
  41f95d:	xchg   ecx,eax
  41f95e:	and    BYTE PTR [eax+0x3240c24f],dl
  41f964:	push   ecx
  41f965:	push   eax
  41f966:	gs pop ebp
  41f968:	cmps   DWORD PTR ds:[esi],DWORD PTR es:[edi]
  41f969:	cmps   DWORD PTR ds:[esi],DWORD PTR es:[edi]
  41f96a:	icebp  
  41f96b:	jns    0x41f9c0
  41f96d:	cmp    al,BYTE PTR [esi+0x28471cd2]
  41f973:	es fwait
  41f975:	into   
  41f976:	and    edi,DWORD PTR [edi-0x76d6ff20]
  41f97c:	sub    al,0x90
  41f97e:	push   esp
  41f97f:	mov    fs,WORD PTR [edx-0x70]
  41f982:	push   ebp
  41f983:	xchg   esp,eax
  41f984:	adc    eax,0xd6ccdc33
  41f989:	jns    0x41f978
  41f98b:	mov    gs,WORD PTR [ecx+esi*2+0x67]
  41f98f:	iret   
  41f990:	dec    edx
  41f991:	jb     0x41f916
  41f993:	xor    BYTE PTR [edx+ebp*4-0x2f],cl
  41f997:	sbb    al,0xc1
  41f999:	sub    al,0x7d
  41f99b:	inc    esp
  41f99c:	pop    es
  41f99d:	shl    DWORD PTR [edi],cl
  41f99f:	jmp    0xad7e:0xc1588911
  41f9a6:	mov    WORD PTR ds:0xd233c59d,ds
  41f9ac:	add    BYTE PTR [ebp-0x2349e69b],ah
  41f9b2:	fisttp WORD PTR [ecx+0xdfe41bf]
  41f9b8:	inc    edx
  41f9b9:	cwde   
  41f9ba:	jl     0x41f95a
  41f9bc:	sbb    eax,0x31c916f5
  41f9c1:	dec    edi
  41f9c2:	sar    BYTE PTR [eax-0x67225da6],cl
  41f9c8:	scas   al,BYTE PTR es:[edi]
  41f9c9:	outs   dx,BYTE PTR ds:[esi]
  41f9ca:	test   eax,0x3aabc3dc
  41f9cf:	inc    eax
  41f9d0:	xor    BYTE PTR [ecx+esi*8+0x200723dd],ch
  41f9d7:	arpl   WORD PTR [ecx-0x56ce3e6f],di
  41f9dd:	je     0x41f966
  41f9df:	mov    ebx,DWORD PTR ds:0xb491244e
  41f9e5:	clc    
  41f9e6:	inc    ecx
  41f9e7:	xchg   esp,eax
  41f9e8:	sbb    edx,DWORD PTR [ecx]
  41f9ea:	popf   
  41f9eb:	adc    BYTE PTR ds:0x1cece2d5,cl
  41f9f1:	cmp    eax,0x219a726d
  41f9f6:	jmp    0x41fa68
  41f9f8:	iret   
  41f9f9:	stos   BYTE PTR es:[edi],al
  41f9fa:	aad    0x15
  41f9fc:	jp     0x41f9d7
  41f9fe:	int3   
  41f9ff:	in     eax,0x46
  41fa01:	mov    DWORD PTR [esi],eax
  41fa03:	into   
  41fa04:	xchg   ebx,eax
  41fa05:	xchg   edi,eax
  41fa06:	jmp    0x635e313f
  41fa0b:	cmps   DWORD PTR ds:[esi],DWORD PTR es:[edi]
  41fa0c:	xor    ebp,DWORD PTR [edx-0x1e4930b3]
  41fa12:	inc    esi
  41fa13:	test   eax,0xc2b0f7a8
  41fa18:	sbb    edi,DWORD PTR [eax+0x63]
  41fa1b:	inc    ebp
  41fa1c:	add    DWORD PTR [ebx-0x1c],esi
  41fa1f:	cmps   DWORD PTR ds:[esi],DWORD PTR es:[edi]
  41fa20:	(bad)  
  41fa21:	push   ebp
  41fa22:	jle    0x41f9e1
  41fa24:	adc    DWORD PTR [ecx],ebp
  41fa26:	daa    
  41fa27:	outs   dx,BYTE PTR ds:[esi]
  41fa28:	test   eax,0xfe8608eb
  41fa2d:	inc    esp
  41fa2e:	mov    ds:0x62ef7902,eax
  41fa33:	std    
  41fa34:	(bad)  
  41fa35:	jbe    0x41fa04
  41fa37:	retf   
  41fa38:	mov    bh,0x70
  41fa3a:	mov    bh,0xe
  41fa3c:	cmps   DWORD PTR ds:[esi],DWORD PTR es:[edi]
  41fa3d:	inc    ebx
  41fa3e:	shl    BYTE PTR [edi],1
  41fa40:	sbb    al,0x9d
  41fa42:	or     DWORD PTR [eax+0x5318ad4e],ebx
  41fa48:	fsubr  QWORD PTR [ecx-0x6195c97b]
  41fa4e:	mov    ds:0xba541760,al
  41fa53:	scas   al,BYTE PTR es:[edi]
  41fa54:	jne    0x41fa36
  41fa56:	arpl   cx,sp
  41fa58:	pop    ecx
  41fa59:	popa   
  41fa5a:	or     eax,0xa607eb93
  41fa5f:	std    
  41fa60:	imul   ebp,DWORD PTR [ebx+0x2e36884f],0x9674bdd6
  41fa6a:	inc    edi
  41fa6b:	rcl    DWORD PTR [ebp+edi*8-0x6b5dbb5f],0xca
  41fa73:	adc    BYTE PTR [edi-0x73],dl
  41fa76:	stos   BYTE PTR es:[edi],al
  41fa77:	adc    ch,ah
  41fa79:	es aaa 
  41fa7b:	pop    esi
  41fa7c:	dec    ebp
  41fa7d:	leave  
  41fa7e:	pop    esp
  41fa7f:	push   ecx
  41fa80:	nop
  41fa81:	call   0x8ee9:0xb55a6d2c
  41fa88:	sbb    BYTE PTR [edi+0x641423e9],ah
  41fa8e:	and    eax,0x79b99dbb
  41fa93:	push   0x1d
  41fa95:	sub    DWORD PTR [esi-0x4b],esp
  41fa98:	movs   DWORD PTR es:[edi],DWORD PTR ds:[esi]
  41fa99:	test   al,0x74
  41fa9b:	mov    esi,0x87bddadc
  41faa0:	jecxz  0x41fac0
  41faa2:	js     0x41fab2
  41faa4:	jge    0x41fa48
  41faa6:	cmp    DWORD PTR [edi],esp
  41faa8:	add    ch,BYTE PTR [ecx-0x6f]
  41faab:	mov    ds:0x3146a919,al
  41fab0:	pushf  
  41fab1:	dec    ebx
  41fab2:	dec    ecx
  41fab3:	and    esi,DWORD PTR [edi]
  41fab5:	stos   DWORD PTR es:[edi],eax
  41fab6:	xor    eax,0xea817c17
  41fabb:	push   esi
  41fabc:	outs   dx,DWORD PTR ds:[esi]
  41fabd:	pop    es
  41fabe:	jl     0x41fa54
  41fac0:	push   esi
  41fac1:	and    cl,BYTE PTR [eax+0x5]
  41fac4:	sbb    eax,0xcecafd47
  41fac9:	leave  
  41faca:	cs xchg esi,eax
  41facc:	jg     0x41faba
  41face:	and    edx,DWORD PTR [ecx]
  41fad0:	cmp    al,0x4f
  41fad2:	nop    ebx
  41fad5:	add    cl,0x1f
  41fad8:	sbb    eax,0x3f93cbe1
  41fadd:	and    BYTE PTR [ebp+0x6],ah
  41fae0:	repz (bad) 
  41fae2:	cli    
  41fae3:	adc    BYTE PTR [esp+eax*1-0x7ee1c63c],al
  41faea:	inc    edi
  41faeb:	lods   al,BYTE PTR ds:[esi]
  41faec:	fsubrp st(0),st
  41faee:	stos   BYTE PTR es:[edi],al
  41faef:	das    
  41faf0:	inc    eax
  41faf1:	retf   
  41faf2:	sub    DWORD PTR [eax+ebx*4+0x50],esi
  41faf6:	in     eax,0x8e
  41faf8:	xchg   edx,eax
  41faf9:	sahf   
  41fafa:	adc    eax,0x5b857577
  41faff:	pop    es
  41fb00:	jo     0x41fb47
  41fb02:	and    al,0x3f
  41fb04:	push   ss
  41fb05:	and    BYTE PTR [edx+0x2d],0x7
  41fb09:	or     cl,BYTE PTR [edi]
  41fb0b:	les    ecx,FWORD PTR [edi-0x56]
  41fb0e:	(bad)  
  41fb0f:	and    DWORD PTR [edi],edi
  41fb11:	jl     0x41fb75
  41fb13:	(bad)  
  41fb15:	jae    0x41fb24
  41fb17:	(bad)  
  41fb18:	stc    
  41fb19:	shl    BYTE PTR [ecx-0x37],1
  41fb1c:	mov    ebx,0x7ba024e1
  41fb21:	adc    al,BYTE PTR [ebp+ebx*4+0x26]
  41fb25:	or     esp,ebp
  41fb27:	add    al,0xdc
  41fb29:	jle    0x41fb2f
  41fb2b:	ja     0x41faed
  41fb2d:	shl    BYTE PTR [edx],0xee
  41fb30:	adc    ebx,DWORD PTR [ebp-0x26]
  41fb33:	loopne 0x41faf0
  41fb35:	lods   al,BYTE PTR ds:[esi]
  41fb36:	outs   dx,BYTE PTR ds:[esi]
  41fb37:	iret   
  41fb38:	jmp    0x41fb74
  41fb3a:	sbb    DWORD PTR [edx-0x1c2a5ba9],edx
  41fb40:	push   ebx
  41fb41:	cmp    al,0x6c
  41fb43:	push   edi
  41fb44:	cmp    dl,bl
  41fb46:	arpl   WORD PTR [edx],dx
  41fb48:	xlat   BYTE PTR ds:[ebx]
  41fb49:	lods   al,BYTE PTR ds:[esi]
  41fb4a:	cmc    
  41fb4b:	fcomi  st,st(4)
  41fb4d:	les    ebx,FWORD PTR [edx-0x72]
  41fb50:	sbb    ebp,DWORD PTR [ebx-0x1459b26b]
  41fb56:	lahf   
  41fb57:	adc    eax,0x68e013c8
  41fb5c:	imul   BYTE PTR [ecx]
  41fb5e:	bound  ecx,QWORD PTR [ecx+0x6afa69b3]
  41fb64:	out    dx,eax
  41fb65:	xor    esi,edi
  41fb67:	movups xmm7,xmm1
  41fb6a:	mov    ebx,0xd3791c60
  41fb6f:	hlt    
  41fb70:	mov    dl,0xe8
  41fb72:	sahf   
  41fb73:	sti    
  41fb74:	into   
  41fb75:	stos   BYTE PTR es:[edi],al
  41fb76:	add    edx,ecx
  41fb78:	ins    BYTE PTR es:[edi],dx
  41fb79:	out    dx,eax
  41fb7a:	sbb    ch,BYTE PTR [edi]
  41fb7c:	xor    eax,DWORD PTR [esi]
  41fb7e:	jns    0x41fb78
  41fb80:	das    
  41fb81:	jle    0x41fbe5
  41fb83:	popf   
  41fb84:	mov    edi,ebp
  41fb86:	rol    ah,cl
  41fb88:	push   edi
  41fb89:	rcr    edx,cl
  41fb8b:	mov    cr5,ebp
  41fb8e:	fwait
  41fb8f:	pop    ecx
  41fb90:	push   ds
  41fb91:	icebp  
  41fb92:	idiv   DWORD PTR [edx]
  41fb94:	scas   eax,DWORD PTR es:[edi]
  41fb95:	shr    DWORD PTR [ebx+0x0],1
  41fb98:	call   0xadf048ce
  41fb9d:	stos   BYTE PTR es:[edi],al
  41fb9e:	or     bh,BYTE PTR [esi]
  41fba0:	and    eax,0x12c76053
  41fba5:	jge    0x41fb78
  41fba7:	add    eax,0x4c652916
  41fbac:	push   eax
  41fbad:	aaa    
  41fbae:	mov    ds:0x91970fb0,al
  41fbb3:	bswap  ebp
  41fbb5:	jno    0x41fbdc
  41fbb7:	xlat   BYTE PTR ds:[ebx]
  41fbb8:	push   ds
  41fbb9:	mov    eax,ds:0xf819817f
  41fbbe:	mov    BYTE PTR [ebp-0x36f254c9],ch
  41fbc4:	(bad)  
  41fbc5:	gs inc esp
  41fbc7:	and    ecx,DWORD PTR [edx+eiz*1-0x70]
  41fbcb:	fadd   st,st(6)
  41fbcd:	add    ebx,DWORD PTR [esi+0x55]
  41fbd0:	in     al,0xbc
  41fbd2:	mov    ch,0xc7
  41fbd4:	das    
  41fbd5:	add    eax,0x9335b9f
  41fbda:	mov    ds:0x52acf6ff,al
  41fbdf:	leave  
  41fbe0:	repz mov esi,0x21f19686
  41fbe6:	bound  esi,QWORD PTR [ebp-0x1d2503e]
  41fbec:	jecxz  0x41fc62
  41fbee:	retf   
  41fbef:	xchg   ebp,eax
  41fbf0:	adc    BYTE PTR [ecx-0x3],ch
  41fbf3:	or     DWORD PTR [esp+ecx*8],esp
  41fbf6:	lods   eax,DWORD PTR ds:[esi]
  41fbf7:	aad    0x5e
  41fbf9:	xor    al,0x46
  41fbfb:	inc    esi
  41fbfc:	ja     0x41fbad
  41fbfe:	add    DWORD PTR [ecx+0xdd4ff2b],esp
  41fc04:	cli    
  41fc05:	xchg   edi,eax
  41fc06:	add    bh,dh
  41fc08:	imul   edi,DWORD PTR fs:[edx+0x64d51804],0xd2de1b95
  41fc13:	sub    BYTE PTR [edi-0x9f0e3a9],bl
  41fc19:	aam    0xef
  41fc1b:	das    
  41fc1c:	pop    esi
  41fc1d:	fwait
  41fc1e:	call   0xdc05:0x47bfe13f
  41fc25:	pop    ss
  41fc26:	xor    esp,DWORD PTR [ecx+0x8]
  41fc29:	lods   al,BYTE PTR ds:[esi]
  41fc2a:	push   ecx
  41fc2b:	ret    0x4735
  41fc2e:	mov    edx,0xdce8a7e3
  41fc33:	loope  0x41fbc9
  41fc35:	pushf  
  41fc36:	fs shr edx,0x2
  41fc3a:	mov    cl,0x33
  41fc3c:	xor    eax,DWORD PTR [ebx]
  41fc3e:	out    0x10,al
  41fc40:	fcomp  DWORD PTR [esi+0x25]
  41fc43:	cmp    ecx,DWORD PTR [ecx+ecx*8]
  41fc46:	xor    al,0xe8
  41fc48:	jb     0x41fbd8
  41fc4a:	ret    
  41fc4b:	mov    ds:0x1b641a1c,eax
  41fc50:	repz mov edx,0x5fd8104b
  41fc56:	jne    0x41fc64
  41fc58:	push   ds
  41fc59:	fnstsw WORD PTR [ecx+ebx*8-0x5b]
  41fc5d:	out    dx,eax
  41fc5e:	mov    al,0x86
  41fc60:	pop    ds
  41fc61:	mov    gs,ebp
  41fc63:	pop    edx
  41fc64:	inc    ebx
  41fc65:	ret    
  41fc66:	xchg   esi,eax
  41fc67:	adc    DWORD PTR [ecx],ecx
  41fc69:	dec    ebp
  41fc6a:	mov    esp,0x1f711ed0
  41fc6f:	xchg   edi,ebx
  41fc71:	hlt    
  41fc72:	add    ah,al
  41fc74:	mov    ebx,0x3fa259ac
  41fc79:	cmps   BYTE PTR ds:[esi],BYTE PTR es:[edi]
  41fc7a:	call   0x3f84d119
  41fc7f:	pop    ecx
  41fc80:	mov    ?,WORD PTR [edx-0x55d20794]
  41fc86:	fild   QWORD PTR ds:0x26ca02a4
  41fc8c:	call   0x6158c23c
  41fc91:	push   0xffffff86
  41fc93:	or     al,0x72
  41fc95:	pop    es
  41fc96:	sbb    dh,ch
  41fc98:	inc    esp
  41fc99:	or     eax,0xce899565
  41fc9e:	cmp    dl,cl
  41fca0:	jmp    FWORD PTR [eax]
  41fca2:	fmul   DWORD PTR ds:0xa35cf6d5
  41fca8:	pop    ds
  41fca9:	fld    QWORD PTR [edx]
  41fcab:	inc    esi
  41fcac:	mov    al,ds:0x8e06b556
  41fcb1:	jno    0x41fc60
  41fcb3:	dec    ebp
  41fcb4:	test   esp,ecx
  41fcb6:	xchg   DWORD PTR [eax+0x10],ebx
  41fcb9:	call   0x99e15b20
  41fcbe:	bound  esp,QWORD PTR [ebx+eax*1-0x5daa63e3]
  41fcc5:	rol    esp,1
  41fcc7:	cmp    al,0xaa
  41fcc9:	leave  
  41fcca:	push   ebp
  41fccb:	es mov ecx,0xde8c39ac
  41fcd1:	dec    eax
  41fcd2:	ficomp WORD PTR [edi+0x10]
  41fcd5:	fwait
  41fcd6:	lods   eax,DWORD PTR ds:[esi]
  41fcd7:	dec    BYTE PTR [ebp+0x54]
  41fcda:	xor    al,0xa9
  41fcdc:	mov    WORD PTR [edx+0x143805c1],gs
  41fce2:	sbb    esp,DWORD PTR [edi+esi*4-0x6b]
  41fce6:	jno    0x41fcde
  41fce8:	into   
  41fce9:	shl    DWORD PTR [ebp+ebp*2-0x51],0x9e
  41fcee:	test   DWORD PTR [esi],ebx
  41fcf0:	xlat   BYTE PTR ds:[ebx]
  41fcf1:	clc    
  41fcf2:	xchg   esp,eax
  41fcf3:	fwait
  41fcf4:	mov    al,ds:0x370f31e5
  41fcf9:	xchg   eax,edi
  41fcfb:	call   0xd9a6519b
  41fd00:	into   
  41fd01:	gs (bad) 
  41fd04:	pop    es
  41fd05:	cwde   
  41fd06:	ja     0x41fcd9
  41fd08:	pushf  
  41fd09:	inc    esp
  41fd0a:	xchg   DWORD PTR [ecx+0x7a],esp
  41fd0d:	mov    dl,cl
  41fd0f:	inc    esp
  41fd10:	pop    ds
  41fd11:	in     eax,0x9e
  41fd13:	ret    
  41fd14:	cmp    DWORD PTR [ebp-0x62],edi
  41fd17:	ror    BYTE PTR [edi-0x55],1
  41fd1a:	push   ebp
  41fd1b:	gs mov bh,0x7b
  41fd1e:	push   eax
  41fd1f:	mov    BYTE PTR [ebx+eax*8-0x30],ch
  41fd23:	int3   
  41fd24:	movs   BYTE PTR es:[edi],BYTE PTR ds:[esi]
  41fd25:	lock arpl WORD PTR [ebp-0x16a86571],bp
  41fd2c:	(bad)  
  41fd2d:	movs   DWORD PTR es:[edi],DWORD PTR ds:[esi]
  41fd2e:	aas    
  41fd2f:	sar    BYTE PTR [edi+0x300edfc5],1
  41fd35:	inc    esp
  41fd36:	jp     0x41fda7
  41fd38:	sub    ebp,DWORD PTR [edi-0x7e]
  41fd3b:	xchg   esp,eax
  41fd3c:	xchg   esp,eax
  41fd3d:	dec    esi
  41fd3e:	gs dec ebp
  41fd40:	out    0x8a,eax
  41fd42:	retf   0xb7f3
  41fd45:	(bad)  
  41fd46:	push   esp
  41fd47:	and    BYTE PTR [ebp+0x2e],ch
  41fd4a:	arpl   cx,di
  41fd4c:	lods   eax,DWORD PTR ds:[esi]
  41fd4d:	or     ch,0x1e
  41fd50:	mov    eax,ecx
  41fd52:	fs xchg ebp,eax
  41fd54:	mov    ch,0x5
  41fd56:	ins    BYTE PTR es:[edi],dx
  41fd57:	adc    al,0x1f
  41fd59:	jnp    0x41fdcc
  41fd5b:	or     edi,DWORD PTR [ebp+eax*4+0x8]
  41fd5f:	pop    ds
  41fd60:	jl     0x41fda1
  41fd62:	inc    ebx
  41fd63:	and    DWORD PTR [eax],esi
  41fd65:	xor    ebp,esi
  41fd67:	or     dl,dl
  41fd69:	ins    BYTE PTR es:[edi],dx
  41fd6a:	bound  esp,QWORD PTR [ecx-0x2b]
  41fd6d:	jb     0x41fdd4
  41fd6f:	ja     0x41fd2a
  41fd71:	sub    eax,0x15831db5
  41fd76:	in     al,0x47
  41fd78:	sbb    ah,BYTE PTR [ebp+0x49]
  41fd7b:	imul   esi,DWORD PTR [eax+0x5f9add4e],0x4c
  41fd82:	xlat   BYTE PTR ds:[ebx]
  41fd83:	loopne 0x41fd6c
  41fd85:	(bad)  
  41fd86:	jae    0x41fd59
  41fd88:	sub    al,0xaa
  41fd8a:	add    ah,BYTE PTR [eax+0x64a17097]
  41fd90:	jecxz  0x41fdc6
  41fd92:	sub    BYTE PTR [eax+0x4f656e89],ah
  41fd98:	jmp    0x2951a141
  41fd9d:	lahf   
  41fd9e:	xor    eax,0xcaac2fa1
  41fda3:	(bad)  
  41fda4:	pop    esi
  41fda5:	stc    
  41fda6:	imul   ebp,edi,0x24
  41fda9:	sbb    eax,0x613418d8
  41fdae:	push   esi
  41fdaf:	std    
  41fdb0:	mov    cs,WORD PTR [esi+esi*4]
  41fdb3:	clc    
  41fdb4:	lods   al,BYTE PTR fs:[esi]
  41fdb6:	jne    0x41fdda
  41fdb8:	xchg   esp,eax
  41fdb9:	adc    eax,0x592656be
  41fdbe:	scas   eax,DWORD PTR es:[edi]
  41fdbf:	mov    ch,0x93
  41fdc1:	mov    al,BYTE PTR [esi+0x71]
  41fdc4:	lahf   
  41fdc5:	jbe    0x41fe32
  41fdc7:	loop   0x41fdd8
  41fdc9:	sar    BYTE PTR [ecx+eiz*2-0x5f856ce2],0x4a
  41fdd1:	repnz xchg esp,eax
  41fdd3:	stc    
  41fdd4:	sbb    al,0xd5
  41fdd6:	pop    ss
  41fdd7:	test   esp,edx
  41fdd9:	(bad)  
  41fdda:	fst    QWORD PTR [eax+ebp*4]
  41fddd:	adc    al,BYTE PTR ds:0x5da811d6
  41fde3:	sbb    BYTE PTR [edx-0x22],0x27
  41fde7:	lock cmp ecx,DWORD PTR [ecx-0x4e]
  41fdeb:	mov    edi,ebx
  41fded:	lods   al,BYTE PTR ds:[esi]
  41fdee:	push   esp
  41fdef:	in     eax,dx
  41fdf0:	add    DWORD PTR [ebx+0x25807ec3],ebp
  41fdf6:	movs   BYTE PTR es:[edi],BYTE PTR ds:[esi]
  41fdf7:	dec    edx
  41fdf8:	arpl   bx,ax
  41fdfa:	cmp    ebx,eax
  41fdfc:	mov    ds:0x3036cbab,eax
  41fe01:	inc    edx
  41fe02:	jnp    0x41fd98
  41fe04:	pop    ds
  41fe05:	lods   eax,DWORD PTR ds:[esi]
  41fe06:	add    ch,dh
  41fe08:	daa    
  41fe09:	lds    esp,FWORD PTR [edi]
  41fe0b:	int    0xc3
  41fe0d:	stos   BYTE PTR es:[edi],al
  41fe0e:	in     eax,dx
  41fe0f:	aad    0x2c
  41fe11:	xor    dl,BYTE PTR ds:0x3ee77bff
  41fe17:	mov    ebx,0xc12905a2
  41fe1c:	mov    fs,ebp
  41fe1e:	xor    eax,0xf1ab7090
  41fe23:	mov    ebp,0x2428f0e5
  41fe28:	out    dx,eax
  41fe29:	dec    ebx
  41fe2a:	shl    DWORD PTR [ecx],0xad
  41fe2d:	ja     0x41fe91
  41fe2f:	popf   
  41fe30:	jmp    0x17fb0c74
  41fe35:	(bad)  
  41fe36:	outs   dx,BYTE PTR ds:[esi]
  41fe37:	psubq  mm3,QWORD PTR [eax+0xd15674b]
  41fe3e:	jo     0x41feb4
  41fe40:	pop    esp
  41fe41:	ret    
  41fe42:	dec    eax
  41fe43:	xchg   esp,eax
  41fe44:	fsubr  QWORD PTR [eax-0xf]
  41fe47:	or     eax,0xdcccfc3
  41fe4c:	xchg   DWORD PTR [eax],esp
  41fe4e:	adc    al,0xfa
  41fe50:	ds scas eax,DWORD PTR es:[edi]
  41fe52:	and    eax,DWORD PTR [ecx+0x6563d875]
  41fe58:	enter  0x93e8,0xa4
  41fe5c:	scas   eax,DWORD PTR es:[edi]
  41fe5d:	add    bh,BYTE PTR [esi+0x6860e902]
  41fe63:	xchg   ebp,eax
  41fe64:	imul   ebx,DWORD PTR ds:0x8218f213,0x29840ec4
  41fe6e:	fsub   st(2),st
  41fe70:	push   ds
  41fe71:	cdq    
  41fe72:	mov    bl,0xe4
  41fe74:	movs   BYTE PTR es:[edi],BYTE PTR ds:[esi]
  41fe75:	xor    BYTE PTR [ecx-0x6e],dl
  41fe78:	ret    0x25a9
  41fe7b:	mov    ecx,0xe3207ae8
  41fe80:	mov    esi,0x5688fbff
  41fe85:	jno    0x41feea
  41fe87:	dec    ebp
  41fe88:	push   ebp
  41fe89:	add    esp,DWORD PTR [ebp+0x34]
  41fe8c:	xchg   ebx,eax
  41fe8d:	fadd   DWORD PTR [ecx+eiz*8-0x7ed0e0b2]
  41fe94:	es inc ebx
  41fe96:	gs jno 0x41fe5e
  41fe99:	test   al,0xd1
  41fe9b:	sub    esp,ecx
  41fe9d:	dec    ebx
  41fe9e:	push   ds
  41fe9f:	xchg   ebx,eax
  41fea0:	inc    ecx
  41fea1:	mov    esp,0x9a9c700d
  41fea6:	push   esi
  41fea7:	cs in  eax,0xb0
  41feaa:	loopne 0x41fec7
  41feac:	fldcw  WORD PTR [eax]
  41feae:	(bad)  
  41feaf:	xor    eax,0x30fd5c12
  41feb4:	outs   dx,BYTE PTR ds:[esi]
  41feb5:	jne    0x41fe58
  41feb7:	add    BYTE PTR [edi+0x2d0f1e90],bh
  41febd:	and    esi,esp
  41febf:	jae    0x41fedf
  41fec1:	adc    eax,0x4658c368
  41fec6:	ret    
  41fec7:	int    0xf0
  41fec9:	xor    al,0xdd
  41fecb:	fld    TBYTE PTR [ebx-0x4d5c1373]
  41fed1:	stos   DWORD PTR es:[edi],eax
  41fed2:	mov    dl,0x1d
  41fed4:	inc    ecx
  41fed5:	repz dec ebx
  41fed7:	out    dx,al
  41fed8:	push   esp
  41fed9:	popf   
  41feda:	jno    0x41ff38
  41fedc:	(bad)  
  41fedd:	cdq    
  41fede:	adc    DWORD PTR [ecx+esi*4],esi
  41fee1:	enter  0x8d82,0x43
  41fee5:	loope  0x41feee
  41fee7:	adc    DWORD PTR [esi-0x12],edx
  41feea:	inc    edx
  41feeb:	aaa    
  41feec:	sbb    eax,0x35425089
  41fef1:	fucomp st(0)
  41fef3:	nop
  41fef4:	shr    DWORD PTR [edx-0x4ba2a937],0xd4
  41fefb:	cmps   BYTE PTR ds:[esi],BYTE PTR es:[edi]
  41fefc:	jbe    0x41ff3b
  41fefe:	test   eax,0x643940ad
  41ff03:	jne    0x41fe86
  41ff05:	push   ss
  41ff06:	mov    al,ds:0xc9e3364
  41ff0b:	adc    DWORD PTR [edi],eax
  41ff0d:	shl    BYTE PTR [ebx-0x4beb5a8f],cl
  41ff13:	jp     0x41ff32
  41ff15:	into   
  41ff16:	and    eax,0x3870032a
  41ff1b:	xchg   dh,ah
  41ff1d:	stos   DWORD PTR es:[edi],eax
  41ff1e:	pop    ebp
  41ff1f:	cmp    DWORD PTR [edx-0x69],esi
  41ff22:	rol    BYTE PTR [ebp-0x40bd1f51],1
  41ff28:	mov    al,ds:0x326964c1
  41ff2d:	cwde   
  41ff2e:	sahf   
  41ff2f:	aaa    
  41ff30:	push   ebx
  41ff31:	adc    DWORD PTR [ebx+0xf],esp
  41ff34:	icebp  
  41ff35:	or     al,0x4f
  41ff37:	push   edi
  41ff38:	push   ds
  41ff39:	cmc    
  41ff3a:	fcom   DWORD PTR [eax+0x253323a0]
  41ff40:	shr    DWORD PTR [ebp-0x29796a74],0xa4
  41ff47:	lods   eax,DWORD PTR ds:[esi]
  41ff48:	retf   
  41ff49:	add    al,0x57
  41ff4b:	adc    edi,esi
  41ff4d:	xor    eax,0xed1d276f
  41ff52:	mov    al,ds:0x3541c643
  41ff57:	or     eax,0x4a81714e
  41ff5c:	jle    0x41ff83
  41ff5e:	retf   0xc71e
  41ff61:	xchg   DWORD PTR [edx+0x60],esp
  41ff64:	data16 ins BYTE PTR es:[edi],dx
  41ff66:	lock out dx,eax
  41ff68:	test   al,0x8
  41ff6a:	retf   0x556f
  41ff6d:	xor    eax,0xa041e0c5
  41ff72:	sub    DWORD PTR fs:[eax-0x7c473dcd],ecx
  41ff79:	mov    eax,0xff1de3e4
  41ff7e:	xchg   esp,eax
  41ff7f:	rcr    esp,1
  41ff81:	inc    edi
  41ff82:	cli    
  41ff83:	mov    ds:0x4d656a8a,al
  41ff88:	addr16 mov bl,0x52
  41ff8b:	test   eax,0xd8c0e8fb
  41ff90:	sahf   
  41ff91:	mov    ecx,0x9d054407
  41ff96:	add    edx,edx
  41ff98:	mov    edx,0x9d506bab
  41ff9d:	cdq    
  41ff9e:	or     eax,0xbda9d785
  41ffa3:	mov    ss,ebp
  41ffa5:	pop    edx
  41ffa6:	xchg   ecx,eax
  41ffa7:	aaa    
  41ffa8:	retf   
  41ffa9:	loop   0x41fff0
  41ffab:	adc    esi,DWORD PTR ds:0xd01161fa
  41ffb1:	mov    WORD PTR [ecx],ds
  41ffb3:	je     0x41ff77
  41ffb5:	mov    al,0xb3
  41ffb7:	ffreep st(0)
  41ffb9:	sub    DWORD PTR [eax-0x27],esp
  41ffbc:	dec    ebx
  41ffbd:	pop    ecx
  41ffbe:	xchg   esi,eax
  41ffbf:	add    DWORD PTR [esi],ebx
  41ffc1:	lods   eax,DWORD PTR ds:[esi]
  41ffc2:	loop   0x41ffec
  41ffc4:	in     eax,dx
  41ffc5:	lock sub BYTE PTR [edi],ah
  41ffc8:	xor    BYTE PTR [eax],0x25
  41ffcb:	adc    eax,0x99b6ab60
  41ffd0:	sbb    ch,al
  41ffd2:	jg     0x41ffc9
  41ffd4:	sbb    eax,0xc35e5b8d
  41ffd9:	les    ebx,FWORD PTR [esi+0x71]
  41ffdc:	cmc    
  41ffdd:	mov    edi,0x851d1414
  41ffe2:	add    edi,DWORD PTR [edi+0x27ea4e6a]
  41ffe8:	pop    ds
  41ffe9:	in     eax,dx
  41ffea:	or     eax,0x931a6d20
  41ffef:	mov    ds:0xe9a1a961,eax
  41fff4:	(bad)  
  41fff5:	pop    eax
  41fff6:	mov    DWORD PTR [ebp-0x61],0x124c232c
  41fffd:	lds    ecx,FWORD PTR [ecx-0x72f3f263]
  420003:	call   0xee28d498
  420008:	scas   eax,DWORD PTR es:[edi]
  420009:	ins    DWORD PTR es:[edi],dx
  42000a:	pushf  
  42000b:	or     al,0xfa
  42000d:	cmp    esp,DWORD PTR [ebx]
  42000f:	adc    dl,BYTE PTR [esi-0x29]
  420012:	test   BYTE PTR [eax-0x24],dl
  420015:	xor    al,0x63
  420017:	xor    DWORD PTR [esi-0x73],ebp
  42001a:	sahf   
  42001b:	sbb    al,0x77
  42001d:	std    
  42001e:	add    eax,0xf8c9e798
  420023:	stc    
  420024:	sbb    eax,0x3622312
  420029:	mov    eax,0xc11b8334
  42002e:	push   ds
  42002f:	xchg   ebp,eax
  420030:	xor    eax,0xad7e76d5
  420036:	cmp    ecx,DWORD PTR [esi]
  420038:	sbb    BYTE PTR [ecx],dh
  42003a:	inc    eax
  42003b:	test   BYTE PTR [eax],0x5e
  42003e:	lock sbb eax,0xb04b616f
  420044:	xchg   ebx,eax
  420045:	(bad)  
  420046:	into   
  420047:	or     eax,0xb3923940
  42004c:	cli    
  42004d:	add    BYTE PTR ds:0x83aa6e6a,dh
  420053:	call   0x6dead906
  420058:	xor    esp,DWORD PTR [eax]
  42005a:	or     edx,DWORD PTR [eax]
  42005c:	int3   
  42005d:	or     al,bh
  42005f:	ins    DWORD PTR es:[edi],dx
  420060:	sti    
  420061:	clc    
  420062:	(bad)  
  420063:	mov    esi,0xa763acd9
  420068:	or     eax,0xa37574c0
  42006d:	inc    ebp
  42006e:	out    0x28,al
  420070:	push   es
  420071:	xor    al,0x62
  420073:	cmc    
  420074:	inc    esp
  420075:	lods   eax,DWORD PTR ds:[esi]
  420076:	sbb    DWORD PTR [ecx+0x2164ab35],ecx
  42007c:	mov    cl,0x95
  42007e:	test   DWORD PTR [ebx+ebx*1-0x428e8cbb],edi
  420085:	arpl   WORD PTR [edx+edx*8+0x4a],sp
  420089:	leave  
  42008a:	mov    eax,ds:0xb051fe2
  42008f:	or     cl,0x84
  420092:	xchg   ebp,eax
  420093:	cli    
  420094:	dec    eax
  420095:	test   eax,0xb5225875
  42009a:	sub    eax,0xb62de1d2
  42009f:	mov    ebx,ebp
  4200a1:	test   DWORD PTR [ecx+ebp*2+0xa],esp
  4200a5:	dec    esp
  4200a6:	jle    0x420089
  4200a8:	push   edi
  4200a9:	dec    esi
  4200aa:	popa   
  4200ab:	adc    ah,bh
  4200ad:	out    0x49,eax
  4200af:	int3   
  4200b0:	lods   al,BYTE PTR ds:[esi]
  4200b1:	rcr    BYTE PTR [ebp-0x21],0x24
  4200b5:	lods   al,BYTE PTR ds:[esi]
  4200b6:	scas   eax,DWORD PTR es:[edi]
  4200b7:	pop    edi
  4200b8:	les    ecx,FWORD PTR [ecx+0x73]
  4200bb:	ds jle 0x4200a2
  4200be:	iret   
  4200bf:	stos   DWORD PTR es:[edi],eax
  4200c0:	rcl    DWORD PTR [eax],cl
  4200c2:	cmps   BYTE PTR ds:[esi],BYTE PTR es:[edi]
  4200c3:	push   cs
  4200c4:	repz iret 
  4200c6:	jl     0x420098
  4200c8:	xor    BYTE PTR [ebx+ebx*8],al
  4200cb:	out    dx,eax
  4200cc:	jne    0x4200de
  4200ce:	je     0x4200de
  4200d0:	(bad)  
  4200d1:	sub    eax,0xa8f61553
  4200d6:	xor    eax,0x580914af
  4200db:	cmc    
  4200dc:	pushf  
  4200dd:	xchg   ecx,eax
  4200de:	inc    ebp
  4200df:	add    BYTE PTR [esi],0xfd
  4200e2:	xchg   edx,eax
  4200e3:	lea    edx,[ebx]
  4200e5:	lods   eax,DWORD PTR ds:[esi]
  4200e6:	push   eax
  4200e7:	lock fbld TBYTE PTR [edx]
  4200ea:	jnp    0x4200fc
  4200ec:	jo     0x420084
  4200ee:	shl    BYTE PTR [esi+ebx*1],cl
  4200f1:	imul   esp,DWORD PTR [esp+edi*2],0xe844b4
  4200f8:	xchg   ebp,ebp
  4200fa:	std    
  4200fb:	js     0x420101
  4200fd:	cmps   DWORD PTR ds:[esi],DWORD PTR es:[edi]
  4200fe:	in     eax,0xf4
  420100:	pusha  
  420101:	cld    
  420102:	or     BYTE PTR [ebp-0x65f1c732],0x5c
  420109:	sub    ch,BYTE PTR [edi+0x71]
  42010c:	pop    edi
  42010d:	sbb    cl,BYTE PTR [edx+0x62135914]
  420113:	cmp    DWORD PTR [ebp+0x3b0c5a1c],0xc610f19b
  42011d:	aad    0xdc
  42011f:	shl    dh,1
  420121:	jl     0x4200da
  420123:	or     eax,0xc4d1fdd7
  420128:	sbb    ebp,DWORD PTR [ecx]
  42012a:	fs adc eax,0xd4e5a7fb
  420130:	or     eax,0xeaca35c4
  420135:	dec    ecx
  420136:	dec    edx
  420137:	cli    
  420138:	sbb    eax,0x20e0bca9
  42013d:	mov    ebp,0xb951506f
  420142:	mov    BYTE PTR [edx+0x5e7a1eaa],ah
  420148:	adc    DWORD PTR [ebx-0x121af218],ebx
  42014e:	push   ds
  42014f:	inc    ebp
  420150:	add    BYTE PTR [esi],ch
  420152:	gs jmp 0xf328a37e
  420158:	mov    ecx,DWORD PTR [ebx+0x38]
  42015b:	adc    edi,ebp
  42015d:	pop    edx
  42015e:	int    0x3
  420160:	sbb    al,0x9
  420162:	mov    al,ds:0xd86056a3
  420167:	and    edi,DWORD PTR [ebx-0x4b]
  42016a:	les    edx,FWORD PTR ds:0x4ff3071c
  420170:	jmp    0x24d0:0xd65bb940
  420177:	cmps   BYTE PTR ds:[esi],BYTE PTR es:[edi]
  420178:	pop    ds
  420179:	mov    ch,0x9d
  42017b:	cs popa 
  42017d:	sar    bl,cl
  42017f:	loope  0x420104
  420181:	aad    0x3b
  420183:	mov    dl,0xaf
  420185:	sub    edx,DWORD PTR [eax]
  420187:	push   cs
  420188:	add    al,0x8c
  42018a:	es aam 0x3f
  42018d:	jmp    0x2ed8f2f4
  420192:	out    0xed,eax
  420194:	call   DWORD PTR [esi+0x24150ed9]
  42019a:	jmp    0xff971eba
  42019f:	add    ch,cl
  4201a1:	ret    0xc13c
  4201a4:	jb     0x420171
  4201a6:	dec    ebx
  4201a7:	adc    cl,BYTE PTR [ebx]
  4201a9:	out    dx,eax
  4201aa:	push   0x10
  4201ac:	mov    esp,gs
  4201ae:	movs   BYTE PTR es:[edi],BYTE PTR ds:[esi]
  4201af:	pop    ecx
  4201b0:	pop    esi
  4201b1:	jp     0x420163
  4201b3:	fist   DWORD PTR [eax-0x49]
  4201b6:	popa   
  4201b7:	mov    eax,ds:0xc142ec62
  4201bc:	outs   dx,DWORD PTR ds:[esi]
  4201bd:	dec    ecx
  4201be:	sub    dl,BYTE PTR [ecx]
  4201c0:	mov    al,0xe8
  4201c2:	and    DWORD PTR [ebp+0x0],eax
  4201c5:	jne    0x4201f7
  4201c7:	add    bh,BYTE PTR [eax+edi*1]
  4201ca:	lods   eax,DWORD PTR ds:[esi]
  4201cb:	pop    esp
  4201cc:	lock xor esp,DWORD PTR [esp+ecx*1]
  4201d0:	and    edi,0x0
  4201d3:	adc    ebp,ecx
  4201d5:	cmp    bh,cl
  4201d7:	and    bl,BYTE PTR ds:0x7e6f576d
  4201dd:	addr16 xchg ebx,eax
  4201df:	xor    eax,0xd70d9019
  4201e4:	ins    BYTE PTR es:[edi],dx
  4201e5:	(bad)  
  4201e6:	xor    BYTE PTR [edx-0x40],al
  4201e9:	test   edi,eax
  4201eb:	mov    ds,WORD PTR [esi]
  4201ed:	mov    ecx,0x3a519761
  4201f2:	and    al,0x15
  4201f4:	shr    DWORD PTR [edx-0x3156dc33],0x3a
  4201fb:	mov    dh,0x5f
  4201fd:	sub    BYTE PTR [ecx],dh
  4201ff:	test   al,0xc6
  420201:	add    DWORD PTR [ecx+eiz*8+0x1c],edx
  420205:	pop    edi
  420206:	sar    BYTE PTR [ebx-0x66ae5659],cl
  42020c:	inc    ebp
  42020d:	fimul  WORD PTR [ebp+0x6d3643be]
  420213:	in     eax,dx
  420214:	test   al,0x63
  420216:	bound  eax,QWORD PTR [ecx]
  420218:	sub    DWORD PTR [edi],eax
  42021a:	mov    ebp,0x2cfa537f
  42021f:	adc    ebp,ecx
  420221:	and    eax,0xac6c05e6
  420226:	pop    es
  420227:	out    dx,al
  420228:	loopne 0x42021e
  42022a:	dec    eax
  42022b:	xor    esi,ebp
  42022d:	fsubr  QWORD PTR [eax+0xe]
  420230:	scas   eax,DWORD PTR es:[edi]
  420231:	fsub   st(3),st
  420233:	mov    edi,DWORD PTR [edi]
  420235:	repz or DWORD PTR ds:0xeaa41638,0xffffffa9
  42023d:	dec    eax
  42023e:	pop    eax
  42023f:	in     eax,dx
  420240:	sbb    eax,0xc81889bf
  420245:	rcl    DWORD PTR [ecx],1
  420247:	dec    ebx
  420248:	ja     0x42023a
  42024a:	dec    esi
  42024b:	adc    ch,ah
  42024d:	mov    esi,0x151ea47c
  420252:	popf   
  420253:	shl    DWORD PTR [esi],cl
  420255:	retf   
  420256:	dec    ebx
  420257:	sub    ecx,DWORD PTR [eax]
  420259:	xor    al,0xa1
  42025b:	popa   
  42025c:	call   0x640e:0xe922c7c6
  420263:	iret   
  420264:	lahf   
  420265:	jge    0x42024b
  420267:	rcr    BYTE PTR [esi],1
  420269:	jns    0x4202d7
  42026b:	mov    edi,0x4f8a6bda
  420270:	pop    es
  420271:	stos   BYTE PTR es:[edi],al
  420272:	jne    0x4202d7
  420274:	mov    ds:0x85e96df7,eax
  420279:	pop    ebp
  42027a:	cmp    bl,BYTE PTR [ebx+0x69659398]
  420280:	sbb    BYTE PTR [esi+0x1d],ah
  420283:	out    dx,al
  420284:	or     ebx,DWORD PTR [edi]
  420286:	inc    ebx
  420287:	jmp    0x4202a6
  420289:	stos   DWORD PTR es:[edi],eax
  42028a:	std    
  42028b:	fstp   DWORD PTR [edx-0x51]
  42028e:	aam    0xd6
  420290:	sbb    al,0xf9
  420292:	ins    DWORD PTR es:[edi],dx
  420293:	mov    ebx,DWORD PTR [eax-0x37]
  420296:	dec    esp
  420297:	iret   
  420298:	mov    dl,0xac
  42029a:	sub    eax,0x3d911561
  42029f:	(bad)  
  4202a0:	int    0x1d
  4202a2:	sbb    esi,ecx
  4202a4:	adc    eax,DWORD PTR ds:0x35bf0d64
  4202aa:	push   cs
  4202ab:	dec    ebx
  4202ac:	xlat   BYTE PTR ds:[ebx]
  4202ad:	xchg   esp,eax
  4202ae:	les    ecx,FWORD PTR [esi]
  4202b0:	fwait
  4202b1:	jl     0x42029e
  4202b3:	adc    al,0x1d
  4202b5:	aad    0xa4
  4202b7:	pop    esp
  4202b8:	add    bh,0xf0
  4202bb:	das    
  4202bc:	mov    WORD PTR [ecx+edi*4+0x171e5763],gs
  4202c3:	cmp    dh,0xf6
  4202c6:	pusha  
  4202c7:	sub    BYTE PTR ds:0xad63,0xb3
  4202cd:	or     bl,BYTE PTR [ebp-0x6e]
  4202d0:	das    
  4202d1:	adc    ch,BYTE PTR [ebp+0x6571bb0b]
  4202d7:	fs cwde 
  4202d9:	jb     0x420302
  4202db:	outs   dx,BYTE PTR ds:[esi]
  4202dc:	jp     0x42033c
  4202de:	gs sar ecx,1
  4202e1:	les    ebx,FWORD PTR [ebx+0x61]
  4202e4:	xchg   edi,eax
  4202e5:	and    ecx,DWORD PTR ds:0x4ad82011
  4202eb:	add    BYTE PTR [ebx-0x1b4f9ac4],ch
  4202f1:	sbb    ch,bh
  4202f3:	jg     0x420313
  4202f5:	(bad)  
  4202f6:	adc    ebx,DWORD PTR [esi+0x6cd99d37]
  4202fc:	call   FWORD PTR [eax]
  4202fe:	lea    ecx,[ebx]
  420300:	es gs and ah,0x44
  420305:	leave  
  420306:	(bad)  
  420307:	fild   QWORD PTR ds:0xde5653b
  42030d:	sahf   
  42030e:	xor    eax,0x183de3eb
  420313:	push   cs
  420314:	push   edi
  420315:	ins    DWORD PTR es:[edi],dx
  420316:	push   esp
  420317:	in     al,dx
  420318:	pop    ds
  420319:	rcr    edi,0x6c
  42031c:	jge    0x420308
  42031e:	jbe    0x4202e9
  420320:	outs   dx,BYTE PTR ds:[esi]
  420321:	movs   DWORD PTR es:[edi],DWORD PTR ds:[esi]
  420322:	jmp    0x2cdd30d6
  420327:	or     eax,0x752dbcaa
  42032c:	pop    ds
  42032d:	dec    ebp
  42032e:	lds    eax,FWORD PTR [ebx]
  420330:	arpl   di,dx
  420332:	es or  al,0x14
  420335:	outs   dx,DWORD PTR ds:[esi]
  420336:	dec    ecx
  420337:	sbb    esi,esi
  420339:	pop    edi
  42033a:	fmul   QWORD PTR ds:0x4fe3023c
  420340:	loope  0x420372
  420342:	pushf  
  420343:	jae    0x420323
  420345:	sub    al,0x8c
  420347:	add    BYTE PTR [ebx],bh
  420349:	sub    esp,DWORD PTR [eax+0x5dab3c57]
  42034f:	push   0xdd311279
  420354:	mov    eax,0x8f8fe8a7
  420359:	jl     0x4203bd
  42035b:	mov    ch,0x95
  42035d:	sti    
  42035e:	inc    edi
  42035f:	into   
  420360:	mov    ds:0x8ef89118,eax
  420365:	mov    edx,0xe938c441
  42036a:	arpl   bp,di
  42036c:	lock ds scas al,BYTE PTR es:[edi]
  42036f:	xchg   edx,eax
  420370:	cmps   DWORD PTR ds:[esi],DWORD PTR es:[edi]
  420371:	sub    edi,edi
  420373:	(bad)  
  420374:	shr    BYTE PTR [ecx+0x27dab7ba],cl
  42037a:	or     edi,eax
  42037c:	inc    ebx
  42037d:	jnp    0x4203e4
  42037f:	xchg   ecx,eax
  420380:	push   eax
  420381:	dec    ecx
  420382:	mov    ds:0xbb195726,eax
  420387:	push   cs
  420388:	xor    DWORD PTR [esi+0xd7f37e8],esp
  42038e:	inc    ebx
  42038f:	pop    ds
  420390:	into   
  420391:	cmps   DWORD PTR ds:[esi],DWORD PTR es:[edi]
  420392:	pop    edi
  420393:	test   DWORD PTR [ebp+0x16ccc054],ebp
  420399:	cld    
  42039a:	mov    eax,ds:0xaad03b84
  42039f:	jmp    0x4203b6
  4203a1:	mov    ecx,0xd19dcded
  4203a6:	je     0x420332
  4203a8:	push   ds
  4203a9:	leave  
  4203aa:	dec    esi
  4203ab:	inc    esp
  4203ac:	clc    
  4203ad:	fmul   DWORD PTR [ebx-0x54]
  4203b0:	lods   al,BYTE PTR es:[esi]
  4203b2:	xor    eax,0x5a0b61e6
  4203b7:	cmc    
  4203b8:	pop    esi
  4203b9:	std    
  4203ba:	popf   
  4203bb:	cmps   DWORD PTR ds:[esi],DWORD PTR es:[edi]
  4203bc:	(bad)  
  4203be:	popa   
  4203bf:	sub    DWORD PTR [edi+0x5e],edx
  4203c2:	xchg   ebp,eax
  4203c3:	mov    edi,0xf656c97
  4203c8:	dec    BYTE PTR [edx]
  4203ca:	js     0x42042a
  4203cc:	xchg   edi,eax
  4203cd:	in     eax,dx
  4203ce:	(bad)  
  4203cf:	pop    esp
  4203d0:	mov    ah,0xab
  4203d2:	outs   dx,DWORD PTR ds:[esi]
  4203d3:	sbb    al,0x40
  4203d5:	lods   eax,DWORD PTR ds:[esi]
  4203d6:	popf   
  4203d7:	repnz pop ss
  4203d9:	nop
  4203da:	or     eax,0xf247bfd
  4203df:	les    edi,FWORD PTR [ecx]
  4203e1:	daa    
  4203e2:	outs   dx,BYTE PTR ds:[esi]
  4203e3:	adc    BYTE PTR [edx+ebp*8-0x20],0xbd
  4203e8:	xor    ecx,DWORD PTR [ebx+ecx*2+0x71c659b4]
  4203ef:	push   cs
  4203f0:	test   eax,0x6b60159b
  4203f5:	jno    0x42042b
  4203f7:	adc    DWORD PTR [ecx+0x22],edx
  4203fa:	pop    ss
  4203fb:	ja     0x4203e1
  4203fd:	adc    al,0x38
  4203ff:	cwde   
  420400:	add    al,0x2b
  420402:	popa   
  420403:	movs   BYTE PTR es:[edi],BYTE PTR ds:[esi]
  420404:	add    esi,DWORD PTR [ecx-0x69]
  420407:	(bad)  
  420408:	mov    edi,0x1feba87a
  42040d:	pop    es
  42040e:	bound  eax,QWORD PTR [ebx-0x64]
  420411:	push   0x7c827dde
  420416:	stos   DWORD PTR es:[edi],eax
  420417:	lods   al,BYTE PTR ds:[esi]
  420418:	mov    ebx,DWORD PTR [edi+0x6c71592c]
  42041e:	pop    edx
  42041f:	mov    dl,0x19
  420421:	stos   DWORD PTR es:[edi],eax
  420422:	push   ecx
  420423:	mov    di,0xeea9
  420427:	gs inc ebp
  420429:	out    0x6b,al
  42042b:	test   DWORD PTR [ebx+0x6f],eax
  42042e:	out    dx,eax
  42042f:	fcomp  QWORD PTR [eax+eiz*1]
  420432:	out    0xf4,eax
  420434:	mov    ebp,0x475cac20
  420439:	ja     0x4203c3
  42043b:	and    bl,BYTE PTR [esi]
  42043d:	push   edi
  42043e:	and    BYTE PTR [eax+0x34f051a6],0x0
  420445:	std    
  420446:	xchg   ebx,eax
  420447:	mov    eax,ds:0xfe6a0cdb
  42044c:	sbb    al,0xd6
  42044e:	dec    edi
  42044f:	stos   BYTE PTR es:[edi],al
  420450:	sar    ah,cl
  420452:	xchg   ebp,eax
  420453:	cmps   BYTE PTR ds:[esi],BYTE PTR es:[edi]
  420454:	cmp    esi,DWORD PTR [esi-0x2013f0ab]
  42045a:	xor    edi,DWORD PTR [esi+0x1e]
  42045d:	lods   eax,DWORD PTR ds:[esi]
  42045e:	pop    ebx
  42045f:	(bad)  
  420460:	stos   DWORD PTR es:[edi],eax
  420461:	cmc    
  420462:	mov    esi,DWORD PTR [ebp+0x5a]
  420465:	(bad)
  420469:	sbb    al,0x8e
  42046b:	lahf   
  42046c:	adc    DWORD PTR [edi+0x2e],ebx
  42046f:	lds    edx,FWORD PTR [ebx-0x204f304e]
  420475:	inc    edx
  420476:	adc    eax,0x2d6f25ec
  42047b:	call   FWORD PTR [ebp+0x22707f17]
  420481:	xchg   ecx,eax
  420482:	call   0x9bc1:0x631cbd18
  420489:	cwde   
  42048a:	cdq    
  42048b:	je     0x42042d
  42048d:	mov    ah,0xd
  42048f:	xor    DWORD PTR [edx],esi
  420491:	pop    ecx
  420492:	in     al,dx
  420493:	(bad)  
  420495:	inc    ebx
  420496:	gs in  eax,0x94
  420499:	mov    dl,BYTE PTR [ebx]
  42049b:	jbe    0x42041e
  42049d:	enter  0x5d63,0x11
  4204a1:	jbe    0x420466
  4204a3:	adc    ebx,DWORD PTR [edi+0x421112cd]
  4204a9:	js     0x4204c3
  4204ab:	sbb    DWORD PTR [esi],0xbe4fc6b9
  4204b1:	jns    0x4204a3
  4204b3:	sbb    edi,0x3b14bda5
  4204b9:	addr16 cli 
  4204bb:	jle    0x42052d
  4204bd:	lods   al,BYTE PTR ds:[esi]
  4204be:	shl    bl,cl
  4204c0:	sbb    al,0xed
  4204c2:	push   ds
  4204c3:	rcr    BYTE PTR [ebp+0x34],0x96
  4204c7:	popa   
  4204c8:	cmp    eax,ecx
  4204ca:	push   edi
  4204cb:	pop    ss
  4204cc:	dec    ebx
  4204cd:	test   BYTE PTR [ebx+eax*1],al
  4204d0:	retf   0x3933
  4204d3:	cmp    DWORD PTR [ecx],edi
  4204d5:	mov    esi,0x283049a3
  4204da:	fnstenv gs:[ecx+0x57c5a596]
  4204e1:	(bad)  
  4204e2:	in     eax,dx
  4204e3:	or     eax,0x1e84470b
  4204e8:	ss xchg ecx,eax
  4204ea:	sbb    BYTE PTR [ecx+esi*8+0x6c955cf4],cl
  4204f1:	sub    al,0x4a
  4204f3:	aad    0x3e
  4204f5:	mov    edi,0x83ce7b8
  4204fa:	pusha  
  4204fb:	mov    ds,WORD PTR [edi]
  4204fd:	(bad)  
  4204fe:	jae    0x4204f4
  420500:	out    0x14,eax
  420502:	rcl    DWORD PTR [edi+ebx*1+0x746aa90d],1
  420509:	push   esp
  42050a:	and    bh,0x43
  42050d:	dec    ebx
  42050e:	sbb    al,0x9f
  420510:	sbb    eax,0x5eb1de5
  420515:	dec    ebp
  420516:	sahf   
  420517:	out    0x55,al
  420519:	ror    DWORD PTR [esi-0x7c541d46],1
  42051f:	sub    BYTE PTR [eax-0x3dac38de],ah
  420525:	stos   DWORD PTR es:[edi],eax
  420526:	rcr    DWORD PTR [ebp-0x44],1
  420529:	ss pop es
  42052b:	into   
  42052c:	jnp    0x420538
  42052e:	es mov ch,0x8
  420531:	shl    DWORD PTR [ebp+esi*2-0x21],0x64
  420536:	jmp    0x9610:0xf4530715
  42053d:	dec    esp
  42053e:	jae    0x42059f
  420540:	add    dh,BYTE PTR [ecx-0x19949c0f]
  420546:	cmp    DWORD PTR [ebx-0x671aad00],edx
  42054c:	mov    bl,0x54
  42054e:	fist   WORD PTR [eax]
  420550:	jnp    0x420523
  420552:	push   ss
  420553:	xor    al,0x13
  420555:	xchg   ebp,eax
  420556:	sbb    al,0x50
  420558:	jp     0x420538
  42055a:	mov    edi,0x5a37298b
  42055f:	jo     0x4205cc
  420561:	enter  0xe39,0xdb
  420565:	inc    esp
  420566:	push   ebp
  420567:	cmp    eax,0x36d5cfae
  42056c:	mov    dh,0xaa
  42056e:	pop    ebp
  42056f:	mov    al,0x56
  420571:	test   al,0x24
  420573:	rol    DWORD PTR [ebp+0x2f9525ab],cl
  420579:	ins    DWORD PTR es:[edi],dx
  42057a:	icebp  
  42057b:	jbe    0x4205e8
  42057d:	pop    ss
  42057e:	jae    0x42056f
  420580:	lea    ebx,[edx+eiz*2+0x27497ce9]
  420587:	test   al,0xab
  420589:	pop    ebp
  42058a:	push   cs
  42058b:	add    bl,BYTE PTR [esi+eax*8+0x7de2c604]
  420592:	les    ecx,FWORD PTR [esi+0x8efb9ff]
  420598:	mov    ah,0x64
  42059a:	fist   DWORD PTR gs:[ecx-0x60f7142c]
  4205a1:	aad    0xaf
  4205a3:	push   cs
  4205a4:	cmp    ah,BYTE PTR [ebx]
  4205a6:	pop    ss
  4205a7:	jns    0x42058f
  4205a9:	js     0x4205bc
  4205ab:	fdivr  QWORD PTR [esi]
  4205ad:	lods   al,BYTE PTR ds:[esi]
  4205ae:	or     al,0xfe
  4205b0:	sbb    bh,BYTE PTR [edi-0x3d]
  4205b3:	pop    ds
  4205b4:	add    ebp,DWORD PTR ds:0x6b720e84
  4205ba:	or     BYTE PTR [ebp+ebx*1-0x304b570b],bl
  4205c1:	xor    DWORD PTR fs:[eax],0x47b5acea
  4205c8:	enter  0xf581,0xac
  4205cc:	cmps   DWORD PTR ds:[esi],DWORD PTR es:[edi]
  4205cd:	and    al,BYTE PTR [eax-0x7]
  4205d0:	and    ecx,DWORD PTR [esi+0x7010f162]
  4205d6:	ja     0x4205dd
  4205d8:	sahf   
  4205d9:	shl    BYTE PTR [eax+0x51],0x1e
  4205dd:	lahf   
  4205de:	(bad)  
  4205df:	div    al
  4205e1:	and    dh,BYTE PTR [ebx-0x33d6e3f2]
  4205e7:	dec    edx
  4205e8:	jmp    0xcbcd:0xfdd48a0a
  4205ef:	push   0xe762ed7
  4205f4:	mov    ebp,0x126e4ce5
  4205f9:	add    DWORD PTR [eax+0x7e],edx
  4205fc:	sbb    edi,DWORD PTR [esi]
  4205fe:	pop    edi
  4205ff:	in     eax,dx
  420600:	cld    
  420601:	jp     0x420634
  420603:	jno    0x4205f8
  420605:	pop    ebp
  420606:	cld    
  420607:	or     eax,DWORD PTR [ebx+0x58]
  42060a:	je     0x4205ae
  42060c:	fcmovnb st,st(7)
  42060e:	fst    QWORD PTR [eax+0x5658487]
  420614:	mov    ebp,0x7524219
  420619:	jp     0x420694
  42061b:	aam    0x9f
  42061d:	pushf  
  42061e:	jp     0x420669
  420620:	xchg   ecx,eax
  420621:	scas   eax,DWORD PTR es:[edi]
  420622:	stos   DWORD PTR es:[edi],eax
  420623:	xchg   ebx,eax
  420624:	xor    BYTE PTR ds:0x272eb965,ch
  42062a:	mov    bl,0x3a
  42062c:	mov    edi,0x8f2d8031
  420631:	xchg   ecx,eax
  420632:	imul   ecx,DWORD PTR [edi],0x493d927
  420638:	or     eax,0x155233c1
  42063d:	out    0x9a,al
  42063f:	pop    ebx
  420640:	mov    al,0xdd
  420642:	pop    esi
  420643:	out    dx,al
  420644:	cmps   BYTE PTR ds:[esi],BYTE PTR es:[edi]
  420645:	loop   0x4205d8
  420647:	add    eax,0xe5386a3
  42064c:	aas    
  42064d:	pop    ebp
  42064e:	dec    edx
  42064f:	xchg   edx,eax
  420650:	mov    eax,ds:0x1d8814f0
  420655:	or     DWORD PTR [esp+edx*1+0x67],esi
  420659:	xor    bl,cl
  42065b:	push   es
  42065c:	repz scas al,BYTE PTR es:[edi]
  42065e:	ror    BYTE PTR [esi],1
  420660:	fcom   DWORD PTR [eax]
  420662:	rol    BYTE PTR [edi],cl
  420664:	sbb    eax,0x341cd9b9
  420669:	das    
  42066a:	(bad)  
  42066c:	pusha  
  42066d:	cmp    ebp,esp
  42066f:	mov    ebx,0x6d69c91e
  420674:	pushf  
  420675:	mov    edx,0x211e6df0
  42067a:	jmp    0x4f884a8a
  42067f:	inc    edi
  420680:	and    DWORD PTR [ecx+0x258a3d91],ebp
  420686:	test   BYTE PTR [edx+edx*8-0x39b9d937],dh
  42068d:	jg     0x4206f4
  42068f:	std    
  420690:	cld    
  420691:	xor    DWORD PTR [ebp-0xcbce0d4],edx
  420697:	fadd   st,st(7)
  420699:	stos   BYTE PTR es:[edi],al
  42069a:	in     eax,dx
  42069b:	cmps   BYTE PTR ds:[esi],BYTE PTR es:[edi]
  42069c:	cmc    
  42069d:	out    0x8d,al
  42069f:	std    
  4206a0:	sbb    eax,0xf5e3037d
  4206a5:	sub    BYTE PTR [ecx],al
  4206a7:	and    edi,esi
  4206a9:	outs   dx,BYTE PTR ds:[esi]
  4206aa:	and    eax,0xa6b874b9
  4206af:	bound  ecx,QWORD PTR [ebp+0x1e5d6278]
  4206b5:	xchg   ebp,eax
  4206b6:	xor    bl,bl
  4206b8:	xchg   ecx,eax
  4206b9:	lock cmps DWORD PTR ds:[esi],DWORD PTR es:[edi]
  4206bb:	adc    al,bh
  4206bd:	leave  
  4206be:	sub    al,0xf3
  4206c0:	sbb    eax,0x8446cd3
  4206c5:	(bad)  
  4206c6:	lahf   
  4206c7:	adc    al,0x1d
  4206c9:	stc    
  4206ca:	jle    0x420672
  4206cc:	int    0xc1
  4206ce:	xchg   BYTE PTR [eax],dh
  4206d0:	fcomp  DWORD PTR [ebp+0x2d40f8d9]
  4206d6:	lds    eax,FWORD PTR [esi]
  4206d8:	push   ecx
  4206d9:	popa   
  4206da:	test   eax,0x428db8d4
  4206df:	pop    edi
  4206e0:	frstor [eax+0x62]
  4206e3:	std    
  4206e4:	mov    al,BYTE PTR [edx+ebp*1-0x3eb08864]
  4206eb:	xchg   edx,eax
  4206ec:	inc    eax
  4206ed:	icebp  
  4206ee:	sub    al,BYTE PTR [ebx]
  4206f0:	(bad)  
  4206f2:	pop    ebp
  4206f3:	jne    0x420714
  4206f5:	and    eax,0xec011bc0
  4206fa:	sahf   
  4206fb:	(bad)  
  4206fd:	stos   BYTE PTR es:[edi],al
  4206fe:	xchg   ebp,eax
  4206ff:	lock lods eax,DWORD PTR ds:[esi]
  420701:	outs   dx,DWORD PTR ds:[esi]
  420702:	outs   dx,DWORD PTR ds:[esi]
  420703:	mov    edi,0xcdcacac2
  420708:	sub    al,BYTE PTR [ebp+0x2c8b9563]
  42070e:	inc    eax
  42070f:	adc    al,0x23
  420711:	into   
  420712:	jge    0x420724
  420714:	inc    ebp
  420715:	or     DWORD PTR [ebp+0x65],edx
  420718:	lods   al,BYTE PTR ds:[esi]
  420719:	sub    al,0x71
  42071b:	retf   
  42071c:	push   ds
  42071d:	sub    eax,0x31ff15d3
  420722:	aas    
  420723:	ins    DWORD PTR es:[edi],dx
  420724:	test   BYTE PTR [edx+0x479a8661],ch
  42072a:	stc    
  42072b:	jmp    0x4206dc
  42072d:	xor    ah,BYTE PTR [eax-0x105f7379]
  420733:	les    ebp,FWORD PTR [eax+0x28966575]
  420739:	ret    0x955b
  42073c:	fbld   TBYTE PTR [edi+0x2c]
  42073f:	push   cs
  420740:	out    dx,al
  420741:	cld    
  420742:	mov    BYTE PTR [ebp-0x5c],cl
  420745:	push   0x75ce7756
  42074a:	sbb    dl,dh
  42074c:	das    
  42074d:	xchg   ebx,eax
  42074e:	dec    esi
  42074f:	push   edi
  420750:	test   DWORD PTR [esi],0xad0b6d62
  420756:	and    DWORD PTR [esi],0x7a436075
  42075c:	sbb    eax,esi
  42075e:	lahf   
  42075f:	mov    ebx,0xad6565ea
  420764:	sbb    DWORD PTR [edi+0x72],0x96457b51
  42076b:	push   cs
  42076c:	push   edi
  42076d:	and    eax,0x151da3ea
  420772:	ret    0x71bf
  420775:	idiv   DWORD PTR [ecx]
  420777:	lea    esp,[edi-0x54]
  42077a:	std    
  42077b:	outs   dx,BYTE PTR ds:[esi]
  42077c:	imul   ecx,ebx,0xffffffa2
  42077f:	inc    esp
  420780:	jg     0x4207a0
  420782:	push   cs
  420783:	add    DWORD PTR [ebx-0x29fa9b2e],edi
  420789:	cmp    ch,dh
  42078b:	cwde   
  42078c:	repz mov esi,0x7a5b0fa0
  420792:	xchg   ebp,eax
  420793:	jb     0x4207b1
  420795:	popa   
  420796:	iret   
  420797:	popf   
  420798:	push   edi
  420799:	or     al,BYTE PTR [esp+edi*4]
  42079c:	inc    esp
  42079d:	test   eax,0xecfe0951
  4207a2:	push   es
  4207a3:	int3   
  4207a4:	test   BYTE PTR [esi+edx*8],cl
  4207a7:	mov    ebx,0xe59a5d02
  4207ac:	(bad)  
  4207ad:	repz sub BYTE PTR [eax],0x1e
  4207b1:	and    edx,DWORD PTR ds:0x51ac9314
  4207b7:	jno    0x420806
  4207b9:	push   edi
  4207ba:	retf   0x4d24
  4207bd:	push   0x311e4a40
  4207c2:	popf   
  4207c3:	xor    eax,DWORD PTR [eax-0x4a287512]
  4207c9:	mov    ?,ecx
  4207cb:	sub    BYTE PTR [esp+ecx*2-0x75],dh
  4207cf:	popf   
  4207d0:	(bad)  
  4207d1:	leave  
  4207d2:	cld    
  4207d3:	adc    ch,ah
  4207d5:	nop
  4207d6:	popf   
  4207d7:	cmp    eax,0x994f2aa6
  4207dc:	arpl   WORD PTR [esi+ebp*8],bp
  4207df:	inc    edi
  4207e0:	daa    
  4207e1:	and    eax,0xc30f0b26
  4207e6:	repnz pop ss
  4207e8:	mov    ah,0x86
  4207ea:	xor    dl,BYTE PTR [ecx-0x60]
  4207ed:	mov    al,0x81
  4207ef:	out    0x1c,al
  4207f1:	scas   eax,DWORD PTR es:[edi]
  4207f2:	call   FWORD PTR [eax+edx*8-0x39]
  4207f6:	jnp    0x42079f
  4207f8:	cmps   DWORD PTR ds:[esi],DWORD PTR es:[edi]
  4207f9:	fidiv  DWORD PTR [ebx]
  4207fb:	adc    BYTE PTR [eax+eax*8],cl
  4207fe:	clc    
  4207ff:	stc    
  420800:	push   ds
  420801:	and    DWORD PTR [edx],edi
  420803:	and    BYTE PTR ds:0x9ec67e74,dl
  420809:	lods   al,BYTE PTR ds:[esi]
  42080a:	movs   DWORD PTR es:[edi],DWORD PTR ds:[esi]
  42080b:	imul   eax,DWORD PTR [ecx+0x4b],0xffffffb3
  42080f:	into   
  420810:	jge    0x420812
  420812:	bts    DWORD PTR [ecx+0x1b8e5d1],ebx
  420819:	cld    
  42081a:	fs push ss
  42081c:	dec    edx
  42081d:	dec    esi
  42081e:	xor    eax,0x55aa1a62
  420823:	mov    WORD PTR [ebx+eiz*4],es
  420826:	mov    ds:0x45ee3d2d,eax
  42082b:	sbb    ah,BYTE PTR [eax]
  42082d:	fisttp DWORD PTR [esi+0x7d]
  420830:	sbb    al,0x6f
  420832:	stc    
  420833:	or     eax,0xc1edaac5
  420838:	test   BYTE PTR [esi+0x25],ch
  42083b:	jmp    0x4501d07
  420840:	movs   BYTE PTR es:[edi],BYTE PTR ds:[esi]
  420841:	aaa    
  420842:	bound  ebx,QWORD PTR ds:0xccc293ae
  420848:	dec    eax
  420849:	lods   al,BYTE PTR ds:[esi]
  42084a:	xchg   ecx,eax
  42084b:	(bad)
  42084f:	xchg   BYTE PTR [edi-0x5f],al
  420852:	jle    0x420818
  420854:	les    edi,FWORD PTR [ebx+eiz*2-0x4b]
  420858:	std    
  420859:	cmps   DWORD PTR ds:[esi],DWORD PTR es:[edi]
  42085a:	das    
  42085b:	mov    ?,edi
  42085d:	xchg   BYTE PTR [esi+0x4dfc9ed2],dh
  420863:	rcl    BYTE PTR [ebx],cl
  420865:	fs stos BYTE PTR es:[edi],al
  420867:	sbb    al,0xe
  420869:	stos   BYTE PTR es:[edi],al
  42086a:	(bad)  
  42086b:	std    
  42086c:	fist   WORD PTR [esp+edx*1+0x4d113bc0]
  420873:	adc    ebx,ebp
  420875:	std    
  420876:	ror    BYTE PTR [ecx-0x7c3c9ae4],cl
  42087c:	jg     0x4208a7
  42087e:	jns    0x4208e7
  420880:	cmp    BYTE PTR [ecx+esi*2],0xfe
  420884:	stos   BYTE PTR es:[di],al
  420886:	cdq    
  420887:	sbb    ecx,DWORD PTR [ebp-0x48]
  42088a:	jge    0x420848
  42088c:	lds    edx,FWORD PTR [eax]
  42088e:	ret    
  42088f:	aam    0xf8
  420891:	fs cs js 0x4208ba
  420895:	inc    ebp
  420896:	dec    ebp
  420897:	adc    BYTE PTR [edx-0x54],cl
  42089a:	inc    ebp
  42089b:	add    BYTE PTR ds:0xf7bb5fcf,ah
  4208a1:	hlt    
  4208a2:	mov    al,ds:0x634f8420
  4208a7:	cmc    
  4208a8:	sti    
  4208a9:	addr16 popa 
  4208ab:	sbb    eax,0x78d912b7
  4208b0:	arpl   WORD PTR [edx-0x16a8013],bp
  4208b6:	lea    ecx,[edi+0x1c]
  4208b9:	lds    ebp,FWORD PTR [edx+ecx*2+0x78]
  4208bd:	mov    al,ds:0xa92ec1de
  4208c2:	cmc    
  4208c3:	pop    ss
  4208c4:	mov    edx,0x217681a7
  4208c9:	cmps   BYTE PTR ds:[esi],BYTE PTR es:[edi]
  4208ca:	sbb    BYTE PTR [ebx+ebx*8+0x6e],bh
  4208ce:	gs mov ebp,0xee471050
  4208d4:	cmp    esp,DWORD PTR [ebx+esi*4+0xe]
  4208d8:	adc    eax,0x1175fdaf
  4208dd:	and    DWORD PTR [eax],esi
  4208df:	xchg   BYTE PTR [esi-0x4af74b62],dh
  4208e5:	dec    esp
  4208e6:	call   DWORD PTR [eax+0xe3714ff]
  4208ec:	lahf   
  4208ed:	sti    
  4208ee:	cdq    
  4208ef:	jg     0x420906
  4208f1:	shl    DWORD PTR [edi+ecx*4],0xa1
  4208f5:	icebp  
  4208f6:	imul   ebp,edi,0x1cd9aa1c
  4208fc:	in     eax,0x14
  4208fe:	clc    
  4208ff:	daa    
  420900:	mov    eax,ds:0xfc0b52c
  420905:	or     eax,0xad2704da
  42090a:	jl     0x420918
  42090c:	lea    ecx,[ecx+0x890d842]
  420912:	(bad)  
  420913:	or     eax,0x59647b23
  420918:	repnz pop ebp
  42091a:	jmp    0x420985
  42091c:	pop    ss
  42091d:	mov    ch,0xc7
  42091f:	or     eax,0x17e99098
  420924:	push   edx
  420925:	fist   WORD PTR [edi]
  420927:	cmp    dl,ah
  420929:	pusha  
  42092a:	gs cdq 
  42092c:	xchg   ecx,eax
  42092d:	xchg   edx,eax
  42092e:	add    eax,DWORD PTR [eax]
  420930:	(bad)  
  420931:	dec    ebx
  420932:	jle    0x420944
  420934:	and    eax,0x2d707215
  420939:	mov    esp,0xaadf94c1
  42093e:	jmp    0x42095b
  420940:	xor    eax,0xacdf91fc
  420945:	test   al,0xbd
  420947:	mov    cl,0xe3
  420949:	not    esp
  42094b:	inc    ebx
  42094c:	sbb    edi,ebx
  42094e:	test   eax,0xc527c3c5
  420953:	jle    0x420980
  420955:	dec    esp
  420956:	lods   eax,DWORD PTR ds:[esi]
  420957:	dec    ecx
  420958:	scas   eax,DWORD PTR es:[edi]
  420959:	out    dx,al
  42095a:	adc    al,0xf
  42095c:	loope  0x420967
  42095e:	fstp   TBYTE PTR [ebx-0xd64ccf1]
  420964:	shl    DWORD PTR [ebp+0x6acc158a],1
  42096a:	sub    ah,bl
  42096c:	push   ds
  42096d:	test   eax,0x3f17f533
  420972:	lahf   
  420973:	and    bh,BYTE PTR [ecx-0x56]
  420976:	dec    ebp
  420977:	fadd   st(1),st
  420979:	and    dl,0x76
  42097c:	push   0x13ca7526
  420981:	pop    ebp
  420982:	mov    ebx,cs
  420984:	xchg   ebx,eax
  420985:	xchg   edi,eax
  420986:	sar    BYTE PTR [ecx+edx*2],0xc8
  42098a:	and    ebp,edi
  42098c:	adc    ecx,DWORD PTR [ebp+0x62b90de7]
  420992:	push   edi
  420993:	pop    edi
  420994:	push   ds
  420995:	cmp    eax,0x2996013c
  42099a:	into   
  42099b:	ds clc 
  42099d:	lods   al,BYTE PTR ds:[esi]
  42099e:	rcl    DWORD PTR [esp+edi*4],1
  4209a1:	out    0xf2,al
  4209a3:	sub    BYTE PTR [ebx-0x39],dl
  4209a6:	sub    al,0xc9
  4209a8:	inc    eax
  4209a9:	mov    WORD PTR [ebx+0x79],fs
  4209ac:	cli    
  4209ad:	dec    ebx
  4209ae:	test   al,0x49
  4209b0:	mov    ds:0x9dd47a9c,eax
  4209b5:	ja     0x42099a
  4209b7:	xchg   ebp,eax
  4209b8:	retf   
  4209b9:	bound  ebx,QWORD PTR [ecx]
  4209bb:	adc    al,0x4e
  4209bd:	cs lods eax,DWORD PTR fs:[esi]
  4209c0:	loope  0x420a10
  4209c2:	mov    ecx,0x4d95bf51
  4209c7:	push   esi
  4209c8:	idiv   DWORD PTR ds:0x4a270f37
  4209ce:	mov    ds:0xe51d689d,eax
  4209d3:	mul    cl
  4209d5:	das    
  4209d6:	fs mov ecx,0x56683b77
  4209dc:	test   eax,0x1c4e34c2
  4209e1:	xor    eax,0xcd152d48
  4209e6:	lds    edi,FWORD PTR [ebx+0x1e]
  4209e9:	adc    DWORD PTR [ebx],ecx
  4209eb:	or     ebp,esp
  4209ed:	dec    ebp
  4209ee:	es cwde 
  4209f0:	pop    edi
  4209f1:	jmp    0x4209c4
  4209f3:	lea    esi,[ebx]
  4209f5:	neg    DWORD PTR [ebp+0x2d]
  4209f8:	cmp    eax,0xc2364b5
  4209fd:	cmp    eax,0x61d665b8
  420a03:	gs or  ebp,0x1d
  420a07:	mov    BYTE PTR [edi-0x35],bh
  420a0a:	mov    dl,0xf
  420a0c:	jmp    0x38a02a86
  420a11:	jmp    0x420a62
  420a13:	inc    ecx
  420a14:	push   ebp
  420a15:	pop    esp
  420a16:	fs and eax,0x17142b25
  420a1c:	out    dx,eax
  420a1d:	rcr    BYTE PTR [ecx+0x42c19f0f],0xbb
  420a24:	stos   BYTE PTR es:[edi],al
  420a25:	xor    BYTE PTR [edi],dh
  420a27:	mov    ch,0xc3
  420a29:	ficomp DWORD PTR gs:[eax+ecx*4+0x48996327]
  420a31:	outs   dx,BYTE PTR ds:[esi]
  420a32:	cmp    DWORD PTR [edx-0x56],ecx
  420a35:	inc    ebp
  420a36:	repz mov ecx,0x60e1d1e1
  420a3c:	adc    ah,BYTE PTR ds:0x42fccd52
  420a42:	xchg   esp,eax
  420a43:	push   ebp
  420a44:	pop    ecx
  420a45:	arpl   si,si
  420a47:	ficomp DWORD PTR cs:[edx+0x68a7ed6f]
  420a4e:	or     DWORD PTR gs:[eax],esi
  420a51:	fiadd  WORD PTR [edi+0x61fa6cfa]
  420a57:	push   ecx
  420a58:	test   al,0xd
  420a5a:	jle    0x420a5b
  420a5c:	ret    
  420a5d:	(bad)  
  420a5e:	les    ecx,FWORD PTR [edi]
  420a60:	(bad)  
  420a61:	retf   0xdcd2
  420a64:	(bad)  
  420a65:	mov    WORD PTR [ecx+0x213d1ca5],cs
  420a6b:	adc    DWORD PTR [eax],esi
  420a6d:	loope  0x420ab3
  420a6f:	lods   al,BYTE PTR ds:[esi]
  420a70:	sbb    BYTE PTR [edx+0x3da62605],ch
  420a76:	hlt    
  420a77:	scas   eax,DWORD PTR es:[edi]
  420a78:	jb     0x420a13
  420a7a:	jo     0x4209ff
  420a7c:	push   ds
  420a7d:	xchg   ebp,eax
  420a7e:	push   0xb4542c7
  420a83:	push   0x6a35a95d
  420a88:	jl     0x420add
  420a8a:	repz inc esi
  420a8c:	sti    
  420a8d:	es nop
  420a8f:	ja     0x420a54
  420a91:	adc    ah,BYTE PTR [edx-0x23]
  420a94:	dec    edi
  420a95:	sbb    ecx,eax
  420a97:	mov    BYTE PTR [ecx-0x7c64acab],dl
  420a9d:	loop   0x420a62
  420a9f:	inc    ebp
  420aa0:	dec    ecx
  420aa1:	sbb    DWORD PTR [ebp+eax*2+0x4e],esp
  420aa5:	pop    es
  420aa6:	call   0xef04c1ab
  420aab:	add    DWORD PTR [ebx-0x4c],ecx
  420aae:	mov    al,dh
  420ab0:	sbb    DWORD PTR [ebp+0x1343ba1d],edi
  420ab6:	(bad)  
  420ab7:	mov    esp,0x3467a9d9
  420abc:	push   esi
  420abd:	inc    edx
  420abe:	hlt    
  420abf:	fst    DWORD PTR [ecx+0x4eed05aa]
  420ac5:	pusha  
  420ac6:	js     0x420afa
  420ac8:	cs adc al,0xbb
  420acb:	push   esi
  420acc:	data16 jl 0x420a70
  420acf:	lea    ebp,[eax-0x6a4a9ab1]
  420ad5:	movs   BYTE PTR es:[edi],BYTE PTR ds:[esi]
  420ad6:	std    
  420ad7:	adc    eax,0x75e1a99c
  420adc:	inc    ebp
  420add:	add    al,0xda
  420adf:	repnz rcl BYTE PTR [esi+0x2902bd6d],cl
  420ae6:	push   edi
  420ae7:	pop    ecx
  420ae8:	prefetch BYTE PTR [edi+0x5d]
  420aec:	mov    ds:0x7901758d,al
  420af1:	std    
  420af2:	call   0x3cf:0x73acda47
  420af9:	push   ebp
  420afa:	enter  0x9272,0xa2
  420afe:	es inc ebx
  420b00:	mov    ebx,0xbc76a4a6
  420b05:	lods   al,BYTE PTR ds:[esi]
  420b06:	dec    ebp
  420b07:	pop    ecx
  420b08:	or     DWORD PTR [ecx+0x79420be8],eax
  420b0e:	xchg   edi,eax
  420b0f:	add    ch,al
  420b11:	and    DWORD PTR [ebx-0x67],0xffffffc0
  420b15:	dec    esi
  420b16:	add    bl,BYTE PTR [ebx]
  420b18:	repz dec eax
  420b1a:	mov    ah,0x13
  420b1c:	jp     0x420b76
  420b1e:	fs popf 
  420b20:	ret    
  420b21:	out    dx,eax
  420b22:	mov    ds,WORD PTR [edi+0x5963879a]
  420b28:	movs   BYTE PTR es:[edi],BYTE PTR ds:[esi]
  420b29:	push   ss
  420b2a:	sbb    al,0x7a
  420b2c:	hlt    
  420b2d:	cmp    DWORD PTR [eax+edx*1+0x6c4629c6],ebx
  420b34:	sbb    eax,0xd8538d01
  420b39:	sbb    dh,bh
  420b3b:	xchg   edx,eax
  420b3c:	and    ch,BYTE PTR [edx+0x708916a5]
  420b42:	fisubr WORD PTR [eax-0x2]
  420b45:	daa    
  420b46:	ss in  al,dx
  420b48:	dec    edi
  420b49:	cmp    eax,0xff523964
  420b4e:	mov    ch,0x3f
  420b50:	nop
  420b51:	mov    edx,0x583315ef
  420b56:	std    
  420b57:	movhlps xmm7,xmm0
  420b5a:	sbb    edx,DWORD PTR [edi+0x3f]
  420b5d:	inc    ecx
  420b5e:	adc    eax,0x64c35b6e
  420b63:	imul   eax,DWORD PTR [ebx],0x5f3b0bb4
  420b69:	jno    0x420af0
  420b6b:	(bad)  
  420b6d:	div    dl
  420b6f:	xor    eax,0x89632332
  420b74:	pop    eax
  420b75:	jmp    0x420bc3
  420b77:	xor    al,0xb
  420b79:	xchg   ecx,eax
  420b7a:	bound  edx,QWORD PTR [eax]
  420b7c:	adc    dl,BYTE PTR [ebx]
  420b7e:	hlt    
  420b7f:	jg     0x420b9e
  420b81:	aad    0xc9
  420b83:	cmc    
  420b84:	fwait
  420b85:	test   edx,eax
  420b87:	repnz out dx,eax
  420b89:	lea    eax,[ebp-0x4109d874]
  420b8f:	scas   eax,DWORD PTR es:[edi]
  420b90:	div    DWORD PTR [ebx-0x7ae3f088]
  420b96:	retf   
  420b97:	cmps   DWORD PTR ds:[esi],DWORD PTR es:[edi]
  420b98:	adc    esi,DWORD PTR [edi]
  420b9a:	mov    ch,0x25
  420b9c:	jne    0x420b3a
  420b9e:	push   ecx
  420b9f:	xor    DWORD PTR [edi-0x51],esi
  420ba2:	retf   0xdda8
  420ba5:	cmp    DWORD PTR [ecx],edx
  420ba7:	adc    BYTE PTR [esi],bl
  420ba9:	mov    ebp,0x28d64e27
  420bae:	scas   eax,DWORD PTR es:[edi]
  420baf:	pop    esi
  420bb0:	adc    eax,0x9d69d1aa
  420bb5:	mov    eax,0x5b77ee18
  420bba:	loope  0x420c15
  420bbc:	sbb    al,0xcd
  420bbe:	data16 lahf 
  420bc0:	add    al,0xfe
  420bc2:	(bad)  
  420bc3:	imul   ebp,DWORD PTR [edx+0x40e401ab],0x45611854
  420bcd:	(bad)  
  420bce:	lods   al,BYTE PTR ds:[esi]
  420bcf:	jp     0x420bb7
  420bd1:	and    DWORD PTR [ebx-0x5b],esp
  420bd4:	mov    WORD PTR [eax+ebx*1-0x8a81078],cs
  420bdb:	or     eax,0xde6a776c
  420be0:	add    BYTE PTR ds:0x37dd2001,ah
  420be6:	or     BYTE PTR [ecx-0x161e4f4d],bl
  420bec:	das    
  420bed:	retf   
  420bee:	fimul  DWORD PTR [esi]
  420bf0:	adc    al,0x21
  420bf2:	in     eax,0x8a
  420bf4:	add    esp,DWORD PTR [ebp+0x31]
  420bf7:	stc    
  420bf8:	or     al,0x43
  420bfa:	pusha  
  420bfb:	mov    esi,0x9aa54e26
  420c00:	mov    ds:0xea0f406e,eax
  420c05:	lock jb 0x420bee
  420c08:	sbb    eax,0x4af90501
  420c0d:	push   ebx
  420c0e:	mov    esi,0xbd8eea84
  420c13:	imul   esi,edx,0x1a19e663
  420c19:	icebp  
  420c1a:	cld    
  420c1b:	shl    dh,1
  420c1d:	in     al,0x49
  420c1f:	jnp    0x420bf8
  420c21:	or     ebp,DWORD PTR [edi]
  420c23:	in     al,dx
  420c24:	xor    al,0x95
  420c26:	bound  esi,QWORD PTR ds:0x5365aaf9
  420c2c:	cmp    BYTE PTR [eax-0x55],0xee
  420c30:	call   0x64b5:0xe6513f6
  420c37:	and    DWORD PTR [ebx],esi
  420c39:	sbb    eax,0x5f77e90c
  420c3e:	retf   0xde98
  420c41:	inc    esi
  420c42:	pop    ebp
  420c43:	sti    
  420c44:	shr    DWORD PTR [edx],0x6e
  420c47:	(bad)  
  420c49:	mov    edx,0x81f33bc7
  420c4e:	bound  esp,QWORD PTR [ebp-0x44deb1f]
  420c54:	mov    edi,0x5d0e73ae
  420c59:	add    al,0x48
  420c5b:	cmp    BYTE PTR [ecx],bl
  420c5d:	imul   edx,DWORD PTR [edi-0x55c638ba],0x289d3f55
  420c67:	repz or edx,DWORD PTR [ebp-0x30a7f281]
  420c6e:	repnz retf 0x3975
  420c72:	test   dl,bh
  420c74:	mov    bl,0x57
  420c76:	sub    eax,0xc0166a69
  420c7b:	(bad)  
  420c7c:	in     al,dx
  420c7d:	cwde   
  420c7e:	adc    eax,0x2ad61938
  420c83:	and    al,0x5c
  420c85:	call   0x4d451a5c
  420c8a:	call   0x20f7:0x75299132
  420c91:	jnp    0x420cb8
  420c93:	push   edi
  420c94:	adc    DWORD PTR [ebx-0x3],ecx
  420c97:	nop
  420c98:	or     edx,DWORD PTR [ecx]
  420c9a:	or     DWORD PTR [esi],0xa5ec96e9
  420ca0:	pop    esi
  420ca1:	cmp    edx,DWORD PTR [edi]
  420ca3:	add    edi,esp
  420ca5:	movs   DWORD PTR es:[edi],DWORD PTR ds:[esi]
  420ca6:	bound  esp,QWORD PTR [ebp+0x73]
  420ca9:	lock push es
  420cab:	(bad)
  420cae:	cmp    dl,bl
  420cb0:	sbb    eax,0xbba80215
  420cb5:	inc    eax
  420cb6:	neg    BYTE PTR [edx+0x7c]
  420cb9:	test   eax,0x9b8cf619
  420cbe:	sub    al,0xa7
  420cc0:	inc    esi
  420cc1:	pop    ss
  420cc2:	pusha  
  420cc3:	add    ecx,DWORD PTR [eax+0x68]
  420cc6:	mov    ah,0x10
  420cc8:	inc    ecx
  420cc9:	mul    DWORD PTR [edx-0x17]
  420ccc:	gs stos BYTE PTR es:[edi],al
  420cce:	std    
  420ccf:	xchg   BYTE PTR [ebx+0x1d],ch
  420cd2:	ret    
  420cd3:	jbe    0x420d0f
  420cd5:	mov    dh,0xee
  420cd7:	stos   BYTE PTR es:[edi],al
  420cd8:	das    
  420cd9:	pop    eax
  420cda:	xchg   ebp,eax
  420cdb:	jnp    0x420d30
  420cdd:	test   al,0xed
  420cdf:	mov    dl,0x79
  420ce1:	lods   al,BYTE PTR ds:[esi]
  420ce2:	sub    cl,ah
  420ce4:	xchg   ebx,eax
  420ce5:	cmc    
  420ce6:	xor    ebx,DWORD PTR [eax-0x775e5474]
  420cec:	imul   esi,ecx,0xa7a5598d
  420cf2:	and    BYTE PTR [ebp-0x1d],al
  420cf5:	or     eax,0xa05e611c
  420cfa:	bound  eax,QWORD PTR [ecx+0x69]
  420cfd:	stos   DWORD PTR es:[edi],eax
  420cfe:	shl    DWORD PTR [ecx+0x8],0x3f
  420d02:	jnp    0x420d27
  420d04:	push   ebp
  420d05:	les    edx,FWORD PTR [eax-0x22]
  420d08:	in     al,dx
  420d09:	test   DWORD PTR [ecx+0x2d],ebx
  420d0c:	push   ds
  420d0d:	lods   al,BYTE PTR ds:[esi]
  420d0e:	adc    ebx,DWORD PTR [esi]
  420d10:	outs   dx,DWORD PTR ds:[esi]
  420d11:	mov    bh,0x1b
  420d13:	inc    esp
  420d14:	xlat   BYTE PTR ds:[ebx]
  420d15:	xor    DWORD PTR [ecx-0x74d20df0],esi
  420d1b:	jne    0x420d3c
  420d1d:	cmc    
  420d1e:	jbe    0x420d00
  420d20:	ret    
  420d21:	iret   
  420d22:	in     eax,dx
  420d23:	push   ds
  420d24:	push   es
  420d25:	stos   BYTE PTR es:[edi],al
  420d26:	imul   ebp,edx,0xc50359cf
  420d2c:	dec    ecx
  420d2d:	add    ch,al
  420d2f:	mov    ch,BYTE PTR [ebx+0x81d6332]
  420d35:	adc    dl,bh
  420d37:	into   
  420d38:	in     al,0x71
  420d3a:	xchg   BYTE PTR fs:[esp+esi*2],bl
  420d3e:	adc    DWORD PTR [edi+0x6c],ebp
  420d41:	es (bad) 
  420d45:	mov    esi,0xab3d202b
  420d4a:	add    eax,0x8ac9a57a
  420d4f:	pop    ebx
  420d50:	push   es
  420d51:	in     eax,dx
  420d52:	fimul  DWORD PTR [ecx+esi*2-0x62]
  420d56:	push   edi
  420d57:	jno    0x420da6
  420d59:	sub    ebp,DWORD PTR [edi]
  420d5b:	mov    ah,BYTE PTR [ebp+0x3e3871ab]
  420d61:	fwait
  420d62:	(bad)  
  420d63:	mov    esp,0x7dd81bb3
  420d68:	mov    eax,ds:0xb40d61f6
  420d6d:	out    dx,al
  420d6e:	adc    eax,0x68ceebf7
  420d73:	movaps xmm3,xmm3
  420d76:	xor    DWORD PTR [esi+0x2c26991d],ecx
  420d7c:	div    al
  420d7e:	dec    ebx
  420d7f:	xchg   esp,eax
  420d80:	data16 stos BYTE PTR es:[edi],al
  420d82:	mov    ebp,0x38e37e39
  420d87:	gs push esi
  420d89:	add    eax,0x636a5833
  420d8e:	fisttp QWORD PTR fs:[eax+0x335e84ef]
  420d95:	add    edx,DWORD PTR [esi]
  420d97:	adc    edx,eax
  420d99:	xchg   bh,cl
  420d9b:	jmp    0x29f7e6b0
  420da0:	movs   DWORD PTR es:[edi],DWORD PTR ds:[esi]
  420da1:	adc    DWORD PTR [ecx-0x21],esp
  420da4:	(bad)  
  420da5:	call   0xb3d7:0x645e0f8a
  420dac:	sbb    DWORD PTR [ebp-0x321b4447],ebx
  420db2:	sub    ch,al
  420db4:	pushf  
  420db5:	lahf   
  420db6:	pop    ebx
  420db7:	fistp  QWORD PTR [ebx-0x6327979a]
  420dbd:	clc    
  420dbe:	imul   esi,ebx,0x39742f0
  420dc4:	in     al,0xac
  420dc6:	add    eax,0x5c024c74
  420dcb:	mov    DWORD PTR [esp+ebp*4+0x9],eax
  420dcf:	xchg   esp,eax
  420dd0:	mov    WORD PTR [esi],cs
  420dd2:	adc    BYTE PTR [eax-0x54b69a75],0x5
  420dd9:	jne    0x420e32
  420ddb:	xor    DWORD PTR [edx],edi
  420ddd:	test   eax,0x9079e8de
  420de2:	inc    ecx
  420de3:	shr    DWORD PTR [edi-0x5e],1
  420de6:	fidiv  WORD PTR [esi+0x1e]
  420de9:	jmp    0x420e17
  420deb:	mov    gs:0x3bf14dd,al
  420df1:	add    DWORD PTR [edx],0x68678e37
  420df7:	xor    BYTE PTR [ecx],bh
  420df9:	inc    ebx
  420dfa:	movs   DWORD PTR es:[edi],DWORD PTR ds:[esi]
  420dfb:	int    0x4b
  420dfd:	push   ebx
  420dfe:	int3   
  420dff:	push   cs
  420e00:	mov    ebp,eax
  420e02:	fidivr DWORD PTR [edi]
  420e04:	sbb    eax,0xcfe39c51
  420e09:	frstor [edi-0x4dd7bba8]
  420e0f:	jmp    0xcb9d:0xfa04af7e
  420e16:	jmp    0x3a3:0xb3b7c49e
  420e1d:	in     eax,0x23
  420e1f:	(bad)  [edx+0x1f]
  420e22:	rol    DWORD PTR [ebx+0x2],1
  420e25:	pop    ds
  420e26:	in     al,0xa0
  420e28:	iret   
  420e29:	pop    esi
  420e2a:	in     al,dx
  420e2b:	or     eax,0xfcbaffe
  420e30:	lods   al,BYTE PTR ds:[esi]
  420e31:	call   0x9a61a8cf
  420e36:	popf   
  420e37:	xor    DWORD PTR [eax+0x5a],edi
  420e3a:	hlt    
  420e3b:	and    dh,BYTE PTR [ebx-0x22]
  420e3e:	cmp    edx,DWORD PTR [ecx]
  420e40:	xchg   edi,eax
  420e41:	(bad)  [esi]
  420e43:	and    ebx,DWORD PTR [ecx+edi*4]
  420e46:	pop    ebp
  420e47:	jnp    0x420e6f
  420e49:	pop    ds
  420e4a:	les    ecx,FWORD PTR [ecx-0x25]
  420e4d:	cmp    al,BYTE PTR [eax+0x7e]
  420e50:	out    0xfc,eax
  420e52:	dec    edx
  420e53:	sub    eax,0xdb555d1c
  420e58:	add    eax,0x12baef7e
  420e5d:	cld    
  420e5e:	adc    eax,0x6082f8bd
  420e63:	jge    0x420e53
  420e65:	int    0x35
  420e67:	push   ds
  420e68:	rol    DWORD PTR [eax-0x564f03e3],cl
  420e6e:	xlat   BYTE PTR ds:[ebx]
  420e6f:	mov    bl,0x47
  420e71:	dec    edi
  420e72:	aaa    
  420e73:	jo     0x420e56
  420e75:	pop    esp
  420e76:	xchg   ebx,eax
  420e77:	xchg   ecx,eax
  420e78:	jbe    0x420e26
  420e7a:	jge    0x420e49
  420e7c:	dec    ebx
  420e7d:	fscale 
  420e7f:	cmp    al,BYTE PTR [ebx]
  420e81:	jae    0x420e36
  420e83:	sahf   
  420e84:	push   ds
  420e85:	lea    edx,[edi+0x3b92723]
  420e8b:	jmp    0xf42e:0x34853f47
  420e92:	bound  ebp,QWORD PTR [ebp+0x1a331d95]
  420e98:	dec    ebx
  420e99:	arpl   WORD PTR [edi],dx
  420e9b:	adc    BYTE PTR [edi+0x30],bh
  420e9e:	jl     0x420ed9
  420ea0:	sbb    eax,0x421ee1bd
  420ea5:	pop    ds
  420ea6:	adc    eax,0xafe3c4fa
  420eac:	arpl   WORD PTR [edx],bp
  420eae:	fimul  WORD PTR [edi]
  420eb0:	push   eax
  420eb1:	cld    
  420eb2:	mov    esi,0xbc611c9f
  420eb7:	fiadd  DWORD PTR [eax]
  420eb9:	jnp    0x420f2c
  420ebb:	iret   
  420ebc:	lods   al,BYTE PTR fs:[esi]
  420ebe:	add    eax,0x9c75db25
  420ec3:	fiadd  DWORD PTR [edx-0x54c19150]
  420ec9:	stos   DWORD PTR es:[edi],eax
  420eca:	bound  esp,QWORD PTR ds:0x4c6d639d
  420ed0:	ja     0x420f34
  420ed2:	fwait
  420ed3:	adc    BYTE PTR [esi],ch
  420ed5:	cli    
  420ed6:	icebp  
  420ed7:	and    cl,al
  420ed9:	test   al,bl
  420edb:	lods   eax,DWORD PTR ds:[esi]
  420edc:	sbb    eax,0x3f5ebf81
  420ee1:	jmp    0x50cd:0x62428894
  420ee8:	shr    DWORD PTR [ebx+0x78a9835d],0xf8
  420eef:	mov    ecx,0x4afd6733
  420ef4:	mov    bl,0x76
  420ef6:	inc    edi
  420ef7:	(bad)
  420efa:	and    al,0x55
  420efc:	dec    esi
  420efd:	stos   DWORD PTR es:[edi],eax
  420efe:	xchg   ecx,eax
  420eff:	inc    ebp
  420f00:	je     0x420e83
  420f02:	jl     0x420f19
  420f04:	xchg   ebx,eax
  420f05:	add    eax,0x3bcda51a
  420f0a:	jmp    0x357c:0x624c2dec
  420f11:	jo     0x420eb0
  420f13:	cs jne 0x420eac
  420f16:	ret    
  420f17:	sbb    ebx,DWORD PTR [eax+0x7680a625]
  420f1d:	frstor [ecx-0x1529437a]
  420f23:	jo     0x420ea9
  420f25:	push   ebx
  420f26:	push   ecx
  420f27:	fsub   st(6),st
  420f29:	fldenv [esi+ebp*2-0x71]
  420f2d:	xor    eax,0x319ef428
  420f32:	and    DWORD PTR [ebx-0x40d7c061],eax
  420f38:	mov    ch,0x51
  420f3a:	nop
  420f3b:	cmc    
  420f3c:	jb     0x420ee9
  420f3e:	jns    0x420f60
  420f40:	push   esp
  420f41:	hlt    
  420f42:	lea    ebp,[edx-0x33]
  420f45:	dec    edi
  420f46:	pop    ebp
  420f47:	jle    0x420eef
  420f49:	outs   dx,BYTE PTR ds:[esi]
  420f4a:	mov    cl,0xc5
  420f4c:	sbb    al,0x99
  420f4e:	(bad)  
  420f50:	lock sar BYTE PTR [ecx+0x62630ee9],1
  420f57:	or     ebp,esi
  420f59:	cmp    BYTE PTR [bx],ch
  420f5c:	daa    
  420f5d:	sbb    DWORD PTR [ecx-0x65ea622e],ebp
  420f63:	xchg   ebp,eax
  420f64:	call   0x6455:0xe740368e
  420f6b:	fstp   st(6)
  420f6d:	nop
  420f6e:	mov    al,ds:0x81ef530c
  420f73:	(bad)  
  420f74:	sub    DWORD PTR [edx-0x15dcd332],ebp
  420f7a:	pop    edx
  420f7b:	push   0xffffffc2
  420f7d:	mov    al,0xf3
  420f7f:	rol    BYTE PTR [ecx],0xb9
  420f82:	retf   
  420f83:	addr16 faddp st(6),st
  420f86:	xor    eax,0xd956ffb
  420f8b:	pop    ecx
  420f8c:	push   esp
  420f8d:	inc    ecx
  420f8e:	adc    ch,ch
  420f90:	in     al,0x50
  420f92:	clc    
  420f93:	divps  xmm3,XMMWORD PTR [ebp+0x24172fe]
  420f9a:	push   edi
  420f9b:	and    DWORD PTR [esi],0x80c7ff2b
  420fa1:	(bad)
  420fa4:	dec    edx
  420fa5:	stos   BYTE PTR es:[edi],al
  420fa6:	lea    edi,[ecx]
  420fa8:	mov    DWORD PTR [esi],eax
  420faa:	lds    eax,FWORD PTR [ebp+0x243d4629]
  420fb0:	or     dl,bl
  420fb2:	inc    esi
  420fb3:	in     eax,dx
  420fb4:	fadd   DWORD PTR ds:0xc93d56b4
  420fba:	inc    ebp
  420fbb:	mov    dl,0x6b
  420fbd:	mov    al,0x49
  420fbf:	adc    ebp,edi
  420fc1:	pushf  
  420fc2:	xchg   BYTE PTR [edi-0x45129ee5],al
  420fc8:	mov    dl,0x1c
  420fca:	pop    edi
  420fcb:	loopne 0x420f57
  420fcd:	cmp    DWORD PTR [eax+0x6a],esi
  420fd0:	idiv   BYTE PTR [ebx]
  420fd2:	in     eax,0xc1
  420fd4:	stos   BYTE PTR es:[edi],al
  420fd5:	nop
  420fd6:	aas    
  420fd7:	in     eax,0x32
  420fd9:	cs (bad) 
  420fdc:	aaa    
  420fdd:	xor    ah,BYTE PTR [edx+0x48]
  420fe0:	pop    ds
  420fe1:	push   ebp
  420fe2:	or     DWORD PTR [edx+0x19],ebp
  420fe5:	inc    eax
  420fe6:	(bad)  
  420fe7:	arpl   WORD PTR [ecx-0x54],si
  420fea:	cmp    eax,0x7fa12473
  420fef:	comiss xmm5,DWORD PTR [edi+0x516d67a0]
  420ff6:	arpl   WORD PTR [ebp+0x4b8259ef],ax
  420ffc:	jae    0x421057
  420ffe:	add    DWORD PTR [esi],ecx
  421000:	mov    DWORD PTR ds:0x91d278e,ebp
  421006:	inc    esi
  421007:	mov    BYTE PTR [ebx+0x1c],al
  42100a:	into   
  42100b:	add    bh,BYTE PTR [ebx]
  42100d:	jae    0x420ff0
  42100f:	aam    0xde
  421011:	sti    
  421012:	pop    edi
  421013:	inc    esp
  421014:	cmp    edx,DWORD PTR [edx]
  421016:	loop   0x421077
  421018:	sbb    al,0xe5
  42101a:	mov    edx,0x9f1298d
  42101f:	add    dl,bl
  421021:	sub    ebp,DWORD PTR [esp]
  421024:	or     eax,0x1e30cf06
  421029:	mov    eax,ds:0xaa443eaa
  42102e:	(bad)  
  42102f:	(bad)  
  421030:	data16 adc al,0x66
  421033:	in     al,0x8f
  421035:	xor    ecx,eax
  421037:	lahf   
  421038:	add    DWORD PTR [esi+0x250a9974],ecx
  42103e:	sbb    BYTE PTR [edx],0x9f
  421041:	mov    DWORD PTR [edx-0x7896e0f5],esp
  421047:	push   ebx
  421048:	loope  0x42108b
  42104a:	(bad)  
  42104b:	mov    esp,0x4b63c29a
  421050:	xchg   ebx,eax
  421051:	fucomi st,st(3)
  421053:	rdtsc  
  421055:	outs   dx,BYTE PTR ds:[esi]
  421056:	mov    ebp,0xed951c27
  42105b:	inc    ecx
  42105c:	sbb    edi,DWORD PTR [esi+0x5b]
  42105f:	imul   edi,DWORD PTR [edx+0xfccf1ac],0x3315e06e
  421069:	ret    0xd3f8
  42106c:	repnz cmp DWORD PTR [ebp+0x7c],esi
  421070:	pop    ds
  421071:	push   edi
  421072:	loop   0x421009
  421074:	aam    0x87
  421076:	adc    BYTE PTR [edi],bl
  421078:	ja     0x42109a
  42107a:	pop    ecx
  42107b:	pinsrw mm6,ebx,0x9b
  42107f:	sbb    BYTE PTR [esi-0x3],al
  421082:	dec    edx
  421083:	fstp   QWORD PTR [ebx]
  421085:	jmp    0x40f1e1ed
  42108a:	xchg   DWORD PTR ds:0xf269e79f,ebx
  421090:	xchg   edi,eax
  421091:	es mov bl,0x33
  421094:	inc    esp
  421095:	cmp    edi,DWORD PTR [edx]
  421097:	or     edx,ebx
  421099:	and    BYTE PTR [eax],bh
  42109b:	movs   BYTE PTR es:[di],BYTE PTR ds:[si]
  42109d:	movs   BYTE PTR es:[edi],BYTE PTR ds:[esi]
  42109e:	pop    ebp
  42109f:	push   esp
  4210a0:	mov    ebx,0xc0a76471
  4210a5:	mov    esi,0x351d1798
  4210aa:	lds    esi,FWORD PTR [ebp+0x3]
  4210ad:	add    eax,eax
  4210af:	inc    edi
  4210b0:	push   ds
  4210b1:	mov    DWORD PTR [eax],edx
  4210b3:	push   edi
  4210b4:	dec    eax
  4210b5:	mov    BYTE PTR [esi-0x4c1b4630],ah
  4210bb:	push   esp
  4210bc:	dec    edx
  4210bd:	stos   DWORD PTR es:[edi],eax
  4210be:	icebp  
  4210bf:	xor    bl,ch
  4210c1:	adc    eax,0x30002e2b
  4210c6:	add    BYTE PTR [eax+0x2d],dl
  4210c9:	add    ah,BYTE PTR [ebp-0x33]
  4210cc:	push   edi
  4210cd:	js     0x421134
  4210cf:	retf   0xfb63
  4210d2:	mov    eax,0x4a30120e
  4210d7:	xchg   DWORD PTR [edx+0x1edcde90],ebp
  4210dd:	sbb    ecx,DWORD PTR ds:0xdc0341a5
  4210e3:	and    dh,cl
  4210e5:	adc    al,0xb9
  4210e7:	sbb    BYTE PTR [ebp-0x72507a56],bh
  4210ed:	pop    ss
  4210ee:	pop    es
  4210ef:	sahf   
  4210f0:	lods   al,BYTE PTR ds:[esi]
  4210f1:	in     al,dx
  4210f2:	fmul   QWORD PTR [esi+0x1d]
  4210f5:	(bad)  
  4210f6:	call   0x7e9743
  4210fb:	sub    DWORD PTR [edi],edx
  4210fd:	popf   
  4210fe:	sbb    BYTE PTR [edi],cl
  421100:	lds    eax,FWORD PTR [ebx]
  421102:	pop    edi
  421103:	add    BYTE PTR [edi+0x1f117ef4],ah
  421109:	(bad)  
  42110a:	mov    ds:0xdaa109b1,eax
  42110f:	out    0xb,eax
  421111:	pop    esp
  421112:	test   BYTE PTR [esi],0x44
  421115:	or     eax,edx
  421117:	ja     0x4210c3
  421119:	js     0x42113c
  42111b:	adc    ebx,DWORD PTR [esi]
  42111d:	in     eax,0xa4
  42111f:	cmp    al,ch
  421121:	clc    
  421122:	icebp  
  421123:	fwait
  421124:	and    DWORD PTR ds:0x3356112a,0x45
  42112b:	aaa    
  42112c:	sbb    al,0x4d
  42112e:	pop    ss
  42112f:	pop    es
  421130:	cmp    al,0x3e
  421132:	icebp  
  421133:	xchg   ecx,esi
  421135:	stos   DWORD PTR es:[edi],eax
  421136:	jno    0x4210df
  421138:	cmps   DWORD PTR ds:[esi],DWORD PTR es:[edi]
  421139:	dec    edx
  42113a:	dec    ecx
  42113b:	aas    
  42113c:	jmp    0x4210db
  42113e:	and    DWORD PTR [edx+0x19],eax
  421141:	and    BYTE PTR [ebx+0x79],0x8
  421145:	daa    
  421146:	mov    bl,0x6e
  421148:	xor    eax,DWORD PTR [esi-0x5bdffe4d]
  42114e:	sub    BYTE PTR [eax-0x1e9d60db],cl
  421154:	neg    DWORD PTR [eax-0x1a]
  421157:	retf   0x2f73
  42115a:	loope  0x42116a
  42115c:	inc    eax
  42115d:	gs push edx
  42115f:	in     eax,0x1e
  421161:	lds    ecx,FWORD PTR [ebx]
  421163:	xlat   BYTE PTR ds:[ebx]
  421164:	or     DWORD PTR [ebp-0x14],ebp
  421167:	ret    
  421168:	fst    DWORD PTR [eax-0x41794e9f]
  42116e:	(bad)  
  42116f:	sbb    eax,0xe3eb39d
  421174:	in     al,0x3c
  421176:	aaa    
  421177:	sub    bl,bh
  421179:	stos   BYTE PTR es:[edi],al
  42117a:	push   ecx
  42117b:	pop    esp
  42117c:	cmps   DWORD PTR ds:[esi],DWORD PTR es:[edi]
  42117d:	jl     0x4211fe
  42117f:	(bad)  
  421180:	mov    bh,0x59
  421182:	mov    eax,ds:0x34c57b10
  421187:	push   ecx
  421188:	push   esp
  421189:	and    edx,ecx
  42118b:	lahf   
  42118c:	dec    esp
  42118d:	shl    BYTE PTR [ecx+edi*2-0x1],cl
  421191:	test   DWORD PTR [eax],0xb4fe3330
  421197:	push   cs
  421198:	clc    
  421199:	pop    ebp
  42119a:	mov    ebx,0xd8551f5a
  42119f:	pushf  
  4211a0:	inc    ecx
  4211a1:	dec    edi
  4211a2:	push   es
  4211a3:	xchg   ecx,eax
  4211a4:	jl     0x421151
  4211a6:	pop    ebp
  4211a7:	out    0x42,al
  4211a9:	pop    esp
  4211aa:	dec    edx
  4211ab:	or     eax,0x60cda4f3
  4211b0:	or     eax,0x25f96211
  4211b5:	ret    0xb759
  4211b8:	xchg   ebx,eax
  4211b9:	ja     0x42115b
  4211bb:	paddusw mm3,QWORD PTR [esi+0x651d2170]
  4211c2:	imul   esp,ebx,0x2e
  4211c5:	xor    al,0xa9
  4211c7:	popa   
  4211c8:	xor    al,0xa9
  4211ca:	test   eax,0xd3f10dbe
  4211cf:	ss (bad) 
  4211d1:	mov    ah,0x1
  4211d3:	loopne 0x4211bd
  4211d5:	dec    edx
  4211d6:	gs int 0x99
  4211d9:	dec    ebp
  4211da:	and    esp,ebx
  4211dc:	jecxz  0x421166
  4211de:	pop    ecx
  4211df:	rcr    BYTE PTR [ebp-0x69e3811],cl
  4211e5:	jmp    0xe963:0xab5a542a
  4211ec:	lock pop eax
  4211ee:	lods   eax,DWORD PTR ds:[esi]
  4211ef:	out    0xe7,eax
  4211f1:	sbb    BYTE PTR [esi],al
  4211f3:	punpckhdq mm3,QWORD PTR [edx-0x78]
  4211f7:	test   BYTE PTR [ebp-0x2aac8598],0xec
  4211fe:	jb     0x42121f
  421200:	sub    al,0x50
  421202:	bound  ebp,QWORD PTR [ecx+0x25]
  421205:	stos   BYTE PTR es:[edi],al
  421206:	(bad)  
  421207:	ret    
  421208:	pop    eax
  421209:	cwde   
  42120a:	repnz lods al,BYTE PTR ds:[esi]
  42120c:	aam    0x27
  42120e:	xor    al,0x46
  421210:	fucom  st(3)
  421212:	bound  ebx,QWORD PTR [ebp+0xf013f39]
  421218:	or     ebx,DWORD PTR [ebx]
  42121a:	xor    al,0x23
  42121c:	push   esp
  42121d:	lods   al,BYTE PTR ds:[esi]
  42121e:	bound  ebp,QWORD PTR ds:0xfff4cb7b
  421224:	or     DWORD PTR [ebp+0x65],ecx
  421227:	adc    eax,0x3701d860
  42122c:	pop    ebx
  42122d:	out    0x58,al
  42122f:	sahf   
  421230:	xchg   edi,eax
  421231:	dec    ebp
  421232:	adc    BYTE PTR cs:[esi+edx*1-0x2f92f91d],ah
  42123a:	ds cmc 
  42123c:	imul   esp,ebx,0xffffffab
  42123f:	or     al,0x9f
  421241:	jo     0x42125c
  421243:	mov    esi,0x5d7113d3
  421248:	jnp    0x42120d
  42124a:	cmp    eax,0x978f240f
  42124f:	fstp   DWORD PTR [eax+0x4d8d61f3]
  421255:	lds    ecx,FWORD PTR [ebx+0x170bf8a]
  42125b:	adc    BYTE PTR [edx+0x1ce05a8d],bh
  421261:	jno    0x421225
  421263:	pop    ecx
  421264:	in     eax,0xdb
  421266:	mov    esi,DWORD PTR [eax]
  421268:	mov    bl,0xa9
  42126a:	adc    DWORD PTR [edi-0x35],esi
  42126d:	mul    DWORD PTR [ebx]
  42126f:	sub    eax,0x3c3a9fa1
  421274:	inc    ebp
  421275:	pop    edi
  421276:	bound  ebx,QWORD PTR [ecx]
  421278:	and    ecx,ecx
  42127a:	arpl   WORD PTR [ebx-0x2a776041],di
  421280:	cdq    
  421281:	movs   BYTE PTR es:[edi],BYTE PTR ds:[esi]
  421282:	test   DWORD PTR [edx-0xe],esp
  421285:	dec    ebx
  421286:	sbb    bl,BYTE PTR [eax+0xe38e11c]
  42128c:	jae    0x421283
  42128e:	fs ja  0x42127d
  421291:	mov    bl,0xa1
  421293:	push   ecx
  421294:	jmp    0x42130a
  421296:	test   eax,0xfa607310
  42129b:	dec    edi
  42129c:	push   ds
  42129d:	sub    eax,0x1b530b59
  4212a2:	jnp    0x4212fd
  4212a4:	cld    
  4212a5:	stos   BYTE PTR es:[edi],al
  4212a6:	jmp    0xf209d81d
  4212ab:	into   
  4212ac:	out    0x12,eax
  4212ae:	pop    ebx
  4212af:	inc    ebx
  4212b0:	dec    esi
  4212b1:	or     al,0x64
  4212b3:	loope  0x42125b
  4212b5:	daa    
  4212b6:	je     0x421307
  4212b8:	addr16 xchg esi,eax
  4212ba:	imul   edi,esi,0x5b4ba9ee
  4212c0:	mov    esi,0x1ea6f173
  4212c5:	dec    ebp
  4212c6:	ret    
  4212c7:	inc    ebp
  4212c8:	ins    BYTE PTR es:[edi],dx
  4212c9:	imul   ebx,DWORD PTR [edi+0x65],0xffffff8c
  4212cd:	lods   al,BYTE PTR ds:[esi]
  4212ce:	lods   eax,DWORD PTR ds:[esi]
  4212cf:	in     al,0xbf
  4212d1:	or     al,0xfa
  4212d3:	pop    esi
  4212d4:	pop    ecx
  4212d5:	fmul   DWORD PTR [esp+edi*1-0x6a9427cd]
  4212dc:	sbb    al,0xbd
  4212de:	jg     0x421319
  4212e0:	xchg   esi,eax
  4212e1:	jle    0x421290
  4212e3:	ins    BYTE PTR es:[edi],dx
  4212e4:	mov    al,0xaa
  4212e6:	ins    DWORD PTR es:[edi],dx
  4212e7:	push   edi
  4212e8:	in     al,dx
  4212e9:	cmp    al,BYTE PTR [ebx-0x46]
  4212ec:	(bad)  
  4212ed:	cmps   DWORD PTR ds:[esi],DWORD PTR es:[edi]
  4212ee:	xor    eax,0x99011e12
  4212f3:	and    edx,DWORD PTR [eax]
  4212f5:	pop    ecx
  4212f6:	mov    edi,0xb19a18bf
  4212fb:	and    eax,0x4096e36d
  421300:	cmp    BYTE PTR [ebx-0x20],bl
  421303:	adc    BYTE PTR ds:0x534f031d,bl
  421309:	ss mov eax,0x84adf047
  42130f:	iret   
  421310:	pop    ds
  421311:	jmp    0x12a6002f
  421316:	push   ecx
  421317:	mov    DWORD PTR [edi],ebx
  421319:	test   DWORD PTR [esi+0x73bb2079],edx
  42131f:	leave  
  421320:	sbb    ch,BYTE PTR [ebp+0xacdd585]
  421326:	frstor [esi]
  421328:	mov    ch,0xbf
  42132a:	(bad)  
  42132b:	(bad)  
  42132c:	or     BYTE PTR fs:[edx-0x73],ah
  421330:	div    DWORD PTR [ebx-0x49]
  421333:	sub    ecx,ebx
  421335:	aaa    
  421336:	int    0xd
  421338:	sub    BYTE PTR [ecx-0xd],ch
  42133b:	or     ebx,DWORD PTR [esi]
  42133d:	dec    ecx
  42133e:	fstp   DWORD PTR [esi]
  421340:	movs   DWORD PTR es:[edi],DWORD PTR ds:[esi]
  421341:	push   esp
  421342:	sub    al,BYTE PTR [eax]
  421344:	push   ebp
  421345:	mov    ebp,esp
  421347:	sub    esp,0x60
  42134a:	push   0x790e6400
  42134f:	push   0x5b
  421351:	call   0x424067
  421356:	add    esp,0x8
  421359:	push   0x4b
  42135b:	push   0x2356b700
  421360:	push   0x79626f00
  421365:	call   0x42475d
  42136a:	add    esp,0xc
  42136d:	push   ebx
  42136e:	push   0xffffff98
  421370:	push   0x87b7be00
  421375:	call   0x423c58
  42137a:	add    esp,0x8
  42137d:	push   esi
  42137e:	cmp    eax,0x23001681
  421383:	jne    0x421388
  421385:	mov    DWORD PTR [ebp-0x20],eax
  421388:	push   0x49
  42138a:	call   0x42451b
  42138f:	add    esp,0x4
  421392:	push   edi
  421393:	xor    edi,edi
  421395:	push   0x49
  421397:	push   0x9bf35200
  42139c:	push   0x67811c00
  4213a1:	push   0xffb0ff00
  4213a6:	push   0x2371e500
  4213ab:	call   0x424a13
  4213b0:	add    esp,0x14
  4213b3:	mov    edx,edi
  4213b5:	mov    DWORD PTR [ebp-0x8],eax
  4213b8:	push   0x2978c500
  4213bd:	push   0x1
  4213bf:	call   0x4243e9
  4213c4:	add    esp,0x8
  4213c7:	call   0x424067
  4213cc:	mov    edi,DWORD PTR [ebp-0x8]
  4213cf:	cmp    edi,eax
  4213d1:	je     0x4213f0
  4213d3:	sub    edi,eax
  4213d5:	mov    edx,DWORD PTR [ebp-0x8]
  4213d8:	mov    eax,DWORD PTR [ebp-0x8]
  4213db:	and    DWORD PTR [ebp-0x8],edi
  4213de:	cmp    edx,0x9480050
  4213e4:	je     0x4213f0
  4213e6:	push   0x67
  4213e8:	call   0x423c58
  4213ed:	add    esp,0x4
  4213f0:	push   0xff9ea200
  4213f5:	push   0xc913c500
  4213fa:	push   0x27fbba00
  4213ff:	push   0x23b41600
  421404:	push   0xe9224d00
  421409:	call   0x423dbe
  42140e:	add    esp,0x14
  421411:	cmp    eax,DWORD PTR ds:0x43806c
  421417:	je     0x42141e
  421419:	or     edi,eax
  42141b:	xor    DWORD PTR [ebp-0x8],edi
  42141e:	push   0xdb4f7200
  421423:	push   0x3a
  421425:	push   0xa3474f00
  42142a:	call   0x42475d
  42142f:	add    esp,0xc
  421432:	mov    eax,DWORD PTR [ebp-0x8]
  421435:	sub    DWORD PTR [ebp-0x8],eax
  421438:	push   0x4f
  42143a:	call   0x424a13
  42143f:	add    esp,0x4
  421442:	push   0xe3ce4500
  421447:	push   0x42
  421449:	call   0x424281
  42144e:	add    esp,0x8
  421451:	call   0x424d88
  421456:	call   0x42475d
  42145b:	mov    edi,DWORD PTR ds:0x43806c
  421461:	push   0xffffffb7
  421463:	call   0x424684
  421468:	add    esp,0x4
  42146b:	push   0x8936fb00
  421470:	push   0x8ff18a00
  421475:	push   0x5a
  421477:	call   0x424281
  42147c:	add    esp,0xc
  42147f:	xor    DWORD PTR [ebp-0x8],edi
  421482:	push   0xffffffc9
  421484:	push   0x12
  421486:	push   0x24
  421488:	push   0xffffffdb
  42148a:	push   0x2bee4500
  42148f:	call   0x424067
  421494:	add    esp,0x14
  421497:	mov    DWORD PTR [ebp-0x8],eax
  42149a:	and    edi,eax
  42149c:	sub    edi,eax
  42149e:	cmp    edi,0x22
  4214a1:	je     0x42157a
  4214a7:	push   0x48
  4214a9:	push   0xd
  4214ab:	push   0x6e
  4214ad:	call   0x423dbe
  4214b2:	add    esp,0xc
  4214b5:	push   0x64
  4214b7:	push   0xb95fef00
  4214bc:	call   0x424067
  4214c1:	add    esp,0x8
  4214c4:	mov    eax,DWORD PTR [ebp-0x8]
  4214c7:	push   0xffffffa2
  4214c9:	push   0xcfdb0b00
  4214ce:	push   0xffffffe8
  4214d0:	call   0x42451b
  4214d5:	add    esp,0xc
  4214d8:	push   0x6e
  4214da:	push   0xfffffff8
  4214dc:	call   0x423dbe
  4214e1:	add    esp,0x8
  4214e4:	push   0x5b2de200
  4214e9:	push   0x45
  4214eb:	push   0x5
  4214ed:	push   0xffffffcd
  4214ef:	push   0xf
  4214f1:	call   0x424b54
  4214f6:	add    esp,0x14
  4214f9:	push   0x63
  4214fb:	push   0x13
  4214fd:	push   0x2943aa00
  421502:	call   0x423dbe
  421507:	add    esp,0xc
  42150a:	call   0x423dbe
  42150f:	mov    edx,DWORD PTR ds:0x43806c
  421515:	push   0x1c
  421517:	call   0x424281
  42151c:	add    esp,0x4
  42151f:	push   0xfffffff5
  421521:	push   0xebb3da00
  421526:	push   0xdb210300
  42152b:	push   0xffffff88
  42152d:	push   0xa9114500
  421532:	call   0x424067
  421537:	add    esp,0x14
  42153a:	push   0xffffff93
  42153c:	push   0x10
  42153e:	push   0x2324ef00
  421543:	call   0x42451b
  421548:	add    esp,0xc
  42154b:	cmp    edi,0x38
  42154e:	jne    0x42157a
  421550:	sub    DWORD PTR [ebp-0x8],eax
  421553:	and    edi,eax
  421555:	and    edi,eax
  421557:	cmp    edi,0x59
  42155a:	je     0x42157a
  42155c:	mov    ecx,0xa2
  421561:	push   0x31
  421563:	push   0xffffff91
  421565:	push   0x43a23d00
  42156a:	push   0x635c3a00
  42156f:	call   0x424281
  421574:	add    esp,0x10
  421577:	sub    DWORD PTR [ebp-0x8],edi
  42157a:	call   0x4248e2
  42157f:	push   0xc941aa00
  421584:	push   0xffffffbf
  421586:	push   0x7fba4900
  42158b:	push   0xfbc7b500
  421590:	call   0x423dbe
  421595:	add    esp,0x10
  421598:	push   0x7d
  42159a:	push   0x3cd9c00
  42159f:	push   0xffffff82
  4215a1:	push   0xffffffc1
  4215a3:	push   0xffffffa2
  4215a5:	call   0x424281
  4215aa:	add    esp,0x14
  4215ad:	push   0x25
  4215af:	push   0xa3791100
  4215b4:	push   0x17
  4215b6:	push   0x5a
  4215b8:	call   0x423dbe
  4215bd:	add    esp,0x10
  4215c0:	push   0x42
  4215c2:	call   0x423dbe
  4215c7:	add    esp,0x4
  4215ca:	or     eax,edi
  4215cc:	push   0x16
  4215ce:	push   0x390f0300
  4215d3:	push   0xffffff80
  4215d5:	push   0x492ec900
  4215da:	call   0x424d88
  4215df:	add    esp,0x10
  4215e2:	push   0x4b
  4215e4:	call   0x424d88
  4215e9:	add    esp,0x4
  4215ec:	push   0x1d
  4215ee:	push   0xe37c7400
  4215f3:	push   0xffffffbd
  4215f5:	push   0x5b
  4215f7:	call   0x423dbe
  4215fc:	add    esp,0x10
  4215ff:	push   0xffffffca
  421601:	push   0x5b7ace00
  421606:	call   0x42475d
  42160b:	add    esp,0x8
  42160e:	push   0x39602b00
  421613:	push   0x296e9b00
  421618:	push   0x89317700
  42161d:	push   0x19118e00
  421622:	push   0xfffffff7
  421624:	call   0x424281
  421629:	add    esp,0x14
  42162c:	mov    esi,0x3d
  421631:	mov    edi,0x7f66
  421636:	add    esi,esi
  421638:	push   0x18
  42163a:	call   0x424281
  42163f:	add    esp,0x4
  421642:	push   0x791f0f00
  421647:	call   0x42475d
  42164c:	add    esp,0x4
  42164f:	push   0xcbb8c000
  421654:	push   0xc3b2e600
  421659:	call   0x424d88
  42165e:	add    esp,0x8
  421661:	or     DWORD PTR [ebp-0x8],edi
  421664:	add    DWORD PTR [ebp-0x8],edi
  421667:	push   0x2e
  421669:	push   0xffffffcc
  42166b:	push   0xffffffda
  42166d:	call   0x424a13
  421672:	add    esp,0xc
  421675:	sub    esi,edi
  421677:	push   0x43ca6b00
  42167c:	push   0xffffffc7
  42167e:	push   0xfb0be000
  421683:	call   0x424c91
  421688:	add    esp,0xc
  42168b:	push   0xa3087100
  421690:	push   0x14
  421692:	push   0x71
  421694:	push   0xfb60ab00
  421699:	push   0xfb33b000
  42169e:	call   0x4248e2
  4216a3:	add    esp,0x14
  4216a6:	call   0x423dbe
  4216ab:	push   0x31
  4216ad:	push   0xe3105e00
  4216b2:	push   0xffffff94
  4216b4:	push   0xffffff96
  4216b6:	push   0xefc05000
  4216bb:	call   0x424d88
  4216c0:	add    esp,0x14
  4216c3:	push   0xffffffbf
  4216c5:	push   0xffffffad
  4216c7:	push   0x77c24100
  4216cc:	push   0x93c2a300
  4216d1:	call   0x424684
  4216d6:	add    esp,0x10
  4216d9:	push   0x13
  4216db:	push   0xffffff94
  4216dd:	call   0x424684
  4216e2:	add    esp,0x8
  4216e5:	push   0xf3872500
  4216ea:	push   0xffffffef
  4216ec:	push   0x7a
  4216ee:	push   0x2f
  4216f0:	push   0x63d95400
  4216f5:	call   0x424b54
  4216fa:	add    esp,0x14
  4216fd:	add    DWORD PTR [ebp-0x8],esi
  421700:	mov    edx,0x84
  421705:	call   0x42475d
  42170a:	call   0x4243e9
  42170f:	and    DWORD PTR [ebp-0x8],eax
  421712:	call   0x42451b
  421717:	push   0x5fbf4400
  42171c:	push   0x63
  42171e:	push   0xe3167600
  421723:	push   0xffffffd4
  421725:	call   0x424281
  42172a:	add    esp,0x10
  42172d:	push   0xd7cb7600
  421732:	call   0x4248e2
  421737:	add    esp,0x4
  42173a:	add    DWORD PTR [ebp-0x8],eax
  42173d:	push   0x43806c
  421742:	call   DWORD PTR ds:0x435b48
  421748:	mov    esi,0xec
  42174d:	add    esi,esi
  42174f:	sub    esi,eax
  421751:	sub    DWORD PTR [ebp-0x8],edi
  421754:	or     esi,edi
  421756:	and    DWORD PTR [ebp-0x8],esi
  421759:	cmp    eax,DWORD PTR ds:0x43806c
  42175f:	je     0x4218be
  421765:	cmp    esi,eax
  421767:	jne    0x421773
  421769:	push   0xffffff9f
  42176b:	call   0x423dbe
  421770:	add    esp,0x4
  421773:	push   0xa3397d00
  421778:	push   0x57
  42177a:	push   0x83d0b700
  42177f:	push   0x4a
  421781:	push   0x66
  421783:	call   0x42451b
  421788:	add    esp,0x14
  42178b:	xor    eax,eax
  42178d:	sub    edi,esi
  42178f:	and    edi,eax
  421791:	mov    ebx,DWORD PTR ds:0x43806c
  421797:	mov    DWORD PTR [ebp-0x40],edi
  42179a:	and    ebx,esi
  42179c:	add    ebx,ebx
  42179e:	add    ebx,eax
  4217a0:	mov    ecx,DWORD PTR [ebp-0x8]
  4217a3:	add    DWORD PTR [ebp-0x40],ecx
  4217a6:	add    DWORD PTR [ebp-0x8],ebx
  4217a9:	xor    edx,edx
  4217ab:	mov    esi,edx
  4217ad:	and    esi,eax
  4217af:	add    DWORD PTR [ebp-0x8],esi
  4217b2:	mov    esi,0xed
  4217b7:	sub    edi,esi
  4217b9:	mov    ebx,DWORD PTR [ebp-0x40]
  4217bc:	xor    ecx,ecx
  4217be:	sub    DWORD PTR [ebp-0x40],ebx
  4217c1:	sub    DWORD PTR [ebp-0x40],edi
  4217c4:	mov    DWORD PTR [ebp-0x40],ecx
  4217c7:	sub    DWORD PTR [ebp-0x8],esi
  4217ca:	mov    DWORD PTR [ebp-0x60],esi
  4217cd:	sub    edx,edi
  4217cf:	mov    ecx,DWORD PTR ds:0x43806c
  4217d5:	and    DWORD PTR [ebp-0x40],edx
  4217d8:	xor    ebx,ebx
  4217da:	and    edi,edx
  4217dc:	add    edi,edi
  4217de:	add    DWORD PTR [ebp-0x8],ecx
  4217e1:	add    ebx,eax
  4217e3:	mov    DWORD PTR [ebp-0x8],edi
  4217e6:	sub    ebx,edx
  4217e8:	cmp    ebx,0xffffff96
  4217eb:	jne    0x421833
  4217ed:	sub    ebx,edi
  4217ef:	mov    edi,0x1e28
  4217f4:	mov    ecx,0x4f
  4217f9:	add    DWORD PTR [ebp-0x40],edi
  4217fc:	add    ebx,edx
  4217fe:	add    ecx,edx
  421800:	and    DWORD PTR [ebp-0x8],eax
  421803:	or     ebx,ecx
  421805:	and    ebx,ecx
  421807:	test   ebx,0x93
  42180d:	jne    0x421833
  42180f:	sub    ebx,edi
  421811:	and    ebx,edi
  421813:	cmp    ebx,0x6b46
  421819:	jne    0x421833
  42181b:	mov    edi,DWORD PTR [ebp-0x40]
  42181e:	mov    ecx,0x1c
  421823:	add    DWORD PTR [ebp-0x8],ecx
  421826:	sub    DWORD PTR [ebp-0x40],eax
  421829:	add    ebx,edi
  42182b:	cmp    ebx,0xffffffed
  42182e:	jne    0x421833
  421830:	sub    DWORD PTR [ebp-0x8],ebx
  421833:	sub    edi,ebx
  421835:	mov    edx,0x1448401
  42183a:	test   edi,0xf8
  421840:	jne    0x42186b
  421842:	cmp    edi,ecx
  421844:	je     0x42186b
  421846:	cmp    edi,0xf26b
  42184c:	jne    0x42186b
  42184e:	cmp    edi,ebx
  421850:	je     0x42186b
  421852:	sub    edi,ebx
  421854:	mov    ebx,DWORD PTR [ebp-0x8]
  421857:	mov    ecx,0x58
  42185c:	add    DWORD PTR [ebp-0x8],edi
  42185f:	sub    DWORD PTR [ebp-0x40],ebx
  421862:	sub    DWORD PTR [ebp-0x8],ebx
  421865:	or     DWORD PTR [ebp-0x40],ecx
  421868:	add    DWORD PTR [ebp-0x8],edx
  42186b:	and    esi,eax
  42186d:	push   0xd
  42186f:	push   0x7fa02b00
  421874:	push   0x793f4400
  421879:	push   0x37
  42187b:	call   0x42451b
  421880:	add    esp,0x10
  421883:	mov    edx,edi
  421885:	add    edx,esi
  421887:	push   0xd3930c00
  42188c:	push   0x73
  42188e:	push   0xffffff83
  421890:	push   0xffca4d00
  421895:	push   0x6fd30700
  42189a:	call   0x424c91
  42189f:	add    esp,0x14
  4218a2:	call   0x4243e9
  4218a7:	or     DWORD PTR [ebp-0x60],esi
  4218aa:	and    DWORD PTR [ebp-0x8],esi
  4218ad:	push   0xfffffff5
  4218af:	push   0xffffff85
  4218b1:	push   0xdfa64e00
  4218b6:	call   0x423dbe
  4218bb:	add    esp,0xc
  4218be:	mov    DWORD PTR [ebp-0x8],eax
  4218c1:	push   0xd7ae4700
  4218c6:	push   0x59
  4218c8:	push   0xbfe8d100
  4218cd:	push   0xd3ce4a00
  4218d2:	call   0x424c91
  4218d7:	add    esp,0x10
  4218da:	push   0xffffffe4
  4218dc:	push   0x99772a00
  4218e1:	push   0xa3067500
  4218e6:	push   0xa
  4218e8:	call   0x42475d
  4218ed:	add    esp,0x10
  4218f0:	call   DWORD PTR ds:0x435b20
  4218f6:	sub    DWORD PTR [ebp-0x40],esi
  4218f9:	cmp    eax,DWORD PTR ds:0x43806c
  4218ff:	jne    0x4219a8
  421905:	add    DWORD PTR [ebp-0x8],esi
  421908:	mov    eax,0x1440
  42190d:	mov    esi,0x4f
  421912:	add    esi,esi
  421914:	cmp    ebx,DWORD PTR [ebp-0x54]
  421917:	jne    0x421984
  421919:	mov    edi,0x97
  42191e:	mov    ecx,DWORD PTR ds:0x438064
  421924:	cmp    ebx,0x54
  421927:	je     0x421984
  421929:	mov    edx,0x23d7
  42192e:	mov    esi,DWORD PTR [ebp-0x8]
  421931:	mov    DWORD PTR [ebp-0x40],edi
  421934:	sub    DWORD PTR [ebp-0x40],ecx
  421937:	or     esi,edi
  421939:	cmp    esi,DWORD PTR [ebp-0x30]
  42193c:	jne    0x421984
  42193e:	sub    esi,ecx
  421940:	mov    ebx,0xf2
  421945:	xor    ecx,ecx
  421947:	test   esi,0x22
  42194d:	je     0x421984
  42194f:	add    ecx,eax
  421951:	add    DWORD PTR [ebp-0x40],esi
  421954:	sub    ebx,eax
  421956:	mov    esi,DWORD PTR [ebp-0x8]
  421959:	mov    edi,0x9d
  42195e:	and    ebx,esi
  421960:	sub    DWORD PTR [ebp-0x8],edi
  421963:	add    ecx,edx
  421965:	add    ecx,eax
  421967:	and    ebx,edi
  421969:	or     ebx,edi
  42196b:	add    DWORD PTR [ebp-0x8],ebx
  42196e:	add    ecx,esi
  421970:	add    ecx,ecx
  421972:	cmp    ecx,DWORD PTR ds:0x438064
  421978:	jne    0x421984
  42197a:	cmp    ecx,esi
  42197c:	jne    0x421984
  42197e:	add    DWORD PTR [ebp-0x8],edi
  421981:	sub    DWORD PTR [ebp-0x8],ecx
  421984:	sub    DWORD PTR [ebp-0x40],ecx
  421987:	mov    DWORD PTR [ebp-0x14],eax
  42198a:	push   0xa38af700
  42198f:	push   0x39562300
  421994:	push   0xffffff80
  421996:	push   0xb3c30d00
  42199b:	call   0x423c58
  4219a0:	add    esp,0x10
  4219a3:	call   0x423c58
  4219a8:	push   0xafd03800
  4219ad:	call   0x424684
  4219b2:	add    esp,0x4
  4219b5:	push   0xa340f100
  4219ba:	call   0x42451b
  4219bf:	add    esp,0x4
  4219c2:	push   0xb
  4219c4:	push   0x0
  4219c6:	call   DWORD PTR ds:0x435ac4
  4219cc:	add    ebx,ebx
  4219ce:	sub    ebx,edi
  4219d0:	mov    DWORD PTR [ebp-0x40],ebx
  4219d3:	cmp    eax,DWORD PTR [ebp-0x14]
  4219d6:	je     0x421a56
  4219d8:	call   0x42475d
  4219dd:	push   0xffffffc2
  4219df:	push   0x2b
  4219e1:	push   0x2f
  4219e3:	call   0x4243e9
  4219e8:	add    esp,0xc
  4219eb:	mov    ebx,0xab52
  4219f0:	xor    eax,eax
  4219f2:	mov    edx,DWORD PTR [ebp-0x40]
  4219f5:	push   0xffffffc9
  4219f7:	call   0x424281
  4219fc:	add    esp,0x4
  4219ff:	call   0x424c91
  421a04:	push   0x34
  421a06:	push   0x5b22cb00
  421a0b:	push   0x6312f100
  421a10:	call   0x424281
  421a15:	add    esp,0xc
  421a18:	mov    edi,ebx
  421a1a:	xor    DWORD PTR [ebp-0x40],esi
  421a1d:	sub    DWORD PTR [ebp-0x8],edi
  421a20:	push   0x1930ab00
  421a25:	push   0xffffffce
  421a27:	push   0xffffff8d
  421a29:	push   0x1b9ab100
  421a2e:	call   0x424067
  421a33:	add    esp,0x10
  421a36:	mov    DWORD PTR [ebp-0x54],edi
  421a39:	call   0x424281
  421a3e:	push   0x39110000
  421a43:	push   0x293eb800
  421a48:	push   0xffffffdd
  421a4a:	push   0x64
  421a4c:	push   0x37
  421a4e:	call   0x42475d
  421a53:	add    esp,0x14
  421a56:	push   0x43ba0d00
  421a5b:	push   0x58
  421a5d:	call   0x424d88
  421a62:	add    esp,0x8
  421a65:	push   0xf941fa00
  421a6a:	call   0x423c58
  421a6f:	add    esp,0x4
  421a72:	push   0x63a95a00
  421a77:	call   0x424684
  421a7c:	add    esp,0x4
  421a7f:	call   DWORD PTR ds:0x435ad8
  421a85:	cmp    esi,DWORD PTR ds:0x438064
  421a8b:	je     0x421a94
  421a8d:	sub    esi,edi
  421a8f:	sub    esi,edi
  421a91:	sub    DWORD PTR [ebp-0x40],esi
  421a94:	cmp    eax,0xb1401020
  421a99:	jne    0x421c31
  421a9f:	push   0xffffffe7
  421aa1:	push   0xe31aac00
  421aa6:	push   0x1f
  421aa8:	call   0x424067
  421aad:	add    esp,0xc
  421ab0:	mov    eax,0x26
  421ab5:	sub    ebx,edi
  421ab7:	add    DWORD PTR [ebp-0x40],eax
  421aba:	mov    ecx,DWORD PTR [ebp-0x8]
  421abd:	mov    esi,DWORD PTR ds:0x43806c
  421ac3:	or     ecx,ebx
  421ac5:	and    DWORD PTR [ebp-0x8],esi
  421ac8:	add    ecx,eax
  421aca:	or     ecx,esi
  421acc:	sub    ecx,ebx
  421ace:	cmp    ecx,DWORD PTR ds:0x43806c
  421ad4:	je     0x421aec
  421ad6:	mov    edx,DWORD PTR [ebp-0x8]
  421ad9:	add    DWORD PTR [ebp-0x40],edx
  421adc:	sub    ecx,edx
  421ade:	cmp    edx,0x6
  421ae1:	jne    0x421aec
  421ae3:	mov    edi,DWORD PTR [ebp-0x8]
  421ae6:	sub    DWORD PTR [ebp-0x8],ecx
  421ae9:	sub    DWORD PTR [ebp-0x8],edi
  421aec:	add    DWORD PTR [ebp-0x8],edi
  421aef:	mov    edi,0xc7aa
  421af4:	add    ecx,eax
  421af6:	sub    DWORD PTR [ebp-0x40],edi
  421af9:	cmp    edx,eax
  421afb:	jne    0x421b04
  421afd:	sub    ecx,edx
  421aff:	sub    ecx,ebx
  421b01:	add    DWORD PTR [ebp-0x40],ecx
  421b04:	sub    DWORD PTR [ebp-0x40],edi
  421b07:	mov    DWORD PTR [ebp-0x38],edi
  421b0a:	mov    ebx,edx
  421b0c:	and    ebx,edi
  421b0e:	mov    edx,0xc0
  421b13:	add    edx,ecx
  421b15:	cmp    ebx,edi
  421b17:	je     0x421b2d
  421b19:	mov    esi,DWORD PTR [ebp-0x40]
  421b1c:	mov    ecx,DWORD PTR [ebp-0x40]
  421b1f:	xor    DWORD PTR [ebp-0x40],ebx
  421b22:	add    ecx,ebx
  421b24:	add    DWORD PTR [ebp-0x40],edx
  421b27:	add    DWORD PTR [ebp-0x8],ecx
  421b2a:	mov    DWORD PTR [ebp-0x40],esi
  421b2d:	add    DWORD PTR [ebp-0x8],esi
  421b30:	sub    eax,edi
  421b32:	sub    edi,eax
  421b34:	mov    esi,0xcb20
  421b39:	sub    DWORD PTR [ebp-0x40],eax
  421b3c:	mov    ecx,0x49
  421b41:	and    ecx,edi
  421b43:	and    DWORD PTR [ebp-0x8],esi
  421b46:	add    ecx,eax
  421b48:	sub    DWORD PTR [ebp-0x40],esi
  421b4b:	or     ecx,esi
  421b4d:	sub    ecx,ebx
  421b4f:	cmp    ecx,DWORD PTR [ebp-0x34]
  421b52:	je     0x421b9d
  421b54:	mov    edi,0x6d
  421b59:	mov    esi,DWORD PTR ds:0x438064
  421b5f:	add    DWORD PTR [ebp-0x40],esi
  421b62:	mov    DWORD PTR [ebp-0x40],edi
  421b65:	add    ecx,esi
  421b67:	test   ecx,0xe5
  421b6d:	je     0x421b9d
  421b6f:	mov    edx,0xcf
  421b74:	or     DWORD PTR [ebp-0x40],ecx
  421b77:	sub    edx,eax
  421b79:	mov    edx,DWORD PTR [ebp-0x8]
  421b7c:	sub    edx,esi
  421b7e:	add    edx,edi
  421b80:	and    edx,esi
  421b82:	cmp    edx,0xffffffd3
  421b85:	je     0x421b9d
  421b87:	cmp    edx,eax
  421b89:	jne    0x421b9d
  421b8b:	mov    edi,esi
  421b8d:	sub    DWORD PTR [ebp-0x40],edi
  421b90:	mov    ebx,DWORD PTR ds:0x438088
  421b96:	sub    ebx,esi
  421b98:	and    ebx,edx
  421b9a:	sub    DWORD PTR [ebp-0x40],ebx
  421b9d:	cmp    ebx,0xffffffbd
  421ba0:	je     0x421c18
  421ba2:	mov    edi,DWORD PTR [ebp-0x40]
  421ba5:	or     edi,ecx
  421ba7:	cmp    edi,0x70
  421baa:	jne    0x421c18
  421bac:	mov    esi,0x0
  421bb1:	cmp    edi,DWORD PTR [ebp-0x20]
  421bb4:	je     0x421c18
  421bb6:	sub    DWORD PTR [ebp-0x8],ebx
  421bb9:	mov    edx,DWORD PTR [ebp-0x8]
  421bbc:	test   edx,0x3d
  421bc2:	je     0x421c18
  421bc4:	add    esi,ebx
  421bc6:	mov    DWORD PTR [ebp-0x8],esi
  421bc9:	add    DWORD PTR [ebp-0x40],edi
  421bcc:	sub    edx,ecx
  421bce:	xor    ecx,ecx
  421bd0:	xor    DWORD PTR [ebp-0x40],ecx
  421bd3:	mov    edi,DWORD PTR [ebp-0x40]
  421bd6:	or     edx,esi
  421bd8:	sub    DWORD PTR [ebp-0x8],ecx
  421bdb:	cmp    edi,DWORD PTR ds:0x43806c
  421be1:	je     0x421c18
  421be3:	cmp    edx,DWORD PTR [ebp-0x20]
  421be6:	je     0x421c18
  421be8:	mov    esi,DWORD PTR ds:0x438064
  421bee:	add    DWORD PTR [ebp-0x8],ebx
  421bf1:	mov    ebx,DWORD PTR [ebp-0x8]
  421bf4:	xor    DWORD PTR [ebp-0x8],edi
  421bf7:	and    ebx,ecx
  421bf9:	sub    DWORD PTR [ebp-0x8],esi
  421bfc:	test   ebx,0x8a
  421c02:	jne    0x421c18
  421c04:	cmp    ebx,eax
  421c06:	je     0x421c18
  421c08:	mov    esi,DWORD PTR ds:0x438088
  421c0e:	add    ebx,esi
  421c10:	or     DWORD PTR [ebp-0x8],edx
  421c13:	add    ebx,edi
  421c15:	add    DWORD PTR [ebp-0x8],ebx
  421c18:	add    DWORD PTR [ebp-0x38],eax
  421c1b:	push   0x479b2d00
  421c20:	push   0xffffffe3
  421c22:	push   0x4a
  421c24:	push   0x2bc4be00
  421c29:	call   0x424c91
  421c2e:	add    esp,0x10
  421c31:	sub    DWORD PTR [ebp-0x8],edi
  421c34:	push   0x42
  421c36:	push   0x53ce7100
  421c3b:	push   0xffffffc3
  421c3d:	push   0x2f
  421c3f:	call   0x424067
  421c44:	add    esp,0x10
  421c47:	push   0x52
  421c49:	call   0x424067
  421c4e:	add    esp,0x4
  421c51:	mov    ebx,esi
  421c53:	call   0x424a13
  421c58:	call   0x424c91
  421c5d:	push   0xc3c9db00
  421c62:	call   0x424d88
  421c67:	add    esp,0x4
  421c6a:	push   0x74
  421c6c:	call   0x423c58
  421c71:	add    esp,0x4
  421c74:	sub    DWORD PTR [ebp-0x40],edi
  421c77:	xor    edx,edx
  421c79:	add    edx,edx
  421c7b:	call   0x424067
  421c80:	or     DWORD PTR [ebp-0x40],ebx
  421c83:	mov    ebx,DWORD PTR [ebp-0x8]
  421c86:	push   0x292dfb00
  421c8b:	push   0x32
  421c8d:	push   0x237cdd00
  421c92:	call   0x423c58
  421c97:	add    esp,0xc
  421c9a:	push   0xffffffd7
  421c9c:	push   0xefa01800
  421ca1:	push   0xffffffe7
  421ca3:	push   0x45
  421ca5:	push   0xffffffa5
  421ca7:	call   0x424067
  421cac:	add    esp,0x14
  421caf:	add    ebx,esi
  421cb1:	cmp    ebx,0x63
  421cb4:	je     0x421e07
  421cba:	push   0x896bfa00
  421cbf:	push   0x62
  421cc1:	call   0x423dbe
  421cc6:	add    esp,0x8
  421cc9:	cmp    ebx,0xffffffea
  421ccc:	jne    0x421e07
  421cd2:	mov    esi,0x70
  421cd7:	push   0x6bc40800
  421cdc:	push   0x3b948500
  421ce1:	push   0xfffffffc
  421ce3:	push   0xffffffc0
  421ce5:	call   0x424a13
  421cea:	add    esp,0x10
  421ced:	mov    edi,DWORD PTR [ebp-0x40]
  421cf0:	push   0xa31fd100
  421cf5:	push   0xffffff97
  421cf7:	push   0xffffff95
  421cf9:	call   0x424a13
  421cfe:	add    esp,0xc
  421d01:	push   0xfffffff3
  421d03:	push   0x695c8300
  421d08:	call   0x423c58
  421d0d:	add    esp,0x8
  421d10:	push   0x6c
  421d12:	push   0x17a5a100
  421d17:	push   0xb9098800
  421d1c:	call   0x4248e2
  421d21:	add    esp,0xc
  421d24:	add    DWORD PTR [ebp-0x8],edi
  421d27:	push   0xd90c9f00
  421d2c:	push   0x44
  421d2e:	push   0xffffffb4
  421d30:	call   0x424684
  421d35:	add    esp,0xc
  421d38:	push   0x92a4300
  421d3d:	call   0x424c91
  421d42:	add    esp,0x4
  421d45:	push   0x2b9a6700
  421d4a:	push   0xffffffbc
  421d4c:	push   0xfb702b00
  421d51:	push   0xfb3c8700
  421d56:	call   0x424b54
  421d5b:	add    esp,0x10
  421d5e:	push   0x79
  421d60:	push   0xffffffcf
  421d62:	push   0xfffffffd
  421d64:	push   0x5b591a00
  421d69:	push   0x30
  421d6b:	call   0x423c58
  421d70:	add    esp,0x14
  421d73:	push   0x21
  421d75:	push   0xbffb0800
  421d7a:	push   0xffffffe3
  421d7c:	call   0x424684
  421d81:	add    esp,0xc
  421d84:	push   0xffffffcc
  421d86:	call   0x424a13
  421d8b:	add    esp,0x4
  421d8e:	add    ebx,esi
  421d90:	push   0x2d
  421d92:	push   0x33
  421d94:	push   0x5c
  421d96:	push   0xffffffd7
  421d98:	call   0x424067
  421d9d:	add    esp,0x10
  421da0:	call   0x424684
  421da5:	push   0x797b0b00
  421daa:	push   0xb835000
  421daf:	push   0x7fadd400
  421db4:	push   0x7f9b4f00
  421db9:	call   0x4243e9
  421dbe:	add    esp,0x10
  421dc1:	push   0xffffffdb
  421dc3:	call   0x423dbe
  421dc8:	add    esp,0x4
  421dcb:	push   0x5b
  421dcd:	push   0x7
  421dcf:	push   0x19595500
  421dd4:	push   0x37ec4c00
  421dd9:	call   0x4243e9
  421dde:	add    esp,0x10
  421de1:	cmp    ebx,0x622b
  421de7:	je     0x421e07
  421de9:	push   0xafac0400
  421dee:	push   0xffffffc1
  421df0:	push   0x57a50100
  421df5:	push   0xffffffc8
  421df7:	push   0x494adb00
  421dfc:	call   0x4243e9
  421e01:	add    esp,0x14
  421e04:	sub    DWORD PTR [ebp-0x8],ebx
  421e07:	sub    edi,eax
  421e09:	add    edi,esi
  421e0b:	mov    eax,edi
  421e0d:	sub    DWORD PTR [ebp-0x40],eax
  421e10:	add    DWORD PTR [ebp-0x40],ebx
  421e13:	push   0x47a8d500
  421e18:	push   0x28
  421e1a:	call   0x424684
  421e1f:	add    esp,0x8
  421e22:	push   0xffffffb8
  421e24:	push   0xef8d6c00
  421e29:	push   0xf393f200
  421e2e:	call   0x424281
  421e33:	add    esp,0xc
  421e36:	push   0xffffffb7
  421e38:	push   0xa9358000
  421e3d:	push   0x1940d500
  421e42:	call   0x42451b
  421e47:	add    esp,0xc
  421e4a:	push   0x87d2e000
  421e4f:	push   0xffffffd1
  421e51:	push   0x40
  421e53:	call   0x424b54
  421e58:	add    esp,0xc
  421e5b:	cmp    eax,0x0
  421e5e:	jne    0x421e9c
  421e60:	mov    edi,0x1615
  421e65:	push   0xa360cb00
  421e6a:	call   0x424b54
  421e6f:	add    esp,0x4
  421e72:	mov    eax,0xec64
  421e77:	push   0xffffffcf
  421e79:	push   0xb9624800
  421e7e:	push   0xfffffffd
  421e80:	push   0xfffffffa
  421e82:	call   0x423dbe
  421e87:	add    esp,0x10
  421e8a:	push   0x1b9e5b00
  421e8f:	call   0x423dbe
  421e94:	add    esp,0x4
  421e97:	sub    edi,eax
  421e99:	mov    DWORD PTR [ebp-0x8],edi
  421e9c:	cmp    eax,0xffffffa7
  421e9f:	je     0x421eab
  421ea1:	push   0xffffffd6
  421ea3:	call   0x4243e9
  421ea8:	add    esp,0x4
  421eab:	push   0xefd62e00
  421eb0:	push   0xfb1a9a00
  421eb5:	push   0x7c88400
  421eba:	push   0x9bf1c500
  421ebf:	call   0x424067
  421ec4:	add    esp,0x10
  421ec7:	push   0x20
  421ec9:	push   0xffffffdf
  421ecb:	push   0xfffffffa
  421ecd:	push   0x30
  421ecf:	call   0x4248e2
  421ed4:	add    esp,0x10
  421ed7:	push   0x23f52600
  421edc:	push   0xffffffab
  421ede:	call   0x424281
  421ee3:	add    esp,0x8
  421ee6:	push   0xffffffdd
  421ee8:	push   0xfffffffd
  421eea:	call   0x42475d
  421eef:	add    esp,0x8
  421ef2:	add    ebx,ebx
  421ef4:	add    ebx,esi
  421ef6:	push   0x4f
  421ef8:	push   0x2
  421efa:	push   0xb94c6600
  421eff:	push   0xd
  421f01:	push   0xd9014a00
  421f06:	call   0x424b54
  421f0b:	add    esp,0x14
  421f0e:	push   0xa7ecc300
  421f13:	push   0x2962d000
  421f18:	call   0x424684
  421f1d:	add    esp,0x8
  421f20:	call   0x424067
  421f25:	call   0x423c58
  421f2a:	mov    DWORD PTR [ebp-0x40],ebx
  421f2d:	mov    esi,0x7a
  421f32:	push   0x83e63500
  421f37:	push   0x23380c00
  421f3c:	push   0x9be98400
  421f41:	push   0x5b
  421f43:	call   0x423c58
  421f48:	add    esp,0x10
  421f4b:	add    DWORD PTR [ebp-0x40],esi
  421f4e:	push   0x56
  421f50:	push   0x7f
  421f52:	push   0x83d5e600
  421f57:	call   0x424067
  421f5c:	add    esp,0xc
  421f5f:	add    ebx,ebx
  421f61:	push   0x2bcd3100
  421f66:	call   0x424067
  421f6b:	add    esp,0x4
  421f6e:	mov    eax,edi
  421f70:	push   0xfb228c00
  421f75:	push   0x5c
  421f77:	push   0x6f
  421f79:	push   0xffffff80
  421f7b:	call   0x424281
  421f80:	add    esp,0x10
  421f83:	push   0x38
  421f85:	push   0xffffffdd
  421f87:	push   0x9902ca00
  421f8c:	call   0x42451b
  421f91:	add    esp,0xc
  421f94:	sub    DWORD PTR [ebp-0x8],ebx
  421f97:	sub    edi,ebx
  421f99:	xor    eax,eax
  421f9b:	call   0x4243e9
  421fa0:	mov    DWORD PTR [ebp-0x48],edi
  421fa3:	push   0x7b
  421fa5:	call   0x4243e9
  421faa:	add    esp,0x4
  421fad:	cmp    ebx,DWORD PTR ds:0x438064
  421fb3:	jne    0x421fc3
  421fb5:	push   0xffffff9a
  421fb7:	push   0x7e
  421fb9:	push   0xe
  421fbb:	call   0x424067
  421fc0:	add    esp,0xc
  421fc3:	call   0x424684
  421fc8:	mov    ecx,DWORD PTR ds:0x438064
  421fce:	mov    ebx,DWORD PTR [ebp-0x40]
  421fd1:	sub    ecx,edi
  421fd3:	cmp    ebx,0x2c
  421fd6:	je     0x421ff6
  421fd8:	sub    ecx,eax
  421fda:	or     DWORD PTR [ebp-0x48],ebx
  421fdd:	test   ecx,0x1d28
  421fe3:	je     0x421ff6
  421fe5:	sub    ecx,esi
  421fe7:	push   0x5b5ba900
  421fec:	push   0xa
  421fee:	call   0x424281
  421ff3:	add    esp,0x8
  421ff6:	push   0x994a0d00
  421ffb:	push   0xfb146900
  422000:	push   0x99241200
  422005:	call   0x4248e2
  42200a:	add    esp,0xc
  42200d:	push   0xfffffff1
  42200f:	push   0xc975cf00
  422014:	push   0x1bd22d00
  422019:	call   0x42451b
  42201e:	add    esp,0xc
  422021:	mov    edx,DWORD PTR [ebp-0x48]
  422024:	push   0x39
  422026:	push   0xffffffa5
  422028:	push   0x9753c00
  42202d:	push   0xffffffcd
  42202f:	push   0x1b
  422031:	call   0x424684
  422036:	add    esp,0x14
  422039:	push   0xa3332500
  42203e:	call   0x423c58
  422043:	add    esp,0x4
  422046:	push   0x57
  422048:	push   0x7ff44b00
  42204d:	push   0xffffffe6
  42204f:	push   0x8
  422051:	push   0xffe48a00
  422056:	call   0x42475d
  42205b:	add    esp,0x14
  42205e:	lea    edx,[ebp-0x18]
  422061:	mov    esi,0xf7
  422066:	xor    eax,eax
  422068:	sub    esi,edx
  42206a:	add    esi,eax
  42206c:	xor    DWORD PTR [ebp-0x8],esi
  42206f:	sub    DWORD PTR [ebp-0x8],eax
  422072:	push   edx
  422073:	push   0xa90fc700
  422078:	push   0x87b7f700
  42207d:	call   0x42475d
  422082:	add    esp,0x8
  422085:	push   0x5b27aa00
  42208a:	push   0xffffffb4
  42208c:	push   0xa7d28c00
  422091:	call   0x424067
  422096:	add    esp,0xc
  422099:	push   0xf036c81b
  42209e:	call   0x424684
  4220a3:	call   0x424d88
  4220a8:	call   0x4248e2
  4220ad:	push   0xffffff95
  4220af:	push   0xffffff98
  4220b1:	push   0xffffff8a
  4220b3:	push   0x38
  4220b5:	call   0x4248e2
  4220ba:	add    esp,0x10
  4220bd:	call   0x42274f
  4220c2:	mov    eax,ebx
  4220c4:	push   0x7bab3c00
  4220c9:	push   0xfb55a100
  4220ce:	push   0x7bc71800
  4220d3:	push   0xe78db600
  4220d8:	push   0xe3013d00
  4220dd:	call   0x424d88
  4220e2:	add    esp,0x14
  4220e5:	mov    ecx,DWORD PTR [ebp-0x18]
  4220e8:	mov    edx,ecx
  4220ea:	add    edx,esi
  4220ec:	xor    esi,esi
  4220ee:	and    esi,ebx
  4220f0:	add    esi,edi
  4220f2:	sub    DWORD PTR [ebp-0x48],ecx
  4220f5:	and    esi,eax
  4220f7:	cmp    esi,eax
  4220f9:	jne    0x422176
  4220fb:	cmp    edx,0xffffffd7
  4220fe:	je     0x422176
  422100:	mov    edi,DWORD PTR [ebp-0x40]
  422103:	test   esi,0x4e
  422109:	je     0x422176
  42210b:	mov    DWORD PTR [ebp-0x8],edi
  42210e:	cmp    edx,esi
  422110:	jne    0x422176
  422112:	mov    ebx,DWORD PTR [ebp-0x40]
  422115:	sub    DWORD PTR [ebp-0x8],esi
  422118:	mov    edi,DWORD PTR [ebp-0x48]
  42211b:	or     edi,esi
  42211d:	cmp    edi,0x51
  422120:	jne    0x422176
  422122:	cmp    ebx,DWORD PTR ds:0x438064
  422128:	jne    0x422176
  42212a:	sub    DWORD PTR [ebp-0x48],edi
  42212d:	xor    esi,esi
  42212f:	mov    edi,DWORD PTR [ebp-0x8]
  422132:	sub    DWORD PTR [ebp-0x8],ecx
  422135:	sub    ebx,eax
  422137:	cmp    eax,0xfffffff2
  42213a:	je     0x422176
  42213c:	mov    eax,DWORD PTR [ebp-0x8]
  42213f:	add    DWORD PTR [ebp-0x48],ecx
  422142:	xor    DWORD PTR [ebp-0x40],esi
  422145:	add    DWORD PTR [ebp-0x48],eax
  422148:	sub    ebx,edx
  42214a:	add    DWORD PTR [ebp-0x8],eax
  42214d:	sub    edi,esi
  42214f:	add    ebx,ebx
  422151:	cmp    edi,DWORD PTR ds:0x43806c
  422157:	je     0x422176
  422159:	add    edi,ecx
  42215b:	mov    eax,DWORD PTR [ebp-0x8]
  42215e:	and    ebx,edx
  422160:	sub    edi,esi
  422162:	add    DWORD PTR [ebp-0x8],ebx
  422165:	mov    ebx,DWORD PTR [ebp-0x40]
  422168:	add    ebx,edi
  42216a:	sub    DWORD PTR [ebp-0x48],ebx
  42216d:	add    eax,eax
  42216f:	sub    eax,edi
  422171:	add    eax,eax
  422173:	add    DWORD PTR [ebp-0x40],eax
  422176:	shr    ecx,0x10
  422179:	sub    DWORD PTR [ebp-0x8],ecx
  42217c:	cmp    ecx,0xf69a
  422182:	jne    0x4224d9
  422188:	sub    DWORD PTR [ebp-0x40],ecx
  42218b:	push   0x593dd700
  422190:	push   0xffffffdf
  422192:	call   0x423dbe
  422197:	add    esp,0x8
  42219a:	mov    ebx,0xf6dc35f5
  42219f:	mov    ecx,DWORD PTR [ebp-0x40]
  4221a2:	sub    DWORD PTR [ebp-0x48],ecx
  4221a5:	sub    ebx,DWORD PTR [ebp-0x18]
  4221a8:	mov    edi,DWORD PTR ds:0x438088
  4221ae:	cmp    ebx,ecx
  4221b0:	jne    0x4222aa
  4221b6:	push   0x5b
  4221b8:	push   0xe3c76700
  4221bd:	push   0x77d49800
  4221c2:	call   0x423dbe
  4221c7:	add    esp,0xc
  4221ca:	add    edi,eax
  4221cc:	push   0x7d
  4221ce:	push   0xffffffaf
  4221d0:	push   0xfb2bbb00
  4221d5:	push   0x89248100
  4221da:	push   0x57d4c600
  4221df:	call   0x424067
  4221e4:	add    esp,0x14
  4221e7:	push   0xffffffd4
  4221e9:	push   0x69453700
  4221ee:	call   0x424281
  4221f3:	add    esp,0x8
  4221f6:	call   0x423dbe
  4221fb:	push   0x59214600
  422200:	push   0xffffffba
  422202:	push   0xffffff99
  422204:	call   0x4248e2
  422209:	add    esp,0xc
  42220c:	cmp    edi,0x21
  42220f:	jne    0x4222aa
  422215:	push   0xffffff85
  422217:	push   0xffffffc7
  422219:	push   0xd3c41400
  42221e:	push   0x23
  422220:	call   0x424281
  422225:	add    esp,0x10
  422228:	mov    esi,edi
  42222a:	mov    edi,ebx
  42222c:	push   0xf9316000
  422231:	push   0xffffffd6
  422233:	push   0x89033800
  422238:	push   0xfffffff7
  42223a:	call   0x423c58
  42223f:	add    esp,0x10
  422242:	push   0x5b5d7e00
  422247:	push   0x47
  422249:	push   0x48
  42224b:	call   0x424684
  422250:	add    esp,0xc
  422253:	push   0xffffffa3
  422255:	push   0xffffff9c
  422257:	call   0x424a13
  42225c:	add    esp,0x8
  42225f:	push   0xa3798b00
  422264:	push   0x991c9b00
  422269:	push   0xfb0f6000
  42226e:	push   0xffffffad
  422270:	call   0x423dbe
  422275:	add    esp,0x10
  422278:	add    esi,edi
  42227a:	push   0x24
  42227c:	push   0xffffff90
  42227e:	push   0x53922800
  422283:	push   0xd3a86a00
  422288:	call   0x424067
  42228d:	add    esp,0x10
  422290:	test   esi,0x38
  422296:	je     0x4222aa
  422298:	push   0x4fb63a00
  42229d:	push   0xffffff8d
  42229f:	call   0x4248e2
  4222a4:	add    esp,0x8
  4222a7:	add    DWORD PTR [ebp-0x40],esi
  4222aa:	push   0xb
  4222ac:	push   0xcfc1b100
  4222b1:	call   0x423dbe
  4222b6:	add    esp,0x8
  4222b9:	call   ebx
  4222bb:	mov    ecx,DWORD PTR [ebp-0x48]
  4222be:	add    ecx,ecx
  4222c0:	cmp    ecx,0xd548
  4222c6:	je     0x42236f
  4222cc:	and    ecx,ebx
  4222ce:	cmp    ebx,0x7d
  4222d1:	je     0x42236f
  4222d7:	mov    edi,DWORD PTR ds:0x438088
  4222dd:	mov    edx,DWORD PTR [ebp-0x48]
  4222e0:	sub    edx,ebx
  4222e2:	test   ecx,0xc3
  4222e8:	jne    0x42236f
  4222ee:	sub    edi,ecx
  4222f0:	sub    edi,esi
  4222f2:	cmp    edi,edx
  4222f4:	jne    0x42236f
  4222f6:	mov    ebx,DWORD PTR [ebp-0x8]
  4222f9:	add    ebx,edi
  4222fb:	or     DWORD PTR [ebp-0x40],ebx
  4222fe:	cmp    esi,ebx
  422300:	je     0x42236f
  422302:	mov    edi,DWORD PTR [ebp-0x8]
  422305:	cmp    edx,DWORD PTR ds:0x438064
  42230b:	je     0x42236f
  42230d:	add    edi,ecx
  42230f:	cmp    ecx,DWORD PTR [ebp-0x40]
  422312:	je     0x42236f
  422314:	mov    ebx,ecx
  422316:	sub    DWORD PTR [ebp-0x40],edx
  422319:	mov    esi,DWORD PTR [ebp-0x40]
  42231c:	cmp    ebx,DWORD PTR ds:0x43806c
  422322:	jne    0x42236f
  422324:	mov    edx,0xe6
  422329:	add    DWORD PTR [ebp-0x40],edx
  42232c:	cmp    ebx,DWORD PTR ds:0x438064
  422332:	jne    0x42236f
  422334:	mov    edx,DWORD PTR [ebp-0x8]
  422337:	sub    esi,ecx
  422339:	add    DWORD PTR [ebp-0x48],esi
  42233c:	sub    DWORD PTR [ebp-0x40],ecx
  42233f:	and    DWORD PTR [ebp-0x8],edi
  422342:	mov    ecx,DWORD PTR [ebp-0x48]
  422345:	or     edx,ebx
  422347:	and    edx,edi
  422349:	or     DWORD PTR [ebp-0x40],edx
  42234c:	cmp    ecx,0x54
  42234f:	je     0x42236f
  422351:	test   ecx,0xbc
  422357:	jne    0x42236f
  422359:	mov    edx,DWORD PTR [ebp-0x8]
  42235c:	sub    DWORD PTR [ebp-0x48],edx
  42235f:	mov    edx,DWORD PTR [ebp-0x40]
  422362:	or     edx,eax
  422364:	add    DWORD PTR [ebp-0x40],edx
  422367:	cmp    ecx,0xffffff95
  42236a:	je     0x42236f
  42236c:	sub    DWORD PTR [ebp-0x48],ecx
  42236f:	mov    DWORD PTR [ebp-0x58],eax
  422372:	test   edx,0x47
  422378:	je     0x42238c
  42237a:	push   0x5b5bbd00
  42237f:	push   0xfb6eda00
  422384:	call   0x423c58
  422389:	add    esp,0x8
  42238c:	push   0x1f
  42238e:	push   0x67837300
  422393:	push   0x7d
  422395:	call   0x424067
  42239a:	add    esp,0xc
  42239d:	mov    edi,0x42318d
  4223a2:	and    DWORD PTR [ebp-0x48],edi
  4223a5:	push   0x1
  4223a7:	call   0x42475d
  4223ac:	add    esp,0x4
  4223af:	push   DWORD PTR [ebp-0x18]
  4223b2:	push   0xf69b6e7d
  4223b7:	push   DWORD PTR [ebp-0x58]
  4223ba:	call   edi
  4223bc:	push   0xffffffff
  4223be:	call   0x424d88
  4223c3:	add    esp,0x4
  4223c6:	call   0x4248e2
  4223cb:	add    DWORD PTR [ebp-0x58],0x1b
  4223d2:	push   0x190a1600
  4223d7:	push   0x63078400
  4223dc:	push   0x7bcd1e00
  4223e1:	push   0xe34e8500
  4223e6:	push   0xf9619f00
  4223eb:	call   0x424a13
  4223f0:	add    esp,0x14
  4223f3:	push   0x48
  4223f5:	push   0x87c1f800
  4223fa:	push   0x70
  4223fc:	push   0xabf31300
  422401:	call   0x424684
  422406:	add    esp,0x10
  422409:	mov    ebx,DWORD PTR [ebp-0x58]
  42240c:	mov    esi,0xe8
  422411:	push   0x77
  422413:	push   0xffffffb1
  422415:	call   0x424684
  42241a:	add    esp,0x8
  42241d:	mov    DWORD PTR [ebp-0x8],esi
  422420:	push   0x3b
  422422:	call   0x424281
  422427:	add    esp,0x4
  42242a:	call   ebx
  42242c:	cmp    ebx,DWORD PTR [ebp-0x20]
  42242f:	je     0x422434
  422431:	add    DWORD PTR [ebp-0x40],ebx
  422434:	xor    esi,esi
  422436:	push   0xc7ea1800
  42243b:	push   0xffffffed
  42243d:	push   0xe7b05800
  422442:	push   0x61
  422444:	call   0x424a13
  422449:	add    esp,0x10
  42244c:	mov    ebx,DWORD PTR [ebp-0x40]
  42244f:	push   0x9912fe00
  422454:	push   0xabe91600
  422459:	call   0x42451b
  42245e:	add    esp,0x8
  422461:	add    DWORD PTR [ebp-0x40],eax
  422464:	push   0x18
  422466:	push   0xf94d0500
  42246b:	push   0xd
  42246d:	call   0x424a13
  422472:	add    esp,0xc
  422475:	push   0x6a
  422477:	push   0x47f3fc00
  42247c:	call   0x424b54
  422481:	add    esp,0x8
  422484:	or     DWORD PTR [ebp-0x8],esi
  422487:	call   0x424684
  42248c:	push   0x6f817b00
  422491:	push   0x4f
  422493:	push   0xa9789800
  422498:	call   0x424684
  42249d:	add    esp,0xc
  4224a0:	sub    DWORD PTR [ebp-0x48],ebx
  4224a3:	push   0x195c1900
  4224a8:	push   0x9baa0c00
  4224ad:	call   0x424067
  4224b2:	add    esp,0x8
  4224b5:	push   0x66
  4224b7:	push   0xffffffe4
  4224b9:	push   0xdbee8300
  4224be:	call   0x424281
  4224c3:	add    esp,0xc
  4224c6:	push   0x2bdb7600
  4224cb:	push   0x68
  4224cd:	push   0xffffffe6
  4224cf:	push   0x1c
  4224d1:	call   0x424b54
  4224d6:	add    esp,0x10
  4224d9:	sub    ebx,esi
  4224db:	mov    edi,0x8b
  4224e0:	add    edi,ebx
  4224e2:	push   0xffffffec
  4224e4:	call   0x4243e9
  4224e9:	add    esp,0x4
  4224ec:	mov    eax,DWORD PTR [ebp-0x48]
  4224ef:	sub    DWORD PTR [ebp-0x48],edi
  4224f2:	push   0x9fb8fe00
  4224f7:	push   0xffffff96
  4224f9:	push   0x7e
  4224fb:	call   0x42475d
  422500:	add    esp,0xc
  422503:	mov    edi,DWORD PTR [ebp-0x40]
  422506:	push   0x7b9df500
  42250b:	push   0x47d5f100
  422510:	push   0xdb327400
  422515:	push   0x6
  422517:	call   0x424684
  42251c:	add    esp,0x10
  42251f:	add    edi,eax
  422521:	cmp    edi,0x3f
  422524:	jne    0x422633
  42252a:	xor    eax,eax
  42252c:	mov    ecx,DWORD PTR [ebp-0x8]
  42252f:	push   0xdba3ab00
  422534:	call   0x4243e9
  422539:	add    esp,0x4
  42253c:	sub    DWORD PTR [ebp-0x40],eax
  42253f:	push   0x4fbd4200
  422544:	push   0xffffffa2
  422546:	call   0x424c91
  42254b:	add    esp,0x8
  42254e:	test   edi,0x1
  422554:	je     0x422633
  42255a:	add    edi,edi
  42255c:	cmp    edi,DWORD PTR ds:0x43806c
  422562:	je     0x422633
  422568:	cmp    edi,DWORD PTR ds:0x438088
  42256e:	jne    0x422633
  422574:	call   0x424b54
  422579:	sub    edi,esi
  42257b:	mov    edx,DWORD PTR [ebp-0x8]
  42257e:	mov    eax,esi
  422580:	push   0xffffff9c
  422582:	push   0x297ab900
  422587:	push   0xffffffb9
  422589:	call   0x42451b
  42258e:	add    esp,0xc
  422591:	push   0x5b2b1700
  422596:	push   0xffffffbf
  422598:	push   0xfb6c3600
  42259d:	push   0x7ffc9400
  4225a2:	call   0x423c58
  4225a7:	add    esp,0x10
  4225aa:	push   0xffffffca
  4225ac:	push   0xa94cec00
  4225b1:	push   0xa359d300
  4225b6:	call   0x42451b
  4225bb:	add    esp,0xc
  4225be:	push   0x31
  4225c0:	call   0x424d88
  4225c5:	add    esp,0x4
  4225c8:	sub    edi,esi
  4225ca:	sub    DWORD PTR [ebp-0x40],esi
  4225cd:	push   0x99518500
  4225d2:	push   0xffffffb3
  4225d4:	push   0xffffffcc
  4225d6:	push   0x3790b700
  4225db:	call   0x424684
  4225e0:	add    esp,0x10
  4225e3:	push   0x97f5f100
  4225e8:	push   0xffffffe3
  4225ea:	push   0x47
  4225ec:	push   0xffffffd3
  4225ee:	push   0xdb286300
  4225f3:	call   0x424684
  4225f8:	add    esp,0x14
  4225fb:	cmp    edi,0x7015
  422601:	je     0x422633
  422603:	sub    edi,ebx
  422605:	push   0xffffffeb
  422607:	push   0x15
  422609:	call   0x423c58
  42260e:	add    esp,0x8
  422611:	mov    esi,DWORD PTR [ebp-0x40]
  422614:	push   0xffffffce
  422616:	call   0x42475d
  42261b:	add    esp,0x4
  42261e:	cmp    esi,0xe82b
  422624:	jne    0x422633
  422626:	sub    esi,eax
  422628:	xor    DWORD PTR [ebp-0x8],edi
  42262b:	cmp    esi,DWORD PTR [ebp-0x40]
  42262e:	jne    0x422633
  422630:	add    DWORD PTR [ebp-0x8],esi
  422633:	push   0xc3b8cd00
  422638:	call   0x423c58
  42263d:	add    esp,0x4
  422640:	mov    edx,DWORD PTR [ebp-0x40]
  422643:	mov    edi,DWORD PTR [ebp-0x40]
  422646:	sub    DWORD PTR [ebp-0x8],eax
  422649:	push   0x30
  42264b:	push   0x23009f00
  422650:	call   0x424281
  422655:	add    esp,0x8
  422658:	call   0x423c58
  42265d:	and    edi,ebx
  42265f:	push   0xfffffffa
  422661:	call   0x4243e9
  422666:	add    esp,0x4
  422669:	add    DWORD PTR [ebp-0x40],edi
  42266c:	pop    edi
  42266d:	sub    ebx,edi
  42266f:	push   0x72
  422671:	push   0xd3e12100
  422676:	push   0x34
  422678:	call   0x423c58
  42267d:	add    esp,0xc
  422680:	push   0x9fab4900
  422685:	push   0x230f6400
  42268a:	push   0xffffff9e
  42268c:	push   0x494fd000
  422691:	call   0x4248e2
  422696:	add    esp,0x10
  422699:	add    ebx,eax
  42269b:	mov    edx,DWORD PTR ds:0x43806c
  4226a1:	push   0x31
  4226a3:	push   0x4e
  4226a5:	push   0xa39f6100
  4226aa:	call   0x424a13
  4226af:	add    esp,0xc
  4226b2:	mov    esi,DWORD PTR [ebp-0x48]
  4226b5:	test   esi,0xeb
  4226bb:	je     0x422701
  4226bd:	add    DWORD PTR [ebp-0x48],edi
  4226c0:	and    esi,eax
  4226c2:	push   0xffe3b00
  4226c7:	push   0x1b95d900
  4226cc:	call   0x4243e9
  4226d1:	add    esp,0x8
  4226d4:	mov    eax,DWORD PTR [ebp-0x48]
  4226d7:	add    eax,ebx
  4226d9:	call   0x42475d
  4226de:	mov    ebx,edi
  4226e0:	add    DWORD PTR [ebp-0x48],esi
  4226e3:	push   0x5a
  4226e5:	call   0x4248e2
  4226ea:	add    esp,0x4
  4226ed:	add    ebx,ebx
  4226ef:	cmp    ebx,0xfae0
  4226f5:	jne    0x422701
  4226f7:	call   0x424684
  4226fc:	sub    ebx,edi
  4226fe:	add    DWORD PTR [ebp-0x8],ebx
  422701:	pop    esi
  422702:	push   0x41
  422704:	push   0x2bddf100
  422709:	push   0x33a3e300
  42270e:	call   0x424b54
  422713:	add    esp,0xc
  422716:	call   0x42451b
  42271b:	pop    ebx
  42271c:	push   0x7fa69400
  422721:	push   0xffffffa8
  422723:	push   0xffffffcf
  422725:	call   0x424c91
  42272a:	add    esp,0xc
  42272d:	push   0x83972400
  422732:	push   0xffffffbd
  422734:	push   0x697ad400
  422739:	push   0xffffffd2
  42273b:	push   0xe90d6100
  422740:	call   0x42451b
  422745:	add    esp,0x14
  422748:	leave  
  422749:	ret    
  42274a:	int3   
  42274b:	int3   
  42274c:	int3   
  42274d:	int3   
  42274e:	int3   
  42274f:	push   ebp
  422750:	mov    ebp,esp
  422752:	sub    esp,0x5c
  422755:	xor    eax,eax
  422757:	push   0x9fd21a00
  42275c:	push   0x36
  42275e:	push   0x5f
  422760:	push   0x6bfa9400
  422765:	push   0x7f94eb00
  42276a:	call   0x424281
  42276f:	add    esp,0x14
  422772:	push   0x23478a00
  422777:	push   0x67d96e00
  42277c:	push   0x2a
  42277e:	push   0x5b03d200
  422783:	push   0x61
  422785:	call   0x424d88
  42278a:	add    esp,0x14
  42278d:	push   ebx
  42278e:	push   0x22
  422790:	call   0x424a13
  422795:	add    esp,0x4
  422798:	push   esi
  422799:	call   0x42451b
  42279e:	push   edi
  42279f:	mov    edi,DWORD PTR ds:0x438058
  4227a5:	push   0xd9109000
  4227aa:	push   0x20
  4227ac:	push   0x7c
  4227ae:	push   0x29378b00
  4227b3:	call   0x42451b
  4227b8:	add    esp,0x10
  4227bb:	push   0xc3c20f00
  4227c0:	push   0x195bd000
  4227c5:	call   0x424a13
  4227ca:	add    esp,0x8
  4227cd:	and    edi,eax
  4227cf:	push   0xf39dfd00
  4227d4:	push   0x5d
  4227d6:	push   0xffffffbd
  4227d8:	call   0x424281
  4227dd:	add    esp,0xc
  4227e0:	call   0x4248e2
  4227e5:	call   0x424067
  4227ea:	cmp    edi,0xffffffdb
  4227ed:	jne    0x4229b5
  4227f3:	or     edi,eax
  4227f5:	call   0x424d88
  4227fa:	xor    esi,esi
  4227fc:	push   0xa
  4227fe:	call   0x42451b
  422803:	add    esp,0x4
  422806:	push   0x33ab5c00
  42280b:	push   0x630c3500
  422810:	call   0x424c91
  422815:	add    esp,0x8
  422818:	mov    ecx,esi
  42281a:	cmp    edi,DWORD PTR ds:0x438058
  422820:	je     0x4229b5
  422826:	mov    edx,0xc23c
  42282b:	mov    eax,0x49
  422830:	push   0xebb1a500
  422835:	push   0x139cf800
  42283a:	push   0x6912d000
  42283f:	call   0x423dbe
  422844:	add    esp,0xc
  422847:	push   0xffffffda
  422849:	push   0x27946100
  42284e:	push   0x13
  422850:	call   0x423dbe
  422855:	add    esp,0xc
  422858:	push   0x72
  42285a:	push   0x5be36700
  42285f:	push   0x8
  422861:	push   0x5b06f800
  422866:	push   0x23afff00
  42286b:	call   0x4243e9
  422870:	add    esp,0x14
  422873:	push   0x3a
  422875:	push   0x3b
  422877:	call   0x424d88
  42287c:	add    esp,0x8
  42287f:	and    edi,eax
  422881:	cmp    edi,DWORD PTR [ebp-0x44]
  422884:	je     0x4229b5
  42288a:	and    edi,esi
  42288c:	and    edi,eax
  42288e:	push   0x391c7200
  422893:	push   0x49778d00
  422898:	call   0x423c58
  42289d:	add    esp,0x8
  4228a0:	cmp    edi,0x10
  4228a3:	je     0x4229b5
  4228a9:	mov    esi,0x2d
  4228ae:	push   0xf
  4228b0:	push   0xfffffffc
  4228b2:	push   0xffffffdb
  4228b4:	call   0x423c58
  4228b9:	add    esp,0xc
  4228bc:	call   0x423dbe
  4228c1:	xor    ebx,ebx
  4228c3:	push   0xfffffffd
  4228c5:	call   0x423dbe
  4228ca:	add    esp,0x4
  4228cd:	add    ebx,ebx
  4228cf:	push   0xc90a4400
  4228d4:	call   0x423dbe
  4228d9:	add    esp,0x4
  4228dc:	push   0x6910d700
  4228e1:	push   0x34
  4228e3:	push   0xffffff83
  4228e5:	call   0x4243e9
  4228ea:	add    esp,0xc
  4228ed:	mov    DWORD PTR [ebp-0x24],eax
  4228f0:	push   0xffffffaa
  4228f2:	push   0xffffff89
  4228f4:	push   0xffffff86
  4228f6:	call   0x424684
  4228fb:	add    esp,0xc
  4228fe:	push   0x790e6700
  422903:	push   0x0
  422905:	push   0x3
  422907:	push   0xffffffe1
  422909:	call   0x424d88
  42290e:	add    esp,0x10
  422911:	push   0xffffffb5
  422913:	call   0x424c91
  422918:	add    esp,0x4
  42291b:	cmp    edi,0x5d
  42291e:	jne    0x4229b5
  422924:	push   0x2be87d00
  422929:	call   0x42451b
  42292e:	add    esp,0x4
  422931:	add    DWORD PTR [ebp-0x24],ebx
  422934:	push   0x27
  422936:	push   0x3c
  422938:	push   0x637b8100
  42293d:	push   0xfffffffa
  42293f:	push   0xffffff9d
  422941:	call   0x423dbe
  422946:	add    esp,0x14
  422949:	call   0x423c58
  42294e:	and    esi,eax
  422950:	push   0x17b85a00
  422955:	push   0x23225300
  42295a:	push   0x17e69000
  42295f:	call   0x424281
  422964:	add    esp,0xc
  422967:	push   0xffffff8d
  422969:	call   0x424684
  42296e:	add    esp,0x4
  422971:	push   0xffffff80
  422973:	call   0x424281
  422978:	add    esp,0x4
  42297b:	mov    ebx,DWORD PTR [ebp-0x24]
  42297e:	sub    DWORD PTR [ebp-0x24],edi
  422981:	push   0x8bd26a00
  422986:	push   0x5f
  422988:	push   0xfb7e0b00
  42298d:	push   0xb
  42298f:	call   0x424067
  422994:	add    esp,0x10
  422997:	mov    eax,DWORD PTR ds:0x438054
  42299d:	push   0xb3998600
  4229a2:	push   0xfb5d7600
  4229a7:	call   0x4248e2
  4229ac:	add    esp,0x8
  4229af:	sub    DWORD PTR [ebp-0x24],ebx
  4229b2:	add    DWORD PTR [ebp-0x24],esi
  4229b5:	call   0x42475d
  4229ba:	sub    esi,ebx
  4229bc:	call   0x424b54
  4229c1:	sub    esi,ebx
  4229c3:	mov    eax,0xb1
  4229c8:	push   0xbbabf600
  4229cd:	push   0x69025d00
  4229d2:	push   0x6926a100
  4229d7:	push   0xffffffab
  4229d9:	push   0xffffffff
  4229db:	call   0x424c91
  4229e0:	add    esp,0x14
  4229e3:	mov    ecx,DWORD PTR ds:0x438054
  4229e9:	call   0x424b54
  4229ee:	push   0x4bbec700
  4229f3:	push   0x9f9b5700
  4229f8:	push   0xffffffd8
  4229fa:	push   0xfffffff9
  4229fc:	call   0x424d88
  422a01:	add    esp,0x10
  422a04:	push   0xa9656400
  422a09:	push   0xaff44c00
  422a0e:	call   0x424b54
  422a13:	add    esp,0x8
  422a16:	sub    esi,eax
  422a18:	push   0xfb10f300
  422a1d:	push   0x595baa00
  422a22:	push   0xe3418600
  422a27:	push   0x47d89900
  422a2c:	call   0x424281
  422a31:	add    esp,0x10
  422a34:	push   0x779a0400
  422a39:	call   0x424c91
  422a3e:	add    esp,0x4
  422a41:	cmp    esi,DWORD PTR ds:0x438054
  422a47:	jne    0x422a7d
  422a49:	cmp    ebx,eax
  422a4b:	je     0x422a7d
  422a4d:	push   0x9ba4a800
  422a52:	push   0x192af500
  422a57:	call   0x424281
  422a5c:	add    esp,0x8
  422a5f:	and    esi,edi
  422a61:	call   0x42475d
  422a66:	push   0xffffff9b
  422a68:	push   0x8901a100
  422a6d:	push   0xfb745a00
  422a72:	call   0x424c91
  422a77:	add    esp,0xc
  422a7a:	mov    DWORD PTR [ebp-0x34],esi
  422a7d:	push   0xa30caf00
  422a82:	push   0x8bc07800
  422a87:	push   0x9139000
  422a8c:	push   0x13a24200
  422a91:	call   0x424b54
  422a96:	add    esp,0x10
  422a99:	mov    DWORD PTR [ebp-0x40],0x7c297e83
  422aa0:	cmp    edi,esi
  422aa2:	je     0x422b03
  422aa4:	cmp    edi,esi
  422aa6:	jne    0x422b03
  422aa8:	and    esi,eax
  422aaa:	cmp    esi,0xffffff98
  422aad:	je     0x422b03
  422aaf:	push   0xfffffffd
  422ab1:	push   0x29425e00
  422ab6:	push   0x69139700
  422abb:	push   0xe3079f00
  422ac0:	push   0x5f
  422ac2:	call   0x4248e2
  422ac7:	add    esp,0x14
  422aca:	push   0x17b01e00
  422acf:	push   0x1d
  422ad1:	push   0xd79ec500
  422ad6:	call   0x4248e2
  422adb:	add    esp,0xc
  422ade:	cmp    ebx,DWORD PTR ds:0x438058
  422ae4:	jne    0x422b03
  422ae6:	sub    esi,edi
  422ae8:	call   0x423dbe
  422aed:	cmp    esi,DWORD PTR [ebp-0x44]
  422af0:	jne    0x422b03
  422af2:	mov    ecx,esi
  422af4:	push   0xd9306e00
  422af9:	push   0xffffff8d
  422afb:	call   0x42451b
  422b00:	add    esp,0x8
  422b03:	push   0xa3243200
  422b08:	push   0xfffffff3
  422b0a:	call   0x424c91
  422b0f:	add    esp,0x8
  422b12:	call   0x422ff7
  422b17:	sub    esi,edi
  422b19:	xor    edx,edx
  422b1b:	cmp    esi,DWORD PTR ds:0x438054
  422b21:	jne    0x422bac
  422b27:	mov    ecx,0x5c
  422b2c:	cmp    ebx,0xe92084a4
  422b32:	jne    0x422bac
  422b34:	mov    DWORD PTR [ebp-0x10],edx
  422b37:	sub    esi,ebx
  422b39:	cmp    esi,edi
  422b3b:	je     0x422bac
  422b3d:	mov    ebx,0x6f
  422b42:	sub    DWORD PTR [ebp-0x10],esi
  422b45:	mov    edx,DWORD PTR [ebp-0x10]
  422b48:	sub    DWORD PTR [ebp-0x10],edx
  422b4b:	or     DWORD PTR [ebp-0x10],ebx
  422b4e:	and    ecx,ebx
  422b50:	cmp    edx,0xffffff89
  422b53:	jne    0x422bac
  422b55:	sub    esi,eax
  422b57:	mov    edi,eax
  422b59:	mov    ebx,DWORD PTR [ebp-0x10]
  422b5c:	cmp    edi,DWORD PTR [ebp-0x4]
  422b5f:	jne    0x422bac
  422b61:	sub    esi,ebx
  422b63:	sub    DWORD PTR [ebp-0x10],ecx
  422b66:	sub    DWORD PTR [ebp-0x10],edi
  422b69:	mov    edx,DWORD PTR [ebp-0x10]
  422b6c:	xor    ebx,ebx
  422b6e:	sub    DWORD PTR [ebp-0x10],esi
  422b71:	cmp    esi,0xb73c
  422b77:	je     0x422bac
  422b79:	mov    esi,DWORD PTR [ebp-0x10]
  422b7c:	mov    edi,DWORD PTR [ebp-0x10]
  422b7f:	sub    DWORD PTR [ebp-0x10],edi
  422b82:	and    DWORD PTR [ebp-0x10],edx
  422b85:	add    ebx,edx
  422b87:	or     DWORD PTR [ebp-0x10],esi
  422b8a:	cmp    ebx,0xe51f
  422b90:	jne    0x422bac
  422b92:	mov    esi,DWORD PTR [ebp-0x10]
  422b95:	mov    edx,DWORD PTR [ebp-0x10]
  422b98:	sub    ebx,edi
  422b9a:	sub    edx,eax
  422b9c:	add    DWORD PTR [ebp-0x10],edi
  422b9f:	mov    DWORD PTR [ebp-0x10],esi
  422ba2:	add    DWORD PTR [ebp-0x10],edx
  422ba5:	and    ebx,edx
  422ba7:	or     ebx,esi
  422ba9:	xor    DWORD PTR [ebp-0x10],ebx
  422bac:	mov    DWORD PTR [ebp-0x38],eax
  422baf:	add    ebx,ebx
  422bb1:	add    ebx,ecx
  422bb3:	mov    DWORD PTR [ebp-0xc],ecx
  422bb6:	add    ebx,eax
  422bb8:	or     DWORD PTR [ebp-0xc],ebx
  422bbb:	push   0xa940c800
  422bc0:	push   0xffffff86
  422bc2:	call   0x424b54
  422bc7:	add    esp,0x8
  422bca:	call   0x422ff7
  422bcf:	mov    ecx,DWORD PTR [ebp-0xc]
  422bd2:	mov    edx,DWORD PTR [ebp-0xc]
  422bd5:	add    DWORD PTR [ebp-0xc],ecx
  422bd8:	sub    DWORD PTR [ebp-0xc],edx
  422bdb:	mov    DWORD PTR [ebp-0x48],eax
  422bde:	push   0x61
  422be0:	push   0x3926dd00
  422be5:	push   0xf79bdb00
  422bea:	push   0x99304c00
  422bef:	call   0x4248e2
  422bf4:	add    esp,0x10
  422bf7:	call   0x424684
  422bfc:	call   0x422ff7
  422c01:	mov    ebx,DWORD PTR [ebp-0xc]
  422c04:	sub    ebx,esi
  422c06:	mov    edi,0xe3
  422c0b:	add    ebx,esi
  422c0d:	add    edi,esi
  422c0f:	cmp    ebx,DWORD PTR [ebp-0x28]
  422c12:	je     0x422c4a
  422c14:	sub    DWORD PTR [ebp-0xc],eax
  422c17:	sub    DWORD PTR [ebp-0xc],ebx
  422c1a:	mov    edx,DWORD PTR [ebp-0xc]
  422c1d:	test   edx,0xcf801b78
  422c23:	je     0x422c4a
  422c25:	mov    ebx,DWORD PTR [ebp-0xc]
  422c28:	mov    esi,DWORD PTR [ebp-0xc]
  422c2b:	cmp    edx,DWORD PTR [ebp-0x2c]
  422c2e:	jne    0x422c4a
  422c30:	mov    ecx,DWORD PTR ds:0x438054
  422c36:	and    edi,edx
  422c38:	and    ecx,esi
  422c3a:	mov    DWORD PTR [ebp-0xc],ecx
  422c3d:	cmp    ebx,DWORD PTR [ebp-0x50]
  422c40:	jne    0x422c4a
  422c42:	add    DWORD PTR [ebp-0xc],edi
  422c45:	sub    ebx,esi
  422c47:	mov    DWORD PTR [ebp-0xc],ebx
  422c4a:	mov    DWORD PTR [ebp-0x1c],eax
  422c4d:	sub    eax,ecx
  422c4f:	push   0x37973100
  422c54:	push   0x75
  422c56:	push   0x48
  422c58:	push   0x55
  422c5a:	push   0xebd24800
  422c5f:	call   0x424a13
  422c64:	add    esp,0x14
  422c67:	mov    edx,DWORD PTR [ebp-0x48]
  422c6a:	and    ebx,edx
  422c6c:	add    ebx,esi
  422c6e:	mov    edi,esi
  422c70:	mov    eax,0xfc
  422c75:	sub    DWORD PTR [ebp-0xc],ebx
  422c78:	sub    DWORD PTR [ebp-0xc],eax
  422c7b:	sub    DWORD PTR [ebp-0xc],edi
  422c7e:	sub    edx,DWORD PTR [ebp-0x38]
  422c81:	test   edx,0xd6
  422c87:	je     0x422ca9
  422c89:	mov    eax,DWORD PTR [ebp-0xc]
  422c8c:	sub    eax,edx
  422c8e:	cmp    eax,0xffffffb1
  422c91:	jne    0x422ca9
  422c93:	cmp    esi,eax
  422c95:	je     0x422ca9
  422c97:	mov    esi,ebx
  422c99:	mov    DWORD PTR [ebp-0xc],eax
  422c9c:	add    esi,esi
  422c9e:	cmp    esi,DWORD PTR ds:0x438058
  422ca4:	je     0x422ca9
  422ca6:	add    DWORD PTR [ebp-0xc],esi
  422ca9:	xor    edx,0xa0d04966
  422caf:	mov    edi,0x2f03
  422cb4:	mov    esi,edi
  422cb6:	add    esi,esi
  422cb8:	and    esi,ebx
  422cba:	add    esi,esi
  422cbc:	add    DWORD PTR [ebp-0xc],edx
  422cbf:	add    esi,edi
  422cc1:	cmp    esi,DWORD PTR ds:0x438058
  422cc7:	je     0x422cf0
  422cc9:	or     esi,edx
  422ccb:	cmp    esi,DWORD PTR [ebp-0x24]
  422cce:	jne    0x422cf0
  422cd0:	sub    esi,edx
  422cd2:	cmp    esi,DWORD PTR [ebp-0x28]
  422cd5:	je     0x422cf0
  422cd7:	add    esi,ebx
  422cd9:	mov    ecx,0x636d
  422cde:	add    ecx,edi
  422ce0:	sub    esi,edx
  422ce2:	test   esi,0x59
  422ce8:	jne    0x422cf0
  422cea:	sub    DWORD PTR [ebp-0xc],ecx
  422ced:	sub    DWORD PTR [ebp-0xc],esi
  422cf0:	mov    ecx,DWORD PTR [ebp-0x1c]
  422cf3:	sub    edi,esi
  422cf5:	add    DWORD PTR [ebp-0xc],edi
  422cf8:	sub    ecx,DWORD PTR [ebp-0x48]
  422cfb:	cmp    ecx,DWORD PTR [ebp-0x30]
  422cfe:	je     0x422d64
  422d00:	mov    ebx,DWORD PTR [ebp-0xc]
  422d03:	cmp    ebx,0xffffffee
  422d06:	jne    0x422d64
  422d08:	mov    eax,DWORD PTR [ebp-0xc]
  422d0b:	cmp    eax,DWORD PTR ds:0x438054
  422d11:	jne    0x422d64
  422d13:	mov    edi,DWORD PTR [ebp-0xc]
  422d16:	mov    esi,ecx
  422d18:	cmp    esi,DWORD PTR ds:0x438054
  422d1e:	je     0x422d64
  422d20:	add    edi,ecx
  422d22:	sub    DWORD PTR [ebp-0xc],edi
  422d25:	xor    edi,edi
  422d27:	add    DWORD PTR [ebp-0xc],ebx
  422d2a:	mov    DWORD PTR [ebp-0xc],edi
  422d2d:	test   esi,0x67
  422d33:	je     0x422d64
  422d35:	mov    edi,DWORD PTR [ebp-0xc]
  422d38:	mov    ebx,ecx
  422d3a:	sub    DWORD PTR [ebp-0xc],ecx
  422d3d:	cmp    eax,DWORD PTR ds:0x438058
  422d43:	jne    0x422d64
  422d45:	cmp    esi,edi
  422d47:	je     0x422d64
  422d49:	add    DWORD PTR [ebp-0xc],esi
  422d4c:	xor    esi,esi
  422d4e:	or     edi,eax
  422d50:	add    DWORD PTR [ebp-0xc],esi
  422d53:	sub    ebx,edx
  422d55:	and    edi,ebx
  422d57:	add    edi,esi
  422d59:	test   edi,0x1aae
  422d5f:	jne    0x422d64
  422d61:	xor    DWORD PTR [ebp-0xc],edi
  422d64:	xor    ecx,0xa0d04963
  422d6a:	mov    ebx,0x35
  422d6f:	mov    edi,DWORD PTR [ebp-0xc]
  422d72:	cmp    edi,DWORD PTR ds:0x438054
  422d78:	je     0x422d9c
  422d7a:	sub    edi,ecx
  422d7c:	mov    esi,0x6d
  422d81:	or     DWORD PTR [ebp-0xc],edi
  422d84:	mov    edi,DWORD PTR ds:0x438054
  422d8a:	add    ebx,ecx
  422d8c:	add    esi,edx
  422d8e:	sub    edi,ebx
  422d90:	and    esi,ebx
  422d92:	sub    DWORD PTR [ebp-0xc],esi
  422d95:	add    edi,eax
  422d97:	sub    edi,ebx
  422d99:	mov    DWORD PTR [ebp-0xc],edi
  422d9c:	cmp    edx,ecx
  422d9e:	je     0x422ecc
  422da4:	call   0x424067
  422da9:	push   0xa36a6100
  422dae:	call   0x424281
  422db3:	add    esp,0x4
  422db6:	push   0x438058
  422dbb:	call   DWORD PTR ds:0x435b3c
  422dc1:	test   ebx,0xb4
  422dc7:	je     0x422e23
  422dc9:	mov    edi,DWORD PTR [ebp-0xc]
  422dcc:	mov    ebx,DWORD PTR [ebp-0xc]
  422dcf:	cmp    ebx,0xbc9
  422dd5:	je     0x422e23
  422dd7:	and    ebx,esi
  422dd9:	sub    ebx,eax
  422ddb:	mov    ecx,0xb5
  422de0:	or     DWORD PTR [ebp-0xc],edi
  422de3:	test   ebx,0x6
  422de9:	jne    0x422e23
  422deb:	sub    DWORD PTR [ebp-0xc],ebx
  422dee:	mov    ebx,esi
  422df0:	mov    edx,DWORD PTR [ebp-0xc]
  422df3:	and    ecx,ebx
  422df5:	sub    DWORD PTR [ebp-0xc],ecx
  422df8:	cmp    ecx,0x6b
  422dfb:	jne    0x422e23
  422dfd:	xor    edi,edi
  422dff:	mov    ebx,edx
  422e01:	sub    edi,edx
  422e03:	test   edi,0xb80d
  422e09:	jne    0x422e23
  422e0b:	add    DWORD PTR [ebp-0xc],edi
  422e0e:	mov    edx,DWORD PTR [ebp-0xc]
  422e11:	cmp    edx,DWORD PTR ds:0x438058
  422e17:	jne    0x422e23
  422e19:	xor    ecx,ecx
  422e1b:	and    edx,ecx
  422e1d:	sub    DWORD PTR [ebp-0xc],edx
  422e20:	add    DWORD PTR [ebp-0xc],ebx
  422e23:	or     eax,eax
  422e25:	je     0x422ecc
  422e2b:	mov    edi,0xa4f7
  422e30:	mov    esi,DWORD PTR [ebp-0xc]
  422e33:	and    esi,edi
  422e35:	mov    DWORD PTR [ebp-0xc],esi
  422e38:	add    DWORD PTR [ebp-0x40],0x7ae482d7
  422e3f:	mov    edi,0xce
  422e44:	add    DWORD PTR [ebp-0xc],edi
  422e47:	lea    esi,[eax+0xcf3]
  422e4d:	xor    edi,edi
  422e4f:	push   0x491fd500
  422e54:	push   0x5919a900
  422e59:	call   0x424b54
  422e5e:	add    esp,0x8
  422e61:	call   0x42451b
  422e66:	sub    DWORD PTR [ebp-0xc],edi
  422e69:	inc    esi
  422e6a:	push   0xa302a000
  422e6f:	push   0x47ded300
  422e74:	call   0x42475d
  422e79:	add    esp,0x8
  422e7c:	push   0x39333400
  422e81:	call   0x424067
  422e86:	add    esp,0x4
  422e89:	mov    ebx,DWORD PTR [esi]
  422e8b:	add    DWORD PTR [ebp-0xc],edi
  422e8e:	sub    ebx,0x3014e531
  422e94:	push   0x93958500
  422e99:	push   0xa30aad00
  422e9e:	call   0x424067
  422ea3:	add    esp,0x8
  422ea6:	cmp    ebx,0xd05a1b22
  422eac:	jne    0x422e4d
  422eae:	mov    edi,0x4ba
  422eb3:	mov    ecx,DWORD PTR [ebp-0xc]
  422eb6:	xor    DWORD PTR [ebp-0xc],edi
  422eb9:	cmp    eax,DWORD PTR [ebp-0x58]
  422ebc:	je     0x422ec1
  422ebe:	sub    DWORD PTR [ebp-0xc],ecx
  422ec1:	mov    ebx,DWORD PTR [esi+0x4]
  422ec4:	call   0x423c58
  422ec9:	sub    DWORD PTR [ebp-0x40],ebx
  422ecc:	push   0xffffffb5
  422ece:	push   0x5c
  422ed0:	call   0x4248e2
  422ed5:	add    esp,0x8
  422ed8:	xor    ebx,ebx
  422eda:	push   0x23dc9200
  422edf:	push   0x17bee200
  422ee4:	push   0x5a
  422ee6:	push   0xfb23a500
  422eeb:	call   0x424c91
  422ef0:	add    esp,0x10
  422ef3:	push   0x77
  422ef5:	push   0x3f
  422ef7:	call   0x424684
  422efc:	add    esp,0x8
  422eff:	push   0x73
  422f01:	push   0x74
  422f03:	push   0xfffffffd
  422f05:	push   0x63
  422f07:	push   0x59427b00
  422f0c:	call   0x42451b
  422f11:	add    esp,0x14
  422f14:	push   0x55
  422f16:	push   0x6f
  422f18:	push   0x15
  422f1a:	push   0xcbcc0000
  422f1f:	push   0xf9723100
  422f24:	call   0x42475d
  422f29:	add    esp,0x14
  422f2c:	and    ebx,esi
  422f2e:	push   0xffffffe5
  422f30:	call   0x423dbe
  422f35:	add    esp,0x4
  422f38:	or     ebx,esi
  422f3a:	push   0xffffffbf
  422f3c:	push   0x63331800
  422f41:	push   0x70
  422f43:	push   0x52
  422f45:	push   0xf81b000
  422f4a:	call   0x4248e2
  422f4f:	add    esp,0x14
  422f52:	and    DWORD PTR [ebp-0xc],ebx
  422f55:	push   0x62
  422f57:	push   0xffffff8e
  422f59:	call   0x424a13
  422f5e:	add    esp,0x8
  422f61:	mov    ecx,DWORD PTR [ebp+0xc]
  422f64:	sub    DWORD PTR [ebp-0xc],ecx
  422f67:	mov    esi,DWORD PTR [ebp-0x40]
  422f6a:	mov    ebx,DWORD PTR [ebp-0xc]
  422f6d:	add    DWORD PTR [ebp-0xc],eax
  422f70:	test   esi,0xd6
  422f76:	jne    0x422f91
  422f78:	xor    edx,edx
  422f7a:	sub    DWORD PTR [ebp-0xc],ebx
  422f7d:	mov    eax,0x4a35
  422f82:	add    DWORD PTR [ebp-0xc],ecx
  422f85:	add    DWORD PTR [ebp-0xc],edi
  422f88:	cmp    esi,ebx
  422f8a:	je     0x422f91
  422f8c:	or     eax,edx
  422f8e:	add    DWORD PTR [ebp-0xc],eax
  422f91:	mov    DWORD PTR [ecx+0x0],esi
  422f94:	push   0x3950f00
  422f99:	call   0x424b54
  422f9e:	add    esp,0x4
  422fa1:	push   0xbbf55b00
  422fa6:	call   0x424c91
  422fab:	add    esp,0x4
  422fae:	pop    edi
  422faf:	push   0xffffffe5
  422fb1:	push   0xffffffdd
  422fb3:	call   0x424b54
  422fb8:	add    esp,0x8
  422fbb:	pop    esi
  422fbc:	push   0x87d8ea00
  422fc1:	push   0x1a
  422fc3:	push   0xffffffec
  422fc5:	push   0x8
  422fc7:	call   0x423dbe
  422fcc:	add    esp,0x10
  422fcf:	pop    ebx
  422fd0:	cmp    esi,DWORD PTR ds:0x438058
  422fd6:	jne    0x422fee
  422fd8:	push   0x36
  422fda:	push   0xffffffa3
  422fdc:	push   0x8b869b00
  422fe1:	push   0xa37bd200
  422fe6:	call   0x424281
  422feb:	add    esp,0x10
  422fee:	leave  
  422fef:	ret    0x8
  422ff2:	int3   
  422ff3:	int3   
  422ff4:	int3   
  422ff5:	int3   
  422ff6:	int3   
  422ff7:	push   ebp
  422ff8:	mov    ebp,esp
  422ffa:	sub    esp,0x38
  422ffd:	call   0x424b54
  423002:	push   0x19362400
  423007:	push   0xa3465800
  42300c:	call   0x42475d
  423011:	add    esp,0x8
  423014:	push   ebx
  423015:	mov    eax,0x83408d10
  42301a:	push   0x3d
  42301c:	push   0x3beef400
  423021:	call   0x42451b
  423026:	add    esp,0x8
  423029:	push   0x2fd45000
  42302e:	call   0x423c58
  423033:	add    esp,0x4
  423036:	push   esi
  423037:	push   0xbfce1100
  42303c:	push   0x6336bf00
  423041:	call   0x4243e9
  423046:	add    esp,0x8
  423049:	push   edi
  42304a:	mov    ecx,DWORD PTR ds:0x438068
  423050:	mov    DWORD PTR [ebp-0x38],eax
  423053:	mov    edx,0xec60
  423058:	push   0xffffffee
  42305a:	call   0x423dbe
  42305f:	add    esp,0x4
  423062:	push   0x59292e00
  423067:	push   0xe9358800
  42306c:	push   0x27eda800
  423071:	push   0x55
  423073:	push   0x5b74af00
  423078:	call   0x424281
  42307d:	add    esp,0x14
  423080:	push   0xb949b900
  423085:	push   0xffffff88
  423087:	call   0x4248e2
  42308c:	add    esp,0x8
  42308f:	push   0x63
  423091:	push   0x53811900
  423096:	push   0x49
  423098:	push   0x29053100
  42309d:	push   0xe32e2200
  4230a2:	call   0x424281
  4230a7:	add    esp,0x14
  4230aa:	rdtsc  
  4230ac:	mov    esi,0x92
  4230b1:	sub    esi,eax
  4230b3:	mov    edi,0x51
  4230b8:	sub    edx,eax
  4230ba:	sub    DWORD PTR [ebp-0x38],edx
  4230bd:	sub    DWORD PTR [ebp-0x38],edi
  4230c0:	add    esi,eax
  4230c2:	sub    DWORD PTR [ebp-0x38],esi
  4230c5:	sub    DWORD PTR [ebp-0x38],edx
  4230c8:	mov    ecx,0x63
  4230cd:	sub    ecx,esi
  4230cf:	mov    ecx,DWORD PTR [ebp-0x38]
  4230d2:	and    ecx,edi
  4230d4:	xor    DWORD PTR [ebp-0x38],edi
  4230d7:	sub    DWORD PTR [ebp-0x38],ecx
  4230da:	pop    edi
  4230db:	mov    ecx,edi
  4230dd:	add    DWORD PTR [ebp-0x38],edx
  4230e0:	mov    edx,esi
  4230e2:	or     DWORD PTR [ebp-0x38],edx
  4230e5:	test   ecx,0xf2ad
  4230eb:	je     0x423158
  4230ed:	sub    ecx,eax
  4230ef:	cmp    edi,0x33
  4230f2:	je     0x423158
  4230f4:	mov    ebx,0x29
  4230f9:	add    DWORD PTR [ebp-0x38],esi
  4230fc:	add    ecx,ecx
  4230fe:	or     ecx,edx
  423100:	and    ecx,esi
  423102:	mov    esi,0x49
  423107:	cmp    ecx,DWORD PTR [ebp-0x8]
  42310a:	jne    0x423158
  42310c:	cmp    ecx,DWORD PTR [ebp-0x8]
  42310f:	jne    0x423158
  423111:	cmp    ecx,DWORD PTR ds:0x438068
  423117:	je     0x423158
  423119:	sub    DWORD PTR [ebp-0x38],ecx
  42311c:	mov    edx,DWORD PTR [ebp-0x38]
  42311f:	mov    ecx,0x44
  423124:	add    esi,esi
  423126:	add    edx,eax
  423128:	add    ebx,ebx
  42312a:	cmp    edx,0x15
  42312d:	je     0x423158
  42312f:	add    edx,ecx
  423131:	mov    ecx,DWORD PTR [ebp-0x38]
  423134:	cmp    edx,0xffffff9f
  423137:	jne    0x423158
  423139:	add    DWORD PTR [ebp-0x38],ebx
  42313c:	mov    ebx,DWORD PTR ds:0x438040
  423142:	sub    DWORD PTR [ebp-0x38],ecx
  423145:	xor    ecx,ecx
  423147:	add    ecx,eax
  423149:	sub    DWORD PTR [ebp-0x38],eax
  42314c:	sub    DWORD PTR [ebp-0x38],edx
  42314f:	xor    DWORD PTR [ebp-0x38],ecx
  423152:	sub    DWORD PTR [ebp-0x38],esi
  423155:	xor    DWORD PTR [ebp-0x38],ebx
  423158:	pop    esi
  423159:	xor    ebx,ebx
  42315b:	mov    edx,DWORD PTR [ebp-0x38]
  42315e:	sub    edx,edi
  423160:	sub    ebx,edx
  423162:	sub    ebx,edx
  423164:	sub    ebx,edi
  423166:	add    DWORD PTR [ebp-0x38],ebx
  423169:	pop    ebx
  42316a:	xor    ecx,ecx
  42316c:	mov    edx,0x4f
  423171:	sub    edx,edi
  423173:	cmp    edx,ecx
  423175:	jne    0x423186
  423177:	and    ecx,ebx
  423179:	or     DWORD PTR [ebp-0x38],esi
  42317c:	xor    DWORD PTR [ebp-0x38],edx
  42317f:	and    ecx,edi
  423181:	add    ecx,esi
  423183:	and    DWORD PTR [ebp-0x38],ecx
  423186:	leave  
  423187:	ret    
  423188:	int3   
  423189:	int3   
  42318a:	int3   
  42318b:	int3   
  42318c:	int3   
  42318d:	push   ebp
  42318e:	mov    ebp,esp
  423190:	sub    esp,0x20
  423193:	push   0x9789d00
  423198:	call   0x424a13
  42319d:	add    esp,0x4
  4231a0:	push   0xffffffe3
  4231a2:	call   0x4243e9
  4231a7:	add    esp,0x4
  4231aa:	push   ebx
  4231ab:	push   0xfffffff9
  4231ad:	push   0x25
  4231af:	push   0xd3800000
  4231b4:	call   0x423dbe
  4231b9:	add    esp,0xc
  4231bc:	push   esi
  4231bd:	add    eax,eax
  4231bf:	push   0x6c
  4231c1:	push   0xefa98700
  4231c6:	call   0x424684
  4231cb:	add    esp,0x8
  4231ce:	push   edi
  4231cf:	push   0x897b6f00
  4231d4:	push   0xfffffffd
  4231d6:	push   0xff8d7c00
  4231db:	push   0x75
  4231dd:	push   0x1
  4231df:	call   0x424684
  4231e4:	add    esp,0x14
  4231e7:	push   0xd3b9ac00
  4231ec:	push   0xa
  4231ee:	push   0xfb597400
  4231f3:	push   0x23706400
  4231f8:	call   0x424d88
  4231fd:	add    esp,0x10
  423200:	mov    edx,DWORD PTR [ebp+0x10]
  423203:	mov    DWORD PTR [ebp-0xc],edx
  423206:	mov    ecx,DWORD PTR [ebp+0x8]
  423209:	xor    eax,eax
  42320b:	test   ecx,0x57
  423211:	je     0x423261
  423213:	mov    esi,DWORD PTR [ebp-0xc]
  423216:	or     eax,ecx
  423218:	sub    DWORD PTR [ebp-0xc],eax
  42321b:	mov    edi,DWORD PTR [ebp-0xc]
  42321e:	cmp    edi,0xb21f
  423224:	je     0x423261
  423226:	xor    DWORD PTR [ebp-0xc],edx
  423229:	xor    eax,eax
  42322b:	mov    ebx,DWORD PTR ds:0x438084
  423231:	test   esi,0xeb
  423237:	je     0x423261
  423239:	and    DWORD PTR [ebp-0xc],eax
  42323c:	xor    eax,eax
  42323e:	or     esi,edx
  423240:	add    DWORD PTR [ebp-0xc],eax
  423243:	mov    ebx,DWORD PTR ds:0x43807c
  423249:	sub    esi,ebx
  42324b:	sub    DWORD PTR [ebp-0xc],esi
  42324e:	test   edi,0xdf
  423254:	jne    0x423261
  423256:	mov    ebx,DWORD PTR ds:0x43807c
  42325c:	sub    edi,ebx
  42325e:	add    DWORD PTR [ebp-0xc],edi
  423261:	cmp    DWORD PTR [ebp+0xc],edx
  423264:	je     0x423339
  42326a:	cmp    ecx,0x4c2e
  423270:	je     0x42329c
  423272:	mov    edi,DWORD PTR [ebp-0xc]
  423275:	mov    ebx,0xdb
  42327a:	cmp    esi,0xffffff9f
  42327d:	jne    0x42329c
  42327f:	cmp    edi,0x76
  423282:	je     0x42329c
  423284:	mov    eax,DWORD PTR ds:0x438084
  42328a:	mov    esi,0x6b
  42328f:	add    DWORD PTR [ebp-0xc],edi
  423292:	sub    eax,ebx
  423294:	add    eax,ebx
  423296:	add    DWORD PTR [ebp-0xc],esi
  423299:	add    DWORD PTR [ebp-0xc],eax
  42329c:	dec    DWORD PTR [ebp+0xc]
  42329f:	or     DWORD PTR [ebp-0xc],eax
  4232a2:	sub    DWORD PTR [ecx],edx
  4232a4:	sub    ebx,esi
  4232a6:	mov    edi,0xa789
  4232ab:	sub    ebx,edi
  4232ad:	mov    eax,DWORD PTR [ebp-0xc]
  4232b0:	and    ebx,ecx
  4232b2:	cmp    ebx,edi
  4232b4:	jne    0x4232c8
  4232b6:	mov    edi,DWORD PTR [ebp-0xc]
  4232b9:	or     DWORD PTR [ebp-0xc],eax
  4232bc:	sub    edi,ebx
  4232be:	and    edi,edx
  4232c0:	cmp    ebx,0xffffffe0
  4232c3:	je     0x4232c8
  4232c5:	and    DWORD PTR [ebp-0xc],edi
  4232c8:	neg    DWORD PTR [ecx]
  4232ca:	cmp    ecx,DWORD PTR [ebp-0x1c]
  4232cd:	je     0x4232f5
  4232cf:	mov    edi,0xa797
  4232d4:	mov    edi,DWORD PTR [ebp-0xc]
  4232d7:	test   edi,0x2317
  4232dd:	jne    0x4232f5
  4232df:	mov    eax,0x8a
  4232e4:	add    edi,ebx
  4232e6:	sub    edi,eax
  4232e8:	mov    eax,DWORD PTR [ebp-0xc]
  4232eb:	and    eax,edx
  4232ed:	sub    eax,esi
  4232ef:	sub    DWORD PTR [ebp-0xc],edi
  4232f2:	sub    DWORD PTR [ebp-0xc],eax
  4232f5:	add    DWORD PTR [ecx],0x1acbac2b
  4232fb:	add    DWORD PTR [ebp-0xc],ecx
  4232fe:	ror    DWORD PTR [ecx],0x12
  423301:	sub    DWORD PTR [ebp-0xc],ecx
  423304:	add    ecx,0x4
  423307:	or     edi,esi
  423309:	and    edi,eax
  42330b:	mov    eax,DWORD PTR [ebp-0xc]
  42330e:	add    edi,edx
  423310:	or     eax,esi
  423312:	sub    edi,esi
  423314:	or     DWORD PTR [ebp-0xc],eax
  423317:	cmp    ecx,DWORD PTR [ebp-0x20]
  42331a:	jne    0x423334
  42331c:	add    edi,eax
  42331e:	cmp    edi,ecx
  423320:	jne    0x423334
  423322:	mov    eax,DWORD PTR [ebp-0xc]
  423325:	and    edi,ecx
  423327:	add    edi,edx
  423329:	cmp    ebx,0x71
  42332c:	je     0x423334
  42332e:	xor    DWORD PTR [ebp-0xc],eax
  423331:	sub    DWORD PTR [ebp-0xc],edi
  423334:	jmp    0x423209
  423339:	push   0x9067d00
  42333e:	push   0xf3e3d300
  423343:	call   0x424b54
  423348:	add    esp,0x8
  42334b:	push   0x8f916e00
  423350:	call   0x42451b
  423355:	add    esp,0x4
  423358:	push   0x21
  42335a:	push   0x15
  42335c:	push   0xdbf63500
  423361:	push   0x8fdf9300
  423366:	call   0x424281
  42336b:	add    esp,0x10
  42336e:	push   0x4fb66100
  423373:	push   0x948b100
  423378:	push   0xffffff8c
  42337a:	call   0x424d88
  42337f:	add    esp,0xc
  423382:	mov    esi,eax
  423384:	cmp    esi,0xffffff8e
  423387:	jne    0x4233fd
  423389:	mov    edi,0xc
  42338e:	push   0x7feda200
  423393:	call   0x42475d
  423398:	add    esp,0x4
  42339b:	mov    ebx,0x9a
  4233a0:	and    edi,eax
  4233a2:	push   0xffffffd6
  4233a4:	push   0xffffff86
  4233a6:	call   0x424067
  4233ab:	add    esp,0x8
  4233ae:	test   edi,0x62cb
  4233b4:	jne    0x4233fd
  4233b6:	push   0xffffffb2
  4233b8:	push   0xa9284f00
  4233bd:	call   0x424c91
  4233c2:	add    esp,0x8
  4233c5:	cmp    edi,0x6c
  4233c8:	je     0x4233fd
  4233ca:	push   0x231de600
  4233cf:	push   0x99188400
  4233d4:	push   0x49252300
  4233d9:	push   0x1a
  4233db:	push   0x962bf00
  4233e0:	call   0x423c58
  4233e5:	add    esp,0x14
  4233e8:	add    edi,edi
  4233ea:	mov    eax,0x61
  4233ef:	call   0x423dbe
  4233f4:	sub    DWORD PTR [ebp-0xc],ebx
  4233f7:	sub    DWORD PTR [ebp-0xc],edi
  4233fa:	sub    DWORD PTR [ebp-0xc],esi
  4233fd:	push   0x1972ba00
  423402:	call   0x424067
  423407:	add    esp,0x4
  42340a:	pop    edi
  42340b:	xor    ebx,ebx
  42340d:	push   0xfff0e300
  423412:	call   0x424067
  423417:	add    esp,0x4
  42341a:	push   0x51
  42341c:	call   0x424d88
  423421:	add    esp,0x4
  423424:	sub    ebx,esi
  423426:	cmp    ebx,DWORD PTR ds:0x438084
  42342c:	jne    0x423462
  42342e:	cmp    edi,0x4f
  423431:	je     0x423462
  423433:	or     ebx,eax
  423435:	push   0x6a
  423437:	push   0x7fca7600
  42343c:	push   0xcbe40100
  423441:	push   0x48
  423443:	push   0x3b8ca100
  423448:	call   0x424281
  42344d:	add    esp,0x14
  423450:	call   0x424c91
  423455:	push   0xffffffa8
  423457:	call   0x424b54
  42345c:	add    esp,0x4
  42345f:	add    DWORD PTR [ebp-0xc],ebx
  423462:	pop    esi
  423463:	mov    eax,DWORD PTR [ebp-0xc]
  423466:	cmp    esi,0xffffffec
  423469:	je     0x4234d7
  42346b:	mov    ecx,DWORD PTR [ebp-0xc]
  42346e:	xor    ebx,ebx
  423470:	push   0xffffffa2
  423472:	push   0x778e2c00
  423477:	push   0xffffffac
  423479:	call   0x423c58
  42347e:	add    esp,0xc
  423481:	push   0x5b6ba900
  423486:	call   0x423dbe
  42348b:	add    esp,0x4
  42348e:	push   0x479ba000
  423493:	push   0x1d
  423495:	push   0xffffffe1
  423497:	push   0x37
  423499:	call   0x4248e2
  42349e:	add    esp,0x10
  4234a1:	or     DWORD PTR [ebp-0xc],esi
  4234a4:	push   0x42
  4234a6:	call   0x42451b
  4234ab:	add    esp,0x4
  4234ae:	push   0x17
  4234b0:	push   0xfffffff0
  4234b2:	push   0xffffffe2
  4234b4:	call   0x424a13
  4234b9:	add    esp,0xc
  4234bc:	call   0x424c91
  4234c1:	sub    ebx,edi
  4234c3:	push   0xfffffffc
  4234c5:	push   0xb3b28300
  4234ca:	call   0x424a13
  4234cf:	add    esp,0x8
  4234d2:	add    ebx,eax
  4234d4:	sub    DWORD PTR [ebp-0xc],ebx
  4234d7:	push   0x38
  4234d9:	call   0x423dbe
  4234de:	add    esp,0x4
  4234e1:	pop    ebx
  4234e2:	push   0xfb10db00
  4234e7:	push   0xdf895300
  4234ec:	push   0xffffffb0
  4234ee:	push   0x16
  4234f0:	call   0x424281
  4234f5:	add    esp,0x10
  4234f8:	leave  
  4234f9:	ret    0xc
  4234fc:	int3   
  4234fd:	int3   
  4234fe:	int3   
  4234ff:	int3   
  423500:	int3   
  423501:	push   ebp
  423502:	mov    ebp,esp
  423504:	sub    esp,0x30
  423507:	xor    eax,eax
  423509:	call   0x42475d
  42350e:	push   ebx
  42350f:	mov    ecx,DWORD PTR ds:0x438050
  423515:	mov    edx,DWORD PTR ds:0x438050
  42351b:	push   0x77
  42351d:	push   0xffffff95
  42351f:	push   0x8959af00
  423524:	call   0x424a13
  423529:	add    esp,0xc
  42352c:	push   0x5d
  42352e:	push   0x7fd54300
  423533:	push   0x339bc600
  423538:	push   0x4
  42353a:	push   0xbfb05c00
  42353f:	call   0x4248e2
  423544:	add    esp,0x14
  423547:	push   esi
  423548:	push   0x17dc2c00
  42354d:	push   0x497c1e00
  423552:	push   0x1e
  423554:	push   0xffffff81
  423556:	call   0x424c91
  42355b:	add    esp,0x10
  42355e:	push   0xffffffe6
  423560:	call   0x424d88
  423565:	add    esp,0x4
  423568:	push   edi
  423569:	push   0xfbb7d300
  42356e:	push   0xdfc9f600
  423573:	push   0xbbe8e800
  423578:	push   0xffffffd2
  42357a:	call   0x423c58
  42357f:	add    esp,0x10
  423582:	mov    eax,0xeb
  423587:	mov    DWORD PTR [ebp-0x24],eax
  42358a:	mov    esi,0xfb588289
  42358f:	add    DWORD PTR [ebp-0x24],esi
  423592:	sub    esi,0xfb588249
  423598:	push   0x11
  42359a:	call   0x423c58
  42359f:	add    esp,0x4
  4235a2:	push   esi
  4235a3:	add    DWORD PTR [ebp-0x24],eax
  4235a6:	mov    edx,0x33cbb9ce
  4235ab:	xor    DWORD PTR [ebp-0x24],eax
  4235ae:	add    edx,0xcc345632
  4235b4:	sub    DWORD PTR [ebp-0x24],edx
  4235b7:	push   edx
  4235b8:	mov    edx,DWORD PTR ds:0x438050
  4235be:	push   0xffffffe5
  4235c0:	push   0xfb7d9f00
  4235c5:	push   0x63785100
  4235ca:	push   0xe35eb600
  4235cf:	push   0xffffffbf
  4235d1:	call   0x424281
  4235d6:	add    esp,0x14
  4235d9:	push   0x63191
  4235de:	push   0x2c
  4235e0:	call   0x424b54
  4235e5:	add    esp,0x4
  4235e8:	push   0x69556f00
  4235ed:	call   0x423dbe
  4235f2:	add    esp,0x4
  4235f5:	push   0x0
  4235f7:	push   0x8
  4235f9:	push   0x5a
  4235fb:	push   0x76
  4235fd:	push   0xffffff81
  4235ff:	call   0x424c91
  423604:	add    esp,0x10
  423607:	push   0x49592200
  42360c:	push   0xdff0db00
  423611:	call   0x424d88
  423616:	add    esp,0x8
  423619:	mov    edx,0x1bd1a99a
  42361e:	mov    edi,DWORD PTR [ebp-0x24]
  423621:	and    edi,esi
  423623:	cmp    eax,0x2d
  423626:	jne    0x4236c5
  42362c:	mov    eax,DWORD PTR [ebp-0x24]
  42362f:	xor    esi,esi
  423631:	add    eax,edx
  423633:	mov    DWORD PTR [ebp-0x24],esi
  423636:	cmp    edi,DWORD PTR ds:0x438050
  42363c:	jne    0x4236c5
  423642:	add    DWORD PTR [ebp-0x24],edx
  423645:	mov    ecx,DWORD PTR [ebp-0x24]
  423648:	mov    ebx,0x93
  42364d:	add    DWORD PTR [ebp-0x24],ecx
  423650:	cmp    eax,edi
  423652:	je     0x4236c5
  423654:	mov    ecx,DWORD PTR [ebp-0x24]
  423657:	cmp    edi,DWORD PTR [ebp-0x10]
  42365a:	je     0x4236c5
  42365c:	cmp    edi,0x73b8
  423662:	je     0x4236c5
  423664:	mov    esi,0x66
  423669:	cmp    edi,eax
  42366b:	je     0x4236c5
  42366d:	add    DWORD PTR [ebp-0x24],esi
  423670:	mov    esi,DWORD PTR [ebp-0x24]
  423673:	sub    DWORD PTR [ebp-0x24],eax
  423676:	or     ebx,edx
  423678:	add    DWORD PTR [ebp-0x24],esi
  42367b:	mov    eax,0x51
  423680:	cmp    edi,0x10828e2
  423686:	jne    0x4236c5
  423688:	mov    esi,edx
  42368a:	or     edi,esi
  42368c:	mov    esi,DWORD PTR ds:0x438050
  423692:	add    DWORD PTR [ebp-0x24],edx
  423695:	cmp    edi,0xffffff9b
  423698:	jne    0x4236c5
  42369a:	mov    eax,0x26
  42369f:	xor    DWORD PTR [ebp-0x24],edi
  4236a2:	sub    ebx,edx
  4236a4:	test   edi,0x23
  4236aa:	je     0x4236c5
  4236ac:	sub    DWORD PTR [ebp-0x24],ecx
  4236af:	or     esi,edx
  4236b1:	mov    edi,DWORD PTR ds:0x438050
  4236b7:	mov    DWORD PTR [ebp-0x24],edi
  4236ba:	sub    ebx,esi
  4236bc:	add    DWORD PTR [ebp-0x24],ebx
  4236bf:	add    DWORD PTR [ebp-0x24],edi
  4236c2:	or     DWORD PTR [ebp-0x24],eax
  4236c5:	sub    edx,0x1b8e4e82
  4236cb:	mov    esi,0x81
  4236d0:	or     esi,ecx
  4236d2:	and    DWORD PTR [ebp-0x24],ecx
  4236d5:	mov    edi,0x69
  4236da:	cmp    esi,0xffffffc0
  4236dd:	je     0x4237aa
  4236e3:	sub    edi,ebx
  4236e5:	add    esi,ecx
  4236e7:	sub    DWORD PTR [ebp-0x24],edx
  4236ea:	and    edi,edx
  4236ec:	sub    DWORD PTR [ebp-0x24],esi
  4236ef:	or     DWORD PTR [ebp-0x24],eax
  4236f2:	mov    ecx,DWORD PTR [ebp-0x24]
  4236f5:	cmp    ecx,ebx
  4236f7:	je     0x4237aa
  4236fd:	add    DWORD PTR [ebp-0x24],edx
  423700:	mov    edi,eax
  423702:	mov    edi,DWORD PTR [ebp-0x24]
  423705:	and    ecx,edx
  423707:	cmp    edi,DWORD PTR ds:0x438050
  42370d:	jne    0x4237aa
  423713:	mov    esi,0x90b1
  423718:	add    DWORD PTR [ebp-0x24],eax
  42371b:	add    DWORD PTR [ebp-0x24],edi
  42371e:	mov    eax,DWORD PTR [ebp-0x24]
  423721:	add    ecx,esi
  423723:	sub    DWORD PTR [ebp-0x24],edi
  423726:	test   ecx,0x3a
  42372c:	je     0x4237aa
  42372e:	and    DWORD PTR [ebp-0x24],eax
  423731:	add    ecx,edi
  423733:	add    ecx,esi
  423735:	cmp    ecx,DWORD PTR [ebp-0x4]
  423738:	je     0x4237aa
  42373a:	xor    esi,esi
  42373c:	add    DWORD PTR [ebp-0x24],esi
  42373f:	mov    esi,DWORD PTR [ebp-0x24]
  423742:	cmp    ecx,edx
  423744:	je     0x4237aa
  423746:	mov    edi,DWORD PTR ds:0x438050
  42374c:	sub    DWORD PTR [ebp-0x24],edi
  42374f:	xor    eax,eax
  423751:	cmp    esi,DWORD PTR ds:0x438050
  423757:	je     0x4237aa
  423759:	mov    edi,0xc5
  42375e:	mov    ebx,DWORD PTR [ebp-0x24]
  423761:	add    eax,esi
  423763:	sub    ebx,eax
  423765:	cmp    ecx,esi
  423767:	je     0x4237aa
  423769:	cmp    ecx,0x63115010
  42376f:	je     0x4237aa
  423771:	mov    eax,DWORD PTR ds:0x438050
  423777:	cmp    ecx,0x41
  42377a:	jne    0x4237aa
  42377c:	mov    esi,0xa7
  423781:	add    DWORD PTR [ebp-0x24],ebx
  423784:	add    edi,esi
  423786:	xor    DWORD PTR [ebp-0x24],edi
  423789:	cmp    ecx,0xffffffb1
  42378c:	jne    0x4237aa
  42378e:	mov    ebx,DWORD PTR [ebp-0x24]
  423791:	add    ecx,esi
  423793:	mov    DWORD PTR [ebp-0x24],ebx
  423796:	add    DWORD PTR [ebp-0x24],ecx
  423799:	sub    DWORD PTR [ebp-0x24],esi
  42379c:	mov    edi,DWORD PTR [ebp-0x24]
  42379f:	mov    DWORD PTR [ebp-0x24],edi
  4237a2:	cmp    ebx,0xfffffff6
  4237a5:	je     0x4237aa
  4237a7:	add    DWORD PTR [ebp-0x24],eax
  4237aa:	call   DWORD PTR [edx]
  4237ac:	mov    edi,0x94
  4237b1:	mov    edx,0x225
  4237b6:	add    edx,edx
  4237b8:	xor    DWORD PTR [ebp-0x24],edi
  4237bb:	sub    DWORD PTR [ebp-0x24],edx
  4237be:	mov    DWORD PTR [ebp-0x18],eax
  4237c1:	push   0x39
  4237c3:	push   0xe94c8d00
  4237c8:	call   0x42451b
  4237cd:	add    esp,0x8
  4237d0:	push   0x4ba57a00
  4237d5:	push   0xffffffcb
  4237d7:	call   0x42451b
  4237dc:	add    esp,0x8
  4237df:	mov    eax,0xdb12e7dd
  4237e4:	and    edi,eax
  4237e6:	add    edi,ebx
  4237e8:	sub    edi,esi
  4237ea:	sub    edi,eax
  4237ec:	add    edi,eax
  4237ee:	mov    esi,DWORD PTR [ebp-0x24]
  4237f1:	mov    ebx,0x21d7
  4237f6:	add    esi,eax
  4237f8:	cmp    edi,0xfffffff4
  4237fb:	je     0x423838
  4237fd:	and    ebx,eax
  4237ff:	add    DWORD PTR [ebp-0x24],ebx
  423802:	add    edi,ebx
  423804:	mov    ebx,DWORD PTR [ebp-0x24]
  423807:	or     ebx,eax
  423809:	mov    edx,edi
  42380b:	sub    esi,eax
  42380d:	cmp    esi,DWORD PTR [ebp-0x10]
  423810:	je     0x423838
  423812:	mov    ecx,ebx
  423814:	and    edx,eax
  423816:	or     esi,edi
  423818:	mov    edi,DWORD PTR ds:0x438050
  42381e:	mov    DWORD PTR [ebp-0x24],edx
  423821:	sub    ecx,edi
  423823:	cmp    ecx,0xffffffef
  423826:	jne    0x423838
  423828:	mov    edx,DWORD PTR [ebp-0x24]
  42382b:	and    DWORD PTR [ebp-0x24],ecx
  42382e:	add    DWORD PTR [ebp-0x24],edx
  423831:	cmp    esi,ebx
  423833:	je     0x423838
  423835:	add    DWORD PTR [ebp-0x24],esi
  423838:	add    eax,0x25309823
  42383d:	mov    ecx,0x63802646
  423842:	and    ecx,ebx
  423844:	mov    edi,DWORD PTR [ebp-0x24]
  423847:	cmp    edi,DWORD PTR [ebp-0x20]
  42384a:	jne    0x4238c0
  42384c:	cmp    edx,DWORD PTR [ebp-0x10]
  42384f:	je     0x4238c0
  423851:	xor    DWORD PTR [ebp-0x24],ecx
  423854:	mov    ecx,esi
  423856:	sub    DWORD PTR [ebp-0x24],ecx
  423859:	xor    esi,esi
  42385b:	add    edi,eax
  42385d:	sub    esi,ecx
  42385f:	cmp    esi,0xffffffa0
  423862:	je     0x4238c0
  423864:	mov    edx,DWORD PTR [ebp-0x24]
  423867:	add    DWORD PTR [ebp-0x24],esi
  42386a:	add    DWORD PTR [ebp-0x24],edi
  42386d:	and    edx,esi
  42386f:	or     edx,ecx
  423871:	cmp    edx,edi
  423873:	je     0x4238c0
  423875:	xor    edi,edi
  423877:	mov    ebx,ecx
  423879:	add    DWORD PTR [ebp-0x24],ebx
  42387c:	cmp    edx,DWORD PTR [ebp-0x14]
  42387f:	jne    0x4238c0
  423881:	cmp    esi,DWORD PTR ds:0x438050
  423887:	jne    0x4238c0
  423889:	cmp    edx,DWORD PTR [ebp-0x10]
  42388c:	je     0x42389d
  42388e:	mov    esi,DWORD PTR [ebp-0x24]
  423891:	xor    DWORD PTR [ebp-0x24],edx
  423894:	mov    ecx,DWORD PTR [ebp-0x24]
  423897:	or     DWORD PTR [ebp-0x24],esi
  42389a:	sub    DWORD PTR [ebp-0x24],ecx
  42389d:	mov    edx,0x1
  4238a2:	mov    ebx,DWORD PTR [ebp-0x24]
  4238a5:	add    DWORD PTR [ebp-0x24],ebx
  4238a8:	xor    DWORD PTR [ebp-0x24],edi
  4238ab:	xor    DWORD PTR [ebp-0x24],ebx
  4238ae:	sub    ecx,eax
  4238b0:	cmp    ecx,DWORD PTR [ebp-0x24]
  4238b3:	je     0x4238c0
  4238b5:	add    DWORD PTR [ebp-0x24],ebx
  4238b8:	sub    DWORD PTR [ebp-0x24],edx
  4238bb:	and    ecx,edi
  4238bd:	mov    DWORD PTR [ebp-0x24],ecx
  4238c0:	mov    DWORD PTR [ebp-0x1c],eax
  4238c3:	sub    edi,edx
  4238c5:	call   0x42475d
  4238ca:	push   0x60
  4238cc:	push   0x2a
  4238ce:	push   0x5bbc9d00
  4238d3:	call   0x424a13
  4238d8:	add    esp,0xc
  4238db:	push   0x5bf15900
  4238e0:	push   0x13
  4238e2:	call   0x424d88
  4238e7:	add    esp,0x8
  4238ea:	xor    edx,edx
  4238ec:	mov    ecx,DWORD PTR [ebp-0x24]
  4238ef:	push   0x6d
  4238f1:	push   0xfffffffa
  4238f3:	push   0x0
  4238f5:	push   0x4f4a9400
  4238fa:	call   0x424c91
  4238ff:	add    esp,0x10
  423902:	push   0x43
  423904:	push   0x1a
  423906:	push   0xe99d6e00
  42390b:	push   0x23647900
  423910:	push   0xa36d0f00
  423915:	call   0x424684
  42391a:	add    esp,0x14
  42391d:	call   0x424684
  423922:	push   0xa3df4600
  423927:	push   0xbb420c00
  42392c:	push   0x63
  42392e:	push   0x23814600
  423933:	push   0x60
  423935:	call   0x4248e2
  42393a:	add    esp,0x14
  42393d:	push   0xffffffe0
  42393f:	call   0x423dbe
  423944:	add    esp,0x4
  423947:	push   0xfba1a100
  42394c:	push   0x76
  42394e:	push   0x1c
  423950:	call   0x4248e2
  423955:	add    esp,0xc
  423958:	push   0xffffff98
  42395a:	push   0x63a9bb00
  42395f:	push   0xffffffd0
  423961:	push   0xffffff8b
  423963:	push   0x21
  423965:	call   0x4248e2
  42396a:	add    esp,0x14
  42396d:	sub    DWORD PTR [ebp-0x24],ebx
  423970:	add    DWORD PTR [ebp-0x24],edi
  423973:	push   0x4f227700
  423978:	call   0x424684
  42397d:	add    esp,0x4
  423980:	mov    edi,DWORD PTR [ebp-0x18]
  423983:	push   0xa992de00
  423988:	push   0xf327ff00
  42398d:	push   0xf9d61400
  423992:	push   0xffffff9a
  423994:	call   0x4248e2
  423999:	add    esp,0x10
  42399c:	push   0xffffffb5
  42399e:	push   0x8
  4239a0:	push   0xdbd4c300
  4239a5:	push   0x39e46c00
  4239aa:	call   0x424d88
  4239af:	add    esp,0x10
  4239b2:	push   0x5b
  4239b4:	push   0x5b9d8600
  4239b9:	push   0xa707a900
  4239be:	push   0xffffffa5
  4239c0:	push   0xb9d6a300
  4239c5:	call   0x424d88
  4239ca:	add    esp,0x14
  4239cd:	mov    eax,DWORD PTR [ebp-0x1c]
  4239d0:	and    ebx,esi
  4239d2:	sub    ebx,esi
  4239d4:	add    DWORD PTR [ebp-0x24],esi
  4239d7:	and    ebx,esi
  4239d9:	mov    ecx,edi
  4239db:	sub    ebx,esi
  4239dd:	mov    edx,ecx
  4239df:	cmp    ecx,DWORD PTR ds:0x438050
  4239e5:	jne    0x423b1a
  4239eb:	cmp    eax,ecx
  4239ed:	je     0x423b1a
  4239f3:	mov    esi,DWORD PTR [ebp-0x24]
  4239f6:	sub    edx,ecx
  4239f8:	mov    ecx,DWORD PTR [ebp-0x24]
  4239fb:	cmp    esi,0x4f
  4239fe:	je     0x423b1a
  423a04:	add    DWORD PTR [ebp-0x24],ebx
  423a07:	test   esi,0x7a
  423a0d:	je     0x423b1a
  423a13:	add    DWORD PTR [ebp-0x24],eax
  423a16:	and    DWORD PTR [ebp-0x24],edx
  423a19:	cmp    edi,DWORD PTR ds:0x438050
  423a1f:	jne    0x423b1a
  423a25:	mov    edx,DWORD PTR [ebp-0x24]
  423a28:	xor    ebx,ebx
  423a2a:	add    edx,edx
  423a2c:	cmp    ecx,0x7
  423a2f:	je     0x423b1a
  423a35:	and    edx,esi
  423a37:	cmp    eax,0x2fd5
  423a3c:	jne    0x423b1a
  423a42:	cmp    edx,0xffffffe6
  423a45:	jne    0x423b1a
  423a4b:	mov    esi,DWORD PTR [ebp-0x24]
  423a4e:	add    DWORD PTR [ebp-0x24],esi
  423a51:	and    edx,ebx
  423a53:	xor    ebx,ebx
  423a55:	or     ecx,ebx
  423a57:	and    DWORD PTR [ebp-0x24],ecx
  423a5a:	cmp    edx,0x2b
  423a5d:	je     0x423b1a
  423a63:	or     edx,edi
  423a65:	test   edx,0x1c
  423a6b:	je     0x423b1a
  423a71:	mov    esi,edi
  423a73:	add    edx,ebx
  423a75:	add    DWORD PTR [ebp-0x24],esi
  423a78:	test   edx,0x1a4
  423a7e:	jne    0x423b1a
  423a84:	mov    ebx,0xa2
  423a89:	mov    esi,eax
  423a8b:	cmp    esi,0xfffffff2
  423a8e:	jne    0x423b1a
  423a94:	mov    ecx,DWORD PTR [ebp-0x24]
  423a97:	and    DWORD PTR [ebp-0x24],ebx
  423a9a:	sub    DWORD PTR [ebp-0x24],esi
  423a9d:	cmp    ecx,DWORD PTR ds:0x438050
  423aa3:	jne    0x423b1a
  423aa5:	cmp    edx,0x75
  423aa8:	je     0x423b1a
  423aaa:	mov    ebx,0xb6
  423aaf:	mov    esi,ecx
  423ab1:	cmp    edx,0x7
  423ab4:	jne    0x423b1a
  423ab6:	or     DWORD PTR [ebp-0x24],esi
  423ab9:	add    edx,edx
  423abb:	or     edx,ecx
  423abd:	sub    ebx,esi
  423abf:	mov    esi,DWORD PTR [ebp-0x24]
  423ac2:	sub    DWORD PTR [ebp-0x24],edx
  423ac5:	mov    ecx,DWORD PTR [ebp-0x24]
  423ac8:	sub    ebx,edx
  423aca:	mov    DWORD PTR [ebp-0x24],ebx
  423acd:	cmp    ecx,0x50
  423ad0:	jne    0x423b1a
  423ad2:	add    DWORD PTR [ebp-0x24],esi
  423ad5:	or     ecx,edx
  423ad7:	cmp    ecx,0x35
  423ada:	je     0x423b1a
  423adc:	test   ecx,0x26
  423ae2:	je     0x423b1a
  423ae4:	sub    ecx,eax
  423ae6:	mov    edx,DWORD PTR ds:0x438050
  423aec:	mov    ebx,0x6b
  423af1:	sub    ebx,esi
  423af3:	and    DWORD PTR [ebp-0x24],ebx
  423af6:	sub    ecx,ebx
  423af8:	cmp    ecx,DWORD PTR ds:0x438050
  423afe:	jne    0x423b1a
  423b00:	cmp    ecx,DWORD PTR ds:0x438050
  423b06:	jne    0x423b1a
  423b08:	mov    esi,edi
  423b0a:	sub    DWORD PTR [ebp-0x24],esi
  423b0d:	sub    ecx,edx
  423b0f:	test   ecx,0xa9
  423b15:	jne    0x423b1a
  423b17:	and    DWORD PTR [ebp-0x24],ecx
  423b1a:	mov    esi,DWORD PTR [eax]
  423b1c:	sub    edx,eax
  423b1e:	add    edx,edx
  423b20:	sub    DWORD PTR [ebp-0x24],edx
  423b23:	mov    ecx,DWORD PTR [eax+0x4]
  423b26:	and    eax,edx
  423b28:	mov    edx,DWORD PTR [ebp-0x24]
  423b2b:	sub    edx,edi
  423b2d:	test   esi,0x1031
  423b33:	je     0x423b6c
  423b35:	cmp    ecx,DWORD PTR ds:0x438050
  423b3b:	je     0x423b6c
  423b3d:	cmp    ecx,eax
  423b3f:	je     0x423b6c
  423b41:	add    edx,eax
  423b43:	add    DWORD PTR [ebp-0x24],esi
  423b46:	add    edx,ecx
  423b48:	mov    eax,0xbc
  423b4d:	test   edx,0x8910a080
  423b53:	jne    0x423b6c
  423b55:	add    eax,ecx
  423b57:	add    DWORD PTR [ebp-0x24],edx
  423b5a:	add    eax,ecx
  423b5c:	mov    edx,0xb4
  423b61:	and    edx,esi
  423b63:	sub    DWORD PTR [ebp-0x24],ecx
  423b66:	sub    DWORD PTR [ebp-0x24],edx
  423b69:	mov    DWORD PTR [ebp-0x24],eax
  423b6c:	or     esi,esi
  423b6e:	je     0x423bad
  423b70:	mov    eax,DWORD PTR [ebp-0x24]
  423b73:	add    eax,edi
  423b75:	xor    DWORD PTR [ebp-0x24],eax
  423b78:	repnz movs BYTE PTR es:[edi],BYTE PTR ds:[esi]
  423b7a:	push   0xffffff9d
  423b7c:	push   0xfffffff8
  423b7e:	push   0xb351dd00
  423b83:	push   0xe988e800
  423b88:	push   0xa308e800
  423b8d:	call   0x4248e2
  423b92:	add    esp,0x14
  423b95:	add    DWORD PTR [ebp-0x1c],0x8
  423b99:	call   0x42475d
  423b9e:	push   0x27
  423ba0:	call   0x4248e2
  423ba5:	add    esp,0x4
  423ba8:	jmp    0x423983
  423bad:	mov    ebx,DWORD PTR [ebp-0x24]
  423bb0:	or     DWORD PTR [ebp-0x24],ebx
  423bb3:	push   0x4f5e4b00
  423bb8:	push   0x3b4a6e00
  423bbd:	call   0x424281
  423bc2:	add    esp,0x8
  423bc5:	push   0x40
  423bc7:	push   0xe9d39800
  423bcc:	call   0x42475d
  423bd1:	add    esp,0x8
  423bd4:	push   0x2a
  423bd6:	push   0x79b75e00
  423bdb:	push   0x39b39600
  423be0:	push   0xa393f000
  423be5:	call   0x423dbe
  423bea:	add    esp,0x10
  423bed:	mov    eax,DWORD PTR [ebp-0x18]
  423bf0:	xor    esi,esi
  423bf2:	sub    DWORD PTR [ebp-0x24],eax
  423bf5:	mov    edi,DWORD PTR [ebp-0x24]
  423bf8:	sub    DWORD PTR [ebp-0x24],esi
  423bfb:	add    edi,esi
  423bfd:	add    DWORD PTR [ebp-0x24],edi
  423c00:	cmp    eax,DWORD PTR ds:0x438050
  423c06:	je     0x423c0f
  423c08:	sub    edi,ebx
  423c0a:	or     edi,esi
  423c0c:	add    DWORD PTR [ebp-0x24],edi
  423c0f:	pop    edi
  423c10:	add    DWORD PTR [ebp-0x24],edi
  423c13:	pop    esi
  423c14:	mov    edx,DWORD PTR [ebp-0x24]
  423c17:	or     DWORD PTR [ebp-0x24],esi
  423c1a:	add    DWORD PTR [ebp-0x24],edx
  423c1d:	pop    ebx
  423c1e:	add    edx,ebx
  423c20:	mov    ecx,edx
  423c22:	mov    edx,0xa1800480
  423c27:	cmp    ecx,DWORD PTR ds:0x438050
  423c2d:	jne    0x423c51
  423c2f:	cmp    ecx,DWORD PTR [ebp-0x24]
  423c32:	jne    0x423c51
  423c34:	add    edx,edx
  423c36:	cmp    edi,DWORD PTR ds:0x438050
  423c3c:	je     0x423c51
  423c3e:	cmp    esi,DWORD PTR [ebp-0x10]
  423c41:	je     0x423c51
  423c43:	mov    edx,ecx
  423c45:	xor    ecx,ecx
  423c47:	add    DWORD PTR [ebp-0x24],edx
  423c4a:	sub    ecx,ebx
  423c4c:	add    ecx,edi
  423c4e:	add    DWORD PTR [ebp-0x24],ecx
  423c51:	leave  
  423c52:	ret    
  423c53:	int3   
  423c54:	int3   
  423c55:	int3   
  423c56:	int3   
  423c57:	int3   
  423c58:	push   ebp
  423c59:	mov    ebp,esp
  423c5b:	sub    esp,0x30
  423c5e:	mov    ecx,0x67
  423c63:	push   0x6b112900
  423c68:	call   0x424b54
  423c6d:	add    esp,0x4
  423c70:	push   ebx
  423c71:	call   0x424c91
  423c76:	push   esi
  423c77:	push   0xe31d9600
  423c7c:	push   0x15
  423c7e:	push   0xe9eab200
  423c83:	push   0x7f139200
  423c88:	push   0xffffffa0
  423c8a:	call   0x42451b
  423c8f:	add    esp,0x14
  423c92:	push   edi
  423c93:	mov    edx,eax
  423c95:	push   0xfbfe5700
  423c9a:	push   0x5b6a3f00
  423c9f:	push   0x7f
  423ca1:	push   0xffffffec
  423ca3:	call   0x4248e2
  423ca8:	add    esp,0x10
  423cab:	push   0xc9a55300
  423cb0:	push   0x77
  423cb2:	call   0x42475d
  423cb7:	add    esp,0x8
  423cba:	push   0xffffffb7
  423cbc:	push   0xe9ee4a00
  423cc1:	push   0x4c
  423cc3:	call   0x424d88
  423cc8:	add    esp,0xc
  423ccb:	cmp    eax,DWORD PTR [ebp-0x14]
  423cce:	je     0x423cdd
  423cd0:	push   0x29a91c00
  423cd5:	call   0x424c91
  423cda:	add    esp,0x4
  423cdd:	push   0xf9d91500
  423ce2:	call   0x424b54
  423ce7:	add    esp,0x4
  423cea:	push   0xa3481b00
  423cef:	push   0x3f62e900
  423cf4:	push   0x79
  423cf6:	push   0xffffff88
  423cf8:	call   0x424d88
  423cfd:	add    esp,0x10
  423d00:	add    eax,eax
  423d02:	push   0x9
  423d04:	push   0xffffffea
  423d06:	push   0xffffffae
  423d08:	push   0x9990a900
  423d0d:	call   0x424a13
  423d12:	add    esp,0x10
  423d15:	push   0xff4dbc00
  423d1a:	push   0xb9a0c800
  423d1f:	push   0x4b3c3e00
  423d24:	push   0x5ba52100
  423d29:	call   0x42451b
  423d2e:	add    esp,0x10
  423d31:	push   0xffffffdf
  423d33:	call   0x424c91
  423d38:	add    esp,0x4
  423d3b:	pop    edi
  423d3c:	mov    esi,edi
  423d3e:	and    esi,eax
  423d40:	push   0xe9988300
  423d45:	push   0xffffff8b
  423d47:	push   0xffffffe6
  423d49:	push   0x3f672400
  423d4e:	push   0x72
  423d50:	call   0x424b54
  423d55:	add    esp,0x14
  423d58:	test   esi,0x5c
  423d5e:	je     0x423d98
  423d60:	push   0xffffffd1
  423d62:	push   0x31
  423d64:	push   0xd7364500
  423d69:	push   0xef764b00
  423d6e:	push   0x836e0100
  423d73:	call   0x42475d
  423d78:	add    esp,0x14
  423d7b:	sub    esi,eax
  423d7d:	sub    esi,edi
  423d7f:	push   0xe98d2f00
  423d84:	push   0xffffffce
  423d86:	push   0x51
  423d88:	call   0x424d88
  423d8d:	add    esp,0xc
  423d90:	call   0x424d88
  423d95:	mov    DWORD PTR [ebp-0x30],esi
  423d98:	pop    esi
  423d99:	call   0x424b54
  423d9e:	pop    ebx
  423d9f:	push   0x61
  423da1:	push   0xfffffff9
  423da3:	push   0x5a
  423da5:	push   0x9d5ac00
  423daa:	call   0x42475d
  423daf:	add    esp,0x10
  423db2:	call   0x42451b
  423db7:	leave  
  423db8:	ret    
  423db9:	int3   
  423dba:	int3   
  423dbb:	int3   
  423dbc:	int3   
  423dbd:	int3   
  423dbe:	push   ebp
  423dbf:	mov    ebp,esp
  423dc1:	sub    esp,0x44
  423dc4:	push   0xfffffffb
  423dc6:	push   0xdbd8c900
  423dcb:	push   0x7051400
  423dd0:	push   0x5
  423dd2:	call   0x4248e2
  423dd7:	add    esp,0x10
  423dda:	call   0x42475d
  423ddf:	push   ebx
  423de0:	cmp    eax,0xfffffffa
  423de3:	jne    0x423de8
  423de5:	mov    DWORD PTR [ebp-0x4],eax
  423de8:	push   esi
  423de9:	mov    ecx,eax
  423deb:	mov    esi,0x5a
  423df0:	push   0xffffffd5
  423df2:	push   0x71
  423df4:	call   0x424c91
  423df9:	add    esp,0x8
  423dfc:	push   0x59d8e500
  423e01:	push   0x9a16000
  423e06:	call   0x42451b
  423e0b:	add    esp,0x8
  423e0e:	push   0xdbfea200
  423e13:	push   0x9b1b6a00
  423e18:	push   0xff663a00
  423e1d:	call   0x42451b
  423e22:	add    esp,0xc
  423e25:	push   0x8b68b600
  423e2a:	push   0x836fd900
  423e2f:	push   0x199a8400
  423e34:	call   0x424684
  423e39:	add    esp,0xc
  423e3c:	test   eax,0x42
  423e41:	je     0x423e4a
  423e43:	mov    edx,eax
  423e45:	call   0x424d88
  423e4a:	mov    DWORD PTR [ebp-0x10],esi
  423e4d:	push   edi
  423e4e:	push   0xffffffcc
  423e50:	call   0x4248e2
  423e55:	add    esp,0x4
  423e58:	test   eax,0xf6
  423e5d:	je     0x423e69
  423e5f:	push   0x12
  423e61:	call   0x424c91
  423e66:	add    esp,0x4
  423e69:	call   0x424684
  423e6e:	push   0xc71f8d00
  423e73:	push   0xf627b00
  423e78:	push   0xfffffff6
  423e7a:	call   0x4248e2
  423e7f:	add    esp,0xc
  423e82:	xor    edi,edi
  423e84:	call   0x424684
  423e89:	push   0xfffffffe
  423e8b:	call   0x42451b
  423e90:	add    esp,0x4
  423e93:	sub    edi,esi
  423e95:	push   0xc9e64d00
  423e9a:	push   0x5c
  423e9c:	push   0xf3505e00
  423ea1:	push   0x3321e000
  423ea6:	push   0xe752d700
  423eab:	call   0x42475d
  423eb0:	add    esp,0x14
  423eb3:	add    DWORD PTR [ebp-0x10],esi
  423eb6:	call   0x424b54
  423ebb:	xor    esi,esi
  423ebd:	call   0x42451b
  423ec2:	push   0x2397c200
  423ec7:	push   0xa383c200
  423ecc:	push   0xb99d7d00
  423ed1:	call   0x42475d
  423ed6:	add    esp,0xc
  423ed9:	push   0x2703bc00
  423ede:	push   0x5b650200
  423ee3:	push   0x9e09f00
  423ee8:	push   0x99c33000
  423eed:	push   0xffffffce
  423eef:	call   0x424b54
  423ef4:	add    esp,0x14
  423ef7:	add    DWORD PTR [ebp-0x10],edi
  423efa:	call   0x424c91
  423eff:	push   0x79fc9000
  423f04:	push   0xb
  423f06:	push   0xffffffa1
  423f08:	push   0xb9b74400
  423f0d:	push   0x5b883200
  423f12:	call   0x424b54
  423f17:	add    esp,0x14
  423f1a:	and    esi,eax
  423f1c:	test   esi,0xf5c1
  423f22:	jne    0x423f42
  423f24:	xor    edx,edx
  423f26:	or     DWORD PTR [ebp-0x10],esi
  423f29:	push   0xdba44800
  423f2e:	push   0xffffff9d
  423f30:	push   0xb9fcb700
  423f35:	push   0x5f662b00
  423f3a:	call   0x424b54
  423f3f:	add    esp,0x10
  423f42:	pop    edi
  423f43:	push   0xab11a300
  423f48:	push   0x98cd100
  423f4d:	call   0x424a13
  423f52:	add    esp,0x8
  423f55:	push   0xffffffce
  423f57:	call   0x424b54
  423f5c:	add    esp,0x4
  423f5f:	pop    esi
  423f60:	xor    ecx,ecx
  423f62:	mov    ebx,0x84
  423f67:	push   0x15
  423f69:	push   0xffffff85
  423f6b:	call   0x424d88
  423f70:	add    esp,0x8
  423f73:	call   0x424684
  423f78:	push   0xa9f92d00
  423f7d:	push   0x137f1500
  423f82:	call   0x424a13
  423f87:	add    esp,0x8
  423f8a:	push   0x59ee8800
  423f8f:	push   0xffffff97
  423f91:	call   0x42475d
  423f96:	add    esp,0x8
  423f99:	push   0xaf2b6d00
  423f9e:	call   0x42475d
  423fa3:	add    esp,0x4
  423fa6:	cmp    edi,ebx
  423fa8:	jne    0x424036
  423fae:	push   0x59b4e700
  423fb3:	push   0x3
  423fb5:	push   0xc3735c00
  423fba:	push   0x4f65c700
  423fbf:	push   0x9
  423fc1:	call   0x424d88
  423fc6:	add    esp,0x14
  423fc9:	mov    eax,DWORD PTR [ebp-0x10]
  423fcc:	push   0x93103800
  423fd1:	push   0xffffff82
  423fd3:	push   0xb34cde00
  423fd8:	push   0xcb5b8b00
  423fdd:	call   0x42451b
  423fe2:	add    esp,0x10
  423fe5:	push   0x5f6b2a00
  423fea:	push   0x73039d00
  423fef:	call   0x424b54
  423ff4:	add    esp,0x8
  423ff7:	call   0x424a13
  423ffc:	cmp    esi,DWORD PTR [ebp-0xc]
  423fff:	jne    0x424036
  424001:	push   0xc9e9f300
  424006:	push   0xab730a00
  42400b:	call   0x4248e2
  424010:	add    esp,0x8
  424013:	sub    ebx,esi
  424015:	test   edi,0x4c
  42401b:	jne    0x424036
  42401d:	push   0x365c600
  424022:	push   0x1b
  424024:	call   0x4248e2
  424029:	add    esp,0x8
  42402c:	add    DWORD PTR [ebp-0x10],edi
  42402f:	cmp    ebx,edi
  424031:	jne    0x424036
  424033:	add    DWORD PTR [ebp-0x10],ebx
  424036:	push   0xb9c63400
  42403b:	push   0xc7120b00
  424040:	push   0x5f119c00
  424045:	call   0x42475d
  42404a:	add    esp,0xc
  42404d:	pop    ebx
  42404e:	mov    edx,DWORD PTR [ebp-0x10]
  424051:	add    edx,edx
  424053:	push   0xa3b15e00
  424058:	call   0x424684
  42405d:	add    esp,0x4
  424060:	leave  
  424061:	ret    
  424062:	int3   
  424063:	int3   
  424064:	int3   
  424065:	int3   
  424066:	int3   
  424067:	push   ebp
  424068:	mov    ebp,esp
  42406a:	sub    esp,0x38
  42406d:	push   0xffffffd1
  42406f:	push   0xfffffffd
  424071:	call   0x42451b
  424076:	add    esp,0x8
  424079:	push   ebx
  42407a:	mov    DWORD PTR [ebp-0x10],eax
  42407d:	push   esi
  42407e:	test   eax,0x2aca
  424083:	je     0x42408f
  424085:	push   0x2b
  424087:	call   0x42451b
  42408c:	add    esp,0x4
  42408f:	push   edi
  424090:	push   0x89dcf300
  424095:	push   0x5c
  424097:	push   0x22
  424099:	call   0x424c91
  42409e:	add    esp,0xc
  4240a1:	push   0x70
  4240a3:	push   0xe9c0eb00
  4240a8:	push   0x97434e00
  4240ad:	call   0x424684
  4240b2:	add    esp,0xc
  4240b5:	test   eax,0xb5
  4240ba:	je     0x4240c8
  4240bc:	push   0x7f
  4240be:	push   0xffffff9e
  4240c0:	call   0x424c91
  4240c5:	add    esp,0x8
  4240c8:	push   0xe3f1ff00
  4240cd:	push   0x1d
  4240cf:	push   0x6f7c7700
  4240d4:	call   0x424d88
  4240d9:	add    esp,0xc
  4240dc:	xor    esi,esi
  4240de:	add    DWORD PTR [ebp-0x10],eax
  4240e1:	mov    edi,DWORD PTR [ebp-0x10]
  4240e4:	push   0xbb35c000
  4240e9:	call   0x42475d
  4240ee:	add    esp,0x4
  4240f1:	push   0xffffffdd
  4240f3:	call   0x424684
  4240f8:	add    esp,0x4
  4240fb:	push   0x18
  4240fd:	push   0xfffffff1
  4240ff:	push   0xab03bc00
  424104:	push   0xffffffb7
  424106:	push   0x777fae00
  42410b:	call   0x42475d
  424110:	add    esp,0x14
  424113:	cmp    edi,DWORD PTR [ebp-0x30]
  424116:	je     0x4241f4
  42411c:	mov    eax,DWORD PTR [ebp-0x10]
  42411f:	sub    DWORD PTR [ebp-0x10],eax
  424122:	push   0x79cf8b00
  424127:	push   0xa753a700
  42412c:	push   0x5
  42412e:	call   0x424c91
  424133:	add    esp,0xc
  424136:	mov    ebx,DWORD PTR [ebp-0x10]
  424139:	add    DWORD PTR [ebp-0x10],eax
  42413c:	sub    DWORD PTR [ebp-0x10],ebx
  42413f:	push   0x47
  424141:	push   0xb118e00
  424146:	push   0xf9e15200
  42414b:	push   0xa3ce6400
  424150:	push   0x69
  424152:	call   0x424d88
  424157:	add    esp,0x14
  42415a:	push   0x79866100
  42415f:	push   0xe9808d00
  424164:	push   0x73758400
  424169:	push   0x71
  42416b:	push   0x40
  42416d:	call   0x424b54
  424172:	add    esp,0x14
  424175:	sub    edi,eax
  424177:	push   0xdb99c100
  42417c:	push   0x69960300
  424181:	push   0xffffffb7
  424183:	push   0xe9bd4200
  424188:	push   0xbb01de00
  42418d:	call   0x424d88
  424192:	add    esp,0x14
  424195:	push   0xffffffeb
  424197:	push   0xffffffc8
  424199:	push   0x8
  42419b:	push   0xd
  42419d:	call   0x42451b
  4241a2:	add    esp,0x10
  4241a5:	push   0xeb3a8f00
  4241aa:	push   0xffffff9e
  4241ac:	call   0x42475d
  4241b1:	add    esp,0x8
  4241b4:	sub    DWORD PTR [ebp-0x10],esi
  4241b7:	push   0xe3588a00
  4241bc:	push   0x30
  4241be:	call   0x42475d
  4241c3:	add    esp,0x8
  4241c6:	push   0x3f3a5500
  4241cb:	push   0xffffffbb
  4241cd:	push   0xffffff87
  4241cf:	push   0xffffffc5
  4241d1:	call   0x424c91
  4241d6:	add    esp,0x10
  4241d9:	push   0xd763d600
  4241de:	push   0xfffffff7
  4241e0:	push   0x6393f000
  4241e5:	push   0x33
  4241e7:	call   0x424684
  4241ec:	add    esp,0x10
  4241ef:	add    edi,edi
  4241f1:	sub    DWORD PTR [ebp-0x10],edi
  4241f4:	push   0x972e3f00
  4241f9:	push   0x5bf24600
  4241fe:	push   0x1d
  424200:	push   0xffffffef
  424202:	push   0xf70d4600
  424207:	call   0x42451b
  42420c:	add    esp,0x14
  42420f:	pop    edi
  424210:	or     DWORD PTR [ebp-0x10],esi
  424213:	call   0x424b54
  424218:	pop    esi
  424219:	mov    edx,DWORD PTR [ebp-0x10]
  42421c:	push   0x19916700
  424221:	push   0xe3d64e00
  424226:	push   0x41
  424228:	push   0x63
  42422a:	push   0x89f1eb00
  42422f:	call   0x424d88
  424234:	add    esp,0x14
  424237:	push   0x18
  424239:	push   0x10
  42423b:	push   0x6b0ddf00
  424240:	call   0x424c91
  424245:	add    esp,0xc
  424248:	pop    ebx
  424249:	cmp    ebx,0xffffffd1
  42424c:	jne    0x42426e
  42424e:	cmp    eax,0x28
  424251:	je     0x42426e
  424253:	sub    eax,edi
  424255:	push   0x63fa5200
  42425a:	push   0xf77d5c00
  42425f:	push   0xffffff8e
  424261:	push   0xdbf45700
  424266:	call   0x4248e2
  42426b:	add    esp,0x10
  42426e:	push   0xfffffff0
  424270:	push   0xc
  424272:	call   0x4248e2
  424277:	add    esp,0x8
  42427a:	leave  
  42427b:	ret    
  42427c:	int3   
  42427d:	int3   
  42427e:	int3   
  42427f:	int3   
  424280:	int3   
  424281:	push   ebp
  424282:	mov    ebp,esp
  424284:	sub    esp,0x38
  424287:	call   0x424684
  42428c:	call   0x42451b
  424291:	push   ebx
  424292:	cmp    eax,0xffffffd2
  424295:	je     0x4242bc
  424297:	mov    eax,0x38
  42429c:	mov    ecx,0x49
  4242a1:	push   0x9990a500
  4242a6:	push   0xfba5e000
  4242ab:	push   0xfb98f100
  4242b0:	push   0x1c
  4242b2:	push   0x1f
  4242b4:	call   0x424c91
  4242b9:	add    esp,0x14
  4242bc:	push   0xffffff80
  4242be:	call   0x424d88
  4242c3:	add    esp,0x4
  4242c6:	push   esi
  4242c7:	add    eax,eax
  4242c9:	mov    esi,0xd7
  4242ce:	mov    DWORD PTR [ebp-0x28],eax
  4242d1:	mov    ecx,0x4de6
  4242d6:	push   0x5b
  4242d8:	push   0xffffffc7
  4242da:	push   0xfffffff4
  4242dc:	push   0xaf3dc000
  4242e1:	call   0x424d88
  4242e6:	add    esp,0x10
  4242e9:	push   0x72
  4242eb:	call   0x424684
  4242f0:	add    esp,0x4
  4242f3:	call   0x424d88
  4242f8:	push   0xffffffe1
  4242fa:	push   0x39b31d00
  4242ff:	push   0xfffffff0
  424301:	call   0x42451b
  424306:	add    esp,0xc
  424309:	push   0x23066700
  42430e:	push   0xffffff92
  424310:	push   0xffffffc9
  424312:	push   0x17
  424314:	call   0x424b54
  424319:	add    esp,0x10
  42431c:	or     DWORD PTR [ebp-0x28],esi
  42431f:	push   0xb7508b00
  424324:	push   0x89d65400
  424329:	push   0x4d
  42432b:	push   0x1e
  42432d:	call   0x424d88
  424332:	add    esp,0x10
  424335:	push   edi
  424336:	mov    ebx,esi
  424338:	xor    edx,edx
  42433a:	sub    DWORD PTR [ebp-0x28],ebx
  42433d:	push   0xb3707600
  424342:	push   0xffffffbb
  424344:	call   0x42475d
  424349:	add    esp,0x8
  42434c:	push   0xbb34b900
  424351:	push   0x3b6c8e00
  424356:	push   0x4718c100
  42435b:	push   0x29fa4100
  424360:	push   0xffffffab
  424362:	call   0x4248e2
  424367:	add    esp,0x14
  42436a:	or     ebx,esi
  42436c:	call   0x424d88
  424371:	push   0xe38f6600
  424376:	call   0x424684
  42437b:	add    esp,0x4
  42437e:	call   0x424a13
  424383:	and    DWORD PTR [ebp-0x28],ebx
  424386:	call   0x42475d
  42438b:	cmp    eax,ebx
  42438d:	jne    0x424394
  42438f:	call   0x42451b
  424394:	pop    edi
  424395:	sub    DWORD PTR [ebp-0x28],eax
  424398:	pop    esi
  424399:	mov    edx,0x71
  42439e:	push   0x53
  4243a0:	push   0xfffffff6
  4243a2:	push   0x33301700
  4243a7:	call   0x424684
  4243ac:	add    esp,0xc
  4243af:	push   0xb9faeb00
  4243b4:	push   0xe3e51600
  4243b9:	push   0x12
  4243bb:	call   0x424d88
  4243c0:	add    esp,0xc
  4243c3:	pop    ebx
  4243c4:	call   0x42475d
  4243c9:	push   0xfffffff9
  4243cb:	push   0x8b72af00
  4243d0:	push   0xbb693900
  4243d5:	push   0x89ab4800
  4243da:	call   0x424d88
  4243df:	add    esp,0x10
  4243e2:	leave  
  4243e3:	ret    
  4243e4:	int3   
  4243e5:	int3   
  4243e6:	int3   
  4243e7:	int3   
  4243e8:	int3   
  4243e9:	push   ebp
  4243ea:	mov    ebp,esp
  4243ec:	sub    esp,0x3c
  4243ef:	call   0x4248e2
  4243f4:	push   0xfbd87800
  4243f9:	push   0x32
  4243fb:	push   0x16
  4243fd:	call   0x42475d
  424402:	add    esp,0xc
  424405:	push   ebx
  424406:	cmp    eax,DWORD PTR [ebp-0xc]
  424409:	jne    0x424410
  42440b:	call   0x424b54
  424410:	call   0x424a13
  424415:	push   esi
  424416:	push   0x48
  424418:	push   0xb0df400
  42441d:	push   0x7b321900
  424422:	push   0x3b2e4600
  424427:	call   0x4248e2
  42442c:	add    esp,0x10
  42442f:	push   edi
  424430:	push   0x7e
  424432:	push   0x16
  424434:	push   0xc9a4c400
  424439:	push   0x3
  42443b:	push   0xb3679000
  424440:	call   0x424d88
  424445:	add    esp,0x14
  424448:	push   0x670f7400
  42444d:	push   0x19baab00
  424452:	push   0xffffff86
  424454:	call   0x42475d
  424459:	add    esp,0xc
  42445c:	push   0xb74b7600
  424461:	push   0x59c26d00
  424466:	push   0xdbfa1a00
  42446b:	push   0x29
  42446d:	push   0x5b431f00
  424472:	call   0x424d88
  424477:	add    esp,0x14
  42447a:	call   0x42451b
  42447f:	push   0xffffffe9
  424481:	push   0x23b82700
  424486:	push   0xffffffb8
  424488:	push   0x27
  42448a:	push   0x1a
  42448c:	call   0x424a13
  424491:	add    esp,0x14
  424494:	push   0xffffffeb
  424496:	push   0xffffffc0
  424498:	push   0xfffffff9
  42449a:	call   0x424c91
  42449f:	add    esp,0xc
  4244a2:	mov    edx,0x67
  4244a7:	mov    esi,0xae91
  4244ac:	push   0x5b109900
  4244b1:	push   0x772a3e00
  4244b6:	push   0xfffffffd
  4244b8:	call   0x424a13
  4244bd:	add    esp,0xc
  4244c0:	mov    DWORD PTR [ebp-0x4],esi
  4244c3:	pop    edi
  4244c4:	push   0xfbf8ba00
  4244c9:	push   0xffffff9f
  4244cb:	push   0xa3fba200
  4244d0:	push   0xe3457100
  4244d5:	call   0x424c91
  4244da:	add    esp,0x10
  4244dd:	pop    esi
  4244de:	push   0x5a
  4244e0:	push   0x6b4cd100
  4244e5:	push   0xffffffdc
  4244e7:	push   0xffffffc1
  4244e9:	call   0x424d88
  4244ee:	add    esp,0x10
  4244f1:	push   0xffffff90
  4244f3:	push   0x4f67b800
  4244f8:	push   0xffffffca
  4244fa:	push   0xffffffa2
  4244fc:	call   0x424a13
  424501:	add    esp,0x10
  424504:	pop    ebx
  424505:	and    eax,edi
  424507:	push   0xeb75f900
  42450c:	call   0x424b54
  424511:	add    esp,0x4
  424514:	leave  
  424515:	ret    
  424516:	int3   
  424517:	int3   
  424518:	int3   
  424519:	int3   
  42451a:	int3   
  42451b:	push   ebp
  42451c:	mov    ebp,esp
  42451e:	sub    esp,0x40
  424521:	push   0xfbdefe00
  424526:	push   0xffffffe7
  424528:	push   0x1f
  42452a:	push   0xf
  42452c:	call   0x4248e2
  424531:	add    esp,0x10
  424534:	push   ebx
  424535:	mov    eax,0xc7
  42453a:	push   0xfb866000
  42453f:	push   0x9350be00
  424544:	push   0x4
  424546:	push   0xffffffb0
  424548:	push   0xffffff8a
  42454a:	call   0x42475d
  42454f:	add    esp,0x14
  424552:	push   esi
  424553:	add    eax,eax
  424555:	cmp    eax,0x3f
  424558:	je     0x42455d
  42455a:	mov    DWORD PTR [ebp-0x40],eax
  42455d:	push   0xffffffe6
  42455f:	push   0x97382b00
  424564:	push   0x4b018200
  424569:	push   0x69aceb00
  42456e:	push   0x9b36de00
  424573:	call   0x424c91
  424578:	add    esp,0x14
  42457b:	push   edi
  42457c:	cmp    eax,DWORD PTR [ebp-0x1c]
  42457f:	je     0x424594
  424581:	test   eax,0x32
  424586:	je     0x424594
  424588:	push   0x5f
  42458a:	push   0x1b
  42458c:	call   0x424c91
  424591:	add    esp,0x8
  424594:	push   0x21
  424596:	push   0x836c9000
  42459b:	push   0xffffffbf
  42459d:	push   0x2f
  42459f:	call   0x424b54
  4245a4:	add    esp,0x10
  4245a7:	push   0x13
  4245a9:	call   0x424b54
  4245ae:	add    esp,0x4
  4245b1:	cmp    eax,0x6c
  4245b4:	jne    0x4245d4
  4245b6:	mov    eax,0xd0
  4245bb:	mov    edx,0x88
  4245c0:	push   0x37722100
  4245c5:	push   0x89f00c00
  4245ca:	push   0x40
  4245cc:	call   0x4248e2
  4245d1:	add    esp,0xc
  4245d4:	push   0xa395fb00
  4245d9:	push   0xfbde2e00
  4245de:	call   0x424d88
  4245e3:	add    esp,0x8
  4245e6:	push   0x3b26f700
  4245eb:	push   0x2330c500
  4245f0:	push   0x78
  4245f2:	push   0xffffffe0
  4245f4:	call   0x424d88
  4245f9:	add    esp,0x10
  4245fc:	push   0x42
  4245fe:	push   0xffffff96
  424600:	call   0x424d88
  424605:	add    esp,0x8
  424608:	mov    DWORD PTR [ebp-0x4],eax
  42460b:	push   0x63983600
  424610:	call   0x424b54
  424615:	add    esp,0x4
  424618:	pop    edi
  424619:	xor    ecx,ecx
  42461b:	test   edi,0x8
  424621:	je     0x42463a
  424623:	push   0x53222e00
  424628:	push   0x29e8f700
  42462d:	push   0xb99f3000
  424632:	call   0x424b54
  424637:	add    esp,0xc
  42463a:	push   0xfffffff5
  42463c:	push   0x2b
  42463e:	push   0x19d97800
  424643:	push   0xffffffb8
  424645:	push   0xfffffff4
  424647:	call   0x424a13
  42464c:	add    esp,0x14
  42464f:	pop    esi
  424650:	push   0xfffffff3
  424652:	call   0x42475d
  424657:	add    esp,0x4
  42465a:	pop    ebx
  42465b:	push   0x2c
  42465d:	push   0x76
  42465f:	push   0x13
  424661:	push   0x67
  424663:	call   0x424a13
  424668:	add    esp,0x10
  42466b:	push   0x13792100
  424670:	push   0xdb2b0e00
  424675:	call   0x4248e2
  42467a:	add    esp,0x8
  42467d:	leave  
  42467e:	ret    
  42467f:	int3   
  424680:	int3   
  424681:	int3   
  424682:	int3   
  424683:	int3   
  424684:	push   ebp
  424685:	mov    ebp,esp
  424687:	sub    esp,0x18
  42468a:	call   0x424c91
  42468f:	push   ebx
  424690:	push   0xa3995600
  424695:	push   0x53
  424697:	push   0x19e79400
  42469c:	push   0xffffffb9
  42469e:	call   0x424c91
  4246a3:	add    esp,0x10
  4246a6:	push   esi
  4246a7:	push   0xffffffbf
  4246a9:	push   0x13224200
  4246ae:	push   0xfb57f600
  4246b3:	push   0xb9fe6000
  4246b8:	push   0xf
  4246ba:	call   0x4248e2
  4246bf:	add    esp,0x14
  4246c2:	call   0x424c91
  4246c7:	push   edi
  4246c8:	push   0x79c94500
  4246cd:	push   0xffffffc5
  4246cf:	call   0x424a13
  4246d4:	add    esp,0x8
  4246d7:	push   0x77
  4246d9:	push   0x5be45b00
  4246de:	push   0xfffffff8
  4246e0:	call   0x424b54
  4246e5:	add    esp,0xc
  4246e8:	push   0x9ba9100
  4246ed:	push   0xd
  4246ef:	call   0x4248e2
  4246f4:	add    esp,0x8
  4246f7:	mov    eax,0x4c
  4246fc:	mov    DWORD PTR [ebp-0x18],eax
  4246ff:	mov    ecx,eax
  424701:	mov    edx,DWORD PTR [ebp-0x18]
  424704:	push   0xffffff98
  424706:	push   0xf9d3bc00
  42470b:	push   0x8
  42470d:	push   0x4e
  42470f:	push   0x3f35ea00
  424714:	call   0x42475d
  424719:	add    esp,0x14
  42471c:	pop    edi
  42471d:	or     eax,edi
  42471f:	and    eax,edi
  424721:	call   0x424b54
  424726:	push   0xffffff8c
  424728:	push   0xffffffd2
  42472a:	push   0x5bf04100
  42472f:	call   0x4248e2
  424734:	add    esp,0xc
  424737:	pop    esi
  424738:	and    DWORD PTR [ebp-0x18],esi
  42473b:	call   0x424a13
  424740:	pop    ebx
  424741:	or     DWORD PTR [ebp-0x18],ebx
  424744:	push   0xa75a2800
  424749:	push   0x23abb200
  42474e:	call   0x42475d
  424753:	add    esp,0x8
  424756:	leave  
  424757:	ret    
  424758:	int3   
  424759:	int3   
  42475a:	int3   
  42475b:	int3   
  42475c:	int3   
  42475d:	push   ebp
  42475e:	mov    ebp,esp
  424760:	sub    esp,0x3c
  424763:	mov    edx,0x38
  424768:	call   0x424d88
  42476d:	push   0xa35d1a00
  424772:	push   0xffffffcd
  424774:	push   0x29f19300
  424779:	push   0x471e3f00
  42477e:	push   0x23ffbe00
  424783:	call   0x424b54
  424788:	add    esp,0x14
  42478b:	push   ebx
  42478c:	push   0xfbd52d00
  424791:	push   0x2b1ebd00
  424796:	push   0xffffff9d
  424798:	push   0x33
  42479a:	push   0xfffffff5
  42479c:	call   0x424b54
  4247a1:	add    esp,0x14
  4247a4:	call   0x424b54
  4247a9:	push   esi
  4247aa:	mov    esi,eax
  4247ac:	xor    ebx,ebx
  4247ae:	call   0x424b54
  4247b3:	push   0x4
  4247b5:	call   0x424b54
  4247ba:	add    esp,0x4
  4247bd:	push   0x1f
  4247bf:	push   0xffffffe7
  4247c1:	call   0x424c91
  4247c6:	add    esp,0x8
  4247c9:	push   0xffffff81
  4247cb:	push   0xdbb42300
  4247d0:	push   0xffffffdd
  4247d2:	push   0xfffffff6
  4247d4:	call   0x424b54
  4247d9:	add    esp,0x10
  4247dc:	push   0xbb2cd200
  4247e1:	push   0xff1a8b00
  4247e6:	call   0x424b54
  4247eb:	add    esp,0x8
  4247ee:	mov    DWORD PTR [ebp-0x28],esi
  4247f1:	push   0x3f
  4247f3:	push   0x998e0100
  4247f8:	call   0x424d88
  4247fd:	add    esp,0x8
  424800:	push   0xfffffffc
  424802:	push   0xffffffb9
  424804:	push   0x3
  424806:	push   0x772d5000
  42480b:	call   0x424c91
  424810:	add    esp,0x10
  424813:	add    ebx,ebx
  424815:	push   0x6d
  424817:	push   0x45
  424819:	push   0xe
  42481b:	call   0x424c91
  424820:	add    esp,0xc
  424823:	push   0xdbc80400
  424828:	push   0x66
  42482a:	push   0xffffff8f
  42482c:	push   0x3b
  42482e:	push   0x373f2100
  424833:	call   0x424c91
  424838:	add    esp,0x14
  42483b:	or     ebx,esi
  42483d:	sub    DWORD PTR [ebp-0x28],ebx
  424840:	push   0x19a75a00
  424845:	push   0xfbc92200
  42484a:	push   0xffffff8e
  42484c:	call   0x424c91
  424851:	add    esp,0xc
  424854:	push   edi
  424855:	sub    DWORD PTR [ebp-0x28],ebx
  424858:	push   0x89de9f00
  42485d:	push   0x12
  42485f:	call   0x424d88
  424864:	add    esp,0x8
  424867:	cmp    esi,0xef84
  42486d:	je     0x424879
  42486f:	push   0x5a
  424871:	call   0x424c91
  424876:	add    esp,0x4
  424879:	sub    DWORD PTR [ebp-0x28],eax
  42487c:	push   0xfffffff3
  42487e:	call   0x424b54
  424883:	add    esp,0x4
  424886:	sub    ebx,eax
  424888:	mov    edx,0x72ab
  42488d:	add    DWORD PTR [ebp-0x28],edx
  424890:	sub    ebx,eax
  424892:	push   0xffffffb8
  424894:	push   0xd7120f00
  424899:	push   0xffffff9d
  42489b:	call   0x424b54
  4248a0:	add    esp,0xc
  4248a3:	push   0x42
  4248a5:	push   0x53
  4248a7:	push   0x23dea700
  4248ac:	push   0x5b830500
  4248b1:	call   0x424b54
  4248b6:	add    esp,0x10
  4248b9:	mov    DWORD PTR [ebp-0x34],ebx
  4248bc:	pop    edi
  4248bd:	call   0x424c91
  4248c2:	pop    esi
  4248c3:	mov    edx,DWORD PTR [ebp-0x28]
  4248c6:	add    edx,edx
  4248c8:	mov    eax,DWORD PTR [ebp-0x28]
  4248cb:	push   0x1b
  4248cd:	call   0x424b54
  4248d2:	add    esp,0x4
  4248d5:	pop    ebx
  4248d6:	call   0x424d88
  4248db:	leave  
  4248dc:	ret    
  4248dd:	int3   
  4248de:	int3   
  4248df:	int3   
  4248e0:	int3   
  4248e1:	int3   
  4248e2:	push   ebp
  4248e3:	mov    ebp,esp
  4248e5:	sub    esp,0x18
  4248e8:	mov    edx,0xca
  4248ed:	call   0x424b54
  4248f2:	push   ebx
  4248f3:	push   0x4b400600
  4248f8:	push   0x2b
  4248fa:	call   0x424b54
  4248ff:	add    esp,0x8
  424902:	push   esi
  424903:	mov    ebx,0x52
  424908:	mov    esi,0xf5
  42490d:	mov    DWORD PTR [ebp-0x14],ebx
  424910:	add    esi,esi
  424912:	sub    esi,ebx
  424914:	call   0x424d88
  424919:	or     DWORD PTR [ebp-0x14],esi
  42491c:	push   0xffffffb7
  42491e:	push   0xffffffeb
  424920:	push   0x58
  424922:	push   0x69f2bf00
  424927:	push   0x69aab500
  42492c:	call   0x424b54
  424931:	add    esp,0x14
  424934:	push   edi
  424935:	push   0x59
  424937:	call   0x424b54
  42493c:	add    esp,0x4
  42493f:	push   0xa3d08900
  424944:	push   0xffffff83
  424946:	push   0x49d1ea00
  42494b:	call   0x424d88
  424950:	add    esp,0xc
  424953:	push   0x775ddd00
  424958:	push   0x14
  42495a:	push   0x1a
  42495c:	call   0x424c91
  424961:	add    esp,0xc
  424964:	push   0xffffffe3
  424966:	call   0x424d88
  42496b:	add    esp,0x4
  42496e:	sub    eax,ebx
  424970:	push   0x4b
  424972:	call   0x424b54
  424977:	add    esp,0x4
  42497a:	mov    eax,DWORD PTR ds:0x438044
  424980:	push   0xf372f700
  424985:	push   0xfffffffc
  424987:	push   0xdbff2000
  42498c:	call   0x424c91
  424991:	add    esp,0xc
  424994:	push   0xfffffff5
  424996:	call   0x424d88
  42499b:	add    esp,0x4
  42499e:	pop    edi
  42499f:	mov    edx,DWORD PTR [ebp-0x14]
  4249a2:	mov    ebx,DWORD PTR [ebp-0x14]
  4249a5:	test   edx,0x69
  4249ab:	jne    0x4249c3
  4249ad:	xor    DWORD PTR [ebp-0x14],ebx
  4249b0:	push   0xfffffffa
  4249b2:	push   0xffffffac
  4249b4:	push   0xfffffff8
  4249b6:	push   0x3b496c00
  4249bb:	call   0x424b54
  4249c0:	add    esp,0x10
  4249c3:	push   0xa336e600
  4249c8:	push   0x30
  4249ca:	push   0xfbfc2c00
  4249cf:	call   0x424d88
  4249d4:	add    esp,0xc
  4249d7:	pop    esi
  4249d8:	push   0xffffffbb
  4249da:	push   0x63b7d500
  4249df:	push   0x18
  4249e1:	call   0x424c91
  4249e6:	add    esp,0xc
  4249e9:	pop    ebx
  4249ea:	or     eax,esi
  4249ec:	push   0x41
  4249ee:	push   0xffffffcf
  4249f0:	push   0x6f4e9d00
  4249f5:	call   0x424b54
  4249fa:	add    esp,0xc
  4249fd:	push   0x2f639500
  424a02:	push   0x4
  424a04:	call   0x424b54
  424a09:	add    esp,0x8
  424a0c:	leave  
  424a0d:	ret    
  424a0e:	int3   
  424a0f:	int3   
  424a10:	int3   
  424a11:	int3   
  424a12:	int3   
  424a13:	push   ebp
  424a14:	mov    ebp,esp
  424a16:	sub    esp,0x40
  424a19:	call   0x424d88
  424a1e:	call   0x424b54
  424a23:	push   ebx
  424a24:	mov    DWORD PTR [ebp-0x34],eax
  424a27:	push   esi
  424a28:	push   0xbb390d00
  424a2d:	push   0xffffffe3
  424a2f:	call   0x424d88
  424a34:	add    esp,0x8
  424a37:	push   0x47
  424a39:	push   0xd7172300
  424a3e:	call   0x424b54
  424a43:	add    esp,0x8
  424a46:	push   edi
  424a47:	push   0x29e4fe00
  424a4c:	call   0x424c91
  424a51:	add    esp,0x4
  424a54:	push   0xa71b9400
  424a59:	push   0x28
  424a5b:	push   0xffffffc5
  424a5d:	push   0x55
  424a5f:	call   0x424b54
  424a64:	add    esp,0x10
  424a67:	push   0x4b
  424a69:	call   0x424b54
  424a6e:	add    esp,0x4
  424a71:	push   0xfffffffa
  424a73:	push   0xfbcc2b00
  424a78:	push   0xffffffc9
  424a7a:	push   0xffffffd0
  424a7c:	push   0x2a
  424a7e:	call   0x424d88
  424a83:	add    esp,0x14
  424a86:	xor    eax,eax
  424a88:	push   0x53
  424a8a:	push   0x992d600
  424a8f:	push   0x571bd200
  424a94:	push   0x71
  424a96:	call   0x424c91
  424a9b:	add    esp,0x10
  424a9e:	call   0x424c91
  424aa3:	push   0x23dcad00
  424aa8:	push   0x1f
  424aaa:	push   0xffffffd2
  424aac:	push   0xffffff88
  424aae:	push   0xff330b00
  424ab3:	call   0x424c91
  424ab8:	add    esp,0x14
  424abb:	push   0xbf5e9800
  424ac0:	push   0x5b9dd200
  424ac5:	push   0xfffffff2
  424ac7:	push   0xcf00f300
  424acc:	push   0x3998fe00
  424ad1:	call   0x424d88
  424ad6:	add    esp,0x14
  424ad9:	cmp    eax,0x51
  424adc:	je     0x424aef
  424ade:	xor    eax,eax
  424ae0:	push   0x1b200c00
  424ae5:	push   0xffffffec
  424ae7:	call   0x424d88
  424aec:	add    esp,0x8
  424aef:	push   0xef398f00
  424af4:	push   0x4b17ee00
  424af9:	push   0xf9b08b00
  424afe:	push   0x34
  424b00:	push   0xffffffa8
  424b02:	call   0x424d88
  424b07:	add    esp,0x14
  424b0a:	pop    edi
  424b0b:	push   0x60
  424b0d:	call   0x424d88
  424b12:	add    esp,0x4
  424b15:	pop    esi
  424b16:	add    DWORD PTR [ebp-0x34],eax
  424b19:	call   0x424c91
  424b1e:	pop    ebx
  424b1f:	push   0xb324f000
  424b24:	push   0x5e
  424b26:	push   0x5e
  424b28:	push   0xffffffc6
  424b2a:	call   0x424b54
  424b2f:	add    esp,0x10
  424b32:	push   0xffffffe0
  424b34:	push   0xffffff9f
  424b36:	push   0x63cb9400
  424b3b:	push   0xa3ac3400
  424b40:	push   0xdf2bd900
  424b45:	call   0x424c91
  424b4a:	add    esp,0x14
  424b4d:	leave  
  424b4e:	ret    
  424b4f:	int3   
  424b50:	int3   
  424b51:	int3   
  424b52:	int3   
  424b53:	int3   
  424b54:	push   ebp
  424b55:	mov    ebp,esp
  424b57:	sub    esp,0x3c
  424b5a:	mov    ecx,0x1dcf
  424b5f:	mov    DWORD PTR [ebp-0x30],ecx
  424b62:	push   ebx
  424b63:	mov    edx,DWORD PTR [ebp-0x30]
  424b66:	cmp    edx,DWORD PTR [ebp-0x30]
  424b69:	je     0x424b6e
  424b6b:	sub    DWORD PTR [ebp-0x30],edx
  424b6e:	push   esi
  424b6f:	or     edx,ecx
  424b71:	test   edx,0xbd
  424b77:	je     0x424b7c
  424b79:	or     DWORD PTR [ebp-0x30],edx
  424b7c:	push   edi
  424b7d:	sub    DWORD PTR [ebp-0x30],edx
  424b80:	add    DWORD PTR [ebp-0x30],ecx
  424b83:	mov    edx,0x73
  424b88:	mov    ecx,DWORD PTR [ebp-0x30]
  424b8b:	sub    DWORD PTR [ebp-0x30],ecx
  424b8e:	add    edx,edx
  424b90:	and    DWORD PTR [ebp-0x30],edx
  424b93:	mov    eax,edx
  424b95:	mov    edx,ecx
  424b97:	add    DWORD PTR [ebp-0x30],edx
  424b9a:	sub    eax,ecx
  424b9c:	cmp    eax,DWORD PTR [ebp-0x24]
  424b9f:	jne    0x424bb0
  424ba1:	sub    eax,ecx
  424ba3:	xor    ecx,ecx
  424ba5:	xor    esi,esi
  424ba7:	add    DWORD PTR [ebp-0x30],esi
  424baa:	mov    DWORD PTR [ebp-0x30],ecx
  424bad:	and    DWORD PTR [ebp-0x30],eax
  424bb0:	mov    ecx,DWORD PTR ds:0x438080
  424bb6:	add    DWORD PTR [ebp-0x30],ecx
  424bb9:	pop    edi
  424bba:	mov    eax,0xe9f6
  424bbf:	sub    DWORD PTR [ebp-0x30],eax
  424bc2:	pop    esi
  424bc3:	sub    ecx,eax
  424bc5:	mov    ebx,0x4320832b
  424bca:	sub    DWORD PTR [ebp-0x30],ecx
  424bcd:	sub    DWORD PTR [ebp-0x30],ebx
  424bd0:	pop    ebx
  424bd1:	mov    edx,DWORD PTR ds:0x438080
  424bd7:	mov    eax,DWORD PTR [ebp-0x30]
  424bda:	add    DWORD PTR [ebp-0x30],edi
  424bdd:	cmp    esi,DWORD PTR ds:0x438080
  424be3:	je     0x424c8a
  424be9:	add    DWORD PTR [ebp-0x30],esi
  424bec:	xor    ecx,ecx
  424bee:	add    DWORD PTR [ebp-0x30],ebx
  424bf1:	cmp    eax,ebx
  424bf3:	jne    0x424c8a
  424bf9:	sub    DWORD PTR [ebp-0x30],edx
  424bfc:	sub    DWORD PTR [ebp-0x30],ecx
  424bff:	sub    eax,edi
  424c01:	mov    edx,esi
  424c03:	cmp    edx,DWORD PTR ds:0x438080
  424c09:	jne    0x424c8a
  424c0b:	mov    ecx,0x40
  424c10:	add    ecx,esi
  424c12:	cmp    ecx,DWORD PTR [ebp-0x24]
  424c15:	je     0x424c8a
  424c17:	add    DWORD PTR [ebp-0x30],ecx
  424c1a:	add    DWORD PTR [ebp-0x30],edx
  424c1d:	add    DWORD PTR [ebp-0x30],edi
  424c20:	cmp    eax,edi
  424c22:	jne    0x424c8a
  424c24:	xor    ecx,ecx
  424c26:	mov    edx,0xee
  424c2b:	add    DWORD PTR [ebp-0x30],ecx
  424c2e:	add    edx,edi
  424c30:	sub    eax,edi
  424c32:	sub    DWORD PTR [ebp-0x30],eax
  424c35:	cmp    edx,DWORD PTR [ebp-0x14]
  424c38:	je     0x424c8a
  424c3a:	mov    eax,0xbb
  424c3f:	mov    ecx,DWORD PTR [ebp-0x30]
  424c42:	and    eax,edi
  424c44:	cmp    ecx,DWORD PTR ds:0x438080
  424c4a:	jne    0x424c8a
  424c4c:	add    DWORD PTR [ebp-0x30],eax
  424c4f:	xor    DWORD PTR [ebp-0x30],ecx
  424c52:	mov    ecx,0x89
  424c57:	mov    eax,DWORD PTR [ebp-0x30]
  424c5a:	sub    ecx,eax
  424c5c:	cmp    edx,DWORD PTR [ebp-0x1c]
  424c5f:	jne    0x424c8a
  424c61:	cmp    ecx,DWORD PTR ds:0x438080
  424c67:	je     0x424c8a
  424c69:	mov    eax,0x96
  424c6e:	and    ecx,edx
  424c70:	sub    DWORD PTR [ebp-0x30],eax
  424c73:	add    ecx,eax
  424c75:	cmp    ecx,DWORD PTR [ebp-0x34]
  424c78:	je     0x424c8a
  424c7a:	xor    eax,eax
  424c7c:	mov    edx,DWORD PTR [ebp-0x30]
  424c7f:	mov    DWORD PTR [ebp-0x30],eax
  424c82:	sub    DWORD PTR [ebp-0x30],edx
  424c85:	sub    ecx,edi
  424c87:	sub    DWORD PTR [ebp-0x30],ecx
  424c8a:	leave  
  424c8b:	ret    
  424c8c:	int3   
  424c8d:	int3   
  424c8e:	int3   
  424c8f:	int3   
  424c90:	int3   
  424c91:	push   ebp
  424c92:	mov    ebp,esp
  424c94:	sub    esp,0x3c
  424c97:	xor    edx,edx
  424c99:	xor    eax,eax
  424c9b:	add    edx,edx
  424c9d:	add    edx,eax
  424c9f:	or     edx,eax
  424ca1:	or     edx,eax
  424ca3:	mov    DWORD PTR [ebp-0x34],edx
  424ca6:	push   ebx
  424ca7:	add    edx,eax
  424ca9:	sub    DWORD PTR [ebp-0x34],edx
  424cac:	push   esi
  424cad:	mov    ebx,0x87e7
  424cb2:	mov    edx,DWORD PTR [ebp-0x34]
  424cb5:	or     edx,eax
  424cb7:	and    edx,ebx
  424cb9:	or     DWORD PTR [ebp-0x34],edx
  424cbc:	push   edi
  424cbd:	sub    ebx,edx
  424cbf:	mov    edx,0x3b
  424cc4:	sub    edx,ebx
  424cc6:	sub    DWORD PTR [ebp-0x34],edx
  424cc9:	xor    edi,edi
  424ccb:	mov    ebx,0x2408
  424cd0:	sub    DWORD PTR [ebp-0x34],eax
  424cd3:	add    DWORD PTR [ebp-0x34],edi
  424cd6:	add    ebx,eax
  424cd8:	add    DWORD PTR [ebp-0x34],ebx
  424cdb:	mov    ebx,0xfe
  424ce0:	add    DWORD PTR [ebp-0x34],ebx
  424ce3:	mov    edx,DWORD PTR [ebp-0x34]
  424ce6:	sub    edx,ebx
  424ce8:	mov    ebx,edx
  424cea:	sub    ebx,eax
  424cec:	add    DWORD PTR [ebp-0x34],edi
  424cef:	test   edx,0xb5
  424cf5:	je     0x424d02
  424cf7:	sub    ebx,edi
  424cf9:	mov    eax,DWORD PTR [ebp-0x34]
  424cfc:	mov    DWORD PTR [ebp-0x34],ebx
  424cff:	add    DWORD PTR [ebp-0x34],eax
  424d02:	pop    edi
  424d03:	test   ebx,0xf9
  424d09:	je     0x424d0e
  424d0b:	sub    DWORD PTR [ebp-0x34],edi
  424d0e:	pop    esi
  424d0f:	xor    edx,edx
  424d11:	mov    ecx,DWORD PTR [ebp-0x34]
  424d14:	sub    DWORD PTR [ebp-0x34],esi
  424d17:	add    ecx,edx
  424d19:	mov    DWORD PTR [ebp-0x34],ecx
  424d1c:	pop    ebx
  424d1d:	add    ecx,edx
  424d1f:	sub    ecx,edi
  424d21:	xor    edx,edx
  424d23:	mov    eax,0x11
  424d28:	add    DWORD PTR [ebp-0x34],eax
  424d2b:	add    edx,edi
  424d2d:	add    ecx,esi
  424d2f:	cmp    ebx,DWORD PTR [ebp-0x18]
  424d32:	jne    0x424d81
  424d34:	xor    eax,eax
  424d36:	sub    ecx,esi
  424d38:	cmp    ebx,0xffffff98
  424d3b:	jne    0x424d81
  424d3d:	cmp    ecx,0x1d1d
  424d43:	jne    0x424d81
  424d45:	sub    ecx,esi
  424d47:	sub    DWORD PTR [ebp-0x34],ebx
  424d4a:	add    eax,edi
  424d4c:	or     DWORD PTR [ebp-0x34],edx
  424d4f:	xor    DWORD PTR [ebp-0x34],eax
  424d52:	cmp    ecx,DWORD PTR [ebp-0x2c]
  424d55:	je     0x424d81
  424d57:	add    ecx,ecx
  424d59:	cmp    ecx,DWORD PTR [ebp-0x34]
  424d5c:	je     0x424d81
  424d5e:	mov    eax,DWORD PTR [ebp-0x34]
  424d61:	cmp    ecx,0xffffffe6
  424d64:	jne    0x424d81
  424d66:	and    eax,ecx
  424d68:	test   eax,0x8f9f
  424d6d:	je     0x424d81
  424d6f:	mov    ecx,DWORD PTR [ebp-0x34]
  424d72:	mov    edx,0xd5
  424d77:	sub    eax,edi
  424d79:	sub    DWORD PTR [ebp-0x34],eax
  424d7c:	sub    edx,ecx
  424d7e:	or     DWORD PTR [ebp-0x34],edx
  424d81:	leave  
  424d82:	ret    
  424d83:	int3   
  424d84:	int3   
  424d85:	int3   
  424d86:	int3   
  424d87:	int3   
  424d88:	push   ebp
  424d89:	mov    ebp,esp
  424d8b:	sub    esp,0x2c
  424d8e:	xor    edx,edx
  424d90:	mov    eax,0x2270
  424d95:	sub    eax,edx
  424d97:	mov    DWORD PTR [ebp-0xc],eax
  424d9a:	push   ebx
  424d9b:	sub    edx,eax
  424d9d:	or     eax,edx
  424d9f:	sub    eax,edx
  424da1:	mov    edx,0x34
  424da6:	sub    DWORD PTR [ebp-0xc],eax
  424da9:	sub    DWORD PTR [ebp-0xc],eax
  424dac:	sub    edx,eax
  424dae:	or     edx,eax
  424db0:	mov    eax,DWORD PTR [ebp-0xc]
  424db3:	add    eax,eax
  424db5:	and    DWORD PTR [ebp-0xc],eax
  424db8:	xor    DWORD PTR [ebp-0xc],edx
  424dbb:	push   esi
  424dbc:	mov    edx,DWORD PTR [ebp-0xc]
  424dbf:	mov    ecx,DWORD PTR [ebp-0xc]
  424dc2:	and    edx,ecx
  424dc4:	and    edx,eax
  424dc6:	sub    edx,eax
  424dc8:	cmp    edx,0xffffffe8
  424dcb:	jne    0x424e38
  424dcd:	or     edx,eax
  424dcf:	test   ecx,0x57
  424dd5:	jne    0x424e38
  424dd7:	sub    edx,eax
  424dd9:	mov    esi,eax
  424ddb:	cmp    esi,0x6d
  424dde:	jne    0x424e38
  424de0:	mov    ecx,DWORD PTR [ebp-0xc]
  424de3:	cmp    edx,0xaf15
  424de9:	je     0x424e38
  424deb:	add    DWORD PTR [ebp-0xc],esi
  424dee:	mov    eax,DWORD PTR [ebp-0xc]
  424df1:	sub    DWORD PTR [ebp-0xc],edx
  424df4:	test   eax,0xa4fd
  424df9:	je     0x424e38
  424dfb:	mov    edx,0x2c
  424e00:	mov    esi,DWORD PTR [ebp-0xc]
  424e03:	add    DWORD PTR [ebp-0xc],ecx
  424e06:	sub    eax,edx
  424e08:	cmp    ecx,DWORD PTR [ebp-0x4]
  424e0b:	je     0x424e38
  424e0d:	mov    ecx,0x8c
  424e12:	add    esi,esi
  424e14:	test   esi,0xeb
  424e1a:	je     0x424e38
  424e1c:	add    ecx,esi
  424e1e:	sub    eax,edx
  424e20:	xor    edx,edx
  424e22:	add    ecx,ecx
  424e24:	mov    esi,eax
  424e26:	sub    DWORD PTR [ebp-0xc],esi
  424e29:	sub    DWORD PTR [ebp-0xc],edx
  424e2c:	sub    ecx,eax
  424e2e:	or     ecx,edx
  424e30:	add    DWORD PTR [ebp-0xc],eax
  424e33:	add    ecx,eax
  424e35:	add    DWORD PTR [ebp-0xc],ecx
  424e38:	push   edi
  424e39:	add    edx,ecx
  424e3b:	mov    eax,DWORD PTR [ebp-0xc]
  424e3e:	cmp    edx,ecx
  424e40:	je     0x424e48
  424e42:	xor    DWORD PTR [ebp-0xc],edx
  424e45:	add    DWORD PTR [ebp-0xc],eax
  424e48:	mov    edx,DWORD PTR [ebp-0xc]
  424e4b:	xor    ebx,ebx
  424e4d:	sub    edx,ecx
  424e4f:	add    DWORD PTR [ebp-0xc],eax
  424e52:	add    edx,esi
  424e54:	cmp    edx,0xe98b
  424e5a:	jne    0x424ec2
  424e5c:	mov    eax,DWORD PTR [ebp-0xc]
  424e5f:	or     ebx,edx
  424e61:	add    eax,esi
  424e63:	add    DWORD PTR [ebp-0xc],eax
  424e66:	test   ebx,0x9f
  424e6c:	jne    0x424ec2
  424e6e:	cmp    eax,ecx
  424e70:	je     0x424ec2
  424e72:	add    DWORD PTR [ebp-0xc],esi
  424e75:	mov    edx,0xab
  424e7a:	mov    eax,DWORD PTR [ebp-0xc]
  424e7d:	sub    DWORD PTR [ebp-0xc],ecx
  424e80:	or     edx,ecx
  424e82:	cmp    edx,DWORD PTR [ebp-0x28]
  424e85:	jne    0x424ec2
  424e87:	xor    esi,esi
  424e89:	cmp    ebx,0xffffffc8
  424e8c:	jne    0x424ec2
  424e8e:	sub    esi,edx
  424e90:	mov    edi,DWORD PTR ds:0x43804c
  424e96:	mov    ecx,0xc4
  424e9b:	sub    DWORD PTR [ebp-0xc],esi
  424e9e:	sub    DWORD PTR [ebp-0xc],edx
  424ea1:	add    DWORD PTR [ebp-0xc],eax
  424ea4:	or     ecx,ebx
  424ea6:	add    ecx,ecx
  424ea8:	sub    edi,esi
  424eaa:	cmp    edx,DWORD PTR [ebp-0x10]
  424ead:	je     0x424ec2
  424eaf:	and    ecx,edi
  424eb1:	cmp    ecx,edx
  424eb3:	jne    0x424ec2
  424eb5:	test   ecx,0xf6
  424ebb:	jne    0x424ec2
  424ebd:	sub    ecx,ebx
  424ebf:	sub    DWORD PTR [ebp-0xc],ecx
  424ec2:	mov    ebx,DWORD PTR [ebp-0xc]
  424ec5:	cmp    ebx,0xffffff96
  424ec8:	je     0x424f36
  424eca:	cmp    ebx,eax
  424ecc:	jne    0x424f36
  424ece:	mov    edi,DWORD PTR [ebp-0xc]
  424ed1:	and    edi,edx
  424ed3:	add    DWORD PTR [ebp-0xc],ecx
  424ed6:	xor    eax,eax
  424ed8:	add    ebx,esi
  424eda:	cmp    edi,DWORD PTR ds:0x43804c
  424ee0:	je     0x424f36
  424ee2:	mov    esi,ecx
  424ee4:	mov    ecx,DWORD PTR [ebp-0xc]
  424ee7:	add    DWORD PTR [ebp-0xc],edi
  424eea:	mov    DWORD PTR [ebp-0xc],eax
  424eed:	or     ebx,eax
  424eef:	sub    DWORD PTR [ebp-0xc],eax
  424ef2:	test   esi,0x92
  424ef8:	je     0x424f36
  424efa:	cmp    ecx,esi
  424efc:	jne    0x424f36
  424efe:	mov    eax,0x2
  424f03:	and    ebx,edi
  424f05:	sub    ecx,esi
  424f07:	mov    edx,0x1
  424f0c:	add    edx,edx
  424f0e:	or     DWORD PTR [ebp-0xc],ecx
  424f11:	add    eax,edx
  424f13:	cmp    edi,0x45
  424f16:	je     0x424f36
  424f18:	mov    DWORD PTR [ebp-0x20],ebx
  424f1b:	add    eax,esi
  424f1d:	add    eax,edi
  424f1f:	add    eax,esi
  424f21:	add    DWORD PTR [ebp-0x20],edx
  424f24:	mov    edx,DWORD PTR ds:0x43804c
  424f2a:	test   eax,0x87
  424f2f:	je     0x424f36
  424f31:	add    edx,eax
  424f33:	sub    DWORD PTR [ebp-0xc],edx
  424f36:	mov    DWORD PTR [ebp-0xc],esi
  424f39:	pop    edi
  424f3a:	mov    edx,DWORD PTR [ebp-0xc]
  424f3d:	add    edx,eax
  424f3f:	cmp    edx,0x37
  424f42:	jne    0x425041
  424f48:	mov    eax,esi
  424f4a:	mov    esi,DWORD PTR [ebp-0xc]
  424f4d:	cmp    ebx,0x5c
  424f50:	jne    0x425041
  424f56:	xor    ecx,ecx
  424f58:	sub    DWORD PTR [ebp-0xc],ecx
  424f5b:	mov    ebx,DWORD PTR [ebp-0xc]
  424f5e:	sub    edx,esi
  424f60:	add    DWORD PTR [ebp-0xc],eax
  424f63:	and    edx,esi
  424f65:	cmp    ebx,DWORD PTR [ebp-0x18]
  424f68:	je     0x425041
  424f6e:	cmp    edx,0x48
  424f71:	je     0x425041
  424f77:	cmp    edi,0x6a6a
  424f7d:	je     0x425041
  424f83:	mov    eax,DWORD PTR [ebp-0xc]
  424f86:	xor    ecx,ecx
  424f88:	or     DWORD PTR [ebp-0xc],esi
  424f8b:	cmp    ebx,esi
  424f8d:	jne    0x425041
  424f93:	mov    esi,DWORD PTR [ebp-0xc]
  424f96:	test   edx,0x3422204
  424f9c:	jne    0x425041
  424fa2:	add    edx,eax
  424fa4:	sub    DWORD PTR [ebp-0xc],ebx
  424fa7:	test   esi,0x9a
  424fad:	je     0x425041
  424fb3:	mov    ebx,0x9bf8
  424fb8:	cmp    esi,edi
  424fba:	jne    0x425041
  424fc0:	cmp    esi,ecx
  424fc2:	jne    0x425041
  424fc4:	mov    eax,DWORD PTR [ebp-0xc]
  424fc7:	add    edx,edi
  424fc9:	cmp    esi,eax
  424fcb:	jne    0x425041
  424fcd:	mov    ebx,DWORD PTR [ebp-0xc]
  424fd0:	and    esi,edi
  424fd2:	cmp    edx,DWORD PTR [ebp-0x28]
  424fd5:	jne    0x425041
  424fd7:	xor    DWORD PTR [ebp-0xc],ebx
  424fda:	mov    ebx,0xa7
  424fdf:	sub    DWORD PTR [ebp-0xc],ecx
  424fe2:	add    edx,eax
  424fe4:	test   esi,0x3fec
  424fea:	je     0x425041
  424fec:	mov    ecx,DWORD PTR [ebp-0xc]
  424fef:	add    ebx,esi
  424ff1:	mov    eax,DWORD PTR [ebp-0xc]
  424ff4:	test   edx,0x5e
  424ffa:	je     0x425041
  424ffc:	mov    esi,eax
  424ffe:	add    ebx,edx
  425000:	cmp    ecx,DWORD PTR ds:0x43804c
  425006:	jne    0x425041
  425008:	mov    eax,0xad
  42500d:	cmp    ebx,edi
  42500f:	jne    0x425041
  425011:	and    esi,ebx
  425013:	mov    DWORD PTR [ebp-0xc],esi
  425016:	sub    DWORD PTR [ebp-0xc],edi
  425019:	cmp    ebx,eax
  42501b:	jne    0x425041
  42501d:	mov    edx,DWORD PTR [ebp-0xc]
  425020:	mov    ebx,eax
  425022:	sub    DWORD PTR [ebp-0xc],edx
  425025:	sub    ebx,ecx
  425027:	test   ebx,0xa6
  42502d:	je     0x425041
  42502f:	sub    ebx,edi
  425031:	test   ebx,0x16
  425037:	jne    0x425041
  425039:	cmp    ebx,0x74
  42503c:	jne    0x425041
  42503e:	sub    DWORD PTR [ebp-0xc],ebx
  425041:	pop    esi
  425042:	sub    eax,ecx
  425044:	mov    edx,DWORD PTR [ebp-0xc]
  425047:	test   esi,0xa8
  42504d:	je     0x4250f8
  425053:	test   edx,0x89
  425059:	je     0x4250f8
  42505f:	cmp    edx,0xcaed
  425065:	jne    0x4250f8
  42506b:	add    DWORD PTR [ebp-0xc],esi
  42506e:	sub    DWORD PTR [ebp-0xc],eax
  425071:	mov    eax,DWORD PTR ds:0x438048
  425077:	cmp    edx,DWORD PTR ds:0x43804c
  42507d:	je     0x4250f8
  42507f:	add    DWORD PTR [ebp-0xc],ecx
  425082:	and    eax,ecx
  425084:	sub    DWORD PTR [ebp-0xc],edx
  425087:	mov    edx,DWORD PTR [ebp-0xc]
  42508a:	sub    eax,ebx
  42508c:	mov    ebx,0x69
  425091:	add    ebx,ebx
  425093:	test   eax,0x73
  425098:	je     0x4250f8
  42509a:	and    edx,esi
  42509c:	mov    ecx,DWORD PTR [ebp-0xc]
  42509f:	add    edx,esi
  4250a1:	and    eax,esi
  4250a3:	sub    DWORD PTR [ebp-0xc],eax
  4250a6:	cmp    edx,DWORD PTR ds:0x43804c
  4250ac:	je     0x4250f8
  4250ae:	add    ecx,esi
  4250b0:	mov    eax,DWORD PTR [ebp-0xc]
  4250b3:	xor    DWORD PTR [ebp-0xc],edx
  4250b6:	xor    DWORD PTR [ebp-0xc],ecx
  4250b9:	cmp    eax,DWORD PTR [ebp-0x2c]
  4250bc:	jne    0x4250f8
  4250be:	test   ecx,0x67
  4250c4:	jne    0x4250f8
  4250c6:	add    eax,eax
  4250c8:	sub    DWORD PTR [ebp-0xc],eax
  4250cb:	mov    eax,DWORD PTR [ebp-0xc]
  4250ce:	mov    edx,0xa
  4250d3:	cmp    eax,ebx
  4250d5:	jne    0x4250f8
  4250d7:	mov    ecx,eax
  4250d9:	cmp    ecx,edx
  4250db:	je     0x4250f8
  4250dd:	add    ebx,eax
  4250df:	mov    eax,DWORD PTR [ebp-0xc]
  4250e2:	add    ecx,edx
  4250e4:	mov    DWORD PTR [ebp-0xc],eax
  4250e7:	mov    DWORD PTR [ebp-0xc],ebx
  4250ea:	mov    ebx,DWORD PTR ds:0x43804c
  4250f0:	sub    DWORD PTR [ebp-0xc],ecx
  4250f3:	add    ebx,edi
  4250f5:	sub    DWORD PTR [ebp-0xc],ebx
  4250f8:	pop    ebx
  4250f9:	sub    DWORD PTR [ebp-0xc],ebx
  4250fc:	leave  
  4250fd:	ret    
