
e358edd51585395f379af37dfa2d09abc28e829679adee63baaab80558044e6b.exe:     file format pei-i386


Disassembly of section .text:

00401000 <.text>:
	...
  401008:	ja     0x401010
  40100e:	add    BYTE PTR [eax],al
  401010:	mov    edi,edi
  401012:	pusha  
  401013:	push   ebp
  401014:	mov    ebp,esp
  401016:	sub    esp,0x38
  401019:	push   ecx
  40101a:	push   0x0
  40101c:	push   0x403028
  401021:	pop    eax
  401022:	call   DWORD PTR cs:[eax]
  401025:	pop    ecx
  401026:	test   eax,eax
  401028:	je     0x40102b
  40102a:	ret    
  40102b:	push   ecx
  40102c:	push   DWORD PTR [ecx+0xdc]
  401032:	push   edx
  401033:	push   edx
  401034:	call   0x4015b4
  401039:	add    esp,0xc
  40103c:	pop    ecx
  40103d:	push   ecx
  40103e:	push   0x0
  401040:	push   0x40304c
  401045:	pop    eax
  401046:	call   DWORD PTR cs:[eax]
  401049:	pop    ecx
  40104a:	mov    edx,0x40303c
  40104f:	mov    edx,DWORD PTR [edx]
  401051:	push   edx
  401052:	push   DWORD PTR [ecx+0x32c]
  401058:	pop    edx
  401059:	call   edx
  40105b:	sub    esp,0xffffffc8
  40105e:	mov    ebp,DWORD PTR [esp]
  401061:	add    esp,0x4
  401064:	ret    
  401065:	add    BYTE PTR [eax],al
  401067:	add    BYTE PTR [ebx-0x1374aa01],cl
  40106d:	sub    esp,0x40
  401070:	push   ecx
  401071:	push   DWORD PTR [ecx+0x30]
  401074:	push   DWORD PTR [ecx+0xc0]
  40107a:	push   eax
  40107b:	call   0x4017e4
  401080:	add    esp,0xc
  401083:	pop    ecx
  401084:	push   ecx
  401085:	lea    esi,[ecx]
  401087:	push   esi
  401088:	push   0x40303c
  40108d:	pop    eax
  40108e:	call   DWORD PTR cs:[eax]
  401091:	test   eax,eax
  401093:	jne    0x401085
  401095:	pop    ecx
  401096:	push   ecx
  401097:	push   0x0
  401099:	push   0x40304c
  40109e:	pop    eax
  40109f:	call   DWORD PTR cs:[eax]
  4010a2:	pop    ecx
  4010a3:	sub    esp,0xffffffc0
  4010a6:	mov    ebp,DWORD PTR [esp]
  4010a9:	add    esp,0x4
  4010ac:	ret    
  4010ad:	add    BYTE PTR [eax],al
  4010af:	add    BYTE PTR [eax],al
  4010b1:	add    BYTE PTR [eax],al
  4010b3:	add    BYTE PTR [ebx-0x1374aa01],cl
  4010b9:	sub    esp,0x30
  4010bc:	push   ecx
  4010bd:	push   DWORD PTR [ecx+0x2c8]
  4010c3:	push   edx
  4010c4:	push   DWORD PTR [ecx+0x1a4]
  4010ca:	call   0x4014a4
  4010cf:	add    esp,0xc
  4010d2:	pop    ecx
  4010d3:	push   ecx
  4010d4:	push   0x403018
  4010d9:	pop    eax
  4010da:	call   DWORD PTR cs:[eax]
  4010dd:	pop    ecx
  4010de:	push   ecx
  4010df:	push   0x0
  4010e1:	push   0x403020
  4010e6:	pop    eax
  4010e7:	call   DWORD PTR cs:[eax]
  4010ea:	pop    ecx
  4010eb:	sub    esp,0xffffffd0
  4010ee:	mov    ebp,DWORD PTR [esp]
  4010f1:	add    esp,0x4
  4010f4:	ret    
  4010f5:	add    BYTE PTR [eax],al
  4010f7:	add    BYTE PTR [eax],al
  4010f9:	add    BYTE PTR [eax],al
  4010fb:	add    BYTE PTR [ebx-0x1374aa01],cl
  401101:	sub    esp,0x50
  401104:	push   ecx
  401105:	lea    ecx,[ecx]
  401107:	push   ecx
  401108:	push   0x40303c
  40110d:	pop    eax
  40110e:	call   DWORD PTR cs:[eax]
  401111:	test   eax,eax
  401113:	jne    0x401105
  401115:	pop    ecx
  401116:	push   ecx
  401117:	push   edi
  401118:	push   edx
  401119:	push   edx
  40111a:	push   DWORD PTR [ecx+0x36c]
  401120:	call   0x401460
  401125:	add    esp,0x10
  401128:	pop    ecx
  401129:	push   ecx
  40112a:	mov    edx,0x0
  40112f:	push   edx
  401130:	push   0x403078
  401135:	pop    eax
  401136:	call   DWORD PTR cs:[eax]
  401139:	pop    ecx
  40113a:	sub    esp,0xffffffb0
  40113d:	mov    ebp,DWORD PTR [esp]
  401140:	add    esp,0x4
  401143:	ret    
  401144:	add    BYTE PTR [eax],al
  401146:	add    BYTE PTR [eax],al
  401148:	mov    edi,edi
  40114a:	push   ebp
  40114b:	mov    ebp,esp
  40114d:	sub    esp,0x60
  401150:	push   ecx
  401151:	push   0x0
  401153:	push   0x403084
  401158:	pop    eax
  401159:	call   DWORD PTR cs:[eax]
  40115c:	pop    ecx
  40115d:	push   ecx
  40115e:	push   edi
  40115f:	push   DWORD PTR [ecx+0x248]
  401165:	push   DWORD PTR [ecx+0x32c]
  40116b:	push   DWORD PTR [ecx+0x278]
  401171:	call   0x401750
  401176:	add    esp,0x10
  401179:	pop    ecx
  40117a:	push   ecx
  40117b:	mov    ecx,0x0
  401180:	push   ecx
  401181:	push   0x403020
  401186:	pop    eax
  401187:	call   DWORD PTR cs:[eax]
  40118a:	pop    ecx
  40118b:	sub    esp,0xffffffa0
  40118e:	mov    ebp,DWORD PTR [esp]
  401191:	add    esp,0x4
  401194:	ret    
  401195:	add    BYTE PTR [eax],al
  401197:	add    BYTE PTR [ebx-0x1374aa01],cl
  40119d:	sub    esp,0x3c
  4011a0:	push   ecx
  4011a1:	push   eax
  4011a2:	push   esi
  4011a3:	call   0x401c78
  4011a8:	add    esp,0x8
  4011ab:	pop    ecx
  4011ac:	push   ecx
  4011ad:	push   0x0
  4011af:	push   0x403010
  4011b4:	pop    eax
  4011b5:	call   DWORD PTR cs:[eax]
  4011b8:	pop    ecx
  4011b9:	push   ecx
  4011ba:	mov    ebx,0x0
  4011bf:	push   ebx
  4011c0:	push   0x40304c
  4011c5:	pop    eax
  4011c6:	call   DWORD PTR cs:[eax]
  4011c9:	pop    ecx
  4011ca:	sub    esp,0xffffffc4
  4011cd:	mov    ebp,DWORD PTR [esp]
  4011d0:	add    esp,0x4
  4011d3:	ret    
  4011d4:	add    BYTE PTR [eax],al
  4011d6:	add    BYTE PTR [eax],al
  4011d8:	mov    edi,edi
  4011da:	push   ebp
  4011db:	mov    ebp,esp
  4011dd:	sub    esp,0x50
  4011e0:	push   ecx
  4011e1:	mov    eax,0x0
  4011e6:	push   eax
  4011e7:	push   0x403038
  4011ec:	pop    eax
  4011ed:	call   DWORD PTR cs:[eax]
  4011f0:	pop    ecx
  4011f1:	push   ecx
  4011f2:	push   DWORD PTR [ecx+0x3e8]
  4011f8:	push   ebx
  4011f9:	push   ebx
  4011fa:	push   ebx
  4011fb:	call   0x4010fc
  401200:	add    esp,0x10
  401203:	pop    ecx
  401204:	push   ecx
  401205:	push   0x403018
  40120a:	pop    eax
  40120b:	call   DWORD PTR cs:[eax]
  40120e:	pop    ecx
  40120f:	sub    esp,0xffffffb0
  401212:	mov    ebp,DWORD PTR [esp]
  401215:	add    esp,0x4
  401218:	ret    
  401219:	add    BYTE PTR [eax],al
  40121b:	add    BYTE PTR [eax],al
  40121d:	add    BYTE PTR [eax],al
  40121f:	add    BYTE PTR [ebx-0x1374aa01],cl
  401225:	sub    esp,0x20
  401228:	push   ecx
  401229:	push   0x0
  40122b:	push   0x403078
  401230:	pop    eax
  401231:	call   DWORD PTR cs:[eax]
  401234:	pop    ecx
  401235:	push   ecx
  401236:	push   DWORD PTR [ecx+0x1f4]
  40123c:	push   eax
  40123d:	push   DWORD PTR [ecx+0x4]
  401240:	push   eax
  401241:	call   0x4015f4
  401246:	add    esp,0x10
  401249:	pop    ecx
  40124a:	push   ecx
  40124b:	mov    edi,0x0
  401250:	push   edi
  401251:	push   0x40302c
  401256:	pop    eax
  401257:	call   DWORD PTR cs:[eax]
  40125a:	pop    ecx
  40125b:	sub    esp,0xffffffe0
  40125e:	mov    ebp,DWORD PTR [esp]
  401261:	add    esp,0x4
  401264:	ret    
  401265:	add    BYTE PTR [eax],al
  401267:	add    BYTE PTR [ebx-0x1374aa01],cl
  40126d:	sub    esp,0x48
  401270:	push   ecx
  401271:	mov    ebx,0x0
  401276:	push   ebx
  401277:	push   0x403038
  40127c:	pop    eax
  40127d:	call   DWORD PTR cs:[eax]
  401280:	pop    ecx
  401281:	push   ecx
  401282:	push   ebx
  401283:	push   DWORD PTR [ecx+0x33c]
  401289:	push   DWORD PTR [ecx+0x3b0]
  40128f:	call   0x4011d8
  401294:	add    esp,0xc
  401297:	pop    ecx
  401298:	push   ecx
  401299:	mov    eax,0x0
  40129e:	push   eax
  40129f:	push   0x403004
  4012a4:	pop    eax
  4012a5:	call   DWORD PTR cs:[eax]
  4012a8:	pop    ecx
  4012a9:	sub    esp,0xffffffb8
  4012ac:	mov    ebp,DWORD PTR [esp]
  4012af:	add    esp,0x4
  4012b2:	ret    
  4012b3:	add    BYTE PTR [ebx-0x1374aa01],cl
  4012b9:	sub    esp,0x58
  4012bc:	push   ecx
  4012bd:	mov    edx,0x0
  4012c2:	push   edx
  4012c3:	push   0x403004
  4012c8:	pop    eax
  4012c9:	call   DWORD PTR cs:[eax]
  4012cc:	pop    ecx
  4012cd:	push   ecx
  4012ce:	push   esi
  4012cf:	push   DWORD PTR [ecx+0x278]
  4012d5:	push   ebx
  4012d6:	push   edx
  4012d7:	call   0x401718
  4012dc:	add    esp,0x10
  4012df:	pop    ecx
  4012e0:	push   ecx
  4012e1:	mov    ebx,0x0
  4012e6:	push   ebx
  4012e7:	push   0x403078
  4012ec:	pop    eax
  4012ed:	call   DWORD PTR cs:[eax]
  4012f0:	pop    ecx
  4012f1:	sub    esp,0xffffffa8
  4012f4:	mov    ebp,DWORD PTR [esp]
  4012f7:	add    esp,0x4
  4012fa:	ret    
  4012fb:	add    BYTE PTR [ebx-0x1374aa01],cl
  401301:	sub    esp,0x58
  401304:	push   ecx
  401305:	mov    ecx,0x0
  40130a:	push   ecx
  40130b:	push   0x403014
  401310:	pop    eax
  401311:	call   DWORD PTR cs:[eax]
  401314:	pop    ecx
  401315:	push   ecx
  401316:	push   DWORD PTR [ecx+0x280]
  40131c:	push   DWORD PTR [ecx+0xdc]
  401322:	push   DWORD PTR [ecx+0x258]
  401328:	push   edx
  401329:	call   0x401148
  40132e:	add    esp,0x10
  401331:	pop    ecx
  401332:	push   ecx
  401333:	push   0x0
  401335:	push   0x403078
  40133a:	pop    eax
  40133b:	call   DWORD PTR cs:[eax]
  40133e:	pop    ecx
  40133f:	sub    esp,0xffffffa8
  401342:	mov    ebp,DWORD PTR [esp]
  401345:	add    esp,0x4
  401348:	ret    
  401349:	add    BYTE PTR [eax],al
  40134b:	add    BYTE PTR [eax],al
  40134d:	add    BYTE PTR [eax],al
  40134f:	add    BYTE PTR [ebx-0x1374aa01],cl
  401355:	sub    esp,0x3c
  401358:	push   ecx
  401359:	push   0x403040
  40135e:	pop    eax
  40135f:	call   DWORD PTR cs:[eax]
  401362:	pop    ecx
  401363:	push   ecx
  401364:	push   DWORD PTR [ecx+0xec]
  40136a:	push   eax
  40136b:	push   edx
  40136c:	push   edx
  40136d:	call   0x401c2c
  401372:	add    esp,0x10
  401375:	pop    ecx
  401376:	push   ecx
  401377:	push   0x403018
  40137c:	pop    eax
  40137d:	call   DWORD PTR cs:[eax]
  401380:	pop    ecx
  401381:	sub    esp,0xffffffc4
  401384:	mov    ebp,DWORD PTR [esp]
  401387:	add    esp,0x4
  40138a:	ret    
  40138b:	add    BYTE PTR [eax],al
  40138d:	add    BYTE PTR [eax],al
  40138f:	add    BYTE PTR [ebx-0x1374aa01],cl
  401395:	sub    esp,0x38
  401398:	push   ecx
  401399:	push   0x403018
  40139e:	pop    eax
  40139f:	call   DWORD PTR cs:[eax]
  4013a2:	pop    ecx
  4013a3:	push   ecx
  4013a4:	push   edx
  4013a5:	push   edx
  4013a6:	push   DWORD PTR [ecx+0x130]
  4013ac:	push   DWORD PTR [ecx+0xa8]
  4013b2:	call   0x401a24
  4013b7:	add    esp,0x10
  4013ba:	pop    ecx
  4013bb:	push   ecx
  4013bc:	push   0x0
  4013be:	push   0x403084
  4013c3:	pop    eax
  4013c4:	call   DWORD PTR cs:[eax]
  4013c7:	pop    ecx
  4013c8:	sub    esp,0xffffffc8
  4013cb:	mov    ebp,DWORD PTR [esp]
  4013ce:	add    esp,0x4
  4013d1:	ret    
  4013d2:	add    BYTE PTR [eax],al
  4013d4:	mov    edi,edi
  4013d6:	push   ebp
  4013d7:	mov    ebp,esp
  4013d9:	sub    esp,0x30
  4013dc:	push   ecx
  4013dd:	push   0x403040
  4013e2:	pop    eax
  4013e3:	call   DWORD PTR cs:[eax]
  4013e6:	pop    ecx
  4013e7:	push   ecx
  4013e8:	push   eax
  4013e9:	push   DWORD PTR [ecx+0x20c]
  4013ef:	call   0x4010b4
  4013f4:	add    esp,0x8
  4013f7:	pop    ecx
  4013f8:	push   ecx
  4013f9:	push   0x0
  4013fb:	push   0x403074
  401400:	pop    eax
  401401:	call   DWORD PTR cs:[eax]
  401404:	pop    ecx
  401405:	sub    esp,0xffffffd0
  401408:	mov    ebp,DWORD PTR [esp]
  40140b:	add    esp,0x4
  40140e:	ret    
  40140f:	add    BYTE PTR [eax],al
  401411:	add    BYTE PTR [eax],al
  401413:	add    BYTE PTR [ebx-0x1374aa01],cl
  401419:	sub    esp,0x58
  40141c:	push   ecx
  40141d:	mov    ebx,0x0
  401422:	push   ebx
  401423:	push   0x403074
  401428:	pop    eax
  401429:	call   DWORD PTR cs:[eax]
  40142c:	pop    ecx
  40142d:	push   ecx
  40142e:	push   DWORD PTR [ecx+0x1d0]
  401434:	push   DWORD PTR [ecx+0x88]
  40143a:	call   0x401874
  40143f:	add    esp,0x8
  401442:	pop    ecx
  401443:	push   ecx
  401444:	push   0x0
  401446:	push   0x403074
  40144b:	pop    eax
  40144c:	call   DWORD PTR cs:[eax]
  40144f:	pop    ecx
  401450:	sub    esp,0xffffffa8
  401453:	mov    ebp,DWORD PTR [esp]
  401456:	add    esp,0x4
  401459:	ret    
  40145a:	add    BYTE PTR [eax],al
  40145c:	add    BYTE PTR [eax],al
  40145e:	add    BYTE PTR [eax],al
  401460:	mov    edi,edi
  401462:	push   ebp
  401463:	mov    ebp,esp
  401465:	sub    esp,0x38
  401468:	push   ecx
  401469:	push   DWORD PTR [ecx+0xc0]
  40146f:	push   eax
  401470:	call   0x401e00
  401475:	add    esp,0x8
  401478:	pop    ecx
  401479:	push   ecx
  40147a:	mov    esi,0x0
  40147f:	push   esi
  401480:	push   0x403010
  401485:	pop    eax
  401486:	call   DWORD PTR cs:[eax]
  401489:	pop    ecx
  40148a:	push   ecx
  40148b:	push   0x0
  40148d:	push   0x40304c
  401492:	pop    eax
  401493:	call   DWORD PTR cs:[eax]
  401496:	pop    ecx
  401497:	sub    esp,0xffffffc8
  40149a:	mov    ebp,DWORD PTR [esp]
  40149d:	add    esp,0x4
  4014a0:	ret    
  4014a1:	add    BYTE PTR [eax],al
  4014a3:	add    BYTE PTR [ebx-0x1374aa01],cl
  4014a9:	sub    esp,0x44
  4014ac:	push   ecx
  4014ad:	push   DWORD PTR [ecx+0x248]
  4014b3:	push   DWORD PTR [ecx+0x2a8]
  4014b9:	push   DWORD PTR [ecx+0x3d4]
  4014bf:	call   0x4018c0
  4014c4:	add    esp,0xc
  4014c7:	pop    ecx
  4014c8:	push   ecx
  4014c9:	mov    eax,0x0
  4014ce:	push   eax
  4014cf:	push   0x403038
  4014d4:	pop    eax
  4014d5:	call   DWORD PTR cs:[eax]
  4014d8:	pop    ecx
  4014d9:	push   ecx
  4014da:	mov    ecx,0x0
  4014df:	push   ecx
  4014e0:	push   0x403010
  4014e5:	pop    eax
  4014e6:	call   DWORD PTR cs:[eax]
  4014e9:	pop    ecx
  4014ea:	sub    esp,0xffffffbc
  4014ed:	mov    ebp,DWORD PTR [esp]
  4014f0:	add    esp,0x4
  4014f3:	ret    
  4014f4:	mov    edi,edi
  4014f6:	push   ebp
  4014f7:	mov    ebp,esp
  4014f9:	sub    esp,0x28
  4014fc:	push   ecx
  4014fd:	push   DWORD PTR [ecx+0xdc]
  401503:	push   edi
  401504:	push   ebx
  401505:	call   0x4016cc
  40150a:	add    esp,0xc
  40150d:	pop    ecx
  40150e:	push   ecx
  40150f:	mov    edi,0x0
  401514:	push   edi
  401515:	push   0x403084
  40151a:	pop    eax
  40151b:	call   DWORD PTR cs:[eax]
  40151e:	pop    ecx
  40151f:	push   ecx
  401520:	push   0x0
  401522:	push   0x403044
  401527:	pop    eax
  401528:	call   DWORD PTR cs:[eax]
  40152b:	pop    ecx
  40152c:	sub    esp,0xffffffd8
  40152f:	mov    ebp,DWORD PTR [esp]
  401532:	add    esp,0x4
  401535:	ret    
  401536:	add    BYTE PTR [eax],al
  401538:	push   0x46b000
  40153d:	mov    edx,0x403094
  401542:	and    WORD PTR [edx],0x0
  401546:	push   DWORD PTR [edx]
  401548:	pop    eax
  401549:	mov    ecx,eax
  40154b:	stc    
  40154c:	adc    al,0x3b
  40154e:	add    ecx,DWORD PTR [eax]
  401550:	mov    eax,DWORD PTR [ecx+0x1c]
  401553:	ror    eax,0x8
  401556:	sub    al,0x0
  401558:	cmp    al,0x70
  40155a:	pop    ecx
  40155b:	jb     0x401566
  40155d:	nop
  40155e:	nop
  40155f:	nop
  401560:	nop
  401561:	jmp    0x401008
  401566:	cli    
  401567:	add    BYTE PTR [eax],al
  401569:	add    BYTE PTR [ecx],ch
  40156b:	arpl   WORD PTR [ebx-0x1374aa01],cx
  401571:	sub    esp,0x38
  401574:	push   ecx
  401575:	push   edx
  401576:	push   DWORD PTR [ecx+0x2c]
  401579:	push   ebx
  40157a:	push   edi
  40157b:	call   0x401e38
  401580:	add    esp,0x10
  401583:	pop    ecx
  401584:	push   ecx
  401585:	mov    ebx,0x0
  40158a:	push   ebx
  40158b:	push   0x403028
  401590:	pop    eax
  401591:	call   DWORD PTR cs:[eax]
  401594:	pop    ecx
  401595:	push   ecx
  401596:	mov    eax,0x0
  40159b:	push   eax
  40159c:	push   0x403020
  4015a1:	pop    eax
  4015a2:	call   DWORD PTR cs:[eax]
  4015a5:	pop    ecx
  4015a6:	sub    esp,0xffffffc8
  4015a9:	mov    ebp,DWORD PTR [esp]
  4015ac:	add    esp,0x4
  4015af:	ret    
  4015b0:	add    BYTE PTR [eax],al
  4015b2:	add    BYTE PTR [eax],al
  4015b4:	mov    edi,edi
  4015b6:	push   ebp
  4015b7:	mov    ebp,esp
  4015b9:	sub    esp,0x38
  4015bc:	push   ecx
  4015bd:	push   esi
  4015be:	push   ebx
  4015bf:	push   eax
  4015c0:	call   0x401220
  4015c5:	add    esp,0xc
  4015c8:	pop    ecx
  4015c9:	push   ecx
  4015ca:	mov    eax,0x0
  4015cf:	push   eax
  4015d0:	push   0x403084
  4015d5:	pop    eax
  4015d6:	call   DWORD PTR cs:[eax]
  4015d9:	pop    ecx
  4015da:	push   ecx
  4015db:	push   0x403018
  4015e0:	pop    eax
  4015e1:	call   DWORD PTR cs:[eax]
  4015e4:	pop    ecx
  4015e5:	sub    esp,0xffffffc8
  4015e8:	mov    ebp,DWORD PTR [esp]
  4015eb:	add    esp,0x4
  4015ee:	ret    
  4015ef:	add    BYTE PTR [eax],al
  4015f1:	add    BYTE PTR [eax],al
  4015f3:	add    BYTE PTR [ebx-0x1374aa01],cl
  4015f9:	sub    esp,0x60
  4015fc:	push   ecx
  4015fd:	push   eax
  4015fe:	push   ebx
  4015ff:	push   DWORD PTR [ecx+0x208]
  401605:	push   DWORD PTR [ecx+0x2e0]
  40160b:	call   0x401640
  401610:	add    esp,0x10
  401613:	pop    ecx
  401614:	push   ecx
  401615:	mov    esi,0x0
  40161a:	push   esi
  40161b:	push   0x40302c
  401620:	pop    eax
  401621:	call   DWORD PTR cs:[eax]
  401624:	pop    ecx
  401625:	push   ecx
  401626:	push   0x0
  401628:	push   0x403004
  40162d:	pop    eax
  40162e:	call   DWORD PTR cs:[eax]
  401631:	pop    ecx
  401632:	sub    esp,0xffffffa0
  401635:	mov    ebp,DWORD PTR [esp]
  401638:	add    esp,0x4
  40163b:	ret    
  40163c:	add    BYTE PTR [eax],al
  40163e:	add    BYTE PTR [eax],al
  401640:	mov    edi,edi
  401642:	push   ebp
  401643:	mov    ebp,esp
  401645:	sub    esp,0x44
  401648:	push   ecx
  401649:	push   DWORD PTR [ecx+0xb4]
  40164f:	push   eax
  401650:	push   DWORD PTR [ecx+0x2b4]
  401656:	call   0x40182c
  40165b:	add    esp,0xc
  40165e:	pop    ecx
  40165f:	push   ecx
  401660:	push   0x0
  401662:	push   0x403014
  401667:	pop    eax
  401668:	call   DWORD PTR cs:[eax]
  40166b:	pop    ecx
  40166c:	push   ecx
  40166d:	mov    eax,0x0
  401672:	push   eax
  401673:	push   0x40302c
  401678:	pop    eax
  401679:	call   DWORD PTR cs:[eax]
  40167c:	pop    ecx
  40167d:	sub    esp,0xffffffbc
  401680:	mov    ebp,DWORD PTR [esp]
  401683:	add    esp,0x4
  401686:	ret    
  401687:	add    BYTE PTR [ebx-0x1374aa01],cl
  40168d:	sub    esp,0x60
  401690:	push   ecx
  401691:	mov    eax,0x0
  401696:	push   eax
  401697:	push   0x403010
  40169c:	pop    eax
  40169d:	call   DWORD PTR cs:[eax]
  4016a0:	pop    ecx
  4016a1:	push   ecx
  4016a2:	push   DWORD PTR [ecx+0x200]
  4016a8:	push   ebx
  4016a9:	push   eax
  4016aa:	call   0x401b04
  4016af:	add    esp,0xc
  4016b2:	pop    ecx
  4016b3:	push   ecx
  4016b4:	push   0x403018
  4016b9:	pop    eax
  4016ba:	call   DWORD PTR cs:[eax]
  4016bd:	pop    ecx
  4016be:	sub    esp,0xffffffa0
  4016c1:	mov    ebp,DWORD PTR [esp]
  4016c4:	add    esp,0x4
  4016c7:	ret    
  4016c8:	add    BYTE PTR [eax],al
  4016ca:	add    BYTE PTR [eax],al
  4016cc:	mov    edi,edi
  4016ce:	push   ebp
  4016cf:	mov    ebp,esp
  4016d1:	sub    esp,0x4c
  4016d4:	push   ecx
  4016d5:	mov    edi,0x0
  4016da:	push   edi
  4016db:	push   0x403044
  4016e0:	pop    eax
  4016e1:	call   DWORD PTR cs:[eax]
  4016e4:	pop    ecx
  4016e5:	push   ecx
  4016e6:	push   ebx
  4016e7:	push   edx
  4016e8:	push   DWORD PTR [ecx+0x324]
  4016ee:	push   DWORD PTR [ecx+0xf0]
  4016f4:	call   0x401cc0
  4016f9:	add    esp,0x10
  4016fc:	pop    ecx
  4016fd:	push   ecx
  4016fe:	push   0x0
  401700:	push   0x403078
  401705:	pop    eax
  401706:	call   DWORD PTR cs:[eax]
  401709:	pop    ecx
  40170a:	sub    esp,0xffffffb4
  40170d:	mov    ebp,DWORD PTR [esp]
  401710:	add    esp,0x4
  401713:	ret    
  401714:	add    BYTE PTR [eax],al
  401716:	add    BYTE PTR [eax],al
  401718:	mov    edi,edi
  40171a:	push   ebp
  40171b:	mov    ebp,esp
  40171d:	sub    esp,0x58
  401720:	push   ecx
  401721:	push   0x0
  401723:	push   0x403004
  401728:	pop    eax
  401729:	call   DWORD PTR cs:[eax]
  40172c:	pop    ecx
  40172d:	push   ecx
  40172e:	push   edx
  40172f:	push   eax
  401730:	call   0x4012fc
  401735:	add    esp,0x8
  401738:	pop    ecx
  401739:	push   ecx
  40173a:	push   0x0
  40173c:	push   0x403028
  401741:	pop    eax
  401742:	call   DWORD PTR cs:[eax]
  401745:	pop    ecx
  401746:	sub    esp,0xffffffa8
  401749:	mov    ebp,DWORD PTR [esp]
  40174c:	add    esp,0x4
  40174f:	ret    
  401750:	mov    edi,edi
  401752:	push   ebp
  401753:	mov    ebp,esp
  401755:	sub    esp,0x38
  401758:	push   ecx
  401759:	mov    ecx,0x0
  40175e:	push   ecx
  40175f:	push   0x40304c
  401764:	pop    eax
  401765:	call   DWORD PTR cs:[eax]
  401768:	pop    ecx
  401769:	push   ecx
  40176a:	push   DWORD PTR [ecx+0x1e4]
  401770:	push   edx
  401771:	push   DWORD PTR [ecx+0xcc]
  401777:	push   edx
  401778:	call   0x401904
  40177d:	add    esp,0x10
  401780:	pop    ecx
  401781:	push   ecx
  401782:	mov    ecx,0x0
  401787:	push   ecx
  401788:	push   0x403078
  40178d:	pop    eax
  40178e:	call   DWORD PTR cs:[eax]
  401791:	pop    ecx
  401792:	sub    esp,0xffffffc8
  401795:	mov    ebp,DWORD PTR [esp]
  401798:	add    esp,0x4
  40179b:	ret    
  40179c:	mov    edi,edi
  40179e:	push   ebp
  40179f:	mov    ebp,esp
  4017a1:	sub    esp,0x40
  4017a4:	push   ecx
  4017a5:	push   DWORD PTR [ecx+0x3bc]
  4017ab:	push   DWORD PTR [ecx+0xc4]
  4017b1:	call   0x401db8
  4017b6:	add    esp,0x8
  4017b9:	pop    ecx
  4017ba:	push   ecx
  4017bb:	push   0x0
  4017bd:	push   0x403010
  4017c2:	pop    eax
  4017c3:	call   DWORD PTR cs:[eax]
  4017c6:	pop    ecx
  4017c7:	push   ecx
  4017c8:	push   0x0
  4017ca:	push   0x403084
  4017cf:	pop    eax
  4017d0:	call   DWORD PTR cs:[eax]
  4017d3:	pop    ecx
  4017d4:	sub    esp,0xffffffc0
  4017d7:	mov    ebp,DWORD PTR [esp]
  4017da:	add    esp,0x4
  4017dd:	ret    
  4017de:	add    BYTE PTR [eax],al
  4017e0:	add    BYTE PTR [eax],al
  4017e2:	add    BYTE PTR [eax],al
  4017e4:	mov    edi,edi
  4017e6:	push   ebp
  4017e7:	mov    ebp,esp
  4017e9:	sub    esp,0x3c
  4017ec:	push   ecx
  4017ed:	push   DWORD PTR [ecx+0xa8]
  4017f3:	push   esi
  4017f4:	push   DWORD PTR [ecx+0x3cc]
  4017fa:	push   DWORD PTR [ecx+0x104]
  401800:	call   0x401390
  401805:	add    esp,0x10
  401808:	pop    ecx
  401809:	push   ecx
  40180a:	push   0x403040
  40180f:	pop    eax
  401810:	call   DWORD PTR cs:[eax]
  401813:	pop    ecx
  401814:	push   ecx
  401815:	push   0x0
  401817:	push   0x403028
  40181c:	pop    eax
  40181d:	call   DWORD PTR cs:[eax]
  401820:	pop    ecx
  401821:	sub    esp,0xffffffc4
  401824:	mov    ebp,DWORD PTR [esp]
  401827:	add    esp,0x4
  40182a:	ret    
  40182b:	add    BYTE PTR [ebx-0x1374aa01],cl
  401831:	sub    esp,0x58
  401834:	push   ecx
  401835:	push   eax
  401836:	push   ebx
  401837:	push   DWORD PTR [ecx+0x100]
  40183d:	call   0x4013d4
  401842:	add    esp,0xc
  401845:	pop    ecx
  401846:	push   ecx
  401847:	mov    edi,0x0
  40184c:	push   edi
  40184d:	push   0x403014
  401852:	pop    eax
  401853:	call   DWORD PTR cs:[eax]
  401856:	pop    ecx
  401857:	push   ecx
  401858:	push   0x0
  40185a:	push   0x403004
  40185f:	pop    eax
  401860:	call   DWORD PTR cs:[eax]
  401863:	pop    ecx
  401864:	sub    esp,0xffffffa8
  401867:	mov    ebp,DWORD PTR [esp]
  40186a:	add    esp,0x4
  40186d:	ret    
  40186e:	add    BYTE PTR [eax],al
  401870:	add    BYTE PTR [eax],al
  401872:	add    BYTE PTR [eax],al
  401874:	mov    edi,edi
  401876:	push   ebp
  401877:	mov    ebp,esp
  401879:	sub    esp,0x34
  40187c:	push   ecx
  40187d:	push   eax
  40187e:	push   eax
  40187f:	push   eax
  401880:	call   0x4014f4
  401885:	add    esp,0xc
  401888:	pop    ecx
  401889:	push   ecx
  40188a:	lea    ecx,[ecx]
  40188c:	push   ecx
  40188d:	push   0x40303c
  401892:	pop    eax
  401893:	call   DWORD PTR cs:[eax]
  401896:	test   eax,eax
  401898:	jne    0x40188a
  40189a:	pop    ecx
  40189b:	push   ecx
  40189c:	mov    esi,0x0
  4018a1:	push   esi
  4018a2:	push   0x40302c
  4018a7:	pop    eax
  4018a8:	call   DWORD PTR cs:[eax]
  4018ab:	pop    ecx
  4018ac:	sub    esp,0xffffffcc
  4018af:	mov    ebp,DWORD PTR [esp]
  4018b2:	add    esp,0x4
  4018b5:	ret    
	...
  4018be:	add    BYTE PTR [eax],al
  4018c0:	mov    edi,edi
  4018c2:	push   ebp
  4018c3:	mov    ebp,esp
  4018c5:	sub    esp,0x2c
  4018c8:	push   ecx
  4018c9:	push   0x0
  4018cb:	push   0x403028
  4018d0:	pop    eax
  4018d1:	call   DWORD PTR cs:[eax]
  4018d4:	pop    ecx
  4018d5:	push   ecx
  4018d6:	push   DWORD PTR [ecx+0x274]
  4018dc:	push   ebx
  4018dd:	call   0x4019a4
  4018e2:	add    esp,0x8
  4018e5:	pop    ecx
  4018e6:	push   ecx
  4018e7:	mov    ebx,0x0
  4018ec:	push   ebx
  4018ed:	push   0x403010
  4018f2:	pop    eax
  4018f3:	call   DWORD PTR cs:[eax]
  4018f6:	pop    ecx
  4018f7:	sub    esp,0xffffffd4
  4018fa:	mov    ebp,DWORD PTR [esp]
  4018fd:	add    esp,0x4
  401900:	ret    
  401901:	add    BYTE PTR [eax],al
  401903:	add    BYTE PTR [ebx-0x1374aa01],cl
  401909:	sub    esp,0x30
  40190c:	push   ecx
  40190d:	push   ebx
  40190e:	push   esi
  40190f:	push   edx
  401910:	push   DWORD PTR [ecx+0x38c]
  401916:	call   0x401d68
  40191b:	add    esp,0x10
  40191e:	pop    ecx
  40191f:	push   ecx
  401920:	mov    ecx,0x0
  401925:	push   ecx
  401926:	push   0x403044
  40192b:	pop    eax
  40192c:	call   DWORD PTR cs:[eax]
  40192f:	pop    ecx
  401930:	push   ecx
  401931:	mov    edi,0x0
  401936:	push   edi
  401937:	push   0x40302c
  40193c:	pop    eax
  40193d:	call   DWORD PTR cs:[eax]
  401940:	pop    ecx
  401941:	sub    esp,0xffffffd0
  401944:	mov    ebp,DWORD PTR [esp]
  401947:	add    esp,0x4
  40194a:	ret    
  40194b:	add    BYTE PTR [ebx-0x1374aa01],cl
  401951:	sub    esp,0x3c
  401954:	push   ecx
  401955:	push   0x403040
  40195a:	pop    eax
  40195b:	call   DWORD PTR cs:[eax]
  40195e:	pop    ecx
  40195f:	push   ecx
  401960:	push   DWORD PTR [ecx+0x3c4]
  401966:	push   esi
  401967:	push   DWORD PTR [ecx+0x2c]
  40196a:	push   edx
  40196b:	call   0x401688
  401970:	add    esp,0x10
  401973:	pop    ecx
  401974:	push   ecx
  401975:	mov    esi,0x0
  40197a:	push   esi
  40197b:	push   0x403044
  401980:	pop    eax
  401981:	call   DWORD PTR cs:[eax]
  401984:	pop    ecx
  401985:	sub    esp,0xffffffc4
  401988:	mov    ebp,DWORD PTR [esp]
  40198b:	add    esp,0x4
  40198e:	ret    
	...
  4019a3:	add    BYTE PTR [ebx-0x1374aa01],cl
  4019a9:	sub    esp,0x3c
  4019ac:	push   ecx
  4019ad:	push   eax
  4019ae:	push   esi
  4019af:	call   0x401a68
  4019b4:	add    esp,0x8
  4019b7:	pop    ecx
  4019b8:	push   ecx
  4019b9:	push   0x0
  4019bb:	push   0x40304c
  4019c0:	pop    eax
  4019c1:	call   DWORD PTR cs:[eax]
  4019c4:	pop    ecx
  4019c5:	push   ecx
  4019c6:	push   0x0
  4019c8:	push   0x403038
  4019cd:	pop    eax
  4019ce:	call   DWORD PTR cs:[eax]
  4019d1:	pop    ecx
  4019d2:	sub    esp,0xffffffc4
  4019d5:	mov    ebp,DWORD PTR [esp]
  4019d8:	add    esp,0x4
  4019db:	ret    
  4019dc:	mov    edi,edi
  4019de:	push   ebp
  4019df:	mov    ebp,esp
  4019e1:	sub    esp,0x4c
  4019e4:	push   ecx
  4019e5:	mov    edx,0x0
  4019ea:	push   edx
  4019eb:	push   0x403028
  4019f0:	pop    eax
  4019f1:	call   DWORD PTR cs:[eax]
  4019f4:	pop    ecx
  4019f5:	push   ecx
  4019f6:	push   DWORD PTR [ecx+0x4c]
  4019f9:	push   edx
  4019fa:	call   0x401abc
  4019ff:	add    esp,0x8
  401a02:	pop    ecx
  401a03:	push   ecx
  401a04:	mov    edx,0x0
  401a09:	push   edx
  401a0a:	push   0x403038
  401a0f:	pop    eax
  401a10:	call   DWORD PTR cs:[eax]
  401a13:	pop    ecx
  401a14:	sub    esp,0xffffffb4
  401a17:	mov    ebp,DWORD PTR [esp]
  401a1a:	add    esp,0x4
  401a1d:	ret    
  401a1e:	add    BYTE PTR [eax],al
  401a20:	add    BYTE PTR [eax],al
  401a22:	add    BYTE PTR [eax],al
  401a24:	mov    edi,edi
  401a26:	push   ebp
  401a27:	mov    ebp,esp
  401a29:	sub    esp,0x50
  401a2c:	push   ecx
  401a2d:	push   0x0
  401a2f:	push   0x403044
  401a34:	pop    eax
  401a35:	call   DWORD PTR cs:[eax]
  401a38:	pop    ecx
  401a39:	push   ecx
  401a3a:	push   DWORD PTR [ecx+0x38c]
  401a40:	push   eax
  401a41:	push   edx
  401a42:	call   0x40194c
  401a47:	add    esp,0xc
  401a4a:	pop    ecx
  401a4b:	push   ecx
  401a4c:	mov    eax,0x0
  401a51:	push   eax
  401a52:	push   0x403074
  401a57:	pop    eax
  401a58:	call   DWORD PTR cs:[eax]
  401a5b:	pop    ecx
  401a5c:	sub    esp,0xffffffb0
  401a5f:	mov    ebp,DWORD PTR [esp]
  401a62:	add    esp,0x4
  401a65:	ret    
  401a66:	add    BYTE PTR [eax],al
  401a68:	mov    edi,edi
  401a6a:	push   ebp
  401a6b:	mov    ebp,esp
  401a6d:	sub    esp,0x20
  401a70:	push   ecx
  401a71:	mov    esi,0x0
  401a76:	push   esi
  401a77:	push   0x403020
  401a7c:	pop    eax
  401a7d:	call   DWORD PTR cs:[eax]
  401a80:	pop    ecx
  401a81:	push   ecx
  401a82:	push   esi
  401a83:	push   DWORD PTR [ecx+0x3d8]
  401a89:	push   edx
  401a8a:	call   0x401268
  401a8f:	add    esp,0xc
  401a92:	pop    ecx
  401a93:	push   ecx
  401a94:	lea    ebx,[ecx]
  401a96:	push   ebx
  401a97:	push   0x40303c
  401a9c:	pop    eax
  401a9d:	call   DWORD PTR cs:[eax]
  401aa0:	test   eax,eax
  401aa2:	jne    0x401a94
  401aa4:	pop    ecx
  401aa5:	sub    esp,0xffffffe0
  401aa8:	mov    ebp,DWORD PTR [esp]
  401aab:	add    esp,0x4
  401aae:	ret    
	...
  401abb:	add    BYTE PTR [ebx-0x1374aa01],cl
  401ac1:	sub    esp,0x44
  401ac4:	push   ecx
  401ac5:	push   0x0
  401ac7:	push   0x403014
  401acc:	pop    eax
  401acd:	call   DWORD PTR cs:[eax]
  401ad0:	pop    ecx
  401ad1:	push   ecx
  401ad2:	push   DWORD PTR [ecx+0x3b0]
  401ad8:	push   esi
  401ad9:	push   DWORD PTR [ecx+0x29c]
  401adf:	push   edi
  401ae0:	call   0x40179c
  401ae5:	add    esp,0x10
  401ae8:	pop    ecx
  401ae9:	push   ecx
  401aea:	mov    edi,0x0
  401aef:	push   edi
  401af0:	push   0x403014
  401af5:	pop    eax
  401af6:	call   DWORD PTR cs:[eax]
  401af9:	pop    ecx
  401afa:	sub    esp,0xffffffbc
  401afd:	mov    ebp,DWORD PTR [esp]
  401b00:	add    esp,0x4
  401b03:	ret    
  401b04:	mov    edi,edi
  401b06:	push   ebp
  401b07:	mov    ebp,esp
  401b09:	sub    esp,0x4c
  401b0c:	push   ecx
  401b0d:	push   DWORD PTR [ecx+0x118]
  401b13:	push   DWORD PTR [ecx+0x3f4]
  401b19:	push   ebx
  401b1a:	call   0x401be4
  401b1f:	add    esp,0xc
  401b22:	pop    ecx
  401b23:	push   ecx
  401b24:	mov    eax,0x0
  401b29:	push   eax
  401b2a:	push   0x403014
  401b2f:	pop    eax
  401b30:	call   DWORD PTR cs:[eax]
  401b33:	pop    ecx
  401b34:	push   ecx
  401b35:	mov    ebx,0x0
  401b3a:	push   ebx
  401b3b:	push   0x403038
  401b40:	pop    eax
  401b41:	call   DWORD PTR cs:[eax]
  401b44:	pop    ecx
  401b45:	sub    esp,0xffffffb4
  401b48:	mov    ebp,DWORD PTR [esp]
  401b4b:	add    esp,0x4
  401b4e:	ret    
  401b4f:	add    BYTE PTR [ebx-0x1374aa01],cl
  401b55:	sub    esp,0x54
  401b58:	push   ecx
  401b59:	push   DWORD PTR [ecx+0x324]
  401b5f:	push   eax
  401b60:	push   edi
  401b61:	call   0x4019dc
  401b66:	add    esp,0xc
  401b69:	pop    ecx
  401b6a:	push   ecx
  401b6b:	push   0x0
  401b6d:	push   0x403010
  401b72:	pop    eax
  401b73:	call   DWORD PTR cs:[eax]
  401b76:	pop    ecx
  401b77:	push   ecx
  401b78:	push   0x0
  401b7a:	push   0x403078
  401b7f:	pop    eax
  401b80:	call   DWORD PTR cs:[eax]
  401b83:	pop    ecx
  401b84:	sub    esp,0xffffffac
  401b87:	mov    ebp,DWORD PTR [esp]
  401b8a:	add    esp,0x4
  401b8d:	ret    
	...
  401b96:	add    BYTE PTR [eax],al
  401b98:	mov    edi,edi
  401b9a:	push   ebp
  401b9b:	mov    ebp,esp
  401b9d:	sub    esp,0x24
  401ba0:	push   ecx
  401ba1:	mov    ebx,0x0
  401ba6:	push   ebx
  401ba7:	push   0x40302c
  401bac:	pop    eax
  401bad:	call   DWORD PTR cs:[eax]
  401bb0:	pop    ecx
  401bb1:	push   ecx
  401bb2:	push   esi
  401bb3:	push   DWORD PTR [ecx+0x368]
  401bb9:	push   DWORD PTR [ecx+0xf4]
  401bbf:	call   0x401414
  401bc4:	add    esp,0xc
  401bc7:	pop    ecx
  401bc8:	push   ecx
  401bc9:	mov    esi,0x0
  401bce:	push   esi
  401bcf:	push   0x403084
  401bd4:	pop    eax
  401bd5:	call   DWORD PTR cs:[eax]
  401bd8:	pop    ecx
  401bd9:	sub    esp,0xffffffdc
  401bdc:	mov    ebp,DWORD PTR [esp]
  401bdf:	add    esp,0x4
  401be2:	ret    
  401be3:	add    BYTE PTR [ebx-0x1374aa01],cl
  401be9:	sub    esp,0x3c
  401bec:	push   ecx
  401bed:	push   eax
  401bee:	push   DWORD PTR [ecx+0xe8]
  401bf4:	push   eax
  401bf5:	call   0x401350
  401bfa:	add    esp,0xc
  401bfd:	pop    ecx
  401bfe:	push   ecx
  401bff:	push   0x403040
  401c04:	pop    eax
  401c05:	call   DWORD PTR cs:[eax]
  401c08:	pop    ecx
  401c09:	push   ecx
  401c0a:	mov    edi,0x0
  401c0f:	push   edi
  401c10:	push   0x403084
  401c15:	pop    eax
  401c16:	call   DWORD PTR cs:[eax]
  401c19:	pop    ecx
  401c1a:	sub    esp,0xffffffc4
  401c1d:	mov    ebp,DWORD PTR [esp]
  401c20:	add    esp,0x4
  401c23:	ret    
	...
  401c2c:	mov    edi,edi
  401c2e:	push   ebp
  401c2f:	mov    ebp,esp
  401c31:	sub    esp,0x1c
  401c34:	push   ecx
  401c35:	push   0x0
  401c37:	push   0x403078
  401c3c:	pop    eax
  401c3d:	call   DWORD PTR cs:[eax]
  401c40:	pop    ecx
  401c41:	push   ecx
  401c42:	push   DWORD PTR [ecx+0x210]
  401c48:	push   DWORD PTR [ecx+0x1e0]
  401c4e:	push   edx
  401c4f:	push   esi
  401c50:	call   0x401198
  401c55:	add    esp,0x10
  401c58:	pop    ecx
  401c59:	push   ecx
  401c5a:	mov    eax,0x0
  401c5f:	push   eax
  401c60:	push   0x403010
  401c65:	pop    eax
  401c66:	call   DWORD PTR cs:[eax]
  401c69:	pop    ecx
  401c6a:	sub    esp,0xffffffe4
  401c6d:	mov    ebp,DWORD PTR [esp]
  401c70:	add    esp,0x4
  401c73:	ret    
  401c74:	add    BYTE PTR [eax],al
  401c76:	add    BYTE PTR [eax],al
  401c78:	mov    edi,edi
  401c7a:	push   ebp
  401c7b:	mov    ebp,esp
  401c7d:	sub    esp,0x2c
  401c80:	push   ecx
  401c81:	push   DWORD PTR [ecx+0x50]
  401c84:	push   DWORD PTR [ecx+0x210]
  401c8a:	push   DWORD PTR [ecx+0xf0]
  401c90:	call   0x401b98
  401c95:	add    esp,0xc
  401c98:	pop    ecx
  401c99:	push   ecx
  401c9a:	push   0x0
  401c9c:	push   0x403010
  401ca1:	pop    eax
  401ca2:	call   DWORD PTR cs:[eax]
  401ca5:	pop    ecx
  401ca6:	push   ecx
  401ca7:	push   0x0
  401ca9:	push   0x40302c
  401cae:	pop    eax
  401caf:	call   DWORD PTR cs:[eax]
  401cb2:	pop    ecx
  401cb3:	sub    esp,0xffffffd4
  401cb6:	mov    ebp,DWORD PTR [esp]
  401cb9:	add    esp,0x4
  401cbc:	ret    
  401cbd:	add    BYTE PTR [eax],al
  401cbf:	add    BYTE PTR [ebx-0x1374aa01],cl
  401cc5:	sub    esp,0x58
  401cc8:	push   ecx
  401cc9:	push   0x40
  401ccb:	push   0x1000
  401cd0:	push   0x6bc
  401cd5:	push   0x0
  401cd7:	push   0x0
  401cd9:	xor    DWORD PTR [esp],0x717374d2
  401ce0:	pop    esi
  401ce1:	sub    esi,0x713344a2
  401ce7:	push   DWORD PTR [esi]
  401ce9:	sub    DWORD PTR [esp],0x2
  401ced:	push   0x403034
  401cf2:	pop    esi
  401cf3:	pop    DWORD PTR [esi]
  401cf5:	push   0x403034
  401cfa:	pop    eax
  401cfb:	call   DWORD PTR cs:[eax]
  401cfe:	xchg   DWORD PTR [esp],eax
  401d01:	mov    ecx,eax
  401d03:	pop    ebx
  401d04:	mov    DWORD PTR [ecx+0x32c],ebx
  401d0a:	mov    ebx,DWORD PTR [ecx+0x32c]
  401d10:	mov    esi,ebx
  401d12:	sub    ebx,ebx
  401d14:	dec    ebx
  401d15:	and    ebx,0x401e8e
  401d1b:	mov    edx,0xa67a2241
  401d20:	xor    edi,edi
  401d22:	cmp    edi,0x6bc
  401d28:	je     0x401d45
  401d2a:	sub    edi,0xfffffffc
  401d2d:	mov    eax,edx
  401d2f:	add    eax,DWORD PTR [ebx]
  401d31:	sub    eax,0x1
  401d34:	mov    DWORD PTR [esi],eax
  401d36:	push   DWORD PTR [ebx]
  401d38:	mov    edx,0xfffffffc
  401d3d:	sub    ebx,edx
  401d3f:	sub    esi,edx
  401d41:	pop    edx
  401d42:	inc    edx
  401d43:	jmp    0x401d22
  401d45:	push   ecx
  401d46:	mov    esi,0x0
  401d4b:	push   esi
  401d4c:	push   0x403014
  401d51:	pop    eax
  401d52:	call   DWORD PTR cs:[eax]
  401d55:	pop    ecx
  401d56:	sub    esp,0xffffffa8
  401d59:	pop    ebp
  401d5a:	ret    
	...
  401d67:	add    BYTE PTR [ebx-0x1374aa01],cl
  401d6d:	sub    esp,0x20
  401d70:	push   ecx
  401d71:	push   DWORD PTR [ecx+0x120]
  401d77:	push   DWORD PTR [ecx+0x3b0]
  401d7d:	push   DWORD PTR [ecx+0xd8]
  401d83:	call   0x40156c
  401d88:	add    esp,0xc
  401d8b:	pop    ecx
  401d8c:	push   ecx
  401d8d:	mov    esi,0x0
  401d92:	push   esi
  401d93:	push   0x403004
  401d98:	pop    eax
  401d99:	call   DWORD PTR cs:[eax]
  401d9c:	pop    ecx
  401d9d:	push   ecx
  401d9e:	push   0x403018
  401da3:	pop    eax
  401da4:	call   DWORD PTR cs:[eax]
  401da7:	pop    ecx
  401da8:	sub    esp,0xffffffe0
  401dab:	mov    ebp,DWORD PTR [esp]
  401dae:	add    esp,0x4
  401db1:	ret    
  401db2:	add    BYTE PTR [eax],al
  401db4:	add    BYTE PTR [eax],al
  401db6:	add    BYTE PTR [eax],al
  401db8:	mov    edi,edi
  401dba:	push   ebp
  401dbb:	mov    ebp,esp
  401dbd:	sub    esp,0x44
  401dc0:	push   ecx
  401dc1:	push   ebx
  401dc2:	push   DWORD PTR [ecx+0x360]
  401dc8:	push   esi
  401dc9:	call   0x401068
  401dce:	add    esp,0xc
  401dd1:	pop    ecx
  401dd2:	push   ecx
  401dd3:	push   0x0
  401dd5:	push   0x403044
  401dda:	pop    eax
  401ddb:	call   DWORD PTR cs:[eax]
  401dde:	pop    ecx
  401ddf:	push   ecx
  401de0:	push   0x0
  401de2:	push   0x403044
  401de7:	pop    eax
  401de8:	call   DWORD PTR cs:[eax]
  401deb:	pop    ecx
  401dec:	sub    esp,0xffffffbc
  401def:	mov    ebp,DWORD PTR [esp]
  401df2:	add    esp,0x4
  401df5:	ret    
	...
  401dfe:	add    BYTE PTR [eax],al
  401e00:	mov    edi,edi
  401e02:	push   ebp
  401e03:	mov    ebp,esp
  401e05:	sub    esp,0x58
  401e08:	push   ecx
  401e09:	push   edx
  401e0a:	push   edx
  401e0b:	call   0x4012b4
  401e10:	add    esp,0x8
  401e13:	pop    ecx
  401e14:	push   ecx
  401e15:	push   0x0
  401e17:	push   0x403038
  401e1c:	pop    eax
  401e1d:	call   DWORD PTR cs:[eax]
  401e20:	pop    ecx
  401e21:	push   ecx
  401e22:	push   0x403018
  401e27:	pop    eax
  401e28:	call   DWORD PTR cs:[eax]
  401e2b:	pop    ecx
  401e2c:	sub    esp,0xffffffa8
  401e2f:	mov    ebp,DWORD PTR [esp]
  401e32:	add    esp,0x4
  401e35:	ret    
  401e36:	add    BYTE PTR [eax],al
  401e38:	mov    edi,edi
  401e3a:	push   ebp
  401e3b:	mov    ebp,esp
  401e3d:	sub    esp,0x44
  401e40:	push   ecx
  401e41:	mov    edi,0x0
  401e46:	push   edi
  401e47:	push   0x403078
  401e4c:	pop    eax
  401e4d:	call   DWORD PTR cs:[eax]
  401e50:	pop    ecx
  401e51:	push   ecx
  401e52:	push   ebx
  401e53:	push   edx
  401e54:	push   DWORD PTR [ecx+0x26c]
  401e5a:	call   0x401b50
  401e5f:	add    esp,0xc
  401e62:	pop    ecx
  401e63:	push   ecx
  401e64:	push   0x0
  401e66:	push   0x403044
  401e6b:	pop    eax
  401e6c:	call   DWORD PTR cs:[eax]
  401e6f:	pop    ecx
  401e70:	sub    esp,0xffffffbc
  401e73:	mov    ebp,DWORD PTR [esp]
  401e76:	add    esp,0x4
  401e79:	ret    
  401e7a:	add    BYTE PTR [eax],al
  401e7c:	jmp    0x5b81:0x2161c6b2
  401e83:	fistp  QWORD PTR [ebx+esi*2-0x40]
  401e87:	or     BYTE PTR [edx+0x1dc24883],dh
  401e8d:	retf   
  401e8e:	adc    BYTE PTR [esi],dh
  401e90:	(bad)  
  401e91:	mov    cl,0xd8
  401e93:	shr    BYTE PTR [ecx],1
  401e95:	dec    esi
  401e96:	sub    BYTE PTR [eax],dh
  401e98:	dec    ebp
  401e99:	or     ebp,DWORD PTR [esi]
  401e9b:	pop    ebp
  401e9c:	clc    
  401e9d:	dec    ebp
  401e9e:	std    
  401e9f:	imul   ecx,DWORD PTR [ebx-0x2d16f98d],0x6e
  401ea6:	neg    DWORD PTR [edx+0x7ff185f1]
  401eac:	push   cs
  401ead:	jp     0x401ebe
  401eaf:	retf   
  401eb0:	icebp  
  401eb1:	jmp    0xbe0f:0x830ea6f1
  401eb8:	icebp  
  401eb9:	call   0x494e93af
  401ebe:	ud1    esi,ecx
  401ec1:	sbb    dh,cl
  401ec3:	mov    dl,0xe
  401ec5:	push   ecx
  401ec6:	cmovge esi,ecx
  401ec9:	push   es
  401eca:	inc    ecx
  401ecb:	mov    dl,0xe5
  401ecd:	test   BYTE PTR [edi-0x1548a2af],dl
  401ed3:	es repz dec eax
  401ed6:	xchg   esi,eax
  401ed7:	fisttp QWORD PTR [ebp*1-0x2718f56b]
  401ede:	imul   esi,ebp,0x75
  401ee1:	mov    dl,0x8a
  401ee3:	les    ebx,FWORD PTR [edx+0x123b764d]
  401ee9:	fwait
  401eea:	jl     0x401eb3
  401eec:	in     eax,dx
  401eed:	fs or  eax,0xe87e0e7f
  401ef3:	jmp    0x401f49
  401ef5:	jmp    0xc80f:0x85178059
  401efc:	dec    ebp
  401efd:	fsub   QWORD PTR [ecx-0x74]
  401f00:	add    eax,0x837bf423
  401f05:	jecxz  0x401f7d
  401f07:	test   ah,ah
  401f09:	(bad)  
  401f0a:	cld    
  401f0b:	loopne 0x401e8d
  401f0d:	add    eax,0x6ae0844c
  401f12:	or     bh,cl
  401f14:	push   ds
  401f15:	jmp    0x401f17
  401f17:	mov    edx,0xa831927
  401f1c:	icebp  
  401f1d:	push   eax
  401f1e:	mov    ebp,0x43bf0f5d
  401f23:	mov    ds:0x5dc3ed58,al
  401f28:	cmps   DWORD PTR ds:[esi],DWORD PTR es:[edi]
  401f29:	jl     0x401f68
  401f2b:	mov    eax,ds:0x574e93ae
  401f30:	push   edi
  401f31:	adc    dh,BYTE PTR [edx-0x24c25758]
  401f37:	or     al,0x20
  401f39:	mov    esp,0xf099f324
  401f3e:	loop   0x401f4c
  401f40:	data16 add al,dl
  401f43:	mov    dh,0x82
  401f45:	mov    BYTE PTR [ebx+0x49],al
  401f48:	jge    0x401f1e
  401f4a:	sbb    edi,DWORD PTR [esi]
  401f4c:	mov    bh,0x4f
  401f4e:	cmp    ebp,DWORD PTR [edx+0x55c5b542]
  401f54:	movs   DWORD PTR es:[edi],DWORD PTR ds:[esi]
  401f55:	add    BYTE PTR [eax-0x56],0x5a
  401f59:	or     BYTE PTR [eax+0x4861a5c0],bh
  401f5f:	rol    BYTE PTR ds:[edx],1
  401f62:	xadd   DWORD PTR [ebp-0x1d7383db],eax
  401f69:	inc    esp
  401f6a:	test   bh,al
  401f6c:	jne    0x401f28
  401f6e:	mov    al,0x5c
  401f70:	ficom  DWORD PTR [esi-0x40db055a]
  401f76:	xchg   BYTE PTR [ebp+0x32],bl
  401f79:	inc    eax
  401f7a:	iret   
  401f7b:	mov    edx,0x4534e9b5
  401f80:	dec    edx
  401f81:	mov    eax,ds:0x6342f712
  401f86:	hlt    
  401f87:	outs   dx,BYTE PTR ds:[esi]
  401f88:	mov    ah,0xdd
  401f8a:	and    dl,BYTE PTR [ecx-0x580b6895]
  401f90:	in     al,dx
  401f91:	pushf  
  401f92:	sub    BYTE PTR [ecx-0x62],0xbb
  401f96:	mov    ah,0x0
  401f98:	data16 lods al,BYTE PTR ds:[esi]
  401f9a:	dec    esp
  401f9b:	das    
  401f9c:	call   0x4cff:0xb641b353
  401fa3:	adc    al,0x5a
  401fa5:	mov    esi,DWORD PTR [ecx]
  401fa7:	pop    eax
  401fa8:	test   al,0x39
  401fab:	lods   al,BYTE PTR ds:[esi]
  401fac:	pusha  
  401fad:	mov    al,dh
  401faf:	test   eax,0x58a4c9ab
  401fb4:	stos   DWORD PTR es:[edi],eax
  401fb5:	mov    DWORD PTR [edx+0x49022432],esi
  401fbb:	rol    DWORD PTR [eax-0x746b49a4],0xfb
  401fc2:	aad    0x39
  401fc4:	js     0x402013
  401fc6:	addr16 push ebx
  401fc8:	add    ebx,ecx
  401fca:	and    al,0x4
  401fcc:	pop    ds
  401fcd:	inc    esp
  401fce:	xchg   ebx,eax
  401fcf:	cmp    eax,0xd265bef5
  401fd4:	ror    DWORD PTR [edx-0x4336725f],0x73
  401fdb:	div    esi
  401fdd:	mov    bh,0xce
  401fdf:	xchg   ebx,eax
  401fe0:	push   eax
  401fe1:	push   eax
  401fe2:	mov    bh,0x2c
  401fe4:	and    al,0xea
  401fe6:	xor    DWORD PTR [ebp-0x20],esp
  401fe9:	adc    eax,0x75e825cf
  401fee:	js     0x401fee
  401ff0:	(bad)  
  401ff1:	dec    DWORD PTR [edx-0x12fcffff]
  401ff7:	adc    bh,bh
  401ff9:	je     0x40201e
  401ffb:	js     0x401f7d
  401ffd:	xchg   edi,eax
  401ffe:	loopne 0x401f82
  402000:	fstp   TBYTE PTR [eax-0x6888ae55]
  402006:	cmps   BYTE PTR ds:[esi],BYTE PTR es:[edi]
  402007:	add    eax,0xfec4bada
  40200c:	jbe    0x401faa
  40200e:	cmp    edx,DWORD PTR [edi-0x6b]
  402011:	mov    esp,0x36c268f8
  402016:	mov    dl,0xf6
  402018:	enter  0x4194,0xae
  40201c:	ss ror ebx,0xa9
  402020:	sub    al,dl
  402022:	cld    
  402023:	jle    0x401fdc
  402025:	out    dx,eax
  402026:	in     al,dx
  402027:	mov    WORD PTR [ecx+0x10],cs
  40202a:	adc    al,0x5b
  40202c:	cmp    al,dh
  40202e:	in     al,dx
  40202f:	movs   BYTE PTR es:[edi],BYTE PTR ds:[esi]
  402030:	pop    ds
  402031:	js     0x402047
  402033:	fwait
  402034:	loopne 0x401fbd
  402036:	jmp    0x402012
  402038:	xchg   esi,ecx
  40203a:	mov    al,ds:0x48220420
  40203f:	jmp    0x57ff:0x79b8ddff
  402046:	js     0x401fce
  402048:	add    BYTE PTR [eax+0x644004e0],ch
  40204e:	stos   DWORD PTR es:[edi],eax
  40204f:	cmp    ecx,esp
  402051:	aam    0xad
  402053:	fsub   QWORD PTR [edi+0x4323de2f]
  402059:	enter  0xe8ad,0xe0
  40205d:	cmp    bl,BYTE PTR [ebx+edx*2-0x5073c956]
  402064:	dec    esp
  402065:	push   ebx
  402066:	in     al,dx
  402067:	push   0xfd301d3c
  40206c:	mov    edx,0x6502e624
  402071:	push   eax
  402072:	es popa 
  402074:	cmp    al,0xc8
  402076:	ficomp DWORD PTR [esi-0x6e993d3d]
  40207c:	lds    esi,FWORD PTR [ebp+0x5e906da2]
  402082:	inc    esi
  402083:	or     DWORD PTR [edx-0x5f],esi
  402086:	mov    edx,0xcfb75753
  40208b:	and    ch,cl
  40208d:	fs xchg edx,eax
  40208f:	das    
  402090:	sbb    ebx,edx
  402092:	jb     0x402064
  402094:	in     al,0x7d
  402096:	push   gs
  402098:	jae    0x40201c
  40209a:	repz push edi
  40209c:	mov    edx,?
  40209e:	sbb    al,0x33
  4020a0:	js     0x4020d3
  4020a2:	stos   DWORD PTR es:[edi],eax
  4020a3:	shr    DWORD PTR [ebx+0x542e55ce],1
  4020a9:	xor    BYTE PTR [edi],bl
  4020ab:	imul   BYTE PTR [edi+0x13ca141f]
  4020b1:	inc    ecx
  4020b2:	ja     0x4020dd
  4020b4:	lock xor al,0xc5
  4020b7:	popa   
  4020b8:	(bad)  
  4020b9:	dec    ebx
  4020ba:	cmp    ebx,DWORD PTR [esi-0x2944c6c7]
  4020c0:	cmp    edx,ecx
  4020c2:	cmp    BYTE PTR [ebp+0x4a4d4244],dh
  4020c8:	xor    BYTE PTR [eax],ch
  4020ca:	mov    dh,0xb0
  4020cc:	daa    
  4020cd:	xlat   BYTE PTR ds:[ebx]
  4020ce:	lahf   
  4020cf:	push   ebx
  4020d0:	pop    ebp
  4020d1:	jmp    0x1639d1ac
  4020d6:	jg     0x402127
  4020d8:	push   esi
  4020d9:	inc    eax
  4020da:	or     al,0x27
  4020dc:	mov    edx,0x4464e7c2
  4020e1:	jmp    0x402081
  4020e3:	pop    ebx
  4020e4:	xor    DWORD PTR [eax],edx
  4020e6:	lea    ebx,[ebx-0x4a2e41a6]
  4020ec:	cmc    
  4020ed:	xchg   ebp,eax
  4020ee:	cdq    
  4020ef:	dec    esi
  4020f0:	pop    ebx
  4020f1:	shl    DWORD PTR [esi+0x7],0xb1
  4020f5:	xchg   esp,eax
  4020f6:	and    eax,0x6b2bd3ff
  4020fb:	xchg   ecx,eax
  4020fc:	mov    bh,0x1a
  4020fe:	movs   DWORD PTR es:[edi],DWORD PTR ds:[esi]
  4020ff:	sti    
  402100:	jl     0x4020ea
  402102:	mov    dl,0xb1
  402104:	or     al,bl
  402106:	ret    0xa069
  402109:	sub    BYTE PTR [esi],bh
  40210b:	xchg   esi,eax
  40210c:	fisttp WORD PTR [esi+eax*8-0xa]
  402110:	fs mov dh,0x3c
  402113:	cs call 0xb1b5:0xb651c349
  40211b:	rcr    BYTE PTR [ebp+0x49],cl
  40211e:	movs   BYTE PTR es:[edi],BYTE PTR ds:[esi]
  40211f:	xor    eax,0x2a3ca24d
  402124:	adc    DWORD PTR [esi-0x64c0d5e3],esi
  40212a:	cmp    dl,ch
  40212c:	push   ss
  40212d:	jno    0x40214d
  40212f:	scas   al,BYTE PTR es:[edi]
  402130:	scas   eax,DWORD PTR es:[edi]
  402131:	mov    ds:0x1fb1e1cd,eax
  402136:	xchg   ebx,eax
  402137:	test   eax,0x5a5f6c21
  40213c:	push   esp
  40213d:	ror    ah,1
  40213f:	sti    
  402140:	fbstp  TBYTE PTR [esi+eax*1-0x51f5bec]
  402147:	jmp    0x4021a4
  402149:	stos   BYTE PTR es:[edi],al
  40214a:	xchg   esp,eax
  40214b:	mov    eax,0xd26c55a4
  402150:	adc    DWORD PTR [ebx-0x6c],ecx
  402153:	sub    eax,0xe26239ee
  402158:	xchg   ebp,eax
  402159:	inc    edi
  40215a:	sahf   
  40215b:	sbb    eax,0x9055bb6a
  402160:	and    DWORD PTR ds:0x4e2f6aae,edi
  402166:	push   ss
  402167:	out    0x21,al
  402169:	add    al,0x3a
  40216b:	test   dl,ah
  40216d:	arpl   si,ax
  40216f:	mov    ebx,DWORD PTR ds:0xcaf7919c
  402175:	push   0xff3972bf
  40217a:	inc    ecx
  40217b:	popf   
  40217c:	mov    BYTE PTR [eax],0x16
  40217f:	in     al,0x3d
  402181:	and    ebp,edx
  402183:	sub    eax,edx
  402185:	fcom   QWORD PTR ds:0x40224a2a
  40218b:	loop   0x40219c
  40218d:	aaa    
  40218e:	ins    DWORD PTR es:[edi],dx
  40218f:	dec    ecx
  402190:	mov    eax,0x197f1e1a
  402195:	iret   
  402196:	gs push 0xffffffeb
  402199:	arpl   WORD PTR [ebx-0x4],bx
  40219c:	rol    DWORD PTR [edx],0x4e
  40219f:	add    al,0x6e
  4021a1:	jno    0x40215d
  4021a3:	and    BYTE PTR [ecx+0x6fdf469e],dl
  4021a9:	jne    0x40216c
  4021ab:	add    bh,BYTE PTR [edi-0x1c]
  4021ae:	int3   
  4021af:	inc    ecx
  4021b0:	movs   DWORD PTR es:[edi],DWORD PTR ds:[esi]
  4021b1:	pop    ds
  4021b2:	test   DWORD PTR [eax],edx
  4021b4:	stos   DWORD PTR es:[edi],eax
  4021b5:	fild   QWORD PTR [ebx+0x55305557]
  4021bb:	test   al,0x1
  4021bd:	push   ebx
  4021be:	xchg   ebx,eax
  4021bf:	pop    esp
  4021c0:	dec    esi
  4021c1:	lods   al,BYTE PTR ds:[esi]
  4021c2:	popf   
  4021c3:	or     esi,DWORD PTR [edx-0x5b0b9c9d]
  4021c9:	sbb    eax,0xf25b2fa1
  4021ce:	pop    edi
  4021cf:	shl    BYTE PTR [ebx-0x4dd1529d],1
  4021d5:	test   al,0xad
  4021d7:	sub    ah,BYTE PTR [esi-0x30612751]
  4021dd:	ror    DWORD PTR [ecx+0x7e199124],1
  4021e3:	mov    BYTE PTR [ecx-0x1c],dl
  4021e6:	shrd   DWORD PTR [ecx-0x25c38322],esi,0x14
  4021ee:	cmp    eax,0xc3eb25d4
  4021f3:	adc    eax,esi
  4021f5:	adc    al,0x3c
  4021f7:	in     al,dx
  4021f8:	repz or al,ah
  4021fb:	adc    ecx,DWORD PTR [ebx*8+0x22f3ec1d]
  402202:	cmp    ebp,ecx
  402204:	adc    ebx,ebp
  402206:	(bad)  
  402207:	xor    dl,ah
  402209:	stc    
  40220a:	cmp    ch,cl
  40220c:	sub    edx,DWORD PTR [edx-0x6df74168]
  402212:	and    DWORD PTR [ebx-0x9],ecx
  402215:	ins    DWORD PTR es:[edi],dx
  402216:	fistp  WORD PTR [eax+edx*8-0x449cdf6f]
  40221d:	ins    BYTE PTR es:[edi],dx
  40221e:	imul   esp,DWORD PTR [edi+0x2d],0x52
  402222:	xchg   esp,eax
  402223:	cwde   
  402224:	shl    cl,cl
  402226:	sub    al,0xb8
  402228:	out    dx,al
  402229:	out    0xdb,al
  40222b:	or     BYTE PTR [esi],dl
  40222d:	cmp    eax,0xe6edf832
  402232:	jp     0x4021c0
  402234:	ror    BYTE PTR [esi+0x68b8cc77],cl
  40223a:	(bad)  
  40223b:	clc    
  40223c:	mov    ebx,0x217c869a
  402241:	icebp  
  402242:	scas   al,BYTE PTR es:[edi]
  402243:	cmps   DWORD PTR ds:[esi],DWORD PTR es:[edi]
  402244:	xchg   edi,eax
  402245:	sbb    DWORD PTR [edx+0x58],edx
  402248:	push   0x97a743ce
  40224d:	xor    esp,ecx
  40224f:	pcmpeqw mm4,QWORD PTR [edx+edx*4]
  402253:	inc    ecx
  402254:	inc    esp
  402255:	in     al,0x6e
  402257:	mov    esi,0x411703bb
  40225c:	inc    esp
  40225d:	cld    
  40225e:	inc    edx
  40225f:	cmps   DWORD PTR ds:[esi],DWORD PTR es:[edi]
  402260:	cmp    eax,DWORD PTR [ebx]
  402262:	mov    ebp,0x67714e58
  402267:	ret    
  402268:	adc    dl,BYTE PTR [edx-0x16]
  40226b:	std    
  40226c:	aad    0xcb
  40226e:	iret   
  40226f:	and    ch,BYTE PTR [edx]
  402271:	xor    al,0x31
  402273:	and    eax,0xdd88fc4a
  402278:	mov    ch,0x3
  40227a:	js     0x4022e6
  40227c:	mov    esi,0x41b64124
  402281:	fstp   TBYTE PTR [edi-0x5bacd6f]
  402287:	jb     0x402256
  402289:	mov    edx,0x5da6d506
  40228e:	mov    bl,0x6b
  402290:	pop    ecx
  402291:	mov    ds:0x6e1adc4d,al
  402296:	ins    BYTE PTR es:[edi],dx
  402297:	sub    ch,ah
  402299:	xchg   ecx,eax
  40229a:	xchg   esp,eax
  40229b:	pop    ds
  40229c:	(bad)  
  40229d:	jbe    0x4022c4
  40229f:	and    DWORD PTR [ecx-0x77],esi
  4022a2:	(bad)  [esi]
  4022a4:	add    esi,DWORD PTR [edi-0x50]
  4022a7:	call   0x23fe:0xf0b04c56
  4022ae:	rol    DWORD PTR [ecx],1
  4022b0:	xchg   ebx,eax
  4022b1:	(bad)  
  4022b2:	je     0x40232a
  4022b4:	clc    
  4022b5:	xchg   ah,dh
  4022b7:	adc    al,0x6
  4022b9:	std    
  4022ba:	mov    DWORD PTR [ebx-0x6],eax
  4022bd:	jbe    0x402339
  4022bf:	mov    ebp,0x8811e17a
  4022c4:	in     eax,0xa3
  4022c6:	scas   eax,DWORD PTR es:[edi]
  4022c7:	in     al,dx
  4022c8:	das    
  4022c9:	in     eax,0x97
  4022cb:	dec    edi
  4022cc:	and    dl,ch
  4022ce:	ins    DWORD PTR es:[edi],dx
  4022cf:	mov    al,0xdd
  4022d1:	sub    bh,BYTE PTR [ebx-0xb]
  4022d4:	and    edx,ebp
  4022d6:	test   DWORD PTR [edi+ebx*8+0x1a],esp
  4022da:	jle    0x40226f
  4022dc:	dec    esp
  4022dd:	lods   eax,DWORD PTR ds:[esi]
  4022de:	mov    ebp,0x50c80be1
  4022e3:	and    DWORD PTR [ecx-0x6c],ebp
  4022e6:	mov    bl,0x5b
  4022e8:	repz xchg esi,eax
  4022ea:	call   0x1b0a:0xda329200
  4022f1:	push   ds
  4022f2:	push   ecx
  4022f3:	mov    bh,0x3f
  4022f5:	lea    esi,[edx]
  4022f7:	xor    al,ah
  4022f9:	push   esp
  4022fa:	mov    cl,0x2f
  4022fc:	dec    DWORD PTR [ebx]
  4022fe:	ror    BYTE PTR [ebp+0x4d],cl
  402301:	hlt    
  402302:	mov    ds:0x5e1b9ac4,al
  402307:	cmp    esp,DWORD PTR [ebp+0x6f]
  40230a:	pop    ds
  40230b:	sbb    DWORD PTR [eax],esp
  40230d:	nop
  40230e:	push   ebp
  40230f:	in     eax,dx
  402310:	mov    bl,BYTE PTR [eax+0x4e]
  402313:	adc    esi,DWORD PTR [ebp-0x59]
  402316:	adc    esi,DWORD PTR [eax-0x73bda815]
  40231c:	lahf   
  40231d:	or     BYTE PTR [ecx-0x17],0xac
  402321:	or     bh,ah
  402323:	mov    ds:0x5c996c45,ax
  402329:	(bad)  
  40232a:	xchg   esp,eax
  40232b:	mov    ecx,0x9fac8fa2
  402330:	lods   eax,DWORD PTR ds:[esi]
  402331:	sti    
  402332:	dec    esp
  402333:	push   esp
  402334:	imul   esp
  402336:	in     al,dx
  402337:	stos   DWORD PTR es:[edi],eax
  402338:	or     BYTE PTR [ebx],dl
  40233a:	pop    esp
  40233b:	fnstsw WORD PTR [ebx]
  40233d:	adc    esp,eax
  40233f:	lods   eax,DWORD PTR ds:[esi]
  402340:	mov    esp,0x480f487c
  402345:	cmp    DWORD PTR [eax+0x601e1bf0],0xf
  40234c:	in     al,0xe1
  40234e:	sub    esp,DWORD PTR [ecx+0x48]
  402351:	outs   dx,DWORD PTR ds:[esi]
  402352:	cmp    eax,0xc39cb79f
  402357:	mov    bl,0x47
  402359:	mov    ecx,0xfec4d97d
  40235e:	adc    ch,BYTE PTR [eax]
  402360:	mov    ecx,DWORD PTR [ebp+edi*4-0x1798929d]
  402367:	add    BYTE PTR [ecx+esi*4],dh
  40236a:	sbb    bh,bh
  40236c:	retf   
  40236d:	(bad)  [eax]
  40236f:	sub    eax,0x5438e595
  402374:	push   edi
  402375:	cmp    ecx,edx
  402377:	stos   DWORD PTR es:[edi],eax
  402378:	test   al,0x2c
  40237a:	pop    edx
  40237b:	push   esi
  40237c:	push   edi
  40237d:	rcr    ecx,cl
  40237f:	lahf   
  402380:	adc    ebp,DWORD PTR ds:0x28eb6891
  402386:	mov    esp,DWORD PTR [edx]
  402388:	in     eax,dx
  402389:	sub    ecx,eax
  40238b:	fsubr  QWORD PTR [eax+0x8]
  40238e:	ret    
  40238f:	addr16 mov ebx,0x80d84013
  402395:	ja     0x4023d7
  402397:	call   0x9d00ac1b
  40239c:	inc    eax
  40239d:	in     al,dx
  40239e:	inc    ecx
  40239f:	test   eax,0xacbe6713
  4023a4:	and    al,0x1e
  4023a6:	add    cl,cl
  4023a8:	shl    BYTE PTR ds:0x4b578cfd,0xc7
  4023af:	xchg   edi,eax
  4023b0:	stos   BYTE PTR es:[edi],al
  4023b1:	mov    ah,0x39
  4023b3:	icebp  
  4023b4:	leave  
  4023b5:	outs   dx,DWORD PTR ds:[esi]
  4023b6:	jecxz  0x402427
  4023b8:	stc    
  4023b9:	lock test esp,edi
  4023bc:	jb     0x4023cd
  4023be:	jnp    0x40242b
  4023c0:	jmp    DWORD PTR [ebx+esi*4-0x8]
  4023c4:	push   0xfa7dc008
  4023c9:	dec    ebx
  4023ca:	aas    
  4023cb:	fmul   DWORD PTR [ecx]
  4023cd:	cmp    DWORD PTR [ecx+0x7e1afe9d],eax
  4023d3:	mov    eax,0xbc426a01
  4023d8:	dec    ebx
  4023d9:	add    BYTE PTR [esi-0x4991e255],bh
  4023df:	mov    edx,0xb5c1f84a
  4023e4:	daa    
  4023e5:	pop    esp
  4023e6:	(bad)
  4023ea:	hlt    
  4023eb:	jp     0x4023cb
  4023ed:	fdivp  st(4),st
  4023ef:	aad    0x75
  4023f1:	mov    eax,DWORD PTR [esp+edx*4-0x6f]
  4023f5:	retf   0xc1bb
  4023f8:	jp     0x402387
  4023fa:	xchg   ebp,eax
  4023fb:	xchg   edx,eax
  4023fc:	aad    0xdc
  4023fe:	jb     0x4023c3
  402400:	adc    cl,BYTE PTR [edx-0x72]
  402403:	cmp    al,0xed
  402405:	inc    eax
  402406:	scas   al,BYTE PTR es:[edi]
  402407:	out    0x93,eax
  402409:	xchg   BYTE PTR [eax+ebx*1+0x6c],ah
  40240d:	jns    0x402415
  40240f:	out    dx,eax
  402410:	in     al,dx
  402411:	jns    0x4023b1
  402413:	pop    eax
  402414:	sahf   
  402415:	dec    esp
  402416:	or     eax,0xa3ace035
  40241b:	xor    ecx,edx
  40241d:	stos   DWORD PTR es:[edi],eax
  40241e:	or     BYTE PTR [ebp-0x7],bh
  402421:	(bad)  
  402422:	neg    eax
  402424:	adc    bl,BYTE PTR [ecx-0x74]
  402427:	jmp    0x402422
  402429:	pop    es
  40242a:	aaa    
  40242b:	ins    DWORD PTR es:[edi],dx
  40242c:	add    eax,0x9a7b1ec9
  402431:	aaa    
  402432:	loop   0x4023b8
  402434:	ret    0x6355
  402437:	jmp    0x4023f9
  402439:	push   0xffffffa1
  40243b:	popf   
  40243c:	cmp    DWORD PTR [ecx+0x467cbf6f],0xffffff91
  402443:	inc    eax
  402444:	cmp    DWORD PTR [ecx+0x467d276f],0xffffff91
  40244b:	fadd   DWORD PTR [ebp+0x20]
  40244e:	mov    ds:0xab9a211d,al
  402453:	cmp    al,0x45
  402455:	adc    edi,DWORD PTR [ebx+0x4d618af6]
  40245b:	mov    ah,BYTE PTR [ebx-0x5f]
  40245e:	ret    
  40245f:	jne    0x4023fd
  402461:	dec    ecx
  402462:	sub    bl,BYTE PTR [eax]
  402464:	ret    0x5ab4
  402467:	out    0xb3,eax
  402469:	cmp    al,0x31
  40246b:	pop    DWORD PTR [esi-0x413e76d7]
  402471:	arpl   WORD PTR [ebx-0x44b658a4],bp
  402477:	(bad)  
  402478:	sub    BYTE PTR [eiz*1-0x5bf8d713],ch
  40247f:	push   esp
  402480:	add    bh,BYTE PTR [ebx+0x4771afd4]
  402486:	pop    ss
  402487:	dec    eax
  402488:	ret    0xec78
  40248b:	jns    0x4024ad
  40248d:	test   BYTE PTR [ebp+0x49],ch
  402490:	imul   edi,ecx,0xfffffffb
  402493:	and    BYTE PTR [ecx+0x66ef056e],bl
  402499:	xchg   ecx,eax
  40249a:	push   edx
  40249b:	jnp    0x402436
  40249d:	ins    DWORD PTR es:[edi],dx
  40249e:	add    edx,DWORD PTR [ebp+0x577e82f1]
  4024a4:	adc    edi,DWORD PTR [esi-0x7e]
  4024a7:	test   al,0x77
  4024a9:	jle    0x402491
  4024ab:	pop    ebx
  4024ac:	mov    DWORD PTR [ecx+0x7dc9fb1a],eax
  4024b2:	cmp    esp,DWORD PTR ds:0x5b2d82a0
  4024b8:	pusha  
  4024b9:	jge    0x40248e
  4024bb:	push   cs
  4024bc:	mov    ds:0x5e5b2dec,eax
  4024c1:	jnp    0x402496
  4024c3:	movs   BYTE PTR es:[edi],BYTE PTR ds:[esi]
  4024c4:	mov    eax,ds:0xb45a8404
  4024c9:	pop    ds
  4024ca:	std    
  4024cb:	imul   edx,DWORD PTR [eax-0x1f],0xaf729603
  4024d2:	(bad)  
  4024d3:	ret    0x218c
  4024d6:	outs   dx,BYTE PTR ds:[esi]
  4024d7:	adc    dl,BYTE PTR [esi]
  4024d9:	inc    eax
  4024da:	sbb    al,0x2a
  4024dc:	out    dx,al
  4024dd:	or     al,0x31
  4024df:	mov    es,ecx
  4024e1:	mov    edi,0xc6d7adac
  4024e6:	je     0x4024c6
  4024e8:	jo     0x402485
  4024ea:	ins    DWORD PTR es:[edi],dx
  4024eb:	xchg   esp,eax
  4024ec:	push   0x76287380
  4024f1:	in     al,dx
  4024f2:	sub    BYTE PTR [esi-0x626717da],al
  4024f8:	and    dh,BYTE PTR [eax+eax*2-0x419c7530]
  4024ff:	stc    
  402500:	pop    ds
  402501:	and    cl,BYTE PTR [eax-0x7ff8858e]
  402507:	adc    BYTE PTR [ecx-0x7a29c661],dl
  40250d:	popa   
  40250e:	pop    es
  40250f:	inc    esi
  402510:	jnp    0x40253b
  402512:	mov    ah,0x2
  402514:	addr16 sahf 
  402516:	fnstcw WORD PTR [ebp+esi*8+0x49d62987]
  40251d:	das    
  40251e:	xlat   BYTE PTR ds:[ebx]
  40251f:	sub    DWORD PTR [esi+0x49d629d0],esi
  402525:	das    
  402526:	xlat   BYTE PTR ds:[ebx]
  402527:	sub    DWORD PTR [esi+0x49d629d0],esi
  40252d:	das    
  40252e:	xlat   BYTE PTR ds:[ebx]
  40252f:	sub    DWORD PTR [esi+0x49d629d0],esi
  402535:	das    
  402536:	xlat   BYTE PTR ds:[ebx]
  402537:	sub    DWORD PTR [esi+0x4a8595d0],esi
  40253d:	das    
  40253e:	imul   ebx,DWORD PTR [edx+0x6995d0ba],0x45
  402545:	das    
  402546:	cmp    ebx,DWORD PTR [edi-0x6]
  402549:	scas   al,BYTE PTR es:[edi]
  40254a:	jl     0x4024e2
  40254c:	(bad)  
  40254d:	stc    
  40254e:	rol    DWORD PTR [esi*2-0x5495c8f3],cl
  402555:	loopne 0x402594
  402557:	stc    
  402558:	jle    0x402512
  40255a:	xor    edi,DWORD PTR [ebx]
  40255c:	xor    ah,0x40
  40255f:	dec    edi
  402560:	add    bl,dh
  402562:	inc    ebx
  402563:	lock dec ebp
  402565:	test   eax,0xc86ce6e3
  40256a:	mov    bl,0x34
  40256c:	call   0xe2ea:0x2ce0ce18
  402573:	xchg   esp,ebp
  402575:	jbe    0x40256f
  402577:	.byte 0x86
