
e7b590501fbca3ff3229093effc2ead85df5aaac33bfa9c85dc40756c6b590bf.exe:     file format pei-i386


Disassembly of section .text:

00401000 <.text>:
  401000:	mov    edi,edi
  401002:	push   ebp
  401003:	mov    ebp,esp
  401005:	sub    esp,0x54
  401008:	push   edx
  401009:	mov    eax,0x0
  40100e:	push   eax
  40100f:	push   0x403034
  401014:	pop    eax
  401015:	call   DWORD PTR cs:[eax]
  401018:	pop    edx
  401019:	push   edx
  40101a:	push   DWORD PTR [edx+0xbc]
  401020:	push   DWORD PTR [edx+0x2fc]
  401026:	push   DWORD PTR [edx+0x418]
  40102c:	push   eax
  40102d:	call   0x401818
  401032:	add    esp,0x10
  401035:	pop    edx
  401036:	push   edx
  401037:	mov    esi,0x0
  40103c:	push   esi
  40103d:	push   0x403030
  401042:	pop    eax
  401043:	call   DWORD PTR cs:[eax]
  401046:	pop    edx
  401047:	sub    esp,0xffffffac
  40104a:	mov    ebp,DWORD PTR [esp]
  40104d:	add    esp,0x4
  401050:	ret    
  401051:	add    BYTE PTR [eax],al
  401053:	add    BYTE PTR [ebx-0x1374aa01],cl
  401059:	sub    esp,0x28
  40105c:	push   edx
  40105d:	push   0x0
  40105f:	push   0x40304c
  401064:	pop    eax
  401065:	call   DWORD PTR cs:[eax]
  401068:	pop    edx
  401069:	push   edx
  40106a:	push   esi
  40106b:	push   ebx
  40106c:	call   0x401d60
  401071:	add    esp,0x8
  401074:	pop    edx
  401075:	push   edx
  401076:	push   0x0
  401078:	push   0x403048
  40107d:	pop    eax
  40107e:	call   DWORD PTR cs:[eax]
  401081:	pop    edx
  401082:	sub    esp,0xffffffd8
  401085:	mov    ebp,DWORD PTR [esp]
  401088:	add    esp,0x4
  40108b:	ret    
  40108c:	add    BYTE PTR [eax],al
  40108e:	add    BYTE PTR [eax],al
  401090:	mov    edi,edi
  401092:	push   ebp
  401093:	mov    ebp,esp
  401095:	sub    esp,0x34
  401098:	push   edx
  401099:	push   0x0
  40109b:	push   0x403038
  4010a0:	pop    eax
  4010a1:	call   DWORD PTR cs:[eax]
  4010a4:	pop    edx
  4010a5:	push   edx
  4010a6:	push   DWORD PTR [edx+0x3dc]
  4010ac:	push   edi
  4010ad:	push   DWORD PTR [edx+0x134]
  4010b3:	push   DWORD PTR [edx+0x598]
  4010b9:	call   0x4017e0
  4010be:	add    esp,0x10
  4010c1:	pop    edx
  4010c2:	push   edx
  4010c3:	push   0x0
  4010c5:	push   0x403004
  4010ca:	pop    eax
  4010cb:	call   DWORD PTR cs:[eax]
  4010ce:	pop    edx
  4010cf:	sub    esp,0xffffffcc
  4010d2:	mov    ebp,DWORD PTR [esp]
  4010d5:	add    esp,0x4
  4010d8:	ret    
  4010d9:	add    BYTE PTR [eax],al
  4010db:	add    BYTE PTR [ebx-0x74aa9f01],cl
  4010e1:	in     al,dx
  4010e2:	sub    esp,0x28
  4010e5:	push   edx
  4010e6:	push   0x0
  4010e8:	push   0x403020
  4010ed:	pop    eax
  4010ee:	call   DWORD PTR cs:[eax]
  4010f1:	pop    edx
  4010f2:	test   eax,eax
  4010f4:	je     0x4010f7
  4010f6:	ret    
  4010f7:	push   edx
  4010f8:	push   0x403010
  4010fd:	pop    eax
  4010fe:	call   DWORD PTR cs:[eax]
  401101:	pop    edx
  401102:	push   edx
  401103:	push   esi
  401104:	push   esi
  401105:	push   ecx
  401106:	call   0x401948
  40110b:	add    esp,0xc
  40110e:	pop    edx
  40110f:	mov    esi,0x403014
  401114:	mov    esi,DWORD PTR [esi]
  401116:	push   esi
  401117:	push   DWORD PTR [edx+0x448]
  40111d:	pop    esi
  40111e:	call   esi
  401120:	sub    esp,0xffffffd8
  401123:	mov    ebp,DWORD PTR [esp]
  401126:	add    esp,0x4
  401129:	ret    
  40112a:	add    BYTE PTR [eax],al
  40112c:	add    BYTE PTR [eax],al
  40112e:	add    BYTE PTR [eax],al
  401130:	jb     0x4010dc
	...
  40113e:	add    BYTE PTR [eax],al
  401140:	mov    edi,edi
  401142:	push   ebp
  401143:	mov    ebp,esp
  401145:	sub    esp,0x50
  401148:	push   edx
  401149:	mov    ecx,0x0
  40114e:	push   ecx
  40114f:	push   0x403034
  401154:	pop    eax
  401155:	call   DWORD PTR cs:[eax]
  401158:	pop    edx
  401159:	push   edx
  40115a:	push   edi
  40115b:	push   DWORD PTR [edx+0x4d8]
  401161:	push   DWORD PTR [edx+0x3a4]
  401167:	call   0x401da0
  40116c:	add    esp,0xc
  40116f:	pop    edx
  401170:	push   edx
  401171:	mov    esi,0x0
  401176:	push   esi
  401177:	push   0x403080
  40117c:	pop    eax
  40117d:	call   DWORD PTR cs:[eax]
  401180:	pop    edx
  401181:	sub    esp,0xffffffb0
  401184:	mov    ebp,DWORD PTR [esp]
  401187:	add    esp,0x4
  40118a:	ret    
  40118b:	add    BYTE PTR [ebx-0x1374aa01],cl
  401191:	sub    esp,0x60
  401194:	push   edx
  401195:	mov    ebx,0x0
  40119a:	push   ebx
  40119b:	push   0x403004
  4011a0:	pop    eax
  4011a1:	call   DWORD PTR cs:[eax]
  4011a4:	pop    edx
  4011a5:	push   edx
  4011a6:	push   ebx
  4011a7:	push   DWORD PTR [edx+0x388]
  4011ad:	push   DWORD PTR [edx+0x34]
  4011b0:	call   0x401de4
  4011b5:	add    esp,0xc
  4011b8:	pop    edx
  4011b9:	push   edx
  4011ba:	push   0x0
  4011bc:	push   0x403080
  4011c1:	pop    eax
  4011c2:	call   DWORD PTR cs:[eax]
  4011c5:	pop    edx
  4011c6:	sub    esp,0xffffffa0
  4011c9:	mov    ebp,DWORD PTR [esp]
  4011cc:	add    esp,0x4
  4011cf:	ret    
  4011d0:	mov    edi,edi
  4011d2:	push   ebp
  4011d3:	mov    ebp,esp
  4011d5:	sub    esp,0x5c
  4011d8:	push   edx
  4011d9:	mov    esi,0x0
  4011de:	push   esi
  4011df:	push   0x403020
  4011e4:	pop    eax
  4011e5:	call   DWORD PTR cs:[eax]
  4011e8:	pop    edx
  4011e9:	push   edx
  4011ea:	push   eax
  4011eb:	push   DWORD PTR [edx+0xb0]
  4011f1:	call   0x401a6c
  4011f6:	add    esp,0x8
  4011f9:	pop    edx
  4011fa:	push   edx
  4011fb:	mov    ecx,0x0
  401200:	push   ecx
  401201:	push   0x403068
  401206:	pop    eax
  401207:	call   DWORD PTR cs:[eax]
  40120a:	pop    edx
  40120b:	sub    esp,0xffffffa4
  40120e:	mov    ebp,DWORD PTR [esp]
  401211:	add    esp,0x4
  401214:	ret    
  401215:	add    BYTE PTR [eax],al
  401217:	add    BYTE PTR [eax],al
  401219:	add    BYTE PTR [eax],al
  40121b:	add    BYTE PTR [ebx-0x1374aa01],cl
  401221:	sub    esp,0x60
  401224:	push   edx
  401225:	mov    ecx,0x0
  40122a:	push   ecx
  40122b:	push   0x403004
  401230:	pop    eax
  401231:	call   DWORD PTR cs:[eax]
  401234:	pop    edx
  401235:	push   edx
  401236:	push   DWORD PTR [edx+0x3b8]
  40123c:	push   DWORD PTR [edx+0x54c]
  401242:	call   0x4015d0
  401247:	add    esp,0x8
  40124a:	pop    edx
  40124b:	push   edx
  40124c:	mov    edx,0x0
  401251:	push   edx
  401252:	push   0x403068
  401257:	pop    eax
  401258:	call   DWORD PTR cs:[eax]
  40125b:	pop    edx
  40125c:	sub    esp,0xffffffa0
  40125f:	mov    ebp,DWORD PTR [esp]
  401262:	add    esp,0x4
  401265:	ret    
	...
  40126e:	add    BYTE PTR [eax],al
  401270:	mov    edi,edi
  401272:	push   ebp
  401273:	mov    ebp,esp
  401275:	sub    esp,0x24
  401278:	push   edx
  401279:	push   0x403010
  40127e:	pop    eax
  40127f:	call   DWORD PTR cs:[eax]
  401282:	pop    edx
  401283:	push   edx
  401284:	push   DWORD PTR [edx+0x118]
  40128a:	push   DWORD PTR [edx+0x288]
  401290:	call   0x401350
  401295:	add    esp,0x8
  401298:	pop    edx
  401299:	push   edx
  40129a:	push   0x0
  40129c:	push   0x40300c
  4012a1:	pop    eax
  4012a2:	call   DWORD PTR cs:[eax]
  4012a5:	pop    edx
  4012a6:	sub    esp,0xffffffdc
  4012a9:	mov    ebp,DWORD PTR [esp]
  4012ac:	add    esp,0x4
  4012af:	ret    
  4012b0:	add    BYTE PTR [eax],al
  4012b2:	add    BYTE PTR [eax],al
  4012b4:	mov    edi,edi
  4012b6:	push   ebp
  4012b7:	mov    ebp,esp
  4012b9:	sub    esp,0x30
  4012bc:	push   edx
  4012bd:	push   ecx
  4012be:	push   DWORD PTR [edx+0x240]
  4012c4:	push   DWORD PTR [edx+0x490]
  4012ca:	call   0x401990
  4012cf:	add    esp,0xc
  4012d2:	pop    edx
  4012d3:	push   edx
  4012d4:	push   0x0
  4012d6:	push   0x40300c
  4012db:	pop    eax
  4012dc:	call   DWORD PTR cs:[eax]
  4012df:	pop    edx
  4012e0:	push   edx
  4012e1:	mov    esi,0x0
  4012e6:	push   esi
  4012e7:	push   0x403038
  4012ec:	pop    eax
  4012ed:	call   DWORD PTR cs:[eax]
  4012f0:	pop    edx
  4012f1:	sub    esp,0xffffffd0
  4012f4:	mov    ebp,DWORD PTR [esp]
  4012f7:	add    esp,0x4
  4012fa:	ret    
  4012fb:	add    BYTE PTR [ebx-0x1374aa01],cl
  401301:	sub    esp,0x40
  401304:	push   edx
  401305:	push   0x0
  401307:	push   0x403020
  40130c:	pop    eax
  40130d:	call   DWORD PTR cs:[eax]
  401310:	pop    edx
  401311:	push   edx
  401312:	push   DWORD PTR [edx+0x328]
  401318:	push   esi
  401319:	push   DWORD PTR [edx+0x250]
  40131f:	push   DWORD PTR [edx+0x2b8]
  401325:	call   0x40118c
  40132a:	add    esp,0x10
  40132d:	pop    edx
  40132e:	push   edx
  40132f:	push   0x0
  401331:	push   0x403020
  401336:	pop    eax
  401337:	call   DWORD PTR cs:[eax]
  40133a:	pop    edx
  40133b:	sub    esp,0xffffffc0
  40133e:	mov    ebp,DWORD PTR [esp]
  401341:	add    esp,0x4
  401344:	ret    
	...
  40134d:	add    BYTE PTR [eax],al
  40134f:	add    BYTE PTR [ebx-0x1374aa01],cl
  401355:	sub    esp,0x38
  401358:	push   edx
  401359:	push   0x0
  40135b:	push   0x403030
  401360:	pop    eax
  401361:	call   DWORD PTR cs:[eax]
  401364:	pop    edx
  401365:	push   edx
  401366:	push   DWORD PTR [edx+0x388]
  40136c:	push   ecx
  40136d:	call   0x401670
  401372:	add    esp,0x8
  401375:	pop    edx
  401376:	push   edx
  401377:	push   0x0
  401379:	push   0x40304c
  40137e:	pop    eax
  40137f:	call   DWORD PTR cs:[eax]
  401382:	pop    edx
  401383:	sub    esp,0xffffffc8
  401386:	mov    ebp,DWORD PTR [esp]
  401389:	add    esp,0x4
  40138c:	ret    
  40138d:	add    BYTE PTR [eax],al
  40138f:	add    BYTE PTR [eax],al
  401391:	add    BYTE PTR [eax],al
  401393:	add    BYTE PTR [ebx-0x1374aa01],cl
  401399:	sub    esp,0x20
  40139c:	push   edx
  40139d:	push   edi
  40139e:	push   DWORD PTR [edx+0x4ac]
  4013a4:	call   0x401aa8
  4013a9:	add    esp,0x8
  4013ac:	pop    edx
  4013ad:	push   edx
  4013ae:	push   0x0
  4013b0:	push   0x40304c
  4013b5:	pop    eax
  4013b6:	call   DWORD PTR cs:[eax]
  4013b9:	pop    edx
  4013ba:	push   edx
  4013bb:	push   0x0
  4013bd:	push   0x403044
  4013c2:	pop    eax
  4013c3:	call   DWORD PTR cs:[eax]
  4013c6:	pop    edx
  4013c7:	sub    esp,0xffffffe0
  4013ca:	mov    ebp,DWORD PTR [esp]
  4013cd:	add    esp,0x4
  4013d0:	ret    
  4013d1:	add    BYTE PTR [eax],al
  4013d3:	add    BYTE PTR [ebx-0x1374aa01],cl
  4013d9:	sub    esp,0x4c
  4013dc:	push   edx
  4013dd:	push   0x0
  4013df:	push   0x403048
  4013e4:	pop    eax
  4013e5:	call   DWORD PTR cs:[eax]
  4013e8:	pop    edx
  4013e9:	push   edx
  4013ea:	push   ecx
  4013eb:	push   ebx
  4013ec:	push   DWORD PTR [edx+0x3e4]
  4013f2:	push   DWORD PTR [edx+0x70]
  4013f5:	call   0x401aec
  4013fa:	add    esp,0x10
  4013fd:	pop    edx
  4013fe:	push   edx
  4013ff:	push   0x0
  401401:	push   0x403020
  401406:	pop    eax
  401407:	call   DWORD PTR cs:[eax]
  40140a:	pop    edx
  40140b:	sub    esp,0xffffffb4
  40140e:	mov    ebp,DWORD PTR [esp]
  401411:	add    esp,0x4
  401414:	ret    
  401415:	add    BYTE PTR [eax],al
  401417:	add    BYTE PTR [ebx-0x1374aa01],cl
  40141d:	sub    esp,0x30
  401420:	push   edx
  401421:	push   0x0
  401423:	push   0x403044
  401428:	pop    eax
  401429:	call   DWORD PTR cs:[eax]
  40142c:	pop    edx
  40142d:	push   edx
  40142e:	push   esi
  40142f:	push   DWORD PTR [edx+0x2a4]
  401435:	push   edi
  401436:	call   0x401c88
  40143b:	add    esp,0xc
  40143e:	pop    edx
  40143f:	push   edx
  401440:	push   0x0
  401442:	push   0x403030
  401447:	pop    eax
  401448:	call   DWORD PTR cs:[eax]
  40144b:	pop    edx
  40144c:	sub    esp,0xffffffd0
  40144f:	mov    ebp,DWORD PTR [esp]
  401452:	add    esp,0x4
  401455:	ret    
  401456:	add    BYTE PTR [eax],al
  401458:	add    BYTE PTR [eax],al
  40145a:	add    BYTE PTR [eax],al
  40145c:	mov    edi,edi
  40145e:	push   ebp
  40145f:	mov    ebp,esp
  401461:	sub    esp,0x50
  401464:	push   edx
  401465:	mov    edx,0x0
  40146a:	push   edx
  40146b:	push   0x403068
  401470:	pop    eax
  401471:	call   DWORD PTR cs:[eax]
  401474:	pop    edx
  401475:	push   edx
  401476:	push   DWORD PTR [edx+0x580]
  40147c:	push   ebx
  40147d:	push   DWORD PTR [edx+0xc4]
  401483:	call   0x4018b0
  401488:	add    esp,0xc
  40148b:	pop    edx
  40148c:	push   edx
  40148d:	push   0x0
  40148f:	push   0x403038
  401494:	pop    eax
  401495:	call   DWORD PTR cs:[eax]
  401498:	pop    edx
  401499:	sub    esp,0xffffffb0
  40149c:	mov    ebp,DWORD PTR [esp]
  40149f:	add    esp,0x4
  4014a2:	ret    
  4014a3:	add    BYTE PTR [ebx-0x1374aa01],cl
  4014a9:	sub    esp,0x2c
  4014ac:	push   edx
  4014ad:	push   DWORD PTR [edx+0x3dc]
  4014b3:	push   edi
  4014b4:	push   eax
  4014b5:	call   0x4013d4
  4014ba:	add    esp,0xc
  4014bd:	pop    edx
  4014be:	push   edx
  4014bf:	push   0x0
  4014c1:	push   0x403020
  4014c6:	pop    eax
  4014c7:	call   DWORD PTR cs:[eax]
  4014ca:	pop    edx
  4014cb:	push   edx
  4014cc:	mov    edi,0x0
  4014d1:	push   edi
  4014d2:	push   0x403004
  4014d7:	pop    eax
  4014d8:	call   DWORD PTR cs:[eax]
  4014db:	pop    edx
  4014dc:	sub    esp,0xffffffd4
  4014df:	mov    ebp,DWORD PTR [esp]
  4014e2:	add    esp,0x4
  4014e5:	ret    
  4014e6:	add    BYTE PTR [eax],al
  4014e8:	push   0x0
  4014ea:	add    DWORD PTR [esp],0x47f000
  4014f1:	xor    ecx,ecx
  4014f3:	or     ecx,0x403090
  4014f9:	and    WORD PTR [ecx],0x0
  4014fd:	push   DWORD PTR [ecx]
  4014ff:	pop    eax
  401500:	mov    edx,eax
  401502:	push   0x3c
  401504:	add    DWORD PTR [esp],eax
  401507:	pop    ecx
  401508:	push   eax
  401509:	mov    edi,esp
  40150b:	mov    esi,ecx
  40150d:	movs   DWORD PTR es:[edi],DWORD PTR ds:[esi]
  40150e:	pop    eax
  40150f:	mov    edx,DWORD PTR [eax+edx*1+0x1c]
  401513:	ror    edx,0x8
  401516:	xor    eax,eax
  401518:	or     al,0x80
  40151a:	cmp    al,dl
  40151c:	pop    edx
  40151d:	ja     0x401528
  40151f:	nop
  401520:	nop
  401521:	nop
  401522:	nop
  401523:	jmp    0x401130
  401528:	xor    esp,esp
  40152a:	int3   
  40152b:	int3   
	...
  401534:	mov    edi,edi
  401536:	push   ebp
  401537:	mov    ebp,esp
  401539:	sub    esp,0x5c
  40153c:	push   edx
  40153d:	mov    eax,0x0
  401542:	push   eax
  401543:	push   0x403034
  401548:	pop    eax
  401549:	call   DWORD PTR cs:[eax]
  40154c:	pop    edx
  40154d:	push   edx
  40154e:	push   DWORD PTR [edx+0x5b8]
  401554:	push   DWORD PTR [edx+0x340]
  40155a:	push   DWORD PTR [edx+0x4dc]
  401560:	push   ebx
  401561:	call   0x401700
  401566:	add    esp,0x10
  401569:	pop    edx
  40156a:	push   edx
  40156b:	lea    edi,[edx]
  40156d:	push   edi
  40156e:	push   0x403014
  401573:	pop    eax
  401574:	call   DWORD PTR cs:[eax]
  401577:	test   eax,eax
  401579:	jne    0x40156b
  40157b:	pop    edx
  40157c:	sub    esp,0xffffffa4
  40157f:	mov    ebp,DWORD PTR [esp]
  401582:	add    esp,0x4
  401585:	ret    
	...
  40158e:	add    BYTE PTR [eax],al
  401590:	mov    edi,edi
  401592:	push   ebp
  401593:	mov    ebp,esp
  401595:	sub    esp,0x5c
  401598:	push   edx
  401599:	push   0x403008
  40159e:	pop    eax
  40159f:	call   DWORD PTR cs:[eax]
  4015a2:	pop    edx
  4015a3:	push   edx
  4015a4:	push   ebx
  4015a5:	push   DWORD PTR [edx+0x208]
  4015ab:	call   0x401000
  4015b0:	add    esp,0x8
  4015b3:	pop    edx
  4015b4:	push   edx
  4015b5:	push   0x403008
  4015ba:	pop    eax
  4015bb:	call   DWORD PTR cs:[eax]
  4015be:	pop    edx
  4015bf:	sub    esp,0xffffffa4
  4015c2:	mov    ebp,DWORD PTR [esp]
  4015c5:	add    esp,0x4
  4015c8:	ret    
  4015c9:	add    BYTE PTR [eax],al
  4015cb:	add    BYTE PTR [eax],al
  4015cd:	add    BYTE PTR [eax],al
  4015cf:	add    BYTE PTR [ebx-0x1374aa01],cl
  4015d5:	sub    esp,0x24
  4015d8:	push   edx
  4015d9:	mov    edi,0x0
  4015de:	push   edi
  4015df:	push   0x403004
  4015e4:	pop    eax
  4015e5:	call   DWORD PTR cs:[eax]
  4015e8:	pop    edx
  4015e9:	push   edx
  4015ea:	push   DWORD PTR [edx+0x23c]
  4015f0:	push   edi
  4015f1:	push   DWORD PTR [edx+0x17c]
  4015f7:	push   DWORD PTR [edx+0x5c4]
  4015fd:	call   0x401c00
  401602:	add    esp,0x10
  401605:	pop    edx
  401606:	push   edx
  401607:	push   0x0
  401609:	push   0x403030
  40160e:	pop    eax
  40160f:	call   DWORD PTR cs:[eax]
  401612:	pop    edx
  401613:	sub    esp,0xffffffdc
  401616:	mov    ebp,DWORD PTR [esp]
  401619:	add    esp,0x4
  40161c:	ret    
  40161d:	add    BYTE PTR [eax],al
  40161f:	add    BYTE PTR [eax],al
  401621:	add    BYTE PTR [eax],al
  401623:	add    BYTE PTR [ebx-0x1374aa01],cl
  401629:	sub    esp,0x34
  40162c:	push   edx
  40162d:	push   DWORD PTR [edx+0x328]
  401633:	push   DWORD PTR [edx+0x5ac]
  401639:	push   esi
  40163a:	push   eax
  40163b:	call   0x401b84
  401640:	add    esp,0x10
  401643:	pop    edx
  401644:	push   edx
  401645:	push   0x403010
  40164a:	pop    eax
  40164b:	call   DWORD PTR cs:[eax]
  40164e:	pop    edx
  40164f:	push   edx
  401650:	push   0x0
  401652:	push   0x403048
  401657:	pop    eax
  401658:	call   DWORD PTR cs:[eax]
  40165b:	pop    edx
  40165c:	sub    esp,0xffffffcc
  40165f:	mov    ebp,DWORD PTR [esp]
  401662:	add    esp,0x4
  401665:	ret    
	...
  40166e:	add    BYTE PTR [eax],al
  401670:	mov    edi,edi
  401672:	push   ebp
  401673:	mov    ebp,esp
  401675:	sub    esp,0x60
  401678:	push   edx
  401679:	push   DWORD PTR [edx+0x488]
  40167f:	push   DWORD PTR [edx+0xd8]
  401685:	push   edi
  401686:	call   0x401900
  40168b:	add    esp,0xc
  40168e:	pop    edx
  40168f:	push   edx
  401690:	push   0x0
  401692:	push   0x40300c
  401697:	pop    eax
  401698:	call   DWORD PTR cs:[eax]
  40169b:	pop    edx
  40169c:	push   edx
  40169d:	push   0x0
  40169f:	push   0x403038
  4016a4:	pop    eax
  4016a5:	call   DWORD PTR cs:[eax]
  4016a8:	pop    edx
  4016a9:	sub    esp,0xffffffa0
  4016ac:	mov    ebp,DWORD PTR [esp]
  4016af:	add    esp,0x4
  4016b2:	ret    
  4016b3:	add    BYTE PTR [ebx-0x1374aa01],cl
  4016b9:	sub    esp,0x5c
  4016bc:	push   edx
  4016bd:	push   DWORD PTR [edx+0x47c]
  4016c3:	push   edi
  4016c4:	push   eax
  4016c5:	push   DWORD PTR [edx+0x5ac]
  4016cb:	call   0x4019d4
  4016d0:	add    esp,0x10
  4016d3:	pop    edx
  4016d4:	push   edx
  4016d5:	push   0x403008
  4016da:	pop    eax
  4016db:	call   DWORD PTR cs:[eax]
  4016de:	pop    edx
  4016df:	push   edx
  4016e0:	push   0x0
  4016e2:	push   0x40300c
  4016e7:	pop    eax
  4016e8:	call   DWORD PTR cs:[eax]
  4016eb:	pop    edx
  4016ec:	sub    esp,0xffffffa4
  4016ef:	mov    ebp,DWORD PTR [esp]
  4016f2:	add    esp,0x4
  4016f5:	ret    
	...
  4016fe:	add    BYTE PTR [eax],al
  401700:	mov    edi,edi
  401702:	push   ebp
  401703:	mov    ebp,esp
  401705:	sub    esp,0x28
  401708:	push   edx
  401709:	push   esi
  40170a:	push   DWORD PTR [edx+0x4c4]
  401710:	push   DWORD PTR [edx+0xd0]
  401716:	call   0x4012fc
  40171b:	add    esp,0xc
  40171e:	pop    edx
  40171f:	push   edx
  401720:	push   0x0
  401722:	push   0x40304c
  401727:	pop    eax
  401728:	call   DWORD PTR cs:[eax]
  40172b:	pop    edx
  40172c:	push   edx
  40172d:	mov    esi,0x0
  401732:	push   esi
  401733:	push   0x40300c
  401738:	pop    eax
  401739:	call   DWORD PTR cs:[eax]
  40173c:	pop    edx
  40173d:	sub    esp,0xffffffd8
  401740:	mov    ebp,DWORD PTR [esp]
  401743:	add    esp,0x4
  401746:	ret    
  401747:	add    BYTE PTR [ebx-0x1374aa01],cl
  40174d:	sub    esp,0x20
  401750:	push   edx
  401751:	push   DWORD PTR [edx+0x244]
  401757:	push   DWORD PTR [edx+0x3bc]
  40175d:	push   ecx
  40175e:	push   esi
  40175f:	call   0x4016b4
  401764:	add    esp,0x10
  401767:	pop    edx
  401768:	push   edx
  401769:	push   0x403008
  40176e:	pop    eax
  40176f:	call   DWORD PTR cs:[eax]
  401772:	pop    edx
  401773:	push   edx
  401774:	push   0x0
  401776:	push   0x403048
  40177b:	pop    eax
  40177c:	call   DWORD PTR cs:[eax]
  40177f:	pop    edx
  401780:	sub    esp,0xffffffe0
  401783:	mov    ebp,DWORD PTR [esp]
  401786:	add    esp,0x4
  401789:	ret    
  40178a:	add    BYTE PTR [eax],al
  40178c:	mov    edi,edi
  40178e:	push   ebp
  40178f:	mov    ebp,esp
  401791:	sub    esp,0x60
  401794:	push   edx
  401795:	push   DWORD PTR [edx+0x5cc]
  40179b:	push   DWORD PTR [edx+0x404]
  4017a1:	push   DWORD PTR [edx+0x108]
  4017a7:	call   0x401d14
  4017ac:	add    esp,0xc
  4017af:	pop    edx
  4017b0:	push   edx
  4017b1:	mov    esi,0x0
  4017b6:	push   esi
  4017b7:	push   0x403030
  4017bc:	pop    eax
  4017bd:	call   DWORD PTR cs:[eax]
  4017c0:	pop    edx
  4017c1:	push   edx
  4017c2:	lea    edx,[edx]
  4017c4:	push   edx
  4017c5:	push   0x403014
  4017ca:	pop    eax
  4017cb:	call   DWORD PTR cs:[eax]
  4017ce:	test   eax,eax
  4017d0:	jne    0x4017c2
  4017d2:	pop    edx
  4017d3:	sub    esp,0xffffffa0
  4017d6:	mov    ebp,DWORD PTR [esp]
  4017d9:	add    esp,0x4
  4017dc:	ret    
  4017dd:	add    BYTE PTR [eax],al
  4017df:	add    BYTE PTR [ebx-0x1374aa01],cl
  4017e5:	sub    esp,0x24
  4017e8:	push   edx
  4017e9:	push   0x0
  4017eb:	push   0x403068
  4017f0:	pop    eax
  4017f1:	call   DWORD PTR cs:[eax]
  4017f4:	pop    edx
  4017f5:	push   edx
  4017f6:	push   edi
  4017f7:	push   edi
  4017f8:	call   0x40121c
  4017fd:	add    esp,0x8
  401800:	pop    edx
  401801:	push   edx
  401802:	push   0x0
  401804:	push   0x40304c
  401809:	pop    eax
  40180a:	call   DWORD PTR cs:[eax]
  40180d:	pop    edx
  40180e:	sub    esp,0xffffffdc
  401811:	mov    ebp,DWORD PTR [esp]
  401814:	add    esp,0x4
  401817:	ret    
  401818:	mov    edi,edi
  40181a:	push   ebp
  40181b:	mov    ebp,esp
  40181d:	sub    esp,0x44
  401820:	push   edx
  401821:	push   0x0
  401823:	push   0x40304c
  401828:	pop    eax
  401829:	call   DWORD PTR cs:[eax]
  40182c:	pop    edx
  40182d:	push   edx
  40182e:	push   edi
  40182f:	push   DWORD PTR [edx+0x68]
  401832:	push   DWORD PTR [edx+0x314]
  401838:	push   ecx
  401839:	call   0x401b38
  40183e:	add    esp,0x10
  401841:	pop    edx
  401842:	push   edx
  401843:	mov    esi,0x0
  401848:	push   esi
  401849:	push   0x403044
  40184e:	pop    eax
  40184f:	call   DWORD PTR cs:[eax]
  401852:	pop    edx
  401853:	sub    esp,0xffffffbc
  401856:	mov    ebp,DWORD PTR [esp]
  401859:	add    esp,0x4
  40185c:	ret    
  40185d:	add    BYTE PTR [eax],al
  40185f:	add    BYTE PTR [eax],al
  401861:	add    BYTE PTR [eax],al
  401863:	add    BYTE PTR [ebx-0x1374aa01],cl
  401869:	sub    esp,0x48
  40186c:	push   edx
  40186d:	push   0x0
  40186f:	push   0x403074
  401874:	pop    eax
  401875:	call   DWORD PTR cs:[eax]
  401878:	pop    edx
  401879:	push   edx
  40187a:	push   eax
  40187b:	push   DWORD PTR [edx+0x23c]
  401881:	push   DWORD PTR [edx+0x24c]
  401887:	call   0x401c44
  40188c:	add    esp,0xc
  40188f:	pop    edx
  401890:	push   edx
  401891:	mov    esi,0x0
  401896:	push   esi
  401897:	push   0x403044
  40189c:	pop    eax
  40189d:	call   DWORD PTR cs:[eax]
  4018a0:	pop    edx
  4018a1:	sub    esp,0xffffffb8
  4018a4:	mov    ebp,DWORD PTR [esp]
  4018a7:	add    esp,0x4
  4018aa:	ret    
  4018ab:	add    BYTE PTR [eax],al
  4018ad:	add    BYTE PTR [eax],al
  4018af:	add    BYTE PTR [ebx-0x1374aa01],cl
  4018b5:	sub    esp,0x28
  4018b8:	push   edx
  4018b9:	push   0x0
  4018bb:	push   0x403038
  4018c0:	pop    eax
  4018c1:	call   DWORD PTR cs:[eax]
  4018c4:	pop    edx
  4018c5:	push   edx
  4018c6:	push   eax
  4018c7:	push   DWORD PTR [edx+0x24]
  4018ca:	call   0x401054
  4018cf:	add    esp,0x8
  4018d2:	pop    edx
  4018d3:	push   edx
  4018d4:	mov    eax,0x0
  4018d9:	push   eax
  4018da:	push   0x403034
  4018df:	pop    eax
  4018e0:	call   DWORD PTR cs:[eax]
  4018e3:	pop    edx
  4018e4:	sub    esp,0xffffffd8
  4018e7:	mov    ebp,DWORD PTR [esp]
  4018ea:	add    esp,0x4
  4018ed:	ret    
	...
  4018fe:	add    BYTE PTR [eax],al
  401900:	mov    edi,edi
  401902:	push   ebp
  401903:	mov    ebp,esp
  401905:	sub    esp,0x30
  401908:	push   edx
  401909:	lea    esi,[edx]
  40190b:	push   esi
  40190c:	push   0x403014
  401911:	pop    eax
  401912:	call   DWORD PTR cs:[eax]
  401915:	test   eax,eax
  401917:	jne    0x401909
  401919:	pop    edx
  40191a:	push   edx
  40191b:	push   esi
  40191c:	push   edi
  40191d:	push   DWORD PTR [edx+0x314]
  401923:	call   0x401534
  401928:	add    esp,0xc
  40192b:	pop    edx
  40192c:	push   edx
  40192d:	mov    eax,0x0
  401932:	push   eax
  401933:	push   0x403030
  401938:	pop    eax
  401939:	call   DWORD PTR cs:[eax]
  40193c:	pop    edx
  40193d:	sub    esp,0xffffffd0
  401940:	mov    ebp,DWORD PTR [esp]
  401943:	add    esp,0x4
  401946:	ret    
  401947:	add    BYTE PTR [ebx-0x1374aa01],cl
  40194d:	sub    esp,0x54
  401950:	push   edx
  401951:	push   DWORD PTR [edx+0x5ec]
  401957:	push   DWORD PTR [edx+0x150]
  40195d:	call   0x401590
  401962:	add    esp,0x8
  401965:	pop    edx
  401966:	push   edx
  401967:	push   0x0
  401969:	push   0x403080
  40196e:	pop    eax
  40196f:	call   DWORD PTR cs:[eax]
  401972:	pop    edx
  401973:	push   edx
  401974:	mov    esi,0x0
  401979:	push   esi
  40197a:	push   0x403068
  40197f:	pop    eax
  401980:	call   DWORD PTR cs:[eax]
  401983:	pop    edx
  401984:	sub    esp,0xffffffac
  401987:	mov    ebp,DWORD PTR [esp]
  40198a:	add    esp,0x4
  40198d:	ret    
  40198e:	add    BYTE PTR [eax],al
  401990:	mov    edi,edi
  401992:	push   ebp
  401993:	mov    ebp,esp
  401995:	sub    esp,0x2c
  401998:	push   edx
  401999:	push   0x0
  40199b:	push   0x403068
  4019a0:	pop    eax
  4019a1:	call   DWORD PTR cs:[eax]
  4019a4:	pop    edx
  4019a5:	push   edx
  4019a6:	push   DWORD PTR [edx+0x214]
  4019ac:	push   ebx
  4019ad:	call   0x401864
  4019b2:	add    esp,0x8
  4019b5:	pop    edx
  4019b6:	push   edx
  4019b7:	mov    edx,0x0
  4019bc:	push   edx
  4019bd:	push   0x403034
  4019c2:	pop    eax
  4019c3:	call   DWORD PTR cs:[eax]
  4019c6:	pop    edx
  4019c7:	sub    esp,0xffffffd4
  4019ca:	mov    ebp,DWORD PTR [esp]
  4019cd:	add    esp,0x4
  4019d0:	ret    
  4019d1:	add    BYTE PTR [eax],al
  4019d3:	add    BYTE PTR [ebx-0x1374aa01],cl
  4019d9:	sub    esp,0x2c
  4019dc:	push   edx
  4019dd:	push   0x6b0
  4019e2:	push   0x6b0
  4019e7:	push   0x40000
  4019ec:	push   0x40302c
  4019f1:	pop    edi
  4019f2:	push   DWORD PTR [edi]
  4019f4:	sub    DWORD PTR [esp],0x2
  4019f8:	push   0x40303c
  4019fd:	pop    edi
  4019fe:	pop    DWORD PTR [edi]
  401a00:	push   0x40303c
  401a05:	pop    eax
  401a06:	call   DWORD PTR cs:[eax]
  401a09:	xchg   DWORD PTR [esp],eax
  401a0c:	mov    edx,eax
  401a0e:	pop    edi
  401a0f:	mov    DWORD PTR [edx+0x448],edi
  401a15:	mov    eax,DWORD PTR [edx+0x448]
  401a1b:	mov    edi,eax
  401a1d:	sub    esi,esi
  401a1f:	dec    esi
  401a20:	and    esi,0x401e8d
  401a26:	mov    ebx,DWORD PTR [esi]
  401a28:	mov    DWORD PTR [edi],ebx
  401a2a:	add    esi,0x3
  401a2d:	add    edi,0x3
  401a30:	mov    ebx,0x6a719112
  401a35:	xor    eax,eax
  401a37:	mov    ecx,ebx
  401a39:	xor    ecx,DWORD PTR [esi]
  401a3b:	sub    ecx,0x1
  401a3e:	mov    DWORD PTR [edi],ecx
  401a40:	push   DWORD PTR [edi]
  401a42:	mov    ebx,0xfffffffc
  401a47:	sub    esi,ebx
  401a49:	sub    edi,ebx
  401a4b:	pop    ebx
  401a4c:	bswap  ebx
  401a4e:	add    eax,0x4
  401a51:	cmp    eax,0x6b0
  401a56:	jne    0x401a37
  401a58:	push   edx
  401a59:	push   0x0
  401a5b:	push   0x403068
  401a60:	pop    eax
  401a61:	call   DWORD PTR cs:[eax]
  401a64:	pop    edx
  401a65:	sub    esp,0xffffffd4
  401a68:	pop    ebp
  401a69:	ret    
  401a6a:	add    BYTE PTR [eax],al
  401a6c:	mov    edi,edi
  401a6e:	push   ebp
  401a6f:	mov    ebp,esp
  401a71:	sub    esp,0x4c
  401a74:	push   edx
  401a75:	push   0x403008
  401a7a:	pop    eax
  401a7b:	call   DWORD PTR cs:[eax]
  401a7e:	pop    edx
  401a7f:	push   edx
  401a80:	push   DWORD PTR [edx+0x160]
  401a86:	push   eax
  401a87:	call   0x401bc0
  401a8c:	add    esp,0x8
  401a8f:	pop    edx
  401a90:	push   edx
  401a91:	push   0x0
  401a93:	push   0x403074
  401a98:	pop    eax
  401a99:	call   DWORD PTR cs:[eax]
  401a9c:	pop    edx
  401a9d:	sub    esp,0xffffffb4
  401aa0:	mov    ebp,DWORD PTR [esp]
  401aa3:	add    esp,0x4
  401aa6:	ret    
  401aa7:	add    BYTE PTR [ebx-0x1374aa01],cl
  401aad:	sub    esp,0x38
  401ab0:	push   edx
  401ab1:	mov    edx,0x0
  401ab6:	push   edx
  401ab7:	push   0x403044
  401abc:	pop    eax
  401abd:	call   DWORD PTR cs:[eax]
  401ac0:	pop    edx
  401ac1:	push   edx
  401ac2:	push   esi
  401ac3:	push   edi
  401ac4:	call   0x401cd0
  401ac9:	add    esp,0x8
  401acc:	pop    edx
  401acd:	push   edx
  401ace:	mov    edx,0x0
  401ad3:	push   edx
  401ad4:	push   0x403044
  401ad9:	pop    eax
  401ada:	call   DWORD PTR cs:[eax]
  401add:	pop    edx
  401ade:	sub    esp,0xffffffc8
  401ae1:	mov    ebp,DWORD PTR [esp]
  401ae4:	add    esp,0x4
  401ae7:	ret    
  401ae8:	add    BYTE PTR [eax],al
  401aea:	add    BYTE PTR [eax],al
  401aec:	mov    edi,edi
  401aee:	push   ebp
  401aef:	mov    ebp,esp
  401af1:	sub    esp,0x34
  401af4:	push   edx
  401af5:	push   DWORD PTR [edx+0x3c8]
  401afb:	push   DWORD PTR [edx+0x10c]
  401b01:	push   ebx
  401b02:	push   eax
  401b03:	call   0x4012b4
  401b08:	add    esp,0x10
  401b0b:	pop    edx
  401b0c:	push   edx
  401b0d:	mov    edx,0x0
  401b12:	push   edx
  401b13:	push   0x403074
  401b18:	pop    eax
  401b19:	call   DWORD PTR cs:[eax]
  401b1c:	pop    edx
  401b1d:	push   edx
  401b1e:	push   0x0
  401b20:	push   0x403038
  401b25:	pop    eax
  401b26:	call   DWORD PTR cs:[eax]
  401b29:	pop    edx
  401b2a:	sub    esp,0xffffffcc
  401b2d:	mov    ebp,DWORD PTR [esp]
  401b30:	add    esp,0x4
  401b33:	ret    
  401b34:	add    BYTE PTR [eax],al
  401b36:	add    BYTE PTR [eax],al
  401b38:	mov    edi,edi
  401b3a:	push   ebp
  401b3b:	mov    ebp,esp
  401b3d:	sub    esp,0x30
  401b40:	push   edx
  401b41:	push   0x0
  401b43:	push   0x403044
  401b48:	pop    eax
  401b49:	call   DWORD PTR cs:[eax]
  401b4c:	pop    edx
  401b4d:	push   edx
  401b4e:	push   esi
  401b4f:	push   DWORD PTR [edx+0x260]
  401b55:	call   0x4014a4
  401b5a:	add    esp,0x8
  401b5d:	pop    edx
  401b5e:	push   edx
  401b5f:	push   0x0
  401b61:	push   0x403020
  401b66:	pop    eax
  401b67:	call   DWORD PTR cs:[eax]
  401b6a:	pop    edx
  401b6b:	sub    esp,0xffffffd0
  401b6e:	mov    ebp,DWORD PTR [esp]
  401b71:	add    esp,0x4
  401b74:	ret    
	...
  401b81:	add    BYTE PTR [eax],al
  401b83:	add    BYTE PTR [ebx-0x1374aa01],cl
  401b89:	sub    esp,0x30
  401b8c:	push   edx
  401b8d:	push   DWORD PTR [edx+0xe8]
  401b93:	push   eax
  401b94:	call   0x401270
  401b99:	add    esp,0x8
  401b9c:	pop    edx
  401b9d:	push   edx
  401b9e:	push   0x0
  401ba0:	push   0x403048
  401ba5:	pop    eax
  401ba6:	call   DWORD PTR cs:[eax]
  401ba9:	pop    edx
  401baa:	push   edx
  401bab:	push   0x403010
  401bb0:	pop    eax
  401bb1:	call   DWORD PTR cs:[eax]
  401bb4:	pop    edx
  401bb5:	sub    esp,0xffffffd0
  401bb8:	mov    ebp,DWORD PTR [esp]
  401bbb:	add    esp,0x4
  401bbe:	ret    
  401bbf:	add    BYTE PTR [ebx-0x1374aa01],cl
  401bc5:	sub    esp,0x5c
  401bc8:	push   edx
  401bc9:	lea    ebx,[edx]
  401bcb:	push   ebx
  401bcc:	push   0x403014
  401bd1:	pop    eax
  401bd2:	call   DWORD PTR cs:[eax]
  401bd5:	test   eax,eax
  401bd7:	jne    0x401bc9
  401bd9:	pop    edx
  401bda:	push   edx
  401bdb:	push   DWORD PTR [edx+0x428]
  401be1:	push   esi
  401be2:	call   0x401748
  401be7:	add    esp,0x8
  401bea:	pop    edx
  401beb:	push   edx
  401bec:	push   0x403008
  401bf1:	pop    eax
  401bf2:	call   DWORD PTR cs:[eax]
  401bf5:	pop    edx
  401bf6:	sub    esp,0xffffffa4
  401bf9:	mov    ebp,DWORD PTR [esp]
  401bfc:	add    esp,0x4
  401bff:	ret    
  401c00:	mov    edi,edi
  401c02:	push   ebp
  401c03:	mov    ebp,esp
  401c05:	sub    esp,0x30
  401c08:	push   edx
  401c09:	push   DWORD PTR [edx+0x464]
  401c0f:	push   DWORD PTR [edx+0xb8]
  401c15:	call   0x40178c
  401c1a:	add    esp,0x8
  401c1d:	pop    edx
  401c1e:	push   edx
  401c1f:	push   0x0
  401c21:	push   0x40300c
  401c26:	pop    eax
  401c27:	call   DWORD PTR cs:[eax]
  401c2a:	pop    edx
  401c2b:	push   edx
  401c2c:	push   0x0
  401c2e:	push   0x403030
  401c33:	pop    eax
  401c34:	call   DWORD PTR cs:[eax]
  401c37:	pop    edx
  401c38:	sub    esp,0xffffffd0
  401c3b:	mov    ebp,DWORD PTR [esp]
  401c3e:	add    esp,0x4
  401c41:	ret    
  401c42:	add    BYTE PTR [eax],al
  401c44:	mov    edi,edi
  401c46:	push   ebp
  401c47:	mov    ebp,esp
  401c49:	sub    esp,0x1c
  401c4c:	push   edx
  401c4d:	mov    ebx,0x0
  401c52:	push   ebx
  401c53:	push   0x403044
  401c58:	pop    eax
  401c59:	call   DWORD PTR cs:[eax]
  401c5c:	pop    edx
  401c5d:	push   edx
  401c5e:	push   eax
  401c5f:	push   eax
  401c60:	push   DWORD PTR [edx+0x74]
  401c63:	push   edi
  401c64:	call   0x401418
  401c69:	add    esp,0x10
  401c6c:	pop    edx
  401c6d:	push   edx
  401c6e:	push   0x0
  401c70:	push   0x40300c
  401c75:	pop    eax
  401c76:	call   DWORD PTR cs:[eax]
  401c79:	pop    edx
  401c7a:	sub    esp,0xffffffe4
  401c7d:	mov    ebp,DWORD PTR [esp]
  401c80:	add    esp,0x4
  401c83:	ret    
  401c84:	add    BYTE PTR [eax],al
  401c86:	add    BYTE PTR [eax],al
  401c88:	mov    edi,edi
  401c8a:	push   ebp
  401c8b:	mov    ebp,esp
  401c8d:	sub    esp,0x3c
  401c90:	push   edx
  401c91:	push   DWORD PTR [edx+0x80]
  401c97:	push   DWORD PTR [edx+0x308]
  401c9d:	call   0x401394
  401ca2:	add    esp,0x8
  401ca5:	pop    edx
  401ca6:	push   edx
  401ca7:	push   0x0
  401ca9:	push   0x403038
  401cae:	pop    eax
  401caf:	call   DWORD PTR cs:[eax]
  401cb2:	pop    edx
  401cb3:	push   edx
  401cb4:	push   0x403008
  401cb9:	pop    eax
  401cba:	call   DWORD PTR cs:[eax]
  401cbd:	pop    edx
  401cbe:	sub    esp,0xffffffc4
  401cc1:	mov    ebp,DWORD PTR [esp]
  401cc4:	add    esp,0x4
  401cc7:	ret    
	...
  401cd0:	mov    edi,edi
  401cd2:	push   ebp
  401cd3:	mov    ebp,esp
  401cd5:	sub    esp,0x28
  401cd8:	push   edx
  401cd9:	push   0x0
  401cdb:	push   0x403048
  401ce0:	pop    eax
  401ce1:	call   DWORD PTR cs:[eax]
  401ce4:	pop    edx
  401ce5:	push   edx
  401ce6:	push   DWORD PTR [edx+0x11c]
  401cec:	push   esi
  401ced:	call   0x401624
  401cf2:	add    esp,0x8
  401cf5:	pop    edx
  401cf6:	push   edx
  401cf7:	mov    edx,0x0
  401cfc:	push   edx
  401cfd:	push   0x403080
  401d02:	pop    eax
  401d03:	call   DWORD PTR cs:[eax]
  401d06:	pop    edx
  401d07:	sub    esp,0xffffffd8
  401d0a:	mov    ebp,DWORD PTR [esp]
  401d0d:	add    esp,0x4
  401d10:	ret    
  401d11:	add    BYTE PTR [eax],al
  401d13:	add    BYTE PTR [ebx-0x1374aa01],cl
  401d19:	sub    esp,0x38
  401d1c:	push   edx
  401d1d:	mov    ebx,0x0
  401d22:	push   ebx
  401d23:	push   0x403044
  401d28:	pop    eax
  401d29:	call   DWORD PTR cs:[eax]
  401d2c:	pop    edx
  401d2d:	push   edx
  401d2e:	push   ebx
  401d2f:	push   DWORD PTR [edx+0x37c]
  401d35:	push   DWORD PTR [edx+0x4c8]
  401d3b:	push   ebx
  401d3c:	call   0x401e30
  401d41:	add    esp,0x10
  401d44:	pop    edx
  401d45:	push   edx
  401d46:	push   0x0
  401d48:	push   0x403044
  401d4d:	pop    eax
  401d4e:	call   DWORD PTR cs:[eax]
  401d51:	pop    edx
  401d52:	sub    esp,0xffffffc8
  401d55:	mov    ebp,DWORD PTR [esp]
  401d58:	add    esp,0x4
  401d5b:	ret    
  401d5c:	add    BYTE PTR [eax],al
  401d5e:	add    BYTE PTR [eax],al
  401d60:	mov    edi,edi
  401d62:	push   ebp
  401d63:	mov    ebp,esp
  401d65:	sub    esp,0x40
  401d68:	push   edx
  401d69:	mov    edi,0x0
  401d6e:	push   edi
  401d6f:	push   0x403074
  401d74:	pop    eax
  401d75:	call   DWORD PTR cs:[eax]
  401d78:	pop    edx
  401d79:	push   edx
  401d7a:	push   ecx
  401d7b:	push   esi
  401d7c:	push   DWORD PTR [edx+0x68]
  401d7f:	call   0x401090
  401d84:	add    esp,0xc
  401d87:	pop    edx
  401d88:	push   edx
  401d89:	push   0x0
  401d8b:	push   0x40300c
  401d90:	pop    eax
  401d91:	call   DWORD PTR cs:[eax]
  401d94:	pop    edx
  401d95:	sub    esp,0xffffffc0
  401d98:	mov    ebp,DWORD PTR [esp]
  401d9b:	add    esp,0x4
  401d9e:	ret    
  401d9f:	add    BYTE PTR [ebx-0x1374aa01],cl
  401da5:	sub    esp,0x34
  401da8:	push   edx
  401da9:	mov    edi,0x0
  401dae:	push   edi
  401daf:	push   0x40300c
  401db4:	pop    eax
  401db5:	call   DWORD PTR cs:[eax]
  401db8:	pop    edx
  401db9:	push   edx
  401dba:	push   ebx
  401dbb:	push   edi
  401dbc:	call   0x40145c
  401dc1:	add    esp,0x8
  401dc4:	pop    edx
  401dc5:	push   edx
  401dc6:	push   0x0
  401dc8:	push   0x403080
  401dcd:	pop    eax
  401dce:	call   DWORD PTR cs:[eax]
  401dd1:	pop    edx
  401dd2:	sub    esp,0xffffffcc
  401dd5:	mov    ebp,DWORD PTR [esp]
  401dd8:	add    esp,0x4
  401ddb:	ret    
	...
  401de4:	mov    edi,edi
  401de6:	push   ebp
  401de7:	mov    ebp,esp
  401de9:	sub    esp,0x38
  401dec:	push   edx
  401ded:	push   DWORD PTR [edx+0x1bc]
  401df3:	push   DWORD PTR [edx+0xa8]
  401df9:	push   DWORD PTR [edx+0x140]
  401dff:	call   0x401140
  401e04:	add    esp,0xc
  401e07:	pop    edx
  401e08:	push   edx
  401e09:	push   0x0
  401e0b:	push   0x40304c
  401e10:	pop    eax
  401e11:	call   DWORD PTR cs:[eax]
  401e14:	pop    edx
  401e15:	push   edx
  401e16:	push   0x0
  401e18:	push   0x40304c
  401e1d:	pop    eax
  401e1e:	call   DWORD PTR cs:[eax]
  401e21:	pop    edx
  401e22:	sub    esp,0xffffffc8
  401e25:	mov    ebp,DWORD PTR [esp]
  401e28:	add    esp,0x4
  401e2b:	ret    
  401e2c:	add    BYTE PTR [eax],al
  401e2e:	add    BYTE PTR [eax],al
  401e30:	mov    edi,edi
  401e32:	push   ebp
  401e33:	mov    ebp,esp
  401e35:	sub    esp,0x24
  401e38:	push   edx
  401e39:	push   ebx
  401e3a:	push   DWORD PTR [edx+0xec]
  401e40:	push   DWORD PTR [edx+0x4b8]
  401e46:	push   ebx
  401e47:	call   0x4011d0
  401e4c:	add    esp,0x10
  401e4f:	pop    edx
  401e50:	push   edx
  401e51:	push   0x403010
  401e56:	pop    eax
  401e57:	call   DWORD PTR cs:[eax]
  401e5a:	pop    edx
  401e5b:	push   edx
  401e5c:	push   0x0
  401e5e:	push   0x403080
  401e63:	pop    eax
  401e64:	call   DWORD PTR cs:[eax]
  401e67:	pop    edx
  401e68:	sub    esp,0xffffffdc
  401e6b:	mov    ebp,DWORD PTR [esp]
  401e6e:	add    esp,0x4
  401e71:	ret    
  401e72:	add    BYTE PTR [eax],al
  401e74:	sub    eax,0xe9231f95
  401e79:	push   esi
  401e7a:	jp     0x401ece
  401e7c:	sbb    ebx,DWORD PTR [edi]
  401e7e:	lahf   
  401e7f:	(bad)  
  401e80:	dec    edi
  401e81:	sub    BYTE PTR [esi-0x51],dh
  401e84:	cmc    
  401e85:	stos   DWORD PTR es:[edi],eax
  401e86:	dec    esp
  401e87:	mov    ?,WORD PTR [ebx-0x41527128]
  401e8d:	bswap  eax
  401e8f:	std    
  401e90:	out    dx,eax
  401e91:	sahf   
  401e92:	mov    ecx,0xc7c70097
  401e97:	add    DWORD PTR [eax],eax
  401e99:	mov    edi,0xc6e30001
  401e9f:	jg     0x401ee2
  401ea1:	retf   0xa27e
  401ea4:	mov    ebp,0x310580a8
  401ea9:	imul   esi,eax,0xffffffe2
  401eac:	add    DWORD PTR ds:0x251691a3,ecx
  401eb2:	gs ins BYTE PTR es:[edi],dx
  401eb4:	pop    eax
  401eb5:	push   edi
  401eb6:	inc    eax
  401eb7:	push   ss
  401eb8:	or     DWORD PTR [edx+0x32],eax
  401ebb:	imul   ecx,DWORD PTR [ecx],0xffffffff
  401ebe:	mov    edx,0xbcd552e7
  401ec3:	ins    BYTE PTR es:[edi],dx
  401ec4:	mov    esi,0x81d8533b
  401ec9:	push   esp
  401eca:	js     0x401ec3
  401ecc:	pop    edx
  401ecd:	call   0xf444a4c2
  401ed2:	mov    ch,0xa0
  401ed4:	jge    0x401eba
  401ed6:	adc    BYTE PTR [eax],al
  401ed8:	add    DWORD PTR [eax],edx
  401eda:	adc    al,0x1d
  401edc:	sbb    ebp,DWORD PTR [edi+0x468a0000]
  401ee2:	(bad)  
  401ee3:	adc    BYTE PTR [esi+edx*4],dl
  401ee6:	and    eax,0x60f2ae1
  401eeb:	call   0x3110:0x20092406
  401ef2:	sbb    edx,DWORD PTR [edi+0x76dd5ba9]
  401ef8:	ins    DWORD PTR es:[edi],dx
  401ef9:	mov    DWORD PTR [eax+0x13],esp
  401efc:	xor    eax,0x2102650d
  401f01:	add    BYTE PTR [edx+eax*1],al
  401f04:	and    eax,0x5c1d9a32
  401f09:	jbe    0x401f20
  401f0b:	push   eax
  401f0c:	add    BYTE PTR [edx+0x702b6291],0xc4
  401f13:	xchg   ebx,eax
  401f14:	adc    DWORD PTR [eax],eax
  401f16:	add    al,ah
  401f18:	cmps   DWORD PTR ds:[esi],DWORD PTR es:[edi]
  401f19:	push   0xff6b6a00
  401f1e:	push   ebp
  401f1f:	push   ss
  401f20:	pushf  
  401f21:	lods   eax,DWORD PTR ds:[esi]
  401f22:	cli    
  401f23:	cdq    
  401f24:	cwde   
  401f25:	add    eax,0xb5dedbf8
  401f2a:	aam    0xf9
  401f2c:	stc    
  401f2d:	aam    0xf
  401f2f:	sub    eax,0xcffb9a7
  401f34:	push   esi
  401f35:	ret    
  401f36:	call   0xc428acc8
  401f3b:	stc    
  401f3c:	add    al,BYTE PTR [edi-0x238cdecc]
  401f42:	jl     0x401f9e
  401f44:	add    eax,0x3f6f00fb
  401f49:	call   0x6ab2aa4e
  401f4e:	add    BYTE PTR [edi+0x6b],ch
  401f51:	call   FWORD PTR [edi]
  401f53:	pushf  
  401f54:	cmp    al,0x8a
  401f56:	stos   BYTE PTR es:[edi],al
  401f57:	sub    BYTE PTR [eax+ebx*1+0x3c6b3d97],ah
  401f5e:	adc    eax,0x47cca74
  401f63:	push   ecx
  401f64:	push   es
  401f65:	pop    es
  401f66:	(bad)  [ecx+0x78]
  401f69:	cmps   DWORD PTR ds:[esi],DWORD PTR es:[edi]
  401f6a:	add    BYTE PTR [ecx-0x364fb057],ch
  401f70:	loope  0x401f5a
  401f72:	sbb    dh,bl
  401f74:	int3   
  401f75:	cmp    al,0x8d
  401f77:	pop    es
  401f78:	add    ebp,ebx
  401f7a:	retf   
  401f7b:	push   es
  401f7c:	push   edi
  401f7d:	test   DWORD PTR [esi+0x73],0x22581962
  401f84:	inc    ecx
  401f85:	dec    ecx
  401f86:	mov    dl,0x4e
  401f88:	ins    DWORD PTR es:[edi],dx
  401f89:	loope  0x401fa0
  401f8b:	sbb    al,0x69
  401f8d:	xor    al,0x6a
  401f8f:	xor    al,0x0
  401f91:	jno    0x401ff3
  401f93:	push   ebx
  401f94:	push   ebx
  401f95:	push   es
  401f96:	pusha  
  401f97:	je     0x401f8e
  401f99:	jl     0x401fa0
  401f9b:	stos   DWORD PTR es:[edi],eax
  401f9c:	aas    
  401f9d:	push   esp
  401f9e:	cmp    ebp,DWORD PTR [esi]
  401fa0:	push   ebx
  401fa1:	add    DWORD PTR [eax],ecx
  401fa3:	ds aas 
  401fa5:	push   cs
  401fa6:	add    ch,BYTE PTR [esp+eax*1+0x77e1cddc]
  401fad:	cmp    al,0x2f
  401faf:	or     BYTE PTR [esi-0xe],bl
  401fb2:	jmp    DWORD PTR [ebx-0x49a93d2c]
  401fb8:	je     0x401f48
  401fba:	mov    bh,0x93
  401fbc:	xchg   esp,eax
  401fbd:	lods   eax,DWORD PTR cs:[esi]
  401fbf:	xor    esi,DWORD PTR [edi-0x577bc9f]
  401fc5:	sbb    esi,esi
  401fc7:	dec    BYTE PTR [esi-0x29]
  401fca:	test   BYTE PTR [edi+0x72a00e52],bh
  401fd0:	ss dec ebx
  401fd2:	ret    0x8e1c
  401fd5:	xchg   edi,edi
  401fd7:	jnp    0x401fac
  401fd9:	out    0xc4,eax
  401fdb:	test   DWORD PTR [ecx],eax
  401fdd:	(bad)  
  401fde:	pop    ebx
  401fdf:	arpl   bx,ax
  401fe1:	in     al,dx
  401fe2:	arpl   WORD PTR [ebp+0x76],si
  401fe5:	call   0x14bb640e
  401fea:	push   DWORD PTR [ebp+0x66]
  401fed:	je     0x40205a
  401fef:	jnp    0x401ff9
  401ff1:	test   al,dl
  401ff3:	inc    eax
  401ff4:	fmul   QWORD PTR [edi+0x50253a9]
  401ffa:	test   ecx,ebx
  401ffc:	cmp    DWORD PTR [ebp+0x6],edx
  401fff:	push   es
  402000:	push   edi
  402001:	pop    es
  402002:	or     BYTE PTR [ebx],dh
  402004:	ins    DWORD PTR es:[edi],dx
  402005:	int3   
  402006:	add    cl,BYTE PTR [eax+ebx*2]
  402009:	or     BYTE PTR [ebx-0x8],cl
  40200c:	aas    
  40200d:	das    
  40200e:	mov    al,ds:0xc5a758ff
  402013:	jo     0x402060
  402015:	dec    ecx
  402016:	mov    edx,0x29e958bd
  40201b:	mov    DWORD PTR [ecx],0x1e88ae9
  402021:	xor    DWORD PTR [eax+0x186968],0x28760000
  40202b:	push   esi
  40202c:	ficom  DWORD PTR [ebx-0x78e6f002]
  402032:	dec    DWORD PTR [ebx-0x220c9fff]
  402038:	add    al,0xff
  40203a:	add    BYTE PTR fs:[ecx-0x75],bl
  40203e:	inc    eax
  40203f:	cmp    al,0x80
  402041:	add    BYTE PTR [edi+0x34146061],al
  402047:	(bad)
  40204b:	scas   eax,DWORD PTR es:[edi]
  40204c:	jnp    0x402035
  40204e:	and    al,0x88
  402050:	dec    ecx
  402051:	sbb    BYTE PTR [edi-0x3477a706],al
  402057:	shl    al,0xef
  40205a:	mov    bl,BYTE PTR [eax+0x6d]
  40205d:	out    dx,eax
  40205e:	out    dx,eax
  40205f:	cmp    DWORD PTR [esi-0x9],edx
  402062:	inc    esi
  402063:	imul   edi,DWORD PTR [eax+0x44],0xa1190ea1
  40206a:	fs xchg edx,ecx
  40206d:	xor    BYTE PTR [ecx+0x65767178],cl
  402073:	push   esp
  402074:	std    
  402075:	jbe    0x402074
  402077:	or     BYTE PTR [ecx],al
  402079:	pop    edi
  40207a:	jmp    0x7e1c:0x79bdd2b0
  402081:	je     0x40201f
  402083:	mov    dh,0x3a
  402085:	call   0x791a59da
  40208a:	pop    eax
  40208b:	add    al,0x3
  40208d:	pop    eax
  40208e:	js     0x402084
  402090:	mov    eax,DWORD PTR gs:[esi+eiz*1]
  402094:	in     al,dx
  402095:	add    BYTE PTR [edi+0x424010f],ch
  40209b:	cmp    BYTE PTR [edx+0x64500424],cl
  4020a1:	(bad)  
  4020a2:	out    0x14,eax
  4020a4:	in     al,dx
  4020a5:	xor    bl,al
  4020a7:	inc    ebp
  4020a8:	dec    ebx
  4020a9:	mov    BYTE PTR [ebp+0xb],al
  4020ac:	xor    DWORD PTR [esi+0x7472b98b],0xf8f70373
  4020b6:	or     bh,dl
  4020b8:	mov    al,BYTE PTR [ecx-0x70916601]
  4020be:	test   al,0x7a
  4020c0:	test   eax,0xb6c37e53
  4020c5:	adc    DWORD PTR [ebx-0x56],0x235457a9
  4020cc:	fisub  DWORD PTR [esi]
  4020ce:	adc    BYTE PTR [esi-0x9],dl
  4020d1:	fwait
  4020d2:	mov    BYTE PTR [esi],ah
  4020d4:	sub    edi,DWORD PTR [esi]
  4020d6:	dec    BYTE PTR [eax]
  4020d8:	xlat   BYTE PTR ds:[ebx]
  4020d9:	or     BYTE PTR [ebx+0x4b],0x91
  4020dd:	fisub  DWORD PTR [edi+0x543f7f]
  4020e3:	or     DWORD PTR [edi+0x7],edx
  4020e6:	or     BYTE PTR [edx+ebx*8],bh
  4020e9:	or     dl,al
  4020eb:	aas    
  4020ec:	push   ecx
  4020ed:	adc    eax,0x657cd8d
  4020f2:	movs   BYTE PTR es:[edi],BYTE PTR ds:[esi]
  4020f3:	xchg   ebx,eax
  4020f4:	pop    ebx
  4020f5:	cdq    
  4020f6:	or     al,dl
  4020f8:	mov    ch,0x9e
  4020fa:	add    al,0x57
  4020fc:	add    DWORD PTR [ecx+0xd70019b],ebp
  402102:	inc    esp
  402103:	add    eax,DWORD PTR [eax]
  402105:	popa   
  402106:	jb     0x402103
  402108:	(bad)  
  402109:	jg     0x402180
  40210b:	std    
  40210c:	mov    dh,BYTE PTR [ebx+ebp*2+0x0]
  402110:	test   eax,0xa9f8f1c
  402115:	hlt    
  402116:	push   esi
  402117:	or     eax,0xb10f0a02
  40211c:	or     DWORD PTR [edi-0x29aaaaff],ebp
  402122:	cmp    DWORD PTR [ebx-0x8],eax
  402125:	dec    ecx
  402126:	loop   0x4020c3
  402128:	mov    ds:0x78605cea,al
  40212d:	sar    ch,1
  40212f:	pop    esp
  402130:	adc    BYTE PTR [eax],ah
  402132:	aaa    
  402133:	ja     0x40218b
  402135:	cmp    edx,edx
  402137:	mov    esi,0x590f8494
  40213c:	add    al,0xa4
  40213e:	add    BYTE PTR [eax],al
  402140:	add    DWORD PTR [ebx-0x495ed1ee],ecx
  402146:	mov    eax,DWORD PTR [ebp-0x7e7bf08e]
  40214c:	add    BYTE PTR [edi+ecx*1-0x7452080b],0xf8
  402154:	cld    
  402155:	jo     0x402154
  402157:	js     0x4021a7
  402159:	add    BYTE PTR [edx+0x543b0351],ch
  40215f:	lods   al,BYTE PTR ds:[esi]
  402160:	imul   edx,DWORD PTR [edx+ebp*2],0xf8835850
  402167:	add    al,0x55
  402169:	add    BYTE PTR [edi+0x6a14693f],0x50
  402170:	pop    eax
  402171:	adc    DWORD PTR [esp],0x57811425
  402178:	add    BYTE PTR [esi+0x1c],dl
  40217b:	jmp    FWORD PTR [ecx-0x859f100]
  402181:	jno    0x402147
  402183:	add    al,0xdd
  402185:	add    dl,bh
  402187:	inc    esp
  402188:	ins    DWORD PTR es:[edi],dx
  402189:	cmp    ah,cl
  40218b:	mov    eax,0xe54462f2
  402190:	int3   
  402191:	lods   eax,DWORD PTR ds:[esi]
  402192:	push   esi
  402193:	mov    ah,0x7d
  402195:	adc    eax,0xff0ea6ff
  40219a:	and    al,0x1c
  40219c:	sbb    al,0xe3
  40219e:	out    dx,al
  40219f:	pop    ecx
  4021a0:	xlat   BYTE PTR ds:[ebx]
  4021a1:	stos   BYTE PTR es:[edi],al
  4021a2:	mov    BYTE PTR [ebx],0x56
  4021a5:	jbe    0x4021bb
  4021a7:	jb     0x402177
  4021a9:	cmp    BYTE PTR [edx+0x41],dl
  4021ac:	adc    DWORD PTR [eax],eax
  4021ae:	aas    
  4021af:	mov    bl,0x6a
  4021b1:	push   ebx
  4021b2:	push   eax
  4021b3:	dec    esi
  4021b5:	cmp    BYTE PTR [eax+edi*8],al
  4021b8:	adc    DWORD PTR [eax],eax
  4021ba:	aas    
  4021bb:	mov    cl,0x84
  4021bd:	jae    0x4021bf
  4021bf:	adc    BYTE PTR [ecx],dl
  4021c1:	add    bl,bl
  4021c3:	push   ecx
  4021c4:	pop    eax
  4021c5:	add    BYTE PTR [ebp+0xc],dl
  4021c8:	push   edi
  4021c9:	or     al,0xa7
  4021cb:	push   esp
  4021cc:	ficom  WORD PTR [ecx-0x491c24d4]
  4021d2:	test   eax,0x21cde36e
  4021d7:	pushf  
  4021d8:	jae    0x4021b0
  4021da:	scas   al,BYTE PTR es:[edi]
  4021db:	les    ecx,FWORD PTR [edi-0x15]
  4021de:	mov    edi,0xe89b497e
  4021e3:	mov    eax,DWORD PTR [ecx]
  4021e5:	call   0xec3f68e5
  4021ea:	push   edx
  4021eb:	pop    ds
  4021ec:	push   ds
  4021ed:	mov    ecx,0xff0a17ff
  4021f2:	(bad)  
  4021f3:	jmp    FWORD PTR [eax+0x1e1f846]
  4021f9:	pop    es
  4021fa:	push   ecx
  4021fb:	adc    dh,0xe8
  4021fe:	add    BYTE PTR [edx+ebx*2-0x6124348c],cl
  402205:	cmp    eax,0xe801d08b
  40220a:	into   
  40220b:	inc    esi
  40220c:	inc    edi
  40220e:	fs (bad) 
  402210:	jb     0x402253
  402212:	pop    ss
  402213:	inc    ecx
  402214:	mov    esi,0xf2bfcae8
  402219:	scas   eax,DWORD PTR es:[edi]
  40221a:	ds aaa 
  40221c:	rol    BYTE PTR [eax],0x54
  40221f:	in     al,0x2a
  402221:	add    eax,0x808923c5
  402226:	sar    DWORD PTR [eax-0x79],0x98
  40222a:	cvtdq2ps xmm1,xmm3
  40222d:	dec    esi
  40222e:	sub    al,0xf2
  402230:	dec    eax
  402231:	add    DWORD PTR [eax],ebx
  402233:	mov    al,0xbe
  402235:	stc    
  402236:	int3   
  402237:	inc    eax
  402238:	or     edi,DWORD PTR [ecx-0x8123dc]
  40223e:	(bad)  
  40223f:	(bad)  
  402240:	out    dx,eax
  402241:	dec    eax
  402242:	repz ret 
  402244:	or     DWORD PTR [ebp+0xe],ebx
  402247:	pop    es
  402248:	or     DWORD PTR [ecx-0x9149af],edi
  40224e:	(bad)  
  40224f:	jmp    DWORD PTR [ebp-0x857fe9]
  402255:	jg     0x4022b9
  402257:	sub    eax,0x3c9e9551
  40225c:	xchg   ecx,eax
  40225d:	mov    al,ds:0xc8a739f4
  402262:	rcl    DWORD PTR [ecx+0x1],0x48
  402266:	push   esp
  402267:	mov    DWORD PTR [edx+0x1004876],ecx
  40226d:	dec    eax
  40226e:	jbe    0x402201
  402270:	xchg   edx,eax
  402271:	push   esp
  402272:	dec    eax
  402273:	add    BYTE PTR [ecx],al
  402275:	dec    eax
  402276:	push   esp
  402277:	cdq    
  402278:	call   0x7048:0x1004870
  40227f:	mov    eax,ds:0x4834a2
  402284:	add    DWORD PTR [eax+0x34],ecx
  402287:	test   eax,0x4870aa
  40228c:	add    DWORD PTR [eax+0x70],ecx
  40228f:	mov    cl,0xb2
  402291:	xor    al,0x48
  402293:	add    BYTE PTR [ecx],al
  402295:	dec    eax
  402296:	xor    al,0xb9
  402298:	mov    WORD PTR [ebp-0x255d3cef],?
  40229e:	mov    esp,0x91094dc7
  4022a3:	mov    al,bh
  4022a5:	adc    dh,BYTE PTR [eax+eax*1-0x74]
  4022a9:	jge    0x4022ff
  4022ab:	mov    al,BYTE PTR [ebp+0x42207b21]
  4022b1:	(bad)  
  4022b2:	je     0x4022b3
  4022b4:	add    DWORD PTR [ecx+0x3b],esp
  4022b7:	mov    BYTE PTR [eax-0x6b],ah
  4022ba:	pop    ebp
  4022bb:	mov    edx,DWORD PTR [edx-0x49]
  4022be:	and    BYTE PTR [ebx-0x7724cf40],dh
  4022c4:	add    DWORD PTR [eax],edi
  4022c6:	inc    ebp
  4022c7:	mov    ecx,DWORD PTR ds:0xa9af3b00
  4022cd:	adc    ebx,DWORD PTR [ecx+0x5c]
  4022d0:	fsub   QWORD PTR [ecx-0x34b20e4d]
  4022d6:	clc    
  4022d7:	mov    eax,DWORD PTR [ecx]
  4022d9:	dec    eax
  4022da:	mov    cl,0xac
  4022dc:	popa   
  4022dd:	test   eax,0x8776f8c3
  4022e2:	popf   
  4022e3:	and    BYTE PTR ds:0xc6e90cbd,al
  4022e9:	sbb    BYTE PTR [eax],al
  4022eb:	add    BYTE PTR [ecx],al
  4022ed:	mov    ebp,DWORD PTR [eax-0x73]
  4022f0:	jle    0x40230a
  4022f2:	mov    eax,DWORD PTR [eax]
  4022f4:	or     eax,0xa9ae3b00
  4022f9:	adc    ecx,DWORD PTR [ebp+0x4102b500]
  4022ff:	add    eax,0x4004cedc
  402304:	or     al,0x2e
  402306:	stos   DWORD PTR es:[edi],eax
  402307:	sub    bh,BYTE PTR [eax-0x6f0c5a9c]
  40230d:	inc    eax
  40230e:	sub    al,0x79
  402310:	movs   DWORD PTR es:[edi],DWORD PTR ds:[esi]
  402311:	dec    esp
  402312:	shl    DWORD PTR [ebx-0x33],0x83
  402316:	pusha  
  402317:	ret    
  402318:	imul   esp,DWORD PTR [eax+eax*1],0xd2310120
  40231f:	add    ch,BYTE PTR [ebx-0x64]
  402322:	cmp    edi,edi
  402324:	test   eax,0x8dd8e114
  402329:	fsub   st,st(3)
  40232b:	add    BYTE PTR [eax+0x74],ah
  40232e:	pop    ss
  40232f:	jo     0x40236a
  402331:	inc    edi
  402332:	retf   
  402333:	or     BYTE PTR [eax+0x11cc3c0],dh
  402339:	rol    BYTE PTR ds:0x4684b54b,0x54
  402340:	add    BYTE PTR [ecx-0x6a41b3ac],bh
  402346:	mov    dh,BYTE PTR [esi-0x626a754f]
  40234c:	call   0x4d24:0x351db91
  402353:	cmc    
  402354:	push   ecx
  402355:	xchg   ebp,eax
  402356:	popa   
  402357:	ret    
  402358:	mov    ds:0xf25449ea,al
  40235d:	cmps   DWORD PTR ds:[esi],DWORD PTR es:[edi]
  40235e:	sbb    cl,BYTE PTR [edx-0x33861654]
  402364:	and    al,0x0
  402366:	xchg   dh,al
  402368:	std    
  402369:	cmps   BYTE PTR ds:[esi],BYTE PTR es:[edi]
  40236a:	mov    ebx,DWORD PTR [eax+esi*2]
  40236d:	add    DWORD PTR ds:0x6130d425,ebp
  402373:	xchg   BYTE PTR [esp+edx*1+0x50],al
  402377:	add    cl,dh
  402379:	sub    DWORD PTR [esi],esp
  40237b:	jp     0x40233c
  40237d:	push   edx
  40237e:	cmp    al,0x46
  402380:	jmp    0x1442470
  402385:	pop    edx
  402386:	call   0x723c17a3
  40238b:	enter  0x5ef4,0xa0
  40238f:	jbe    0x40240c
  402391:	pop    ebx
  402392:	add    BYTE PTR [edi+0x58],ah
  402395:	or     BYTE PTR [edi+0x26],bl
  402398:	gs add al,bh
  40239b:	retf   0x88bc
  40239e:	icebp  
  40239f:	sbb    eax,0xb63e6540
  4023a4:	cdq    
  4023a5:	cwde   
  4023a6:	dec    ebx
  4023a7:	out    0xed,al
  4023a9:	popa   
  4023aa:	dec    edx
  4023ab:	cmp    esp,DWORD PTR [ebp+0x16f8a81]
  4023b1:	push   0x741bab60
  4023b6:	or     BYTE PTR cs:0x12040743,cl
  4023bd:	daa    
  4023be:	xchg   edx,eax
  4023bf:	cmp    eax,0x16947a50
  4023c4:	jl     0x40235a
  4023c6:	jp     0x402419
  4023c8:	push   esp
  4023c9:	jp     0x40235f
  4023cb:	jl     0x402407
  4023cd:	stos   BYTE PTR es:[edi],al
  4023ce:	test   DWORD PTR [eax+0x2],ebp
  4023d1:	outs   dx,BYTE PTR ds:[esi]
  4023d2:	push   ds
  4023d3:	sub    ecx,DWORD PTR [edi]
  4023d5:	adc    bl,BYTE PTR [ecx]
  4023d7:	sbb    DWORD PTR [ebx],eax
  4023d9:	and    esi,DWORD PTR [esi]
  4023db:	xchg   edi,eax
  4023dc:	test   eax,0xc9b6d758
  4023e1:	or     al,bh
  4023e3:	add    eax,0x66cb9a05
  4023e8:	bound  edx,QWORD PTR [esi]
  4023ea:	xchg   ebp,eax
  4023eb:	add    DWORD PTR [eax-0x59],ebx
  4023ee:	push   es
  4023ef:	push   ebx
  4023f0:	add    eax,0xbf5a5f3a
  4023f5:	and    DWORD PTR [edx+0x50],ebp
  4023f8:	add    DWORD PTR [ebx-0x45933e6],ecx
  4023fe:	cdq    
  4023ff:	add    BYTE PTR [ecx],al
  402401:	adc    ch,BYTE PTR [ebp-0x5b66a27a]
  402407:	inc    edi
  402408:	retf   
  402409:	bound  ebx,QWORD PTR [eax-0x2c]
  40240c:	repnz push edx
  40240e:	jbe    0x4023f3
  402410:	ret    
  402411:	call   0x1b4f268
  402416:	cmps   DWORD PTR ds:[esi],DWORD PTR es:[edi]
  402417:	call   FWORD PTR [eax-0x59]
  40241a:	sub    DWORD PTR [edi],eax
  40241c:	leave  
  40241d:	loop   0x4023ba
  40241f:	push   esp
  402420:	pop    eax
  402421:	adc    dh,BYTE PTR [esp+eiz*8]
  402424:	ja     0x40247b
  402426:	sar    bh,1
  402428:	pop    esi
  402429:	lea    eax,[ebp-0x12]
  40242c:	hlt    
  40242d:	test   DWORD PTR [ecx-0x2fdf332c],ecx
  402433:	ficomp WORD PTR [eax+edx*1+0x24]
  402437:	inc    esp
  402438:	add    DWORD PTR [eax],eax
  40243a:	add    BYTE PTR [eax+0x69],ch
  40243d:	add    BYTE PTR [eax],al
  40243f:	add    ah,al
  402441:	xor    si,si
  402444:	xchg   ecx,eax
  402445:	mov    DWORD PTR [ebx],ebp
  402447:	cdq    
  402448:	cmp    eax,0xe255dce0
  40244d:	adc    ah,BYTE PTR [ebp+0x640a6ee7]
  402453:	rol    BYTE PTR [ecx],1
  402455:	sti    
  402456:	out    dx,eax
  402457:	arpl   dx,dx
  402459:	adc    ebp,DWORD PTR [edi-0x1]
  40245c:	mov    DWORD PTR [ebp+0x75],esi
  40245f:	sub    BYTE PTR [ebp-0x13],cl
  402462:	dec    ebx
  402463:	and    eax,0x24523716
  402468:	jns    0x402403
  40246a:	jmp    0x4024e2
  40246c:	loop   0x402481
  40246e:	dec    ebp
  40246f:	movs   DWORD PTR es:[edi],DWORD PTR ds:[esi]
  402470:	xchg   ecx,eax
  402471:	sar    DWORD PTR [ecx+edx*4+0x554b0b6d],cl
  402478:	jno    0x4024f4
  40247a:	sub    esp,ebx
  40247c:	ret    
  40247d:	sub    eax,DWORD PTR [ecx]
  40247f:	mov    dh,0x21
  402481:	call   FWORD PTR [ecx-0x6bdbb010]
  402487:	mov    BYTE PTR [edi+0x0],ch
  40248a:	jge    0x402427
  40248c:	adc    DWORD PTR [eax],eax
  40248e:	aas    
  40248f:	outs   dx,BYTE PTR ds:[esi]
  402490:	imul   ebp,DWORD PTR [eax-0x5a63efab],0x7e
  402497:	in     al,dx
  402498:	jmp    0x8ccc151d
  40249d:	cld    
  40249e:	imul   eax,DWORD PTR [eax],0xdcfc6806
  4024a4:	add    edi,edi
  4024a6:	push   ebp
  4024a7:	and    DWORD PTR [ebx+0x55],ecx
  4024aa:	xchg   edi,eax
  4024ab:	rol    DWORD PTR [ecx+0x6e000068],cl
  4024b1:	push   0x0
  4024b3:	push   0x68
  4024b5:	push   0x8001036a
  4024ba:	aas    
  4024bb:	(bad)  
  4024bc:	test   eax,0xc1c40173
  4024c1:	and    BYTE PTR [edx*2-0x4a66f3c],0x2e
  4024c9:	mov    ds:0x5ec06144,eax
  4024ce:	(bad)  
  4024cf:	aam    0x4a
  4024d1:	jno    0x402505
  4024d3:	into   
  4024d4:	bound  esp,QWORD PTR [ebp+0x76]
  4024d7:	aam    0x1e
  4024d9:	sbb    edx,DWORD PTR [ecx-0x7c]
  4024dc:	sub    ebp,DWORD PTR [ebp+0x52]
  4024df:	pop    edi
  4024e0:	lds    edx,FWORD PTR [edx+0x27b3bc5d]
  4024e6:	dec    esi
  4024e7:	xchg   DWORD PTR [ecx+0x6e],ecx
  4024ea:	mov    eax,0xadfbd425
  4024ef:	jns    0x4024a6
  4024f1:	xchg   ebx,eax
  4024f2:	adc    DWORD PTR [esi],esi
  4024f4:	sub    al,0x8f
  4024f6:	xchg   edx,eax
  4024f7:	lea    esi,[eax-0x5c713a9c]
  4024fd:	cmp    ch,dh
  4024ff:	aas    
  402500:	adc    al,0xa6
  402502:	movs   DWORD PTR es:[edi],DWORD PTR ds:[esi]
  402503:	cmps   BYTE PTR ds:[esi],BYTE PTR es:[edi]
  402504:	lea    esp,[edi-0x3ad51cf8]
  40250a:	add    al,0xd7
  40250c:	jnp    0x4024cb
  40250e:	push   ds
  40250f:	clc    
  402510:	xchg   DWORD PTR [ebx+0x12602],edx
  402516:	add    BYTE PTR [edi+0x1],dh
  40251c:	add    DWORD PTR [eax],eax
  40251e:	add    BYTE PTR [eax],al
  402520:	add    DWORD PTR [eax],eax
  402522:	add    BYTE PTR [eax],al
  402524:	add    DWORD PTR [eax],eax
  402526:	add    BYTE PTR [eax],al
  402528:	add    DWORD PTR [eax],eax
  40252a:	add    BYTE PTR [eax],al
  40252c:	add    esp,ecx
  40252e:	push   0x0
  402530:	add    DWORD PTR [edx-0x14],ebp
  402533:	add    eax,0x42004
  402538:	add    DWORD PTR [edi+0x7b27347b],eax
  40253e:	add    DWORD PTR [eax],0xffffff92
  402541:	push   ds
  402542:	sub    al,0x47
  402544:	movs   DWORD PTR es:[edi],DWORD PTR ds:[esi]
  402545:	xor    BYTE PTR [ebp+eax*1-0x63],0x24
  40254a:	lds    ecx,FWORD PTR [edx-0x3f]
  40254d:	hlt    
  40254e:	xor    al,0x65
  402550:	adc    edi,DWORD PTR [ebx+0x767f1cba]
  402556:	jl     0x40257e
  402558:	or     dl,BYTE PTR [ebx+edx*2]
  40255b:	xchg   DWORD PTR [edx+esi*4-0x68],esp
  40255f:	.byte 0x69
  402560:	.byte 0x11
  402561:	test   DWORD PTR [eax-0x6d],ebx
