
e9bb878baee7f8e284b90ad2d70e088e3e85b0bda6a26d8cd2518d692aa85380.exe:     file format pei-i386


Disassembly of section .text:

00401000 <.text>:
  401000:	mov    edi,edi
  401002:	push   ebp
  401003:	mov    ebp,esp
  401005:	sub    esp,0x28
  401008:	push   edx
  401009:	push   esi
  40100a:	push   ebx
  40100b:	push   DWORD PTR [edx+0x488]
  401011:	call   0x4017a0
  401016:	add    esp,0xc
  401019:	pop    edx
  40101a:	push   edx
  40101b:	mov    esi,0x0
  401020:	push   esi
  401021:	push   0x403038
  401026:	pop    eax
  401027:	call   DWORD PTR cs:[eax]
  40102a:	pop    edx
  40102b:	push   edx
  40102c:	push   0x40300c
  401031:	pop    eax
  401032:	call   DWORD PTR cs:[eax]
  401035:	pop    edx
  401036:	sub    esp,0xffffffd8
  401039:	mov    ebp,DWORD PTR [esp]
  40103c:	add    esp,0x4
  40103f:	ret    
  401040:	mov    edi,edi
  401042:	push   ebp
  401043:	mov    ebp,esp
  401045:	sub    esp,0x4c
  401048:	push   edx
  401049:	push   esi
  40104a:	push   DWORD PTR [edx+0x314]
  401050:	push   DWORD PTR [edx+0x2d4]
  401056:	call   0x401d00
  40105b:	add    esp,0xc
  40105e:	pop    edx
  40105f:	push   edx
  401060:	lea    esi,[edx]
  401062:	push   esi
  401063:	push   0x40301c
  401068:	pop    eax
  401069:	call   DWORD PTR cs:[eax]
  40106c:	test   eax,eax
  40106e:	jne    0x401060
  401070:	pop    edx
  401071:	push   edx
  401072:	push   0x0
  401074:	push   0x403018
  401079:	pop    eax
  40107a:	call   DWORD PTR cs:[eax]
  40107d:	pop    edx
  40107e:	sub    esp,0xffffffb4
  401081:	mov    ebp,DWORD PTR [esp]
  401084:	add    esp,0x4
  401087:	ret    
  401088:	add    BYTE PTR [eax],al
  40108a:	add    BYTE PTR [eax],al
  40108c:	mov    edi,edi
  40108e:	push   ebp
  40108f:	mov    ebp,esp
  401091:	sub    esp,0x54
  401094:	push   edx
  401095:	push   ebx
  401096:	push   esi
  401097:	call   0x4015dc
  40109c:	add    esp,0x8
  40109f:	pop    edx
  4010a0:	push   edx
  4010a1:	mov    ecx,0x0
  4010a6:	push   ecx
  4010a7:	push   0x40304c
  4010ac:	pop    eax
  4010ad:	call   DWORD PTR cs:[eax]
  4010b0:	pop    edx
  4010b1:	push   edx
  4010b2:	lea    ebx,[edx]
  4010b4:	push   ebx
  4010b5:	push   0x40301c
  4010ba:	pop    eax
  4010bb:	call   DWORD PTR cs:[eax]
  4010be:	test   eax,eax
  4010c0:	jne    0x4010b2
  4010c2:	pop    edx
  4010c3:	sub    esp,0xffffffac
  4010c6:	mov    ebp,DWORD PTR [esp]
  4010c9:	add    esp,0x4
  4010cc:	ret    
  4010cd:	add    BYTE PTR [eax],al
  4010cf:	add    BYTE PTR [edi],cl
  4010d1:	or     BYTE PTR [edx+0x0],0x0
  4010d5:	add    BYTE PTR [eax],al
  4010d7:	add    BYTE PTR [ebx-0x1374aa01],cl
  4010dd:	sub    esp,0x24
  4010e0:	push   edx
  4010e1:	push   0x0
  4010e3:	push   0x403080
  4010e8:	pop    eax
  4010e9:	call   DWORD PTR cs:[eax]
  4010ec:	pop    edx
  4010ed:	push   edx
  4010ee:	push   DWORD PTR [edx+0x5fc]
  4010f4:	push   eax
  4010f5:	push   ebx
  4010f6:	push   DWORD PTR [edx+0x1a8]
  4010fc:	call   0x4014b8
  401101:	add    esp,0x10
  401104:	pop    edx
  401105:	push   edx
  401106:	mov    eax,0x0
  40110b:	push   eax
  40110c:	push   0x403084
  401111:	pop    eax
  401112:	call   DWORD PTR cs:[eax]
  401115:	pop    edx
  401116:	sub    esp,0xffffffdc
  401119:	mov    ebp,DWORD PTR [esp]
  40111c:	add    esp,0x4
  40111f:	ret    
  401120:	mov    edi,edi
  401122:	pusha  
  401123:	push   ebp
  401124:	mov    ebp,esp
  401126:	sub    esp,0x34
  401129:	push   edx
  40112a:	mov    eax,0x0
  40112f:	push   eax
  401130:	push   0x40304c
  401135:	pop    eax
  401136:	call   DWORD PTR cs:[eax]
  401139:	pop    edx
  40113a:	test   eax,eax
  40113c:	je     0x40113f
  40113e:	ret    
  40113f:	push   edx
  401140:	push   0x40303c
  401145:	pop    eax
  401146:	call   DWORD PTR cs:[eax]
  401149:	pop    edx
  40114a:	push   edx
  40114b:	push   DWORD PTR [edx+0x548]
  401151:	push   eax
  401152:	push   DWORD PTR [edx+0x51c]
  401158:	push   ecx
  401159:	call   0x4017ec
  40115e:	add    esp,0x10
  401161:	pop    edx
  401162:	mov    ebx,0x40301c
  401167:	mov    ebx,DWORD PTR [ebx]
  401169:	push   ebx
  40116a:	push   DWORD PTR [edx+0x464]
  401170:	pop    ecx
  401171:	call   ecx
  401173:	sub    esp,0xffffffcc
  401176:	mov    ebp,DWORD PTR [esp]
  401179:	add    esp,0x4
  40117c:	ret    
	...
  401191:	add    BYTE PTR [eax],al
  401193:	add    BYTE PTR [ebx-0x1374aa01],cl
  401199:	sub    esp,0x4c
  40119c:	push   edx
  40119d:	mov    esi,0x0
  4011a2:	push   esi
  4011a3:	push   0x403020
  4011a8:	pop    eax
  4011a9:	call   DWORD PTR cs:[eax]
  4011ac:	pop    edx
  4011ad:	push   edx
  4011ae:	push   DWORD PTR [edx+0x214]
  4011b4:	push   ecx
  4011b5:	call   0x401d3c
  4011ba:	add    esp,0x8
  4011bd:	pop    edx
  4011be:	push   edx
  4011bf:	push   0x0
  4011c1:	push   0x403018
  4011c6:	pop    eax
  4011c7:	call   DWORD PTR cs:[eax]
  4011ca:	pop    edx
  4011cb:	sub    esp,0xffffffb4
  4011ce:	mov    ebp,DWORD PTR [esp]
  4011d1:	add    esp,0x4
  4011d4:	ret    
  4011d5:	add    BYTE PTR [eax],al
  4011d7:	add    BYTE PTR [ebx-0x1374aa01],cl
  4011dd:	sub    esp,0x40
  4011e0:	push   edx
  4011e1:	mov    ecx,0x0
  4011e6:	push   ecx
  4011e7:	push   0x403004
  4011ec:	pop    eax
  4011ed:	call   DWORD PTR cs:[eax]
  4011f0:	pop    edx
  4011f1:	push   edx
  4011f2:	push   esi
  4011f3:	push   ecx
  4011f4:	call   0x401000
  4011f9:	add    esp,0x8
  4011fc:	pop    edx
  4011fd:	push   edx
  4011fe:	mov    edi,0x0
  401203:	push   edi
  401204:	push   0x403038
  401209:	pop    eax
  40120a:	call   DWORD PTR cs:[eax]
  40120d:	pop    edx
  40120e:	sub    esp,0xffffffc0
  401211:	mov    ebp,DWORD PTR [esp]
  401214:	add    esp,0x4
  401217:	ret    
	...
  401220:	mov    edi,edi
  401222:	push   ebp
  401223:	mov    ebp,esp
  401225:	sub    esp,0x50
  401228:	push   edx
  401229:	push   ebx
  40122a:	push   DWORD PTR [edx+0xa0]
  401230:	call   0x4019e4
  401235:	add    esp,0x8
  401238:	pop    edx
  401239:	push   edx
  40123a:	lea    esi,[edx]
  40123c:	push   esi
  40123d:	push   0x40301c
  401242:	pop    eax
  401243:	call   DWORD PTR cs:[eax]
  401246:	test   eax,eax
  401248:	jne    0x40123a
  40124a:	pop    edx
  40124b:	push   edx
  40124c:	mov    edx,0x0
  401251:	push   edx
  401252:	push   0x40302c
  401257:	pop    eax
  401258:	call   DWORD PTR cs:[eax]
  40125b:	pop    edx
  40125c:	sub    esp,0xffffffb0
  40125f:	mov    ebp,DWORD PTR [esp]
  401262:	add    esp,0x4
  401265:	ret    
	...
  401276:	add    BYTE PTR [eax],al
  401278:	mov    edi,edi
  40127a:	push   ebp
  40127b:	mov    ebp,esp
  40127d:	sub    esp,0x30
  401280:	push   edx
  401281:	push   0x0
  401283:	push   0x40304c
  401288:	pop    eax
  401289:	call   DWORD PTR cs:[eax]
  40128c:	pop    edx
  40128d:	push   edx
  40128e:	push   eax
  40128f:	push   DWORD PTR [edx+0x45c]
  401295:	push   DWORD PTR [edx+0x370]
  40129b:	call   0x401870
  4012a0:	add    esp,0xc
  4012a3:	pop    edx
  4012a4:	push   edx
  4012a5:	push   0x40300c
  4012aa:	pop    eax
  4012ab:	call   DWORD PTR cs:[eax]
  4012ae:	pop    edx
  4012af:	sub    esp,0xffffffd0
  4012b2:	mov    ebp,DWORD PTR [esp]
  4012b5:	add    esp,0x4
  4012b8:	ret    
  4012b9:	add    BYTE PTR [eax],al
  4012bb:	add    BYTE PTR [eax],al
  4012bd:	add    BYTE PTR [eax],al
  4012bf:	add    BYTE PTR [ebx-0x1374aa01],cl
  4012c5:	sub    esp,0x54
  4012c8:	push   edx
  4012c9:	push   0x0
  4012cb:	push   0x403018
  4012d0:	pop    eax
  4012d1:	call   DWORD PTR cs:[eax]
  4012d4:	pop    edx
  4012d5:	push   edx
  4012d6:	push   edi
  4012d7:	push   DWORD PTR [edx+0x44]
  4012da:	push   ebx
  4012db:	call   0x401b0c
  4012e0:	add    esp,0xc
  4012e3:	pop    edx
  4012e4:	push   edx
  4012e5:	mov    edx,0x0
  4012ea:	push   edx
  4012eb:	push   0x403020
  4012f0:	pop    eax
  4012f1:	call   DWORD PTR cs:[eax]
  4012f4:	pop    edx
  4012f5:	sub    esp,0xffffffac
  4012f8:	mov    ebp,DWORD PTR [esp]
  4012fb:	add    esp,0x4
  4012fe:	ret    
  4012ff:	add    BYTE PTR [eax],al
  401301:	add    BYTE PTR [eax],al
  401303:	add    BYTE PTR [ebx-0x1374aa01],cl
  401309:	sub    esp,0x54
  40130c:	push   edx
  40130d:	push   esi
  40130e:	push   DWORD PTR [edx+0x4]
  401311:	call   0x401040
  401316:	add    esp,0x8
  401319:	pop    edx
  40131a:	push   edx
  40131b:	mov    ebx,0x0
  401320:	push   ebx
  401321:	push   0x40304c
  401326:	pop    eax
  401327:	call   DWORD PTR cs:[eax]
  40132a:	pop    edx
  40132b:	push   edx
  40132c:	mov    esi,0x0
  401331:	push   esi
  401332:	push   0x403080
  401337:	pop    eax
  401338:	call   DWORD PTR cs:[eax]
  40133b:	pop    edx
  40133c:	sub    esp,0xffffffac
  40133f:	mov    ebp,DWORD PTR [esp]
  401342:	add    esp,0x4
  401345:	ret    
  401346:	add    BYTE PTR [eax],al
  401348:	mov    edi,edi
  40134a:	push   ebp
  40134b:	mov    ebp,esp
  40134d:	sub    esp,0x44
  401350:	push   edx
  401351:	push   DWORD PTR [edx+0x170]
  401357:	push   DWORD PTR [edx+0x28]
  40135a:	push   DWORD PTR [edx+0x178]
  401360:	call   0x4019a0
  401365:	add    esp,0xc
  401368:	pop    edx
  401369:	push   edx
  40136a:	mov    ecx,0x0
  40136f:	push   ecx
  401370:	push   0x403080
  401375:	pop    eax
  401376:	call   DWORD PTR cs:[eax]
  401379:	pop    edx
  40137a:	push   edx
  40137b:	push   0x0
  40137d:	push   0x403014
  401382:	pop    eax
  401383:	call   DWORD PTR cs:[eax]
  401386:	pop    edx
  401387:	sub    esp,0xffffffbc
  40138a:	mov    ebp,DWORD PTR [esp]
  40138d:	add    esp,0x4
  401390:	ret    
  401391:	add    BYTE PTR [eax],al
  401393:	add    BYTE PTR [ebx-0x1374aa01],cl
  401399:	sub    esp,0x28
  40139c:	push   edx
  40139d:	push   DWORD PTR [edx+0x90]
  4013a3:	push   DWORD PTR [edx+0x234]
  4013a9:	push   ebx
  4013aa:	push   DWORD PTR [edx+0x178]
  4013b0:	call   0x401278
  4013b5:	add    esp,0x10
  4013b8:	pop    edx
  4013b9:	push   edx
  4013ba:	push   0x40303c
  4013bf:	pop    eax
  4013c0:	call   DWORD PTR cs:[eax]
  4013c3:	pop    edx
  4013c4:	push   edx
  4013c5:	lea    ebx,[edx]
  4013c7:	push   ebx
  4013c8:	push   0x40301c
  4013cd:	pop    eax
  4013ce:	call   DWORD PTR cs:[eax]
  4013d1:	test   eax,eax
  4013d3:	jne    0x4013c5
  4013d5:	pop    edx
  4013d6:	sub    esp,0xffffffd8
  4013d9:	mov    ebp,DWORD PTR [esp]
  4013dc:	add    esp,0x4
  4013df:	ret    
	...
  4013e8:	push   0x0
  4013ea:	add    DWORD PTR [esp],0x47f000
  4013f1:	xor    ecx,ecx
  4013f3:	or     ecx,0x40309c
  4013f9:	and    WORD PTR [ecx],0x0
  4013fd:	push   DWORD PTR [ecx]
  4013ff:	pop    eax
  401400:	mov    edx,eax
  401402:	push   0x3c
  401404:	add    DWORD PTR [esp],eax
  401407:	pop    ecx
  401408:	push   eax
  401409:	mov    edi,esp
  40140b:	mov    esi,ecx
  40140d:	movs   DWORD PTR es:[edi],DWORD PTR ds:[esi]
  40140e:	pop    eax
  40140f:	mov    edx,DWORD PTR [eax+edx*1+0x1c]
  401413:	ror    edx,0x8
  401416:	xor    eax,eax
  401418:	or     al,0x80
  40141a:	cmp    al,dl
  40141c:	pop    edx
  40141d:	ja     0x401428
  40141f:	nop
  401420:	nop
  401421:	nop
  401422:	nop
  401423:	jmp    0x4010d0
  401428:	xor    esp,esp
  40142a:	int3   
  40142b:	int3   
  40142c:	add    BYTE PTR [eax],al
  40142e:	add    BYTE PTR [eax],al
  401430:	mov    edi,edi
  401432:	push   ebp
  401433:	mov    ebp,esp
  401435:	sub    esp,0x48
  401438:	push   edx
  401439:	push   0x40300c
  40143e:	pop    eax
  40143f:	call   DWORD PTR cs:[eax]
  401442:	pop    edx
  401443:	push   edx
  401444:	push   edi
  401445:	push   DWORD PTR [edx+0x3c8]
  40144b:	push   DWORD PTR [edx+0x2b4]
  401451:	call   0x401710
  401456:	add    esp,0xc
  401459:	pop    edx
  40145a:	push   edx
  40145b:	push   0x0
  40145d:	push   0x403004
  401462:	pop    eax
  401463:	call   DWORD PTR cs:[eax]
  401466:	pop    edx
  401467:	sub    esp,0xffffffb8
  40146a:	mov    ebp,DWORD PTR [esp]
  40146d:	add    esp,0x4
  401470:	ret    
  401471:	add    BYTE PTR [eax],al
  401473:	add    BYTE PTR [ebx-0x1374aa01],cl
  401479:	sub    esp,0x30
  40147c:	push   edx
  40147d:	push   DWORD PTR [edx+0x4f4]
  401483:	push   DWORD PTR [edx+0x324]
  401489:	call   0x401504
  40148e:	add    esp,0x8
  401491:	pop    edx
  401492:	push   edx
  401493:	push   0x0
  401495:	push   0x40302c
  40149a:	pop    eax
  40149b:	call   DWORD PTR cs:[eax]
  40149e:	pop    edx
  40149f:	push   edx
  4014a0:	push   0x0
  4014a2:	push   0x403038
  4014a7:	pop    eax
  4014a8:	call   DWORD PTR cs:[eax]
  4014ab:	pop    edx
  4014ac:	sub    esp,0xffffffd0
  4014af:	mov    ebp,DWORD PTR [esp]
  4014b2:	add    esp,0x4
  4014b5:	ret    
  4014b6:	add    BYTE PTR [eax],al
  4014b8:	mov    edi,edi
  4014ba:	push   ebp
  4014bb:	mov    ebp,esp
  4014bd:	sub    esp,0x48
  4014c0:	push   edx
  4014c1:	push   0x0
  4014c3:	push   0x403020
  4014c8:	pop    eax
  4014c9:	call   DWORD PTR cs:[eax]
  4014cc:	pop    edx
  4014cd:	push   edx
  4014ce:	push   eax
  4014cf:	push   ecx
  4014d0:	push   esi
  4014d1:	push   DWORD PTR [edx+0x540]
  4014d7:	call   0x401348
  4014dc:	add    esp,0x10
  4014df:	pop    edx
  4014e0:	push   edx
  4014e1:	mov    eax,0x0
  4014e6:	push   eax
  4014e7:	push   0x40306c
  4014ec:	pop    eax
  4014ed:	call   DWORD PTR cs:[eax]
  4014f0:	pop    edx
  4014f1:	sub    esp,0xffffffb8
  4014f4:	mov    ebp,DWORD PTR [esp]
  4014f7:	add    esp,0x4
  4014fa:	ret    
	...
  401503:	add    BYTE PTR [ebx-0x1374aa01],cl
  401509:	sub    esp,0x48
  40150c:	push   edx
  40150d:	push   esi
  40150e:	push   DWORD PTR [edx+0x150]
  401514:	push   eax
  401515:	call   0x401594
  40151a:	add    esp,0xc
  40151d:	pop    edx
  40151e:	push   edx
  40151f:	mov    eax,0x0
  401524:	push   eax
  401525:	push   0x403010
  40152a:	pop    eax
  40152b:	call   DWORD PTR cs:[eax]
  40152e:	pop    edx
  40152f:	push   edx
  401530:	mov    eax,0x0
  401535:	push   eax
  401536:	push   0x403014
  40153b:	pop    eax
  40153c:	call   DWORD PTR cs:[eax]
  40153f:	pop    edx
  401540:	sub    esp,0xffffffb8
  401543:	mov    ebp,DWORD PTR [esp]
  401546:	add    esp,0x4
  401549:	ret    
  40154a:	add    BYTE PTR [eax],al
  40154c:	mov    edi,edi
  40154e:	push   ebp
  40154f:	mov    ebp,esp
  401551:	sub    esp,0x48
  401554:	push   edx
  401555:	push   0x0
  401557:	push   0x403004
  40155c:	pop    eax
  40155d:	call   DWORD PTR cs:[eax]
  401560:	pop    edx
  401561:	push   edx
  401562:	push   DWORD PTR [edx+0x4f8]
  401568:	push   DWORD PTR [edx+0x2ec]
  40156e:	call   0x401c30
  401573:	add    esp,0x8
  401576:	pop    edx
  401577:	push   edx
  401578:	mov    ebx,0x0
  40157d:	push   ebx
  40157e:	push   0x403000
  401583:	pop    eax
  401584:	call   DWORD PTR cs:[eax]
  401587:	pop    edx
  401588:	sub    esp,0xffffffb8
  40158b:	mov    ebp,DWORD PTR [esp]
  40158e:	add    esp,0x4
  401591:	ret    
  401592:	add    BYTE PTR [eax],al
  401594:	mov    edi,edi
  401596:	push   ebp
  401597:	mov    ebp,esp
  401599:	sub    esp,0x48
  40159c:	push   edx
  40159d:	push   ebx
  40159e:	push   DWORD PTR [edx+0x4f8]
  4015a4:	push   DWORD PTR [edx+0x6c]
  4015a7:	push   ecx
  4015a8:	call   0x401e30
  4015ad:	add    esp,0x10
  4015b0:	pop    edx
  4015b1:	push   edx
  4015b2:	mov    ebx,0x0
  4015b7:	push   ebx
  4015b8:	push   0x403014
  4015bd:	pop    eax
  4015be:	call   DWORD PTR cs:[eax]
  4015c1:	pop    edx
  4015c2:	push   edx
  4015c3:	push   0x0
  4015c5:	push   0x40306c
  4015ca:	pop    eax
  4015cb:	call   DWORD PTR cs:[eax]
  4015ce:	pop    edx
  4015cf:	sub    esp,0xffffffb8
  4015d2:	mov    ebp,DWORD PTR [esp]
  4015d5:	add    esp,0x4
  4015d8:	ret    
  4015d9:	add    BYTE PTR [eax],al
  4015db:	add    BYTE PTR [ebx-0x1374aa01],cl
  4015e1:	sub    esp,0x3c
  4015e4:	push   edx
  4015e5:	push   0x40303c
  4015ea:	pop    eax
  4015eb:	call   DWORD PTR cs:[eax]
  4015ee:	pop    edx
  4015ef:	push   edx
  4015f0:	push   DWORD PTR [edx+0x184]
  4015f6:	push   DWORD PTR [edx+0x3ac]
  4015fc:	push   esi
  4015fd:	push   DWORD PTR [edx+0x2b4]
  401603:	call   0x40154c
  401608:	add    esp,0x10
  40160b:	pop    edx
  40160c:	push   edx
  40160d:	mov    ebx,0x0
  401612:	push   ebx
  401613:	push   0x40306c
  401618:	pop    eax
  401619:	call   DWORD PTR cs:[eax]
  40161c:	pop    edx
  40161d:	sub    esp,0xffffffc4
  401620:	mov    ebp,DWORD PTR [esp]
  401623:	add    esp,0x4
  401626:	ret    
  401627:	add    BYTE PTR [ebx-0x1374aa01],cl
  40162d:	sub    esp,0x44
  401630:	push   edx
  401631:	push   0x0
  401633:	push   0x403004
  401638:	pop    eax
  401639:	call   DWORD PTR cs:[eax]
  40163c:	pop    edx
  40163d:	push   edx
  40163e:	push   DWORD PTR [edx+0x428]
  401644:	push   ebx
  401645:	push   ebx
  401646:	push   DWORD PTR [edx+0x4a4]
  40164c:	call   0x401ddc
  401651:	add    esp,0x10
  401654:	pop    edx
  401655:	push   edx
  401656:	mov    esi,0x0
  40165b:	push   esi
  40165c:	push   0x403004
  401661:	pop    eax
  401662:	call   DWORD PTR cs:[eax]
  401665:	pop    edx
  401666:	sub    esp,0xffffffbc
  401669:	mov    ebp,DWORD PTR [esp]
  40166c:	add    esp,0x4
  40166f:	ret    
  401670:	add    BYTE PTR [eax],al
  401672:	add    BYTE PTR [eax],al
  401674:	mov    edi,edi
  401676:	push   ebp
  401677:	mov    ebp,esp
  401679:	sub    esp,0x24
  40167c:	push   edx
  40167d:	mov    ebx,0x6b0
  401682:	push   ebx
  401683:	push   0x6b0
  401688:	push   0x40000
  40168d:	push   0x403024
  401692:	pop    ebx
  401693:	push   DWORD PTR [ebx]
  401695:	sub    DWORD PTR [esp],0x2
  401699:	push   0x403040
  40169e:	pop    ebx
  40169f:	pop    DWORD PTR [ebx]
  4016a1:	push   0x403040
  4016a6:	pop    eax
  4016a7:	call   DWORD PTR cs:[eax]
  4016aa:	xchg   DWORD PTR [esp],eax
  4016ad:	mov    edx,eax
  4016af:	pop    edi
  4016b0:	mov    DWORD PTR [edx+0x464],edi
  4016b6:	mov    eax,DWORD PTR [edx+0x464]
  4016bc:	lea    ebx,[eax]
  4016be:	sub    ecx,ecx
  4016c0:	dec    ecx
  4016c1:	and    ecx,0x401ed5
  4016c7:	mov    edi,DWORD PTR [ecx]
  4016c9:	mov    DWORD PTR [ebx],edi
  4016cb:	add    ecx,0x3
  4016ce:	add    ebx,0x3
  4016d1:	mov    edi,0x6a719112
  4016d6:	xor    esi,esi
  4016d8:	mov    eax,edi
  4016da:	xor    eax,DWORD PTR [ecx]
  4016dc:	sub    eax,0x1
  4016df:	mov    DWORD PTR [ebx],eax
  4016e1:	push   DWORD PTR [ebx]
  4016e3:	mov    edi,0xfffffffc
  4016e8:	sub    ecx,edi
  4016ea:	sub    ebx,edi
  4016ec:	pop    edi
  4016ed:	bswap  edi
  4016ef:	add    esi,0x4
  4016f2:	cmp    esi,0x6b0
  4016f8:	jne    0x4016d8
  4016fa:	push   edx
  4016fb:	push   0x0
  4016fd:	push   0x403010
  401702:	pop    eax
  401703:	call   DWORD PTR cs:[eax]
  401706:	pop    edx
  401707:	sub    esp,0xffffffdc
  40170a:	pop    ebp
  40170b:	ret    
  40170c:	add    BYTE PTR [eax],al
  40170e:	add    BYTE PTR [eax],al
  401710:	mov    edi,edi
  401712:	push   ebp
  401713:	mov    ebp,esp
  401715:	sub    esp,0x50
  401718:	push   edx
  401719:	push   esi
  40171a:	push   DWORD PTR [edx+0x1b4]
  401720:	call   0x401cb4
  401725:	add    esp,0x8
  401728:	pop    edx
  401729:	push   edx
  40172a:	push   0x40303c
  40172f:	pop    eax
  401730:	call   DWORD PTR cs:[eax]
  401733:	pop    edx
  401734:	push   edx
  401735:	push   0x0
  401737:	push   0x40302c
  40173c:	pop    eax
  40173d:	call   DWORD PTR cs:[eax]
  401740:	pop    edx
  401741:	sub    esp,0xffffffb0
  401744:	mov    ebp,DWORD PTR [esp]
  401747:	add    esp,0x4
  40174a:	ret    
  40174b:	add    BYTE PTR [ebx-0x1374aa01],cl
  401751:	sub    esp,0x4c
  401754:	push   edx
  401755:	push   0x0
  401757:	push   0x403014
  40175c:	pop    eax
  40175d:	call   DWORD PTR cs:[eax]
  401760:	pop    edx
  401761:	push   edx
  401762:	push   DWORD PTR [edx+0x514]
  401768:	push   ebx
  401769:	push   DWORD PTR [edx+0x3f0]
  40176f:	push   DWORD PTR [edx+0x5a4]
  401775:	call   0x401c74
  40177a:	add    esp,0x10
  40177d:	pop    edx
  40177e:	push   edx
  40177f:	lea    esi,[edx]
  401781:	push   esi
  401782:	push   0x40301c
  401787:	pop    eax
  401788:	call   DWORD PTR cs:[eax]
  40178b:	test   eax,eax
  40178d:	jne    0x40177f
  40178f:	pop    edx
  401790:	sub    esp,0xffffffb4
  401793:	mov    ebp,DWORD PTR [esp]
  401796:	add    esp,0x4
  401799:	ret    
  40179a:	add    BYTE PTR [eax],al
  40179c:	add    BYTE PTR [eax],al
  40179e:	add    BYTE PTR [eax],al
  4017a0:	mov    edi,edi
  4017a2:	push   ebp
  4017a3:	mov    ebp,esp
  4017a5:	sub    esp,0x3c
  4017a8:	push   edx
  4017a9:	push   DWORD PTR [edx+0x268]
  4017af:	push   DWORD PTR [edx+0x110]
  4017b5:	call   0x401628
  4017ba:	add    esp,0x8
  4017bd:	pop    edx
  4017be:	push   edx
  4017bf:	mov    ebx,0x0
  4017c4:	push   ebx
  4017c5:	push   0x40306c
  4017ca:	pop    eax
  4017cb:	call   DWORD PTR cs:[eax]
  4017ce:	pop    edx
  4017cf:	push   edx
  4017d0:	push   0x0
  4017d2:	push   0x403084
  4017d7:	pop    eax
  4017d8:	call   DWORD PTR cs:[eax]
  4017db:	pop    edx
  4017dc:	sub    esp,0xffffffc4
  4017df:	mov    ebp,DWORD PTR [esp]
  4017e2:	add    esp,0x4
  4017e5:	ret    
  4017e6:	add    BYTE PTR [eax],al
  4017e8:	add    BYTE PTR [eax],al
  4017ea:	add    BYTE PTR [eax],al
  4017ec:	mov    edi,edi
  4017ee:	push   ebp
  4017ef:	mov    ebp,esp
  4017f1:	sub    esp,0x28
  4017f4:	push   edx
  4017f5:	push   0x0
  4017f7:	push   0x403084
  4017fc:	pop    eax
  4017fd:	call   DWORD PTR cs:[eax]
  401800:	pop    edx
  401801:	push   edx
  401802:	push   eax
  401803:	push   edi
  401804:	push   DWORD PTR [edx+0x68]
  401807:	call   0x4012c0
  40180c:	add    esp,0xc
  40180f:	pop    edx
  401810:	push   edx
  401811:	mov    edx,0x0
  401816:	push   edx
  401817:	push   0x403084
  40181c:	pop    eax
  40181d:	call   DWORD PTR cs:[eax]
  401820:	pop    edx
  401821:	sub    esp,0xffffffd8
  401824:	mov    ebp,DWORD PTR [esp]
  401827:	add    esp,0x4
  40182a:	ret    
  40182b:	add    BYTE PTR [ebx-0x1374aa01],cl
  401831:	sub    esp,0x2c
  401834:	push   edx
  401835:	push   DWORD PTR [edx+0x50]
  401838:	push   DWORD PTR [edx+0x94]
  40183e:	call   0x401900
  401843:	add    esp,0x8
  401846:	pop    edx
  401847:	push   edx
  401848:	lea    ebx,[edx]
  40184a:	push   ebx
  40184b:	push   0x40301c
  401850:	pop    eax
  401851:	call   DWORD PTR cs:[eax]
  401854:	test   eax,eax
  401856:	jne    0x401848
  401858:	pop    edx
  401859:	push   edx
  40185a:	push   0x0
  40185c:	push   0x40304c
  401861:	pop    eax
  401862:	call   DWORD PTR cs:[eax]
  401865:	pop    edx
  401866:	sub    esp,0xffffffd4
  401869:	mov    ebp,DWORD PTR [esp]
  40186c:	add    esp,0x4
  40186f:	ret    
  401870:	mov    edi,edi
  401872:	push   ebp
  401873:	mov    ebp,esp
  401875:	sub    esp,0x48
  401878:	push   edx
  401879:	push   DWORD PTR [edx+0x214]
  40187f:	push   ecx
  401880:	push   DWORD PTR [edx+0x27c]
  401886:	call   0x401b9c
  40188b:	add    esp,0xc
  40188e:	pop    edx
  40188f:	push   edx
  401890:	push   0x0
  401892:	push   0x403014
  401897:	pop    eax
  401898:	call   DWORD PTR cs:[eax]
  40189b:	pop    edx
  40189c:	push   edx
  40189d:	mov    ecx,0x0
  4018a2:	push   ecx
  4018a3:	push   0x403004
  4018a8:	pop    eax
  4018a9:	call   DWORD PTR cs:[eax]
  4018ac:	pop    edx
  4018ad:	sub    esp,0xffffffb8
  4018b0:	mov    ebp,DWORD PTR [esp]
  4018b3:	add    esp,0x4
  4018b6:	ret    
  4018b7:	add    BYTE PTR [eax],al
  4018b9:	add    BYTE PTR [eax],al
  4018bb:	add    BYTE PTR [ebx-0x1374aa01],cl
  4018c1:	sub    esp,0x28
  4018c4:	push   edx
  4018c5:	push   DWORD PTR [edx+0x38]
  4018c8:	push   edi
  4018c9:	push   esi
  4018ca:	call   0x401194
  4018cf:	add    esp,0xc
  4018d2:	pop    edx
  4018d3:	push   edx
  4018d4:	mov    esi,0x0
  4018d9:	push   esi
  4018da:	push   0x403000
  4018df:	pop    eax
  4018e0:	call   DWORD PTR cs:[eax]
  4018e3:	pop    edx
  4018e4:	push   edx
  4018e5:	mov    ecx,0x0
  4018ea:	push   ecx
  4018eb:	push   0x403014
  4018f0:	pop    eax
  4018f1:	call   DWORD PTR cs:[eax]
  4018f4:	pop    edx
  4018f5:	sub    esp,0xffffffd8
  4018f8:	mov    ebp,DWORD PTR [esp]
  4018fb:	add    esp,0x4
  4018fe:	ret    
  4018ff:	add    BYTE PTR [ebx-0x1374aa01],cl
  401905:	sub    esp,0x38
  401908:	push   edx
  401909:	push   DWORD PTR [edx+0x378]
  40190f:	push   DWORD PTR [edx+0x434]
  401915:	push   DWORD PTR [edx+0x5b8]
  40191b:	push   edi
  40191c:	call   0x401e7c
  401921:	add    esp,0x10
  401924:	pop    edx
  401925:	push   edx
  401926:	mov    esi,0x0
  40192b:	push   esi
  40192c:	push   0x403080
  401931:	pop    eax
  401932:	call   DWORD PTR cs:[eax]
  401935:	pop    edx
  401936:	push   edx
  401937:	mov    edx,0x0
  40193c:	push   edx
  40193d:	push   0x403038
  401942:	pop    eax
  401943:	call   DWORD PTR cs:[eax]
  401946:	pop    edx
  401947:	sub    esp,0xffffffc8
  40194a:	mov    ebp,DWORD PTR [esp]
  40194d:	add    esp,0x4
  401950:	ret    
  401951:	add    BYTE PTR [eax],al
  401953:	add    BYTE PTR [ebx-0x1374aa01],cl
  401959:	sub    esp,0x48
  40195c:	push   edx
  40195d:	push   0x0
  40195f:	push   0x40302c
  401964:	pop    eax
  401965:	call   DWORD PTR cs:[eax]
  401968:	pop    edx
  401969:	push   edx
  40196a:	push   DWORD PTR [edx+0x5e4]
  401970:	push   edi
  401971:	call   0x401d90
  401976:	add    esp,0x8
  401979:	pop    edx
  40197a:	push   edx
  40197b:	mov    ebx,0x0
  401980:	push   ebx
  401981:	push   0x403010
  401986:	pop    eax
  401987:	call   DWORD PTR cs:[eax]
  40198a:	pop    edx
  40198b:	sub    esp,0xffffffb8
  40198e:	mov    ebp,DWORD PTR [esp]
  401991:	add    esp,0x4
  401994:	ret    
	...
  40199d:	add    BYTE PTR [eax],al
  40199f:	add    BYTE PTR [ebx-0x1374aa01],cl
  4019a5:	sub    esp,0x4c
  4019a8:	push   edx
  4019a9:	push   eax
  4019aa:	push   DWORD PTR [edx]
  4019ac:	push   ebx
  4019ad:	push   DWORD PTR [edx+0x280]
  4019b3:	call   0x401430
  4019b8:	add    esp,0x10
  4019bb:	pop    edx
  4019bc:	push   edx
  4019bd:	mov    esi,0x0
  4019c2:	push   esi
  4019c3:	push   0x403010
  4019c8:	pop    eax
  4019c9:	call   DWORD PTR cs:[eax]
  4019cc:	pop    edx
  4019cd:	push   edx
  4019ce:	push   0x0
  4019d0:	push   0x403084
  4019d5:	pop    eax
  4019d6:	call   DWORD PTR cs:[eax]
  4019d9:	pop    edx
  4019da:	sub    esp,0xffffffb4
  4019dd:	mov    ebp,DWORD PTR [esp]
  4019e0:	add    esp,0x4
  4019e3:	ret    
  4019e4:	mov    edi,edi
  4019e6:	push   ebp
  4019e7:	mov    ebp,esp
  4019e9:	sub    esp,0x30
  4019ec:	push   edx
  4019ed:	push   DWORD PTR [edx+0x540]
  4019f3:	push   esi
  4019f4:	push   DWORD PTR [edx+0x258]
  4019fa:	call   0x401954
  4019ff:	add    esp,0xc
  401a02:	pop    edx
  401a03:	push   edx
  401a04:	push   0x0
  401a06:	push   0x40306c
  401a0b:	pop    eax
  401a0c:	call   DWORD PTR cs:[eax]
  401a0f:	pop    edx
  401a10:	push   edx
  401a11:	push   0x0
  401a13:	push   0x40304c
  401a18:	pop    eax
  401a19:	call   DWORD PTR cs:[eax]
  401a1c:	pop    edx
  401a1d:	sub    esp,0xffffffd0
  401a20:	mov    ebp,DWORD PTR [esp]
  401a23:	add    esp,0x4
  401a26:	ret    
  401a27:	add    BYTE PTR [eax],al
  401a29:	add    BYTE PTR [eax],al
  401a2b:	add    BYTE PTR [ebx-0x1374aa01],cl
  401a31:	sub    esp,0x3c
  401a34:	push   edx
  401a35:	push   DWORD PTR [edx+0x5d4]
  401a3b:	push   ecx
  401a3c:	call   0x401b50
  401a41:	add    esp,0x8
  401a44:	pop    edx
  401a45:	push   edx
  401a46:	push   0x0
  401a48:	push   0x40306c
  401a4d:	pop    eax
  401a4e:	call   DWORD PTR cs:[eax]
  401a51:	pop    edx
  401a52:	push   edx
  401a53:	lea    esi,[edx]
  401a55:	push   esi
  401a56:	push   0x40301c
  401a5b:	pop    eax
  401a5c:	call   DWORD PTR cs:[eax]
  401a5f:	test   eax,eax
  401a61:	jne    0x401a53
  401a63:	pop    edx
  401a64:	sub    esp,0xffffffc4
  401a67:	mov    ebp,DWORD PTR [esp]
  401a6a:	add    esp,0x4
  401a6d:	ret    
  401a6e:	add    BYTE PTR [eax],al
  401a70:	mov    edi,edi
  401a72:	push   ebp
  401a73:	mov    ebp,esp
  401a75:	sub    esp,0x30
  401a78:	push   edx
  401a79:	push   DWORD PTR [edx+0x22c]
  401a7f:	push   ebx
  401a80:	push   DWORD PTR [edx+0x33c]
  401a86:	push   ecx
  401a87:	call   0x40108c
  401a8c:	add    esp,0x10
  401a8f:	pop    edx
  401a90:	push   edx
  401a91:	mov    edi,0x0
  401a96:	push   edi
  401a97:	push   0x403084
  401a9c:	pop    eax
  401a9d:	call   DWORD PTR cs:[eax]
  401aa0:	pop    edx
  401aa1:	push   edx
  401aa2:	push   0x0
  401aa4:	push   0x403000
  401aa9:	pop    eax
  401aaa:	call   DWORD PTR cs:[eax]
  401aad:	pop    edx
  401aae:	sub    esp,0xffffffd0
  401ab1:	mov    ebp,DWORD PTR [esp]
  401ab4:	add    esp,0x4
  401ab7:	ret    
	...
  401ac4:	mov    edi,edi
  401ac6:	push   ebp
  401ac7:	mov    ebp,esp
  401ac9:	sub    esp,0x34
  401acc:	push   edx
  401acd:	mov    edi,0x0
  401ad2:	push   edi
  401ad3:	push   0x403020
  401ad8:	pop    eax
  401ad9:	call   DWORD PTR cs:[eax]
  401adc:	pop    edx
  401add:	push   edx
  401ade:	push   esi
  401adf:	push   DWORD PTR [edx+0x1ec]
  401ae5:	push   edi
  401ae6:	push   DWORD PTR [edx+0xe4]
  401aec:	call   0x401be4
  401af1:	add    esp,0x10
  401af4:	pop    edx
  401af5:	push   edx
  401af6:	push   0x40303c
  401afb:	pop    eax
  401afc:	call   DWORD PTR cs:[eax]
  401aff:	pop    edx
  401b00:	sub    esp,0xffffffcc
  401b03:	mov    ebp,DWORD PTR [esp]
  401b06:	add    esp,0x4
  401b09:	ret    
  401b0a:	add    BYTE PTR [eax],al
  401b0c:	mov    edi,edi
  401b0e:	push   ebp
  401b0f:	mov    ebp,esp
  401b11:	sub    esp,0x60
  401b14:	push   edx
  401b15:	push   DWORD PTR [edx+0x4c8]
  401b1b:	push   DWORD PTR [edx+0x270]
  401b21:	push   esi
  401b22:	call   0x401220
  401b27:	add    esp,0xc
  401b2a:	pop    edx
  401b2b:	push   edx
  401b2c:	push   0x0
  401b2e:	push   0x40304c
  401b33:	pop    eax
  401b34:	call   DWORD PTR cs:[eax]
  401b37:	pop    edx
  401b38:	push   edx
  401b39:	push   0x0
  401b3b:	push   0x403084
  401b40:	pop    eax
  401b41:	call   DWORD PTR cs:[eax]
  401b44:	pop    edx
  401b45:	sub    esp,0xffffffa0
  401b48:	mov    ebp,DWORD PTR [esp]
  401b4b:	add    esp,0x4
  401b4e:	ret    
  401b4f:	add    BYTE PTR [ebx-0x1374aa01],cl
  401b55:	sub    esp,0x5c
  401b58:	push   edx
  401b59:	push   ebx
  401b5a:	push   eax
  401b5b:	push   DWORD PTR [edx+0xb0]
  401b61:	push   edi
  401b62:	call   0x4018bc
  401b67:	add    esp,0x10
  401b6a:	pop    edx
  401b6b:	push   edx
  401b6c:	mov    ecx,0x0
  401b71:	push   ecx
  401b72:	push   0x40306c
  401b77:	pop    eax
  401b78:	call   DWORD PTR cs:[eax]
  401b7b:	pop    edx
  401b7c:	push   edx
  401b7d:	lea    edi,[edx]
  401b7f:	push   edi
  401b80:	push   0x40301c
  401b85:	pop    eax
  401b86:	call   DWORD PTR cs:[eax]
  401b89:	test   eax,eax
  401b8b:	jne    0x401b7d
  401b8d:	pop    edx
  401b8e:	sub    esp,0xffffffa4
  401b91:	mov    ebp,DWORD PTR [esp]
  401b94:	add    esp,0x4
  401b97:	ret    
  401b98:	add    BYTE PTR [eax],al
  401b9a:	add    BYTE PTR [eax],al
  401b9c:	mov    edi,edi
  401b9e:	push   ebp
  401b9f:	mov    ebp,esp
  401ba1:	sub    esp,0x3c
  401ba4:	push   edx
  401ba5:	push   DWORD PTR [edx+0x2c4]
  401bab:	push   ecx
  401bac:	push   DWORD PTR [edx+0x2b0]
  401bb2:	push   ebx
  401bb3:	call   0x40182c
  401bb8:	add    esp,0x10
  401bbb:	pop    edx
  401bbc:	push   edx
  401bbd:	mov    edi,0x0
  401bc2:	push   edi
  401bc3:	push   0x403000
  401bc8:	pop    eax
  401bc9:	call   DWORD PTR cs:[eax]
  401bcc:	pop    edx
  401bcd:	push   edx
  401bce:	push   0x0
  401bd0:	push   0x403004
  401bd5:	pop    eax
  401bd6:	call   DWORD PTR cs:[eax]
  401bd9:	pop    edx
  401bda:	sub    esp,0xffffffc4
  401bdd:	mov    ebp,DWORD PTR [esp]
  401be0:	add    esp,0x4
  401be3:	ret    
  401be4:	mov    edi,edi
  401be6:	push   ebp
  401be7:	mov    ebp,esp
  401be9:	sub    esp,0x38
  401bec:	push   edx
  401bed:	push   DWORD PTR [edx+0x1f4]
  401bf3:	push   DWORD PTR [edx+0x3c0]
  401bf9:	call   0x401a2c
  401bfe:	add    esp,0x8
  401c01:	pop    edx
  401c02:	push   edx
  401c03:	mov    eax,0x0
  401c08:	push   eax
  401c09:	push   0x403014
  401c0e:	pop    eax
  401c0f:	call   DWORD PTR cs:[eax]
  401c12:	pop    edx
  401c13:	push   edx
  401c14:	push   0x40303c
  401c19:	pop    eax
  401c1a:	call   DWORD PTR cs:[eax]
  401c1d:	pop    edx
  401c1e:	sub    esp,0xffffffc8
  401c21:	mov    ebp,DWORD PTR [esp]
  401c24:	add    esp,0x4
  401c27:	ret    
	...
  401c30:	mov    edi,edi
  401c32:	push   ebp
  401c33:	mov    ebp,esp
  401c35:	sub    esp,0x1c
  401c38:	push   edx
  401c39:	push   DWORD PTR [edx+0x50]
  401c3c:	push   ebx
  401c3d:	push   eax
  401c3e:	push   edi
  401c3f:	call   0x401304
  401c44:	add    esp,0x10
  401c47:	pop    edx
  401c48:	push   edx
  401c49:	mov    edi,0x0
  401c4e:	push   edi
  401c4f:	push   0x403038
  401c54:	pop    eax
  401c55:	call   DWORD PTR cs:[eax]
  401c58:	pop    edx
  401c59:	push   edx
  401c5a:	push   0x40300c
  401c5f:	pop    eax
  401c60:	call   DWORD PTR cs:[eax]
  401c63:	pop    edx
  401c64:	sub    esp,0xffffffe4
  401c67:	mov    ebp,DWORD PTR [esp]
  401c6a:	add    esp,0x4
  401c6d:	ret    
  401c6e:	add    BYTE PTR [eax],al
  401c70:	add    BYTE PTR [eax],al
  401c72:	add    BYTE PTR [eax],al
  401c74:	mov    edi,edi
  401c76:	push   ebp
  401c77:	mov    ebp,esp
  401c79:	sub    esp,0x44
  401c7c:	push   edx
  401c7d:	push   0x0
  401c7f:	push   0x403018
  401c84:	pop    eax
  401c85:	call   DWORD PTR cs:[eax]
  401c88:	pop    edx
  401c89:	push   edx
  401c8a:	push   ecx
  401c8b:	push   DWORD PTR [edx+0x144]
  401c91:	push   esi
  401c92:	push   eax
  401c93:	call   0x401674
  401c98:	add    esp,0x10
  401c9b:	pop    edx
  401c9c:	push   edx
  401c9d:	push   0x0
  401c9f:	push   0x403010
  401ca4:	pop    eax
  401ca5:	call   DWORD PTR cs:[eax]
  401ca8:	pop    edx
  401ca9:	sub    esp,0xffffffbc
  401cac:	mov    ebp,DWORD PTR [esp]
  401caf:	add    esp,0x4
  401cb2:	ret    
  401cb3:	add    BYTE PTR [ebx-0x1374aa01],cl
  401cb9:	sub    esp,0x2c
  401cbc:	push   edx
  401cbd:	push   DWORD PTR [edx+0x3dc]
  401cc3:	push   ebx
  401cc4:	push   DWORD PTR [edx+0x250]
  401cca:	call   0x4011d8
  401ccf:	add    esp,0xc
  401cd2:	pop    edx
  401cd3:	push   edx
  401cd4:	lea    ecx,[edx]
  401cd6:	push   ecx
  401cd7:	push   0x40301c
  401cdc:	pop    eax
  401cdd:	call   DWORD PTR cs:[eax]
  401ce0:	test   eax,eax
  401ce2:	jne    0x401cd4
  401ce4:	pop    edx
  401ce5:	push   edx
  401ce6:	mov    edi,0x0
  401ceb:	push   edi
  401cec:	push   0x403014
  401cf1:	pop    eax
  401cf2:	call   DWORD PTR cs:[eax]
  401cf5:	pop    edx
  401cf6:	sub    esp,0xffffffd4
  401cf9:	mov    ebp,DWORD PTR [esp]
  401cfc:	add    esp,0x4
  401cff:	ret    
  401d00:	mov    edi,edi
  401d02:	push   ebp
  401d03:	mov    ebp,esp
  401d05:	sub    esp,0x48
  401d08:	push   edx
  401d09:	mov    edi,0x0
  401d0e:	push   edi
  401d0f:	push   0x40304c
  401d14:	pop    eax
  401d15:	call   DWORD PTR cs:[eax]
  401d18:	pop    edx
  401d19:	push   edx
  401d1a:	push   edi
  401d1b:	push   ebx
  401d1c:	call   0x4010d8
  401d21:	add    esp,0x8
  401d24:	pop    edx
  401d25:	push   edx
  401d26:	push   0x40300c
  401d2b:	pop    eax
  401d2c:	call   DWORD PTR cs:[eax]
  401d2f:	pop    edx
  401d30:	sub    esp,0xffffffb8
  401d33:	mov    ebp,DWORD PTR [esp]
  401d36:	add    esp,0x4
  401d39:	ret    
  401d3a:	add    BYTE PTR [eax],al
  401d3c:	mov    edi,edi
  401d3e:	push   ebp
  401d3f:	mov    ebp,esp
  401d41:	sub    esp,0x54
  401d44:	push   edx
  401d45:	push   DWORD PTR [edx+0x44]
  401d48:	push   DWORD PTR [edx+0x3ec]
  401d4e:	call   0x401394
  401d53:	add    esp,0x8
  401d56:	pop    edx
  401d57:	push   edx
  401d58:	mov    ecx,0x0
  401d5d:	push   ecx
  401d5e:	push   0x403020
  401d63:	pop    eax
  401d64:	call   DWORD PTR cs:[eax]
  401d67:	pop    edx
  401d68:	push   edx
  401d69:	mov    ecx,0x0
  401d6e:	push   ecx
  401d6f:	push   0x403038
  401d74:	pop    eax
  401d75:	call   DWORD PTR cs:[eax]
  401d78:	pop    edx
  401d79:	sub    esp,0xffffffac
  401d7c:	mov    ebp,DWORD PTR [esp]
  401d7f:	add    esp,0x4
  401d82:	ret    
	...
  401d8f:	add    BYTE PTR [ebx-0x1374aa01],cl
  401d95:	sub    esp,0x40
  401d98:	push   edx
  401d99:	push   ebx
  401d9a:	push   DWORD PTR [edx+0x4cc]
  401da0:	call   0x401474
  401da5:	add    esp,0x8
  401da8:	pop    edx
  401da9:	push   edx
  401daa:	mov    edi,0x0
  401daf:	push   edi
  401db0:	push   0x403000
  401db5:	pop    eax
  401db6:	call   DWORD PTR cs:[eax]
  401db9:	pop    edx
  401dba:	push   edx
  401dbb:	mov    ebx,0x0
  401dc0:	push   ebx
  401dc1:	push   0x403010
  401dc6:	pop    eax
  401dc7:	call   DWORD PTR cs:[eax]
  401dca:	pop    edx
  401dcb:	sub    esp,0xffffffc0
  401dce:	mov    ebp,DWORD PTR [esp]
  401dd1:	add    esp,0x4
  401dd4:	ret    
  401dd5:	add    BYTE PTR [eax],al
  401dd7:	add    BYTE PTR [eax],al
  401dd9:	add    BYTE PTR [eax],al
  401ddb:	add    BYTE PTR [ebx-0x1374aa01],cl
  401de1:	sub    esp,0x38
  401de4:	push   edx
  401de5:	mov    esi,0x0
  401dea:	push   esi
  401deb:	push   0x403084
  401df0:	pop    eax
  401df1:	call   DWORD PTR cs:[eax]
  401df4:	pop    edx
  401df5:	push   edx
  401df6:	push   edi
  401df7:	push   DWORD PTR [edx+0x344]
  401dfd:	push   DWORD PTR [edx+0x4c0]
  401e03:	push   DWORD PTR [edx+0x21c]
  401e09:	call   0x40174c
  401e0e:	add    esp,0x10
  401e11:	pop    edx
  401e12:	push   edx
  401e13:	push   0x0
  401e15:	push   0x403014
  401e1a:	pop    eax
  401e1b:	call   DWORD PTR cs:[eax]
  401e1e:	pop    edx
  401e1f:	sub    esp,0xffffffc8
  401e22:	mov    ebp,DWORD PTR [esp]
  401e25:	add    esp,0x4
  401e28:	ret    
  401e29:	add    BYTE PTR [eax],al
  401e2b:	add    BYTE PTR [eax],al
  401e2d:	add    BYTE PTR [eax],al
  401e2f:	add    BYTE PTR [ebx-0x1374aa01],cl
  401e35:	sub    esp,0x34
  401e38:	push   edx
  401e39:	push   DWORD PTR [edx+0x508]
  401e3f:	push   edi
  401e40:	call   0x401ac4
  401e45:	add    esp,0x8
  401e48:	pop    edx
  401e49:	push   edx
  401e4a:	mov    esi,0x0
  401e4f:	push   esi
  401e50:	push   0x403010
  401e55:	pop    eax
  401e56:	call   DWORD PTR cs:[eax]
  401e59:	pop    edx
  401e5a:	push   edx
  401e5b:	mov    eax,0x0
  401e60:	push   eax
  401e61:	push   0x403084
  401e66:	pop    eax
  401e67:	call   DWORD PTR cs:[eax]
  401e6a:	pop    edx
  401e6b:	sub    esp,0xffffffcc
  401e6e:	mov    ebp,DWORD PTR [esp]
  401e71:	add    esp,0x4
  401e74:	ret    
  401e75:	add    BYTE PTR [eax],al
  401e77:	add    BYTE PTR [eax],al
  401e79:	add    BYTE PTR [eax],al
  401e7b:	add    BYTE PTR [ebx-0x1374aa01],cl
  401e81:	sub    esp,0x4c
  401e84:	push   edx
  401e85:	push   esi
  401e86:	push   edi
  401e87:	push   DWORD PTR [edx+0x264]
  401e8d:	call   0x401a70
  401e92:	add    esp,0xc
  401e95:	pop    edx
  401e96:	push   edx
  401e97:	mov    ecx,0x0
  401e9c:	push   ecx
  401e9d:	push   0x403020
  401ea2:	pop    eax
  401ea3:	call   DWORD PTR cs:[eax]
  401ea6:	pop    edx
  401ea7:	push   edx
  401ea8:	push   0x40300c
  401ead:	pop    eax
  401eae:	call   DWORD PTR cs:[eax]
  401eb1:	pop    edx
  401eb2:	sub    esp,0xffffffb4
  401eb5:	mov    ebp,DWORD PTR [esp]
  401eb8:	add    esp,0x4
  401ebb:	ret    
  401ebc:	stos   BYTE PTR es:[edi],al
  401ebd:	fnsave [ebp*4-0x6ffe0ca4]
  401ec4:	mov    cs,WORD PTR [esi-0x53d72fe5]
  401eca:	sbb    edi,DWORD PTR [ebx-0x18]
  401ecd:	mov    edi,0xa1581503
  401ed2:	jg     0x401f19
  401ed4:	test   al,0xf
  401ed6:	enter  0xeffd,0x9e
  401eda:	mov    ecx,0xc7c70097
  401edf:	add    DWORD PTR [eax],eax
  401ee1:	mov    edi,0xc6e30001
  401ee7:	jg     0x401f2a
  401ee9:	retf   0xa27e
  401eec:	mov    ebp,0x310580a8
  401ef1:	imul   esi,eax,0xffffffe2
  401ef4:	add    DWORD PTR ds:0x251691a3,ecx
  401efa:	gs ins BYTE PTR es:[edi],dx
  401efc:	pop    eax
  401efd:	push   edi
  401efe:	inc    eax
  401eff:	push   ss
  401f00:	or     DWORD PTR [edx+0x32],eax
  401f03:	imul   ecx,DWORD PTR [ecx],0xffffffff
  401f06:	mov    edx,0xbcd552e7
  401f0b:	ins    BYTE PTR es:[edi],dx
  401f0c:	mov    esi,0x81d8533b
  401f11:	push   esp
  401f12:	js     0x401f0b
  401f14:	pop    edx
  401f15:	call   0xf444a50a
  401f1a:	mov    ch,0xa0
  401f1c:	jge    0x401f02
  401f1e:	adc    BYTE PTR [eax],al
  401f20:	add    DWORD PTR [eax],edx
  401f22:	adc    al,0x1d
  401f24:	sbb    ebp,DWORD PTR [edi+0x468a0000]
  401f2a:	(bad)  
  401f2b:	adc    BYTE PTR [esi+edx*4],dl
  401f2e:	and    eax,0x60f2ae1
  401f33:	call   0x3110:0x20092406
  401f3a:	sbb    edx,DWORD PTR [edi+0x76dd5ba9]
  401f40:	ins    DWORD PTR es:[edi],dx
  401f41:	mov    DWORD PTR [eax+0x13],esp
  401f44:	xor    eax,0x2102650d
  401f49:	add    BYTE PTR [edx+eax*1],al
  401f4c:	and    eax,0x5c1d9a32
  401f51:	jbe    0x401f68
  401f53:	push   eax
  401f54:	add    BYTE PTR [edx+0x702b6291],0xc4
  401f5b:	xchg   ebx,eax
  401f5c:	adc    DWORD PTR [eax],eax
  401f5e:	add    al,ah
  401f60:	cmps   DWORD PTR ds:[esi],DWORD PTR es:[edi]
  401f61:	push   0xff6b6a00
  401f66:	push   ebp
  401f67:	push   ss
  401f68:	pushf  
  401f69:	lods   eax,DWORD PTR ds:[esi]
  401f6a:	cli    
  401f6b:	cdq    
  401f6c:	cwde   
  401f6d:	add    eax,0xb5dedbf8
  401f72:	aam    0xf9
  401f74:	stc    
  401f75:	aam    0xf
  401f77:	sub    eax,0xcffb9a7
  401f7c:	push   esi
  401f7d:	ret    
  401f7e:	call   0xc428ad10
  401f83:	stc    
  401f84:	add    al,BYTE PTR [edi-0x238cdecc]
  401f8a:	jl     0x401fe6
  401f8c:	add    eax,0x3f6f00fb
  401f91:	call   0x6ab2aa96
  401f96:	add    BYTE PTR [edi+0x6b],ch
  401f99:	call   FWORD PTR [edi]
  401f9b:	pushf  
  401f9c:	cmp    al,0x8a
  401f9e:	stos   BYTE PTR es:[edi],al
  401f9f:	sub    BYTE PTR [eax+ebx*1+0x3c6b3d97],ah
  401fa6:	adc    eax,0x47cca74
  401fab:	push   ecx
  401fac:	push   es
  401fad:	pop    es
  401fae:	(bad)  [ecx+0x78]
  401fb1:	cmps   DWORD PTR ds:[esi],DWORD PTR es:[edi]
  401fb2:	add    BYTE PTR [ecx-0x364fb057],ch
  401fb8:	loope  0x401fa2
  401fba:	sbb    dh,bl
  401fbc:	int3   
  401fbd:	cmp    al,0x8d
  401fbf:	pop    es
  401fc0:	add    ebp,ebx
  401fc2:	retf   
  401fc3:	push   es
  401fc4:	push   edi
  401fc5:	test   DWORD PTR [esi+0x73],0x22581962
  401fcc:	inc    ecx
  401fcd:	dec    ecx
  401fce:	mov    dl,0x4e
  401fd0:	ins    DWORD PTR es:[edi],dx
  401fd1:	loope  0x401fe8
  401fd3:	sbb    al,0x69
  401fd5:	xor    al,0x6a
  401fd7:	xor    al,0x0
  401fd9:	jno    0x40203b
  401fdb:	push   ebx
  401fdc:	push   ebx
  401fdd:	push   es
  401fde:	pusha  
  401fdf:	je     0x401fd6
  401fe1:	jl     0x401fe8
  401fe3:	stos   DWORD PTR es:[edi],eax
  401fe4:	aas    
  401fe5:	push   esp
  401fe6:	cmp    ebp,DWORD PTR [esi]
  401fe8:	push   ebx
  401fe9:	add    DWORD PTR [eax],ecx
  401feb:	ds aas 
  401fed:	push   cs
  401fee:	add    ch,BYTE PTR [esp+eax*1+0x77e1cddc]
  401ff5:	cmp    al,0x2f
  401ff7:	or     BYTE PTR [esi-0xe],bl
  401ffa:	jmp    DWORD PTR [ebx-0x49a93d2c]
  402000:	je     0x401f90
  402002:	mov    bh,0x93
  402004:	xchg   esp,eax
  402005:	lods   eax,DWORD PTR cs:[esi]
  402007:	xor    esi,DWORD PTR [edi-0x577bc9f]
  40200d:	sbb    esi,esi
  40200f:	dec    BYTE PTR [esi-0x29]
  402012:	test   BYTE PTR [edi+0x72a00e52],bh
  402018:	ss dec ebx
  40201a:	ret    0x8e1c
  40201d:	xchg   edi,edi
  40201f:	jnp    0x401ff4
  402021:	out    0xc4,eax
  402023:	test   DWORD PTR [ecx],eax
  402025:	(bad)  
  402026:	pop    ebx
  402027:	arpl   bx,ax
  402029:	in     al,dx
  40202a:	arpl   WORD PTR [ebp+0x76],si
  40202d:	call   0x14bb6456
  402032:	push   DWORD PTR [ebp+0x66]
  402035:	je     0x4020a2
  402037:	jnp    0x402041
  402039:	test   al,dl
  40203b:	inc    eax
  40203c:	fmul   QWORD PTR [edi+0x50253a9]
  402042:	test   ecx,ebx
  402044:	cmp    DWORD PTR [ebp+0x6],edx
  402047:	push   es
  402048:	push   edi
  402049:	pop    es
  40204a:	or     BYTE PTR [ebx],dh
  40204c:	ins    DWORD PTR es:[edi],dx
  40204d:	int3   
  40204e:	add    cl,BYTE PTR [eax+ebx*2]
  402051:	or     BYTE PTR [ebx-0x8],cl
  402054:	aas    
  402055:	das    
  402056:	mov    al,ds:0xc5a758ff
  40205b:	jo     0x4020a8
  40205d:	dec    ecx
  40205e:	mov    edx,0x29e958bd
  402063:	mov    DWORD PTR [ecx],0x1e88ae9
  402069:	xor    DWORD PTR [eax+0x186968],0x28760000
  402073:	push   esi
  402074:	ficom  DWORD PTR [ebx-0x78e6f002]
  40207a:	dec    DWORD PTR [ebx-0x220c9fff]
  402080:	add    al,0xff
  402082:	add    BYTE PTR fs:[ecx-0x75],bl
  402086:	inc    eax
  402087:	cmp    al,0x80
  402089:	add    BYTE PTR [edi+0x34146061],al
  40208f:	(bad)
  402093:	scas   eax,DWORD PTR es:[edi]
  402094:	jnp    0x40207d
  402096:	and    al,0x88
  402098:	dec    ecx
  402099:	sbb    BYTE PTR [edi-0x3477a706],al
  40209f:	shl    al,0xef
  4020a2:	mov    bl,BYTE PTR [eax+0x6d]
  4020a5:	out    dx,eax
  4020a6:	out    dx,eax
  4020a7:	cmp    DWORD PTR [esi-0x9],edx
  4020aa:	inc    esi
  4020ab:	imul   edi,DWORD PTR [eax+0x44],0xa1190ea1
  4020b2:	fs xchg edx,ecx
  4020b5:	xor    BYTE PTR [ecx+0x65767178],cl
  4020bb:	push   esp
  4020bc:	std    
  4020bd:	jbe    0x4020bc
  4020bf:	or     BYTE PTR [ecx],al
  4020c1:	pop    edi
  4020c2:	jmp    0x7e1c:0x79bdd2b0
  4020c9:	je     0x402067
  4020cb:	mov    dh,0x3a
  4020cd:	call   0x791a5a22
  4020d2:	pop    eax
  4020d3:	add    al,0x3
  4020d5:	pop    eax
  4020d6:	js     0x4020cc
  4020d8:	mov    eax,DWORD PTR gs:[esi+eiz*1]
  4020dc:	in     al,dx
  4020dd:	add    BYTE PTR [edi+0x424010f],ch
  4020e3:	cmp    BYTE PTR [edx+0x64500424],cl
  4020e9:	(bad)  
  4020ea:	out    0x14,eax
  4020ec:	in     al,dx
  4020ed:	xor    bl,al
  4020ef:	inc    ebp
  4020f0:	dec    ebx
  4020f1:	mov    BYTE PTR [ebp+0xb],al
  4020f4:	xor    DWORD PTR [esi+0x7472b98b],0xf8f70373
  4020fe:	or     bh,dl
  402100:	mov    al,BYTE PTR [ecx-0x70916601]
  402106:	test   al,0x7a
  402108:	test   eax,0xb6c37e53
  40210d:	adc    DWORD PTR [ebx-0x56],0x235457a9
  402114:	fisub  DWORD PTR [esi]
  402116:	adc    BYTE PTR [esi-0x9],dl
  402119:	fwait
  40211a:	mov    BYTE PTR [esi],ah
  40211c:	sub    edi,DWORD PTR [esi]
  40211e:	dec    BYTE PTR [eax]
  402120:	xlat   BYTE PTR ds:[ebx]
  402121:	or     BYTE PTR [ebx+0x4b],0x91
  402125:	fisub  DWORD PTR [edi+0x543f7f]
  40212b:	or     DWORD PTR [edi+0x7],edx
  40212e:	or     BYTE PTR [edx+ebx*8],bh
  402131:	or     dl,al
  402133:	aas    
  402134:	push   ecx
  402135:	adc    eax,0x657cd8d
  40213a:	movs   BYTE PTR es:[edi],BYTE PTR ds:[esi]
  40213b:	xchg   ebx,eax
  40213c:	pop    ebx
  40213d:	cdq    
  40213e:	or     al,dl
  402140:	mov    ch,0x9e
  402142:	add    al,0x57
  402144:	add    DWORD PTR [ecx+0xd70019b],ebp
  40214a:	inc    esp
  40214b:	add    eax,DWORD PTR [eax]
  40214d:	popa   
  40214e:	jb     0x40214b
  402150:	(bad)  
  402151:	jg     0x4021c8
  402153:	std    
  402154:	mov    dh,BYTE PTR [ebx+ebp*2+0x0]
  402158:	test   eax,0xa9f8f1c
  40215d:	hlt    
  40215e:	push   esi
  40215f:	or     eax,0xb10f0a02
  402164:	or     DWORD PTR [edi-0x29aaaaff],ebp
  40216a:	cmp    DWORD PTR [ebx-0x8],eax
  40216d:	dec    ecx
  40216e:	loop   0x40210b
  402170:	mov    ds:0x78605cea,al
  402175:	sar    ch,1
  402177:	pop    esp
  402178:	adc    BYTE PTR [eax],ah
  40217a:	aaa    
  40217b:	ja     0x4021d3
  40217d:	cmp    edx,edx
  40217f:	mov    esi,0x590f8494
  402184:	add    al,0xa4
  402186:	add    BYTE PTR [eax],al
  402188:	add    DWORD PTR [ebx-0x495ed1ee],ecx
  40218e:	mov    eax,DWORD PTR [ebp-0x7e7bf08e]
  402194:	add    BYTE PTR [edi+ecx*1-0x7452080b],0xf8
  40219c:	cld    
  40219d:	jo     0x40219c
  40219f:	js     0x4021ef
  4021a1:	add    BYTE PTR [edx+0x543b0351],ch
  4021a7:	lods   al,BYTE PTR ds:[esi]
  4021a8:	imul   edx,DWORD PTR [edx+ebp*2],0xf8835850
  4021af:	add    al,0x55
  4021b1:	add    BYTE PTR [edi+0x6a14693f],0x50
  4021b8:	pop    eax
  4021b9:	adc    DWORD PTR [esp],0x57811425
  4021c0:	add    BYTE PTR [esi+0x1c],dl
  4021c3:	jmp    FWORD PTR [ecx-0x859f100]
  4021c9:	jno    0x40218f
  4021cb:	add    al,0xdd
  4021cd:	add    dl,bh
  4021cf:	inc    esp
  4021d0:	ins    DWORD PTR es:[edi],dx
  4021d1:	cmp    ah,cl
  4021d3:	mov    eax,0xe54462f2
  4021d8:	int3   
  4021d9:	lods   eax,DWORD PTR ds:[esi]
  4021da:	push   esi
  4021db:	mov    ah,0x7d
  4021dd:	adc    eax,0xff0ea6ff
  4021e2:	and    al,0x1c
  4021e4:	sbb    al,0xe3
  4021e6:	out    dx,al
  4021e7:	pop    ecx
  4021e8:	xlat   BYTE PTR ds:[ebx]
  4021e9:	stos   BYTE PTR es:[edi],al
  4021ea:	mov    BYTE PTR [ebx],0x56
  4021ed:	jbe    0x402203
  4021ef:	jb     0x4021bf
  4021f1:	cmp    BYTE PTR [edx+0x41],dl
  4021f4:	adc    DWORD PTR [eax],eax
  4021f6:	aas    
  4021f7:	mov    bl,0x6a
  4021f9:	push   ebx
  4021fa:	push   eax
  4021fb:	dec    esi
  4021fd:	cmp    BYTE PTR [eax+edi*8],al
  402200:	adc    DWORD PTR [eax],eax
  402202:	aas    
  402203:	mov    cl,0x84
  402205:	jae    0x402207
  402207:	adc    BYTE PTR [ecx],dl
  402209:	add    bl,bl
  40220b:	push   ecx
  40220c:	pop    eax
  40220d:	add    BYTE PTR [ebp+0xc],dl
  402210:	push   edi
  402211:	or     al,0xa7
  402213:	push   esp
  402214:	ficom  WORD PTR [ecx-0x491c24d4]
  40221a:	test   eax,0x21cde36e
  40221f:	pushf  
  402220:	jae    0x4021f8
  402222:	scas   al,BYTE PTR es:[edi]
  402223:	les    ecx,FWORD PTR [edi-0x15]
  402226:	mov    edi,0xe89b497e
  40222b:	mov    eax,DWORD PTR [ecx]
  40222d:	call   0xec3f692d
  402232:	push   edx
  402233:	pop    ds
  402234:	push   ds
  402235:	mov    ecx,0xff0a17ff
  40223a:	(bad)  
  40223b:	jmp    FWORD PTR [eax+0x1e1f846]
  402241:	pop    es
  402242:	push   ecx
  402243:	adc    dh,0xe8
  402246:	add    BYTE PTR [edx+ebx*2-0x6124348c],cl
  40224d:	cmp    eax,0xe801d08b
  402252:	into   
  402253:	inc    esi
  402254:	inc    edi
  402256:	fs (bad) 
  402258:	jb     0x40229b
  40225a:	pop    ss
  40225b:	inc    ecx
  40225c:	mov    esi,0xf2bfcae8
  402261:	scas   eax,DWORD PTR es:[edi]
  402262:	ds aaa 
  402264:	rol    BYTE PTR [eax],0x54
  402267:	in     al,0x2a
  402269:	add    eax,0x808923c5
  40226e:	sar    DWORD PTR [eax-0x79],0x98
  402272:	cvtdq2ps xmm1,xmm3
  402275:	dec    esi
  402276:	sub    al,0xf2
  402278:	dec    eax
  402279:	add    DWORD PTR [eax],ebx
  40227b:	mov    al,0xbe
  40227d:	stc    
  40227e:	int3   
  40227f:	inc    eax
  402280:	or     edi,DWORD PTR [ecx-0x8123dc]
  402286:	(bad)  
  402287:	(bad)  
  402288:	out    dx,eax
  402289:	dec    eax
  40228a:	repz ret 
  40228c:	or     DWORD PTR [ebp+0xe],ebx
  40228f:	pop    es
  402290:	or     DWORD PTR [ecx-0x9149af],edi
  402296:	(bad)  
  402297:	jmp    DWORD PTR [ebp-0x857fe9]
  40229d:	jg     0x402301
  40229f:	sub    eax,0x3c9e9551
  4022a4:	xchg   ecx,eax
  4022a5:	mov    al,ds:0xc8a739f4
  4022aa:	rcl    DWORD PTR [ecx+0x1],0x48
  4022ae:	push   esp
  4022af:	mov    DWORD PTR [edx+0x1004876],ecx
  4022b5:	dec    eax
  4022b6:	jbe    0x402249
  4022b8:	xchg   edx,eax
  4022b9:	push   esp
  4022ba:	dec    eax
  4022bb:	add    BYTE PTR [ecx],al
  4022bd:	dec    eax
  4022be:	push   esp
  4022bf:	cdq    
  4022c0:	call   0x7048:0x1004870
  4022c7:	mov    eax,ds:0x4834a2
  4022cc:	add    DWORD PTR [eax+0x34],ecx
  4022cf:	test   eax,0x4870aa
  4022d4:	add    DWORD PTR [eax+0x70],ecx
  4022d7:	mov    cl,0xb2
  4022d9:	xor    al,0x48
  4022db:	add    BYTE PTR [ecx],al
  4022dd:	dec    eax
  4022de:	xor    al,0xb9
  4022e0:	mov    WORD PTR [ebp-0x255d3cef],?
  4022e6:	mov    esp,0x91094dc7
  4022eb:	mov    al,bh
  4022ed:	adc    dh,BYTE PTR [eax+eax*1-0x74]
  4022f1:	jge    0x402347
  4022f3:	mov    al,BYTE PTR [ebp+0x42207b21]
  4022f9:	(bad)  
  4022fa:	je     0x4022fb
  4022fc:	add    DWORD PTR [ecx+0x3b],esp
  4022ff:	mov    BYTE PTR [eax-0x6b],ah
  402302:	pop    ebp
  402303:	mov    edx,DWORD PTR [edx-0x49]
  402306:	and    BYTE PTR [ebx-0x7724cf40],dh
  40230c:	add    DWORD PTR [eax],edi
  40230e:	inc    ebp
  40230f:	mov    ecx,DWORD PTR ds:0xa9af3b00
  402315:	adc    ebx,DWORD PTR [ecx+0x5c]
  402318:	fsub   QWORD PTR [ecx-0x34b20e4d]
  40231e:	clc    
  40231f:	mov    eax,DWORD PTR [ecx]
  402321:	dec    eax
  402322:	mov    cl,0xac
  402324:	popa   
  402325:	test   eax,0x8776f8c3
  40232a:	popf   
  40232b:	and    BYTE PTR ds:0xc6e90cbd,al
  402331:	sbb    BYTE PTR [eax],al
  402333:	add    BYTE PTR [ecx],al
  402335:	mov    ebp,DWORD PTR [eax-0x73]
  402338:	jle    0x402352
  40233a:	mov    eax,DWORD PTR [eax]
  40233c:	or     eax,0xa9ae3b00
  402341:	adc    ecx,DWORD PTR [ebp+0x4102b500]
  402347:	add    eax,0x4004cedc
  40234c:	or     al,0x2e
  40234e:	stos   DWORD PTR es:[edi],eax
  40234f:	sub    bh,BYTE PTR [eax-0x6f0c5a9c]
  402355:	inc    eax
  402356:	sub    al,0x79
  402358:	movs   DWORD PTR es:[edi],DWORD PTR ds:[esi]
  402359:	dec    esp
  40235a:	shl    DWORD PTR [ebx-0x33],0x83
  40235e:	pusha  
  40235f:	ret    
  402360:	imul   esp,DWORD PTR [eax+eax*1],0xd2310120
  402367:	add    ch,BYTE PTR [ebx-0x64]
  40236a:	cmp    edi,edi
  40236c:	test   eax,0x8dd8e114
  402371:	fsub   st,st(3)
  402373:	add    BYTE PTR [eax+0x74],ah
  402376:	pop    ss
  402377:	jo     0x4023b2
  402379:	inc    edi
  40237a:	retf   
  40237b:	or     BYTE PTR [eax+0x11cc3c0],dh
  402381:	rol    BYTE PTR ds:0x4684b54b,0x54
  402388:	add    BYTE PTR [ecx-0x6a41b3ac],bh
  40238e:	mov    dh,BYTE PTR [esi-0x626a754f]
  402394:	call   0x4d24:0x351db91
  40239b:	cmc    
  40239c:	push   ecx
  40239d:	xchg   ebp,eax
  40239e:	popa   
  40239f:	ret    
  4023a0:	mov    ds:0xf25449ea,al
  4023a5:	cmps   DWORD PTR ds:[esi],DWORD PTR es:[edi]
  4023a6:	sbb    cl,BYTE PTR [edx-0x33861654]
  4023ac:	and    al,0x0
  4023ae:	xchg   dh,al
  4023b0:	std    
  4023b1:	cmps   BYTE PTR ds:[esi],BYTE PTR es:[edi]
  4023b2:	mov    ebx,DWORD PTR [eax+esi*2]
  4023b5:	add    DWORD PTR ds:0x6130d425,ebp
  4023bb:	xchg   BYTE PTR [esp+edx*1+0x50],al
  4023bf:	add    cl,dh
  4023c1:	sub    DWORD PTR [esi],esp
  4023c3:	jp     0x402384
  4023c5:	push   edx
  4023c6:	cmp    al,0x46
  4023c8:	jmp    0x14424b8
  4023cd:	pop    edx
  4023ce:	call   0x723c17eb
  4023d3:	enter  0x5ef4,0xa0
  4023d7:	jbe    0x402454
  4023d9:	pop    ebx
  4023da:	add    BYTE PTR [edi+0x58],ah
  4023dd:	or     BYTE PTR [edi+0x26],bl
  4023e0:	gs add al,bh
  4023e3:	retf   0x88bc
  4023e6:	icebp  
  4023e7:	sbb    eax,0xb63e6540
  4023ec:	cdq    
  4023ed:	cwde   
  4023ee:	dec    ebx
  4023ef:	out    0xed,al
  4023f1:	popa   
  4023f2:	dec    edx
  4023f3:	cmp    esp,DWORD PTR [ebp+0x16f8a81]
  4023f9:	push   0x741bab60
  4023fe:	or     BYTE PTR cs:0x12040743,cl
  402405:	daa    
  402406:	xchg   edx,eax
  402407:	cmp    eax,0x16947a50
  40240c:	jl     0x4023a2
  40240e:	jp     0x402461
  402410:	push   esp
  402411:	jp     0x4023a7
  402413:	jl     0x40244f
  402415:	stos   BYTE PTR es:[edi],al
  402416:	test   DWORD PTR [eax+0x2],ebp
  402419:	outs   dx,BYTE PTR ds:[esi]
  40241a:	push   ds
  40241b:	sub    ecx,DWORD PTR [edi]
  40241d:	adc    bl,BYTE PTR [ecx]
  40241f:	sbb    DWORD PTR [ebx],eax
  402421:	and    esi,DWORD PTR [esi]
  402423:	xchg   edi,eax
  402424:	test   eax,0xc9b6d758
  402429:	or     al,bh
  40242b:	add    eax,0x66cb9a05
  402430:	bound  edx,QWORD PTR [esi]
  402432:	xchg   ebp,eax
  402433:	add    DWORD PTR [eax-0x59],ebx
  402436:	push   es
  402437:	push   ebx
  402438:	add    eax,0xbf5a5f3a
  40243d:	and    DWORD PTR [edx+0x50],ebp
  402440:	add    DWORD PTR [ebx-0x45933e6],ecx
  402446:	cdq    
  402447:	add    BYTE PTR [ecx],al
  402449:	adc    ch,BYTE PTR [ebp-0x5b66a27a]
  40244f:	inc    edi
  402450:	retf   
  402451:	bound  ebx,QWORD PTR [eax-0x2c]
  402454:	repnz push edx
  402456:	jbe    0x40243b
  402458:	ret    
  402459:	call   0x1b4f2b0
  40245e:	cmps   DWORD PTR ds:[esi],DWORD PTR es:[edi]
  40245f:	call   FWORD PTR [eax-0x59]
  402462:	sub    DWORD PTR [edi],eax
  402464:	leave  
  402465:	loop   0x402402
  402467:	push   esp
  402468:	pop    eax
  402469:	adc    dh,BYTE PTR [esp+eiz*8]
  40246c:	ja     0x4024c3
  40246e:	sar    bh,1
  402470:	pop    esi
  402471:	lea    eax,[ebp-0x12]
  402474:	hlt    
  402475:	test   DWORD PTR [ecx-0x2fdf332c],ecx
  40247b:	ficomp WORD PTR [eax+edx*1+0x24]
  40247f:	inc    esp
  402480:	add    DWORD PTR [eax],eax
  402482:	add    BYTE PTR [eax+0x69],ch
  402485:	add    BYTE PTR [eax],al
  402487:	add    ah,al
  402489:	xor    si,si
  40248c:	xchg   ecx,eax
  40248d:	mov    DWORD PTR [ebx],ebp
  40248f:	cdq    
  402490:	cmp    eax,0xe255dce0
  402495:	adc    ah,BYTE PTR [ebp+0x640a6ee7]
  40249b:	rol    BYTE PTR [ecx],1
  40249d:	sti    
  40249e:	out    dx,eax
  40249f:	arpl   dx,dx
  4024a1:	adc    ebp,DWORD PTR [edi-0x1]
  4024a4:	mov    DWORD PTR [ebp+0x75],esi
  4024a7:	sub    BYTE PTR [ebp-0x13],cl
  4024aa:	dec    ebx
  4024ab:	and    eax,0x24523716
  4024b0:	jns    0x40244b
  4024b2:	jmp    0x40252a
  4024b4:	loop   0x4024c9
  4024b6:	dec    ebp
  4024b7:	movs   DWORD PTR es:[edi],DWORD PTR ds:[esi]
  4024b8:	xchg   ecx,eax
  4024b9:	sar    DWORD PTR [ecx+edx*4+0x554b0b6d],cl
  4024c0:	jno    0x40253c
  4024c2:	sub    esp,ebx
  4024c4:	ret    
  4024c5:	sub    eax,DWORD PTR [ecx]
  4024c7:	mov    dh,0x21
  4024c9:	call   FWORD PTR [ecx-0x6bdbb010]
  4024cf:	mov    BYTE PTR [edi+0x0],ch
  4024d2:	jge    0x40246f
  4024d4:	adc    DWORD PTR [eax],eax
  4024d6:	aas    
  4024d7:	outs   dx,BYTE PTR ds:[esi]
  4024d8:	imul   ebp,DWORD PTR [eax-0x5a63efab],0x7e
  4024df:	in     al,dx
  4024e0:	jmp    0x8ccc1565
  4024e5:	cld    
  4024e6:	imul   eax,DWORD PTR [eax],0xdcfc6806
  4024ec:	add    edi,edi
  4024ee:	push   ebp
  4024ef:	and    DWORD PTR [ebx+0x55],ecx
  4024f2:	xchg   edi,eax
  4024f3:	rol    DWORD PTR [ecx+0x6e000068],cl
  4024f9:	push   0x0
  4024fb:	push   0x68
  4024fd:	push   0x8001036a
  402502:	aas    
  402503:	(bad)  
  402504:	test   eax,0xc1c40173
  402509:	and    BYTE PTR [edx*2-0x4a66f3c],0x2e
  402511:	mov    ds:0x5ec06144,eax
  402516:	(bad)  
  402517:	aam    0x4a
  402519:	jno    0x40254d
  40251b:	into   
  40251c:	bound  esp,QWORD PTR [ebp+0x76]
  40251f:	aam    0x1e
  402521:	sbb    edx,DWORD PTR [ecx-0x7c]
  402524:	sub    ebp,DWORD PTR [ebp+0x52]
  402527:	pop    edi
  402528:	lds    edx,FWORD PTR [edx+0x27b3bc5d]
  40252e:	dec    esi
  40252f:	xchg   DWORD PTR [ecx+0x6e],ecx
  402532:	mov    eax,0xadfbd425
  402537:	jns    0x4024ee
  402539:	xchg   ebx,eax
  40253a:	adc    DWORD PTR [esi],esi
  40253c:	sub    al,0x8f
  40253e:	xchg   edx,eax
  40253f:	lea    esi,[eax-0x5c713a9c]
  402545:	cmp    ch,dh
  402547:	aas    
  402548:	adc    al,0xa6
  40254a:	movs   DWORD PTR es:[edi],DWORD PTR ds:[esi]
  40254b:	cmps   BYTE PTR ds:[esi],BYTE PTR es:[edi]
  40254c:	lea    esp,[edi-0x3ad51cf8]
  402552:	add    al,0xd7
  402554:	jnp    0x402513
  402556:	push   ds
  402557:	clc    
  402558:	xchg   DWORD PTR [ebx+0x12602],edx
  40255e:	add    BYTE PTR [edi+0x1],dh
  402564:	add    DWORD PTR [eax],eax
  402566:	add    BYTE PTR [eax],al
  402568:	add    DWORD PTR [eax],eax
  40256a:	add    BYTE PTR [eax],al
  40256c:	add    DWORD PTR [eax],eax
  40256e:	add    BYTE PTR [eax],al
  402570:	add    DWORD PTR [eax],eax
  402572:	add    BYTE PTR [eax],al
  402574:	add    DWORD PTR [edx+0x72],ebp
  402577:	add    BYTE PTR [ecx],al
  402579:	jb     0x4025c5
  40257b:	add    eax,0x42004
  402580:	add    DWORD PTR [edi+0x7b27347b],eax
  402586:	add    DWORD PTR [eax],0x18
  402589:	mov    dh,BYTE PTR [edx]
  40258b:	add    ebp,DWORD PTR [esp+edx*4-0x61]
  40258f:	cmp    bl,dl
  402591:	inc    edx
  402592:	ror    DWORD PTR [ebx+ecx*4+0x1594ea3d],1
  402599:	shl    BYTE PTR [edx+0x76],1
  40259c:	or     dl,bh
  40259e:	inc    esp
  40259f:	test   al,0x98
  4025a1:	scas   eax,DWORD PTR es:[edi]
  4025a2:	add    bh,0x29
  4025a5:	mov    ch,0x98
  4025a7:	and    eax,0x449e4bf7
