
f3e3fee0e9bb11f42011ad76a427a7252fa10cfc7e56be33de3c1b353aa9951a.exe:     file format pei-i386


Disassembly of section .text:

00401000 <.text>:
	...
  40100c:	mov    edi,edi
  40100e:	push   ebp
  40100f:	mov    ebp,esp
  401011:	sub    esp,0x50
  401014:	push   ecx
  401015:	mov    ebx,0x0
  40101a:	push   ebx
  40101b:	push   0x40302c
  401020:	pop    eax
  401021:	call   DWORD PTR cs:[eax]
  401024:	pop    ecx
  401025:	push   ecx
  401026:	push   edx
  401027:	push   ebx
  401028:	push   edx
  401029:	push   DWORD PTR [ecx+0x2e8]
  40102f:	call   0x401b0c
  401034:	add    esp,0x10
  401037:	pop    ecx
  401038:	push   ecx
  401039:	mov    edx,0x0
  40103e:	push   edx
  40103f:	push   0x403014
  401044:	pop    eax
  401045:	call   DWORD PTR cs:[eax]
  401048:	pop    ecx
  401049:	sub    esp,0xffffffb0
  40104c:	mov    ebp,DWORD PTR [esp]
  40104f:	add    esp,0x4
  401052:	ret    
  401053:	add    BYTE PTR [ebx-0x74aa9f01],cl
  401059:	in     al,dx
  40105a:	sub    esp,0x44
  40105d:	push   ecx
  40105e:	mov    eax,0x0
  401063:	push   eax
  401064:	push   0x403004
  401069:	pop    eax
  40106a:	call   DWORD PTR cs:[eax]
  40106d:	pop    ecx
  40106e:	test   eax,eax
  401070:	je     0x401073
  401072:	ret    
  401073:	push   ecx
  401074:	push   0x403010
  401079:	pop    eax
  40107a:	call   DWORD PTR cs:[eax]
  40107d:	pop    ecx
  40107e:	push   ecx
  40107f:	push   DWORD PTR [ecx+0x35c]
  401085:	push   DWORD PTR [ecx+0x214]
  40108b:	call   0x401184
  401090:	add    esp,0x8
  401093:	pop    ecx
  401094:	mov    ebx,0x40300c
  401099:	mov    ebx,DWORD PTR [ebx]
  40109b:	push   ebx
  40109c:	push   DWORD PTR [ecx+0x334]
  4010a2:	pop    edx
  4010a3:	call   edx
  4010a5:	sub    esp,0xffffffbc
  4010a8:	mov    ebp,DWORD PTR [esp]
  4010ab:	add    esp,0x4
  4010ae:	ret    
  4010af:	add    BYTE PTR [eax],al
  4010b1:	add    BYTE PTR [eax],al
  4010b3:	add    BYTE PTR [edi],cl
  4010b5:	xchg   DWORD PTR [edx+0xffffff],ebx
  4010bb:	add    BYTE PTR [ebx-0x1374aa01],cl
  4010c1:	sub    esp,0x44
  4010c4:	push   ecx
  4010c5:	push   esi
  4010c6:	push   ebx
  4010c7:	push   eax
  4010c8:	call   0x401134
  4010cd:	add    esp,0xc
  4010d0:	pop    ecx
  4010d1:	push   ecx
  4010d2:	push   0x0
  4010d4:	push   0x403024
  4010d9:	pop    eax
  4010da:	call   DWORD PTR cs:[eax]
  4010dd:	pop    ecx
  4010de:	push   ecx
  4010df:	push   0x403010
  4010e4:	pop    eax
  4010e5:	call   DWORD PTR cs:[eax]
  4010e8:	pop    ecx
  4010e9:	sub    esp,0xffffffbc
  4010ec:	mov    ebp,DWORD PTR [esp]
  4010ef:	add    esp,0x4
  4010f2:	ret    
  4010f3:	add    BYTE PTR [ebx-0x1374aa01],cl
  4010f9:	sub    esp,0x2c
  4010fc:	push   ecx
  4010fd:	mov    eax,0x0
  401102:	push   eax
  401103:	push   0x403038
  401108:	pop    eax
  401109:	call   DWORD PTR cs:[eax]
  40110c:	pop    ecx
  40110d:	push   ecx
  40110e:	push   eax
  40110f:	push   edi
  401110:	call   0x4018c0
  401115:	add    esp,0x8
  401118:	pop    ecx
  401119:	push   ecx
  40111a:	mov    ebx,0x0
  40111f:	push   ebx
  401120:	push   0x403014
  401125:	pop    eax
  401126:	call   DWORD PTR cs:[eax]
  401129:	pop    ecx
  40112a:	sub    esp,0xffffffd4
  40112d:	mov    ebp,DWORD PTR [esp]
  401130:	add    esp,0x4
  401133:	ret    
  401134:	mov    edi,edi
  401136:	push   ebp
  401137:	mov    ebp,esp
  401139:	sub    esp,0x58
  40113c:	push   ecx
  40113d:	push   DWORD PTR [ecx+0x36c]
  401143:	push   DWORD PTR [ecx+0x3d8]
  401149:	call   0x401830
  40114e:	add    esp,0x8
  401151:	pop    ecx
  401152:	push   ecx
  401153:	mov    ebx,0x0
  401158:	push   ebx
  401159:	push   0x403078
  40115e:	pop    eax
  40115f:	call   DWORD PTR cs:[eax]
  401162:	pop    ecx
  401163:	push   ecx
  401164:	push   0x0
  401166:	push   0x403084
  40116b:	pop    eax
  40116c:	call   DWORD PTR cs:[eax]
  40116f:	pop    ecx
  401170:	sub    esp,0xffffffa8
  401173:	mov    ebp,DWORD PTR [esp]
  401176:	add    esp,0x4
  401179:	ret    
	...
  401182:	add    BYTE PTR [eax],al
  401184:	mov    edi,edi
  401186:	push   ebp
  401187:	mov    ebp,esp
  401189:	sub    esp,0x2c
  40118c:	push   ecx
  40118d:	push   DWORD PTR [ecx+0x2a4]
  401193:	push   edx
  401194:	push   eax
  401195:	push   esi
  401196:	call   0x401218
  40119b:	add    esp,0x10
  40119e:	pop    ecx
  40119f:	push   ecx
  4011a0:	mov    eax,0x0
  4011a5:	push   eax
  4011a6:	push   0x403000
  4011ab:	pop    eax
  4011ac:	call   DWORD PTR cs:[eax]
  4011af:	pop    ecx
  4011b0:	push   ecx
  4011b1:	mov    eax,0x0
  4011b6:	push   eax
  4011b7:	push   0x403070
  4011bc:	pop    eax
  4011bd:	call   DWORD PTR cs:[eax]
  4011c0:	pop    ecx
  4011c1:	sub    esp,0xffffffd4
  4011c4:	mov    ebp,DWORD PTR [esp]
  4011c7:	add    esp,0x4
  4011ca:	ret    
  4011cb:	add    BYTE PTR [eax],al
  4011cd:	add    BYTE PTR [eax],al
  4011cf:	add    BYTE PTR [ebx-0x1374aa01],cl
  4011d5:	sub    esp,0x40
  4011d8:	push   ecx
  4011d9:	push   DWORD PTR [ecx+0x134]
  4011df:	push   DWORD PTR [ecx+0x388]
  4011e5:	push   edx
  4011e6:	push   DWORD PTR [ecx+0x270]
  4011ec:	call   0x40138c
  4011f1:	add    esp,0x10
  4011f4:	pop    ecx
  4011f5:	push   ecx
  4011f6:	push   0x403010
  4011fb:	pop    eax
  4011fc:	call   DWORD PTR cs:[eax]
  4011ff:	pop    ecx
  401200:	push   ecx
  401201:	push   0x0
  401203:	push   0x403004
  401208:	pop    eax
  401209:	call   DWORD PTR cs:[eax]
  40120c:	pop    ecx
  40120d:	sub    esp,0xffffffc0
  401210:	mov    ebp,DWORD PTR [esp]
  401213:	add    esp,0x4
  401216:	ret    
  401217:	add    BYTE PTR [ebx-0x1374aa01],cl
  40121d:	sub    esp,0x20
  401220:	push   ecx
  401221:	push   edx
  401222:	push   DWORD PTR [ecx+0x38c]
  401228:	call   0x4016e4
  40122d:	add    esp,0x8
  401230:	pop    ecx
  401231:	push   ecx
  401232:	mov    ebx,0x0
  401237:	push   ebx
  401238:	push   0x403004
  40123d:	pop    eax
  40123e:	call   DWORD PTR cs:[eax]
  401241:	pop    ecx
  401242:	push   ecx
  401243:	mov    eax,0x0
  401248:	push   eax
  401249:	push   0x403078
  40124e:	pop    eax
  40124f:	call   DWORD PTR cs:[eax]
  401252:	pop    ecx
  401253:	sub    esp,0xffffffe0
  401256:	mov    ebp,DWORD PTR [esp]
  401259:	add    esp,0x4
  40125c:	ret    
  40125d:	add    BYTE PTR [eax],al
  40125f:	add    BYTE PTR [ebx-0x1374aa01],cl
  401265:	sub    esp,0x34
  401268:	push   ecx
  401269:	push   DWORD PTR [ecx+0x1c8]
  40126f:	push   DWORD PTR [ecx+0x1c]
  401272:	push   edi
  401273:	call   0x40100c
  401278:	add    esp,0xc
  40127b:	pop    ecx
  40127c:	push   ecx
  40127d:	mov    edi,0x0
  401282:	push   edi
  401283:	push   0x40302c
  401288:	pop    eax
  401289:	call   DWORD PTR cs:[eax]
  40128c:	pop    ecx
  40128d:	push   ecx
  40128e:	push   0x0
  401290:	push   0x403014
  401295:	pop    eax
  401296:	call   DWORD PTR cs:[eax]
  401299:	pop    ecx
  40129a:	sub    esp,0xffffffcc
  40129d:	mov    ebp,DWORD PTR [esp]
  4012a0:	add    esp,0x4
  4012a3:	ret    
  4012a4:	mov    edi,edi
  4012a6:	push   ebp
  4012a7:	mov    ebp,esp
  4012a9:	sub    esp,0x24
  4012ac:	push   ecx
  4012ad:	push   0x40
  4012af:	mov    ebx,0x1000
  4012b4:	push   ebx
  4012b5:	push   0x6bc
  4012ba:	push   0x0
  4012bc:	push   0x0
  4012be:	xor    DWORD PTR [esp],0x717374ee
  4012c5:	pop    ebx
  4012c6:	sub    ebx,0x713344a2
  4012cc:	push   DWORD PTR [ebx]
  4012ce:	sub    DWORD PTR [esp],0x2
  4012d2:	push   0x403034
  4012d7:	pop    ebx
  4012d8:	pop    DWORD PTR [ebx]
  4012da:	push   0x403034
  4012df:	pop    eax
  4012e0:	call   DWORD PTR cs:[eax]
  4012e3:	xchg   DWORD PTR [esp],eax
  4012e6:	mov    ecx,eax
  4012e8:	pop    esi
  4012e9:	mov    DWORD PTR [ecx+0x334],esi
  4012ef:	mov    edx,DWORD PTR [ecx+0x334]
  4012f5:	lea    edi,[edx]
  4012f7:	sub    edx,edx
  4012f9:	dec    edx
  4012fa:	and    edx,0x401eb6
  401300:	mov    ebx,0xa67a2241
  401305:	xor    esi,esi
  401307:	add    esi,0x6bc
  40130d:	cmp    esi,0x0
  401310:	je     0x40132d
  401312:	add    esi,0xfffffffc
  401315:	mov    eax,ebx
  401317:	add    eax,DWORD PTR [edx]
  401319:	sub    eax,0x1
  40131c:	mov    DWORD PTR [edi],eax
  40131e:	push   DWORD PTR [edx]
  401320:	mov    ebx,0xfffffffc
  401325:	sub    edx,ebx
  401327:	sub    edi,ebx
  401329:	pop    ebx
  40132a:	inc    ebx
  40132b:	jmp    0x40130d
  40132d:	push   ecx
  40132e:	mov    esi,0x0
  401333:	push   esi
  401334:	push   0x403024
  401339:	pop    eax
  40133a:	call   DWORD PTR cs:[eax]
  40133d:	pop    ecx
  40133e:	sub    esp,0xffffffdc
  401341:	pop    ebp
  401342:	ret    
  401343:	add    BYTE PTR [ebx-0x1374aa01],cl
  401349:	sub    esp,0x40
  40134c:	push   ecx
  40134d:	push   edi
  40134e:	push   ebx
  40134f:	push   DWORD PTR [ecx+0x4c]
  401352:	push   DWORD PTR [ecx+0x2b8]
  401358:	call   0x401654
  40135d:	add    esp,0x10
  401360:	pop    ecx
  401361:	push   ecx
  401362:	push   0x0
  401364:	push   0x403000
  401369:	pop    eax
  40136a:	call   DWORD PTR cs:[eax]
  40136d:	pop    ecx
  40136e:	push   ecx
  40136f:	mov    edx,0x0
  401374:	push   edx
  401375:	push   0x403014
  40137a:	pop    eax
  40137b:	call   DWORD PTR cs:[eax]
  40137e:	pop    ecx
  40137f:	sub    esp,0xffffffc0
  401382:	mov    ebp,DWORD PTR [esp]
  401385:	add    esp,0x4
  401388:	ret    
  401389:	add    BYTE PTR [eax],al
  40138b:	add    BYTE PTR [ebx-0x1374aa01],cl
  401391:	sub    esp,0x60
  401394:	push   ecx
  401395:	lea    eax,[ecx]
  401397:	push   eax
  401398:	push   0x40300c
  40139d:	pop    eax
  40139e:	call   DWORD PTR cs:[eax]
  4013a1:	test   eax,eax
  4013a3:	jne    0x401395
  4013a5:	pop    ecx
  4013a6:	push   ecx
  4013a7:	push   eax
  4013a8:	push   edx
  4013a9:	push   DWORD PTR [ecx+0x1b8]
  4013af:	push   edx
  4013b0:	call   0x4017d4
  4013b5:	add    esp,0x10
  4013b8:	pop    ecx
  4013b9:	push   ecx
  4013ba:	push   0x0
  4013bc:	push   0x403078
  4013c1:	pop    eax
  4013c2:	call   DWORD PTR cs:[eax]
  4013c5:	pop    ecx
  4013c6:	sub    esp,0xffffffa0
  4013c9:	mov    ebp,DWORD PTR [esp]
  4013cc:	add    esp,0x4
  4013cf:	ret    
  4013d0:	mov    edi,edi
  4013d2:	push   ebp
  4013d3:	mov    ebp,esp
  4013d5:	sub    esp,0x50
  4013d8:	push   ecx
  4013d9:	push   0x403018
  4013de:	pop    eax
  4013df:	call   DWORD PTR cs:[eax]
  4013e2:	pop    ecx
  4013e3:	push   ecx
  4013e4:	push   DWORD PTR [ecx+0x230]
  4013ea:	push   edx
  4013eb:	push   esi
  4013ec:	push   DWORD PTR [ecx+0x110]
  4013f2:	call   0x401cc4
  4013f7:	add    esp,0x10
  4013fa:	pop    ecx
  4013fb:	push   ecx
  4013fc:	push   0x0
  4013fe:	push   0x403000
  401403:	pop    eax
  401404:	call   DWORD PTR cs:[eax]
  401407:	pop    ecx
  401408:	sub    esp,0xffffffb0
  40140b:	mov    ebp,DWORD PTR [esp]
  40140e:	add    esp,0x4
  401411:	ret    
	...
  40141e:	add    BYTE PTR [eax],al
  401420:	mov    edi,edi
  401422:	push   ebp
  401423:	mov    ebp,esp
  401425:	sub    esp,0x48
  401428:	push   ecx
  401429:	push   esi
  40142a:	push   esi
  40142b:	call   0x401c78
  401430:	add    esp,0x8
  401433:	pop    ecx
  401434:	push   ecx
  401435:	push   0x0
  401437:	push   0x403004
  40143c:	pop    eax
  40143d:	call   DWORD PTR cs:[eax]
  401440:	pop    ecx
  401441:	push   ecx
  401442:	mov    eax,0x0
  401447:	push   eax
  401448:	push   0x403024
  40144d:	pop    eax
  40144e:	call   DWORD PTR cs:[eax]
  401451:	pop    ecx
  401452:	sub    esp,0xffffffb8
  401455:	mov    ebp,DWORD PTR [esp]
  401458:	add    esp,0x4
  40145b:	ret    
  40145c:	mov    edi,edi
  40145e:	push   ebp
  40145f:	mov    ebp,esp
  401461:	sub    esp,0x40
  401464:	push   ecx
  401465:	push   DWORD PTR [ecx+0x78]
  401468:	push   esi
  401469:	push   esi
  40146a:	push   eax
  40146b:	call   0x401788
  401470:	add    esp,0x10
  401473:	pop    ecx
  401474:	push   ecx
  401475:	push   0x0
  401477:	push   0x40301c
  40147c:	pop    eax
  40147d:	call   DWORD PTR cs:[eax]
  401480:	pop    ecx
  401481:	push   ecx
  401482:	push   0x0
  401484:	push   0x40302c
  401489:	pop    eax
  40148a:	call   DWORD PTR cs:[eax]
  40148d:	pop    ecx
  40148e:	sub    esp,0xffffffc0
  401491:	mov    ebp,DWORD PTR [esp]
  401494:	add    esp,0x4
  401497:	ret    
  401498:	mov    edi,edi
  40149a:	push   ebp
  40149b:	mov    ebp,esp
  40149d:	sub    esp,0x3c
  4014a0:	push   ecx
  4014a1:	push   0x0
  4014a3:	push   0x40301c
  4014a8:	pop    eax
  4014a9:	call   DWORD PTR cs:[eax]
  4014ac:	pop    ecx
  4014ad:	push   ecx
  4014ae:	push   DWORD PTR [ecx+0x38c]
  4014b4:	push   edx
  4014b5:	call   0x4010bc
  4014ba:	add    esp,0x8
  4014bd:	pop    ecx
  4014be:	push   ecx
  4014bf:	push   0x0
  4014c1:	push   0x403004
  4014c6:	pop    eax
  4014c7:	call   DWORD PTR cs:[eax]
  4014ca:	pop    ecx
  4014cb:	sub    esp,0xffffffc4
  4014ce:	mov    ebp,DWORD PTR [esp]
  4014d1:	add    esp,0x4
  4014d4:	ret    
  4014d5:	add    BYTE PTR [eax],al
  4014d7:	add    BYTE PTR [ebx-0x1374aa01],cl
  4014dd:	sub    esp,0x50
  4014e0:	push   ecx
  4014e1:	push   DWORD PTR [ecx+0x224]
  4014e7:	push   edx
  4014e8:	push   DWORD PTR [ecx+0x350]
  4014ee:	call   0x4013d0
  4014f3:	add    esp,0xc
  4014f6:	pop    ecx
  4014f7:	push   ecx
  4014f8:	push   0x0
  4014fa:	push   0x403078
  4014ff:	pop    eax
  401500:	call   DWORD PTR cs:[eax]
  401503:	pop    ecx
  401504:	push   ecx
  401505:	mov    edi,0x0
  40150a:	push   edi
  40150b:	push   0x403014
  401510:	pop    eax
  401511:	call   DWORD PTR cs:[eax]
  401514:	pop    ecx
  401515:	sub    esp,0xffffffb0
  401518:	mov    ebp,DWORD PTR [esp]
  40151b:	add    esp,0x4
  40151e:	ret    
	...
  401527:	add    BYTE PTR [eax+0x0],ch
  40152a:	mov    al,0x46
  40152c:	add    BYTE PTR [edx+0x403090],bh
  401532:	and    WORD PTR [edx],0x0
  401536:	push   DWORD PTR [edx]
  401538:	pop    eax
  401539:	mov    ecx,eax
  40153b:	stc    
  40153c:	adc    al,0x3b
  40153e:	add    ecx,DWORD PTR [eax]
  401540:	mov    eax,DWORD PTR [ecx+0x1c]
  401543:	ror    eax,0x8
  401546:	sub    al,0x0
  401548:	cmp    al,0x70
  40154a:	pop    ecx
  40154b:	jb     0x401556
  40154d:	nop
  40154e:	nop
  40154f:	nop
  401550:	nop
  401551:	jmp    0x4010b4
  401556:	cli    
  401557:	add    BYTE PTR [eax],al
  401559:	add    BYTE PTR [ecx],ch
  40155b:	arpl   WORD PTR [ebx-0x1374aa01],cx
  401561:	sub    esp,0x58
  401564:	push   ecx
  401565:	mov    ecx,0x0
  40156a:	push   ecx
  40156b:	push   0x40302c
  401570:	pop    eax
  401571:	call   DWORD PTR cs:[eax]
  401574:	pop    ecx
  401575:	push   ecx
  401576:	push   DWORD PTR [ecx+0x178]
  40157c:	push   DWORD PTR [ecx+0x130]
  401582:	push   DWORD PTR [ecx+0x22c]
  401588:	push   ebx
  401589:	call   0x40195c
  40158e:	add    esp,0x10
  401591:	pop    ecx
  401592:	push   ecx
  401593:	mov    eax,0x0
  401598:	push   eax
  401599:	push   0x403030
  40159e:	pop    eax
  40159f:	call   DWORD PTR cs:[eax]
  4015a2:	pop    ecx
  4015a3:	sub    esp,0xffffffa8
  4015a6:	mov    ebp,DWORD PTR [esp]
  4015a9:	add    esp,0x4
  4015ac:	ret    
  4015ad:	add    BYTE PTR [eax],al
  4015af:	add    BYTE PTR [ebx-0x1374aa01],cl
  4015b5:	sub    esp,0x44
  4015b8:	push   ecx
  4015b9:	push   0x0
  4015bb:	push   0x403014
  4015c0:	pop    eax
  4015c1:	call   DWORD PTR cs:[eax]
  4015c4:	pop    ecx
  4015c5:	push   ecx
  4015c6:	push   DWORD PTR [ecx+0x258]
  4015cc:	push   DWORD PTR [ecx+0x164]
  4015d2:	push   DWORD PTR [ecx+0x3e8]
  4015d8:	call   0x401498
  4015dd:	add    esp,0xc
  4015e0:	pop    ecx
  4015e1:	push   ecx
  4015e2:	mov    edi,0x0
  4015e7:	push   edi
  4015e8:	push   0x403070
  4015ed:	pop    eax
  4015ee:	call   DWORD PTR cs:[eax]
  4015f1:	pop    ecx
  4015f2:	sub    esp,0xffffffbc
  4015f5:	mov    ebp,DWORD PTR [esp]
  4015f8:	add    esp,0x4
  4015fb:	ret    
	...
  401608:	mov    edi,edi
  40160a:	push   ebp
  40160b:	mov    ebp,esp
  40160d:	sub    esp,0x50
  401610:	push   ecx
  401611:	push   DWORD PTR [ecx+0x1e4]
  401617:	push   ebx
  401618:	push   DWORD PTR [ecx+0x130]
  40161e:	call   0x4019a4
  401623:	add    esp,0xc
  401626:	pop    ecx
  401627:	push   ecx
  401628:	push   0x403010
  40162d:	pop    eax
  40162e:	call   DWORD PTR cs:[eax]
  401631:	pop    ecx
  401632:	push   ecx
  401633:	mov    ebx,0x0
  401638:	push   ebx
  401639:	push   0x403070
  40163e:	pop    eax
  40163f:	call   DWORD PTR cs:[eax]
  401642:	pop    ecx
  401643:	sub    esp,0xffffffb0
  401646:	mov    ebp,DWORD PTR [esp]
  401649:	add    esp,0x4
  40164c:	ret    
  40164d:	add    BYTE PTR [eax],al
  40164f:	add    BYTE PTR [eax],al
  401651:	add    BYTE PTR [eax],al
  401653:	add    BYTE PTR [ebx-0x1374aa01],cl
  401659:	sub    esp,0x58
  40165c:	push   ecx
  40165d:	mov    esi,0x0
  401662:	push   esi
  401663:	push   0x403024
  401668:	pop    eax
  401669:	call   DWORD PTR cs:[eax]
  40166c:	pop    ecx
  40166d:	push   ecx
  40166e:	push   edx
  40166f:	push   ebx
  401670:	push   DWORD PTR [ecx+0x33c]
  401676:	call   0x4012a4
  40167b:	add    esp,0xc
  40167e:	pop    ecx
  40167f:	push   ecx
  401680:	push   0x0
  401682:	push   0x40302c
  401687:	pop    eax
  401688:	call   DWORD PTR cs:[eax]
  40168b:	pop    ecx
  40168c:	sub    esp,0xffffffa8
  40168f:	mov    ebp,DWORD PTR [esp]
  401692:	add    esp,0x4
  401695:	ret    
	...
  40169e:	add    BYTE PTR [eax],al
  4016a0:	mov    edi,edi
  4016a2:	push   ebp
  4016a3:	mov    ebp,esp
  4016a5:	sub    esp,0x48
  4016a8:	push   ecx
  4016a9:	lea    esi,[ecx]
  4016ab:	push   esi
  4016ac:	push   0x40300c
  4016b1:	pop    eax
  4016b2:	call   DWORD PTR cs:[eax]
  4016b5:	test   eax,eax
  4016b7:	jne    0x4016a9
  4016b9:	pop    ecx
  4016ba:	push   ecx
  4016bb:	push   edi
  4016bc:	push   edx
  4016bd:	push   DWORD PTR [ecx+0x28]
  4016c0:	push   edi
  4016c1:	call   0x401b60
  4016c6:	add    esp,0x10
  4016c9:	pop    ecx
  4016ca:	push   ecx
  4016cb:	push   0x0
  4016cd:	push   0x403028
  4016d2:	pop    eax
  4016d3:	call   DWORD PTR cs:[eax]
  4016d6:	pop    ecx
  4016d7:	sub    esp,0xffffffb8
  4016da:	mov    ebp,DWORD PTR [esp]
  4016dd:	add    esp,0x4
  4016e0:	ret    
  4016e1:	add    BYTE PTR [eax],al
  4016e3:	add    BYTE PTR [ebx-0x1374aa01],cl
  4016e9:	sub    esp,0x30
  4016ec:	push   ecx
  4016ed:	mov    ebx,0x0
  4016f2:	push   ebx
  4016f3:	push   0x403030
  4016f8:	pop    eax
  4016f9:	call   DWORD PTR cs:[eax]
  4016fc:	pop    ecx
  4016fd:	push   ecx
  4016fe:	push   DWORD PTR [ecx+0x260]
  401704:	push   DWORD PTR [ecx+0x58]
  401707:	push   DWORD PTR [ecx+0x304]
  40170d:	push   DWORD PTR [ecx+0xf4]
  401713:	call   0x4011d0
  401718:	add    esp,0x10
  40171b:	pop    ecx
  40171c:	push   ecx
  40171d:	push   0x0
  40171f:	push   0x40302c
  401724:	pop    eax
  401725:	call   DWORD PTR cs:[eax]
  401728:	pop    ecx
  401729:	sub    esp,0xffffffd0
  40172c:	mov    ebp,DWORD PTR [esp]
  40172f:	add    esp,0x4
  401732:	ret    
  401733:	add    BYTE PTR [eax],al
  401735:	add    BYTE PTR [eax],al
  401737:	add    BYTE PTR [ebx-0x1374aa01],cl
  40173d:	sub    esp,0x2c
  401740:	push   ecx
  401741:	mov    ecx,0x0
  401746:	push   ecx
  401747:	push   0x403028
  40174c:	pop    eax
  40174d:	call   DWORD PTR cs:[eax]
  401750:	pop    ecx
  401751:	push   ecx
  401752:	push   DWORD PTR [ecx+0x304]
  401758:	push   eax
  401759:	call   0x40145c
  40175e:	add    esp,0x8
  401761:	pop    ecx
  401762:	push   ecx
  401763:	mov    edx,0x0
  401768:	push   edx
  401769:	push   0x403070
  40176e:	pop    eax
  40176f:	call   DWORD PTR cs:[eax]
  401772:	pop    ecx
  401773:	sub    esp,0xffffffd4
  401776:	mov    ebp,DWORD PTR [esp]
  401779:	add    esp,0x4
  40177c:	ret    
	...
  401785:	add    BYTE PTR [eax],al
  401787:	add    BYTE PTR [ebx-0x1374aa01],cl
  40178d:	sub    esp,0x34
  401790:	push   ecx
  401791:	push   ebx
  401792:	push   edx
  401793:	push   DWORD PTR [ecx+0x19c]
  401799:	push   DWORD PTR [ecx+0x198]
  40179f:	call   0x401d90
  4017a4:	add    esp,0x10
  4017a7:	pop    ecx
  4017a8:	push   ecx
  4017a9:	push   0x403010
  4017ae:	pop    eax
  4017af:	call   DWORD PTR cs:[eax]
  4017b2:	pop    ecx
  4017b3:	push   ecx
  4017b4:	mov    eax,0x0
  4017b9:	push   eax
  4017ba:	push   0x403070
  4017bf:	pop    eax
  4017c0:	call   DWORD PTR cs:[eax]
  4017c3:	pop    ecx
  4017c4:	sub    esp,0xffffffcc
  4017c7:	mov    ebp,DWORD PTR [esp]
  4017ca:	add    esp,0x4
  4017cd:	ret    
  4017ce:	add    BYTE PTR [eax],al
  4017d0:	add    BYTE PTR [eax],al
  4017d2:	add    BYTE PTR [eax],al
  4017d4:	mov    edi,edi
  4017d6:	push   ebp
  4017d7:	mov    ebp,esp
  4017d9:	sub    esp,0x2c
  4017dc:	push   ecx
  4017dd:	push   DWORD PTR [ecx+0xe8]
  4017e3:	push   ebx
  4017e4:	push   DWORD PTR [ecx+0x68]
  4017e7:	push   ebx
  4017e8:	call   0x4016a0
  4017ed:	add    esp,0x10
  4017f0:	pop    ecx
  4017f1:	push   ecx
  4017f2:	mov    ebx,0x0
  4017f7:	push   ebx
  4017f8:	push   0x403038
  4017fd:	pop    eax
  4017fe:	call   DWORD PTR cs:[eax]
  401801:	pop    ecx
  401802:	push   ecx
  401803:	mov    ecx,0x0
  401808:	push   ecx
  401809:	push   0x40301c
  40180e:	pop    eax
  40180f:	call   DWORD PTR cs:[eax]
  401812:	pop    ecx
  401813:	sub    esp,0xffffffd4
  401816:	mov    ebp,DWORD PTR [esp]
  401819:	add    esp,0x4
  40181c:	ret    
	...
  40182d:	add    BYTE PTR [eax],al
  40182f:	add    BYTE PTR [ebx-0x1374aa01],cl
  401835:	sub    esp,0x54
  401838:	push   ecx
  401839:	push   0x0
  40183b:	push   0x403084
  401840:	pop    eax
  401841:	call   DWORD PTR cs:[eax]
  401844:	pop    ecx
  401845:	push   ecx
  401846:	push   DWORD PTR [ecx+0x390]
  40184c:	push   eax
  40184d:	push   edi
  40184e:	push   DWORD PTR [ecx+0x18c]
  401854:	call   0x401608
  401859:	add    esp,0x10
  40185c:	pop    ecx
  40185d:	push   ecx
  40185e:	mov    ebx,0x0
  401863:	push   ebx
  401864:	push   0x40302c
  401869:	pop    eax
  40186a:	call   DWORD PTR cs:[eax]
  40186d:	pop    ecx
  40186e:	sub    esp,0xffffffac
  401871:	mov    ebp,DWORD PTR [esp]
  401874:	add    esp,0x4
  401877:	ret    
  401878:	mov    edi,edi
  40187a:	push   ebp
  40187b:	mov    ebp,esp
  40187d:	sub    esp,0x50
  401880:	push   ecx
  401881:	push   0x0
  401883:	push   0x403024
  401888:	pop    eax
  401889:	call   DWORD PTR cs:[eax]
  40188c:	pop    ecx
  40188d:	push   ecx
  40188e:	push   DWORD PTR [ecx+0xc0]
  401894:	push   DWORD PTR [ecx+0x354]
  40189a:	call   0x40190c
  40189f:	add    esp,0x8
  4018a2:	pop    ecx
  4018a3:	push   ecx
  4018a4:	mov    ebx,0x0
  4018a9:	push   ebx
  4018aa:	push   0x403038
  4018af:	pop    eax
  4018b0:	call   DWORD PTR cs:[eax]
  4018b3:	pop    ecx
  4018b4:	sub    esp,0xffffffb0
  4018b7:	mov    ebp,DWORD PTR [esp]
  4018ba:	add    esp,0x4
  4018bd:	ret    
  4018be:	add    BYTE PTR [eax],al
  4018c0:	mov    edi,edi
  4018c2:	push   ebp
  4018c3:	mov    ebp,esp
  4018c5:	sub    esp,0x3c
  4018c8:	push   ecx
  4018c9:	push   DWORD PTR [ecx+0x70]
  4018cc:	push   DWORD PTR [ecx+0xdc]
  4018d2:	push   DWORD PTR [ecx+0x26c]
  4018d8:	push   DWORD PTR [ecx+0x34]
  4018db:	call   0x401344
  4018e0:	add    esp,0x10
  4018e3:	pop    ecx
  4018e4:	push   ecx
  4018e5:	mov    esi,0x0
  4018ea:	push   esi
  4018eb:	push   0x403024
  4018f0:	pop    eax
  4018f1:	call   DWORD PTR cs:[eax]
  4018f4:	pop    ecx
  4018f5:	push   ecx
  4018f6:	push   0x0
  4018f8:	push   0x40302c
  4018fd:	pop    eax
  4018fe:	call   DWORD PTR cs:[eax]
  401901:	pop    ecx
  401902:	sub    esp,0xffffffc4
  401905:	mov    ebp,DWORD PTR [esp]
  401908:	add    esp,0x4
  40190b:	ret    
  40190c:	mov    edi,edi
  40190e:	push   ebp
  40190f:	mov    ebp,esp
  401911:	sub    esp,0x28
  401914:	push   ecx
  401915:	push   0x0
  401917:	push   0x403070
  40191c:	pop    eax
  40191d:	call   DWORD PTR cs:[eax]
  401920:	pop    ecx
  401921:	push   ecx
  401922:	push   edx
  401923:	push   DWORD PTR [ecx+0x2cc]
  401929:	push   DWORD PTR [ecx+0x158]
  40192f:	call   0x401a34
  401934:	add    esp,0xc
  401937:	pop    ecx
  401938:	push   ecx
  401939:	push   0x0
  40193b:	push   0x403004
  401940:	pop    eax
  401941:	call   DWORD PTR cs:[eax]
  401944:	pop    ecx
  401945:	sub    esp,0xffffffd8
  401948:	mov    ebp,DWORD PTR [esp]
  40194b:	add    esp,0x4
  40194e:	ret    
	...
  40195b:	add    BYTE PTR [ebx-0x1374aa01],cl
  401961:	sub    esp,0x38
  401964:	push   ecx
  401965:	lea    edi,[ecx]
  401967:	push   edi
  401968:	push   0x40300c
  40196d:	pop    eax
  40196e:	call   DWORD PTR cs:[eax]
  401971:	test   eax,eax
  401973:	jne    0x401965
  401975:	pop    ecx
  401976:	push   ecx
  401977:	push   DWORD PTR [ecx+0x4c]
  40197a:	push   eax
  40197b:	push   DWORD PTR [ecx+0x1d4]
  401981:	call   0x401738
  401986:	add    esp,0xc
  401989:	pop    ecx
  40198a:	push   ecx
  40198b:	push   0x0
  40198d:	push   0x403070
  401992:	pop    eax
  401993:	call   DWORD PTR cs:[eax]
  401996:	pop    ecx
  401997:	sub    esp,0xffffffc8
  40199a:	mov    ebp,DWORD PTR [esp]
  40199d:	add    esp,0x4
  4019a0:	ret    
  4019a1:	add    BYTE PTR [eax],al
  4019a3:	add    BYTE PTR [ebx-0x1374aa01],cl
  4019a9:	sub    esp,0x60
  4019ac:	push   ecx
  4019ad:	push   esi
  4019ae:	push   eax
  4019af:	call   0x401ac4
  4019b4:	add    esp,0x8
  4019b7:	pop    ecx
  4019b8:	push   ecx
  4019b9:	push   0x403018
  4019be:	pop    eax
  4019bf:	call   DWORD PTR cs:[eax]
  4019c2:	pop    ecx
  4019c3:	push   ecx
  4019c4:	push   0x0
  4019c6:	push   0x40302c
  4019cb:	pop    eax
  4019cc:	call   DWORD PTR cs:[eax]
  4019cf:	pop    ecx
  4019d0:	sub    esp,0xffffffa0
  4019d3:	mov    ebp,DWORD PTR [esp]
  4019d6:	add    esp,0x4
  4019d9:	ret    
  4019da:	add    BYTE PTR [eax],al
  4019dc:	mov    edi,edi
  4019de:	push   ebp
  4019df:	mov    ebp,esp
  4019e1:	sub    esp,0x2c
  4019e4:	push   ecx
  4019e5:	push   DWORD PTR [ecx+0x25c]
  4019eb:	push   DWORD PTR [ecx+0x1e0]
  4019f1:	push   edi
  4019f2:	push   DWORD PTR [ecx+0x238]
  4019f8:	call   0x401d04
  4019fd:	add    esp,0x10
  401a00:	pop    ecx
  401a01:	push   ecx
  401a02:	mov    edi,0x0
  401a07:	push   edi
  401a08:	push   0x403024
  401a0d:	pop    eax
  401a0e:	call   DWORD PTR cs:[eax]
  401a11:	pop    ecx
  401a12:	push   ecx
  401a13:	mov    ecx,0x0
  401a18:	push   ecx
  401a19:	push   0x403028
  401a1e:	pop    eax
  401a1f:	call   DWORD PTR cs:[eax]
  401a22:	pop    ecx
  401a23:	sub    esp,0xffffffd4
  401a26:	mov    ebp,DWORD PTR [esp]
  401a29:	add    esp,0x4
  401a2c:	ret    
  401a2d:	add    BYTE PTR [eax],al
  401a2f:	add    BYTE PTR [eax],al
  401a31:	add    BYTE PTR [eax],al
  401a33:	add    BYTE PTR [ebx-0x1374aa01],cl
  401a39:	sub    esp,0x38
  401a3c:	push   ecx
  401a3d:	push   eax
  401a3e:	push   ebx
  401a3f:	push   DWORD PTR [ecx+0x334]
  401a45:	call   0x401d48
  401a4a:	add    esp,0xc
  401a4d:	pop    ecx
  401a4e:	push   ecx
  401a4f:	mov    edx,0x0
  401a54:	push   edx
  401a55:	push   0x40301c
  401a5a:	pop    eax
  401a5b:	call   DWORD PTR cs:[eax]
  401a5e:	pop    ecx
  401a5f:	push   ecx
  401a60:	push   0x0
  401a62:	push   0x403070
  401a67:	pop    eax
  401a68:	call   DWORD PTR cs:[eax]
  401a6b:	pop    ecx
  401a6c:	sub    esp,0xffffffc8
  401a6f:	mov    ebp,DWORD PTR [esp]
  401a72:	add    esp,0x4
  401a75:	ret    
	...
  401a7e:	add    BYTE PTR [eax],al
  401a80:	mov    edi,edi
  401a82:	push   ebp
  401a83:	mov    ebp,esp
  401a85:	sub    esp,0x2c
  401a88:	push   ecx
  401a89:	push   edx
  401a8a:	push   DWORD PTR [ecx+0xa8]
  401a90:	push   edi
  401a91:	call   0x401878
  401a96:	add    esp,0xc
  401a99:	pop    ecx
  401a9a:	push   ecx
  401a9b:	push   0x0
  401a9d:	push   0x403038
  401aa2:	pop    eax
  401aa3:	call   DWORD PTR cs:[eax]
  401aa6:	pop    ecx
  401aa7:	push   ecx
  401aa8:	lea    eax,[ecx]
  401aaa:	push   eax
  401aab:	push   0x40300c
  401ab0:	pop    eax
  401ab1:	call   DWORD PTR cs:[eax]
  401ab4:	test   eax,eax
  401ab6:	jne    0x401aa8
  401ab8:	pop    ecx
  401ab9:	sub    esp,0xffffffd4
  401abc:	mov    ebp,DWORD PTR [esp]
  401abf:	add    esp,0x4
  401ac2:	ret    
  401ac3:	add    BYTE PTR [ebx-0x1374aa01],cl
  401ac9:	sub    esp,0x28
  401acc:	push   ecx
  401acd:	mov    edx,0x0
  401ad2:	push   edx
  401ad3:	push   0x403004
  401ad8:	pop    eax
  401ad9:	call   DWORD PTR cs:[eax]
  401adc:	pop    ecx
  401add:	push   ecx
  401ade:	push   DWORD PTR [ecx+0x3d0]
  401ae4:	push   edi
  401ae5:	call   0x401420
  401aea:	add    esp,0x8
  401aed:	pop    ecx
  401aee:	push   ecx
  401aef:	mov    edi,0x0
  401af4:	push   edi
  401af5:	push   0x403024
  401afa:	pop    eax
  401afb:	call   DWORD PTR cs:[eax]
  401afe:	pop    ecx
  401aff:	sub    esp,0xffffffd8
  401b02:	mov    ebp,DWORD PTR [esp]
  401b05:	add    esp,0x4
  401b08:	ret    
  401b09:	add    BYTE PTR [eax],al
  401b0b:	add    BYTE PTR [ebx-0x1374aa01],cl
  401b11:	sub    esp,0x2c
  401b14:	push   ecx
  401b15:	push   DWORD PTR [ecx+0xb0]
  401b1b:	push   DWORD PTR [ecx+0x114]
  401b21:	call   0x4015b0
  401b26:	add    esp,0x8
  401b29:	pop    ecx
  401b2a:	push   ecx
  401b2b:	mov    esi,0x0
  401b30:	push   esi
  401b31:	push   0x40302c
  401b36:	pop    eax
  401b37:	call   DWORD PTR cs:[eax]
  401b3a:	pop    ecx
  401b3b:	push   ecx
  401b3c:	mov    eax,0x0
  401b41:	push   eax
  401b42:	push   0x403024
  401b47:	pop    eax
  401b48:	call   DWORD PTR cs:[eax]
  401b4b:	pop    ecx
  401b4c:	sub    esp,0xffffffd4
  401b4f:	mov    ebp,DWORD PTR [esp]
  401b52:	add    esp,0x4
  401b55:	ret    
	...
  401b5e:	add    BYTE PTR [eax],al
  401b60:	mov    edi,edi
  401b62:	push   ebp
  401b63:	mov    ebp,esp
  401b65:	sub    esp,0x34
  401b68:	push   ecx
  401b69:	push   edi
  401b6a:	push   eax
  401b6b:	call   0x401e20
  401b70:	add    esp,0x8
  401b73:	pop    ecx
  401b74:	push   ecx
  401b75:	mov    edx,0x0
  401b7a:	push   edx
  401b7b:	push   0x403038
  401b80:	pop    eax
  401b81:	call   DWORD PTR cs:[eax]
  401b84:	pop    ecx
  401b85:	push   ecx
  401b86:	push   0x0
  401b88:	push   0x403024
  401b8d:	pop    eax
  401b8e:	call   DWORD PTR cs:[eax]
  401b91:	pop    ecx
  401b92:	sub    esp,0xffffffcc
  401b95:	mov    ebp,DWORD PTR [esp]
  401b98:	add    esp,0x4
  401b9b:	ret    
  401b9c:	mov    edi,edi
  401b9e:	push   ebp
  401b9f:	mov    ebp,esp
  401ba1:	sub    esp,0x28
  401ba4:	push   ecx
  401ba5:	mov    eax,0x0
  401baa:	push   eax
  401bab:	push   0x40302c
  401bb0:	pop    eax
  401bb1:	call   DWORD PTR cs:[eax]
  401bb4:	pop    ecx
  401bb5:	push   ecx
  401bb6:	push   DWORD PTR [ecx+0x78]
  401bb9:	push   edx
  401bba:	push   eax
  401bbb:	call   0x401260
  401bc0:	add    esp,0xc
  401bc3:	pop    ecx
  401bc4:	push   ecx
  401bc5:	mov    ecx,0x0
  401bca:	push   ecx
  401bcb:	push   0x403024
  401bd0:	pop    eax
  401bd1:	call   DWORD PTR cs:[eax]
  401bd4:	pop    ecx
  401bd5:	sub    esp,0xffffffd8
  401bd8:	mov    ebp,DWORD PTR [esp]
  401bdb:	add    esp,0x4
  401bde:	ret    
  401bdf:	add    BYTE PTR [ebx-0x1374aa01],cl
  401be5:	sub    esp,0x24
  401be8:	push   ecx
  401be9:	push   DWORD PTR [ecx+0x2e8]
  401bef:	push   DWORD PTR [ecx+0x164]
  401bf5:	push   eax
  401bf6:	call   0x401a80
  401bfb:	add    esp,0xc
  401bfe:	pop    ecx
  401bff:	push   ecx
  401c00:	mov    edx,0x0
  401c05:	push   edx
  401c06:	push   0x40302c
  401c0b:	pop    eax
  401c0c:	call   DWORD PTR cs:[eax]
  401c0f:	pop    ecx
  401c10:	push   ecx
  401c11:	mov    eax,0x0
  401c16:	push   eax
  401c17:	push   0x403014
  401c1c:	pop    eax
  401c1d:	call   DWORD PTR cs:[eax]
  401c20:	pop    ecx
  401c21:	sub    esp,0xffffffdc
  401c24:	mov    ebp,DWORD PTR [esp]
  401c27:	add    esp,0x4
  401c2a:	ret    
  401c2b:	add    BYTE PTR [ebx-0x1374aa01],cl
  401c31:	sub    esp,0x28
  401c34:	push   ecx
  401c35:	mov    edi,0x0
  401c3a:	push   edi
  401c3b:	push   0x403014
  401c40:	pop    eax
  401c41:	call   DWORD PTR cs:[eax]
  401c44:	pop    ecx
  401c45:	push   ecx
  401c46:	push   DWORD PTR [ecx+0x308]
  401c4c:	push   DWORD PTR [ecx+0x2c0]
  401c52:	call   0x4019dc
  401c57:	add    esp,0x8
  401c5a:	pop    ecx
  401c5b:	push   ecx
  401c5c:	push   0x0
  401c5e:	push   0x403084
  401c63:	pop    eax
  401c64:	call   DWORD PTR cs:[eax]
  401c67:	pop    ecx
  401c68:	sub    esp,0xffffffd8
  401c6b:	mov    ebp,DWORD PTR [esp]
  401c6e:	add    esp,0x4
  401c71:	ret    
  401c72:	add    BYTE PTR [eax],al
  401c74:	add    BYTE PTR [eax],al
  401c76:	add    BYTE PTR [eax],al
  401c78:	mov    edi,edi
  401c7a:	push   ebp
  401c7b:	mov    ebp,esp
  401c7d:	sub    esp,0x60
  401c80:	push   ecx
  401c81:	push   DWORD PTR [ecx+0x17c]
  401c87:	push   edx
  401c88:	push   DWORD PTR [ecx+0xb4]
  401c8e:	push   eax
  401c8f:	call   0x401be0
  401c94:	add    esp,0x10
  401c97:	pop    ecx
  401c98:	push   ecx
  401c99:	push   0x0
  401c9b:	push   0x403024
  401ca0:	pop    eax
  401ca1:	call   DWORD PTR cs:[eax]
  401ca4:	pop    ecx
  401ca5:	push   ecx
  401ca6:	mov    ecx,0x0
  401cab:	push   ecx
  401cac:	push   0x403078
  401cb1:	pop    eax
  401cb2:	call   DWORD PTR cs:[eax]
  401cb5:	pop    ecx
  401cb6:	sub    esp,0xffffffa0
  401cb9:	mov    ebp,DWORD PTR [esp]
  401cbc:	add    esp,0x4
  401cbf:	ret    
  401cc0:	add    BYTE PTR [eax],al
  401cc2:	add    BYTE PTR [eax],al
  401cc4:	mov    edi,edi
  401cc6:	push   ebp
  401cc7:	mov    ebp,esp
  401cc9:	sub    esp,0x28
  401ccc:	push   ecx
  401ccd:	push   0x0
  401ccf:	push   0x403030
  401cd4:	pop    eax
  401cd5:	call   DWORD PTR cs:[eax]
  401cd8:	pop    ecx
  401cd9:	push   ecx
  401cda:	push   esi
  401cdb:	push   edi
  401cdc:	push   DWORD PTR [ecx+0x68]
  401cdf:	call   0x401b9c
  401ce4:	add    esp,0xc
  401ce7:	pop    ecx
  401ce8:	push   ecx
  401ce9:	mov    edx,0x0
  401cee:	push   edx
  401cef:	push   0x403078
  401cf4:	pop    eax
  401cf5:	call   DWORD PTR cs:[eax]
  401cf8:	pop    ecx
  401cf9:	sub    esp,0xffffffd8
  401cfc:	mov    ebp,DWORD PTR [esp]
  401cff:	add    esp,0x4
  401d02:	ret    
  401d03:	add    BYTE PTR [ebx-0x1374aa01],cl
  401d09:	sub    esp,0x2c
  401d0c:	push   ecx
  401d0d:	push   eax
  401d0e:	push   DWORD PTR [ecx+0x224]
  401d14:	call   0x401dd4
  401d19:	add    esp,0x8
  401d1c:	pop    ecx
  401d1d:	push   ecx
  401d1e:	push   0x0
  401d20:	push   0x403024
  401d25:	pop    eax
  401d26:	call   DWORD PTR cs:[eax]
  401d29:	pop    ecx
  401d2a:	push   ecx
  401d2b:	push   0x0
  401d2d:	push   0x403084
  401d32:	pop    eax
  401d33:	call   DWORD PTR cs:[eax]
  401d36:	pop    ecx
  401d37:	sub    esp,0xffffffd4
  401d3a:	mov    ebp,DWORD PTR [esp]
  401d3d:	add    esp,0x4
  401d40:	ret    
  401d41:	add    BYTE PTR [eax],al
  401d43:	add    BYTE PTR [eax],al
  401d45:	add    BYTE PTR [eax],al
  401d47:	add    BYTE PTR [ebx-0x1374aa01],cl
  401d4d:	sub    esp,0x54
  401d50:	push   ecx
  401d51:	push   0x0
  401d53:	push   0x403070
  401d58:	pop    eax
  401d59:	call   DWORD PTR cs:[eax]
  401d5c:	pop    ecx
  401d5d:	push   ecx
  401d5e:	push   eax
  401d5f:	push   edi
  401d60:	push   edx
  401d61:	call   0x401c2c
  401d66:	add    esp,0xc
  401d69:	pop    ecx
  401d6a:	push   ecx
  401d6b:	mov    eax,0x0
  401d70:	push   eax
  401d71:	push   0x403038
  401d76:	pop    eax
  401d77:	call   DWORD PTR cs:[eax]
  401d7a:	pop    ecx
  401d7b:	sub    esp,0xffffffac
  401d7e:	mov    ebp,DWORD PTR [esp]
  401d81:	add    esp,0x4
  401d84:	ret    
	...
  401d8d:	add    BYTE PTR [eax],al
  401d8f:	add    BYTE PTR [ebx-0x1374aa01],cl
  401d95:	sub    esp,0x48
  401d98:	push   ecx
  401d99:	mov    eax,0x0
  401d9e:	push   eax
  401d9f:	push   0x403078
  401da4:	pop    eax
  401da5:	call   DWORD PTR cs:[eax]
  401da8:	pop    ecx
  401da9:	push   ecx
  401daa:	push   ebx
  401dab:	push   DWORD PTR [ecx+0x21c]
  401db1:	call   0x4014d8
  401db6:	add    esp,0x8
  401db9:	pop    ecx
  401dba:	push   ecx
  401dbb:	push   0x0
  401dbd:	push   0x403038
  401dc2:	pop    eax
  401dc3:	call   DWORD PTR cs:[eax]
  401dc6:	pop    ecx
  401dc7:	sub    esp,0xffffffb8
  401dca:	mov    ebp,DWORD PTR [esp]
  401dcd:	add    esp,0x4
  401dd0:	ret    
  401dd1:	add    BYTE PTR [eax],al
  401dd3:	add    BYTE PTR [ebx-0x1374aa01],cl
  401dd9:	sub    esp,0x24
  401ddc:	push   ecx
  401ddd:	push   edx
  401dde:	push   DWORD PTR [ecx+0x3f0]
  401de4:	push   DWORD PTR [ecx+0xc4]
  401dea:	push   edx
  401deb:	call   0x4010f4
  401df0:	add    esp,0x10
  401df3:	pop    ecx
  401df4:	push   ecx
  401df5:	push   0x0
  401df7:	push   0x403084
  401dfc:	pop    eax
  401dfd:	call   DWORD PTR cs:[eax]
  401e00:	pop    ecx
  401e01:	push   ecx
  401e02:	mov    eax,0x0
  401e07:	push   eax
  401e08:	push   0x403028
  401e0d:	pop    eax
  401e0e:	call   DWORD PTR cs:[eax]
  401e11:	pop    ecx
  401e12:	sub    esp,0xffffffdc
  401e15:	mov    ebp,DWORD PTR [esp]
  401e18:	add    esp,0x4
  401e1b:	ret    
  401e1c:	add    BYTE PTR [eax],al
  401e1e:	add    BYTE PTR [eax],al
  401e20:	mov    edi,edi
  401e22:	push   ebp
  401e23:	mov    ebp,esp
  401e25:	sub    esp,0x30
  401e28:	push   ecx
  401e29:	push   DWORD PTR [ecx+0x2e8]
  401e2f:	push   edx
  401e30:	call   0x401e60
  401e35:	add    esp,0x8
  401e38:	pop    ecx
  401e39:	push   ecx
  401e3a:	push   0x403010
  401e3f:	pop    eax
  401e40:	call   DWORD PTR cs:[eax]
  401e43:	pop    ecx
  401e44:	push   ecx
  401e45:	mov    ecx,0x0
  401e4a:	push   ecx
  401e4b:	push   0x403078
  401e50:	pop    eax
  401e51:	call   DWORD PTR cs:[eax]
  401e54:	pop    ecx
  401e55:	sub    esp,0xffffffd0
  401e58:	mov    ebp,DWORD PTR [esp]
  401e5b:	add    esp,0x4
  401e5e:	ret    
  401e5f:	add    BYTE PTR [ebx-0x1374aa01],cl
  401e65:	sub    esp,0x54
  401e68:	push   ecx
  401e69:	push   0x0
  401e6b:	push   0x403028
  401e70:	pop    eax
  401e71:	call   DWORD PTR cs:[eax]
  401e74:	pop    ecx
  401e75:	push   ecx
  401e76:	push   DWORD PTR [ecx+0x154]
  401e7c:	push   DWORD PTR [ecx+0x1c4]
  401e82:	call   0x40155c
  401e87:	add    esp,0x8
  401e8a:	pop    ecx
  401e8b:	push   ecx
  401e8c:	push   0x0
  401e8e:	push   0x40302c
  401e93:	pop    eax
  401e94:	call   DWORD PTR cs:[eax]
  401e97:	pop    ecx
  401e98:	sub    esp,0xffffffac
  401e9b:	mov    ebp,DWORD PTR [esp]
  401e9e:	add    esp,0x4
  401ea1:	ret    
  401ea2:	add    BYTE PTR [eax],al
  401ea4:	push   0x23eb534f
  401ea9:	repnz xor eax,0xb0101ad
  401eaf:	mov    DWORD PTR [eax-0x7b],ebp
  401eb2:	xor    esp,DWORD PTR [ecx]
  401eb4:	out    0x1b,al
  401eb6:	adc    BYTE PTR [esi],dh
  401eb8:	(bad)  
  401eb9:	mov    cl,0xd8
  401ebb:	shr    BYTE PTR [ecx],1
  401ebd:	dec    esi
  401ebe:	sub    BYTE PTR [eax],dh
  401ec0:	dec    ebp
  401ec1:	or     ebp,DWORD PTR [esi]
  401ec3:	pop    ebp
  401ec4:	clc    
  401ec5:	dec    ebp
  401ec6:	std    
  401ec7:	imul   ecx,DWORD PTR [ebx-0x2d16f98d],0x6e
  401ece:	neg    DWORD PTR [edx+0x7ff185f1]
  401ed4:	push   cs
  401ed5:	jp     0x401ee6
  401ed7:	retf   
  401ed8:	icebp  
  401ed9:	jmp    0xbe0f:0x830ea6f1
  401ee0:	icebp  
  401ee1:	call   0x494e93d7
  401ee6:	ud1    esi,ecx
  401ee9:	sbb    dh,cl
  401eeb:	mov    dl,0xe
  401eed:	push   ecx
  401eee:	cmovge esi,ecx
  401ef1:	push   es
  401ef2:	inc    ecx
  401ef3:	mov    dl,0xe5
  401ef5:	test   BYTE PTR [edi-0x1548a2af],dl
  401efb:	es repz dec eax
  401efe:	xchg   esi,eax
  401eff:	fisttp QWORD PTR [ebp*1-0x2718f56b]
  401f06:	imul   esi,ebp,0x75
  401f09:	mov    dl,0x8a
  401f0b:	les    ebx,FWORD PTR [edx+0x123b764d]
  401f11:	fwait
  401f12:	jl     0x401edb
  401f14:	in     eax,dx
  401f15:	fs or  eax,0xe87e0e7f
  401f1b:	jmp    0x401f71
  401f1d:	jmp    0xc80f:0x85178059
  401f24:	dec    ebp
  401f25:	fsub   QWORD PTR [ecx-0x74]
  401f28:	add    eax,0x837bf423
  401f2d:	jecxz  0x401fa5
  401f2f:	test   ah,ah
  401f31:	(bad)  
  401f32:	cld    
  401f33:	loopne 0x401eb5
  401f35:	add    eax,0x6ae0844c
  401f3a:	or     bh,cl
  401f3c:	push   ds
  401f3d:	jmp    0x401f3f
  401f3f:	mov    edx,0xa831927
  401f44:	icebp  
  401f45:	push   eax
  401f46:	mov    ebp,0x43bf0f5d
  401f4b:	mov    ds:0x5dc3ed58,al
  401f50:	cmps   DWORD PTR ds:[esi],DWORD PTR es:[edi]
  401f51:	jl     0x401f90
  401f53:	mov    eax,ds:0x574e93ae
  401f58:	push   edi
  401f59:	adc    dh,BYTE PTR [edx-0x24c25758]
  401f5f:	or     al,0x20
  401f61:	mov    esp,0xf099f324
  401f66:	loop   0x401f74
  401f68:	data16 add al,dl
  401f6b:	mov    dh,0x82
  401f6d:	mov    BYTE PTR [ebx+0x49],al
  401f70:	jge    0x401f46
  401f72:	sbb    edi,DWORD PTR [esi]
  401f74:	mov    bh,0x4f
  401f76:	cmp    ebp,DWORD PTR [edx+0x55c5b542]
  401f7c:	movs   DWORD PTR es:[edi],DWORD PTR ds:[esi]
  401f7d:	add    BYTE PTR [eax-0x56],0x5a
  401f81:	or     BYTE PTR [eax+0x4861a5c0],bh
  401f87:	rol    BYTE PTR ds:[edx],1
  401f8a:	xadd   DWORD PTR [ebp-0x1d7383db],eax
  401f91:	inc    esp
  401f92:	test   bh,al
  401f94:	jne    0x401f50
  401f96:	mov    al,0x5c
  401f98:	ficom  DWORD PTR [esi-0x40db055a]
  401f9e:	xchg   BYTE PTR [ebp+0x32],bl
  401fa1:	inc    eax
  401fa2:	iret   
  401fa3:	mov    edx,0x4534e9b5
  401fa8:	dec    edx
  401fa9:	mov    eax,ds:0x6342f712
  401fae:	hlt    
  401faf:	outs   dx,BYTE PTR ds:[esi]
  401fb0:	mov    ah,0xdd
  401fb2:	and    dl,BYTE PTR [ecx-0x580b6895]
  401fb8:	in     al,dx
  401fb9:	pushf  
  401fba:	sub    BYTE PTR [ecx-0x62],0xbb
  401fbe:	mov    ah,0x0
  401fc0:	data16 lods al,BYTE PTR ds:[esi]
  401fc2:	dec    esp
  401fc3:	das    
  401fc4:	call   0x4cff:0xb641b353
  401fcb:	adc    al,0x5a
  401fcd:	mov    esi,DWORD PTR [ecx]
  401fcf:	pop    eax
  401fd0:	test   al,0x39
  401fd3:	lods   al,BYTE PTR ds:[esi]
  401fd4:	pusha  
  401fd5:	mov    al,dh
  401fd7:	test   eax,0x58a4c9ab
  401fdc:	stos   DWORD PTR es:[edi],eax
  401fdd:	mov    DWORD PTR [edx+0x49022432],esi
  401fe3:	rol    DWORD PTR [eax-0x746b49a4],0xfb
  401fea:	aad    0x39
  401fec:	js     0x40203b
  401fee:	addr16 push ebx
  401ff0:	add    ebx,ecx
  401ff2:	and    al,0x4
  401ff4:	pop    ds
  401ff5:	inc    esp
  401ff6:	xchg   ebx,eax
  401ff7:	cmp    eax,0xd265bef5
  401ffc:	ror    DWORD PTR [edx-0x4336725f],0x73
  402003:	div    esi
  402005:	mov    bh,0xce
  402007:	xchg   ebx,eax
  402008:	push   eax
  402009:	push   eax
  40200a:	mov    bh,0x2c
  40200c:	and    al,0xea
  40200e:	xor    DWORD PTR [ebp-0x20],esp
  402011:	adc    eax,0x75e825cf
  402016:	js     0x402016
  402018:	(bad)  
  402019:	dec    DWORD PTR [edx-0x12fcffff]
  40201f:	adc    bh,bh
  402021:	je     0x402046
  402023:	js     0x401fa5
  402025:	xchg   edi,eax
  402026:	loopne 0x401faa
  402028:	fstp   TBYTE PTR [eax-0x6888ae55]
  40202e:	cmps   BYTE PTR ds:[esi],BYTE PTR es:[edi]
  40202f:	add    eax,0xfec4bada
  402034:	jbe    0x401fd2
  402036:	cmp    edx,DWORD PTR [edi-0x6b]
  402039:	mov    esp,0x36c268f8
  40203e:	mov    dl,0xf6
  402040:	enter  0x4194,0xae
  402044:	ss ror ebx,0xa9
  402048:	sub    al,dl
  40204a:	cld    
  40204b:	jle    0x402004
  40204d:	out    dx,eax
  40204e:	in     al,dx
  40204f:	mov    WORD PTR [ecx+0x10],cs
  402052:	adc    al,0x5b
  402054:	cmp    al,dh
  402056:	in     al,dx
  402057:	movs   BYTE PTR es:[edi],BYTE PTR ds:[esi]
  402058:	pop    ds
  402059:	js     0x40206f
  40205b:	fwait
  40205c:	loopne 0x401fe5
  40205e:	jmp    0x40203a
  402060:	xchg   esi,ecx
  402062:	mov    al,ds:0x48220420
  402067:	jmp    0x57ff:0x79b8ddff
  40206e:	js     0x401ff6
  402070:	add    BYTE PTR [eax+0x644004e0],ch
  402076:	stos   DWORD PTR es:[edi],eax
  402077:	cmp    ecx,esp
  402079:	aam    0xad
  40207b:	fsub   QWORD PTR [edi+0x4323de2f]
  402081:	enter  0xe8ad,0xe0
  402085:	cmp    bl,BYTE PTR [ebx+edx*2-0x5073c956]
  40208c:	dec    esp
  40208d:	push   ebx
  40208e:	in     al,dx
  40208f:	push   0xfd301d3c
  402094:	mov    edx,0x6502e624
  402099:	push   eax
  40209a:	es popa 
  40209c:	cmp    al,0xc8
  40209e:	ficomp DWORD PTR [esi-0x6e993d3d]
  4020a4:	lds    esi,FWORD PTR [ebp+0x5e906da2]
  4020aa:	inc    esi
  4020ab:	or     DWORD PTR [edx-0x5f],esi
  4020ae:	mov    edx,0xcfb75753
  4020b3:	and    ch,cl
  4020b5:	fs xchg edx,eax
  4020b7:	das    
  4020b8:	sbb    ebx,edx
  4020ba:	jb     0x40208c
  4020bc:	in     al,0x7d
  4020be:	push   gs
  4020c0:	jae    0x402044
  4020c2:	repz push edi
  4020c4:	mov    edx,?
  4020c6:	sbb    al,0x33
  4020c8:	js     0x4020fb
  4020ca:	stos   DWORD PTR es:[edi],eax
  4020cb:	shr    DWORD PTR [ebx+0x542e55ce],1
  4020d1:	xor    BYTE PTR [edi],bl
  4020d3:	imul   BYTE PTR [edi+0x13ca141f]
  4020d9:	inc    ecx
  4020da:	ja     0x402105
  4020dc:	lock xor al,0xc5
  4020df:	popa   
  4020e0:	(bad)  
  4020e1:	dec    ebx
  4020e2:	cmp    ebx,DWORD PTR [esi-0x2944c6c7]
  4020e8:	cmp    edx,ecx
  4020ea:	cmp    BYTE PTR [ebp+0x4a4d4244],dh
  4020f0:	xor    BYTE PTR [eax],ch
  4020f2:	mov    dh,0xb0
  4020f4:	daa    
  4020f5:	xlat   BYTE PTR ds:[ebx]
  4020f6:	lahf   
  4020f7:	push   ebx
  4020f8:	pop    ebp
  4020f9:	jmp    0x1639d1d4
  4020fe:	jg     0x40214f
  402100:	push   esi
  402101:	inc    eax
  402102:	or     al,0x27
  402104:	mov    edx,0x4464e7c2
  402109:	jmp    0x4020a9
  40210b:	pop    ebx
  40210c:	xor    DWORD PTR [eax],edx
  40210e:	lea    ebx,[ebx-0x4a2e41a6]
  402114:	cmc    
  402115:	xchg   ebp,eax
  402116:	cdq    
  402117:	dec    esi
  402118:	pop    ebx
  402119:	shl    DWORD PTR [esi+0x7],0xb1
  40211d:	xchg   esp,eax
  40211e:	and    eax,0x6b2bd3ff
  402123:	xchg   ecx,eax
  402124:	mov    bh,0x1a
  402126:	movs   DWORD PTR es:[edi],DWORD PTR ds:[esi]
  402127:	sti    
  402128:	jl     0x402112
  40212a:	mov    dl,0xb1
  40212c:	or     al,bl
  40212e:	ret    0xa069
  402131:	sub    BYTE PTR [esi],bh
  402133:	xchg   esi,eax
  402134:	fisttp WORD PTR [esi+eax*8-0xa]
  402138:	fs mov dh,0x3c
  40213b:	cs call 0xb1b5:0xb651c349
  402143:	rcr    BYTE PTR [ebp+0x49],cl
  402146:	movs   BYTE PTR es:[edi],BYTE PTR ds:[esi]
  402147:	xor    eax,0x2a3ca24d
  40214c:	adc    DWORD PTR [esi-0x64c0d5e3],esi
  402152:	cmp    dl,ch
  402154:	push   ss
  402155:	jno    0x402175
  402157:	scas   al,BYTE PTR es:[edi]
  402158:	scas   eax,DWORD PTR es:[edi]
  402159:	mov    ds:0x1fb1e1cd,eax
  40215e:	xchg   ebx,eax
  40215f:	test   eax,0x5a5f6c21
  402164:	push   esp
  402165:	ror    ah,1
  402167:	sti    
  402168:	fbstp  TBYTE PTR [esi+eax*1-0x51f5bec]
  40216f:	jmp    0x4021cc
  402171:	stos   BYTE PTR es:[edi],al
  402172:	xchg   esp,eax
  402173:	mov    eax,0xd26c55a4
  402178:	adc    DWORD PTR [ebx-0x6c],ecx
  40217b:	sub    eax,0xe26239ee
  402180:	xchg   ebp,eax
  402181:	inc    edi
  402182:	sahf   
  402183:	sbb    eax,0x9055bb6a
  402188:	and    DWORD PTR ds:0x4e2f6aae,edi
  40218e:	push   ss
  40218f:	out    0x21,al
  402191:	add    al,0x3a
  402193:	test   dl,ah
  402195:	arpl   si,ax
  402197:	mov    ebx,DWORD PTR ds:0xcaf7919c
  40219d:	push   0xff3972bf
  4021a2:	inc    ecx
  4021a3:	popf   
  4021a4:	mov    BYTE PTR [eax],0x16
  4021a7:	in     al,0x3d
  4021a9:	and    ebp,edx
  4021ab:	sub    eax,edx
  4021ad:	fcom   QWORD PTR ds:0x40224a2a
  4021b3:	loop   0x4021c4
  4021b5:	aaa    
  4021b6:	ins    DWORD PTR es:[edi],dx
  4021b7:	dec    ecx
  4021b8:	mov    eax,0x197f1e1a
  4021bd:	iret   
  4021be:	gs push 0xffffffeb
  4021c1:	arpl   WORD PTR [ebx-0x4],bx
  4021c4:	rol    DWORD PTR [edx],0x4e
  4021c7:	add    al,0x6e
  4021c9:	jno    0x402185
  4021cb:	and    BYTE PTR [ecx+0x6fdf469e],dl
  4021d1:	jne    0x402194
  4021d3:	add    bh,BYTE PTR [edi-0x1c]
  4021d6:	int3   
  4021d7:	inc    ecx
  4021d8:	movs   DWORD PTR es:[edi],DWORD PTR ds:[esi]
  4021d9:	pop    ds
  4021da:	test   DWORD PTR [eax],edx
  4021dc:	stos   DWORD PTR es:[edi],eax
  4021dd:	fild   QWORD PTR [ebx+0x55305557]
  4021e3:	test   al,0x1
  4021e5:	push   ebx
  4021e6:	xchg   ebx,eax
  4021e7:	pop    esp
  4021e8:	dec    esi
  4021e9:	lods   al,BYTE PTR ds:[esi]
  4021ea:	popf   
  4021eb:	or     esi,DWORD PTR [edx-0x5b0b9c9d]
  4021f1:	sbb    eax,0xf25b2fa1
  4021f6:	pop    edi
  4021f7:	shl    BYTE PTR [ebx-0x4dd1529d],1
  4021fd:	test   al,0xad
  4021ff:	sub    ah,BYTE PTR [esi-0x30612751]
  402205:	ror    DWORD PTR [ecx+0x7e199124],1
  40220b:	mov    BYTE PTR [ecx-0x1c],dl
  40220e:	shrd   DWORD PTR [ecx-0x25c38322],esi,0x14
  402216:	cmp    eax,0xc3eb25d4
  40221b:	adc    eax,esi
  40221d:	adc    al,0x3c
  40221f:	in     al,dx
  402220:	repz or al,ah
  402223:	adc    ecx,DWORD PTR [ebx*8+0x22f3ec1d]
  40222a:	cmp    ebp,ecx
  40222c:	adc    ebx,ebp
  40222e:	(bad)  
  40222f:	xor    dl,ah
  402231:	stc    
  402232:	cmp    ch,cl
  402234:	sub    edx,DWORD PTR [edx-0x6df74168]
  40223a:	and    DWORD PTR [ebx-0x9],ecx
  40223d:	ins    DWORD PTR es:[edi],dx
  40223e:	fistp  WORD PTR [eax+edx*8-0x449cdf6f]
  402245:	ins    BYTE PTR es:[edi],dx
  402246:	imul   esp,DWORD PTR [edi+0x2d],0x52
  40224a:	xchg   esp,eax
  40224b:	cwde   
  40224c:	shl    cl,cl
  40224e:	sub    al,0xb8
  402250:	out    dx,al
  402251:	out    0xdb,al
  402253:	or     BYTE PTR [esi],dl
  402255:	cmp    eax,0xe6edf832
  40225a:	jp     0x4021e8
  40225c:	ror    BYTE PTR [esi+0x68b8cc77],cl
  402262:	(bad)  
  402263:	clc    
  402264:	mov    ebx,0x217c869a
  402269:	icebp  
  40226a:	scas   al,BYTE PTR es:[edi]
  40226b:	cmps   DWORD PTR ds:[esi],DWORD PTR es:[edi]
  40226c:	xchg   edi,eax
  40226d:	sbb    DWORD PTR [edx+0x58],edx
  402270:	push   0x97a743ce
  402275:	xor    esp,ecx
  402277:	pcmpeqw mm4,QWORD PTR [edx+edx*4]
  40227b:	inc    ecx
  40227c:	inc    esp
  40227d:	in     al,0x6e
  40227f:	mov    esi,0x411703bb
  402284:	inc    esp
  402285:	cld    
  402286:	inc    edx
  402287:	cmps   DWORD PTR ds:[esi],DWORD PTR es:[edi]
  402288:	cmp    eax,DWORD PTR [ebx]
  40228a:	mov    ebp,0x67714e58
  40228f:	ret    
  402290:	adc    dl,BYTE PTR [edx-0x16]
  402293:	std    
  402294:	aad    0xcb
  402296:	iret   
  402297:	and    ch,BYTE PTR [edx]
  402299:	xor    al,0x31
  40229b:	and    eax,0xdd88fc4a
  4022a0:	mov    ch,0x3
  4022a2:	js     0x40230e
  4022a4:	mov    esi,0x41b64124
  4022a9:	fstp   TBYTE PTR [edi-0x5bacd6f]
  4022af:	jb     0x40227e
  4022b1:	mov    edx,0x5da6d506
  4022b6:	mov    bl,0x6b
  4022b8:	pop    ecx
  4022b9:	mov    ds:0x6e1adc4d,al
  4022be:	ins    BYTE PTR es:[edi],dx
  4022bf:	sub    ch,ah
  4022c1:	xchg   ecx,eax
  4022c2:	xchg   esp,eax
  4022c3:	pop    ds
  4022c4:	(bad)  
  4022c5:	jbe    0x4022ec
  4022c7:	and    DWORD PTR [ecx-0x77],esi
  4022ca:	(bad)  [esi]
  4022cc:	add    esi,DWORD PTR [edi-0x50]
  4022cf:	call   0x23fe:0xf0b04c56
  4022d6:	rol    DWORD PTR [ecx],1
  4022d8:	xchg   ebx,eax
  4022d9:	(bad)  
  4022da:	je     0x402352
  4022dc:	clc    
  4022dd:	xchg   ah,dh
  4022df:	adc    al,0x6
  4022e1:	std    
  4022e2:	mov    DWORD PTR [ebx-0x6],eax
  4022e5:	jbe    0x402361
  4022e7:	mov    ebp,0x8811e17a
  4022ec:	in     eax,0xa3
  4022ee:	scas   eax,DWORD PTR es:[edi]
  4022ef:	in     al,dx
  4022f0:	das    
  4022f1:	in     eax,0x97
  4022f3:	dec    edi
  4022f4:	and    dl,ch
  4022f6:	ins    DWORD PTR es:[edi],dx
  4022f7:	mov    al,0xdd
  4022f9:	sub    bh,BYTE PTR [ebx-0xb]
  4022fc:	and    edx,ebp
  4022fe:	test   DWORD PTR [edi+ebx*8+0x1a],esp
  402302:	jle    0x402297
  402304:	dec    esp
  402305:	lods   eax,DWORD PTR ds:[esi]
  402306:	mov    ebp,0x50c80be1
  40230b:	and    DWORD PTR [ecx-0x6c],ebp
  40230e:	mov    bl,0x5b
  402310:	repz xchg esi,eax
  402312:	call   0x1b0a:0xda329200
  402319:	push   ds
  40231a:	push   ecx
  40231b:	mov    bh,0x3f
  40231d:	lea    esi,[edx]
  40231f:	xor    al,ah
  402321:	push   esp
  402322:	mov    cl,0x2f
  402324:	dec    DWORD PTR [ebx]
  402326:	ror    BYTE PTR [ebp+0x4d],cl
  402329:	hlt    
  40232a:	mov    ds:0x5e1b9ac4,al
  40232f:	cmp    esp,DWORD PTR [ebp+0x6f]
  402332:	pop    ds
  402333:	sbb    DWORD PTR [eax],esp
  402335:	nop
  402336:	push   ebp
  402337:	in     eax,dx
  402338:	mov    bl,BYTE PTR [eax+0x4e]
  40233b:	adc    esi,DWORD PTR [ebp-0x59]
  40233e:	adc    esi,DWORD PTR [eax-0x73bda815]
  402344:	lahf   
  402345:	or     BYTE PTR [ecx-0x17],0xac
  402349:	or     bh,ah
  40234b:	mov    ds:0x5c996c45,ax
  402351:	(bad)  
  402352:	xchg   esp,eax
  402353:	mov    ecx,0x9fac8fa2
  402358:	lods   eax,DWORD PTR ds:[esi]
  402359:	sti    
  40235a:	dec    esp
  40235b:	push   esp
  40235c:	imul   esp
  40235e:	in     al,dx
  40235f:	stos   DWORD PTR es:[edi],eax
  402360:	or     BYTE PTR [ebx],dl
  402362:	pop    esp
  402363:	fnstsw WORD PTR [ebx]
  402365:	adc    esp,eax
  402367:	lods   eax,DWORD PTR ds:[esi]
  402368:	mov    esp,0x480f487c
  40236d:	cmp    DWORD PTR [eax+0x601e1bf0],0xf
  402374:	in     al,0xe1
  402376:	sub    esp,DWORD PTR [ecx+0x48]
  402379:	outs   dx,DWORD PTR ds:[esi]
  40237a:	cmp    eax,0xc39cb79f
  40237f:	mov    bl,0x47
  402381:	mov    ecx,0xfec4d97d
  402386:	adc    ch,BYTE PTR [eax]
  402388:	mov    ecx,DWORD PTR [ebp+edi*4-0x1798929d]
  40238f:	add    BYTE PTR [ecx+esi*4],dh
  402392:	sbb    bh,bh
  402394:	retf   
  402395:	(bad)  [eax]
  402397:	sub    eax,0x5438e595
  40239c:	push   edi
  40239d:	cmp    ecx,edx
  40239f:	stos   DWORD PTR es:[edi],eax
  4023a0:	test   al,0x2c
  4023a2:	pop    edx
  4023a3:	push   esi
  4023a4:	push   edi
  4023a5:	rcr    ecx,cl
  4023a7:	lahf   
  4023a8:	adc    ebp,DWORD PTR ds:0x28eb6891
  4023ae:	mov    esp,DWORD PTR [edx]
  4023b0:	in     eax,dx
  4023b1:	sub    ecx,eax
  4023b3:	fsubr  QWORD PTR [eax+0x8]
  4023b6:	ret    
  4023b7:	addr16 mov ebx,0x80d84013
  4023bd:	ja     0x4023ff
  4023bf:	call   0x9d00ac43
  4023c4:	inc    eax
  4023c5:	in     al,dx
  4023c6:	inc    ecx
  4023c7:	test   eax,0xacbe6713
  4023cc:	and    al,0x1e
  4023ce:	add    cl,cl
  4023d0:	shl    BYTE PTR ds:0x4b578cfd,0xc7
  4023d7:	xchg   edi,eax
  4023d8:	stos   BYTE PTR es:[edi],al
  4023d9:	mov    ah,0x39
  4023db:	icebp  
  4023dc:	leave  
  4023dd:	outs   dx,DWORD PTR ds:[esi]
  4023de:	jecxz  0x40244f
  4023e0:	stc    
  4023e1:	lock test esp,edi
  4023e4:	jb     0x4023f5
  4023e6:	jnp    0x402453
  4023e8:	jmp    DWORD PTR [ebx+esi*4-0x8]
  4023ec:	push   0xfa7dc008
  4023f1:	dec    ebx
  4023f2:	aas    
  4023f3:	fmul   DWORD PTR [ecx]
  4023f5:	cmp    DWORD PTR [ecx+0x7e1afe9d],eax
  4023fb:	mov    eax,0xbc426a01
  402400:	dec    ebx
  402401:	add    BYTE PTR [esi-0x4991e255],bh
  402407:	mov    edx,0xb5c1f84a
  40240c:	daa    
  40240d:	pop    esp
  40240e:	(bad)
  402412:	hlt    
  402413:	jp     0x4023f3
  402415:	fdivp  st(4),st
  402417:	aad    0x75
  402419:	mov    eax,DWORD PTR [esp+edx*4-0x6f]
  40241d:	retf   0xc1bb
  402420:	jp     0x4023af
  402422:	xchg   ebp,eax
  402423:	xchg   edx,eax
  402424:	aad    0xdc
  402426:	jb     0x4023eb
  402428:	adc    cl,BYTE PTR [edx-0x72]
  40242b:	cmp    al,0xed
  40242d:	inc    eax
  40242e:	scas   al,BYTE PTR es:[edi]
  40242f:	out    0x93,eax
  402431:	xchg   BYTE PTR [eax+ebx*1+0x6c],ah
  402435:	jns    0x40243d
  402437:	out    dx,eax
  402438:	in     al,dx
  402439:	jns    0x4023d9
  40243b:	pop    eax
  40243c:	sahf   
  40243d:	dec    esp
  40243e:	or     eax,0xa3ace035
  402443:	xor    ecx,edx
  402445:	stos   DWORD PTR es:[edi],eax
  402446:	or     BYTE PTR [ebp-0x7],bh
  402449:	(bad)  
  40244a:	neg    eax
  40244c:	adc    bl,BYTE PTR [ecx-0x74]
  40244f:	jmp    0x40244a
  402451:	pop    es
  402452:	aaa    
  402453:	ins    DWORD PTR es:[edi],dx
  402454:	add    eax,0x9a7b1ec9
  402459:	aaa    
  40245a:	loop   0x4023e0
  40245c:	ret    0x6355
  40245f:	jmp    0x402421
  402461:	push   0xffffffa1
  402463:	popf   
  402464:	cmp    DWORD PTR [ecx+0x467cbf6f],0xffffff91
  40246b:	inc    eax
  40246c:	cmp    DWORD PTR [ecx+0x467d276f],0xffffff91
  402473:	fadd   DWORD PTR [ebp+0x20]
  402476:	mov    ds:0xab9a211d,al
  40247b:	cmp    al,0x45
  40247d:	adc    edi,DWORD PTR [ebx+0x4d618af6]
  402483:	mov    ah,BYTE PTR [ebx-0x5f]
  402486:	ret    
  402487:	jne    0x402425
  402489:	dec    ecx
  40248a:	sub    bl,BYTE PTR [eax]
  40248c:	ret    0x5ab4
  40248f:	out    0xb3,eax
  402491:	cmp    al,0x31
  402493:	pop    DWORD PTR [esi-0x413e76d7]
  402499:	arpl   WORD PTR [ebx-0x44b658a4],bp
  40249f:	(bad)  
  4024a0:	sub    BYTE PTR [eiz*1-0x5bf8d713],ch
  4024a7:	push   esp
  4024a8:	add    bh,BYTE PTR [ebx+0x4771afd4]
  4024ae:	pop    ss
  4024af:	dec    eax
  4024b0:	ret    0xec78
  4024b3:	jns    0x4024d5
  4024b5:	test   BYTE PTR [ebp+0x49],ch
  4024b8:	imul   edi,ecx,0xfffffffb
  4024bb:	and    BYTE PTR [ecx+0x66ef056e],bl
  4024c1:	xchg   ecx,eax
  4024c2:	push   edx
  4024c3:	jnp    0x40245e
  4024c5:	ins    DWORD PTR es:[edi],dx
  4024c6:	add    edx,DWORD PTR [ebp+0x577e82f1]
  4024cc:	adc    edi,DWORD PTR [esi-0x7e]
  4024cf:	test   al,0x77
  4024d1:	jle    0x4024b9
  4024d3:	pop    ebx
  4024d4:	mov    DWORD PTR [ecx+0x7dc9fb1a],eax
  4024da:	cmp    esp,DWORD PTR ds:0x5b2d82a0
  4024e0:	pusha  
  4024e1:	jge    0x4024b6
  4024e3:	push   cs
  4024e4:	mov    ds:0x5e5b2dec,eax
  4024e9:	jnp    0x4024be
  4024eb:	movs   BYTE PTR es:[edi],BYTE PTR ds:[esi]
  4024ec:	mov    eax,ds:0xb45a8404
  4024f1:	pop    ds
  4024f2:	std    
  4024f3:	imul   edx,DWORD PTR [eax-0x1f],0xaf729603
  4024fa:	(bad)  
  4024fb:	ret    0x218c
  4024fe:	outs   dx,BYTE PTR ds:[esi]
  4024ff:	adc    dl,BYTE PTR [esi]
  402501:	inc    eax
  402502:	sbb    al,0x2a
  402504:	out    dx,al
  402505:	or     al,0x31
  402507:	mov    es,ecx
  402509:	mov    edi,0xc6d7adac
  40250e:	je     0x4024ee
  402510:	jo     0x4024ad
  402512:	ins    DWORD PTR es:[edi],dx
  402513:	xchg   esp,eax
  402514:	push   0x76287380
  402519:	in     al,dx
  40251a:	sub    BYTE PTR [esi-0x626717da],al
  402520:	and    dh,BYTE PTR [eax+eax*2-0x419c7530]
  402527:	stc    
  402528:	pop    ds
  402529:	and    cl,BYTE PTR [eax-0x7ff8858e]
  40252f:	adc    BYTE PTR [ecx-0x7a29c661],dl
  402535:	popa   
  402536:	pop    es
  402537:	inc    esi
  402538:	jnp    0x402563
  40253a:	mov    ah,0x2
  40253c:	addr16 sahf 
  40253e:	fnstcw WORD PTR [ebp+esi*8+0x49d62987]
  402545:	das    
  402546:	xlat   BYTE PTR ds:[ebx]
  402547:	sub    DWORD PTR [esi+0x49d629d0],esi
  40254d:	das    
  40254e:	xlat   BYTE PTR ds:[ebx]
  40254f:	sub    DWORD PTR [esi+0x49d629d0],esi
  402555:	das    
  402556:	xlat   BYTE PTR ds:[ebx]
  402557:	sub    DWORD PTR [esi+0x49d629d0],esi
  40255d:	das    
  40255e:	xlat   BYTE PTR ds:[ebx]
  40255f:	sub    DWORD PTR [esi+0x4a8595d0],esi
  402565:	das    
  402566:	imul   ebx,DWORD PTR [edx+0x6995d0ba],0x45
  40256d:	das    
  40256e:	cmp    ebx,DWORD PTR [edi-0x6]
  402571:	scas   al,BYTE PTR es:[edi]
  402572:	in     eax,0xd1
  402574:	data16 repz fmul st,st(3)
  402578:	popf   
  402579:	loope  0x4025cd
  40257b:	lahf   
  40257c:	gs out 0xb4,al
  40257f:	xchg   DWORD PTR [esi],ebp
  402581:	in     al,0x40
  402583:	scas   al,BYTE PTR es:[edi]
  402584:	pop    edi
  402585:	dec    edi
  402586:	and    ebx,DWORD PTR [esi+0x19]
  402589:	jnp    0x40253d
  40258b:	adc    ebx,ecx
  40258d:	push   ebp
  40258e:	jno    0x40259d
  402590:	xor    ebp,edi
  402592:	arpl   sp,dx
  402594:	sbb    BYTE PTR [ecx],bl
  402596:	movs   DWORD PTR es:[edi],DWORD PTR ds:[esi]
  402597:	inc    esp
  402598:	and    BYTE PTR [ebx-0x74],al
  40259b:	xchg   ebp,eax
  40259c:	aas    
  40259d:	adc    ebx,DWORD PTR [edi+0xc]
