
f447277c25b95a115516686b21e4232978e2d1f43c653bed879eb8acac4ef874.exe:     file format pei-i386


Disassembly of section .text:

00401000 <.text>:
	...
  40100c:	jb     0x4010b4
  401012:	add    BYTE PTR [eax],al
  401014:	add    BYTE PTR [eax],al
  401016:	add    BYTE PTR [eax],al
  401018:	mov    edi,edi
  40101a:	push   ebp
  40101b:	mov    ebp,esp
  40101d:	sub    esp,0x3c
  401020:	push   edx
  401021:	mov    eax,0x6b0
  401026:	push   eax
  401027:	mov    edi,0x6b0
  40102c:	push   edi
  40102d:	mov    eax,0x40000
  401032:	push   eax
  401033:	push   0x40303c
  401038:	pop    esi
  401039:	push   DWORD PTR [esi]
  40103b:	sub    DWORD PTR [esp],0x2
  40103f:	push   0x40304c
  401044:	pop    esi
  401045:	pop    DWORD PTR [esi]
  401047:	push   0x40304c
  40104c:	pop    eax
  40104d:	call   DWORD PTR cs:[eax]
  401050:	xchg   DWORD PTR [esp],eax
  401053:	mov    edx,eax
  401055:	pop    esi
  401056:	mov    DWORD PTR [edx+0x284],esi
  40105c:	mov    ecx,DWORD PTR [edx+0x284]
  401062:	lea    eax,[ecx]
  401064:	sub    ebx,ebx
  401066:	dec    ebx
  401067:	and    ebx,0x401eb5
  40106d:	mov    edi,DWORD PTR [ebx]
  40106f:	mov    DWORD PTR [eax],edi
  401071:	add    ebx,0x1
  401074:	add    eax,0x1
  401077:	mov    edi,0x88a29212
  40107c:	xor    esi,esi
  40107e:	cmp    esi,0x6b0
  401084:	je     0x4010a2
  401086:	sub    esi,0xfffffffc
  401089:	mov    ecx,edi
  40108b:	xor    ecx,DWORD PTR [ebx]
  40108d:	sub    ecx,0x1
  401090:	mov    DWORD PTR [eax],ecx
  401092:	push   DWORD PTR [eax]
  401094:	mov    edi,0xfffffffc
  401099:	sub    ebx,edi
  40109b:	sub    eax,edi
  40109d:	pop    edi
  40109e:	bswap  edi
  4010a0:	jmp    0x40107e
  4010a2:	push   edx
  4010a3:	push   0x0
  4010a5:	push   0x403028
  4010aa:	pop    eax
  4010ab:	call   DWORD PTR cs:[eax]
  4010ae:	pop    edx
  4010af:	sub    esp,0xffffffc4
  4010b2:	pop    ebp
  4010b3:	ret    
  4010b4:	mov    edi,edi
  4010b6:	pusha  
  4010b7:	push   ebp
  4010b8:	mov    ebp,esp
  4010ba:	sub    esp,0x24
  4010bd:	push   edx
  4010be:	push   0x0
  4010c0:	push   0x403018
  4010c5:	pop    eax
  4010c6:	call   DWORD PTR cs:[eax]
  4010c9:	pop    edx
  4010ca:	test   eax,eax
  4010cc:	je     0x4010cf
  4010ce:	ret    
  4010cf:	push   edx
  4010d0:	push   DWORD PTR [edx+0x104]
  4010d6:	push   DWORD PTR [edx+0x590]
  4010dc:	call   0x4017a4
  4010e1:	add    esp,0x8
  4010e4:	pop    edx
  4010e5:	push   edx
  4010e6:	push   0x0
  4010e8:	push   0x403010
  4010ed:	pop    eax
  4010ee:	call   DWORD PTR cs:[eax]
  4010f1:	pop    edx
  4010f2:	mov    ebx,0x403048
  4010f7:	mov    ebx,DWORD PTR [ebx]
  4010f9:	push   ebx
  4010fa:	push   DWORD PTR [edx+0x284]
  401100:	pop    ecx
  401101:	call   ecx
  401103:	sub    esp,0xffffffdc
  401106:	mov    ebp,DWORD PTR [esp]
  401109:	add    esp,0x4
  40110c:	ret    
  40110d:	add    BYTE PTR [eax],al
  40110f:	add    BYTE PTR [ebx-0x1374aa01],cl
  401115:	sub    esp,0x2c
  401118:	push   edx
  401119:	push   DWORD PTR [edx+0x450]
  40111f:	push   eax
  401120:	push   esi
  401121:	push   DWORD PTR [edx+0x298]
  401127:	call   0x4012bc
  40112c:	add    esp,0x10
  40112f:	pop    edx
  401130:	push   edx
  401131:	push   0x403030
  401136:	pop    eax
  401137:	call   DWORD PTR cs:[eax]
  40113a:	pop    edx
  40113b:	push   edx
  40113c:	mov    eax,0x0
  401141:	push   eax
  401142:	push   0x403084
  401147:	pop    eax
  401148:	call   DWORD PTR cs:[eax]
  40114b:	pop    edx
  40114c:	sub    esp,0xffffffd4
  40114f:	mov    ebp,DWORD PTR [esp]
  401152:	add    esp,0x4
  401155:	ret    
  401156:	add    BYTE PTR [eax],al
  401158:	add    BYTE PTR [eax],al
  40115a:	add    BYTE PTR [eax],al
  40115c:	mov    edi,edi
  40115e:	push   ebp
  40115f:	mov    ebp,esp
  401161:	sub    esp,0x20
  401164:	push   edx
  401165:	mov    edx,0x0
  40116a:	push   edx
  40116b:	push   0x403008
  401170:	pop    eax
  401171:	call   DWORD PTR cs:[eax]
  401174:	pop    edx
  401175:	push   edx
  401176:	push   ebx
  401177:	push   DWORD PTR [edx+0x5d4]
  40117d:	push   ebx
  40117e:	push   DWORD PTR [edx+0x5a4]
  401184:	call   0x401cb0
  401189:	add    esp,0x10
  40118c:	pop    edx
  40118d:	push   edx
  40118e:	push   0x403030
  401193:	pop    eax
  401194:	call   DWORD PTR cs:[eax]
  401197:	pop    edx
  401198:	sub    esp,0xffffffe0
  40119b:	mov    ebp,DWORD PTR [esp]
  40119e:	add    esp,0x4
  4011a1:	ret    
  4011a2:	add    BYTE PTR [eax],al
  4011a4:	mov    edi,edi
  4011a6:	push   ebp
  4011a7:	mov    ebp,esp
  4011a9:	sub    esp,0x60
  4011ac:	push   edx
  4011ad:	push   0x0
  4011af:	push   0x403008
  4011b4:	pop    eax
  4011b5:	call   DWORD PTR cs:[eax]
  4011b8:	pop    edx
  4011b9:	push   edx
  4011ba:	push   ecx
  4011bb:	push   esi
  4011bc:	push   DWORD PTR [edx+0x120]
  4011c2:	call   0x4011e8
  4011c7:	add    esp,0xc
  4011ca:	pop    edx
  4011cb:	push   edx
  4011cc:	mov    esi,0x0
  4011d1:	push   esi
  4011d2:	push   0x403084
  4011d7:	pop    eax
  4011d8:	call   DWORD PTR cs:[eax]
  4011db:	pop    edx
  4011dc:	sub    esp,0xffffffa0
  4011df:	mov    ebp,DWORD PTR [esp]
  4011e2:	add    esp,0x4
  4011e5:	ret    
  4011e6:	add    BYTE PTR [eax],al
  4011e8:	mov    edi,edi
  4011ea:	push   ebp
  4011eb:	mov    ebp,esp
  4011ed:	sub    esp,0x40
  4011f0:	push   edx
  4011f1:	push   DWORD PTR [edx+0x60]
  4011f4:	push   edi
  4011f5:	call   0x401958
  4011fa:	add    esp,0x8
  4011fd:	pop    edx
  4011fe:	push   edx
  4011ff:	mov    esi,0x0
  401204:	push   esi
  401205:	push   0x403020
  40120a:	pop    eax
  40120b:	call   DWORD PTR cs:[eax]
  40120e:	pop    edx
  40120f:	push   edx
  401210:	mov    ebx,0x0
  401215:	push   ebx
  401216:	push   0x403020
  40121b:	pop    eax
  40121c:	call   DWORD PTR cs:[eax]
  40121f:	pop    edx
  401220:	sub    esp,0xffffffc0
  401223:	mov    ebp,DWORD PTR [esp]
  401226:	add    esp,0x4
  401229:	ret    
  40122a:	add    BYTE PTR [eax],al
  40122c:	mov    edi,edi
  40122e:	push   ebp
  40122f:	mov    ebp,esp
  401231:	sub    esp,0x38
  401234:	push   edx
  401235:	mov    esi,0x0
  40123a:	push   esi
  40123b:	push   0x403000
  401240:	pop    eax
  401241:	call   DWORD PTR cs:[eax]
  401244:	pop    edx
  401245:	push   edx
  401246:	push   ebx
  401247:	push   ecx
  401248:	push   DWORD PTR [edx+0x1f0]
  40124e:	call   0x4013f4
  401253:	add    esp,0xc
  401256:	pop    edx
  401257:	push   edx
  401258:	push   0x403014
  40125d:	pop    eax
  40125e:	call   DWORD PTR cs:[eax]
  401261:	pop    edx
  401262:	sub    esp,0xffffffc8
  401265:	mov    ebp,DWORD PTR [esp]
  401268:	add    esp,0x4
  40126b:	ret    
  40126c:	mov    edi,edi
  40126e:	push   ebp
  40126f:	mov    ebp,esp
  401271:	sub    esp,0x4c
  401274:	push   edx
  401275:	mov    edi,0x0
  40127a:	push   edi
  40127b:	push   0x403064
  401280:	pop    eax
  401281:	call   DWORD PTR cs:[eax]
  401284:	pop    edx
  401285:	push   edx
  401286:	push   DWORD PTR [edx+0x414]
  40128c:	push   edi
  40128d:	push   DWORD PTR [edx+0x2e0]
  401293:	call   0x4011a4
  401298:	add    esp,0xc
  40129b:	pop    edx
  40129c:	push   edx
  40129d:	lea    edi,[edx]
  40129f:	push   edi
  4012a0:	push   0x403048
  4012a5:	pop    eax
  4012a6:	call   DWORD PTR cs:[eax]
  4012a9:	test   eax,eax
  4012ab:	jne    0x40129d
  4012ad:	pop    edx
  4012ae:	sub    esp,0xffffffb4
  4012b1:	mov    ebp,DWORD PTR [esp]
  4012b4:	add    esp,0x4
  4012b7:	ret    
  4012b8:	add    BYTE PTR [eax],al
  4012ba:	add    BYTE PTR [eax],al
  4012bc:	mov    edi,edi
  4012be:	push   ebp
  4012bf:	mov    ebp,esp
  4012c1:	sub    esp,0x2c
  4012c4:	push   edx
  4012c5:	push   0x403030
  4012ca:	pop    eax
  4012cb:	call   DWORD PTR cs:[eax]
  4012ce:	pop    edx
  4012cf:	push   edx
  4012d0:	push   edi
  4012d1:	push   esi
  4012d2:	call   0x40122c
  4012d7:	add    esp,0x8
  4012da:	pop    edx
  4012db:	push   edx
  4012dc:	mov    edx,0x0
  4012e1:	push   edx
  4012e2:	push   0x403034
  4012e7:	pop    eax
  4012e8:	call   DWORD PTR cs:[eax]
  4012eb:	pop    edx
  4012ec:	sub    esp,0xffffffd4
  4012ef:	mov    ebp,DWORD PTR [esp]
  4012f2:	add    esp,0x4
  4012f5:	ret    
	...
  40130a:	add    BYTE PTR [eax],al
  40130c:	mov    edi,edi
  40130e:	push   ebp
  40130f:	mov    ebp,esp
  401311:	sub    esp,0x24
  401314:	push   edx
  401315:	lea    eax,[edx]
  401317:	push   eax
  401318:	push   0x403048
  40131d:	pop    eax
  40131e:	call   DWORD PTR cs:[eax]
  401321:	test   eax,eax
  401323:	jne    0x401315
  401325:	pop    edx
  401326:	push   edx
  401327:	push   DWORD PTR [edx+0x504]
  40132d:	push   DWORD PTR [edx+0x43c]
  401333:	push   DWORD PTR [edx+0x4cc]
  401339:	call   0x401d3c
  40133e:	add    esp,0xc
  401341:	pop    edx
  401342:	push   edx
  401343:	push   0x403014
  401348:	pop    eax
  401349:	call   DWORD PTR cs:[eax]
  40134c:	pop    edx
  40134d:	sub    esp,0xffffffdc
  401350:	mov    ebp,DWORD PTR [esp]
  401353:	add    esp,0x4
  401356:	ret    
  401357:	add    BYTE PTR [ebx-0x1374aa01],cl
  40135d:	sub    esp,0x60
  401360:	push   edx
  401361:	push   ecx
  401362:	push   ecx
  401363:	call   0x401444
  401368:	add    esp,0x8
  40136b:	pop    edx
  40136c:	push   edx
  40136d:	mov    ecx,0x0
  401372:	push   ecx
  401373:	push   0x403020
  401378:	pop    eax
  401379:	call   DWORD PTR cs:[eax]
  40137c:	pop    edx
  40137d:	push   edx
  40137e:	lea    edi,[edx]
  401380:	push   edi
  401381:	push   0x403048
  401386:	pop    eax
  401387:	call   DWORD PTR cs:[eax]
  40138a:	test   eax,eax
  40138c:	jne    0x40137e
  40138e:	pop    edx
  40138f:	sub    esp,0xffffffa0
  401392:	mov    ebp,DWORD PTR [esp]
  401395:	add    esp,0x4
  401398:	ret    
	...
  4013a1:	add    BYTE PTR [eax],al
  4013a3:	add    BYTE PTR [ebx-0x1374aa01],cl
  4013a9:	sub    esp,0x38
  4013ac:	push   edx
  4013ad:	push   0x0
  4013af:	push   0x403010
  4013b4:	pop    eax
  4013b5:	call   DWORD PTR cs:[eax]
  4013b8:	pop    edx
  4013b9:	push   edx
  4013ba:	push   DWORD PTR [edx+0x34c]
  4013c0:	push   DWORD PTR [edx+0x3ac]
  4013c6:	push   DWORD PTR [edx+0x120]
  4013cc:	push   DWORD PTR [edx+0x260]
  4013d2:	call   0x401be0
  4013d7:	add    esp,0x10
  4013da:	pop    edx
  4013db:	push   edx
  4013dc:	push   0x0
  4013de:	push   0x403018
  4013e3:	pop    eax
  4013e4:	call   DWORD PTR cs:[eax]
  4013e7:	pop    edx
  4013e8:	sub    esp,0xffffffc8
  4013eb:	mov    ebp,DWORD PTR [esp]
  4013ee:	add    esp,0x4
  4013f1:	ret    
  4013f2:	add    BYTE PTR [eax],al
  4013f4:	mov    edi,edi
  4013f6:	push   ebp
  4013f7:	mov    ebp,esp
  4013f9:	sub    esp,0x30
  4013fc:	push   edx
  4013fd:	push   0x0
  4013ff:	push   0x403034
  401404:	pop    eax
  401405:	call   DWORD PTR cs:[eax]
  401408:	pop    edx
  401409:	push   edx
  40140a:	push   DWORD PTR [edx+0x518]
  401410:	push   DWORD PTR [edx+0xfc]
  401416:	push   DWORD PTR [edx+0x3f4]
  40141c:	push   ebx
  40141d:	call   0x401c64
  401422:	add    esp,0x10
  401425:	pop    edx
  401426:	push   edx
  401427:	lea    ebx,[edx]
  401429:	push   ebx
  40142a:	push   0x403048
  40142f:	pop    eax
  401430:	call   DWORD PTR cs:[eax]
  401433:	test   eax,eax
  401435:	jne    0x401427
  401437:	pop    edx
  401438:	sub    esp,0xffffffd0
  40143b:	mov    ebp,DWORD PTR [esp]
  40143e:	add    esp,0x4
  401441:	ret    
  401442:	add    BYTE PTR [eax],al
  401444:	mov    edi,edi
  401446:	push   ebp
  401447:	mov    ebp,esp
  401449:	sub    esp,0x58
  40144c:	push   edx
  40144d:	mov    edx,0x0
  401452:	push   edx
  401453:	push   0x403058
  401458:	pop    eax
  401459:	call   DWORD PTR cs:[eax]
  40145c:	pop    edx
  40145d:	push   edx
  40145e:	push   DWORD PTR [edx+0x5e0]
  401464:	push   eax
  401465:	push   ebx
  401466:	push   DWORD PTR [edx+0x5c]
  401469:	call   0x401878
  40146e:	add    esp,0x10
  401471:	pop    edx
  401472:	push   edx
  401473:	push   0x0
  401475:	push   0x403020
  40147a:	pop    eax
  40147b:	call   DWORD PTR cs:[eax]
  40147e:	pop    edx
  40147f:	sub    esp,0xffffffa8
  401482:	mov    ebp,DWORD PTR [esp]
  401485:	add    esp,0x4
  401488:	ret    
  401489:	add    BYTE PTR [eax],al
  40148b:	add    BYTE PTR [ebx-0x1374aa01],cl
  401491:	sub    esp,0x3c
  401494:	push   edx
  401495:	push   0x403030
  40149a:	pop    eax
  40149b:	call   DWORD PTR cs:[eax]
  40149e:	pop    edx
  40149f:	push   edx
  4014a0:	push   DWORD PTR [edx+0x90]
  4014a6:	push   DWORD PTR [edx+0x74]
  4014a9:	push   esi
  4014aa:	call   0x4015f8
  4014af:	add    esp,0xc
  4014b2:	pop    edx
  4014b3:	push   edx
  4014b4:	push   0x403030
  4014b9:	pop    eax
  4014ba:	call   DWORD PTR cs:[eax]
  4014bd:	pop    edx
  4014be:	sub    esp,0xffffffc4
  4014c1:	mov    ebp,DWORD PTR [esp]
  4014c4:	add    esp,0x4
  4014c7:	ret    
  4014c8:	mov    edi,edi
  4014ca:	push   ebp
  4014cb:	mov    ebp,esp
  4014cd:	sub    esp,0x40
  4014d0:	push   edx
  4014d1:	push   0x0
  4014d3:	push   0x403058
  4014d8:	pop    eax
  4014d9:	call   DWORD PTR cs:[eax]
  4014dc:	pop    edx
  4014dd:	push   edx
  4014de:	push   DWORD PTR [edx+0x200]
  4014e4:	push   DWORD PTR [edx+0x60]
  4014e7:	call   0x4016d8
  4014ec:	add    esp,0x8
  4014ef:	pop    edx
  4014f0:	push   edx
  4014f1:	push   0x0
  4014f3:	push   0x403020
  4014f8:	pop    eax
  4014f9:	call   DWORD PTR cs:[eax]
  4014fc:	pop    edx
  4014fd:	sub    esp,0xffffffc0
  401500:	mov    ebp,DWORD PTR [esp]
  401503:	add    esp,0x4
  401506:	ret    
  401507:	add    BYTE PTR [ebx],dh
  401509:	rol    BYTE PTR ds:0x47e000,0x50
  401510:	xor    ecx,ecx
  401512:	or     ecx,0x403098
  401518:	and    WORD PTR [ecx],0x0
  40151c:	push   DWORD PTR [ecx]
  40151e:	pop    eax
  40151f:	mov    edx,eax
  401521:	push   0x3c
  401523:	add    DWORD PTR [esp],eax
  401526:	pop    ecx
  401527:	xor    eax,eax
  401529:	push   DWORD PTR [eax+ecx*1]
  40152c:	pop    eax
  40152d:	mov    edx,DWORD PTR [eax+edx*1+0x1c]
  401531:	ror    edx,0x8
  401534:	xor    eax,eax
  401536:	or     al,0x50
  401538:	cmp    al,dl
  40153a:	pop    edx
  40153b:	ja     0x401546
  40153d:	nop
  40153e:	nop
  40153f:	nop
  401540:	nop
  401541:	jmp    0x40100c
  401546:	push   0x0
  401548:	pop    esp
  401549:	sti    
  40154a:	sub    esp,DWORD PTR [ebx+0x0]
	...
  401565:	add    BYTE PTR [eax],al
  401567:	add    BYTE PTR [ebx-0x1374aa01],cl
  40156d:	sub    esp,0x24
  401570:	push   edx
  401571:	push   0x0
  401573:	push   0x403018
  401578:	pop    eax
  401579:	call   DWORD PTR cs:[eax]
  40157c:	pop    edx
  40157d:	push   edx
  40157e:	push   DWORD PTR [edx+0x4e8]
  401584:	push   ebx
  401585:	push   edi
  401586:	push   DWORD PTR [edx+0x13c]
  40158c:	call   0x4013a4
  401591:	add    esp,0x10
  401594:	pop    edx
  401595:	push   edx
  401596:	lea    edx,[edx]
  401598:	push   edx
  401599:	push   0x403048
  40159e:	pop    eax
  40159f:	call   DWORD PTR cs:[eax]
  4015a2:	test   eax,eax
  4015a4:	jne    0x401596
  4015a6:	pop    edx
  4015a7:	sub    esp,0xffffffdc
  4015aa:	mov    ebp,DWORD PTR [esp]
  4015ad:	add    esp,0x4
  4015b0:	ret    
  4015b1:	add    BYTE PTR [eax],al
  4015b3:	add    BYTE PTR [eax],al
  4015b5:	add    BYTE PTR [eax],al
  4015b7:	add    BYTE PTR [ebx-0x1374aa01],cl
  4015bd:	sub    esp,0x38
  4015c0:	push   edx
  4015c1:	push   ebx
  4015c2:	push   DWORD PTR [edx+0x1b4]
  4015c8:	call   0x401dd4
  4015cd:	add    esp,0x8
  4015d0:	pop    edx
  4015d1:	push   edx
  4015d2:	push   0x0
  4015d4:	push   0x403010
  4015d9:	pop    eax
  4015da:	call   DWORD PTR cs:[eax]
  4015dd:	pop    edx
  4015de:	push   edx
  4015df:	push   0x0
  4015e1:	push   0x403020
  4015e6:	pop    eax
  4015e7:	call   DWORD PTR cs:[eax]
  4015ea:	pop    edx
  4015eb:	sub    esp,0xffffffc8
  4015ee:	mov    ebp,DWORD PTR [esp]
  4015f1:	add    esp,0x4
  4015f4:	ret    
  4015f5:	add    BYTE PTR [eax],al
  4015f7:	add    BYTE PTR [ebx-0x1374aa01],cl
  4015fd:	sub    esp,0x48
  401600:	push   edx
  401601:	push   0x403030
  401606:	pop    eax
  401607:	call   DWORD PTR cs:[eax]
  40160a:	pop    edx
  40160b:	push   edx
  40160c:	push   DWORD PTR [edx+0x4f4]
  401612:	push   ecx
  401613:	push   DWORD PTR [edx+0x47c]
  401619:	call   0x401b4c
  40161e:	add    esp,0xc
  401621:	pop    edx
  401622:	push   edx
  401623:	lea    eax,[edx]
  401625:	push   eax
  401626:	push   0x403048
  40162b:	pop    eax
  40162c:	call   DWORD PTR cs:[eax]
  40162f:	test   eax,eax
  401631:	jne    0x401623
  401633:	pop    edx
  401634:	sub    esp,0xffffffb8
  401637:	mov    ebp,DWORD PTR [esp]
  40163a:	add    esp,0x4
  40163d:	ret    
  40163e:	add    BYTE PTR [eax],al
  401640:	add    BYTE PTR [eax],al
  401642:	add    BYTE PTR [eax],al
  401644:	mov    edi,edi
  401646:	push   ebp
  401647:	mov    ebp,esp
  401649:	sub    esp,0x58
  40164c:	push   edx
  40164d:	push   0x403030
  401652:	pop    eax
  401653:	call   DWORD PTR cs:[eax]
  401656:	pop    edx
  401657:	push   edx
  401658:	push   ecx
  401659:	push   DWORD PTR [edx+0xb8]
  40165f:	push   DWORD PTR [edx+0x3d0]
  401665:	call   0x401840
  40166a:	add    esp,0xc
  40166d:	pop    edx
  40166e:	push   edx
  40166f:	mov    esi,0x0
  401674:	push   esi
  401675:	push   0x403064
  40167a:	pop    eax
  40167b:	call   DWORD PTR cs:[eax]
  40167e:	pop    edx
  40167f:	sub    esp,0xffffffa8
  401682:	mov    ebp,DWORD PTR [esp]
  401685:	add    esp,0x4
  401688:	ret    
  401689:	add    BYTE PTR [eax],al
  40168b:	add    BYTE PTR [ebx-0x1374aa01],cl
  401691:	sub    esp,0x38
  401694:	push   edx
  401695:	push   DWORD PTR [edx+0x534]
  40169b:	push   edi
  40169c:	call   0x40115c
  4016a1:	add    esp,0x8
  4016a4:	pop    edx
  4016a5:	push   edx
  4016a6:	mov    ebx,0x0
  4016ab:	push   ebx
  4016ac:	push   0x403040
  4016b1:	pop    eax
  4016b2:	call   DWORD PTR cs:[eax]
  4016b5:	pop    edx
  4016b6:	push   edx
  4016b7:	mov    eax,0x0
  4016bc:	push   eax
  4016bd:	push   0x403058
  4016c2:	pop    eax
  4016c3:	call   DWORD PTR cs:[eax]
  4016c6:	pop    edx
  4016c7:	sub    esp,0xffffffc8
  4016ca:	mov    ebp,DWORD PTR [esp]
  4016cd:	add    esp,0x4
  4016d0:	ret    
  4016d1:	add    BYTE PTR [eax],al
  4016d3:	add    BYTE PTR [eax],al
  4016d5:	add    BYTE PTR [eax],al
  4016d7:	add    BYTE PTR [ebx-0x1374aa01],cl
  4016dd:	sub    esp,0x44
  4016e0:	push   edx
  4016e1:	push   DWORD PTR [edx+0x398]
  4016e7:	push   ecx
  4016e8:	push   DWORD PTR [edx+0x58]
  4016eb:	push   ebx
  4016ec:	call   0x40199c
  4016f1:	add    esp,0x10
  4016f4:	pop    edx
  4016f5:	push   edx
  4016f6:	push   0x403030
  4016fb:	pop    eax
  4016fc:	call   DWORD PTR cs:[eax]
  4016ff:	pop    edx
  401700:	push   edx
  401701:	mov    ebx,0x0
  401706:	push   ebx
  401707:	push   0x403064
  40170c:	pop    eax
  40170d:	call   DWORD PTR cs:[eax]
  401710:	pop    edx
  401711:	sub    esp,0xffffffbc
  401714:	mov    ebp,DWORD PTR [esp]
  401717:	add    esp,0x4
  40171a:	ret    
  40171b:	add    BYTE PTR [ebx-0x1374aa01],cl
  401721:	sub    esp,0x20
  401724:	push   edx
  401725:	push   0x0
  401727:	push   0x403040
  40172c:	pop    eax
  40172d:	call   DWORD PTR cs:[eax]
  401730:	pop    edx
  401731:	push   edx
  401732:	push   eax
  401733:	push   esi
  401734:	push   ebx
  401735:	push   DWORD PTR [edx+0x134]
  40173b:	call   0x40148c
  401740:	add    esp,0x10
  401743:	pop    edx
  401744:	push   edx
  401745:	push   0x0
  401747:	push   0x403064
  40174c:	pop    eax
  40174d:	call   DWORD PTR cs:[eax]
  401750:	pop    edx
  401751:	sub    esp,0xffffffe0
  401754:	mov    ebp,DWORD PTR [esp]
  401757:	add    esp,0x4
  40175a:	ret    
	...
  401763:	add    BYTE PTR [ebx-0x1374aa01],cl
  401769:	sub    esp,0x40
  40176c:	push   edx
  40176d:	mov    eax,0x0
  401772:	push   eax
  401773:	push   0x403028
  401778:	pop    eax
  401779:	call   DWORD PTR cs:[eax]
  40177c:	pop    edx
  40177d:	push   edx
  40177e:	push   eax
  40177f:	push   ebx
  401780:	push   eax
  401781:	push   ebx
  401782:	call   0x401e58
  401787:	add    esp,0x10
  40178a:	pop    edx
  40178b:	push   edx
  40178c:	push   0x0
  40178e:	push   0x403028
  401793:	pop    eax
  401794:	call   DWORD PTR cs:[eax]
  401797:	pop    edx
  401798:	sub    esp,0xffffffc0
  40179b:	mov    ebp,DWORD PTR [esp]
  40179e:	add    esp,0x4
  4017a1:	ret    
  4017a2:	add    BYTE PTR [eax],al
  4017a4:	mov    edi,edi
  4017a6:	push   ebp
  4017a7:	mov    ebp,esp
  4017a9:	sub    esp,0x20
  4017ac:	push   edx
  4017ad:	push   DWORD PTR [edx+0x5e4]
  4017b3:	push   DWORD PTR [edx+0x54]
  4017b6:	push   DWORD PTR [edx+0x284]
  4017bc:	call   0x401d88
  4017c1:	add    esp,0xc
  4017c4:	pop    edx
  4017c5:	push   edx
  4017c6:	push   0x0
  4017c8:	push   0x403004
  4017cd:	pop    eax
  4017ce:	call   DWORD PTR cs:[eax]
  4017d1:	pop    edx
  4017d2:	push   edx
  4017d3:	mov    ecx,0x0
  4017d8:	push   ecx
  4017d9:	push   0x403040
  4017de:	pop    eax
  4017df:	call   DWORD PTR cs:[eax]
  4017e2:	pop    edx
  4017e3:	sub    esp,0xffffffe0
  4017e6:	mov    ebp,DWORD PTR [esp]
  4017e9:	add    esp,0x4
  4017ec:	ret    
	...
  4017f5:	add    BYTE PTR [eax],al
  4017f7:	add    BYTE PTR [ebx-0x1374aa01],cl
  4017fd:	sub    esp,0x20
  401800:	push   edx
  401801:	mov    ecx,0x0
  401806:	push   ecx
  401807:	push   0x403000
  40180c:	pop    eax
  40180d:	call   DWORD PTR cs:[eax]
  401810:	pop    edx
  401811:	push   edx
  401812:	push   eax
  401813:	push   edi
  401814:	push   edi
  401815:	push   edi
  401816:	call   0x40171c
  40181b:	add    esp,0x10
  40181e:	pop    edx
  40181f:	push   edx
  401820:	mov    ebx,0x0
  401825:	push   ebx
  401826:	push   0x403008
  40182b:	pop    eax
  40182c:	call   DWORD PTR cs:[eax]
  40182f:	pop    edx
  401830:	sub    esp,0xffffffe0
  401833:	mov    ebp,DWORD PTR [esp]
  401836:	add    esp,0x4
  401839:	ret    
  40183a:	add    BYTE PTR [eax],al
  40183c:	add    BYTE PTR [eax],al
  40183e:	add    BYTE PTR [eax],al
  401840:	mov    edi,edi
  401842:	push   ebp
  401843:	mov    ebp,esp
  401845:	sub    esp,0x28
  401848:	push   edx
  401849:	push   ecx
  40184a:	push   eax
  40184b:	push   ebx
  40184c:	push   eax
  40184d:	call   0x4019e0
  401852:	add    esp,0x10
  401855:	pop    edx
  401856:	push   edx
  401857:	push   0x0
  401859:	push   0x403018
  40185e:	pop    eax
  40185f:	call   DWORD PTR cs:[eax]
  401862:	pop    edx
  401863:	push   edx
  401864:	push   0x403014
  401869:	pop    eax
  40186a:	call   DWORD PTR cs:[eax]
  40186d:	pop    edx
  40186e:	sub    esp,0xffffffd8
  401871:	mov    ebp,DWORD PTR [esp]
  401874:	add    esp,0x4
  401877:	ret    
  401878:	mov    edi,edi
  40187a:	push   ebp
  40187b:	mov    ebp,esp
  40187d:	sub    esp,0x34
  401880:	push   edx
  401881:	push   0x403030
  401886:	pop    eax
  401887:	call   DWORD PTR cs:[eax]
  40188a:	pop    edx
  40188b:	push   edx
  40188c:	push   DWORD PTR [edx+0x4e8]
  401892:	push   edi
  401893:	push   esi
  401894:	call   0x4018b8
  401899:	add    esp,0xc
  40189c:	pop    edx
  40189d:	push   edx
  40189e:	mov    edi,0x0
  4018a3:	push   edi
  4018a4:	push   0x403034
  4018a9:	pop    eax
  4018aa:	call   DWORD PTR cs:[eax]
  4018ad:	pop    edx
  4018ae:	sub    esp,0xffffffcc
  4018b1:	mov    ebp,DWORD PTR [esp]
  4018b4:	add    esp,0x4
  4018b7:	ret    
  4018b8:	mov    edi,edi
  4018ba:	push   ebp
  4018bb:	mov    ebp,esp
  4018bd:	sub    esp,0x28
  4018c0:	push   edx
  4018c1:	mov    edi,0x0
  4018c6:	push   edi
  4018c7:	push   0x403018
  4018cc:	pop    eax
  4018cd:	call   DWORD PTR cs:[eax]
  4018d0:	pop    edx
  4018d1:	push   edx
  4018d2:	push   DWORD PTR [edx+0x4d4]
  4018d8:	push   DWORD PTR [edx+0x458]
  4018de:	call   0x4014c8
  4018e3:	add    esp,0x8
  4018e6:	pop    edx
  4018e7:	push   edx
  4018e8:	mov    edx,0x0
  4018ed:	push   edx
  4018ee:	push   0x403084
  4018f3:	pop    eax
  4018f4:	call   DWORD PTR cs:[eax]
  4018f7:	pop    edx
  4018f8:	sub    esp,0xffffffd8
  4018fb:	mov    ebp,DWORD PTR [esp]
  4018fe:	add    esp,0x4
  401901:	ret    
	...
  40190e:	add    BYTE PTR [eax],al
  401910:	mov    edi,edi
  401912:	push   ebp
  401913:	mov    ebp,esp
  401915:	sub    esp,0x48
  401918:	push   edx
  401919:	push   DWORD PTR [edx+0x350]
  40191f:	push   ebx
  401920:	push   esi
  401921:	call   0x401b9c
  401926:	add    esp,0xc
  401929:	pop    edx
  40192a:	push   edx
  40192b:	lea    edi,[edx]
  40192d:	push   edi
  40192e:	push   0x403048
  401933:	pop    eax
  401934:	call   DWORD PTR cs:[eax]
  401937:	test   eax,eax
  401939:	jne    0x40192b
  40193b:	pop    edx
  40193c:	push   edx
  40193d:	push   0x0
  40193f:	push   0x403018
  401944:	pop    eax
  401945:	call   DWORD PTR cs:[eax]
  401948:	pop    edx
  401949:	sub    esp,0xffffffb8
  40194c:	mov    ebp,DWORD PTR [esp]
  40194f:	add    esp,0x4
  401952:	ret    
  401953:	add    BYTE PTR [eax],al
  401955:	add    BYTE PTR [eax],al
  401957:	add    BYTE PTR [ebx-0x1374aa01],cl
  40195d:	sub    esp,0x30
  401960:	push   edx
  401961:	push   DWORD PTR [edx+0x3ec]
  401967:	push   DWORD PTR [edx+0xb8]
  40196d:	push   eax
  40196e:	push   esi
  40196f:	call   0x401acc
  401974:	add    esp,0x10
  401977:	pop    edx
  401978:	push   edx
  401979:	push   0x0
  40197b:	push   0x403020
  401980:	pop    eax
  401981:	call   DWORD PTR cs:[eax]
  401984:	pop    edx
  401985:	push   edx
  401986:	push   0x403014
  40198b:	pop    eax
  40198c:	call   DWORD PTR cs:[eax]
  40198f:	pop    edx
  401990:	sub    esp,0xffffffd0
  401993:	mov    ebp,DWORD PTR [esp]
  401996:	add    esp,0x4
  401999:	ret    
  40199a:	add    BYTE PTR [eax],al
  40199c:	mov    edi,edi
  40199e:	push   ebp
  40199f:	mov    ebp,esp
  4019a1:	sub    esp,0x20
  4019a4:	push   edx
  4019a5:	push   edi
  4019a6:	push   edi
  4019a7:	push   edi
  4019a8:	push   DWORD PTR [edx+0x3e0]
  4019ae:	call   0x40168c
  4019b3:	add    esp,0x10
  4019b6:	pop    edx
  4019b7:	push   edx
  4019b8:	mov    edi,0x0
  4019bd:	push   edi
  4019be:	push   0x403084
  4019c3:	pop    eax
  4019c4:	call   DWORD PTR cs:[eax]
  4019c7:	pop    edx
  4019c8:	push   edx
  4019c9:	push   0x0
  4019cb:	push   0x403040
  4019d0:	pop    eax
  4019d1:	call   DWORD PTR cs:[eax]
  4019d4:	pop    edx
  4019d5:	sub    esp,0xffffffe0
  4019d8:	mov    ebp,DWORD PTR [esp]
  4019db:	add    esp,0x4
  4019de:	ret    
  4019df:	add    BYTE PTR [ebx-0x1374aa01],cl
  4019e5:	sub    esp,0x34
  4019e8:	push   edx
  4019e9:	push   0x0
  4019eb:	push   0x403028
  4019f0:	pop    eax
  4019f1:	call   DWORD PTR cs:[eax]
  4019f4:	pop    edx
  4019f5:	push   edx
  4019f6:	push   DWORD PTR [edx+0x53c]
  4019fc:	push   edi
  4019fd:	call   0x40126c
  401a02:	add    esp,0x8
  401a05:	pop    edx
  401a06:	push   edx
  401a07:	lea    edi,[edx]
  401a09:	push   edi
  401a0a:	push   0x403048
  401a0f:	pop    eax
  401a10:	call   DWORD PTR cs:[eax]
  401a13:	test   eax,eax
  401a15:	jne    0x401a07
  401a17:	pop    edx
  401a18:	sub    esp,0xffffffcc
  401a1b:	mov    ebp,DWORD PTR [esp]
  401a1e:	add    esp,0x4
  401a21:	ret    
  401a22:	add    BYTE PTR [eax],al
  401a24:	add    BYTE PTR [eax],al
  401a26:	add    BYTE PTR [eax],al
  401a28:	mov    edi,edi
  401a2a:	push   ebp
  401a2b:	mov    ebp,esp
  401a2d:	sub    esp,0x20
  401a30:	push   edx
  401a31:	mov    ecx,0x0
  401a36:	push   ecx
  401a37:	push   0x403008
  401a3c:	pop    eax
  401a3d:	call   DWORD PTR cs:[eax]
  401a40:	pop    edx
  401a41:	push   edx
  401a42:	push   esi
  401a43:	push   DWORD PTR [edx+0x2e0]
  401a49:	push   DWORD PTR [edx+0xcc]
  401a4f:	push   DWORD PTR [edx+0x114]
  401a55:	call   0x4015b8
  401a5a:	add    esp,0x10
  401a5d:	pop    edx
  401a5e:	push   edx
  401a5f:	mov    edi,0x0
  401a64:	push   edi
  401a65:	push   0x403084
  401a6a:	pop    eax
  401a6b:	call   DWORD PTR cs:[eax]
  401a6e:	pop    edx
  401a6f:	sub    esp,0xffffffe0
  401a72:	mov    ebp,DWORD PTR [esp]
  401a75:	add    esp,0x4
  401a78:	ret    
	...
  401a81:	add    BYTE PTR [eax],al
  401a83:	add    BYTE PTR [ebx-0x1374aa01],cl
  401a89:	sub    esp,0x58
  401a8c:	push   edx
  401a8d:	push   esi
  401a8e:	push   DWORD PTR [edx+0x120]
  401a94:	push   DWORD PTR [edx+0xa0]
  401a9a:	push   ecx
  401a9b:	call   0x401c1c
  401aa0:	add    esp,0x10
  401aa3:	pop    edx
  401aa4:	push   edx
  401aa5:	mov    esi,0x0
  401aaa:	push   esi
  401aab:	push   0x403034
  401ab0:	pop    eax
  401ab1:	call   DWORD PTR cs:[eax]
  401ab4:	pop    edx
  401ab5:	push   edx
  401ab6:	push   0x0
  401ab8:	push   0x403010
  401abd:	pop    eax
  401abe:	call   DWORD PTR cs:[eax]
  401ac1:	pop    edx
  401ac2:	sub    esp,0xffffffa8
  401ac5:	mov    ebp,DWORD PTR [esp]
  401ac8:	add    esp,0x4
  401acb:	ret    
  401acc:	mov    edi,edi
  401ace:	push   ebp
  401acf:	mov    ebp,esp
  401ad1:	sub    esp,0x24
  401ad4:	push   edx
  401ad5:	mov    edx,0x0
  401ada:	push   edx
  401adb:	push   0x403034
  401ae0:	pop    eax
  401ae1:	call   DWORD PTR cs:[eax]
  401ae4:	pop    edx
  401ae5:	push   edx
  401ae6:	push   ebx
  401ae7:	push   ecx
  401ae8:	call   0x401764
  401aed:	add    esp,0x8
  401af0:	pop    edx
  401af1:	push   edx
  401af2:	push   0x0
  401af4:	push   0x403008
  401af9:	pop    eax
  401afa:	call   DWORD PTR cs:[eax]
  401afd:	pop    edx
  401afe:	sub    esp,0xffffffdc
  401b01:	mov    ebp,DWORD PTR [esp]
  401b04:	add    esp,0x4
  401b07:	ret    
  401b08:	mov    edi,edi
  401b0a:	push   ebp
  401b0b:	mov    ebp,esp
  401b0d:	sub    esp,0x3c
  401b10:	push   edx
  401b11:	push   DWORD PTR [edx+0x60]
  401b14:	push   ecx
  401b15:	push   DWORD PTR [edx+0x498]
  401b1b:	call   0x401e14
  401b20:	add    esp,0xc
  401b23:	pop    edx
  401b24:	push   edx
  401b25:	push   0x0
  401b27:	push   0x403084
  401b2c:	pop    eax
  401b2d:	call   DWORD PTR cs:[eax]
  401b30:	pop    edx
  401b31:	push   edx
  401b32:	push   0x0
  401b34:	push   0x403020
  401b39:	pop    eax
  401b3a:	call   DWORD PTR cs:[eax]
  401b3d:	pop    edx
  401b3e:	sub    esp,0xffffffc4
  401b41:	mov    ebp,DWORD PTR [esp]
  401b44:	add    esp,0x4
  401b47:	ret    
  401b48:	add    BYTE PTR [eax],al
  401b4a:	add    BYTE PTR [eax],al
  401b4c:	mov    edi,edi
  401b4e:	push   ebp
  401b4f:	mov    ebp,esp
  401b51:	sub    esp,0x3c
  401b54:	push   edx
  401b55:	mov    edi,0x0
  401b5a:	push   edi
  401b5b:	push   0x403000
  401b60:	pop    eax
  401b61:	call   DWORD PTR cs:[eax]
  401b64:	pop    edx
  401b65:	push   edx
  401b66:	push   DWORD PTR [edx+0x1f0]
  401b6c:	push   DWORD PTR [edx+0x2fc]
  401b72:	push   DWORD PTR [edx+0x450]
  401b78:	call   0x401644
  401b7d:	add    esp,0xc
  401b80:	pop    edx
  401b81:	push   edx
  401b82:	mov    esi,0x0
  401b87:	push   esi
  401b88:	push   0x403058
  401b8d:	pop    eax
  401b8e:	call   DWORD PTR cs:[eax]
  401b91:	pop    edx
  401b92:	sub    esp,0xffffffc4
  401b95:	mov    ebp,DWORD PTR [esp]
  401b98:	add    esp,0x4
  401b9b:	ret    
  401b9c:	mov    edi,edi
  401b9e:	push   ebp
  401b9f:	mov    ebp,esp
  401ba1:	sub    esp,0x34
  401ba4:	push   edx
  401ba5:	mov    ebx,0x0
  401baa:	push   ebx
  401bab:	push   0x403058
  401bb0:	pop    eax
  401bb1:	call   DWORD PTR cs:[eax]
  401bb4:	pop    edx
  401bb5:	push   edx
  401bb6:	push   esi
  401bb7:	push   DWORD PTR [edx+0xf0]
  401bbd:	call   0x401018
  401bc2:	add    esp,0x8
  401bc5:	pop    edx
  401bc6:	push   edx
  401bc7:	push   0x0
  401bc9:	push   0x403034
  401bce:	pop    eax
  401bcf:	call   DWORD PTR cs:[eax]
  401bd2:	pop    edx
  401bd3:	sub    esp,0xffffffcc
  401bd6:	mov    ebp,DWORD PTR [esp]
  401bd9:	add    esp,0x4
  401bdc:	ret    
  401bdd:	add    BYTE PTR [eax],al
  401bdf:	add    BYTE PTR [ebx-0x1374aa01],cl
  401be5:	sub    esp,0x40
  401be8:	push   edx
  401be9:	push   DWORD PTR [edx+0x2a8]
  401bef:	push   ecx
  401bf0:	call   0x401a28
  401bf5:	add    esp,0x8
  401bf8:	pop    edx
  401bf9:	push   edx
  401bfa:	push   0x403014
  401bff:	pop    eax
  401c00:	call   DWORD PTR cs:[eax]
  401c03:	pop    edx
  401c04:	push   edx
  401c05:	push   0x0
  401c07:	push   0x403004
  401c0c:	pop    eax
  401c0d:	call   DWORD PTR cs:[eax]
  401c10:	pop    edx
  401c11:	sub    esp,0xffffffc0
  401c14:	mov    ebp,DWORD PTR [esp]
  401c17:	add    esp,0x4
  401c1a:	ret    
  401c1b:	add    BYTE PTR [ebx-0x1374aa01],cl
  401c21:	sub    esp,0x28
  401c24:	push   edx
  401c25:	lea    esi,[edx]
  401c27:	push   esi
  401c28:	push   0x403048
  401c2d:	pop    eax
  401c2e:	call   DWORD PTR cs:[eax]
  401c31:	test   eax,eax
  401c33:	jne    0x401c25
  401c35:	pop    edx
  401c36:	push   edx
  401c37:	push   edi
  401c38:	push   DWORD PTR [edx+0x8c]
  401c3e:	push   ecx
  401c3f:	push   ebx
  401c40:	call   0x401358
  401c45:	add    esp,0x10
  401c48:	pop    edx
  401c49:	push   edx
  401c4a:	push   0x0
  401c4c:	push   0x403058
  401c51:	pop    eax
  401c52:	call   DWORD PTR cs:[eax]
  401c55:	pop    edx
  401c56:	sub    esp,0xffffffd8
  401c59:	mov    ebp,DWORD PTR [esp]
  401c5c:	add    esp,0x4
  401c5f:	ret    
  401c60:	add    BYTE PTR [eax],al
  401c62:	add    BYTE PTR [eax],al
  401c64:	mov    edi,edi
  401c66:	push   ebp
  401c67:	mov    ebp,esp
  401c69:	sub    esp,0x40
  401c6c:	push   edx
  401c6d:	push   DWORD PTR [edx+0x45c]
  401c73:	push   DWORD PTR [edx+0x400]
  401c79:	push   ebx
  401c7a:	call   0x401a84
  401c7f:	add    esp,0xc
  401c82:	pop    edx
  401c83:	push   edx
  401c84:	push   0x0
  401c86:	push   0x403064
  401c8b:	pop    eax
  401c8c:	call   DWORD PTR cs:[eax]
  401c8f:	pop    edx
  401c90:	push   edx
  401c91:	push   0x0
  401c93:	push   0x403064
  401c98:	pop    eax
  401c99:	call   DWORD PTR cs:[eax]
  401c9c:	pop    edx
  401c9d:	sub    esp,0xffffffc0
  401ca0:	mov    ebp,DWORD PTR [esp]
  401ca3:	add    esp,0x4
  401ca6:	ret    
	...
  401caf:	add    BYTE PTR [ebx-0x1374aa01],cl
  401cb5:	sub    esp,0x58
  401cb8:	push   edx
  401cb9:	push   DWORD PTR [edx+0xbc]
  401cbf:	push   DWORD PTR [edx+0x28c]
  401cc5:	push   DWORD PTR [edx+0x4d8]
  401ccb:	call   0x401b08
  401cd0:	add    esp,0xc
  401cd3:	pop    edx
  401cd4:	push   edx
  401cd5:	push   0x0
  401cd7:	push   0x403058
  401cdc:	pop    eax
  401cdd:	call   DWORD PTR cs:[eax]
  401ce0:	pop    edx
  401ce1:	push   edx
  401ce2:	push   0x0
  401ce4:	push   0x403084
  401ce9:	pop    eax
  401cea:	call   DWORD PTR cs:[eax]
  401ced:	pop    edx
  401cee:	sub    esp,0xffffffa8
  401cf1:	mov    ebp,DWORD PTR [esp]
  401cf4:	add    esp,0x4
  401cf7:	ret    
  401cf8:	mov    edi,edi
  401cfa:	push   ebp
  401cfb:	mov    ebp,esp
  401cfd:	sub    esp,0x60
  401d00:	push   edx
  401d01:	push   DWORD PTR [edx+0xe0]
  401d07:	push   DWORD PTR [edx+0x4f0]
  401d0d:	push   esi
  401d0e:	call   0x401568
  401d13:	add    esp,0xc
  401d16:	pop    edx
  401d17:	push   edx
  401d18:	push   0x0
  401d1a:	push   0x403058
  401d1f:	pop    eax
  401d20:	call   DWORD PTR cs:[eax]
  401d23:	pop    edx
  401d24:	push   edx
  401d25:	push   0x0
  401d27:	push   0x403008
  401d2c:	pop    eax
  401d2d:	call   DWORD PTR cs:[eax]
  401d30:	pop    edx
  401d31:	sub    esp,0xffffffa0
  401d34:	mov    ebp,DWORD PTR [esp]
  401d37:	add    esp,0x4
  401d3a:	ret    
  401d3b:	add    BYTE PTR [ebx-0x1374aa01],cl
  401d41:	sub    esp,0x2c
  401d44:	push   edx
  401d45:	push   DWORD PTR [edx+0x1e0]
  401d4b:	push   edi
  401d4c:	push   DWORD PTR [edx+0x518]
  401d52:	call   0x4017f8
  401d57:	add    esp,0xc
  401d5a:	pop    edx
  401d5b:	push   edx
  401d5c:	push   0x0
  401d5e:	push   0x403020
  401d63:	pop    eax
  401d64:	call   DWORD PTR cs:[eax]
  401d67:	pop    edx
  401d68:	push   edx
  401d69:	mov    edi,0x0
  401d6e:	push   edi
  401d6f:	push   0x403010
  401d74:	pop    eax
  401d75:	call   DWORD PTR cs:[eax]
  401d78:	pop    edx
  401d79:	sub    esp,0xffffffd4
  401d7c:	mov    ebp,DWORD PTR [esp]
  401d7f:	add    esp,0x4
  401d82:	ret    
  401d83:	add    BYTE PTR [eax],al
  401d85:	add    BYTE PTR [eax],al
  401d87:	add    BYTE PTR [ebx-0x1374aa01],cl
  401d8d:	sub    esp,0x5c
  401d90:	push   edx
  401d91:	mov    edx,0x0
  401d96:	push   edx
  401d97:	push   0x403034
  401d9c:	pop    eax
  401d9d:	call   DWORD PTR cs:[eax]
  401da0:	pop    edx
  401da1:	push   edx
  401da2:	push   edi
  401da3:	push   DWORD PTR [edx+0x2b0]
  401da9:	push   DWORD PTR [edx+0x100]
  401daf:	call   0x401110
  401db4:	add    esp,0xc
  401db7:	pop    edx
  401db8:	push   edx
  401db9:	mov    edi,0x0
  401dbe:	push   edi
  401dbf:	push   0x403018
  401dc4:	pop    eax
  401dc5:	call   DWORD PTR cs:[eax]
  401dc8:	pop    edx
  401dc9:	sub    esp,0xffffffa4
  401dcc:	mov    ebp,DWORD PTR [esp]
  401dcf:	add    esp,0x4
  401dd2:	ret    
  401dd3:	add    BYTE PTR [ebx-0x1374aa01],cl
  401dd9:	sub    esp,0x24
  401ddc:	push   edx
  401ddd:	push   edi
  401dde:	push   DWORD PTR [edx+0x3c]
  401de1:	call   0x40130c
  401de6:	add    esp,0x8
  401de9:	pop    edx
  401dea:	push   edx
  401deb:	push   0x0
  401ded:	push   0x403040
  401df2:	pop    eax
  401df3:	call   DWORD PTR cs:[eax]
  401df6:	pop    edx
  401df7:	push   edx
  401df8:	mov    ebx,0x0
  401dfd:	push   ebx
  401dfe:	push   0x403028
  401e03:	pop    eax
  401e04:	call   DWORD PTR cs:[eax]
  401e07:	pop    edx
  401e08:	sub    esp,0xffffffdc
  401e0b:	mov    ebp,DWORD PTR [esp]
  401e0e:	add    esp,0x4
  401e11:	ret    
  401e12:	add    BYTE PTR [eax],al
  401e14:	mov    edi,edi
  401e16:	push   ebp
  401e17:	mov    ebp,esp
  401e19:	sub    esp,0x2c
  401e1c:	push   edx
  401e1d:	mov    esi,0x0
  401e22:	push   esi
  401e23:	push   0x403028
  401e28:	pop    eax
  401e29:	call   DWORD PTR cs:[eax]
  401e2c:	pop    edx
  401e2d:	push   edx
  401e2e:	push   ecx
  401e2f:	push   DWORD PTR [edx+0x4b8]
  401e35:	push   esi
  401e36:	push   eax
  401e37:	call   0x401cf8
  401e3c:	add    esp,0x10
  401e3f:	pop    edx
  401e40:	push   edx
  401e41:	push   0x0
  401e43:	push   0x403010
  401e48:	pop    eax
  401e49:	call   DWORD PTR cs:[eax]
  401e4c:	pop    edx
  401e4d:	sub    esp,0xffffffd4
  401e50:	mov    ebp,DWORD PTR [esp]
  401e53:	add    esp,0x4
  401e56:	ret    
  401e57:	add    BYTE PTR [ebx-0x1374aa01],cl
  401e5d:	sub    esp,0x20
  401e60:	push   edx
  401e61:	push   DWORD PTR [edx+0x5b8]
  401e67:	push   eax
  401e68:	push   DWORD PTR [edx+0x1d4]
  401e6e:	push   edi
  401e6f:	call   0x401910
  401e74:	add    esp,0x10
  401e77:	pop    edx
  401e78:	push   edx
  401e79:	push   0x403030
  401e7e:	pop    eax
  401e7f:	call   DWORD PTR cs:[eax]
  401e82:	pop    edx
  401e83:	push   edx
  401e84:	push   0x0
  401e86:	push   0x403000
  401e8b:	pop    eax
  401e8c:	call   DWORD PTR cs:[eax]
  401e8f:	pop    edx
  401e90:	sub    esp,0xffffffe0
  401e93:	mov    ebp,DWORD PTR [esp]
  401e96:	add    esp,0x4
  401e99:	ret    
  401e9a:	add    BYTE PTR [eax],al
  401e9c:	sbb    al,0x31
  401e9e:	test   dh,cl
  401ea0:	test   eax,0xe45f5cc5
  401ea5:	mov    BYTE PTR [eax],cl
  401ea7:	mov    ebp,0xc906a31f
  401eac:	cmc    
  401ead:	jmp    0x408d:0x44ecec4b
  401eb4:	jge    0x401ec5
  401eb6:	fld    TBYTE PTR [edi+0x5e]
  401eb9:	xchg   esi,eax
  401ebb:	add    DWORD PTR [ecx],eax
  401ebd:	mov    esi,0xc6c70101
  401ec3:	add    DWORD PTR [ecx],eax
  401ec5:	jecxz  0x401ea8
  401ec7:	jg     0x401f05
  401ec9:	retf   
  401eca:	push   ebp
  401ecb:	lahf   
  401ecc:	popa   
  401ecd:	xor    al,0x79
  401ecf:	es stos BYTE PTR es:[edi],al
  401ed1:	mov    ebp,0x83c4f4e6
  401ed6:	dec    esp
  401ed7:	gs jb  0x401f3d
  401eda:	or     BYTE PTR [esi],bl
  401edc:	push   esi
  401edd:	jns    0x401efc
  401edf:	push   edi
  401ee0:	add    BYTE PTR [ecx],cl
  401ee2:	ins    DWORD PTR es:[edi],dx
  401ee3:	xor    al,0x34
  401ee5:	shr    DWORD PTR [eax],1
  401ee7:	fild   DWORD PTR [eax+0xae44703]
  401eed:	scas   al,BYTE PTR es:[edi]
  401eee:	sub    DWORD PTR [ecx-0x9fab844],eax
  401ef4:	sub    edi,DWORD PTR [eax+0x762e1d]
  401efa:	pop    esi
  401efb:	mov    esi,eax
  401efd:	dec    ebp
  401efe:	test   al,0xf5
  401f00:	mov    ebx,DWORD PTR [ebp-0x52]
  401f03:	call   0xf24331fa
  401f08:	popa   
  401f09:	jmp    0x401ec6
  401f0b:	imul   esi,ebp,0x6a
  401f0e:	push   cs
  401f0f:	popf   
  401f10:	mov    ds:0x2e0190,eax
  401f15:	sub    ebp,DWORD PTR [esi]
  401f17:	or     DWORD PTR [edi],ebx
  401f19:	cmp    BYTE PTR [eax],al
  401f1b:	(bad)  
  401f1c:	xor    al,0x6d
  401f1e:	adc    BYTE PTR [ebx-0x6b],0x53
  401f22:	imul   ebp,DWORD PTR [esp+esi*2],0xe1a03ec
  401f29:	or     eax,0x363c3807
  401f2e:	push   ebx
  401f2f:	add    bh,BYTE PTR [eax-0x18]
  401f32:	into   
  401f33:	or     al,0xd6
  401f35:	cmp    ebx,ebp
  401f37:	jmp    0x50a94d80
  401f3c:	push   0x18
  401f3e:	imul   esp,DWORD PTR [eax+0x6c010016],0x10a997a0
  401f48:	loope  0x401f42
  401f4a:	(bad)  
  401f4b:	adc    dl,BYTE PTR [eax]
  401f4d:	push   ebp
  401f4e:	add    DWORD PTR [eax+0x14],edx
  401f51:	mov    al,0x60
  401f53:	je     0x401f04
  401f55:	inc    DWORD PTR [ebp+0x5f]
  401f58:	call   esp
  401f5a:	add    ebp,esi
  401f5c:	add    al,0x7a
  401f5e:	sub    ch,BYTE PTR [edi]
  401f60:	test   BYTE PTR [eax],0x1
  401f63:	pop    eax
  401f64:	aad    0x6f
  401f66:	mov    dl,0x7a
  401f68:	or     ebp,eax
  401f6a:	adc    al,0x52
  401f6c:	and    al,0x34
  401f6e:	jmp    0x23b20ac
  401f73:	mov    es,ecx
  401f75:	sub    BYTE PTR [ebx-0x6e],0x8b
  401f79:	dec    DWORD PTR [ecx-0x5600c29c]
  401f7f:	jg     0x401f70
  401f81:	cmp    BYTE PTR [ecx+eiz*8],ah
  401f84:	sub    BYTE PTR [ecx],al
  401f86:	or     eax,0x754c5eff
  401f8b:	gs test eax,0x7d00570f
  401f91:	or     BYTE PTR [eax],al
  401f93:	rol    DWORD PTR [eax],cl
  401f95:	out    0xf1,eax
  401f97:	mov    al,0xfc
  401f99:	push   edi
  401f9a:	add    DWORD PTR [eax+0x42b2d4a3],ecx
  401fa0:	lea    esp,[esi-0x62]
  401fa3:	inc    esi
  401fa4:	adc    cl,BYTE PTR [ebp-0x31a99cdf]
  401faa:	pusha  
  401fab:	and    al,BYTE PTR [ecx]
  401fad:	xor    DWORD PTR [ebp+0x6f32002c],ebx
  401fb3:	pop    esp
  401fb4:	pop    eax
  401fb5:	mov    ebx,0x74970031
  401fba:	and    DWORD PTR [edi+edi*8+0x2e744455],ebp
  401fc1:	cmp    al,0x3d
  401fc3:	sub    ecx,esp
  401fc5:	adc    al,0x5c
  401fc7:	cmp    DWORD PTR [ebx+0x39ab5805],ebp
  401fcd:	push   ebp
  401fce:	pop    edx
  401fcf:	cmp    DWORD PTR [edx],eax
  401fd1:	xchg   DWORD PTR [ebx-0x23],ebx
  401fd4:	test   al,0xa4
  401fd6:	push   esi
  401fd7:	movs   DWORD PTR es:[edi],DWORD PTR ds:[esi]
  401fd8:	je     0x401f74
  401fda:	pop    eax
  401fdb:	cmps   DWORD PTR ds:[esi],DWORD PTR es:[edi]
  401fdc:	aad    0x6a
  401fde:	retf   0x64c2
  401fe1:	xor    edi,0x7654c224
  401fe7:	test   BYTE PTR [edi-0x84babc8],ch
  401fed:	das    
  401fee:	mov    bh,0xb1
  401ff0:	add    eax,0x5d41ec74
  401ff5:	xor    al,BYTE PTR [eax+eiz*2+0x6]
  401ff9:	add    bl,al
  401ffb:	dec    ecx
  401ffc:	icebp  
  401ffd:	add    BYTE PTR [ebp-0x692b1f41],dh
  402003:	call   0x8b831f42
  402008:	inc    edi
  402009:	and    ch,cl
  40200b:	xor    cl,BYTE PTR [ecx+0x20101c8]
  402011:	cld    
  402012:	adc    al,0xf
  402014:	adc    ecx,DWORD PTR [ebx+0x4741c0b]
  40201a:	cmps   DWORD PTR ds:[esi],DWORD PTR es:[edi]
  40201b:	push   ebx
  40201c:	xchg   DWORD PTR [ebx+0xc01db87],ebp
  402022:	add    eax,0x56563a03
  402027:	cmp    eax,0xa65804ad
  40202c:	fs xchg ecx,eax
  40202e:	cwde   
  40202f:	shl    bl,0x53
  402032:	shl    DWORD PTR [ecx+0x0],cl
  402035:	rep movs BYTE PTR es:[edi],BYTE PTR ds:[esi]
  402037:	movs   DWORD PTR es:[edi],DWORD PTR ds:[esi]
  402038:	(bad)  
  402039:	sar    DWORD PTR [edx],cl
  40203b:	(bad)  
  40203c:	xchg   edx,eax
  40203d:	xlat   BYTE PTR ds:[ebx]
  40203e:	retf   
  40203f:	jbe    0x4020ac
  402041:	push   0x9
  402043:	call   0xaa2af9
  402048:	add    BYTE PTR [ecx],al
  40204a:	pop    ecx
  40204b:	push   0x41c100
  402050:	xchg   edi,eax
  402051:	sub    eax,0xfb8ba91c
  402056:	ja     0x4020d3
  402058:	mov    esi,0xf0e80964
  40205d:	out    dx,eax
  40205e:	fs xor BYTE PTR ss:[ecx+eax*1],al
  402063:	xor    BYTE PTR [ebp+0x74],ch
  402066:	retf   0x8b54
  402069:	inc    eax
  40206a:	dec    ebp
  40206b:	mov    dl,0x54
  40206d:	pop    eax
  40206e:	ins    DWORD PTR es:[edi],dx
  40206f:	pop    esp
  402070:	mov    dl,0xc
  402072:	in     al,dx
  402073:	jl     0x402004
  402075:	js     0x4020a0
  402077:	mov    BYTE PTR [esi+0x2b38b0d7],bh
  40207d:	daa    
  40207e:	sti    
  40207f:	mov    eax,ds:0x8929309
  402084:	xchg   ebp,eax
  402085:	xchg   ecx,eax
  402086:	sahf   
  402087:	pop    ebp
  402088:	mov    WORD PTR [ecx],sp
  40208b:	arpl   WORD PTR [ebp-0x6d],cx
  40208e:	(bad)  
  40208f:	adc    al,0x75
  402091:	and    BYTE PTR [ecx],al
  402093:	mov    ebx,DWORD PTR [eax-0x6f]
  402096:	mov    edx,0xa9ff8338
  40209b:	sbb    al,0x90
  40209d:	stos   BYTE PTR es:[edi],al
  40209e:	and    al,ch
  4020a0:	adc    al,0x8
  4020a2:	xchg   edi,eax
  4020a3:	pop    eax
  4020a4:	mov    DWORD PTR [esi+0x51],esi
  4020a7:	xchg   ebp,eax
  4020a8:	cmp    DWORD PTR [ecx+0x24185eb9],ebx
  4020ae:	add    DWORD PTR [esi+edi*4-0x70],ebx
  4020b2:	and    DWORD PTR [ecx+0x7701005a],eax
  4020b8:	psrlq  mm1,QWORD PTR [esi+0x2104b22b]
  4020bf:	(bad)  
  4020c0:	and    al,0x4
  4020c2:	add    edi,edi
  4020c4:	je     0x4020c6
  4020c6:	and    DWORD PTR [esp+ecx*8],esp
  4020c9:	rol    BYTE PTR [ebx+edx*2],0xdb
  4020cd:	div    edi
  4020cf:	std    
  4020d0:	pop    esp
  4020d1:	dec    eax
  4020d2:	cmp    al,0xbc
  4020d4:	jbe    0x4020d9
  4020d6:	add    DWORD PTR [ebp-0xaff3d8a],eax
  4020dc:	jbe    0x402069
  4020de:	hlt    
  4020df:	inc    DWORD PTR [esi+0xfef8a8c]
  4020e5:	test   DWORD PTR [ebx-0x7d8fc004],esp
  4020eb:	xchg   ebp,eax
  4020ec:	mov    dl,BYTE PTR [ebx+0x5c]
  4020ef:	mov    dl,BYTE PTR [ebp+0x74035185]
  4020f5:	and    DWORD PTR [edi-0x78],esp
  4020f8:	movs   DWORD PTR es:[edi],DWORD PTR ds:[esi]
  4020f9:	(bad)  [esi+ebx*2-0x7a]
  4020fd:	shl    BYTE PTR [esi+0x7b09867e],1
  402103:	in     eax,0xa5
  402105:	and    al,0x0
  402107:	or     ah,BYTE PTR [edi+ecx*4+0x5ab3d56]
  40210e:	pop    eax
  40210f:	test   eax,0x4b8057dc
  402114:	(bad)  
  402115:	pushf  
  402116:	sbb    al,0xd6
  402118:	ror    BYTE PTR [eax],1
  40211a:	mov    eax,0x2b261113
  40211f:	xchg   edi,eax
  402120:	ja     0x402151
  402122:	mov    cl,0x74
  402124:	rol    BYTE PTR [ebp+0x24047581],0xc8
  40212b:	pop    es
  40212c:	ja     0x4020d3
  40212e:	and    eax,0x2ec40302
  402133:	add    BYTE PTR [ebx-0x5574ce25],cl
  402139:	pop    eax
  40213a:	movs   BYTE PTR es:[edi],BYTE PTR ds:[esi]
  40213b:	mov    esi,0xb8004b1f
  402140:	mov    dl,0xff
  402142:	add    eax,0xa9a10f08
  402147:	pop    ebx
  402148:	or     ebx,edx
  40214a:	inc    esp
  40214b:	dec    esp
  40214c:	out    0xda,eax
  40214e:	in     eax,dx
  40214f:	sub    BYTE PTR [ebp+ecx*2+0x5f],dh
  402153:	jmp    0x402186
  402155:	bound  esi,QWORD PTR [esi+ecx*8-0x60]
  402159:	test   DWORD PTR [ebx-0x52],esp
  40215c:	out    dx,al
  40215d:	jns    0x4020e9
  40215f:	inc    edi
  402160:	test   DWORD PTR [ecx+eax*1],esi
  402163:	mov    ebx,DWORD PTR [ebx]
  402165:	and    BYTE PTR [ebp+0x3c8b8b8e],ah
  40216b:	mov    al,ds:0x85010000
  402170:	push   esi
  402171:	mov    ecx,0x85778a
  402176:	add    DWORD PTR [ebx],eax
  402178:	jb     0x4021a3
  40217a:	and    DWORD PTR [ebx],ecx
  40217c:	add    bl,bh
  40217e:	stos   BYTE PTR es:[edi],al
  40217f:	mov    BYTE PTR [ebx+ebx*8],bh
  402182:	add    dl,BYTE PTR [esi+0x386f3adb]
  402188:	push   edx
  402189:	inc    ecx
  40218a:	adc    DWORD PTR [eax],eax
  40218c:	aas    
  40218d:	xchg   DWORD PTR [edx+0x53],ebp
  402190:	push   eax
  402191:	push   0x6f
  402193:	cmp    BYTE PTR [eax+edi*8],al
  402196:	adc    DWORD PTR [eax],eax
  402198:	aas    
  402199:	test   DWORD PTR [ebx+esi*2+0x111000],eax
  4021a0:	fist   DWORD PTR [ecx+0x58]
  4021a3:	add    BYTE PTR [ebp+0xc],dl
  4021a6:	push   edi
  4021a7:	or     al,0x52
  4021a9:	daa    
  4021aa:	loop   0x4021a8
  4021ac:	rcl    BYTE PTR [edx+0x21d2621a],cl
  4021b2:	in     al,dx
  4021b3:	mov    al,0x29
  4021b5:	mov    bh,0xc8
  4021b7:	cmps   BYTE PTR ds:[esi],BYTE PTR es:[edi]
  4021b8:	call   0x2588:0x6edd3104
  4021bf:	sbb    BYTE PTR [eax+esi*1+0x2],dh
  4021c3:	adc    al,0x8
  4021c5:	sbb    eax,0x45995e0d
  4021ca:	popa   
  4021cb:	mov    DWORD PTR [eax],ecx
  4021cd:	mov    esp,0x4c34ae03
  4021d2:	imul   esp,DWORD PTR [eax],0x835850ff
  4021d8:	clc    
  4021d9:	add    al,0x55
  4021db:	pop    ss
  4021dc:	mov    bl,0x3f
  4021de:	imul   esp,DWORD PTR [eax],0x815850ff
  4021e4:	adc    al,0x24
  4021e6:	and    eax,0x578114
  4021eb:	push   esi
  4021ec:	sbb    al,0xff
  4021ee:	test   eax,0xa60f00
  4021f3:	add    cl,BYTE PTR [ecx+0x3904bf9c]
  4021f9:	fwait
  4021fa:	mov    ds:0x4ed8868a,al
  4021ff:	cli    
  402200:	push   sp
  402202:	xor    BYTE PTR [esi+0x76],cl
  402205:	or     ah,BYTE PTR [eax+edi*2+0x7a]
  402209:	adc    edx,DWORD PTR [ecx]
  40220b:	mov    ecx,0xff0463f3
  402210:	(bad)  
  402211:	inc    DWORD PTR [ebp-0x20]
  402214:	(bad)  
  402215:	jmp    0x402218
  402217:	call   0xe23f691a
  40221c:	mov    edi,0xff56b1b9
  402221:	(bad)  
  402222:	jmp    0x3921fd
  402227:	jae    0x40222f
  402229:	arpl   WORD PTR [esi+0x8f632f4],di
  40222f:	mov    ecx,0xff20dc24
  402234:	(bad)  
  402235:	push   DWORD PTR [ebx+0x1]
  402238:	je     0x402247
  40223a:	and    esi,DWORD PTR ds:0xcbff7401
  402240:	jle    0x4021fa
  402242:	xchg   edx,eax
  402243:	or     BYTE PTR [esi+edi*1],dh
  402246:	les    esp,FWORD PTR [ebx]
  402248:	(bad)
  40224b:	sub    DWORD PTR [eax-0x2a26ba80],ecx
  402251:	pop    esp
  402252:	aam    0x6
  402254:	dec    esi
  402255:	add    eax,0xfebd38b0
  40225a:	stos   DWORD PTR es:[edi],eax
  40225b:	shl    DWORD PTR [edi],0x50
  40225e:	sahf   
  40225f:	ds mov ebx,ebp
  402262:	add    eax,ebp
  402264:	lahf   
  402265:	inc    esi
  402266:	call   DWORD PTR [ebp+0x59bab7f8]
  40226c:	mov    eax,ds:0x5656ebae
  402271:	or     al,0x1
  402273:	call   0x863f6905
  402278:	mov    dl,0xe8
  40227a:	push   0x750000a6
  40227f:	mov    ebx,ebx
  402281:	arpl   WORD PTR [esi-0x19],di
  402284:	and    eax,0x7a4c2848
  402289:	inc    ecx
  40228a:	and    DWORD PTR [ecx+0x303da01d],edi
  402290:	mov    ecx,0x30b90302
  402295:	cmp    al,0x3d
  402297:	sub    BYTE PTR [ecx+0x28b92120],bh
  40229d:	cmp    al,0x3d
  40229f:	and    BYTE PTR [ecx+0x20b90504],bh
  4022a5:	cmp    al,0x3d
  4022a7:	sbb    BYTE PTR [ecx+0x18b94140],bh
  4022ad:	cmp    al,0x3d
  4022af:	adc    BYTE PTR [ecx+0x10b90504],bh
  4022b5:	cmp    al,0x3d
  4022b7:	or     BYTE PTR [ecx+0x8b94140],bh
  4022bd:	cmp    al,0x3d
  4022bf:	add    BYTE PTR [ebx+0x60489bc1],cl
  4022c5:	idiv   ebp
  4022c7:	sub    al,0xc3
  4022c9:	sub    eax,0x7d43e867
  4022ce:	add    DWORD PTR [edi],ecx
  4022d0:	arpl   WORD PTR [edi+0x28],bp
  4022d3:	push   cs
  4022d4:	push   DWORD PTR [ebx+esi*2+0x54]
  4022d8:	ins    DWORD PTR es:[edi],dx
  4022d9:	lods   al,BYTE PTR ds:[esi]
  4022da:	stc    
  4022db:	call   0x60e58a8b
  4022e0:	call   DWORD PTR [ebp+0x68]
  4022e3:	je     0x40229d
  4022e5:	dec    eax
  4022e6:	std    
  4022e7:	xchg   esp,eax
  4022e8:	add    BYTE PTR [ecx+0x14],bh
  4022eb:	fistp  DWORD PTR [ebx*1+0x505c5069]
  4022f2:	push   esp
  4022f3:	repz push ebp
  4022f5:	inc    eax
  4022f6:	sbb    al,BYTE PTR ds:0x2f0cab74
  4022fc:	mov    eax,0xa4e83961
  402301:	mov    ebx,0x202444c2
  402306:	lods   al,BYTE PTR ds:[esi]
  402307:	fmul   st(1),st
  402309:	test   DWORD PTR [edx+0x18bf889],esi
  40230f:	movs   DWORD PTR es:[edi],DWORD PTR fs:[esi]
  402311:	movs   DWORD PTR es:[edi],DWORD PTR ds:[esi]
  402312:	sbb    DWORD PTR [ecx+0x2cfa8b64],esp
  402318:	push   ecx
  402319:	push   0x70205169
  40231e:	push   esp
  40231f:	repz push ebp
  402321:	inc    eax
  402322:	into   
  402323:	pop    ecx
  402324:	inc    edi
  402325:	fmul   QWORD PTR [ebp+0x434287e8]
  40232b:	jae    0x4022d0
  40232d:	movs   BYTE PTR es:[edi],BYTE PTR ds:[esi]
  40232e:	rcl    BYTE PTR [edx-0x20],0x8b
  402332:	add    DWORD PTR [eax],ebx
  402334:	cs and al,0x6d
  402337:	out    dx,al
  402338:	ret    
  402339:	pusha  
  40233a:	loop   0x40236b
  40233c:	inc    ecx
  40233d:	add    esp,DWORD PTR cs:[eax]
  402340:	test   BYTE PTR [ebp+0x33006827],ah
  402346:	les    ebp,FWORD PTR [edx+0x0]
  402349:	push   0xea3fff63
  40234e:	nop
  40234f:	lea    ebp,[ebx-0x13fdaca5]
  402355:	add    dh,cl
  402357:	adc    BYTE PTR [ecx-0x4],cl
  40235a:	inc    edx
  40235b:	and    BYTE PTR [edi+0x3c8b41c4],ch
  402361:	inc    eax
  402362:	xchg   al,al
  402364:	je     0x402327
  402366:	inc    esi
  402367:	and    BYTE PTR [ebx-0x2e945686],dl
  40236d:	xchg   BYTE PTR [esi-0x565594a0],dh
  402373:	dec    ebx
  402374:	fs mov cl,0xe1
  402377:	sbb    DWORD PTR [eax],0x55
  40237a:	mov    dh,BYTE PTR [esi+eiz*1+0x38]
  40237e:	jle    0x402367
  402380:	adc    al,0x2
  402382:	fst    QWORD PTR [eax]
  402384:	inc    edx
  402385:	xchg   ebx,eax
  402386:	pusha  
  402387:	imul   esi,DWORD PTR ds:0x8208f42d,0x1a
  40238e:	je     0x40237b
  402390:	xor    bl,dl
  402392:	pop    ecx
  402393:	or     DWORD PTR [eax-0xa48801],eax
  402399:	inc    ebp
  40239a:	and    al,0xe
  40239c:	cwde   
  40239d:	add    DWORD PTR [edx+0x49],esp
  4023a0:	ret    
  4023a1:	pop    esp
  4023a2:	outs   dx,DWORD PTR ds:[esi]
  4023a3:	cld    
  4023a4:	lea    edx,ds:0xb9520401
  4023aa:	jmp    0x3f0:0x5e5a00e8
  4023b1:	clc    
  4023b2:	aam    0xcb
  4023b4:	retf   
  4023b5:	jbe    0x4023e3
  4023b7:	dec    esi
  4023b8:	lds    ebp,FWORD PTR [eax]
  4023ba:	jne    0x40240d
  4023bc:	jbe    0x4023e3
  4023be:	and    BYTE PTR [eax],ch
  4023c0:	adc    DWORD PTR [ecx],ebp
  4023c2:	fiadd  DWORD PTR [edi+ebx*2-0x39db5caf]
  4023c9:	dec    ebp
  4023ca:	cld    
  4023cb:	int    0xa
  4023cd:	push   es
  4023ce:	das    
  4023cf:	mov    bl,0xc1
  4023d1:	rol    DWORD PTR [eax],1
  4023d3:	bound  ebp,QWORD PTR [edx]
  4023d5:	jecxz  0x4023e0
  4023d7:	scas   eax,DWORD PTR es:[edi]
  4023d8:	or     eax,0x1e0401e1
  4023dd:	sbb    al,0x5b
  4023df:	push   ss
  4023e0:	add    BYTE PTR [ebp+0x19],ch
  4023e3:	push   ds
  4023e4:	pop    es
  4023e5:	jp     0x40243b
  4023e7:	xor    eax,0x7144f672
  4023ec:	pop    ebp
  4023ed:	stos   DWORD PTR es:[edi],eax
  4023ee:	push   esp
  4023ef:	pop    esi
  4023f0:	jne    0x402437
  4023f2:	inc    esp
  4023f3:	je     0x40240d
  4023f5:	xchg   ebp,eax
  4023f6:	imul   esp,DWORD PTR ds:0xf1bae1d,0x0
  4023fd:	pushw  ds
  4023ff:	sbb    BYTE PTR [eax+eiz*1],dl
  402402:	add    eax,0x8c7f258d
  402407:	xchg   ecx,eax
  402408:	repz fstp TBYTE PTR [edx+0x5c]
  40240c:	nop
  40240d:	jmp    0xa697623d
  402412:	push   esi
  402413:	push   ecx
  402414:	data16 sbb BYTE PTR [ecx],cl
  402417:	pop    eax
  402418:	add    eax,0xbc066295
  40241d:	jbe    0x402446
  40241f:	call   0x24f6b07a
  402424:	add    edi,0x3c2481d4
  40242a:	imul   eax,DWORD PTR [edi],0x59
  40242d:	loope  0x402485
  40242f:	push   ds
  402430:	mov    WORD PTR [edx+ebp*2+0x485d3906],gs
  402437:	push   ss
  402438:	daa    
  402439:	repz hlt 
  40243b:	sbb    ch,BYTE PTR [ebx-0x436a55e6]
  402441:	repz fmul st(0),st
  402444:	pop    ecx
  402445:	sahf   
  402446:	movs   DWORD PTR es:[edi],DWORD PTR ds:[esi]
  402447:	push   esp
  402448:	cmp    edx,DWORD PTR [ebx-0x7a]
  40244b:	pop    ss
  40244c:	mov    bl,0x1
  40244f:	sahf   
  402450:	mov    ch,0xd8
  402452:	retf   
  402453:	sub    eax,0xac5c083
  402458:	xor    al,0x61
  40245a:	xor    eax,0x1048919
  40245f:	add    BYTE PTR [ebp+0x10],bl
  402462:	add    DWORD PTR [eax+0x0],ebp
  402465:	add    BYTE PTR [ecx],al
  402467:	add    BYTE PTR [ebx+0x66355266],ch
  40246d:	mov    edx,0x9e903cf4
  402472:	retf   0x8a55
  402475:	cmp    DWORD PTR [ebp+0x51],edi
  402478:	frstor [ebx+edx*1-0x12]
  40247c:	and    ebx,0xee5e8d05
  402482:	jnp    0x402425
  402484:	clc    
  402485:	sbb    al,0x7d
  402487:	add    eax,ebp
  402489:	loop   0x402468
  40248b:	push   0x33
  40248d:	push   es
  40248e:	mov    eax,0xca17365b
  402493:	push   ebp
  402494:	into   
  402495:	inc    ecx
  402496:	xchg   esp,eax
  402497:	adc    esp,DWORD PTR [edx+0x55]
  40249a:	stc    
  40249b:	adc    al,ch
  40249d:	and    bh,BYTE PTR [ebx-0x1134cad1]
  4024a3:	xor    DWORD PTR [edi],0xffffffb8
  4024a6:	(bad)  
  4024a7:	icebp  
  4024a8:	adc    eax,0x4921a617
  4024ad:	jle    0x4024c3
  4024af:	loope  0x402478
  4024b1:	xor    DWORD PTR [ecx+0x14],ebp
  4024b4:	push   0x68
  4024b6:	pop    eax
  4024b7:	push   0x10
  4024b9:	jmp    FWORD PTR [ecx+0x72a7e110]
  4024bf:	addr16 adc al,0x54
  4024c2:	add    BYTE PTR [edi+eiz*2],al
  4024c5:	jge    0x40245c
  4024c7:	pop    DWORD PTR [ecx]
  4024c9:	add    BYTE PTR [ecx],al
  4024cb:	push   esi
  4024cc:	push   edi
  4024cd:	xchg   edi,eax
  4024ce:	test   eax,0x69003d73
  4024d3:	jmp    0x283:0x6a015520
  4024da:	imul   ebp,DWORD PTR [ecx+0x6b],0x68
  4024de:	imul   eax,DWORD PTR [ecx],0xffd8806a
  4024e4:	push   ebp
  4024e5:	and    al,0xa6
  4024e7:	xchg   ecx,eax
  4024e8:	sti    
  4024e9:	push   esi
  4024ea:	add    BYTE PTR [edi+eax*1],al
  4024ed:	adc    ecx,ecx
  4024ef:	cmp    al,0xd0
  4024f1:	sti    
  4024f2:	cs jb  0x402493
  4024f5:	shl    BYTE PTR [edi-0xb66109b],cl
  4024fb:	loop   0x4024c5
  4024fd:	loope  0x4024e0
  4024ff:	push   ebp
  402500:	sub    DWORD PTR [eax-0x25043153],ebx
  402506:	xchg   edx,eax
  402507:	mov    ebx,0xc55d6c53
  40250c:	mov    ch,0xe9
  40250e:	xor    al,0xf0
  402510:	or     bh,BYTE PTR [esp+eiz*8-0x63]
  402514:	add    BYTE PTR [esi-0x4a],dh
  402517:	xor    DWORD PTR [esi-0x23],ebx
  40251a:	xor    al,0xbd
  40251c:	sub    BYTE PTR [ebx],ch
  40251e:	sub    ebx,DWORD PTR [edi]
  402520:	add    ecx,0xffffff8c
  402523:	and    bh,BYTE PTR ds:0xab15ed5
  402529:	ret    
  40252a:	pop    ebp
  40252b:	add    BYTE PTR [ebp-0x39960da3],bl
  402531:	xchg   ecx,eax
  402532:	dec    ebp
  402533:	fwait
  402534:	les    ecx,FWORD PTR [edx-0x6a]
  402537:	sbb    ebx,ebp
  402539:	mov    edi,0x933fb701
  40253e:	add    DWORD PTR [eax],eax
  402540:	add    BYTE PTR [eax],al
  402542:	add    DWORD PTR [eax],eax
  402544:	add    BYTE PTR [eax],al
  402546:	add    DWORD PTR [eax],eax
  402548:	add    BYTE PTR [eax],al
  40254a:	add    DWORD PTR [eax],eax
  40254c:	add    BYTE PTR [eax],al
  40254e:	add    DWORD PTR [eax],eax
  402550:	add    BYTE PTR [eax],al
  402552:	add    DWORD PTR [eax],eax
  402554:	add    BYTE PTR [esi-0x22],bl
  402557:	add    BYTE PTR [eax],al
  402559:	add    BYTE PTR [ecx],ah
  40255b:	add    eax,0x57f00
  402560:	add    eax,0xf0e7faa3
  402565:	add    al,0x67
  402567:	cwde   
  402568:	scas   al,BYTE PTR es:[edi]
  402569:	inc    ebx
  40256a:	adc    DWORD PTR [ecx+0xf],edi
  40256d:	imul   ebx,esp,0xaa120813
  402573:	in     al,0x36
  402575:	push   0x53
  402577:	movs   BYTE PTR es:[edi],BYTE PTR ds:[esi]
  402578:	fs or  ebx,ecx
  40257b:	shr    DWORD PTR [esi],cl
  40257d:	adc    DWORD PTR ds:0xf16c52e8,esi
  402583:	sti    
  402584:	cmp    eax,0xcfb5be3e
  402589:	shr    bh,0xb5
