
ffd2eae941ccc27b8c99dc20cf5758f1177a3c25a6562135d881cb82385aa5be.exe:     file format pei-i386


Disassembly of section .text:

00401000 <.text>:
	...
  4010a0:	popa   
  4010a1:	ret    
	...
  401192:	add    BYTE PTR [eax],al
  401194:	mov    edi,edi
  401196:	push   ebp
  401197:	mov    ebp,esp
  401199:	sub    esp,0x4c
  40119c:	push   eax
  40119d:	push   edx
  40119e:	push   DWORD PTR [eax+0x380]
  4011a4:	push   DWORD PTR [eax+0x88]
  4011aa:	push   edi
  4011ab:	call   0x401db8
  4011b0:	add    esp,0x10
  4011b3:	pop    eax
  4011b4:	push   eax
  4011b5:	mov    ebx,0x0
  4011ba:	push   ebx
  4011bb:	mov    eax,0x40402c
  4011c0:	call   DWORD PTR [eax]
  4011c2:	pop    eax
  4011c3:	mov    ecx,0x404044
  4011c8:	mov    ecx,DWORD PTR [ecx]
  4011ca:	push   ecx
  4011cb:	push   DWORD PTR [eax+0x1b0]
  4011d1:	pop    ebx
  4011d2:	call   ebx
  4011d4:	sub    esp,0xffffffb4
  4011d7:	mov    ebp,DWORD PTR [esp]
  4011da:	add    esp,0x4
  4011dd:	ret    
	...
  40136e:	add    BYTE PTR [eax],al
  401370:	mov    edi,edi
  401372:	push   ebp
  401373:	mov    ebp,esp
  401375:	sub    esp,0x44
  401378:	push   eax
  401379:	lea    esi,[eax-0x100]
  40137f:	push   esi
  401380:	mov    eax,0x404044
  401385:	call   DWORD PTR [eax]
  401387:	test   eax,eax
  401389:	jne    0x401379
  40138b:	pop    eax
  40138c:	push   eax
  40138d:	push   DWORD PTR [eax+0x1fc]
  401393:	push   DWORD PTR [eax+0x300]
  401399:	push   DWORD PTR [eax+0x398]
  40139f:	push   edx
  4013a0:	call   0x401ec8
  4013a5:	add    esp,0x10
  4013a8:	pop    eax
  4013a9:	push   eax
  4013aa:	mov    edx,0x0
  4013af:	push   edx
  4013b0:	mov    eax,0x404028
  4013b5:	call   DWORD PTR [eax]
  4013b7:	pop    eax
  4013b8:	sub    esp,0xffffffbc
  4013bb:	mov    ebp,DWORD PTR [esp]
  4013be:	add    esp,0x4
  4013c1:	ret    
  4013c2:	add    BYTE PTR [eax],al
  4013c4:	mov    edi,edi
  4013c6:	push   ebp
  4013c7:	mov    ebp,esp
  4013c9:	sub    esp,0x1c
  4013cc:	push   eax
  4013cd:	lea    edi,[eax-0x100]
  4013d3:	push   edi
  4013d4:	mov    eax,0x404044
  4013d9:	call   DWORD PTR [eax]
  4013db:	test   eax,eax
  4013dd:	jne    0x4013cd
  4013df:	pop    eax
  4013e0:	push   eax
  4013e1:	push   DWORD PTR [eax+0x208]
  4013e7:	push   DWORD PTR [eax+0xb0]
  4013ed:	push   ebx
  4013ee:	push   DWORD PTR [eax+0x330]
  4013f4:	call   0x401c48
  4013f9:	add    esp,0x10
  4013fc:	pop    eax
  4013fd:	push   eax
  4013fe:	mov    eax,0x404030
  401403:	call   DWORD PTR [eax]
  401405:	pop    eax
  401406:	sub    esp,0xffffffe4
  401409:	mov    ebp,DWORD PTR [esp]
  40140c:	add    esp,0x4
  40140f:	ret    
	...
  401460:	mov    edi,edi
  401462:	push   ebp
  401463:	mov    ebp,esp
  401465:	sub    esp,0x2c
  401468:	push   eax
  401469:	push   0x0
  40146b:	mov    eax,0x40406c
  401470:	call   DWORD PTR [eax]
  401472:	pop    eax
  401473:	push   eax
  401474:	push   esi
  401475:	push   edi
  401476:	push   DWORD PTR [eax+0x38]
  401479:	push   edx
  40147a:	call   0x4027ac
  40147f:	add    esp,0x10
  401482:	pop    eax
  401483:	push   eax
  401484:	push   0x0
  401486:	mov    eax,0x404000
  40148b:	call   DWORD PTR [eax]
  40148d:	pop    eax
  40148e:	sub    esp,0xffffffd4
  401491:	mov    ebp,DWORD PTR [esp]
  401494:	add    esp,0x4
  401497:	ret    
  401498:	mov    edi,edi
  40149a:	push   ebp
  40149b:	mov    ebp,esp
  40149d:	sub    esp,0x2c
  4014a0:	push   eax
  4014a1:	push   0x0
  4014a3:	mov    eax,0x40406c
  4014a8:	call   DWORD PTR [eax]
  4014aa:	pop    eax
  4014ab:	push   eax
  4014ac:	push   edx
  4014ad:	push   esi
  4014ae:	push   DWORD PTR [eax+0x290]
  4014b4:	push   DWORD PTR [eax+0x31c]
  4014ba:	call   0x402998
  4014bf:	add    esp,0x10
  4014c2:	pop    eax
  4014c3:	push   eax
  4014c4:	push   0x0
  4014c6:	mov    eax,0x404084
  4014cb:	call   DWORD PTR [eax]
  4014cd:	pop    eax
  4014ce:	sub    esp,0xffffffd4
  4014d1:	mov    ebp,DWORD PTR [esp]
  4014d4:	add    esp,0x4
  4014d7:	ret    
  4014d8:	mov    edi,edi
  4014da:	push   ebp
  4014db:	mov    ebp,esp
  4014dd:	sub    esp,0x44
  4014e0:	push   eax
  4014e1:	mov    edx,0x0
  4014e6:	push   edx
  4014e7:	mov    eax,0x40402c
  4014ec:	call   DWORD PTR [eax]
  4014ee:	pop    eax
  4014ef:	push   eax
  4014f0:	push   DWORD PTR [eax+0x114]
  4014f6:	push   DWORD PTR [eax+0x3ac]
  4014fc:	call   0x401814
  401501:	add    esp,0x8
  401504:	pop    eax
  401505:	push   eax
  401506:	push   0x0
  401508:	mov    eax,0x404020
  40150d:	call   DWORD PTR [eax]
  40150f:	pop    eax
  401510:	sub    esp,0xffffffbc
  401513:	mov    ebp,DWORD PTR [esp]
  401516:	add    esp,0x4
  401519:	ret    
	...
  40156a:	add    BYTE PTR [eax],al
  40156c:	mov    edi,edi
  40156e:	push   ebp
  40156f:	mov    ebp,esp
  401571:	sub    esp,0x20
  401574:	push   eax
  401575:	push   DWORD PTR [eax+0x78]
  401578:	push   DWORD PTR [eax+0xec]
  40157e:	push   DWORD PTR [eax+0x1a4]
  401584:	push   ecx
  401585:	call   0x4019d4
  40158a:	add    esp,0x10
  40158d:	pop    eax
  40158e:	push   eax
  40158f:	lea    ecx,[eax-0x100]
  401595:	push   ecx
  401596:	mov    eax,0x404044
  40159b:	call   DWORD PTR [eax]
  40159d:	test   eax,eax
  40159f:	jne    0x40158f
  4015a1:	pop    eax
  4015a2:	push   eax
  4015a3:	mov    eax,0x404030
  4015a8:	call   DWORD PTR [eax]
  4015aa:	pop    eax
  4015ab:	sub    esp,0xffffffe0
  4015ae:	mov    ebp,DWORD PTR [esp]
  4015b1:	add    esp,0x4
  4015b4:	ret    
  4015b5:	add    BYTE PTR [eax],al
  4015b7:	add    BYTE PTR [ebx-0x1374aa01],cl
  4015bd:	sub    esp,0x40
  4015c0:	push   eax
  4015c1:	push   edx
  4015c2:	push   DWORD PTR [eax+0x334]
  4015c8:	push   esi
  4015c9:	push   DWORD PTR [eax+0xc8]
  4015cf:	call   0x402240
  4015d4:	add    esp,0x10
  4015d7:	pop    eax
  4015d8:	push   eax
  4015d9:	mov    edi,0x0
  4015de:	push   edi
  4015df:	mov    eax,0x404064
  4015e4:	call   DWORD PTR [eax]
  4015e6:	pop    eax
  4015e7:	push   eax
  4015e8:	push   0x0
  4015ea:	mov    eax,0x40406c
  4015ef:	call   DWORD PTR [eax]
  4015f1:	pop    eax
  4015f2:	sub    esp,0xffffffc0
  4015f5:	mov    ebp,DWORD PTR [esp]
  4015f8:	add    esp,0x4
  4015fb:	ret    
	...
  40164c:	mov    edi,edi
  40164e:	push   ebp
  40164f:	mov    ebp,esp
  401651:	sub    esp,0x4c
  401654:	push   eax
  401655:	mov    eax,0x40404c
  40165a:	call   DWORD PTR [eax]
  40165c:	pop    eax
  40165d:	push   eax
  40165e:	push   DWORD PTR [eax+0x3ec]
  401664:	push   DWORD PTR [eax+0x358]
  40166a:	call   0x4014d8
  40166f:	add    esp,0x8
  401672:	pop    eax
  401673:	push   eax
  401674:	push   0x0
  401676:	mov    eax,0x40402c
  40167b:	call   DWORD PTR [eax]
  40167d:	pop    eax
  40167e:	sub    esp,0xffffffb4
  401681:	mov    ebp,DWORD PTR [esp]
  401684:	add    esp,0x4
  401687:	ret    
  401688:	mov    edi,edi
  40168a:	push   ebp
  40168b:	mov    ebp,esp
  40168d:	sub    esp,0x3c
  401690:	push   eax
  401691:	push   DWORD PTR [eax+0x258]
  401697:	push   DWORD PTR [eax+0x3d8]
  40169d:	call   0x401ff8
  4016a2:	add    esp,0x8
  4016a5:	pop    eax
  4016a6:	push   eax
  4016a7:	mov    esi,0x0
  4016ac:	push   esi
  4016ad:	mov    eax,0x40400c
  4016b2:	call   DWORD PTR [eax]
  4016b4:	pop    eax
  4016b5:	push   eax
  4016b6:	mov    edi,0x0
  4016bb:	push   edi
  4016bc:	mov    eax,0x40406c
  4016c1:	call   DWORD PTR [eax]
  4016c3:	pop    eax
  4016c4:	sub    esp,0xffffffc4
  4016c7:	mov    ebp,DWORD PTR [esp]
  4016ca:	add    esp,0x4
  4016cd:	ret    
  4016ce:	add    BYTE PTR [eax],al
  4016d0:	mov    edi,edi
  4016d2:	push   ebp
  4016d3:	mov    ebp,esp
  4016d5:	sub    esp,0x24
  4016d8:	push   eax
  4016d9:	mov    edx,0x0
  4016de:	push   edx
  4016df:	mov    eax,0x404000
  4016e4:	call   DWORD PTR [eax]
  4016e6:	pop    eax
  4016e7:	push   eax
  4016e8:	push   ebx
  4016e9:	push   esi
  4016ea:	push   ebx
  4016eb:	call   0x401498
  4016f0:	add    esp,0xc
  4016f3:	pop    eax
  4016f4:	push   eax
  4016f5:	push   0x0
  4016f7:	mov    eax,0x404064
  4016fc:	call   DWORD PTR [eax]
  4016fe:	pop    eax
  4016ff:	sub    esp,0xffffffdc
  401702:	mov    ebp,DWORD PTR [esp]
  401705:	add    esp,0x4
  401708:	ret    
  401709:	add    BYTE PTR [eax],al
  40170b:	add    BYTE PTR [ebx-0x1374aa01],cl
  401711:	sub    esp,0x4c
  401714:	push   eax
  401715:	push   0x0
  401717:	mov    eax,0x40406c
  40171c:	call   DWORD PTR [eax]
  40171e:	pop    eax
  40171f:	push   eax
  401720:	push   DWORD PTR [eax+0x158]
  401726:	push   edx
  401727:	push   DWORD PTR [eax+0x368]
  40172d:	call   0x4024d8
  401732:	add    esp,0xc
  401735:	pop    eax
  401736:	push   eax
  401737:	mov    eax,0x404030
  40173c:	call   DWORD PTR [eax]
  40173e:	pop    eax
  40173f:	sub    esp,0xffffffb4
  401742:	mov    ebp,DWORD PTR [esp]
  401745:	add    esp,0x4
  401748:	ret    
  401749:	add    BYTE PTR [eax],al
  40174b:	add    BYTE PTR [ebx-0x1374aa01],cl
  401751:	sub    esp,0x38
  401754:	push   eax
  401755:	mov    ebx,0x0
  40175a:	push   ebx
  40175b:	mov    eax,0x404028
  401760:	call   DWORD PTR [eax]
  401762:	pop    eax
  401763:	push   eax
  401764:	push   ecx
  401765:	push   esi
  401766:	push   edi
  401767:	call   0x4026e4
  40176c:	add    esp,0xc
  40176f:	pop    eax
  401770:	push   eax
  401771:	mov    eax,0x40404c
  401776:	call   DWORD PTR [eax]
  401778:	pop    eax
  401779:	sub    esp,0xffffffc8
  40177c:	mov    ebp,DWORD PTR [esp]
  40177f:	add    esp,0x4
  401782:	ret    
	...
  4017d3:	add    BYTE PTR [ebx-0x1374aa01],cl
  4017d9:	sub    esp,0x3c
  4017dc:	push   eax
  4017dd:	mov    edx,0x0
  4017e2:	push   edx
  4017e3:	mov    eax,0x404008
  4017e8:	call   DWORD PTR [eax]
  4017ea:	pop    eax
  4017eb:	push   eax
  4017ec:	push   esi
  4017ed:	push   edx
  4017ee:	push   esi
  4017ef:	call   0x40156c
  4017f4:	add    esp,0xc
  4017f7:	pop    eax
  4017f8:	push   eax
  4017f9:	mov    esi,0x0
  4017fe:	push   esi
  4017ff:	mov    eax,0x40400c
  401804:	call   DWORD PTR [eax]
  401806:	pop    eax
  401807:	sub    esp,0xffffffc4
  40180a:	mov    ebp,DWORD PTR [esp]
  40180d:	add    esp,0x4
  401810:	ret    
  401811:	add    BYTE PTR [eax],al
  401813:	add    BYTE PTR [ebx-0x1374aa01],cl
  401819:	sub    esp,0x28
  40181c:	push   eax
  40181d:	push   DWORD PTR [eax+0x1cc]
  401823:	push   DWORD PTR [eax+0x3e4]
  401829:	call   0x401ce4
  40182e:	add    esp,0x8
  401831:	pop    eax
  401832:	push   eax
  401833:	mov    ebx,0x0
  401838:	push   ebx
  401839:	mov    eax,0x40400c
  40183e:	call   DWORD PTR [eax]
  401840:	pop    eax
  401841:	push   eax
  401842:	mov    ebx,0x0
  401847:	push   ebx
  401848:	mov    eax,0x404008
  40184d:	call   DWORD PTR [eax]
  40184f:	pop    eax
  401850:	sub    esp,0xffffffd8
  401853:	mov    ebp,DWORD PTR [esp]
  401856:	add    esp,0x4
  401859:	ret    
  40185a:	add    BYTE PTR [eax],al
  40185c:	pusha  
  40185d:	xor    edx,edx
  40185f:	push   edx
  401860:	call   DWORD PTR ds:0x40406c
  401866:	mov    eax,0x404098
  40186b:	sub    eax,0x1
  40186e:	push   0x0
  401870:	call   DWORD PTR [eax+0x1]
  401873:	xor    edx,edx
  401875:	add    edx,0x458200
  40187b:	dec    dh
  40187d:	push   edx
  40187e:	lea    ecx,[edx+0xc]
  401881:	add    BYTE PTR [ecx],0x4
  401884:	push   edx
  401885:	call   DWORD PTR ds:0x404048
  40188b:	mov    ecx,eax
  40188d:	mov    cl,0x3c
  40188f:	mov    ecx,DWORD PTR [ecx]
  401891:	mov    ecx,DWORD PTR [eax+ecx*1+0x1c]
  401895:	ror    ecx,0xc
  401898:	mov    eax,ecx
  40189a:	cmp    al,0x10
  40189c:	pop    eax
  40189d:	jb     0x4010a0
  4018a3:	ja     0x401194
  4018a9:	ret    
	...
  4018fa:	add    BYTE PTR [eax],al
  4018fc:	mov    edi,edi
  4018fe:	push   ebp
  4018ff:	mov    ebp,esp
  401901:	sub    esp,0x20
  401904:	push   eax
  401905:	push   0x0
  401907:	mov    eax,0x404008
  40190c:	call   DWORD PTR [eax]
  40190e:	pop    eax
  40190f:	push   eax
  401910:	push   DWORD PTR [eax+0x2e0]
  401916:	push   ecx
  401917:	push   DWORD PTR [eax+0x184]
  40191d:	push   ebx
  40191e:	call   0x401a60
  401923:	add    esp,0x10
  401926:	pop    eax
  401927:	push   eax
  401928:	lea    edx,[eax-0x100]
  40192e:	push   edx
  40192f:	mov    eax,0x404044
  401934:	call   DWORD PTR [eax]
  401936:	test   eax,eax
  401938:	jne    0x401928
  40193a:	pop    eax
  40193b:	sub    esp,0xffffffe0
  40193e:	mov    ebp,DWORD PTR [esp]
  401941:	add    esp,0x4
  401944:	ret    
	...
  401995:	add    BYTE PTR [eax],al
  401997:	add    BYTE PTR [ebx-0x1374aa01],cl
  40199d:	sub    esp,0x28
  4019a0:	push   eax
  4019a1:	push   0x0
  4019a3:	mov    eax,0x40402c
  4019a8:	call   DWORD PTR [eax]
  4019aa:	pop    eax
  4019ab:	push   eax
  4019ac:	push   ecx
  4019ad:	push   DWORD PTR [eax+0x29c]
  4019b3:	call   0x4017d4
  4019b8:	add    esp,0x8
  4019bb:	pop    eax
  4019bc:	push   eax
  4019bd:	push   0x0
  4019bf:	mov    eax,0x404010
  4019c4:	call   DWORD PTR [eax]
  4019c6:	pop    eax
  4019c7:	sub    esp,0xffffffd8
  4019ca:	mov    ebp,DWORD PTR [esp]
  4019cd:	add    esp,0x4
  4019d0:	ret    
  4019d1:	add    BYTE PTR [eax],al
  4019d3:	add    BYTE PTR [ebx-0x1374aa01],cl
  4019d9:	sub    esp,0x30
  4019dc:	push   eax
  4019dd:	push   DWORD PTR [eax+0xe0]
  4019e3:	push   DWORD PTR [eax+0x2ac]
  4019e9:	call   0x4020c8
  4019ee:	add    esp,0x8
  4019f1:	pop    eax
  4019f2:	push   eax
  4019f3:	push   0x0
  4019f5:	mov    eax,0x404024
  4019fa:	call   DWORD PTR [eax]
  4019fc:	pop    eax
  4019fd:	push   eax
  4019fe:	mov    eax,0x404004
  401a03:	call   DWORD PTR [eax]
  401a05:	pop    eax
  401a06:	sub    esp,0xffffffd0
  401a09:	mov    ebp,DWORD PTR [esp]
  401a0c:	add    esp,0x4
  401a0f:	ret    
	...
  401a60:	mov    edi,edi
  401a62:	push   ebp
  401a63:	mov    ebp,esp
  401a65:	sub    esp,0x40
  401a68:	push   eax
  401a69:	push   DWORD PTR [eax+0x44]
  401a6c:	push   edx
  401a6d:	push   ecx
  401a6e:	push   esi
  401a6f:	call   0x402284
  401a74:	add    esp,0x10
  401a77:	pop    eax
  401a78:	push   eax
  401a79:	push   0x0
  401a7b:	mov    eax,0x404084
  401a80:	call   DWORD PTR [eax]
  401a82:	pop    eax
  401a83:	push   eax
  401a84:	push   0x0
  401a86:	mov    eax,0x404010
  401a8b:	call   DWORD PTR [eax]
  401a8d:	pop    eax
  401a8e:	sub    esp,0xffffffc0
  401a91:	mov    ebp,DWORD PTR [esp]
  401a94:	add    esp,0x4
  401a97:	ret    
	...
  401ae8:	mov    edi,edi
  401aea:	push   ebp
  401aeb:	mov    ebp,esp
  401aed:	sub    esp,0x40
  401af0:	push   eax
  401af1:	push   DWORD PTR [eax+0x15c]
  401af7:	push   edx
  401af8:	call   0x402080
  401afd:	add    esp,0x8
  401b00:	pop    eax
  401b01:	push   eax
  401b02:	mov    eax,0x404030
  401b07:	call   DWORD PTR [eax]
  401b09:	pop    eax
  401b0a:	push   eax
  401b0b:	push   0x0
  401b0d:	mov    eax,0x40406c
  401b12:	call   DWORD PTR [eax]
  401b14:	pop    eax
  401b15:	sub    esp,0xffffffc0
  401b18:	mov    ebp,DWORD PTR [esp]
  401b1b:	add    esp,0x4
  401b1e:	ret    
  401b1f:	add    BYTE PTR [ebx-0x1374aa01],cl
  401b25:	sub    esp,0x60
  401b28:	push   eax
  401b29:	push   0x0
  401b2b:	mov    eax,0x404024
  401b30:	call   DWORD PTR [eax]
  401b32:	pop    eax
  401b33:	push   eax
  401b34:	push   esi
  401b35:	push   DWORD PTR [eax+0x1dc]
  401b3b:	call   0x4018fc
  401b40:	add    esp,0x8
  401b43:	pop    eax
  401b44:	push   eax
  401b45:	mov    ebx,0x0
  401b4a:	push   ebx
  401b4b:	mov    eax,0x40402c
  401b50:	call   DWORD PTR [eax]
  401b52:	pop    eax
  401b53:	sub    esp,0xffffffa0
  401b56:	mov    ebp,DWORD PTR [esp]
  401b59:	add    esp,0x4
  401b5c:	ret    
  401b5d:	add    BYTE PTR [eax],al
  401b5f:	add    BYTE PTR [ebx-0x1374aa01],cl
  401b65:	sub    esp,0x4c
  401b68:	push   eax
  401b69:	mov    ecx,0x0
  401b6e:	push   ecx
  401b6f:	mov    eax,0x404028
  401b74:	call   DWORD PTR [eax]
  401b76:	pop    eax
  401b77:	push   eax
  401b78:	push   DWORD PTR [eax+0x3a4]
  401b7e:	push   DWORD PTR [eax+0x194]
  401b84:	push   DWORD PTR [eax+0x2a0]
  401b8a:	call   0x4021b0
  401b8f:	add    esp,0xc
  401b92:	pop    eax
  401b93:	push   eax
  401b94:	lea    eax,[eax-0x100]
  401b9a:	push   eax
  401b9b:	mov    eax,0x404044
  401ba0:	call   DWORD PTR [eax]
  401ba2:	test   eax,eax
  401ba4:	jne    0x401b94
  401ba6:	pop    eax
  401ba7:	sub    esp,0xffffffb4
  401baa:	mov    ebp,DWORD PTR [esp]
  401bad:	add    esp,0x4
  401bb0:	ret    
  401bb1:	add    BYTE PTR [eax],al
  401bb3:	add    BYTE PTR [ebx-0x1374aa01],cl
  401bb9:	sub    esp,0x40
  401bbc:	push   eax
  401bbd:	push   DWORD PTR [eax+0x1a0]
  401bc3:	push   esi
  401bc4:	push   DWORD PTR [eax+0x2c0]
  401bca:	push   DWORD PTR [eax+0x34c]
  401bd0:	call   0x401b60
  401bd5:	add    esp,0x10
  401bd8:	pop    eax
  401bd9:	push   eax
  401bda:	mov    eax,0x404004
  401bdf:	call   DWORD PTR [eax]
  401be1:	pop    eax
  401be2:	push   eax
  401be3:	mov    eax,0x404030
  401be8:	call   DWORD PTR [eax]
  401bea:	pop    eax
  401beb:	sub    esp,0xffffffc0
  401bee:	mov    ebp,DWORD PTR [esp]
  401bf1:	add    esp,0x4
  401bf4:	ret    
	...
  401c45:	add    BYTE PTR [eax],al
  401c47:	add    BYTE PTR [ebx-0x1374aa01],cl
  401c4d:	sub    esp,0x34
  401c50:	push   eax
  401c51:	mov    ecx,0x0
  401c56:	push   ecx
  401c57:	mov    eax,0x40402c
  401c5c:	call   DWORD PTR [eax]
  401c5e:	pop    eax
  401c5f:	push   eax
  401c60:	push   DWORD PTR [eax+0x264]
  401c66:	push   DWORD PTR [eax+0x3c8]
  401c6c:	push   edi
  401c6d:	push   DWORD PTR [eax+0x1c4]
  401c73:	call   0x4016d0
  401c78:	add    esp,0x10
  401c7b:	pop    eax
  401c7c:	push   eax
  401c7d:	push   0x0
  401c7f:	mov    eax,0x404084
  401c84:	call   DWORD PTR [eax]
  401c86:	pop    eax
  401c87:	sub    esp,0xffffffcc
  401c8a:	mov    ebp,DWORD PTR [esp]
  401c8d:	add    esp,0x4
  401c90:	ret    
	...
  401ce1:	add    BYTE PTR [eax],al
  401ce3:	add    BYTE PTR [ebx-0x1374aa01],cl
  401ce9:	sub    esp,0x28
  401cec:	push   eax
  401ced:	push   0x0
  401cef:	mov    eax,0x40406c
  401cf4:	call   DWORD PTR [eax]
  401cf6:	pop    eax
  401cf7:	push   eax
  401cf8:	push   DWORD PTR [eax+0x104]
  401cfe:	push   ecx
  401cff:	push   DWORD PTR [eax+0x25c]
  401d05:	call   0x401998
  401d0a:	add    esp,0xc
  401d0d:	pop    eax
  401d0e:	push   eax
  401d0f:	mov    ebx,0x0
  401d14:	push   ebx
  401d15:	mov    eax,0x40406c
  401d1a:	call   DWORD PTR [eax]
  401d1c:	pop    eax
  401d1d:	sub    esp,0xffffffd8
  401d20:	mov    ebp,DWORD PTR [esp]
  401d23:	add    esp,0x4
  401d26:	ret    
	...
  401d77:	add    BYTE PTR [ebx-0x1374aa01],cl
  401d7d:	sub    esp,0x50
  401d80:	push   eax
  401d81:	push   edx
  401d82:	push   DWORD PTR [eax+0x3d4]
  401d88:	call   0x40211c
  401d8d:	add    esp,0x8
  401d90:	pop    eax
  401d91:	push   eax
  401d92:	push   0x0
  401d94:	mov    eax,0x404008
  401d99:	call   DWORD PTR [eax]
  401d9b:	pop    eax
  401d9c:	push   eax
  401d9d:	mov    edi,0x0
  401da2:	push   edi
  401da3:	mov    eax,0x404084
  401da8:	call   DWORD PTR [eax]
  401daa:	pop    eax
  401dab:	sub    esp,0xffffffb0
  401dae:	mov    ebp,DWORD PTR [esp]
  401db1:	add    esp,0x4
  401db4:	ret    
  401db5:	add    BYTE PTR [eax],al
  401db7:	add    BYTE PTR [ebx-0x1374aa01],cl
  401dbd:	sub    esp,0x60
  401dc0:	push   eax
  401dc1:	mov    ecx,0x0
  401dc6:	push   ecx
  401dc7:	mov    eax,0x404000
  401dcc:	call   DWORD PTR [eax]
  401dce:	pop    eax
  401dcf:	push   eax
  401dd0:	push   ebx
  401dd1:	push   edi
  401dd2:	call   0x402570
  401dd7:	add    esp,0x8
  401dda:	pop    eax
  401ddb:	push   eax
  401ddc:	mov    eax,0x404030
  401de1:	call   DWORD PTR [eax]
  401de3:	pop    eax
  401de4:	sub    esp,0xffffffa0
  401de7:	mov    ebp,DWORD PTR [esp]
  401dea:	add    esp,0x4
  401ded:	ret    
	...
  401e8e:	add    BYTE PTR [eax],al
  401e90:	mov    edi,edi
  401e92:	push   ebp
  401e93:	mov    ebp,esp
  401e95:	sub    esp,0x58
  401e98:	push   eax
  401e99:	mov    eax,0x404004
  401e9e:	call   DWORD PTR [eax]
  401ea0:	pop    eax
  401ea1:	push   eax
  401ea2:	push   edx
  401ea3:	push   edi
  401ea4:	call   0x4013c4
  401ea9:	add    esp,0x8
  401eac:	pop    eax
  401ead:	push   eax
  401eae:	mov    ebx,0x0
  401eb3:	push   ebx
  401eb4:	mov    eax,0x40406c
  401eb9:	call   DWORD PTR [eax]
  401ebb:	pop    eax
  401ebc:	sub    esp,0xffffffa8
  401ebf:	mov    ebp,DWORD PTR [esp]
  401ec2:	add    esp,0x4
  401ec5:	ret    
  401ec6:	add    BYTE PTR [eax],al
  401ec8:	mov    edi,edi
  401eca:	push   ebp
  401ecb:	mov    ebp,esp
  401ecd:	sub    esp,0x30
  401ed0:	push   eax
  401ed1:	push   0x0
  401ed3:	mov    eax,0x40400c
  401ed8:	call   DWORD PTR [eax]
  401eda:	pop    eax
  401edb:	push   eax
  401edc:	push   edi
  401edd:	push   DWORD PTR [eax+0x134]
  401ee3:	call   0x402444
  401ee8:	add    esp,0x8
  401eeb:	pop    eax
  401eec:	push   eax
  401eed:	lea    esi,[eax-0x100]
  401ef3:	push   esi
  401ef4:	mov    eax,0x404044
  401ef9:	call   DWORD PTR [eax]
  401efb:	test   eax,eax
  401efd:	jne    0x401eed
  401eff:	pop    eax
  401f00:	sub    esp,0xffffffd0
  401f03:	mov    ebp,DWORD PTR [esp]
  401f06:	add    esp,0x4
  401f09:	ret    
	...
  401f5a:	add    BYTE PTR [eax],al
  401f5c:	mov    edi,edi
  401f5e:	push   ebp
  401f5f:	mov    ebp,esp
  401f61:	sub    esp,0x5c
  401f64:	push   eax
  401f65:	mov    edi,0x6b4
  401f6a:	push   edi
  401f6b:	push   0x6b4
  401f70:	mov    edi,0x40001
  401f75:	push   edi
  401f76:	push   0x0
  401f78:	xor    DWORD PTR [esp],0x89e6ba59
  401f7f:	pop    edx
  401f80:	sub    edx,0x89a67a45
  401f86:	push   DWORD PTR [edx]
  401f88:	sub    DWORD PTR [esp],0x2
  401f8c:	mov    edx,0x404048
  401f91:	pop    DWORD PTR [edx]
  401f93:	mov    eax,0x404048
  401f98:	call   DWORD PTR [eax]
  401f9a:	xchg   DWORD PTR [esp],eax
  401f9d:	pop    DWORD PTR [eax+0x1b0]
  401fa3:	mov    ebx,DWORD PTR [eax+0x1b0]
  401fa9:	lea    ecx,[ebx]
  401fab:	sub    edx,edx
  401fad:	dec    edx
  401fae:	and    edx,0x402a0e
  401fb4:	mov    esi,0x7a89d45a
  401fb9:	xor    edi,edi
  401fbb:	cmp    edi,0x6b4
  401fc1:	je     0x401fe5
  401fc3:	sub    edi,0xfffffffc
  401fc6:	mov    ebx,esi
  401fc8:	xor    ebx,DWORD PTR [edx]
  401fca:	push   ebx
  401fcb:	sub    ebx,ebx
  401fcd:	sub    DWORD PTR [esp],0x1
  401fd1:	pop    DWORD PTR [ecx+ebx*2]
  401fd4:	push   0x0
  401fd6:	sub    DWORD PTR [esp],esi
  401fd9:	mov    esi,0xfffffffc
  401fde:	sub    edx,esi
  401fe0:	sub    ecx,esi
  401fe2:	pop    esi
  401fe3:	jmp    0x401fbb
  401fe5:	push   eax
  401fe6:	push   0x0
  401fe8:	mov    eax,0x404084
  401fed:	call   DWORD PTR [eax]
  401fef:	pop    eax
  401ff0:	sub    esp,0xffffffa4
  401ff3:	pop    ebp
  401ff4:	ret    
  401ff5:	add    BYTE PTR [eax],al
  401ff7:	add    BYTE PTR [ebx-0x1374aa01],cl
  401ffd:	sub    esp,0x60
  402000:	push   eax
  402001:	mov    eax,0x404004
  402006:	call   DWORD PTR [eax]
  402008:	pop    eax
  402009:	push   eax
  40200a:	push   esi
  40200b:	push   ebx
  40200c:	push   edi
  40200d:	push   DWORD PTR [eax+0x1b0]
  402013:	call   0x401bb4
  402018:	add    esp,0x10
  40201b:	pop    eax
  40201c:	push   eax
  40201d:	lea    esi,[eax-0x100]
  402023:	push   esi
  402024:	mov    eax,0x404044
  402029:	call   DWORD PTR [eax]
  40202b:	test   eax,eax
  40202d:	jne    0x40201d
  40202f:	pop    eax
  402030:	sub    esp,0xffffffa0
  402033:	mov    ebp,DWORD PTR [esp]
  402036:	add    esp,0x4
  402039:	ret    
  40203a:	add    BYTE PTR [eax],al
  40203c:	mov    edi,edi
  40203e:	push   ebp
  40203f:	mov    ebp,esp
  402041:	sub    esp,0x24
  402044:	push   eax
  402045:	lea    edx,[eax-0x100]
  40204b:	push   edx
  40204c:	mov    eax,0x404044
  402051:	call   DWORD PTR [eax]
  402053:	test   eax,eax
  402055:	jne    0x402045
  402057:	pop    eax
  402058:	push   eax
  402059:	push   edx
  40205a:	push   edx
  40205b:	push   edi
  40205c:	call   0x401d78
  402061:	add    esp,0xc
  402064:	pop    eax
  402065:	push   eax
  402066:	mov    esi,0x0
  40206b:	push   esi
  40206c:	mov    eax,0x40400c
  402071:	call   DWORD PTR [eax]
  402073:	pop    eax
  402074:	sub    esp,0xffffffdc
  402077:	mov    ebp,DWORD PTR [esp]
  40207a:	add    esp,0x4
  40207d:	ret    
  40207e:	add    BYTE PTR [eax],al
  402080:	mov    edi,edi
  402082:	push   ebp
  402083:	mov    ebp,esp
  402085:	sub    esp,0x50
  402088:	push   eax
  402089:	push   edi
  40208a:	push   DWORD PTR [eax+0x178]
  402090:	push   edx
  402091:	push   esi
  402092:	call   0x40174c
  402097:	add    esp,0x10
  40209a:	pop    eax
  40209b:	push   eax
  40209c:	lea    edx,[eax-0x100]
  4020a2:	push   edx
  4020a3:	mov    eax,0x404044
  4020a8:	call   DWORD PTR [eax]
  4020aa:	test   eax,eax
  4020ac:	jne    0x40209c
  4020ae:	pop    eax
  4020af:	push   eax
  4020b0:	mov    edx,0x0
  4020b5:	push   edx
  4020b6:	mov    eax,0x404028
  4020bb:	call   DWORD PTR [eax]
  4020bd:	pop    eax
  4020be:	sub    esp,0xffffffb0
  4020c1:	mov    ebp,DWORD PTR [esp]
  4020c4:	add    esp,0x4
  4020c7:	ret    
  4020c8:	mov    edi,edi
  4020ca:	push   ebp
  4020cb:	mov    ebp,esp
  4020cd:	sub    esp,0x44
  4020d0:	push   eax
  4020d1:	push   DWORD PTR [eax+0x328]
  4020d7:	push   ebx
  4020d8:	push   DWORD PTR [eax+0x88]
  4020de:	push   DWORD PTR [eax+0x228]
  4020e4:	call   0x401f5c
  4020e9:	add    esp,0x10
  4020ec:	pop    eax
  4020ed:	push   eax
  4020ee:	mov    edi,0x0
  4020f3:	push   edi
  4020f4:	mov    eax,0x404064
  4020f9:	call   DWORD PTR [eax]
  4020fb:	pop    eax
  4020fc:	push   eax
  4020fd:	lea    ecx,[eax-0x100]
  402103:	push   ecx
  402104:	mov    eax,0x404044
  402109:	call   DWORD PTR [eax]
  40210b:	test   eax,eax
  40210d:	jne    0x4020fd
  40210f:	pop    eax
  402110:	sub    esp,0xffffffbc
  402113:	mov    ebp,DWORD PTR [esp]
  402116:	add    esp,0x4
  402119:	ret    
  40211a:	add    BYTE PTR [eax],al
  40211c:	mov    edi,edi
  40211e:	push   ebp
  40211f:	mov    ebp,esp
  402121:	sub    esp,0x54
  402124:	push   eax
  402125:	push   ebx
  402126:	push   DWORD PTR [eax+0x10c]
  40212c:	push   DWORD PTR [eax+0x140]
  402132:	call   0x401e90
  402137:	add    esp,0xc
  40213a:	pop    eax
  40213b:	push   eax
  40213c:	mov    eax,0x404030
  402141:	call   DWORD PTR [eax]
  402143:	pop    eax
  402144:	push   eax
  402145:	mov    ecx,0x0
  40214a:	push   ecx
  40214b:	mov    eax,0x40402c
  402150:	call   DWORD PTR [eax]
  402152:	pop    eax
  402153:	sub    esp,0xffffffac
  402156:	mov    ebp,DWORD PTR [esp]
  402159:	add    esp,0x4
  40215c:	ret    
	...
  4021ad:	add    BYTE PTR [eax],al
  4021af:	add    BYTE PTR [ebx-0x1374aa01],cl
  4021b5:	sub    esp,0x38
  4021b8:	push   eax
  4021b9:	push   DWORD PTR [eax+0x110]
  4021bf:	push   edi
  4021c0:	call   0x402960
  4021c5:	add    esp,0x8
  4021c8:	pop    eax
  4021c9:	push   eax
  4021ca:	mov    ecx,0x0
  4021cf:	push   ecx
  4021d0:	mov    eax,0x40402c
  4021d5:	call   DWORD PTR [eax]
  4021d7:	pop    eax
  4021d8:	push   eax
  4021d9:	push   0x0
  4021db:	mov    eax,0x40406c
  4021e0:	call   DWORD PTR [eax]
  4021e2:	pop    eax
  4021e3:	sub    esp,0xffffffc8
  4021e6:	mov    ebp,DWORD PTR [esp]
  4021e9:	add    esp,0x4
  4021ec:	ret    
	...
  40223d:	add    BYTE PTR [eax],al
  40223f:	add    BYTE PTR [ebx-0x1374aa01],cl
  402245:	sub    esp,0x48
  402248:	push   eax
  402249:	push   DWORD PTR [eax+0x384]
  40224f:	push   ecx
  402250:	push   ebx
  402251:	push   DWORD PTR [eax+0x68]
  402254:	call   0x401460
  402259:	add    esp,0x10
  40225c:	pop    eax
  40225d:	push   eax
  40225e:	mov    ebx,0x0
  402263:	push   ebx
  402264:	mov    eax,0x40406c
  402269:	call   DWORD PTR [eax]
  40226b:	pop    eax
  40226c:	push   eax
  40226d:	push   0x0
  40226f:	mov    eax,0x404000
  402274:	call   DWORD PTR [eax]
  402276:	pop    eax
  402277:	sub    esp,0xffffffb8
  40227a:	mov    ebp,DWORD PTR [esp]
  40227d:	add    esp,0x4
  402280:	ret    
  402281:	add    BYTE PTR [eax],al
  402283:	add    BYTE PTR [ebx-0x1374aa01],cl
  402289:	sub    esp,0x38
  40228c:	push   eax
  40228d:	push   ebx
  40228e:	push   ebx
  40228f:	push   DWORD PTR [eax+0x174]
  402295:	call   0x40203c
  40229a:	add    esp,0xc
  40229d:	pop    eax
  40229e:	push   eax
  40229f:	mov    ebx,0x0
  4022a4:	push   ebx
  4022a5:	mov    eax,0x404084
  4022aa:	call   DWORD PTR [eax]
  4022ac:	pop    eax
  4022ad:	push   eax
  4022ae:	push   0x0
  4022b0:	mov    eax,0x404008
  4022b5:	call   DWORD PTR [eax]
  4022b7:	pop    eax
  4022b8:	sub    esp,0xffffffc8
  4022bb:	mov    ebp,DWORD PTR [esp]
  4022be:	add    esp,0x4
  4022c1:	ret    
  4022c2:	add    BYTE PTR [eax],al
  4022c4:	mov    edi,edi
  4022c6:	push   ebp
  4022c7:	mov    ebp,esp
  4022c9:	sub    esp,0x4c
  4022cc:	push   eax
  4022cd:	push   DWORD PTR [eax+0x34]
  4022d0:	push   ecx
  4022d1:	push   edi
  4022d2:	push   ecx
  4022d3:	call   0x4015b8
  4022d8:	add    esp,0x10
  4022db:	pop    eax
  4022dc:	push   eax
  4022dd:	mov    ebx,0x0
  4022e2:	push   ebx
  4022e3:	mov    eax,0x404020
  4022e8:	call   DWORD PTR [eax]
  4022ea:	pop    eax
  4022eb:	push   eax
  4022ec:	mov    ecx,0x0
  4022f1:	push   ecx
  4022f2:	mov    eax,0x404024
  4022f7:	call   DWORD PTR [eax]
  4022f9:	pop    eax
  4022fa:	sub    esp,0xffffffb4
  4022fd:	mov    ebp,DWORD PTR [esp]
  402300:	add    esp,0x4
  402303:	ret    
	...
  402444:	mov    edi,edi
  402446:	push   ebp
  402447:	mov    ebp,esp
  402449:	sub    esp,0x50
  40244c:	push   eax
  40244d:	push   DWORD PTR [eax+0x320]
  402453:	push   DWORD PTR [eax+0x290]
  402459:	call   0x401b20
  40245e:	add    esp,0x8
  402461:	pop    eax
  402462:	push   eax
  402463:	mov    edi,0x0
  402468:	push   edi
  402469:	mov    eax,0x404024
  40246e:	call   DWORD PTR [eax]
  402470:	pop    eax
  402471:	push   eax
  402472:	push   0x0
  402474:	mov    eax,0x404020
  402479:	call   DWORD PTR [eax]
  40247b:	pop    eax
  40247c:	sub    esp,0xffffffb0
  40247f:	mov    ebp,DWORD PTR [esp]
  402482:	add    esp,0x4
  402485:	ret    
	...
  4024d6:	add    BYTE PTR [eax],al
  4024d8:	mov    edi,edi
  4024da:	push   ebp
  4024db:	mov    ebp,esp
  4024dd:	sub    esp,0x38
  4024e0:	push   eax
  4024e1:	mov    eax,0x404004
  4024e6:	call   DWORD PTR [eax]
  4024e8:	pop    eax
  4024e9:	push   eax
  4024ea:	push   DWORD PTR [eax+0x2f0]
  4024f0:	push   DWORD PTR [eax+0x33c]
  4024f6:	push   DWORD PTR [eax+0x194]
  4024fc:	push   DWORD PTR [eax+0x29c]
  402502:	call   0x402604
  402507:	add    esp,0x10
  40250a:	pop    eax
  40250b:	push   eax
  40250c:	push   0x0
  40250e:	mov    eax,0x404024
  402513:	call   DWORD PTR [eax]
  402515:	pop    eax
  402516:	sub    esp,0xffffffc8
  402519:	mov    ebp,DWORD PTR [esp]
  40251c:	add    esp,0x4
  40251f:	ret    
	...
  402570:	mov    edi,edi
  402572:	push   ebp
  402573:	mov    ebp,esp
  402575:	sub    esp,0x60
  402578:	push   eax
  402579:	push   ecx
  40257a:	push   esi
  40257b:	call   0x401370
  402580:	add    esp,0x8
  402583:	pop    eax
  402584:	push   eax
  402585:	mov    edi,0x0
  40258a:	push   edi
  40258b:	mov    eax,0x40402c
  402590:	call   DWORD PTR [eax]
  402592:	pop    eax
  402593:	push   eax
  402594:	lea    edx,[eax-0x100]
  40259a:	push   edx
  40259b:	mov    eax,0x404044
  4025a0:	call   DWORD PTR [eax]
  4025a2:	test   eax,eax
  4025a4:	jne    0x402594
  4025a6:	pop    eax
  4025a7:	sub    esp,0xffffffa0
  4025aa:	mov    ebp,DWORD PTR [esp]
  4025ad:	add    esp,0x4
  4025b0:	ret    
	...
  402601:	add    BYTE PTR [eax],al
  402603:	add    BYTE PTR [ebx-0x1374aa01],cl
  402609:	sub    esp,0x5c
  40260c:	push   eax
  40260d:	push   DWORD PTR [eax+0x238]
  402613:	push   DWORD PTR [eax+0x3d0]
  402619:	call   0x402884
  40261e:	add    esp,0x8
  402621:	pop    eax
  402622:	push   eax
  402623:	mov    eax,0x40404c
  402628:	call   DWORD PTR [eax]
  40262a:	pop    eax
  40262b:	push   eax
  40262c:	mov    esi,0x0
  402631:	push   esi
  402632:	mov    eax,0x40406c
  402637:	call   DWORD PTR [eax]
  402639:	pop    eax
  40263a:	sub    esp,0xffffffa4
  40263d:	mov    ebp,DWORD PTR [esp]
  402640:	add    esp,0x4
  402643:	ret    
	...
  4026e4:	mov    edi,edi
  4026e6:	push   ebp
  4026e7:	mov    ebp,esp
  4026e9:	sub    esp,0x5c
  4026ec:	push   eax
  4026ed:	push   edi
  4026ee:	push   DWORD PTR [eax+0x200]
  4026f4:	call   0x40170c
  4026f9:	add    esp,0x8
  4026fc:	pop    eax
  4026fd:	push   eax
  4026fe:	push   0x0
  402700:	mov    eax,0x40402c
  402705:	call   DWORD PTR [eax]
  402707:	pop    eax
  402708:	push   eax
  402709:	mov    eax,0x404030
  40270e:	call   DWORD PTR [eax]
  402710:	pop    eax
  402711:	sub    esp,0xffffffa4
  402714:	mov    ebp,DWORD PTR [esp]
  402717:	add    esp,0x4
  40271a:	ret    
	...
  40276b:	add    BYTE PTR [ebx-0x1374aa01],cl
  402771:	sub    esp,0x30
  402774:	push   eax
  402775:	mov    eax,0x0
  40277a:	push   eax
  40277b:	mov    eax,0x404020
  402780:	call   DWORD PTR [eax]
  402782:	pop    eax
  402783:	push   eax
  402784:	push   DWORD PTR [eax+0x314]
  40278a:	push   DWORD PTR [eax+0x3f0]
  402790:	call   0x4022c4
  402795:	add    esp,0x8
  402798:	pop    eax
  402799:	push   eax
  40279a:	mov    eax,0x40404c
  40279f:	call   DWORD PTR [eax]
  4027a1:	pop    eax
  4027a2:	sub    esp,0xffffffd0
  4027a5:	mov    ebp,DWORD PTR [esp]
  4027a8:	add    esp,0x4
  4027ab:	ret    
  4027ac:	mov    edi,edi
  4027ae:	push   ebp
  4027af:	mov    ebp,esp
  4027b1:	sub    esp,0x50
  4027b4:	push   eax
  4027b5:	push   edi
  4027b6:	push   DWORD PTR [eax+0xac]
  4027bc:	call   0x401688
  4027c1:	add    esp,0x8
  4027c4:	pop    eax
  4027c5:	push   eax
  4027c6:	mov    eax,0x40404c
  4027cb:	call   DWORD PTR [eax]
  4027cd:	pop    eax
  4027ce:	push   eax
  4027cf:	push   0x0
  4027d1:	mov    eax,0x404064
  4027d6:	call   DWORD PTR [eax]
  4027d8:	pop    eax
  4027d9:	sub    esp,0xffffffb0
  4027dc:	mov    ebp,DWORD PTR [esp]
  4027df:	add    esp,0x4
  4027e2:	ret    
	...
  402883:	add    BYTE PTR [ebx-0x1374aa01],cl
  402889:	sub    esp,0x44
  40288c:	push   eax
  40288d:	push   0x0
  40288f:	mov    eax,0x404000
  402894:	call   DWORD PTR [eax]
  402896:	pop    eax
  402897:	push   eax
  402898:	push   edx
  402899:	push   DWORD PTR [eax+0x6c]
  40289c:	push   edx
  40289d:	call   0x40164c
  4028a2:	add    esp,0xc
  4028a5:	pop    eax
  4028a6:	push   eax
  4028a7:	mov    ebx,0x0
  4028ac:	push   ebx
  4028ad:	mov    eax,0x40402c
  4028b2:	call   DWORD PTR [eax]
  4028b4:	pop    eax
  4028b5:	sub    esp,0xffffffbc
  4028b8:	mov    ebp,DWORD PTR [esp]
  4028bb:	add    esp,0x4
  4028be:	ret    
	...
  40295f:	add    BYTE PTR [ebx-0x1374aa01],cl
  402965:	sub    esp,0x44
  402968:	push   eax
  402969:	mov    eax,0x40404c
  40296e:	call   DWORD PTR [eax]
  402970:	pop    eax
  402971:	push   eax
  402972:	push   DWORD PTR [eax+0xdc]
  402978:	push   ecx
  402979:	push   esi
  40297a:	call   0x401ae8
  40297f:	add    esp,0xc
  402982:	pop    eax
  402983:	push   eax
  402984:	push   0x0
  402986:	mov    eax,0x404028
  40298b:	call   DWORD PTR [eax]
  40298d:	pop    eax
  40298e:	sub    esp,0xffffffbc
  402991:	mov    ebp,DWORD PTR [esp]
  402994:	add    esp,0x4
  402997:	ret    
  402998:	mov    edi,edi
  40299a:	push   ebp
  40299b:	mov    ebp,esp
  40299d:	sub    esp,0x54
  4029a0:	push   eax
  4029a1:	push   0x0
  4029a3:	mov    eax,0x404008
  4029a8:	call   DWORD PTR [eax]
  4029aa:	pop    eax
  4029ab:	push   eax
  4029ac:	push   DWORD PTR [eax+0x118]
  4029b2:	push   DWORD PTR [eax+0x388]
  4029b8:	push   edx
  4029b9:	push   DWORD PTR [eax+0x7c]
  4029bc:	call   0x40276c
  4029c1:	add    esp,0x10
  4029c4:	pop    eax
  4029c5:	push   eax
  4029c6:	push   0x0
  4029c8:	mov    eax,0x404008
  4029cd:	call   DWORD PTR [eax]
  4029cf:	pop    eax
  4029d0:	sub    esp,0xffffffac
  4029d3:	mov    ebp,DWORD PTR [esp]
  4029d6:	add    esp,0x4
  4029d9:	ret    
  4029da:	add    BYTE PTR [eax],al
  4029dc:	call   0xf3eb:0xcc26629d
  4029e3:	inc    ebx
  4029e4:	mul    esp
  4029e6:	jp     0x40299e
  4029e8:	jb     0x402a49
  4029ea:	ins    DWORD PTR es:[edi],dx
  4029eb:	cmps   BYTE PTR ds:[esi],BYTE PTR es:[edi]
  4029ec:	mov    BYTE PTR [ecx-0x4d],bh
  4029ef:	add    DWORD PTR [esi],ebp
  4029f1:	(bad)  
  4029f2:	fcomp  st(6)
  4029f4:	dec    esp
  4029f5:	add    BYTE PTR [esi],0xd5
  4029f8:	push   0x7e
  4029fa:	cmps   DWORD PTR ds:[esi],DWORD PTR es:[edi]
  4029fb:	adc    eax,0x8f712626
  402a00:	adc    edx,ecx
  402a02:	mov    fs,WORD PTR [ecx+0x5c]
  402a05:	or     bh,cl
  402a07:	xchg   ebx,eax
  402a08:	std    
  402a09:	sti    
  402a0a:	call   0xd98c:0xbb3c55a
  402a11:	and    cl,BYTE PTR [edi+0x2d]
  402a14:	jbe    0x40299b
  402a16:	pop    ebx
  402a17:	aad    0xfe
  402a19:	and    esi,ecx
  402a1b:	cmps   BYTE PTR ds:[esi],BYTE PTR es:[edi]
  402a1c:	xor    ebx,esp
  402a1e:	jbe    0x402a3d
  402a20:	or     bh,BYTE PTR [ebx+0x67287ea2]
  402a26:	movs   BYTE PTR es:[edi],BYTE PTR ds:[esi]
  402a27:	push   edi
  402a28:	dec    ebp
  402a29:	mov    cs,WORD PTR [edi+0x26]
  402a2c:	jbe    0x4029b3
  402a2e:	pop    ebx
  402a2f:	push   esp
  402a30:	mov    bl,0x6b
  402a32:	dec    esp
  402a33:	dec    esi
  402a34:	sbb    dh,BYTE PTR [esi+0x16edfa69]
  402a3a:	retf   
  402a3b:	sub    ebp,DWORD PTR [esi]
  402a3d:	aad    0xd8
  402a3f:	aam    0x42
  402a41:	push   eax
  402a42:	les    ebp,FWORD PTR [esi+0xcd65389]
  402a48:	mov    bh,BYTE PTR [ecx]
  402a4a:	fwait
  402a4b:	stos   BYTE PTR es:[edi],al
  402a4c:	push   cs
  402a4d:	aad    0x5b
  402a4f:	push   esp
  402a50:	lea    edi,[edx-0x2f]
  402a53:	add    BYTE PTR [esi-0x762ba389],bl
  402a59:	daa    
  402a5a:	sub    bl,dh
  402a5c:	iret   
  402a5d:	xchg   ebp,eax
  402a5e:	pop    ebx
  402a5f:	aam    0x89
  402a61:	xlat   BYTE PTR ds:[ebx]
  402a62:	dec    edi
  402a63:	fnstenv [ebp+eax*4+0x5b]
  402a67:	pop    ebp
  402a68:	iret   
  402a69:	xchg   BYTE PTR [ebp-0x22],al
  402a6c:	sbb    al,0xe6
  402a6e:	xor    edx,DWORD PTR [ebp+0x43d616e5]
  402a74:	ds loopne 0x402aaf
  402a77:	movs   BYTE PTR es:[edi],BYTE PTR ds:[esi]
  402a78:	(bad)  [ecx]
  402a7a:	cmps   BYTE PTR ds:[esi],BYTE PTR es:[edi]
  402a7b:	jge    0x402afb
  402a7d:	or     al,0x5d
  402a7f:	mov    esi,0x59e11289
  402a84:	adc    esp,eax
  402a86:	xor    ebx,DWORD PTR [esp+ebp*8+0x257fd71b]
  402a8d:	jp     0x402a9b
  402a8f:	fadd   QWORD PTR [eax]
  402a91:	cmp    al,0xa3
  402a93:	test   al,0xb2
  402a95:	popf   
  402a96:	xor    DWORD PTR [ecx+eiz*8+0x762bb77a],edx
  402a9d:	in     eax,dx
  402a9e:	call   edx
  402aa0:	mov    DWORD PTR [edx-0x33],edi
  402aa3:	sub    ecx,DWORD PTR [ecx+0x715f4bd0]
  402aa9:	jg     0x402ab1
  402aab:	sub    esi,DWORD PTR [esi-0x7b]
  402aae:	or     ebx,DWORD PTR [ecx+0x3c]
  402ab1:	stos   BYTE PTR es:[edi],al
  402ab2:	pop    esp
  402ab3:	aam    0x89
  402ab5:	cmp    al,0xff
  402ab7:	ror    BYTE PTR [ecx-0x4a70ad86],cl
  402abd:	ins    DWORD PTR es:[edi],dx
  402abe:	rcl    cl,1
  402ac0:	mov    DWORD PTR [edx-0x8],edi
  402ac3:	jne    0x402ab6
  402ac5:	mov    cl,0x7f
  402ac7:	and    BYTE PTR [ecx-0x7d],0xa3
  402acb:	sub    esi,DWORD PTR [esi+0x6d]
  402ace:	(bad)  
  402ad0:	mov    DWORD PTR [edx+0x2a],edi
  402ad3:	rcr    DWORD PTR [eax*4+0xf76d431],cl
  402ada:	ret    
  402adb:	jl     0x402a66
  402add:	shl    BYTE PTR [ebx+0x5f],1
  402ae0:	les    edx,FWORD PTR [edx]
  402ae2:	int    0x2b
  402ae4:	and    bl,ch
  402ae6:	pop    edx
  402ae7:	loope  0x402a96
  402ae9:	sub    dh,ah
  402aeb:	jge    0x402b0e
  402aed:	jp     0x402afb
  402aef:	clc    
  402af0:	shr    DWORD PTR ds:0x6d6e7da6,1
  402af6:	jo     0x402acf
  402af8:	mov    DWORD PTR [edx+0x2a],edi
  402afb:	ins    DWORD PTR es:[edi],dx
  402afc:	dec    edx
  402afd:	or     BYTE PTR [edi-0x2e],bl
  402b00:	out    dx,eax
  402b01:	(bad)  
  402b02:	out    0x3d,eax
  402b04:	jbe    0x402aab
  402b06:	sub    al,0xc2
  402b08:	mov    al,0x22
  402b0a:	xchg   ebx,eax
  402b0b:	pop    edi
  402b0c:	addr16 push cs
  402b0e:	add    esp,eax
  402b10:	jecxz  0x402b90
  402b12:	iret   
  402b13:	sub    eax,DWORD PTR [esi-0x7b]
  402b16:	pop    ebx
  402b17:	sub    edi,ecx
  402b19:	sub    dh,dl
  402b1b:	aam    0x23
  402b1d:	xchg   ebp,eax
  402b1e:	(bad)  
  402b1f:	test   eax,0x41f32ae5
  402b24:	jb     0x402af8
  402b26:	push   cs
  402b27:	sub    ebx,esp
  402b29:	jbe    0x402b1e
  402b2b:	inc    ecx
  402b2c:	je     0x402b00
  402b2e:	push   cs
  402b2f:	add    BYTE PTR [edx],0xb5
  402b32:	sub    dl,al
  402b34:	test   DWORD PTR [ecx],esp
  402b36:	add    eax,0xff76dc2b
  402b3b:	mov    al,ds:0xe81086b8
  402b40:	add    al,0x3
  402b42:	mov    edi,0x4aa521a0
  402b47:	arpl   ax,cx
  402b49:	outs   dx,BYTE PTR ds:[esi]
  402b4a:	mov    ds:0x103279d3,al
  402b4f:	shr    cl,cl
  402b51:	icebp  
  402b52:	out    dx,al
  402b53:	aas    
  402b54:	repz inc ebp
  402b56:	das    
  402b57:	xchg   ebp,eax
  402b58:	add    bh,BYTE PTR ds:0xf1b6aeaf
  402b5e:	popa   
  402b5f:	cmp    al,0x18
  402b61:	jle    0x402b0a
  402b63:	sub    edi,ebp
  402b65:	dec    ebp
  402b66:	(bad)  
  402b67:	xchg   ebx,eax
  402b68:	lods   eax,DWORD PTR ds:[esi]
  402b69:	xchg   edx,eax
  402b6a:	shr    BYTE PTR [ecx],1
  402b6c:	jbe    0x402af3
  402b6e:	pop    esi
  402b6f:	mov    ds:0x3bde859d,eax
  402b74:	std    
  402b75:	cli    
  402b76:	push   edi
  402b77:	xlat   BYTE PTR ds:[ebx]
  402b78:	jb     0x402b9b
  402b7a:	mul    DWORD PTR [eax-0x7af4285e]
  402b80:	fisubr WORD PTR [ebx]
  402b82:	cmc    
  402b83:	inc    ecx
  402b84:	jb     0x402b5a
  402b86:	add    ch,BYTE PTR [ebx]
  402b88:	fdiv   QWORD PTR [esi-0x4]
  402b8b:	sbb    BYTE PTR [esi-0x2981512e],dh
  402b91:	icebp  
  402b92:	push   0xffffffd8
  402b94:	sar    BYTE PTR [edx+0xc],cl
  402b97:	fcom   st(1)
  402b99:	sbb    esp,DWORD PTR [edx]
  402b9b:	in     al,dx
  402b9c:	pop    esi
  402b9d:	addr16 call 0xa7bbaddf
  402ba3:	sub    ebx,DWORD PTR [esi-0x762ba4fc]
  402ba9:	and    cl,bh
  402bab:	sub    esi,DWORD PTR [esi]
  402bad:	test   DWORD PTR [ebx+0x2b],ebx
  402bb0:	cld    
  402bb1:	adc    dh,cl
  402bb3:	mov    al,ds:0x3cab0e8d
  402bb8:	cmp    DWORD PTR [esi-0x59],0x2b
  402bbc:	adc    bh,BYTE PTR [edx+0x6c]
  402bbf:	in     al,0x89
  402bc1:	jp     0x402b6a
  402bc3:	jae    0x402bc2
  402bc5:	lds    edx,FWORD PTR [edi+0x5f]
  402bc8:	leave  
  402bc9:	jbe    0x402b67
  402bcb:	jae    0x402c3b
  402bcd:	icebp  
  402bce:	pop    edi
  402bcf:	pop    edi
  402bd0:	mov    DWORD PTR [ecx-0x5e855fa2],edx
  402bd6:	pop    esi
  402bd7:	popf   
  402bd8:	mov    ch,0xf1
  402bda:	aam    0x3
  402bdc:	jne    0x402c50
  402bde:	shr    BYTE PTR [ecx+edx*4+0x1037d7f3],1
  402be5:	jb     0x402bff
  402be7:	ret    0x5a89
  402bea:	shl    BYTE PTR [edi],1
  402bec:	adc    ah,BYTE PTR [ebx+eax*2]
  402bef:	aam    0x89
  402bf1:	jp     0x402c1d
  402bf3:	imul   eax,DWORD PTR [esi+0xc],0x23
  402bf7:	fdiv   QWORD PTR [esi+0x2f]
  402bfa:	mov    bl,0xc3
  402bfc:	add    BYTE PTR [edi-0x4c2b2ba5],al
  402c02:	jmp    DWORD PTR [edx-0x4ab85efe]
  402c08:	fst    DWORD PTR [edx-0x7a89d068]
  402c0e:	add    edx,DWORD PTR [ebp-0xf]
  402c11:	and    ah,BYTE PTR [edi+0x2c857629]
  402c17:	fild   DWORD PTR [edx]
  402c19:	jle    0x402b9e
  402c1b:	in     al,dx
  402c1c:	jb     0x402bbf
  402c1e:	pop    ebx
  402c1f:	aam    0x89
  402c21:	jp     0x402bc9
  402c23:	pop    esi
  402c24:	push   edx
  402c25:	or     DWORD PTR [ebx],0xc7b949e7
  402c2b:	mov    al,ds:0xe82d8685
  402c30:	add    cl,ah
  402c32:	daa    
  402c33:	sub    esi,DWORD PTR [esi-0x7b]
  402c36:	fsub   QWORD PTR [edx]
  402c38:	std    
  402c39:	or     DWORD PTR [edx+0x57fbfdd8],esp
  402c3f:	push   ecx
  402c40:	jbe    0x402c50
  402c42:	int    0x28
  402c44:	(bad)  
  402c45:	rcr    BYTE PTR [edx-0x7e],cl
  402c48:	(bad)  
  402c49:	jmp    DWORD PTR [edi+0x5e]
  402c4c:	jb     0x402c20
  402c4e:	pop    edx
  402c4f:	or     BYTE PTR [ecx+0xa0f12a],0x95
  402c56:	pop    esi
  402c57:	daa    
  402c58:	add    al,BYTE PTR [eax+ecx*1-0x590f4952]
  402c5f:	(bad)  
  402c60:	jle    0x402c53
  402c62:	imul   esi,DWORD PTR [ebp+0x27],0x8dbe0fd5
  402c69:	sub    edi,esi
  402c6b:	aam    0x23
  402c6d:	mov    DWORD PTR ds:0x67ff8f5f,ecx
  402c73:	mov    ebx,0xc41d0ee6
  402c78:	add    al,0x4e
  402c7a:	mov    ds:0x9b00db7c,al
  402c7f:	mov    al,ds:0x2ba7d392
  402c84:	jbe    0x402c8b
  402c86:	sub    al,0xd0
  402c88:	add    al,0x3e
  402c8a:	mov    ds:0x5a7a5329,al
  402c8f:	aam    0x9
  402c91:	sub    ah,BYTE PTR [esi+0x5a91525e]
  402c97:	add    BYTE PTR [ecx+0x29cb4ad1],0xdb
  402c9e:	add    ecx,DWORD PTR [ebp+0x7cf42add]
  402ca4:	mov    eax,edx
  402ca6:	push   edi
  402ca7:	mov    WORD PTR [edx],cs
  402ca9:	mov    esp,0xe4f9c0b3
  402cae:	sahf   
  402caf:	mov    ah,0x2
  402cb1:	test   eax,0xf375d92a
  402cb6:	addr16 (bad) 
  402cb8:	fisttp WORD PTR [esi+0x20]
  402cbb:	stc    
  402cbc:	jns    0x402cbf
  402cbe:	int3   
  402cbf:	aam    0x89
  402cc1:	jp     0x402ced
  402cc3:	movs   DWORD PTR es:[edi],DWORD PTR ds:[esi]
  402cc4:	rol    BYTE PTR [ebp-0x33fd2ba5],cl
  402cca:	pop    es
  402ccb:	sub    esi,DWORD PTR [esi-0x7b]
  402cce:	fsub   QWORD PTR [edx]
  402cd0:	xchg   dh,bh
  402cd2:	and    al,0x2b
  402cd4:	jbe    0x402c5b
  402cd6:	pop    esi
  402cd7:	daa    
  402cd8:	and    al,0xf1
  402cda:	pop    edi
  402cdb:	sub    BYTE PTR [ebp-0x26ef292b],cl
  402ce1:	sub    esi,ebp
  402ce3:	jnp    0x402d01
  402ce5:	xor    DWORD PTR [ebx],0xa77a99d4
  402ceb:	jl     0x402ce2
  402ced:	ins    DWORD PTR es:[edi],dx
  402cee:	pop    edi
  402cef:	test   bl,ah
  402cf1:	jle    0x402cc2
  402cf3:	sub    esp,DWORD PTR [esi-0x7b]
  402cf6:	pop    ebx
  402cf7:	or     DWORD PTR [eax],0x7e
  402cfa:	sub    DWORD PTR [ebx],0x66
  402cfd:	test   DWORD PTR [ebx+0x2b],ebx
  402d00:	fdiv   QWORD PTR [esi-0x5a]
  402d03:	jge    0x402d7f
  402d05:	fild   WORD PTR [eax]
  402d07:	jns    0x402cab
  402d09:	mov    dl,0xf4
  402d0b:	mov    al,ds:0x57b054be
  402d10:	pusha  
  402d11:	jle    0x402ca5
  402d13:	jmp    0x402d25
  402d15:	sub    BYTE PTR ds:0xd34a897d,bh
  402d1b:	and    edx,DWORD PTR [ebx+0x7a]
  402d1e:	dec    edx
  402d1f:	aam    0x89
  402d21:	jnp    0x402cd6
  402d23:	sub    al,0x94
  402d25:	imul   eax,DWORD PTR [eax],0x59
  402d28:	int    0x5e
  402d2a:	mov    ds:0x5ad5247a,eax
  402d2f:	in     eax,0xe1
  402d31:	jp     0x402cea
  402d33:	sub    esi,DWORD PTR [esi-0x2e]
  402d36:	fidivr WORD PTR [ecx*4+0x1e1aa62a]
  402d3d:	test   DWORD PTR [ebx-0x2c],ecx
  402d40:	mov    DWORD PTR ds:0x85522f24,ebp
  402d46:	dec    ebx
  402d47:	aam    0x89
  402d49:	test   eax,esi
  402d4b:	daa    
  402d4c:	mov    eax,edx
  402d4e:	push   edi
  402d4f:	mov    ss,eax
  402d51:	and    bh,bh
  402d53:	scas   al,BYTE PTR es:[edi]
  402d54:	mov    edi,0x4ab5d8f0
  402d59:	sbb    cl,BYTE PTR [edx+0x2c]
  402d5c:	(bad)  [edi-0x5c]
  402d5f:	pop    ecx
  402d60:	mov    ebp,0x9ea06279
  402d65:	push   cs
  402d66:	scas   al,BYTE PTR es:[edi]
  402d67:	ins    DWORD PTR es:[edi],dx
  402d68:	cdq    
  402d69:	jp     0x402d12
  402d6b:	sub    ebx,DWORD PTR [esi-0x762ba592]
  402d71:	rol    BYTE PTR [esi-0x4c7a89d5],0x35
  402d78:	jbe    0x402cff
  402d7a:	cmps   BYTE PTR ds:[esi],BYTE PTR es:[edi]
  402d7b:	jl     0x402d4c
  402d7d:	sbb    BYTE PTR [ebx-0x2c],0x89
  402d81:	xchg   edx,eax
  402d82:	jno    0x402d58
  402d84:	mov    DWORD PTR [edx-0x2a],edi
  402d87:	add    al,0x2
  402d89:	dec    esi
  402d8a:	adc    DWORD PTR [edx-0x2ba47a81],0x61
  402d91:	mov    ebp,0x9762ba6
  402d96:	movs   DWORD PTR es:[edi],DWORD PTR ds:[esi]
  402d97:	pop    edi
  402d98:	inc    ebx
  402d99:	xchg   edx,eax
  402d9a:	sbb    esp,edx
  402d9c:	mov    DWORD PTR [edx+0x6e],edi
  402d9f:	adc    al,0xd9
  402da1:	mov    ebx,0x81b72c6f
  402da6:	jg     0x402d81
  402da8:	mov    BYTE PTR [esi-0x7d],bh
  402dab:	xchg   edx,esi
  402dad:	inc    ebp
  402dae:	sub    al,0x25
  402db0:	shl    ecx,1
  402db2:	pop    esi
  402db3:	adc    BYTE PTR [ebx-0x361a10f],dh
  402db9:	cmps   DWORD PTR ds:[esi],DWORD PTR es:[edi]
  402dba:	sub    bl,BYTE PTR [edi]
  402dbc:	push   edx
  402dbd:	cmp    al,0x51
  402dbf:	aam    0x89
  402dc1:	jp     0x402e12
  402dc3:	mov    esi,0xc45a7a89
  402dc8:	ds jbe 0x402dbc
  402dcb:	jne    0x402df4
  402dcd:	cmp    al,0x53
  402dcf:	aam    0x89
  402dd1:	jp     0x402e22
  402dd3:	scas   al,BYTE PTR es:[edi]
  402dd4:	mov    DWORD PTR [edx+0x5a],edi
  402dd7:	mov    fs,WORD PTR [ecx+0x5]
  402dda:	cmps   BYTE PTR ds:[esi],BYTE PTR es:[edi]
  402ddb:	sub    esi,DWORD PTR [esi+0xf]
  402dde:	das    
  402ddf:	lock xchg ebp,eax
  402de1:	sbb    esp,DWORD PTR [edx+0x7a]
  402de4:	mov    bh,0x6d
  402de6:	inc    esp
  402de7:	ins    DWORD PTR es:[edi],dx
  402de8:	test   eax,0x3e2ba77a
  402ded:	icebp  
  402dee:	imul   ebp,DWORD PTR [ebp-0x75],0x7a
  402df2:	cmps   DWORD PTR ds:[esi],DWORD PTR es:[edi]
  402df3:	sub    edi,DWORD PTR [esi]
  402df5:	icebp  
  402df6:	jae    0x402e65
  402df8:	test   eax,0x3e2ba77a
  402dfd:	icebp  
  402dfe:	jnp    0x402e6d
  402e00:	lea    edi,[edx-0x59]
  402e03:	sub    edi,DWORD PTR [esi]
  402e05:	icebp  
  402e06:	inc    ebx
  402e07:	ins    DWORD PTR es:[edi],dx
  402e08:	leave  
  402e09:	jp     0x402db2
  402e0b:	sub    edi,DWORD PTR [esi]
  402e0d:	icebp  
  402e0e:	dec    ebx
  402e0f:	ins    DWORD PTR es:[edi],dx
  402e10:	lea    edi,[edx-0x59]
  402e13:	sub    edi,DWORD PTR [esi]
  402e15:	icebp  
  402e16:	push   ebx
  402e17:	ins    DWORD PTR es:[edi],dx
  402e18:	leave  
  402e19:	jp     0x402dc2
  402e1b:	sub    edi,DWORD PTR [esi]
  402e1d:	icebp  
  402e1e:	pop    ebx
  402e1f:	pop    edi
  402e20:	dec    eax
  402e21:	and    esp,DWORD PTR [edx+0x4b]
  402e24:	std    
  402e25:	shr    BYTE PTR [ebx],1
  402e27:	push   ebp
  402e28:	jnp    0x402e15
  402e2a:	dec    ebp
  402e2b:	outs   dx,BYTE PTR ds:[esi]
  402e2c:	push   cs
  402e2d:	push   cs
  402e2e:	adc    al,0xbc
  402e30:	add    al,BYTE PTR [edx+eiz*1+0x2f852e56]
  402e37:	xlat   BYTE PTR ds:[ebx]
  402e38:	mov    BYTE PTR [edi],cl
  402e3a:	jmp    DWORD PTR [eax+0x14dce533]
  402e40:	std    
  402e41:	outs   dx,DWORD PTR ds:[esi]
  402e42:	sub    al,0x6d
  402e44:	dec    edx
  402e45:	xlat   BYTE PTR ds:[ebx]
  402e46:	loope  0x402e18
  402e48:	mov    DWORD PTR [edx-0x59],edi
  402e4b:	ret    
  402e4c:	rol    DWORD PTR [ebx+ebx*2+0x5779d3d4],cl
  402e53:	sub    BYTE PTR [esi-0x3106c52],cl
  402e59:	and    dl,al
  402e5b:	es jne 0x402e4e
  402e5e:	pop    es
  402e5f:	xlat   BYTE PTR ds:[ebx]
  402e60:	hlt    
  402e61:	mov    ah,BYTE PTR es:[esi+0x2a]
  402e65:	add    BYTE PTR [eax-0x8287d60],dl
  402e6b:	add    BYTE PTR [edi+ebx*8+0x796057f6],dh
  402e72:	inc    ebp
  402e73:	enter  0x4617,0x3b
  402e77:	push   edi
  402e78:	hlt    
  402e79:	cmps   DWORD PTR ss:[esi],DWORD PTR es:[edi]
  402e7b:	pop    edi
  402e7c:	fs ins DWORD PTR es:[edi],dx
  402e7e:	dec    edx
  402e7f:	aam    0x89
  402e81:	jp     0x402ead
  402e83:	push   esi
  402e84:	and    al,BYTE PTR [eax]
  402e86:	pop    edx
  402e87:	mov    eax,ds:0x884fd18f
  402e8c:	jbe    0x402e13
  402e8e:	pop    ebx
  402e8f:	mov    ch,0x4a
  402e91:	sbb    ah,BYTE PTR [esi-0x7cf1b583]
  402e97:	pop    edi
  402e98:	cld    
  402e99:	sub    ch,BYTE PTR ss:[esi+0x26]
  402e9d:	aad    0xb
  402e9f:	mov    esp,0x2bab7a89
  402ea4:	and    eax,0xd0940c7a
  402ea9:	sub    ch,BYTE PTR [edx]
  402eab:	rol    DWORD PTR [ebp-0x76134cdf],cl
  402eb1:	jp     0x402e5a
  402eb3:	arpl   di,di
  402eb5:	sar    DWORD PTR [edi-0xc],0x2
  402eb9:	sub    BYTE PTR [eax],0x27
  402ebc:	retf   
  402ebd:	sbb    DWORD PTR [ebx-0x2c],0x33041e89
  402ec4:	jbe    0x402e4b
  402ec6:	pop    ebx
  402ec7:	pop    edi
  402ec8:	stc    
  402ec9:	push   esi
  402eca:	hlt    
  402ecb:	inc    ebx
  402ecc:	jbe    0x402e53
  402ece:	push   edi
  402ecf:	aam    0xda
  402ed1:	test   eax,esi
  402ed3:	imul   edi,ebx,0xffffff89
  402ed6:	jecxz  0x402f33
  402ed8:	mov    BYTE PTR [edx],ch
  402eda:	sub    ah,ah
  402edc:	std    
  402edd:	jge    0x402e8d
  402edf:	jno    0x402ece
  402ee1:	fstp   TBYTE PTR [edi-0x357a89d5]
  402ee7:	xchg   esp,eax
  402ee8:	movs   DWORD PTR es:[edi],DWORD PTR ds:[esi]
  402ee9:	sbb    esp,DWORD PTR [edx+0x4b]
  402eec:	imul   DWORD PTR [ecx+0x7b]
  402eef:	(bad)  
  402ef0:	mov    DWORD PTR [edx-0x31],edi
  402ef3:	pcmpeqb mm0,QWORD PTR [ebp+0x107fe75b]
  402efa:	cmps   DWORD PTR ds:[esi],DWORD PTR es:[edi]
  402efb:	inc    ecx
  402efc:	jle    0x402f78
  402efe:	or     al,0xc8
  402f00:	add    ah,BYTE PTR [edx-0x2f76870d]
  402f06:	outs   dx,DWORD PTR ds:[esi]
  402f07:	pop    edi
  402f08:	int    0x5e
  402f0a:	mov    ebx,0xd6b93628
  402f0f:	push   esp
  402f10:	dec    ecx
  402f11:	jp     0x402eba
  402f13:	sub    esi,ebx
  402f15:	inc    ebp
  402f16:	das    
  402f17:	aad    0xcf
  402f19:	cs repnz aam 0x23
  402f1d:	mov    ebp,0x9ffc14dc
  402f22:	repnz aam 0x23
  402f25:	popf   
  402f26:	fcom   DWORD PTR [eax]
  402f28:	lods   eax,DWORD PTR ds:[esi]
  402f29:	js     0x402ed2
  402f2b:	sub    edi,edi
  402f2d:	icebp  
  402f2e:	jg     0x402ef8
  402f30:	call   0x1a83f6ee
  402f35:	jmp    0x9220395
  402f3a:	rol    DWORD PTR ds:0xa734ed12,cl
  402f40:	call   FWORD PTR [ecx]
  402f42:	repz aam 0x23
  402f45:	sbb    esp,0xf372fc14
  402f4b:	aam    0x23
  402f4d:	test   esp,ebx
  402f4f:	adc    al,0xfd
  402f51:	aaa    
  402f52:	int    0x2b
  402f54:	push   ds
  402f55:	in     al,dx
  402f56:	xor    eax,0xc112efa0
  402f5b:	pop    esp
  402f5c:	push   es
  402f5d:	test   DWORD PTR [edi],0xaf2f7684
  402f63:	test   al,0xb2
  402f65:	mov    esi,edx
  402f67:	and    al,0xd9
  402f69:	cs int 0x6b
  402f6c:	sbb    al,0x82
  402f6e:	or     eax,0xff76dc2b
  402f73:	jnp    0x402f97
  402f75:	aad    0x31
  402f77:	rcr    edi,cl
  402f79:	xchg   edx,eax
  402f7a:	sub    DWORD PTR [ebx],0xe8d68576
  402f80:	lods   eax,DWORD PTR ds:[esi]
  402f81:	sti    
  402f82:	outs   dx,BYTE PTR ds:[esi]
  402f83:	cmp    DWORD PTR [esi-0x7b],esi
  402f86:	pop    ebx
  402f87:	mov    esi,0x8f52238e
  402f8c:	xor    DWORD PTR [esi],ecx
  402f8e:	popf   
  402f8f:	jg     0x402f95
  402f91:	add    al,0x5c
  402f93:	fwait
  402f94:	push   ds
  402f95:	das    
  402f96:	add    edi,DWORD PTR [edi+0x39]
  402f99:	mov    ecx,0x8923d40d
  402f9e:	add    edx,DWORD PTR [edi+0x4d]
  402fa1:	jbe    0x402f67
  402fa3:	call   0x81cba9d6
  402fa8:	popa   
  402fa9:	in     al,0xa7
  402fab:	sub    esi,DWORD PTR [esi-0x28]
  402fae:	aam    0x91
  402fb0:	stc    
  402fb1:	stc    
  402fb2:	addr16 das 
  402fb4:	inc    ecx
  402fb6:	jg     0x402f7c
  402fb8:	aam    0x7a
  402fba:	cmps   DWORD PTR ds:[esi],DWORD PTR es:[edi]
  402fbb:	sub    esi,DWORD PTR [esi-0x7b]
  402fbe:	pop    ebx
  402fbf:	aam    0xe1
  402fc1:	jp     0x402f6a
  402fc3:	sub    esi,DWORD PTR [esi+0x46]
  402fc6:	cmp    eax,0x1d1c7fe7
  402fcb:	data16 sub al,0xe3
  402fce:	hlt    
  402fcf:	mov    dl,0xba
  402fd1:	stos   BYTE PTR es:[edi],al
  402fd2:	shl    DWORD PTR [ebx],cl
  402fd4:	imul   DWORD PTR [ebx+0x59]
  402fd7:	les    ecx,FWORD PTR [ecx-0x439b586]
  402fdd:	(bad)  [ebp+0x540f7650]
  402fe3:	mov    al,ds:0x6e3dbf00
  402fe8:	fnstcw WORD PTR [edi]
  402fea:	sub    BYTE PTR [edi],bl
  402fec:	push   0xbab2f4e3
  402ff1:	stos   BYTE PTR es:[edi],al
  402ff2:	ror    bl,1
  402ff4:	mov    ch,0xd4
  402ff6:	outs   dx,BYTE PTR ds:[esi]
  402ff7:	sbb    eax,0x536551c8
  402ffc:	jb     0x402fef
  402ffe:	pop    ecx
  402fff:	aas    
  403000:	jle    0x40304b
  403002:	sub    BYTE PTR [si-0x5899],dh
  403007:	lea    ecx,[edx-0xf]
  40300a:	fadd   DWORD PTR [ebx+0x1c]
  40300d:	xor    DWORD PTR [ebx],0xa77a99d4
  403013:	jl     0x403031
  403015:	test   DWORD PTR [edx-0x7e],ebx
  403018:	cdq    
  403019:	icebp  
  40301a:	push   edi
  40301b:	stos   BYTE PTR es:[edi],al
  40301c:	call   0x5bf1:0x89d45881
  403023:	inc    ebx
  403024:	jb     0x402faa
  403026:	pop    ebx
  403027:	aam    0xde
  403029:	sub    DWORD PTR [esi+0x5bef567d],esp
  40302f:	mov    esp,0x2ba77a09
  403034:	sbb    al,0x86
  403036:	xor    esp,edx
  403038:	jecxz  0x4030b5
  40303a:	iret   
  40303b:	sub    esi,DWORD PTR [esi-0x7b]
  40303e:	fild   DWORD PTR [ebx-0x557cd08a]
  403044:	mov    dl,0x81
  403046:	pop    eax
  403047:	aam    0x89
  403049:	mov    ecx,0x55897337
  40304e:	cmps   BYTE PTR ds:[esi],BYTE PTR es:[edi]
  40304f:	add    BYTE PTR [ebx],ch
  403051:	sbb    ebp,DWORD PTR ds:0x14c87217
  403057:	ins    BYTE PTR es:[edi],dx
  403058:	es mov dh,0x78
  40305b:	adc    bh,ch
  40305d:	add    edi,DWORD PTR [ebx+0x58]
  403060:	rcr    DWORD PTR [eax],0x44
  403063:	pop    ecx
  403064:	scas   eax,DWORD PTR es:[edi]
  403065:	sahf   
  403066:	mov    ebx,0x3a165768
  40306b:	test   edx,ebp
  40306d:	push   ecx
  40306e:	fwait
  40306f:	test   eax,0xdb467fe6
  403075:	xchg   edx,eax
  403076:	movs   DWORD PTR es:[edi],DWORD PTR ds:[esi]
  403077:	sbb    eax,0x47e1ff23
  40307c:	in     al,dx
  40307d:	lods   al,BYTE PTR ds:[esi]
  40307e:	push   ebx
  40307f:	push   edi
  403080:	sbb    ch,0x1c
  403083:	int    0x60
  403085:	test   BYTE PTR [ebx],bl
  403087:	enter  0xf188,0x1a
  40308b:	arpl   WORD PTR [edx+eax*2+0x5cd56bd4],dx
  403092:	movs   DWORD PTR es:[edi],DWORD PTR ds:[esi]
  403093:	mov    eax,0xd45b3249
  403098:	mov    DWORD PTR [edx-0x59],edi
  40309b:	sub    esi,DWORD PTR [esi-0x7b]
  40309e:	pop    ebx
  40309f:	aam    0x89
  4030a1:	jp     0x40304a
  4030a3:	sub    esi,DWORD PTR [esi-0x7b]
  4030a6:	pop    ebx
  4030a7:	aam    0x89
  4030a9:	jp     0x403052
  4030ab:	sub    esi,DWORD PTR [esi-0x7b]
  4030ae:	pop    ebx
  4030af:	aam    0x89
  4030b1:	jp     0x40308a
  4030b3:	movs   DWORD PTR es:[edi],DWORD PTR ds:[esi]
  4030b4:	ja     0x40303b
  4030b6:	pop    ebx
  4030b7:	push   es
  4030b8:	lea    edi,[edx-0x59]
  4030bb:	das    
  4030bc:	jbe    0x403043
  4030be:	xchg   esi,eax
  4030bf:	jmp    0x628c:0x44b37845
  4030c6:	popf   
  4030c7:	int3   
  4030c8:	mov    esp,0x8e1c3877
  4030cd:	movs   BYTE PTR es:[edi],BYTE PTR ds:[esi]
  4030ce:	.byte 0x28
  4030cf:	.byte 0x81
